 MFCO42UD

 Timestamp is 31c84159 (Wed Jun 19 11:05:13 1996)

 Preferred load address is 5f500000

 Start         Length     Name                   Class
 0001:00000000 0004a1a8H .text                   CODE
 0001:0004a1b0 00000078H .text$AFX_CORE1         CODE
 0001:0004a230 000060dfH .text$AFX_CORE4         CODE
 0001:00050310 000040c0H .text$AFX_INIT          CODE
 0001:000543d0 0000fe7fH .text$AFX_OLE1          CODE
 0001:00064250 000099caH .text$AFX_OLE2          CODE
 0001:0006dc20 00007e03H .text$AFX_OLE3          CODE
 0001:00075a30 0000e4ffH .text$AFX_OLE4          CODE
 0001:00083f30 00003c86H .text$AFX_OLE5          CODE
 0001:00087bc0 00000328H .text$AFX_TERM          CODE
 0001:00087ef0 00001198H .text$AFX_VDEL          CODE
 0002:00000000 00010c30H .rdata                  DATA
 0002:00010c30 00004438H .rdata$r                DATA
 0002:00015068 00009658H .xdata$x                DATA
 0002:0001e6c0 00003509H .edata                  DATA
 0003:00000000 00000004H .CRT$XCA                DATA
 0003:00000004 0000000cH .CRT$XCL                DATA
 0003:00000010 00000028H .CRT$XCU                DATA
 0003:00000038 00000004H .CRT$XCZ                DATA
 0003:0000003c 00000004H .CRT$XIA                DATA
 0003:00000040 00000004H .CRT$XIZ                DATA
 0003:00000050 000029b4H .data                   DATA
 0003:00002a08 00002500H .bss                    DATA
 0004:00000000 00000064H .idata$2                DATA
 0004:00000064 00000014H .idata$3                DATA
 0004:00000078 000010c0H .idata$4                DATA
 0004:00001138 000010c0H .idata$5                DATA
 0004:000021f8 00000b00H .idata$6                DATA
 0005:00000000 00000448H .rsrc$01                DATA
 0005:00000450 00002198H .rsrc$02                DATA

  Address         Publics by Value              Rva+Base   Lib:Object

 0001:00000000       ?GetHead@?$CTypedSimpleList@PAUCRuntimeClass@@@@QAEPAUCRuntimeClass@@XZ 5f501000 f dllole.obj
 0001:00000020       ?GetHead@CSimpleList@@QBEPAXXZ 5f501020 f dllole.obj
 0001:00000040       ??B?$CTypedSimpleList@PAUCRuntimeClass@@@@QAEPAUCRuntimeClass@@XZ 5f501040 f dllole.obj
 0001:00000060       ?GetHead@?$CTypedSimpleList@PAVCOleObjectFactory@@@@QAEPAVCOleObjectFactory@@XZ 5f501060 f dllole.obj
 0001:00000080       ??B?$CTypedSimpleList@PAVCOleObjectFactory@@@@QAEPAVCOleObjectFactory@@XZ 5f501080 f dllole.obj
 0001:000000a0       ?T2COLE@@YAPBGPBG@Z        5f5010a0 f olecli1.obj
 0001:000000c0       ?OLE2CT@@YAPBGPBG@Z        5f5010c0 f olecli1.obj
 0001:000000e0       ?T2OLE@@YAPAGPAG@Z         5f5010e0 f olecli1.obj
 0001:00000100       ??B?$CProcessLocal@V_AFX_OLE_STATE@@@@QAEPAV_AFX_OLE_STATE@@XZ 5f501100 f olecli2.obj
 0001:00000120       ?GetData@?$CProcessLocal@V_AFX_OLE_STATE@@@@QAEPAV_AFX_OLE_STATE@@XZ 5f501120 f olecli2.obj
 0001:00000170       ?CreateObject@?$CProcessLocal@V_AFX_OLE_STATE@@@@SGPAVCNoTrackObject@@XZ 5f501170 f olecli2.obj
 0001:00000200       ??C?$CProcessLocal@V_AFX_OLE_STATE@@@@QAEPAV_AFX_OLE_STATE@@XZ 5f501200 f oledobj2.obj
 0001:00000220       ??9@YAHABU_GUID@@0@Z       5f501220 f oledisp1.obj
 0001:00000260       ??8@YAHABU_GUID@@0@Z       5f501260 f oledisp1.obj
 0001:000002a0       ?wcschr@@YAPAGPAGG@Z       5f5012a0 f oledlgs1.obj
 0001:000002d0       ?TASKSTRINGOLE2T@@YAPAGPAG@Z 5f5012d0 f oledlgs1.obj
 0001:000002f0       ??1CNoTrackObject@@UAE@XZ  5f5012f0 f oledata.obj
 0001:00000310       ??_GCNoTrackObject@@UAEPAXI@Z 5f501310 f oledata.obj
 0001:00000310       ??_ECNoTrackObject@@UAEPAXI@Z 5f501310 f oledata.obj
 0001:00000350       ??0CNoTrackObject@@QAE@XZ  5f501350 f oledata.obj
 0001:00000380       ??1?$_CIP@UIMoniker@@$1IID_IMoniker@@QAE@XZ 5f501380 f oledoc1.obj
 0001:000003a0       ??B?$_CIP@UIMoniker@@$1IID_IMoniker@@QBEPAUIMoniker@@XZ 5f5013a0 f oledoc1.obj
 0001:000003c0       ?_Release@?$_CIP@UIMoniker@@$1IID_IMoniker@@AAEXXZ 5f5013c0 f oledoc1.obj
 0001:00000400       ??0?$CIP@UIMoniker@@$1IID_IMoniker@@QAE@XZ 5f501400 f oledoc1.obj
 0001:00000470       ??0?$_CIP@UIMoniker@@$1IID_IMoniker@@QAE@XZ 5f501470 f oledoc1.obj
 0001:000004a0       ??B?$_CIP@UIBinding@@$1IID_IBinding@@QBEPAUIBinding@@XZ 5f5014a0 f oledoc1.obj
 0001:000004c0       ??4?$CIP@UIBinding@@$1IID_IBinding@@QAEAAV0@PAUIBinding@@@Z 5f5014c0 f oledoc1.obj
 0001:000004f0       ??4?$_CIP@UIBinding@@$1IID_IBinding@@QAEAAV0@PAUIBinding@@@Z 5f5014f0 f oledoc1.obj
 0001:00000550       ?_AddRef@?$_CIP@UIBinding@@$1IID_IBinding@@AAEXXZ 5f501550 f oledoc1.obj
 0001:00000590       ?AddHead@?$CTypedSimpleList@PAVCOleObjectFactory@@@@QAEXPAVCOleObjectFactory@@@Z 5f501590 f olefact.obj
 0001:000005c0       ?Remove@?$CTypedSimpleList@PAVCOleObjectFactory@@@@QAEHPAVCOleObjectFactory@@@Z 5f5015c0 f olefact.obj
 0001:000005f0       ??B?$CTypedSimpleList@PAVCDynLinkLibrary@@@@QAEPAVCDynLinkLibrary@@XZ 5f5015f0 f olefact.obj
 0001:00000610       ??_9@$BBAI@AE              5f501610 f oleipfrm.obj
 0001:00000620       ?ocslen@@YAIPBG@Z          5f501620 f olemisc.obj
 0001:00000640       ?ocscpy@@YAPAGPAGPBG@Z     5f501640 f olemisc.obj
 0001:00000670       ?OLE2T@@YAPAGPAG@Z         5f501670 f olemisc.obj
 0001:00000690       ?DEVMODEOLE2T@@YAPAU_devicemodeW@@PAU1@@Z 5f501690 f olemisc.obj
 0001:000006b0       ?DEVMODET2OLE@@YAPAU_devicemodeW@@PAU1@@Z 5f5016b0 f olemisc.obj
 0001:000006d0       ?_GetBaseInterfaceMap@CEnumOleVerb@@KGPBUAFX_INTERFACEMAP@@XZ 5f5016d0 f oleverb.obj
 0001:000006e5       ?GetInterfaceMap@CEnumOleVerb@@MBEPBUAFX_INTERFACEMAP@@XZ 5f5016e5 f oleverb.obj
 0001:00000700       ??1CEnumOleVerb@@UAE@XZ    5f501700 f oleverb.obj
 0001:000007b5       ?OnNext@CEnumOleVerb@@MAEHPAX@Z 5f5017b5 f oleverb.obj
 0001:00000824       ?EnumOleVerbs@CCmdTarget@@QAEHPAPAUIEnumOLEVERB@@@Z 5f501824 f oleverb.obj
 0001:00000aa5       ?DoOleVerb@CCmdTarget@@QAEHJPAUtagMSG@@PAUHWND__@@PBUtagRECT@@@Z 5f501aa5 f oleverb.obj
 0001:00000c20       ??_ECEnumOleVerb@@UAEPAXI@Z 5f501c20 f oleverb.obj
 0001:00000c20       ??_GCEnumOleVerb@@UAEPAXI@Z 5f501c20 f oleverb.obj
 0001:00000c60       ??0CEnumOleVerb@@QAE@PBXI@Z 5f501c60 f oleverb.obj
 0001:00000ce0       ??0COleVariant@@QAE@ABUtagVARIANT@@@Z 5f501ce0 f olevar.obj
 0001:00000d18       ??0COleVariant@@QAE@PBUtagVARIANT@@@Z 5f501d18 f olevar.obj
 0001:00000d50       ??0COleVariant@@QAE@ABV0@@Z 5f501d50 f olevar.obj
 0001:00000d88       ??0COleVariant@@QAE@PBGG@Z 5f501d88 f olevar.obj
 0001:00000e28       ?SetString@COleVariant@@QAEXPBGG@Z 5f501e28 f olevar.obj
 0001:00000ecd       ??0COleVariant@@QAE@FG@Z   5f501ecd f olevar.obj
 0001:00000f73       ??0COleVariant@@QAE@JG@Z   5f501f73 f olevar.obj
 0001:00001050       ?Clear@COleVariant@@QAEXXZ 5f502050 f olevar.obj
 0001:00001090       ?ChangeType@COleVariant@@QAEXGPAUtagVARIANT@@@Z 5f502090 f olevar.obj
 0001:000010f6       ?Attach@COleVariant@@QAEXAAUtagVARIANT@@@Z 5f5020f6 f olevar.obj
 0001:00001130       ?Detach@COleVariant@@QAE?AUtagVARIANT@@XZ 5f502130 f olevar.obj
 0001:000011a7       ??8COleVariant@@QBEHABUtagVARIANT@@@Z 5f5021a7 f olevar.obj
 0001:000014b6       ??4COleVariant@@QAEABV0@ABUtagVARIANT@@@Z 5f5024b6 f olevar.obj
 0001:000014e5       ??4COleVariant@@QAEABV0@PBUtagVARIANT@@@Z 5f5024e5 f olevar.obj
 0001:00001514       ??4COleVariant@@QAEABV0@ABV0@@Z 5f502514 f olevar.obj
 0001:00001543       ??4COleVariant@@QAEABV0@QBG@Z 5f502543 f olevar.obj
 0001:000015b9       ??4COleVariant@@QAEABV0@ABVCString@@@Z 5f5025b9 f olevar.obj
 0001:0000161b       ??4COleVariant@@QAEABV0@E@Z 5f50261b f olevar.obj
 0001:00001660       ??4COleVariant@@QAEABV0@F@Z 5f502660 f olevar.obj
 0001:000016f0       ??4COleVariant@@QAEABV0@J@Z 5f5026f0 f olevar.obj
 0001:00001799       ??4COleVariant@@QAEABV0@ABVCOleCurrency@@@Z 5f502799 f olevar.obj
 0001:000017e8       ??4COleVariant@@QAEABV0@M@Z 5f5027e8 f olevar.obj
 0001:0000182d       ??4COleVariant@@QAEABV0@N@Z 5f50282d f olevar.obj
 0001:00001878       ??4COleVariant@@QAEABV0@ABVCOleDateTime@@@Z 5f502878 f olevar.obj
 0001:000018c5       ??4COleVariant@@QAEABV0@ABVCByteArray@@@Z 5f5028c5 f olevar.obj
 0001:00001911       ??4COleVariant@@QAEABV0@ABVCLongBinary@@@Z 5f502911 f olevar.obj
 0001:00001970       ?AfxVariantInit@@YGXPAUtagVARIANT@@@Z 5f502970 f olevar.obj
 0001:00001992       ??6@YGAAVCDumpContext@@AAV0@VCOleVariant@@@Z 5f502992 f olevar.obj
 0001:00001d9a       ??6@YGAAVCArchive@@AAV0@VCOleVariant@@@Z 5f502d9a f olevar.obj
 0001:00002207       ??5@YGAAVCArchive@@AAV0@AAVCOleVariant@@@Z 5f503207 f olevar.obj
 0001:0000263c       ?ConstructElements@@YGXPAVCOleVariant@@H@Z 5f50363c f olevar.obj
 0001:000026d6       ?DestructElements@@YGXPAVCOleVariant@@H@Z 5f5036d6 f olevar.obj
 0001:00002752       ?CopyElements@@YGXPAVCOleVariant@@PBV1@H@Z 5f503752 f olevar.obj
 0001:00002810       ?SerializeElements@@YGXAAVCArchive@@PAVCOleVariant@@H@Z 5f503810 f olevar.obj
 0001:0000291f       ?DumpElements@@YGXAAVCDumpContext@@PAVCOleVariant@@H@Z 5f50391f f olevar.obj
 0001:000029af       ?HashKey@@YGIABUtagVARIANT@@@Z 5f5039af f olevar.obj
 0001:00003182       ??0COleCurrency@@QAE@JJ@Z  5f504182 f olevar.obj
 0001:000031b7       ??4COleCurrency@@QAEABV0@TtagCY@@@Z 5f5041b7 f olevar.obj
 0001:000031ea       ??4COleCurrency@@QAEABV0@ABV0@@Z 5f5041ea f olevar.obj
 0001:00003221       ??4COleCurrency@@QAEABV0@ABUtagVARIANT@@@Z 5f504221 f olevar.obj
 0001:00003351       ??MCOleCurrency@@QBEHABV0@@Z 5f504351 f olevar.obj
 0001:0000340a       ??OCOleCurrency@@QBEHABV0@@Z 5f50440a f olevar.obj
 0001:000034c3       ??NCOleCurrency@@QBEHABV0@@Z 5f5044c3 f olevar.obj
 0001:0000357c       ??PCOleCurrency@@QBEHABV0@@Z 5f50457c f olevar.obj
 0001:00003635       ??HCOleCurrency@@QBE?AV0@ABV0@@Z 5f504635 f olevar.obj
 0001:00003746       ??GCOleCurrency@@QBE?AV0@ABV0@@Z 5f504746 f olevar.obj
 0001:00003857       ??GCOleCurrency@@QBE?AV0@XZ 5f504857 f olevar.obj
 0001:000038f2       ??DCOleCurrency@@QBE?AV0@J@Z 5f5048f2 f olevar.obj
 0001:00003c53       ??KCOleCurrency@@QBE?AV0@J@Z 5f504c53 f olevar.obj
 0001:00003f9e       ?SetCurrency@COleCurrency@@QAEXJJ@Z 5f504f9e f olevar.obj
 0001:0000405f       ?ParseCurrency@COleCurrency@@QAEHPBGKK@Z 5f50505f f olevar.obj
 0001:000041da       ?Format@COleCurrency@@QBE?AVCString@@KK@Z 5f5051da f olevar.obj
 0001:00004350       ??6@YGAAVCDumpContext@@AAV0@VCOleCurrency@@@Z 5f505350 f olevar.obj
 0001:00004405       ??6@YGAAVCArchive@@AAV0@VCOleCurrency@@@Z 5f505405 f olevar.obj
 0001:0000443b       ??5@YGAAVCArchive@@AAV0@AAVCOleCurrency@@@Z 5f50543b f olevar.obj
 0001:00004477       ?GetTickCount@COleDateTime@@SG?AV1@XZ 5f505477 f olevar.obj
 0001:000044a0       ?GetYear@COleDateTime@@QBEHXZ 5f5054a0 f olevar.obj
 0001:000044f6       ?GetMonth@COleDateTime@@QBEHXZ 5f5054f6 f olevar.obj
 0001:0000454c       ?GetDay@COleDateTime@@QBEHXZ 5f50554c f olevar.obj
 0001:000045a2       ?GetHour@COleDateTime@@QBEHXZ 5f5055a2 f olevar.obj
 0001:000045f8       ?GetMinute@COleDateTime@@QBEHXZ 5f5055f8 f olevar.obj
 0001:0000464e       ?GetSecond@COleDateTime@@QBEHXZ 5f50564e f olevar.obj
 0001:000046a4       ?GetDayOfWeek@COleDateTime@@QBEHXZ 5f5056a4 f olevar.obj
 0001:000046fa       ?GetDayOfYear@COleDateTime@@QBEHXZ 5f5056fa f olevar.obj
 0001:00004750       ??4COleDateTime@@QAEABV0@ABUtagVARIANT@@@Z 5f505750 f olevar.obj
 0001:00004879       ??4COleDateTime@@QAEABV0@N@Z 5f505879 f olevar.obj
 0001:000048ac       ??4COleDateTime@@QAEABV0@ABJ@Z 5f5058ac f olevar.obj
 0001:00004968       ??4COleDateTime@@QAEABV0@ABU_SYSTEMTIME@@@Z 5f505968 f olevar.obj
 0001:000049df       ??4COleDateTime@@QAEABV0@ABU_FILETIME@@@Z 5f5059df f olevar.obj
 0001:00004abd       ??MCOleDateTime@@QBEHABV0@@Z 5f505abd f olevar.obj
 0001:00004b6a       ??OCOleDateTime@@QBEHABV0@@Z 5f505b6a f olevar.obj
 0001:00004c17       ??NCOleDateTime@@QBEHABV0@@Z 5f505c17 f olevar.obj
 0001:00004cc4       ??PCOleDateTime@@QBEHABV0@@Z 5f505cc4 f olevar.obj
 0001:00004d71       ??HCOleDateTime@@QBE?AV0@ABVCOleDateTimeSpan@@@Z 5f505d71 f olevar.obj
 0001:00004e5b       ??GCOleDateTime@@QBE?AV0@ABVCOleDateTimeSpan@@@Z 5f505e5b f olevar.obj
 0001:00004f45       ??GCOleDateTime@@QBE?AVCOleDateTimeSpan@@ABV0@@Z 5f505f45 f olevar.obj
 0001:00005020       ?SetDateTime@COleDateTime@@QAEHHHHHHH@Z 5f506020 f olevar.obj
 0001:00005083       ?ParseDateTime@COleDateTime@@QAEHPBGKK@Z 5f506083 f olevar.obj
 0001:000051f8       ?Format@COleDateTime@@QBE?AVCString@@KK@Z 5f5061f8 f olevar.obj
 0001:0000536e       ?Format@COleDateTime@@QBE?AVCString@@PBG@Z 5f50636e f olevar.obj
 0001:000054f0       ?Format@COleDateTime@@QBE?AVCString@@I@Z 5f5064f0 f olevar.obj
 0001:000055b4       ?CheckRange@COleDateTime@@IAEXXZ 5f5065b4 f olevar.obj
 0001:00005600       ??6@YGAAVCDumpContext@@AAV0@VCOleDateTime@@@Z 5f506600 f olevar.obj
 0001:000056b5       ??6@YGAAVCArchive@@AAV0@VCOleDateTime@@@Z 5f5066b5 f olevar.obj
 0001:000056e3       ??5@YGAAVCArchive@@AAV0@AAVCOleDateTime@@@Z 5f5066e3 f olevar.obj
 0001:00005710       ?GetHours@COleDateTimeSpan@@QBEJXZ 5f506710 f olevar.obj
 0001:00005773       ?GetMinutes@COleDateTimeSpan@@QBEJXZ 5f506773 f olevar.obj
 0001:000057dd       ?GetSeconds@COleDateTimeSpan@@QBEJXZ 5f5067dd f olevar.obj
 0001:00005847       ??4COleDateTimeSpan@@QAEABV0@N@Z 5f506847 f olevar.obj
 0001:0000587a       ??4COleDateTimeSpan@@QAEABV0@ABV0@@Z 5f50687a f olevar.obj
 0001:000058b1       ??HCOleDateTimeSpan@@QBE?AV0@ABV0@@Z 5f5068b1 f olevar.obj
 0001:00005975       ??GCOleDateTimeSpan@@QBE?AV0@ABV0@@Z 5f506975 f olevar.obj
 0001:00005a39       ?SetDateTimeSpan@COleDateTimeSpan@@QAEXJHHH@Z 5f506a39 f olevar.obj
 0001:00005a9a       ?Format@COleDateTimeSpan@@QBE?AVCString@@PBG@Z 5f506a9a f olevar.obj
 0001:00005c1c       ?Format@COleDateTimeSpan@@QBE?AVCString@@I@Z 5f506c1c f olevar.obj
 0001:00005ce0       ?CheckRange@COleDateTimeSpan@@QAEXXZ 5f506ce0 f olevar.obj
 0001:00005d2c       ??6@YGAAVCDumpContext@@AAV0@VCOleDateTimeSpan@@@Z 5f506d2c f olevar.obj
 0001:00005de5       ??6@YGAAVCArchive@@AAV0@VCOleDateTimeSpan@@@Z 5f506de5 f olevar.obj
 0001:00005e13       ??5@YGAAVCArchive@@AAV0@AAVCOleDateTimeSpan@@@Z 5f506e13 f olevar.obj
 0001:00006483       ??0COleSafeArray@@QAE@ABUtagSAFEARRAY@@G@Z 5f507483 f olevar.obj
 0001:000064ed       ??0COleSafeArray@@QAE@PBUtagSAFEARRAY@@G@Z 5f5074ed f olevar.obj
 0001:00006557       ??0COleSafeArray@@QAE@ABV0@@Z 5f507557 f olevar.obj
 0001:000065a3       ??0COleSafeArray@@QAE@ABUtagVARIANT@@@Z 5f5075a3 f olevar.obj
 0001:000065ef       ??0COleSafeArray@@QAE@PBUtagVARIANT@@@Z 5f5075ef f olevar.obj
 0001:0000663b       ?Attach@COleSafeArray@@QAEXAAUtagVARIANT@@@Z 5f50763b f olevar.obj
 0001:0000669e       ?Detach@COleSafeArray@@QAE?AUtagVARIANT@@XZ 5f50769e f olevar.obj
 0001:00006715       ??4COleSafeArray@@QAEAAV0@ABV0@@Z 5f507715 f olevar.obj
 0001:0000676d       ??4COleSafeArray@@QAEAAV0@ABUtagVARIANT@@@Z 5f50776d f olevar.obj
 0001:000067c5       ??4COleSafeArray@@QAEAAV0@PBUtagVARIANT@@@Z 5f5077c5 f olevar.obj
 0001:0000681d       ??4COleSafeArray@@QAEAAV0@ABVCOleVariant@@@Z 5f50781d f olevar.obj
 0001:00006875       ??8COleSafeArray@@QBEHABUtagSAFEARRAY@@@Z 5f507875 f olevar.obj
 0001:0000689d       ??8COleSafeArray@@QBEHPBUtagSAFEARRAY@@@Z 5f50789d f olevar.obj
 0001:000068c5       ??8COleSafeArray@@QBEHABV0@@Z 5f5078c5 f olevar.obj
 0001:0000690f       ??8COleSafeArray@@QBEHABUtagVARIANT@@@Z 5f50790f f olevar.obj
 0001:00006959       ??8COleSafeArray@@QBEHPBUtagVARIANT@@@Z 5f507959 f olevar.obj
 0001:000069a3       ??8COleSafeArray@@QBEHABVCOleVariant@@@Z 5f5079a3 f olevar.obj
 0001:000069ed       ?CreateOneDim@COleSafeArray@@QAEXGKPAXJ@Z 5f5079ed f olevar.obj
 0001:00006a80       ?GetOneDimSize@COleSafeArray@@QAEKXZ 5f507a80 f olevar.obj
 0001:00006ae2       ?ResizeOneDim@COleSafeArray@@QAEXK@Z 5f507ae2 f olevar.obj
 0001:00006b3c       ?Create@COleSafeArray@@QAEXGKPAK@Z 5f507b3c f olevar.obj
 0001:00006c8a       ?Create@COleSafeArray@@QAEXGKPAUtagSAFEARRAYBOUND@@@Z 5f507c8a f olevar.obj
 0001:00006df6       ?AccessData@COleSafeArray@@QAEXPAPAX@Z 5f507df6 f olevar.obj
 0001:00006e25       ?UnaccessData@COleSafeArray@@QAEXXZ 5f507e25 f olevar.obj
 0001:00006e4e       ?AllocData@COleSafeArray@@QAEXXZ 5f507e4e f olevar.obj
 0001:00006e77       ?AllocDescriptor@COleSafeArray@@QAEXK@Z 5f507e77 f olevar.obj
 0001:00006ea6       ?Copy@COleSafeArray@@QAEXPAPAUtagSAFEARRAY@@@Z 5f507ea6 f olevar.obj
 0001:00006ed5       ?GetLBound@COleSafeArray@@QAEXKPAJ@Z 5f507ed5 f olevar.obj
 0001:00006f08       ?GetUBound@COleSafeArray@@QAEXKPAJ@Z 5f507f08 f olevar.obj
 0001:00006f3b       ?GetElement@COleSafeArray@@QAEXPAJPAX@Z 5f507f3b f olevar.obj
 0001:00006f6e       ?PtrOfIndex@COleSafeArray@@QAEXPAJPAPAX@Z 5f507f6e f olevar.obj
 0001:00006fa1       ?PutElement@COleSafeArray@@QAEXPAJPAX@Z 5f507fa1 f olevar.obj
 0001:00006fd4       ?Redim@COleSafeArray@@QAEXPAUtagSAFEARRAYBOUND@@@Z 5f507fd4 f olevar.obj
 0001:00007003       ?Lock@COleSafeArray@@QAEXXZ 5f508003 f olevar.obj
 0001:0000702c       ?Unlock@COleSafeArray@@QAEXXZ 5f50802c f olevar.obj
 0001:00007055       ?Destroy@COleSafeArray@@QAEXXZ 5f508055 f olevar.obj
 0001:0000707e       ?DestroyData@COleSafeArray@@QAEXXZ 5f50807e f olevar.obj
 0001:000070a7       ?DestroyDescriptor@COleSafeArray@@QAEXXZ 5f5080a7 f olevar.obj
 0001:000070d0       ?AfxSafeArrayInit@@YGXPAVCOleSafeArray@@@Z 5f5080d0 f olevar.obj
 0001:000070f2       ?DDX_Text@@YGXPAVCDataExchange@@HAAVCOleDateTime@@@Z 5f5080f2 f olevar.obj
 0001:0000721d       ?DDX_Text@@YGXPAVCDataExchange@@HAAVCOleCurrency@@@Z 5f50821d f olevar.obj
 0001:00007350       ??_GCOleVariant@@QAEPAXI@Z 5f508350 f olevar.obj
 0001:00007390       ??2@YAPAXIPAX@Z            5f508390 f olevar.obj
 0001:000073b0       ?HashKey@@YGIPAG@Z         5f5083b0 f olevar.obj
 0001:000073d0       ?HashKey@@YGIK@Z           5f5083d0 f olevar.obj
 0001:000073f0       ??0_afxRichEditCookie@@QAE@AAVCArchive@@@Z 5f5083f0 f viewrich.obj
 0001:00007420       ??B?$CProcessLocal@V_AFX_RICHEDIT_STATE@@@@QAEPAV_AFX_RICHEDIT_STATE@@XZ 5f508420 f viewrich.obj
 0001:00007440       ?GetData@?$CProcessLocal@V_AFX_RICHEDIT_STATE@@@@QAEPAV_AFX_RICHEDIT_STATE@@XZ 5f508440 f viewrich.obj
 0001:00007490       ?CreateObject@?$CProcessLocal@V_AFX_RICHEDIT_STATE@@@@SGPAVCNoTrackObject@@XZ 5f508490 f viewrich.obj
 0001:00007520       ??0_AFX_RICHEDIT_STATE@@QAE@XZ 5f508520 f viewrich.obj
 0001:00007590       ??_E_AFX_RICHEDIT_STATE@@UAEPAXI@Z 5f508590 f viewrich.obj
 0001:00007590       ??_G_AFX_RICHEDIT_STATE@@UAEPAXI@Z 5f508590 f viewrich.obj
 0001:000075d0       ?EnableTypeLib@CCmdTarget@@QAEXXZ 5f5085d0 f oletyplb.obj
 0001:00007633       ?GetTypeInfoOfGuid@CCmdTarget@@QAEJKABU_GUID@@PAPAUITypeInfo@@@Z 5f508633 f oletyplb.obj
 0001:000077dd       ?AfxGetTypeLibCache@@YGPAVCTypeLibCache@@PBU_GUID@@@Z 5f5087dd f oletyplb.obj
 0001:000079c3       ?Lock@CTypeLibCache@@QAEXXZ 5f5089c3 f oletyplb.obj
 0001:00007a22       ?Lookup@CTypeLibCache@@QAEHKPAPAUITypeLib@@@Z 5f508a22 f oletyplb.obj
 0001:00007ab2       ?Cache@CTypeLibCache@@QAEXKPAUITypeLib@@@Z 5f508ab2 f oletyplb.obj
 0001:00007b6b       ?LookupTypeInfo@CTypeLibCache@@QAEHKABU_GUID@@PAPAUITypeInfo@@@Z 5f508b6b f oletyplb.obj
 0001:00007c48       ?CacheTypeInfo@CTypeLibCache@@QAEXKABU_GUID@@PAUITypeInfo@@@Z 5f508c48 f oletyplb.obj
 0001:00007ce0       ??0CTypeLibCache@@QAE@XZ   5f508ce0 f oletyplb.obj
 0001:00007d30       ?IsEqualGUID@@YAHABU_GUID@@0@Z 5f508d30 f oletyplb.obj
 0001:00007d70       ??B?$_CIP@UIBindCtx@@$1IID_IBindCtx@@QBEPAUIBindCtx@@XZ 5f508d70 f olemon.obj
 0001:00007d90       ??0?$CIP@UIBindCtx@@$1IID_IBindCtx@@QAE@PAUIBindCtx@@H@Z 5f508d90 f olemon.obj
 0001:00007e00       ??0?$_CIP@UIBindCtx@@$1IID_IBindCtx@@QAE@PAUIBindCtx@@H@Z 5f508e00 f olemon.obj
 0001:00007e60       ??1?$_CIP@UIBindCtx@@$1IID_IBindCtx@@QAE@XZ 5f508e60 f olemon.obj
 0001:00007e80       ?_Release@?$_CIP@UIBindCtx@@$1IID_IBindCtx@@AAEXXZ 5f508e80 f olemon.obj
 0001:00007ec0       ?_AddRef@?$_CIP@UIBindCtx@@$1IID_IBindCtx@@AAEXXZ 5f508ec0 f olemon.obj
 0001:00007f00       ??B?$_CIP@UIBindHost@@$1IID_IBindHost@@QBEPAUIBindHost@@XZ 5f508f00 f olemon.obj
 0001:00007f20       ??I?$_CIP@UIMoniker@@$1IID_IMoniker@@QAEPAPAUIMoniker@@XZ 5f508f20 f olemon.obj
 0001:00007f50       ??7?$_CIP@UIMoniker@@$1IID_IMoniker@@QAEHXZ 5f508f50 f olemon.obj
 0001:00007f80       ??0?$CIP@UIBindHost@@$1IID_IBindHost@@QAE@PAUIBindHost@@H@Z 5f508f80 f olemon.obj
 0001:00007ff0       ??0?$_CIP@UIBindHost@@$1IID_IBindHost@@QAE@PAUIBindHost@@H@Z 5f508ff0 f olemon.obj
 0001:00008050       ??1?$_CIP@UIBindHost@@$1IID_IBindHost@@QAE@XZ 5f509050 f olemon.obj
 0001:00008070       ?_Release@?$_CIP@UIBindHost@@$1IID_IBindHost@@AAEXXZ 5f509070 f olemon.obj
 0001:000080b0       ?_AddRef@?$_CIP@UIBindHost@@$1IID_IBindHost@@AAEXXZ 5f5090b0 f olemon.obj
 0001:000080f0       ??4?$CIP@UIMoniker@@$1IID_IMoniker@@QAEAAV0@PAUIMoniker@@@Z 5f5090f0 f olemon.obj
 0001:00008120       ??4?$_CIP@UIMoniker@@$1IID_IMoniker@@QAEAAV0@PAUIMoniker@@@Z 5f509120 f olemon.obj
 0001:00008180       ?_AddRef@?$_CIP@UIMoniker@@$1IID_IMoniker@@AAEXXZ 5f509180 f olemon.obj
 0001:000081c0       ??B?$_CIP@UIStream@@$1IID_IStream@@QBEPAUIStream@@XZ 5f5091c0 f olemon.obj
 0001:000081e0       ??I?$_CIP@UIStream@@$1IID_IStream@@QAEPAPAUIStream@@XZ 5f5091e0 f olemon.obj
 0001:00008210       ?GetInterfacePtr@?$_CIP@UIStream@@$1IID_IStream@@QBEPAUIStream@@XZ 5f509210 f olemon.obj
 0001:00008230       ?_Release@?$_CIP@UIStream@@$1IID_IStream@@AAEXXZ 5f509230 f olemon.obj
 0001:00008270       ??0?$CIP@UIStream@@$1IID_IStream@@QAE@XZ 5f509270 f olemon.obj
 0001:000082e0       ??0?$_CIP@UIStream@@$1IID_IStream@@QAE@XZ 5f5092e0 f olemon.obj
 0001:00008310       ??1?$_CIP@UIStream@@$1IID_IStream@@QAE@XZ 5f509310 f olemon.obj
 0001:00008330       ?Release@?$_CIP@UIMoniker@@$1IID_IMoniker@@QAEXXZ 5f509330 f olemon.obj
 0001:00008390       ?GetInterfacePtr@?$_CIP@UIMoniker@@$1IID_IMoniker@@QBEPAUIMoniker@@XZ 5f509390 f olemon.obj
 0001:000083b0       ??0_AfxBindHost@@QAE@XZ    5f5093b0 f olemon.obj
 0001:000083f0       ?AddRef@_AfxBindHost@@UAGKXZ 5f5093f0 f olemon.obj
 0001:00008410       ?Release@_AfxBindHost@@UAGKXZ 5f509410 f olemon.obj
 0001:00008470       ?QueryInterface@_AfxBindHost@@UAGJABU_GUID@@PAPAX@Z 5f509470 f olemon.obj
 0001:00008500       ?CreateMoniker@_AfxBindHost@@UAGJPAGPAUIBindCtx@@PAPAUIMoniker@@K@Z 5f509500 f olemon.obj
 0001:00008590       ?MonikerBindToStorage@_AfxBindHost@@UAGJPAUIMoniker@@PAUIBindCtx@@PAUIBindStatusCallback@@ABU_GUID@@PAPAX@Z 5f509590 f olemon.obj
 0001:00008780       ?MonikerBindToObject@_AfxBindHost@@EAGJPAUIMoniker@@PAUIBindCtx@@PAUIBindStatusCallback@@ABU_GUID@@PAPAX@Z 5f509780 f olemon.obj
 0001:000087b0       ??I?$_CIP@UIBindCtx@@$1IID_IBindCtx@@QAEPAPAUIBindCtx@@XZ 5f5097b0 f olemon.obj
 0001:000087e0       ??7?$_CIP@UIBindCtx@@$1IID_IBindCtx@@QAEHXZ 5f5097e0 f olemon.obj
 0001:00008810       ??0?$CIP@UIBindCtx@@$1IID_IBindCtx@@QAE@XZ 5f509810 f olemon.obj
 0001:00008880       ??0?$_CIP@UIBindCtx@@$1IID_IBindCtx@@QAE@XZ 5f509880 f olemon.obj
 0001:000088b0       ??4?$CIP@UIBindCtx@@$1IID_IBindCtx@@QAEAAV0@PAUIBindCtx@@@Z 5f5098b0 f olemon.obj
 0001:000088e0       ??4?$_CIP@UIBindCtx@@$1IID_IBindCtx@@QAEAAV0@PAUIBindCtx@@@Z 5f5098e0 f olemon.obj
 0001:00008940       ??I?$_CIP@UIBindStatusCallback@@$1IID_IBindStatusCallback@@QAEPAPAUIBindStatusCallback@@XZ 5f509940 f olemon.obj
 0001:00008970       ??7?$_CIP@UIBindStatusCallback@@$1IID_IBindStatusCallback@@QAEHXZ 5f509970 f olemon.obj
 0001:000089a0       ?_Release@?$_CIP@UIBindStatusCallback@@$1IID_IBindStatusCallback@@AAEXXZ 5f5099a0 f olemon.obj
 0001:000089e0       ??0?$CIP@UIBindStatusCallback@@$1IID_IBindStatusCallback@@QAE@XZ 5f5099e0 f olemon.obj
 0001:00008a50       ??0?$_CIP@UIBindStatusCallback@@$1IID_IBindStatusCallback@@QAE@XZ 5f509a50 f olemon.obj
 0001:00008a80       ??1?$_CIP@UIBindStatusCallback@@$1IID_IBindStatusCallback@@QAE@XZ 5f509a80 f olemon.obj
 0001:00008aa0       ??1_AfxBindHost@@QAE@XZ    5f509aa0 f olemon.obj
 0001:00008b51       ?AfxEnableControlContainer@@YAXPAVCOccManager@@@Z 5f509b51 f occmgr.obj
 0001:00008ba2       ?OnEvent@COccManager@@UAEHPAVCCmdTarget@@IPAUAFX_EVENT@@PAUAFX_CMDHANDLERINFO@@@Z 5f509ba2 f occmgr.obj
 0001:00008bce       ?CreateContainer@COccManager@@UAEPAVCOleControlContainer@@PAVCWnd@@@Z 5f509bce f occmgr.obj
 0001:00008c17       ?CreateSite@COccManager@@UAEPAVCOleControlSite@@PAVCOleControlContainer@@@Z 5f509c17 f occmgr.obj
 0001:00008c63       ?PreCreateDialog@COccManager@@UAEPBUDLGTEMPLATE@@PAU_AFX_OCC_DIALOG_INFO@@PBU2@@Z 5f509c63 f occmgr.obj
 0001:00008d7a       ?PostCreateDialog@COccManager@@UAEXPAU_AFX_OCC_DIALOG_INFO@@@Z 5f509d7a f occmgr.obj
 0001:00008dc7       ?SplitDialogTemplate@COccManager@@UAEPAUDLGTEMPLATE@@PBU2@PAPAUDLGITEMTEMPLATE@@@Z 5f509dc7 f occmgr.obj
 0001:00009252       ?CreateDlgControls@COccManager@@UAEHPAVCWnd@@PBGPAU_AFX_OCC_DIALOG_INFO@@@Z 5f50a252 f occmgr.obj
 0001:000093d3       ?CreateDlgControls@COccManager@@UAEHPAVCWnd@@PAXPAU_AFX_OCC_DIALOG_INFO@@@Z 5f50a3d3 f occmgr.obj
 0001:00009791       ?BindControls@COccManager@@IAEXPAVCWnd@@@Z 5f50a791 f occmgr.obj
 0001:000099e9       ?CreateDlgControl@COccManager@@IAEPAUHWND__@@PAVCWnd@@PAU2@HPAUDLGITEMTEMPLATE@@GPAEK@Z 5f50a9e9 f occmgr.obj
 0001:0000a057       ?PrepareOleCtrl@CDataExchange@@QAEPAVCWnd@@H@Z 5f50b057 f occmgr.obj
 0001:0000a130       ??1?$CProcessLocal@VCOccManager@@@@QAE@XZ 5f50b130 f occmgr.obj
 0001:0000a190       ?GetData@?$CProcessLocal@VCOccManager@@@@QAEPAVCOccManager@@XZ 5f50b190 f occmgr.obj
 0001:0000a1e0       ?CreateObject@?$CProcessLocal@VCOccManager@@@@SGPAVCNoTrackObject@@XZ 5f50b1e0 f occmgr.obj
 0001:0000a270       ??0COccManager@@QAE@XZ     5f50b270 f occmgr.obj
 0001:0000a2e0       ??_GCOccManager@@UAEPAXI@Z 5f50b2e0 f occmgr.obj
 0001:0000a2e0       ??_ECOccManager@@UAEPAXI@Z 5f50b2e0 f occmgr.obj
 0001:0000a320       ??1COccManager@@UAE@XZ     5f50b320 f occmgr.obj
 0001:0000a380       ?UnlockResource@@YGHPAX@Z  5f50b380 f occmgr.obj
 0001:0000a3a0       ?OnEvent@CCmdTarget@@QAEHIPAUAFX_EVENT@@PAUAFX_CMDHANDLERINFO@@@Z 5f50b3a0 f occevent.obj
 0001:0000a826       ?GetEventSinkEntry@CCmdTarget@@IAGPBUAFX_EVENTSINKMAP_ENTRY@@IPAUAFX_EVENT@@@Z 5f50b826 f occevent.obj
 0001:0000a920       ?CreateControl@CWnd@@QAEHPBG0KABUtagRECT@@PAV1@IPAVCFile@@HPAG@Z 5f50b920 f occcont.obj
 0001:0000a9a4       ?CreateControl@CWnd@@QAEHABU_GUID@@PBGKABUtagRECT@@PAV1@IPAVCFile@@HPAG@Z 5f50b9a4 f occcont.obj
 0001:0000aa63       ?InitControlContainer@CWnd@@IAEHXZ 5f50ba63 f occcont.obj
 0001:0000abaf       ?_GetBaseInterfaceMap@COleControlContainer@@KGPBUAFX_INTERFACEMAP@@XZ 5f50bbaf f occcont.obj
 0001:0000abc4       ?GetInterfaceMap@COleControlContainer@@MBEPBUAFX_INTERFACEMAP@@XZ 5f50bbc4 f occcont.obj
 0001:0000abdf       ?_GetBaseDispatchMap@COleControlContainer@@KGPBUAFX_DISPMAP@@XZ 5f50bbdf f occcont.obj
 0001:0000abf4       ?GetDispatchMap@COleControlContainer@@MBEPBUAFX_DISPMAP@@XZ 5f50bbf4 f occcont.obj
 0001:0000ac0f       ??0COleControlContainer@@QAE@PAVCWnd@@@Z 5f50bc0f f occcont.obj
 0001:0000ace4       ??1COleControlContainer@@UAE@XZ 5f50bce4 f occcont.obj
 0001:0000adf5       ?CreateControl@COleControlContainer@@QAEHPAVCWnd@@ABU_GUID@@PBGKABUtagRECT@@IPAVCFile@@HPAGPAPAVCOleControlSite@@@Z 5f50bdf5 f occcont.obj
 0001:0000af97       ?FindItem@COleControlContainer@@UBEPAVCOleControlSite@@I@Z 5f50bf97 f occcont.obj
 0001:0000affe       ?GetAmbientProp@COleControlContainer@@UAEHPAVCOleControlSite@@JPAUtagVARIANT@@@Z 5f50bffe f occcont.obj
 0001:0000b34d       ?CreateOleFont@COleControlContainer@@QAEXPAVCFont@@@Z 5f50c34d f occcont.obj
 0001:0000b55c       ?ScrollChildren@COleControlContainer@@UAEXHH@Z 5f50c55c f occcont.obj
 0001:0000b62f       ?OnUIActivate@COleControlContainer@@UAEXPAVCOleControlSite@@@Z 5f50c62f f occcont.obj
 0001:0000b69a       ?OnUIDeactivate@COleControlContainer@@UAEXPAVCOleControlSite@@@Z 5f50c69a f occcont.obj
 0001:0000b6e3       ?CheckDlgButton@COleControlContainer@@UAEXHI@Z 5f50c6e3 f occcont.obj
 0001:0000b75e       ?CheckRadioButton@COleControlContainer@@UAEXHHH@Z 5f50c75e f occcont.obj
 0001:0000b7fa       ?GetDlgItem@COleControlContainer@@UBEPAVCWnd@@H@Z 5f50c7fa f occcont.obj
 0001:0000b82e       ?GetDlgItem@COleControlContainer@@UBEXHPAPAUHWND__@@@Z 5f50c82e f occcont.obj
 0001:0000b896       ?GetDlgItemInt@COleControlContainer@@UBEIHPAHH@Z 5f50c896 f occcont.obj
 0001:0000b9ce       ?GetDlgItemTextW@COleControlContainer@@UBEHHPAGH@Z 5f50c9ce f occcont.obj
 0001:0000ba19       ?SendDlgItemMessageW@COleControlContainer@@UAEJHIIJ@Z 5f50ca19 f occcont.obj
 0001:0000ba68       ?SetDlgItemInt@COleControlContainer@@UAEXHIH@Z 5f50ca68 f occcont.obj
 0001:0000bacb       ?SetDlgItemTextW@COleControlContainer@@UAEXHPBG@Z 5f50cacb f occcont.obj
 0001:0000bb10       ?IsDlgButtonChecked@COleControlContainer@@UBEIH@Z 5f50cb10 f occcont.obj
 0001:0000bc1a       ?QueryInterface@XOleIPFrame@COleControlContainer@@UAGJABU_GUID@@PAPAX@Z 5f50cc1a f occcont.obj
 0001:0000bc48       ?AddRef@XOleIPFrame@COleControlContainer@@UAGKXZ 5f50cc48 f occcont.obj
 0001:0000bc6e       ?Release@XOleIPFrame@COleControlContainer@@UAGKXZ 5f50cc6e f occcont.obj
 0001:0000bc94       ?GetWindow@XOleIPFrame@COleControlContainer@@UAGJPAPAUHWND__@@@Z 5f50cc94 f occcont.obj
 0001:0000bcc2       ?ContextSensitiveHelp@XOleIPFrame@COleControlContainer@@UAGJH@Z 5f50ccc2 f occcont.obj
 0001:0000bcd9       ?GetBorder@XOleIPFrame@COleControlContainer@@UAGJPAUtagRECT@@@Z 5f50ccd9 f occcont.obj
 0001:0000bcf0       ?RequestBorderSpace@XOleIPFrame@COleControlContainer@@UAGJPBUtagRECT@@@Z 5f50ccf0 f occcont.obj
 0001:0000bd07       ?SetBorderSpace@XOleIPFrame@COleControlContainer@@UAGJPBUtagRECT@@@Z 5f50cd07 f occcont.obj
 0001:0000bd1e       ?SetActiveObject@XOleIPFrame@COleControlContainer@@UAGJPAUIOleInPlaceActiveObject@@PBG@Z 5f50cd1e f occcont.obj
 0001:0000bd8f       ?InsertMenus@XOleIPFrame@COleControlContainer@@UAGJPAUHMENU__@@PAUtagOleMenuGroupWidths@@@Z 5f50cd8f f occcont.obj
 0001:0000bda6       ?SetMenu@XOleIPFrame@COleControlContainer@@UAGJPAUHMENU__@@PAXPAUHWND__@@@Z 5f50cda6 f occcont.obj
 0001:0000bdbd       ?RemoveMenus@XOleIPFrame@COleControlContainer@@UAGJPAUHMENU__@@@Z 5f50cdbd f occcont.obj
 0001:0000bdd4       ?SetStatusText@XOleIPFrame@COleControlContainer@@UAGJPBG@Z 5f50cdd4 f occcont.obj
 0001:0000bdeb       ?EnableModeless@XOleIPFrame@COleControlContainer@@UAGJH@Z 5f50cdeb f occcont.obj
 0001:0000be02       ?TranslateAcceleratorW@XOleIPFrame@COleControlContainer@@UAGJPAUtagMSG@@G@Z 5f50ce02 f occcont.obj
 0001:0000be19       ?_GetBaseInterfaceMap@CEnumUnknown@@KGPBUAFX_INTERFACEMAP@@XZ 5f50ce19 f occcont.obj
 0001:0000be2e       ?GetInterfaceMap@CEnumUnknown@@MBEPBUAFX_INTERFACEMAP@@XZ 5f50ce2e f occcont.obj
 0001:0000be49       ??1CEnumUnknown@@UAE@XZ    5f50ce49 f occcont.obj
 0001:0000bf2a       ?OnNext@CEnumUnknown@@MAEHPAX@Z 5f50cf2a f occcont.obj
 0001:0000bf96       ?QueryInterface@XOleContainer@COleControlContainer@@UAGJABU_GUID@@PAPAX@Z 5f50cf96 f occcont.obj
 0001:0000bfc4       ?Release@XOleContainer@COleControlContainer@@UAGKXZ 5f50cfc4 f occcont.obj
 0001:0000bfea       ?AddRef@XOleContainer@COleControlContainer@@UAGKXZ 5f50cfea f occcont.obj
 0001:0000c010       ?ParseDisplayName@XOleContainer@COleControlContainer@@UAGJPAUIBindCtx@@PAGPAKPAPAUIMoniker@@@Z 5f50d010 f occcont.obj
 0001:0000c027       ?EnumObjects@XOleContainer@COleControlContainer@@UAGJKPAPAUIEnumUnknown@@@Z 5f50d027 f occcont.obj
 0001:0000c2f6       ?LockContainer@XOleContainer@COleControlContainer@@UAGJH@Z 5f50d2f6 f occcont.obj
 0001:0000c310       ??_ECOleControlContainer@@UAEPAXI@Z 5f50d310 f occcont.obj
 0001:0000c310       ??_GCOleControlContainer@@UAEPAXI@Z 5f50d310 f occcont.obj
 0001:0000c350       ??0XOleIPFrame@COleControlContainer@@QAE@XZ 5f50d350 f occcont.obj
 0001:0000c380       ??0XOleContainer@COleControlContainer@@QAE@XZ 5f50d380 f occcont.obj
 0001:0000c3b0       ??_GCEnumUnknown@@UAEPAXI@Z 5f50d3b0 f occcont.obj
 0001:0000c3b0       ??_ECEnumUnknown@@UAEPAXI@Z 5f50d3b0 f occcont.obj
 0001:0000c3f0       ??0CEnumUnknown@@QAE@PBXI@Z 5f50d3f0 f occcont.obj
 0001:0000c470       ?_GetBaseInterfaceMap@COleControlSite@@KGPBUAFX_INTERFACEMAP@@XZ 5f50d470 f occsite.obj
 0001:0000c485       ?GetInterfaceMap@COleControlSite@@MBEPBUAFX_INTERFACEMAP@@XZ 5f50d485 f occsite.obj
 0001:0000c4a0       ??0COleControlSite@@QAE@PAVCOleControlContainer@@@Z 5f50d4a0 f occsite.obj
 0001:0000c6aa       ??1COleControlSite@@UAE@XZ 5f50d6aa f occsite.obj
 0001:0000c869       ?SetExtent@COleControlSite@@IAEHXZ 5f50d869 f occsite.obj
 0001:0000c978       ?CreateControl@COleControlSite@@QAEJPAVCWnd@@ABU_GUID@@PBGKABUtagRECT@@IPAVCFile@@HPAG@Z 5f50d978 f occsite.obj
 0001:0000cd80       ?DestroyControl@COleControlSite@@UAEHXZ 5f50dd80 f occsite.obj
 0001:0000cdfd       ?QuickActivate@COleControlSite@@UAEHXZ 5f50ddfd f occsite.obj
 0001:0000d07c       ?CreateOrLoad@COleControlSite@@IAEJABU_GUID@@PAVCFile@@HPAG@Z 5f50e07c f occsite.obj
 0001:0000d9b7       ?GetID@COleControlSite@@QAEIXZ 5f50e9b7 f occsite.obj
 0001:0000d9d3       ?DoVerb@COleControlSite@@UAEJJPAUtagMSG@@@Z 5f50e9d3 f occsite.obj
 0001:0000da29       ?IsDefaultButton@COleControlSite@@QAEHXZ 5f50ea29 f occsite.obj
 0001:0000da65       ?GetDefBtnCode@COleControlSite@@QAEKXZ 5f50ea65 f occsite.obj
 0001:0000dab0       ?SetDefaultButton@COleControlSite@@QAEXH@Z 5f50eab0 f occsite.obj
 0001:0000db67       ?ConnectSink@COleControlSite@@IAEKABU_GUID@@PAUIUnknown@@@Z 5f50eb67 f occsite.obj
 0001:0000dc77       ?DisconnectSink@COleControlSite@@IAEXABU_GUID@@K@Z 5f50ec77 f occsite.obj
 0001:0000dd81       ?GetEventIID@COleControlSite@@QAEHPAU_GUID@@@Z 5f50ed81 f occsite.obj
 0001:0000e12c       ?GetControlInfo@COleControlSite@@QAEXXZ 5f50f12c f occsite.obj
 0001:0000e1c9       ?IsMatchingMnemonic@COleControlSite@@QAEHPAUtagMSG@@@Z 5f50f1c9 f occsite.obj
 0001:0000e333       ?SendMnemonic@COleControlSite@@QAEXPAUtagMSG@@@Z 5f50f333 f occsite.obj
 0001:0000e3cd       ?AttachWindow@COleControlSite@@IAEXXZ 5f50f3cd f occsite.obj
 0001:0000e4cf       ?DetachWindow@COleControlSite@@IAEXXZ 5f50f4cf f occsite.obj
 0001:0000e58c       ?OnEvent@COleControlSite@@IAEHPAUAFX_EVENT@@@Z 5f50f58c f occsite.obj
 0001:0000e609       ?InvokeHelperV@COleControlSite@@UAEXJGGPAXPBEPAD@Z 5f50f609 f occsite.obj
 0001:0000e6d7       ?SetPropertyV@COleControlSite@@UAEXJGPAD@Z 5f50f6d7 f occsite.obj
 0001:0000e75f       ?InvokeHelper@COleControlSite@@UAAXJGGPAXPBEZZ 5f50f75f f occsite.obj
 0001:0000e7a2       ?GetProperty@COleControlSite@@UBEXJGPAX@Z 5f50f7a2 f occsite.obj
 0001:0000e7d9       ?SetProperty@COleControlSite@@UAAXJGZZ 5f50f7d9 f occsite.obj
 0001:0000e810       ?SafeSetProperty@COleControlSite@@UAAHJGZZ 5f50f810 f occsite.obj
 0001:0000e8d6       ?GetStyle@COleControlSite@@UBEKXZ 5f50f8d6 f occsite.obj
 0001:0000ea37       ?GetExStyle@COleControlSite@@UBEKXZ 5f50fa37 f occsite.obj
 0001:0000eb10       ?ModifyStyle@COleControlSite@@UAEHKKI@Z 5f50fb10 f occsite.obj
 0001:0000ebf0       ?ModifyStyleEx@COleControlSite@@UAEHKKI@Z 5f50fbf0 f occsite.obj
 0001:0000ec69       ?SetWindowTextW@COleControlSite@@UAEXPBG@Z 5f50fc69 f occsite.obj
 0001:0000ecea       ?GetWindowTextW@COleControlSite@@UBEXAAVCString@@@Z 5f50fcea f occsite.obj
 0001:0000ee27       ?GetWindowTextW@COleControlSite@@UBEHPAGH@Z 5f50fe27 f occsite.obj
 0001:0000eee7       ?GetWindowTextLengthW@COleControlSite@@UBEHXZ 5f50fee7 f occsite.obj
 0001:0000ef6a       ?GetDlgCtrlID@COleControlSite@@UBEHXZ 5f50ff6a f occsite.obj
 0001:0000ef86       ?SetDlgCtrlID@COleControlSite@@UAEHH@Z 5f50ff86 f occsite.obj
 0001:0000efb3       ?MoveWindow@COleControlSite@@UAEXHHHHH@Z 5f50ffb3 f occsite.obj
 0001:0000f0e8       ?SetWindowPos@COleControlSite@@UAEHPBVCWnd@@HHHHI@Z 5f5100e8 f occsite.obj
 0001:0000f206       ?ShowWindow@COleControlSite@@UAEHH@Z 5f510206 f occsite.obj
 0001:0000f2a7       ?IsWindowEnabled@COleControlSite@@UBEHXZ 5f5102a7 f occsite.obj
 0001:0000f35b       ?EnableWindow@COleControlSite@@UAEHH@Z 5f51035b f occsite.obj
 0001:0000f43e       ?SetFocus@COleControlSite@@UAEPAVCWnd@@XZ 5f51043e f occsite.obj
 0001:0000f493       ?EnableDSC@COleControlSite@@UAEXXZ 5f510493 f occsite.obj
 0001:0000f50f       ?BindDefaultProperty@COleControlSite@@UAEXJGPBGPAVCWnd@@@Z 5f51050f f occsite.obj
 0001:0000f65d       ?BindProperty@COleControlSite@@UAEXJPAVCWnd@@@Z 5f51065d f occsite.obj
 0001:0000f87c       ?AddRef@XOleClientSite@COleControlSite@@UAGKXZ 5f51087c f occsite.obj
 0001:0000f8a4       ?Release@XOleClientSite@COleControlSite@@UAGKXZ 5f5108a4 f occsite.obj
 0001:0000f8cc       ?QueryInterface@XOleClientSite@COleControlSite@@UAGJABU_GUID@@PAPAX@Z 5f5108cc f occsite.obj
 0001:0000f8fc       ?SaveObject@XOleClientSite@COleControlSite@@UAGJXZ 5f5108fc f occsite.obj
 0001:0000f913       ?GetMoniker@XOleClientSite@COleControlSite@@UAGJKKPAPAUIMoniker@@@Z 5f510913 f occsite.obj
 0001:0000f92a       ?GetContainer@XOleClientSite@COleControlSite@@UAGJPAPAUIOleContainer@@@Z 5f51092a f occsite.obj
 0001:0000f95e       ?ShowObject@XOleClientSite@COleControlSite@@UAGJXZ 5f51095e f occsite.obj
 0001:0000f9e4       ?OnShowWindow@XOleClientSite@COleControlSite@@UAGJH@Z 5f5109e4 f occsite.obj
 0001:0000f9f8       ?RequestNewObjectLayout@XOleClientSite@COleControlSite@@UAGJXZ 5f5109f8 f occsite.obj
 0001:0000fa0f       ?AddRef@XOleIPSite@COleControlSite@@UAGKXZ 5f510a0f f occsite.obj
 0001:0000fa37       ?Release@XOleIPSite@COleControlSite@@UAGKXZ 5f510a37 f occsite.obj
 0001:0000fa5f       ?QueryInterface@XOleIPSite@COleControlSite@@UAGJABU_GUID@@PAPAX@Z 5f510a5f f occsite.obj
 0001:0000fa8f       ?GetWindow@XOleIPSite@COleControlSite@@UAGJPAPAUHWND__@@@Z 5f510a8f f occsite.obj
 0001:0000fada       ?ContextSensitiveHelp@XOleIPSite@COleControlSite@@UAGJH@Z 5f510ada f occsite.obj
 0001:0000faf1       ?CanInPlaceActivate@XOleIPSite@COleControlSite@@UAGJXZ 5f510af1 f occsite.obj
 0001:0000fb05       ?OnInPlaceActivate@XOleIPSite@COleControlSite@@UAGJXZ 5f510b05 f occsite.obj
 0001:0000fb19       ?OnUIActivate@XOleIPSite@COleControlSite@@UAGJXZ 5f510b19 f occsite.obj
 0001:0000fb50       ?GetWindowContext@XOleIPSite@COleControlSite@@UAGJPAPAUIOleInPlaceFrame@@PAPAUIOleInPlaceUIWindow@@PAUtagRECT@@2PAUtagOIFI@@@Z 5f510b50 f occsite.obj
 0001:0000fd90       ?Scroll@XOleIPSite@COleControlSite@@UAGJUtagSIZE@@@Z 5f510d90 f occsite.obj
 0001:0000fda7       ?OnUIDeactivate@XOleIPSite@COleControlSite@@UAGJH@Z 5f510da7 f occsite.obj
 0001:0000fdde       ?OnInPlaceDeactivate@XOleIPSite@COleControlSite@@UAGJXZ 5f510dde f occsite.obj
 0001:0000fe64       ?DiscardUndoState@XOleIPSite@COleControlSite@@UAGJXZ 5f510e64 f occsite.obj
 0001:0000fe78       ?DeactivateAndUndo@XOleIPSite@COleControlSite@@UAGJXZ 5f510e78 f occsite.obj
 0001:0000feac       ?OnPosRectChange@XOleIPSite@COleControlSite@@UAGJPBUtagRECT@@@Z 5f510eac f occsite.obj
 0001:0000ff3a       ?AddRef@XOleControlSite@COleControlSite@@UAGKXZ 5f510f3a f occsite.obj
 0001:0000ff62       ?Release@XOleControlSite@COleControlSite@@UAGKXZ 5f510f62 f occsite.obj
 0001:0000ff8a       ?QueryInterface@XOleControlSite@COleControlSite@@UAGJABU_GUID@@PAPAX@Z 5f510f8a f occsite.obj
 0001:0000ffba       ?OnControlInfoChanged@XOleControlSite@COleControlSite@@UAGJXZ 5f510fba f occsite.obj
 0001:0000ffe4       ?LockInPlaceActive@XOleControlSite@COleControlSite@@UAGJH@Z 5f510fe4 f occsite.obj
 0001:0000fffb       ?GetExtendedControl@XOleControlSite@COleControlSite@@UAGJPAPAUIDispatch@@@Z 5f510ffb f occsite.obj
 0001:00010012       ?TransformCoords@XOleControlSite@COleControlSite@@UAGJPAU_POINTL@@PAUtagPOINTF@@K@Z 5f511012 f occsite.obj
 0001:0001019a       ?TranslateAcceleratorW@XOleControlSite@COleControlSite@@UAGJPAUtagMSG@@K@Z 5f51119a f occsite.obj
 0001:000101b1       ?OnFocus@XOleControlSite@COleControlSite@@UAGJH@Z 5f5111b1 f occsite.obj
 0001:000101c5       ?ShowPropertyFrame@XOleControlSite@COleControlSite@@UAGJXZ 5f5111c5 f occsite.obj
 0001:000101dc       ?AddRef@XAmbientProps@COleControlSite@@UAGKXZ 5f5111dc f occsite.obj
 0001:00010204       ?Release@XAmbientProps@COleControlSite@@UAGKXZ 5f511204 f occsite.obj
 0001:0001022c       ?QueryInterface@XAmbientProps@COleControlSite@@UAGJABU_GUID@@PAPAX@Z 5f51122c f occsite.obj
 0001:0001025c       ?GetTypeInfoCount@XAmbientProps@COleControlSite@@UAGJPAI@Z 5f51125c f occsite.obj
 0001:00010273       ?GetTypeInfo@XAmbientProps@COleControlSite@@UAGJIKPAPAUITypeInfo@@@Z 5f511273 f occsite.obj
 0001:0001028a       ?GetIDsOfNames@XAmbientProps@COleControlSite@@UAGJABU_GUID@@PAPAGIKPAJ@Z 5f51128a f occsite.obj
 0001:000102a1       ?Invoke@XAmbientProps@COleControlSite@@UAGJJABU_GUID@@KGPAUtagDISPPARAMS@@PAUtagVARIANT@@PAUtagEXCEPINFO@@PAI@Z 5f5112a1 f occsite.obj
 0001:000103ed       ?QueryInterface@XPropertyNotifySink@COleControlSite@@UAGJABU_GUID@@PAPAX@Z 5f5113ed f occsite.obj
 0001:00010464       ?AddRef@XPropertyNotifySink@COleControlSite@@UAGKXZ 5f511464 f occsite.obj
 0001:0001047b       ?Release@XPropertyNotifySink@COleControlSite@@UAGKXZ 5f51147b f occsite.obj
 0001:0001048f       ?OnChanged@XPropertyNotifySink@COleControlSite@@UAGJJ@Z 5f51148f f occsite.obj
 0001:00010681       ?OnRequestEdit@XPropertyNotifySink@COleControlSite@@UAGJJ@Z 5f511681 f occsite.obj
 0001:0001077e       ?AddRef@XEventSink@COleControlSite@@UAGKXZ 5f51177e f occsite.obj
 0001:00010795       ?Release@XEventSink@COleControlSite@@UAGKXZ 5f511795 f occsite.obj
 0001:000107a9       ?QueryInterface@XEventSink@COleControlSite@@UAGJABU_GUID@@PAPAX@Z 5f5117a9 f occsite.obj
 0001:0001083b       ?GetTypeInfoCount@XEventSink@COleControlSite@@UAGJPAI@Z 5f51183b f occsite.obj
 0001:00010852       ?GetTypeInfo@XEventSink@COleControlSite@@UAGJIKPAPAUITypeInfo@@@Z 5f511852 f occsite.obj
 0001:00010869       ?GetIDsOfNames@XEventSink@COleControlSite@@UAGJABU_GUID@@PAPAGIKPAJ@Z 5f511869 f occsite.obj
 0001:00010880       ?Invoke@XEventSink@COleControlSite@@UAGJJABU_GUID@@KGPAUtagDISPPARAMS@@PAUtagVARIANT@@PAUtagEXCEPINFO@@PAI@Z 5f511880 f occsite.obj
 0001:000109ad       ??0CDataSourceControl@@QAE@PAVCOleControlSite@@@Z 5f5119ad f occsite.obj
 0001:00010aab       ??1CDataSourceControl@@QAE@XZ 5f511aab f occsite.obj
 0001:00010ccb       ?Initialize@CDataSourceControl@@QAEJXZ 5f511ccb f occsite.obj
 0001:00010f73       ?GetCursor@CDataSourceControl@@UAEPAUICursor@@XZ 5f511f73 f occsite.obj
 0001:00010ff8       ?GetMetaData@CDataSourceControl@@QAEJXZ 5f511ff8 f occsite.obj
 0001:000113ed       ?CopyColumnID@CDataSourceControl@@QAEHPAUtagDBCOLUMNID@@PBU2@@Z 5f5123ed f occsite.obj
 0001:000114e9       ?BindProp@CDataSourceControl@@UAEXPAVCOleControlSite@@H@Z 5f5124e9 f occsite.obj
 0001:000116ef       ?BindProp@CDataSourceControl@@UAEXPAVCDataBoundProperty@@H@Z 5f5126ef f occsite.obj
 0001:00011790       ?BindColumns@CDataSourceControl@@UAEXXZ 5f512790 f occsite.obj
 0001:00011aa0       ?GetBoundClientRow@CDataSourceControl@@QAEJXZ 5f512aa0 f occsite.obj
 0001:00011b3a       ?UpdateControls@CDataSourceControl@@UAEJXZ 5f512b3a f occsite.obj
 0001:00011c86       ?UpdateCursor@CDataSourceControl@@UAEJXZ 5f512c86 f occsite.obj
 0001:0001201c       ??0CDataBoundProperty@@QAE@PAV0@JG@Z 5f51301c f occsite.obj
 0001:00012071       ?SetClientSite@CDataBoundProperty@@QAEXPAVCOleControlSite@@@Z 5f513071 f occsite.obj
 0001:00012091       ?SetDSCSite@CDataBoundProperty@@QAEXPAVCOleControlSite@@@Z 5f513091 f occsite.obj
 0001:000120ce       ?GetNext@CDataBoundProperty@@QAEPAV1@XZ 5f5130ce f occsite.obj
 0001:000120ea       ?RemoveSource@CDataBoundProperty@@QAEXXZ 5f5130ea f occsite.obj
 0001:00012112       ?Notify@CDataBoundProperty@@QAEXXZ 5f513112 f occsite.obj
 0001:000121c5       ?GetCursor@CDataBoundProperty@@QAEPAUICursor@@XZ 5f5131c5 f occsite.obj
 0001:0001227e       ?GetCursor@COleControlSite@@IAEJJPAPAUICursor@@PAPAX@Z 5f51327e f occsite.obj
 0001:000122f4       ?AddRef@XBoundObjectSite@COleControlSite@@UAGKXZ 5f5132f4 f occsite.obj
 0001:00012376       ?Release@XBoundObjectSite@COleControlSite@@UAGKXZ 5f513376 f occsite.obj
 0001:000123f8       ?QueryInterface@XBoundObjectSite@COleControlSite@@UAGJABU_GUID@@PAPAX@Z 5f5133f8 f occsite.obj
 0001:00012482       ?GetCursor@XBoundObjectSite@COleControlSite@@UAGJJPAPAUICursor@@PAPAX@Z 5f513482 f occsite.obj
 0001:00012510       ?AddRef@XNotifyDBEvents@COleControlSite@@UAGKXZ 5f513510 f occsite.obj
 0001:00012527       ?Release@XNotifyDBEvents@COleControlSite@@UAGKXZ 5f513527 f occsite.obj
 0001:0001253b       ?QueryInterface@XNotifyDBEvents@COleControlSite@@UAGJABU_GUID@@PAPAX@Z 5f51353b f occsite.obj
 0001:000125b2       ?OKToDo@XNotifyDBEvents@COleControlSite@@UAGJKKQAUtagDBNOTIFYREASON@@@Z 5f5135b2 f occsite.obj
 0001:00012758       ?Cancelled@XNotifyDBEvents@COleControlSite@@UAGJKKQAUtagDBNOTIFYREASON@@@Z 5f513758 f occsite.obj
 0001:00012813       ?SyncBefore@XNotifyDBEvents@COleControlSite@@UAGJKKQAUtagDBNOTIFYREASON@@@Z 5f513813 f occsite.obj
 0001:00012955       ?AboutToDo@XNotifyDBEvents@COleControlSite@@UAGJKKQAUtagDBNOTIFYREASON@@@Z 5f513955 f occsite.obj
 0001:00012a10       ?FailedToDo@XNotifyDBEvents@COleControlSite@@UAGJKKQAUtagDBNOTIFYREASON@@@Z 5f513a10 f occsite.obj
 0001:00012acb       ?SyncAfter@XNotifyDBEvents@COleControlSite@@UAGJKKQAUtagDBNOTIFYREASON@@@Z 5f513acb f occsite.obj
 0001:00012c47       ?DidEvent@XNotifyDBEvents@COleControlSite@@UAGJKKQAUtagDBNOTIFYREASON@@@Z 5f513c47 f occsite.obj
 0001:00012d58       ?FireEvent@XNotifyDBEvents@COleControlSite@@QAEJKKQAUtagDBNOTIFYREASON@@W4DSCSTATE@@@Z 5f513d58 f occsite.obj
 0001:00012ee0       ??_ECOleControlSite@@UAEPAXI@Z 5f513ee0 f occsite.obj
 0001:00012ee0       ??_GCOleControlSite@@UAEPAXI@Z 5f513ee0 f occsite.obj
 0001:00012f20       ??0XOleClientSite@COleControlSite@@QAE@XZ 5f513f20 f occsite.obj
 0001:00012f50       ??0XOleIPSite@COleControlSite@@QAE@XZ 5f513f50 f occsite.obj
 0001:00012f80       ??0XOleControlSite@COleControlSite@@QAE@XZ 5f513f80 f occsite.obj
 0001:00012fb0       ??0XAmbientProps@COleControlSite@@QAE@XZ 5f513fb0 f occsite.obj
 0001:00012fe0       ??0XPropertyNotifySink@COleControlSite@@QAE@XZ 5f513fe0 f occsite.obj
 0001:00013010       ??0XEventSink@COleControlSite@@QAE@XZ 5f514010 f occsite.obj
 0001:00013040       ??0XBoundObjectSite@COleControlSite@@QAE@XZ 5f514040 f occsite.obj
 0001:00013070       ??0XNotifyDBEvents@COleControlSite@@QAE@XZ 5f514070 f occsite.obj
 0001:000130a0       ??0IOleControlSite@@QAE@XZ 5f5140a0 f occsite.obj
 0001:000130d0       ??0IPropertyNotifySink@@QAE@XZ 5f5140d0 f occsite.obj
 0001:00013100       ??0IBoundObjectSite@@QAE@XZ 5f514100 f occsite.obj
 0001:00013130       ??0INotifyDBEvents@@QAE@XZ 5f514130 f occsite.obj
 0001:00013160       ??_GCDataSourceControl@@QAEPAXI@Z 5f514160 f occsite.obj
 0001:000131a0       ??_GCDataBoundProperty@@QAEPAXI@Z 5f5141a0 f occsite.obj
 0001:000131e0       ??1CDataBoundProperty@@QAE@XZ 5f5141e0 f occsite.obj
 0001:00013200       ??0AFX_EVENT@@QAE@HJPAUtagDISPPARAMS@@PAUtagEXCEPINFO@@PAI@Z 5f514200 f occsite.obj
 0001:00013270       ??0AFX_EVENT@@QAE@H@Z      5f514270 f occsite.obj
 0001:000132e0       ??0COleControlLock@@QAE@ABU_GUID@@@Z 5f5142e0 f occlock.obj
 0001:000133dd       ??1COleControlLock@@UAE@XZ 5f5143dd f occlock.obj
 0001:00013439       ?AfxOleLockControl@@YGHABU_GUID@@@Z 5f514439 f occlock.obj
 0001:00013586       ?AfxOleLockControl@@YGHPBG@Z 5f514586 f occlock.obj
 0001:000135c5       ?AfxOleUnlockControl@@YGHPBG@Z 5f5145c5 f occlock.obj
 0001:00013604       ?AfxOleUnlockControl@@YGHABU_GUID@@@Z 5f514604 f occlock.obj
 0001:000136c3       ?AfxOleUnlockAllControls@@YGXXZ 5f5146c3 f occlock.obj
 0001:00013780       ??_GCOleControlLock@@UAEPAXI@Z 5f514780 f occlock.obj
 0001:00013780       ??_ECOleControlLock@@UAEPAXI@Z 5f514780 f occlock.obj
 0001:000137c0       ?IsEmpty@CSimpleList@@QBEHXZ 5f5147c0 f occlock.obj
 0001:000137f0       ?AddHead@?$CTypedSimpleList@PAVCOleControlLock@@@@QAEXPAVCOleControlLock@@@Z 5f5147f0 f occlock.obj
 0001:00013820       ?Remove@?$CTypedSimpleList@PAVCOleControlLock@@@@QAEHPAVCOleControlLock@@@Z 5f514820 f occlock.obj
 0001:00013850       ??B?$CTypedSimpleList@PAVCOleControlLock@@@@QAEPAVCOleControlLock@@XZ 5f514850 f occlock.obj
 0001:00013870       ?DDX_OCText@@YGXPAVCDataExchange@@HJAAVCString@@@Z 5f514870 f occddx.obj
 0001:000138d2       ?DDX_OCTextRO@@YGXPAVCDataExchange@@HJAAVCString@@@Z 5f5148d2 f occddx.obj
 0001:00013940       ?DDX_OCBool@@YGXPAVCDataExchange@@HJAAH@Z 5f514940 f occddx.obj
 0001:0001399f       ?DDX_OCBoolRO@@YGXPAVCDataExchange@@HJAAH@Z 5f51499f f occddx.obj
 0001:000139cb       ?DDX_OCInt@@YGXPAVCDataExchange@@HJAAH@Z 5f5149cb f occddx.obj
 0001:00013a2a       ?DDX_OCIntRO@@YGXPAVCDataExchange@@HJAAH@Z 5f514a2a f occddx.obj
 0001:00013a56       ?DDX_OCInt@@YGXPAVCDataExchange@@HJAAJ@Z 5f514a56 f occddx.obj
 0001:00013ab5       ?DDX_OCIntRO@@YGXPAVCDataExchange@@HJAAJ@Z 5f514ab5 f occddx.obj
 0001:00013ae1       ?DDX_OCShort@@YGXPAVCDataExchange@@HJAAF@Z 5f514ae1 f occddx.obj
 0001:00013b41       ?DDX_OCShortRO@@YGXPAVCDataExchange@@HJAAF@Z 5f514b41 f occddx.obj
 0001:00013b6d       ?DDX_OCColor@@YGXPAVCDataExchange@@HJAAK@Z 5f514b6d f occddx.obj
 0001:00013bcc       ?DDX_OCColorRO@@YGXPAVCDataExchange@@HJAAK@Z 5f514bcc f occddx.obj
 0001:00013c00       ?DDX_OCFloat@@YGXPAVCDataExchange@@HJAAM@Z 5f514c00 f occddxf.obj
 0001:00013c64       ?DDX_OCFloatRO@@YGXPAVCDataExchange@@HJAAM@Z 5f514c64 f occddxf.obj
 0001:00013ca6       ?DDX_OCFloat@@YGXPAVCDataExchange@@HJAAN@Z 5f514ca6 f occddxf.obj
 0001:00013d09       ?DDX_OCFloatRO@@YGXPAVCDataExchange@@HJAAN@Z 5f514d09 f occddxf.obj
 0001:00013d50       ?IsMatchingMnemonic@COccManager@@SAHPAVCWnd@@PAUtagMSG@@@Z 5f514d50 f occdlg.obj
 0001:00013d90       ?IsLabelControl@COccManager@@SAHPAVCWnd@@@Z 5f514d90 f occdlg.obj
 0001:00013dd9       ?UIActivateControl@COccManager@@KAXPAVCWnd@@@Z 5f514dd9 f occdlg.obj
 0001:00013e8c       ?UIDeactivateIfNecessary@COccManager@@KAXPAVCWnd@@0@Z 5f514e8c f occdlg.obj
 0001:00013f81       ?FindDlgItem@@YAPAVCWnd@@PAV1@K@Z 5f514f81 f occdlg.obj
 0001:000141fb       ?SetDefaultButton@COccManager@@SAXPAVCWnd@@H@Z 5f5151fb f occdlg.obj
 0001:000142c9       ?GetDefBtnCode@COccManager@@SAKPAVCWnd@@@Z 5f5152c9 f occdlg.obj
 0001:00014318       ?IsDialogMessageW@COccManager@@UAEHPAVCWnd@@PAUtagMSG@@@Z 5f515318 f occdlg.obj
 0001:00014d60       ?IsControlParent@@YAHPAVCWnd@@@Z 5f515d60 f occdlg.obj
 0001:00014d90       ?TestExStyle@@YAKPAVCWnd@@K@Z 5f515d90 f occdlg.obj
 0001:00014dc0       ?HasChildStyle@@YAHPAVCWnd@@@Z 5f515dc0 f occdlg.obj
 0001:00014e00       ?TestStyle@@YAKPAVCWnd@@K@Z 5f515e00 f occdlg.obj
 0001:00014e30       ?OnSaveViewState@CDocObjectServer@@MAEXAAVCArchive@@@Z 5f515e30 f oledocvw.obj
 0001:00014e48       ?OnApplyViewState@CDocObjectServer@@MAEXAAVCArchive@@@Z 5f515e48 f oledocvw.obj
 0001:00014e60       ?OnActivateView@CDocObjectServer@@MAEJXZ 5f515e60 f oledocvw.obj
 0001:0001565b       ?AddRef@XOleDocumentView@CDocObjectServer@@UAGKXZ 5f51665b f oledocvw.obj
 0001:000156de       ?Release@XOleDocumentView@CDocObjectServer@@UAGKXZ 5f5166de f oledocvw.obj
 0001:00015761       ?QueryInterface@XOleDocumentView@CDocObjectServer@@UAGJABU_GUID@@PAPAX@Z 5f516761 f oledocvw.obj
 0001:000157ec       ?SetInPlaceSite@XOleDocumentView@CDocObjectServer@@UAGJPAUIOleInPlaceSite@@@Z 5f5167ec f oledocvw.obj
 0001:000158f0       ?GetInPlaceSite@XOleDocumentView@CDocObjectServer@@UAGJPAPAUIOleInPlaceSite@@@Z 5f5168f0 f oledocvw.obj
 0001:000159cb       ?GetDocument@XOleDocumentView@CDocObjectServer@@UAGJPAPAUIUnknown@@@Z 5f5169cb f oledocvw.obj
 0001:00015aba       ?OnSetItemRects@CDocObjectServer@@IAEXPAUtagRECT@@0@Z 5f516aba f oledocvw.obj
 0001:00015aee       ?SetRect@XOleDocumentView@CDocObjectServer@@UAGJPAUtagRECT@@@Z 5f516aee f oledocvw.obj
 0001:00015c0e       ?GetRect@XOleDocumentView@CDocObjectServer@@UAGJPAUtagRECT@@@Z 5f516c0e f oledocvw.obj
 0001:00015cce       ?SetRectComplex@XOleDocumentView@CDocObjectServer@@UAGJPAUtagRECT@@000@Z 5f516cce f oledocvw.obj
 0001:00015d5d       ?Show@XOleDocumentView@CDocObjectServer@@UAGJH@Z 5f516d5d f oledocvw.obj
 0001:00015e2d       ?UIActivate@XOleDocumentView@CDocObjectServer@@UAGJH@Z 5f516e2d f oledocvw.obj
 0001:00015efd       ?Open@XOleDocumentView@CDocObjectServer@@UAGJXZ 5f516efd f oledocvw.obj
 0001:00015f8c       ?CloseView@XOleDocumentView@CDocObjectServer@@UAGJK@Z 5f516f8c f oledocvw.obj
 0001:00016039       ?SaveViewState@XOleDocumentView@CDocObjectServer@@UAGJPAUIStream@@@Z 5f517039 f oledocvw.obj
 0001:00016225       ?ApplyViewState@XOleDocumentView@CDocObjectServer@@UAGJPAUIStream@@@Z 5f517225 f oledocvw.obj
 0001:00016411       ?Clone@XOleDocumentView@CDocObjectServer@@UAGJPAUIOleInPlaceSite@@PAPAUIOleDocumentView@@@Z 5f517411 f oledocvw.obj
 0001:000164a0       ?_GetBaseClass@CDocObjectServer@@KGPAUCRuntimeClass@@XZ 5f5174a0 f oledocob.obj
 0001:000164b5       ?GetRuntimeClass@CDocObjectServer@@UBEPAUCRuntimeClass@@XZ 5f5174b5 f oledocob.obj
 0001:000164d0       ?_GetBaseMessageMap@CDocObjectServer@@KGPBUAFX_MSGMAP@@XZ 5f5174d0 f oledocob.obj
 0001:000164e5       ?GetMessageMap@CDocObjectServer@@MBEPBUAFX_MSGMAP@@XZ 5f5174e5 f oledocob.obj
 0001:00016500       ?_GetBaseInterfaceMap@CDocObjectServer@@KGPBUAFX_INTERFACEMAP@@XZ 5f517500 f oledocob.obj
 0001:00016515       ?GetInterfaceMap@CDocObjectServer@@MBEPBUAFX_INTERFACEMAP@@XZ 5f517515 f oledocob.obj
 0001:00016530       ??0CDocObjectServer@@QAE@PAVCOleServerDoc@@PAUIOleDocumentSite@@@Z 5f517530 f oledocob.obj
 0001:00016637       ??1CDocObjectServer@@UAE@XZ 5f517637 f oledocob.obj
 0001:000166a7       ?ReleaseDocSite@CDocObjectServer@@QAEXXZ 5f5176a7 f oledocob.obj
 0001:000166e6       ?SetDocSite@CDocObjectServer@@QAEXPAUIOleDocumentSite@@@Z 5f5176e6 f oledocob.obj
 0001:0001670f       ?OnCloseDocument@CDocObjectServer@@UAEXXZ 5f51770f f oledocob.obj
 0001:00016741       ?ActivateDocObject@CDocObjectServer@@QAEXXZ 5f517741 f oledocob.obj
 0001:000167c2       ?OnExecOleCmd@CDocObjectServer@@IAGJPBU_GUID@@KKPAUtagVARIANT@@1@Z 5f5177c2 f oledocob.obj
 0001:0001683a       ?GetControllingFrame@CDocObjectServer@@QBEPAVCOleDocIPFrameWnd@@XZ 5f51783a f oledocob.obj
 0001:000168d5       ?DoPreparePrinting@CDocObjectServer@@IAEHPAVCView@@PAUCPrintInfo@@@Z 5f5178d5 f oledocob.obj
 0001:000168ff       ?DoPrepareDC@CDocObjectServer@@IAEXPAVCView@@PAVCDC@@PAUCPrintInfo@@@Z 5f5178ff f oledocob.obj
 0001:0001692d       ?DoPrint@CDocObjectServer@@IAEXPAVCView@@PAVCDC@@PAUCPrintInfo@@@Z 5f51792d f oledocob.obj
 0001:0001695b       ?DoBeginPrinting@CDocObjectServer@@IAEXPAVCView@@PAVCDC@@PAUCPrintInfo@@@Z 5f51795b f oledocob.obj
 0001:00016989       ?DoEndPrinting@CDocObjectServer@@IAEXPAVCView@@PAVCDC@@PAUCPrintInfo@@@Z 5f517989 f oledocob.obj
 0001:000169b7       ?AddRef@XPrint@CDocObjectServer@@UAGKXZ 5f5179b7 f oledocob.obj
 0001:00016a3a       ?Release@XPrint@CDocObjectServer@@UAGKXZ 5f517a3a f oledocob.obj
 0001:00016abd       ?QueryInterface@XPrint@CDocObjectServer@@UAGJABU_GUID@@PAPAX@Z 5f517abd f oledocob.obj
 0001:00016b45       ?SetInitialPageNum@XPrint@CDocObjectServer@@UAGJJ@Z 5f517b45 f oledocob.obj
 0001:00016bdd       ?GetPageInfo@XPrint@CDocObjectServer@@UAGJPAJ0@Z 5f517bdd f oledocob.obj
 0001:00016d59       ?Print@XPrint@CDocObjectServer@@UAGJKPAPAUtagDVTARGETDEVICE@@PAPAUtagPAGESET@@PAUtagSTGMEDIUM@@PAUIContinueCallback@@JPAJ4@Z 5f517d59 f oledocob.obj
 0001:00017844       ?AddRef@XOleDocument@CDocObjectServer@@UAGKXZ 5f518844 f oledocob.obj
 0001:000178c7       ?Release@XOleDocument@CDocObjectServer@@UAGKXZ 5f5188c7 f oledocob.obj
 0001:0001794a       ?QueryInterface@XOleDocument@CDocObjectServer@@UAGJABU_GUID@@PAPAX@Z 5f51894a f oledocob.obj
 0001:000179d2       ?CreateView@XOleDocument@CDocObjectServer@@UAGJPAUIOleInPlaceSite@@PAUIStream@@KPAPAUIOleDocumentView@@@Z 5f5189d2 f oledocob.obj
 0001:00017b2b       ?GetDocMiscStatus@XOleDocument@CDocObjectServer@@UAGJPAK@Z 5f518b2b f oledocob.obj
 0001:00017be5       ?EnumViews@XOleDocument@CDocObjectServer@@UAGJPAPAUIEnumOleDocumentViews@@PAPAUIOleDocumentView@@@Z 5f518be5 f oledocob.obj
 0001:00017cd7       ?AddRef@XOleObject@CDocObjectServer@@UAGKXZ 5f518cd7 f oledocob.obj
 0001:00017d5a       ?Release@XOleObject@CDocObjectServer@@UAGKXZ 5f518d5a f oledocob.obj
 0001:00017ddd       ?QueryInterface@XOleObject@CDocObjectServer@@UAGJABU_GUID@@PAPAX@Z 5f518ddd f oledocob.obj
 0001:00017e68       ?SetClientSite@XOleObject@CDocObjectServer@@UAGJPAUIOleClientSite@@@Z 5f518e68 f oledocob.obj
 0001:00017f6f       ?GetClientSite@XOleObject@CDocObjectServer@@UAGJPAPAUIOleClientSite@@@Z 5f518f6f f oledocob.obj
 0001:0001800e       ?SetHostNames@XOleObject@CDocObjectServer@@UAGJPBG0@Z 5f51900e f oledocob.obj
 0001:000180bc       ?Close@XOleObject@CDocObjectServer@@UAGJK@Z 5f5190bc f oledocob.obj
 0001:00018166       ?SetMoniker@XOleObject@CDocObjectServer@@UAGJKPAUIMoniker@@@Z 5f519166 f oledocob.obj
 0001:00018214       ?GetMoniker@XOleObject@CDocObjectServer@@UAGJKKPAPAUIMoniker@@@Z 5f519214 f oledocob.obj
 0001:000182c6       ?InitFromData@XOleObject@CDocObjectServer@@UAGJPAUIDataObject@@HK@Z 5f5192c6 f oledocob.obj
 0001:00018378       ?GetClipboardData@XOleObject@CDocObjectServer@@UAGJKPAPAUIDataObject@@@Z 5f519378 f oledocob.obj
 0001:00018426       ?DoVerb@XOleObject@CDocObjectServer@@UAGJJPAUtagMSG@@PAUIOleClientSite@@JPAUHWND__@@PBUtagRECT@@@Z 5f519426 f oledocob.obj
 0001:000184e4       ?EnumVerbs@XOleObject@CDocObjectServer@@UAGJPAPAUIEnumOLEVERB@@@Z 5f5194e4 f oledocob.obj
 0001:0001858e       ?Update@XOleObject@CDocObjectServer@@UAGJXZ 5f51958e f oledocob.obj
 0001:00018634       ?IsUpToDate@XOleObject@CDocObjectServer@@UAGJXZ 5f519634 f oledocob.obj
 0001:000186da       ?GetUserClassID@XOleObject@CDocObjectServer@@UAGJPAU_GUID@@@Z 5f5196da f oledocob.obj
 0001:00018784       ?GetUserType@XOleObject@CDocObjectServer@@UAGJKPAPAG@Z 5f519784 f oledocob.obj
 0001:00018832       ?SetExtent@XOleObject@CDocObjectServer@@UAGJKPAUtagSIZE@@@Z 5f519832 f oledocob.obj
 0001:0001890e       ?GetExtent@XOleObject@CDocObjectServer@@UAGJKPAUtagSIZE@@@Z 5f51990e f oledocob.obj
 0001:000189bc       ?Advise@XOleObject@CDocObjectServer@@UAGJPAUIAdviseSink@@PAK@Z 5f5199bc f oledocob.obj
 0001:00018a6a       ?Unadvise@XOleObject@CDocObjectServer@@UAGJK@Z 5f519a6a f oledocob.obj
 0001:00018b14       ?EnumAdvise@XOleObject@CDocObjectServer@@UAGJPAPAUIEnumSTATDATA@@@Z 5f519b14 f oledocob.obj
 0001:00018bbe       ?GetMiscStatus@XOleObject@CDocObjectServer@@UAGJKPAK@Z 5f519bbe f oledocob.obj
 0001:00018c6c       ?SetColorScheme@XOleObject@CDocObjectServer@@UAGJPAUtagLOGPALETTE@@@Z 5f519c6c f oledocob.obj
 0001:00018d16       ?AssertValid@CDocObjectServer@@MBEXXZ 5f519d16 f oledocob.obj
 0001:00018d59       ?Dump@CDocObjectServer@@MBEXAAVCDumpContext@@@Z 5f519d59 f oledocob.obj
 0001:00018dcb       ?_GetBaseClass@CDocObjectServerItem@@KGPAUCRuntimeClass@@XZ 5f519dcb f oledocob.obj
 0001:00018de0       ?GetRuntimeClass@CDocObjectServerItem@@UBEPAUCRuntimeClass@@XZ 5f519de0 f oledocob.obj
 0001:00018dfb       ??0CDocObjectServerItem@@IAE@PAVCOleServerDoc@@H@Z 5f519dfb f oledocob.obj
 0001:00018e74       ??1CDocObjectServerItem@@UAE@XZ 5f519e74 f oledocob.obj
 0001:00018edc       ?OnDoVerb@CDocObjectServerItem@@MAEXJ@Z 5f519edc f oledocob.obj
 0001:00018f4b       ?OnHide@CDocObjectServerItem@@MAEXXZ 5f519f4b f oledocob.obj
 0001:00018fa6       ?OnOpen@CDocObjectServerItem@@MAEXXZ 5f519fa6 f oledocob.obj
 0001:00018fff       ?OnShow@CDocObjectServerItem@@MAEXXZ 5f519fff f oledocob.obj
 0001:00019058       ?AssertValid@CDocObjectServerItem@@UBEXXZ 5f51a058 f oledocob.obj
 0001:00019076       ?Dump@CDocObjectServerItem@@UBEXAAVCDumpContext@@@Z 5f51a076 f oledocob.obj
 0001:000190a0       ??_ECDocObjectServer@@UAEPAXI@Z 5f51a0a0 f oledocob.obj
 0001:000190a0       ??_GCDocObjectServer@@UAEPAXI@Z 5f51a0a0 f oledocob.obj
 0001:000190e0       ??0XOleObject@CDocObjectServer@@QAE@XZ 5f51a0e0 f oledocob.obj
 0001:00019110       ??0XOleDocument@CDocObjectServer@@QAE@XZ 5f51a110 f oledocob.obj
 0001:00019140       ??0XOleDocumentView@CDocObjectServer@@QAE@XZ 5f51a140 f oledocob.obj
 0001:00019170       ??0XOleCommandTarget@CDocObjectServer@@QAE@XZ 5f51a170 f oledocob.obj
 0001:000191a0       ??0XPrint@CDocObjectServer@@QAE@XZ 5f51a1a0 f oledocob.obj
 0001:000191d0       ??0IOleDocument@@QAE@XZ    5f51a1d0 f oledocob.obj
 0001:00019200       ??0IOleDocumentView@@QAE@XZ 5f51a200 f oledocob.obj
 0001:00019230       ??0IOleCommandTarget@@QAE@XZ 5f51a230 f oledocob.obj
 0001:00019260       ??0IPrint@@QAE@XZ          5f51a260 f oledocob.obj
 0001:00019290       ??_GCDocObjectServerItem@@UAEPAXI@Z 5f51a290 f oledocob.obj
 0001:00019290       ??_ECDocObjectServerItem@@UAEPAXI@Z 5f51a290 f oledocob.obj
 0001:000192d0       ?GetDocument@CDocObjectServerItem@@QBEPAVCOleServerDoc@@XZ 5f51a2d0 f oledocob.obj
 0001:000192f0       ??0COleCmdUI@@QAE@PAU_tagOLECMD@@KPBU_GUID@@@Z 5f51a2f0 f oledoctg.obj
 0001:0001938a       ?Enable@COleCmdUI@@UAEXH@Z 5f51a38a f oledoctg.obj
 0001:00019411       ?SetCheck@COleCmdUI@@UAEXH@Z 5f51a411 f oledoctg.obj
 0001:000194a9       ?SetText@COleCmdUI@@UAEXPBG@Z 5f51a4a9 f oledoctg.obj
 0001:000194d0       ?DoUpdate@COleCmdUI@@UAEHPAVCCmdTarget@@H@Z 5f51a4d0 f oledoctg.obj
 0001:000195c2       ?AddRef@XOleCommandTarget@CDocObjectServer@@UAGKXZ 5f51a5c2 f oledoctg.obj
 0001:00019645       ?Release@XOleCommandTarget@CDocObjectServer@@UAGKXZ 5f51a645 f oledoctg.obj
 0001:000196c8       ?QueryInterface@XOleCommandTarget@CDocObjectServer@@UAGJABU_GUID@@PAPAX@Z 5f51a6c8 f oledoctg.obj
 0001:00019753       ?QueryStatus@XOleCommandTarget@CDocObjectServer@@UAGJPBU_GUID@@KQAU_tagOLECMD@@PAU_tagOLECMDTEXT@@@Z 5f51a753 f oledoctg.obj
 0001:0001993d       ?Exec@XOleCommandTarget@CDocObjectServer@@UAGJPBU_GUID@@KKPAUtagVARIANT@@1@Z 5f51a93d f oledoctg.obj
 0001:00019b20       ??1COleCmdUI@@QAE@XZ       5f51ab20 f oledoctg.obj
 0001:00019b90       ?CreateObject@COleDocIPFrameWnd@@SGPAVCObject@@XZ 5f51ab90 f oledocip.obj
 0001:00019bd0       ?_GetBaseClass@COleDocIPFrameWnd@@KGPAUCRuntimeClass@@XZ 5f51abd0 f oledocip.obj
 0001:00019be5       ?GetRuntimeClass@COleDocIPFrameWnd@@UBEPAUCRuntimeClass@@XZ 5f51abe5 f oledocip.obj
 0001:00019c00       ?_GetBaseMessageMap@COleDocIPFrameWnd@@KGPBUAFX_MSGMAP@@XZ 5f51ac00 f oledocip.obj
 0001:00019c15       ?GetMessageMap@COleDocIPFrameWnd@@MBEPBUAFX_MSGMAP@@XZ 5f51ac15 f oledocip.obj
 0001:00019c30       ??0COleDocIPFrameWnd@@QAE@XZ 5f51ac30 f oledocip.obj
 0001:00019cac       ??1COleDocIPFrameWnd@@UAE@XZ 5f51acac f oledocip.obj
 0001:00019d14       ?OnRequestPositionChange@COleDocIPFrameWnd@@MAEXPBUtagRECT@@@Z 5f51ad14 f oledocip.obj
 0001:00019d98       ?RecalcLayout@COleDocIPFrameWnd@@MAEXH@Z 5f51ad98 f oledocip.obj
 0001:00019ff4       ?BuildSharedMenu@COleDocIPFrameWnd@@MAEHXZ 5f51aff4 f oledocip.obj
 0001:0001a229       ?DestroySharedMenu@COleDocIPFrameWnd@@MAEXXZ 5f51b229 f oledocip.obj
 0001:0001a3c2       ?AssertValid@COleDocIPFrameWnd@@UBEXXZ 5f51b3c2 f oledocip.obj
 0001:0001a3e0       ?Dump@COleDocIPFrameWnd@@UBEXAAVCDumpContext@@@Z 5f51b3e0 f oledocip.obj
 0001:0001a410       ??0_AfxBindStatusCallback@@QAE@PAVCAsyncMonikerFile@@@Z 5f51b410 f oleasmon.obj
 0001:0001a4a0       ?AddRef@_AfxBindStatusCallback@@UAGKXZ 5f51b4a0 f oleasmon.obj
 0001:0001a4c0       ?Release@_AfxBindStatusCallback@@UAGKXZ 5f51b4c0 f oleasmon.obj
 0001:0001a510       ?QueryInterface@_AfxBindStatusCallback@@UAGJABU_GUID@@PAPAX@Z 5f51b510 f oleasmon.obj
 0001:0001a5a0       ?GetBindInfo@_AfxBindStatusCallback@@EAGJPAKPAU_tagBINDINFO@@@Z 5f51b5a0 f oleasmon.obj
 0001:0001a720       ?OnStartBinding@_AfxBindStatusCallback@@EAGJKPAUIBinding@@@Z 5f51b720 f oleasmon.obj
 0001:0001a880       ?GetPriority@_AfxBindStatusCallback@@EAGJPAJ@Z 5f51b880 f oleasmon.obj
 0001:0001a9e0       ?OnProgress@_AfxBindStatusCallback@@EAGJKKKPBG@Z 5f51b9e0 f oleasmon.obj
 0001:0001ab50       ?OnDataAvailable@_AfxBindStatusCallback@@EAGJKKPAUtagFORMATETC@@PAUtagSTGMEDIUM@@@Z 5f51bb50 f oleasmon.obj
 0001:0001ad70       ?OnLowResource@_AfxBindStatusCallback@@EAGJK@Z 5f51bd70 f oleasmon.obj
 0001:0001aec0       ?OnStopBinding@_AfxBindStatusCallback@@EAGJJPBG@Z 5f51bec0 f oleasmon.obj
 0001:0001b030       ?OnObjectAvailable@_AfxBindStatusCallback@@EAGJABU_GUID@@PAUIUnknown@@@Z 5f51c030 f oleasmon.obj
 0001:0001b0e0       ?Orphan@_AfxBindStatusCallback@@QAEXXZ 5f51c0e0 f oleasmon.obj
 0001:0001b100       ?GetInterfacePtr@?$_CIP@UIBindHost@@$1IID_IBindHost@@QBEPAUIBindHost@@XZ 5f51c100 f oleasmon.obj
 0001:0001b120       ?QueryInterface@?$_CIP@UIBindHost@@$1IID_IBindHost@@QAEJPAUIUnknown@@@Z 5f51c120 f oleasmon.obj
 0001:0001b1a0       ?GetIID@?$_CIP@UIBindHost@@$1IID_IBindHost@@SAABU_GUID@@XZ 5f51c1a0 f oleasmon.obj
 0001:0001b1e0       ??4?$_CIP@UIBindHost@@$1IID_IBindHost@@QAEAAV0@PAUIBindHost@@@Z 5f51c1e0 f oleasmon.obj
 0001:0001b240       ?Attach@?$_CIP@UIBindHost@@$1IID_IBindHost@@QAEXPAUIBindHost@@@Z 5f51c240 f oleasmon.obj
 0001:0001b270       ??0?$CIP@UIBindHost@@$1IID_IBindHost@@QAE@XZ 5f51c270 f oleasmon.obj
 0001:0001b2e0       ??0?$_CIP@UIBindHost@@$1IID_IBindHost@@QAE@XZ 5f51c2e0 f oleasmon.obj
 0001:0001b310       ??4?$CIP@UIBindHost@@$1IID_IBindHost@@QAEAAV0@PAUIBindHost@@@Z 5f51c310 f oleasmon.obj
 0001:0001b340       ??B?$_CIP@UIServiceProvider@@$1IID_IServiceProvider@@QBEPAUIServiceProvider@@XZ 5f51c340 f oleasmon.obj
 0001:0001b360       ??1?$_CIP@UIBinding@@$1IID_IBinding@@QAE@XZ 5f51c360 f oleasmon.obj
 0001:0001b380       ?GetInterfacePtr@?$_CIP@UIServiceProvider@@$1IID_IServiceProvider@@QBEPAUIServiceProvider@@XZ 5f51c380 f oleasmon.obj
 0001:0001b3a0       ?QueryInterface@?$_CIP@UIServiceProvider@@$1IID_IServiceProvider@@QAEJPAUIUnknown@@@Z 5f51c3a0 f oleasmon.obj
 0001:0001b420       ?GetIID@?$_CIP@UIServiceProvider@@$1IID_IServiceProvider@@SAABU_GUID@@XZ 5f51c420 f oleasmon.obj
 0001:0001b460       ??4?$_CIP@UIServiceProvider@@$1IID_IServiceProvider@@QAEAAV0@PAUIServiceProvider@@@Z 5f51c460 f oleasmon.obj
 0001:0001b4c0       ?Attach@?$_CIP@UIServiceProvider@@$1IID_IServiceProvider@@QAEXPAUIServiceProvider@@@Z 5f51c4c0 f oleasmon.obj
 0001:0001b4f0       ?_Release@?$_CIP@UIServiceProvider@@$1IID_IServiceProvider@@AAEXXZ 5f51c4f0 f oleasmon.obj
 0001:0001b530       ?_AddRef@?$_CIP@UIServiceProvider@@$1IID_IServiceProvider@@AAEXXZ 5f51c530 f oleasmon.obj
 0001:0001b570       ??0?$CIP@UIServiceProvider@@$1IID_IServiceProvider@@QAE@XZ 5f51c570 f oleasmon.obj
 0001:0001b5e0       ??0?$_CIP@UIServiceProvider@@$1IID_IServiceProvider@@QAE@XZ 5f51c5e0 f oleasmon.obj
 0001:0001b610       ??1?$_CIP@UIServiceProvider@@$1IID_IServiceProvider@@QAE@XZ 5f51c610 f oleasmon.obj
 0001:0001b630       ?_Release@?$_CIP@UIBinding@@$1IID_IBinding@@AAEXXZ 5f51c630 f oleasmon.obj
 0001:0001b670       ??0?$CIP@UIBinding@@$1IID_IBinding@@QAE@XZ 5f51c670 f oleasmon.obj
 0001:0001b6e0       ??0?$_CIP@UIBinding@@$1IID_IBinding@@QAE@XZ 5f51c6e0 f oleasmon.obj
 0001:0001b710       ??B?$_CIP@UIServiceProvider@@$1IID_IServiceProvider@@QAEPAUIUnknown@@XZ 5f51c710 f oleasmon.obj
 0001:0001b730       ??C?$_CIP@UIBinding@@$1IID_IBinding@@QBEPAUIBinding@@XZ 5f51c730 f oleasmon.obj
 0001:0001b770       ?GetInterfacePtr@?$_CIP@UIBinding@@$1IID_IBinding@@QBEPAUIBinding@@XZ 5f51c770 f oleasmon.obj
 0001:0001b790       ?AddRef@XOleCache@COleControl@@UAGKXZ 5f51c790 f ctlcache.obj
 0001:0001b7b8       ?Release@XOleCache@COleControl@@UAGKXZ 5f51c7b8 f ctlcache.obj
 0001:0001b7e0       ?QueryInterface@XOleCache@COleControl@@UAGJABU_GUID@@PAPAX@Z 5f51c7e0 f ctlcache.obj
 0001:0001b810       ?Cache@XOleCache@COleControl@@UAGJPAUtagFORMATETC@@KPAK@Z 5f51c810 f ctlcache.obj
 0001:0001b87a       ?Uncache@XOleCache@COleControl@@UAGJK@Z 5f51c87a f ctlcache.obj
 0001:0001b8dc       ?EnumCache@XOleCache@COleControl@@UAGJPAPAUIEnumSTATDATA@@@Z 5f51c8dc f ctlcache.obj
 0001:0001b93e       ?InitCache@XOleCache@COleControl@@UAGJPAUIDataObject@@@Z 5f51c93e f ctlcache.obj
 0001:0001b9a0       ?SetData@XOleCache@COleControl@@UAGJPAUtagFORMATETC@@PAUtagSTGMEDIUM@@H@Z 5f51c9a0 f ctlcache.obj
 0001:0001ba10       ?_GetBaseInterfaceMap@COleControl@@KGPBUAFX_INTERFACEMAP@@XZ 5f51ca10 f ctlcore.obj
 0001:0001ba25       ?GetInterfaceMap@COleControl@@MBEPBUAFX_INTERFACEMAP@@XZ 5f51ca25 f ctlcore.obj
 0001:0001ba40       ?_GetBaseMessageMap@COleControl@@KGPBUAFX_MSGMAP@@XZ 5f51ca40 f ctlcore.obj
 0001:0001ba55       ?GetMessageMap@COleControl@@MBEPBUAFX_MSGMAP@@XZ 5f51ca55 f ctlcore.obj
 0001:0001ba70       ??0COleControl@@QAE@XZ     5f51ca70 f ctlcore.obj
 0001:0001bf51       ??1COleControl@@UAE@XZ     5f51cf51 f ctlcore.obj
 0001:0001c5c7       ?OnFinalRelease@COleControl@@MAEXXZ 5f51d5c7 f ctlcore.obj
 0001:0001c626       ?GetInterfaceHook@COleControl@@MAEPAUIUnknown@@PBX@Z 5f51d626 f ctlcore.obj
 0001:0001c6ed       ?SetInitialSize@COleControl@@QAEXHH@Z 5f51d6ed f ctlcore.obj
 0001:0001c738       ?GetDispatchIID@COleControl@@MAEHPAU_GUID@@@Z 5f51d738 f ctlcore.obj
 0001:0001c795       ?InitializeIIDs@COleControl@@QAEXPBU_GUID@@0@Z 5f51d795 f ctlcore.obj
 0001:0001c909       ?AssertValid@COleControl@@UBEXXZ 5f51d909 f ctlcore.obj
 0001:0001c927       ?_AfxDumpGuid@@YGXAAVCDumpContext@@PBU_GUID@@@Z 5f51d927 f ctlcore.obj
 0001:0001c984       ?_AfxDumpHex@@YGXAAVCDumpContext@@K@Z 5f51d984 f ctlcore.obj
 0001:0001c9bb       ?Dump@COleControl@@UBEXAAVCDumpContext@@@Z 5f51d9bb f ctlcore.obj
 0001:0001cc96       ?_AfxFillPSOnStack@@YGXXZ  5f51dc96 f ctlcore.obj
 0001:0001cd12       ?DoSuperclassPaint@COleControl@@QAEXPAVCDC@@ABVCRect@@@Z 5f51dd12 f ctlcore.obj
 0001:0001ce59       ?IsSubclassedControl@COleControl@@UAEHXZ 5f51de59 f ctlcore.obj
 0001:0001cea8       ?CreateControlWindow@COleControl@@MAEHPAUHWND__@@ABVCRect@@PBUtagRECT@@@Z 5f51dea8 f ctlcore.obj
 0001:0001d2b8       ?ReparentControlWindow@COleControl@@UAEXPAUHWND__@@0@Z 5f51e2b8 f ctlcore.obj
 0001:0001d2de       ?GetControlSize@COleControl@@QAEXPAH0@Z 5f51e2de f ctlcore.obj
 0001:0001d39b       ?SetControlSize@COleControl@@QAEHHH@Z 5f51e39b f ctlcore.obj
 0001:0001d3fd       ?ResizeOpenControl@COleControl@@IAEXHH@Z 5f51e3fd f ctlcore.obj
 0001:0001d46a       ?SetRectInContainer@COleControl@@QAEHPBUtagRECT@@@Z 5f51e46a f ctlcore.obj
 0001:0001d512       ?OnResetState@COleControl@@UAEXXZ 5f51e512 f ctlcore.obj
 0001:0001d54e       ?_AfxDrawBorders@@YGXPAVCDC@@AAVCRect@@HH@Z 5f51e54e f ctlcore.obj
 0001:0001d5c0       ?DrawContent@COleControl@@IAEXPAVCDC@@AAVCRect@@@Z 5f51e5c0 f ctlcore.obj
 0001:0001d6d8       ?DrawMetafile@COleControl@@IAEXPAVCDC@@AAVCRect@@@Z 5f51e6d8 f ctlcore.obj
 0001:0001d79d       ?OnDraw@COleControl@@UAEXPAVCDC@@ABVCRect@@1@Z 5f51e79d f ctlcore.obj
 0001:0001d7b5       ?OnDrawMetafile@COleControl@@UAEXPAVCDC@@ABVCRect@@@Z 5f51e7b5 f ctlcore.obj
 0001:0001d7e7       ?GetMetafileData@COleControl@@IAEHPAUtagFORMATETC@@PAUtagSTGMEDIUM@@@Z 5f51e7e7 f ctlcore.obj
 0001:0001daec       ?OnCreateAggregates@COleControl@@MAEHXZ 5f51eaec f ctlcore.obj
 0001:0001db07       ?QueryDefHandler@COleControl@@IAEPAXABU_GUID@@@Z 5f51eb07 f ctlcore.obj
 0001:0001dbd4       ?InvalidateControl@COleControl@@QAEXPBUtagRECT@@H@Z 5f51ebd4 f ctlcore.obj
 0001:0001dce8       ?GetOuterWindow@COleControl@@IBEPAVCWnd@@XZ 5f51ece8 f ctlcore.obj
 0001:0001dd1f       ?OnReflectorDestroyed@COleControl@@MAEXXZ 5f51ed1f f ctlcore.obj
 0001:0001dd42       ?SaveState@COleControl@@IAEJPAUIStream@@@Z 5f51ed42 f ctlcore.obj
 0001:0001de45       ?LoadState@COleControl@@IAEJPAUIStream@@@Z 5f51ee45 f ctlcore.obj
 0001:0001dfb6       ?SendAdvise@COleControl@@IAEXI@Z 5f51efb6 f ctlcore.obj
 0001:0001e1ca       ?OnHide@COleControl@@MAEJXZ 5f51f1ca f ctlcore.obj
 0001:0001e2fc       ?ResizeFrameWindow@COleControl@@MAEXHH@Z 5f51f2fc f ctlcore.obj
 0001:0001e3a8       ?OnOpen@COleControl@@MAEJHPAUtagMSG@@@Z 5f51f3a8 f ctlcore.obj
 0001:0001e52f       ?CreateFrameWindow@COleControl@@MAEPAVCControlFrameWnd@@XZ 5f51f52f f ctlcore.obj
 0001:0001e5c9       ?OnFrameClose@COleControl@@MAEXXZ 5f51f5c9 f ctlcore.obj
 0001:0001e65c       ?GetRectInContainer@COleControl@@QAEHPAUtagRECT@@@Z 5f51f65c f ctlcore.obj
 0001:0001e6a8       ?GetPropPageIDs@COleControl@@MAEPAU_GUID@@AAK@Z 5f51f6a8 f ctlcore.obj
 0001:0001e6cb       ?OnEdit@COleControl@@UAEHPAUtagMSG@@PAUHWND__@@PBUtagRECT@@@Z 5f51f6cb f ctlcore.obj
 0001:0001e721       ?_AfxGetTopLevelWindow@@YGPAUHWND__@@PAU1@@Z 5f51f721 f ctlcore.obj
 0001:0001e756       ?OnProperties@COleControl@@UAEHPAUtagMSG@@PAUHWND__@@PBUtagRECT@@@Z 5f51f756 f ctlcore.obj
 0001:0001e8b3       ?GetControlFlags@COleControl@@UAEKXZ 5f51f8b3 f ctlcore.obj
 0001:0001e8ce       ?OnPaint@COleControl@@IAEXPAVCDC@@@Z 5f51f8ce f ctlcore.obj
 0001:0001ec6e       ?Serialize@COleControl@@MAEXAAVCArchive@@@Z 5f51fc6e f ctlcore.obj
 0001:0001ecca       ?DoPropExchange@COleControl@@UAEXPAVCPropExchange@@@Z 5f51fcca f ctlcore.obj
 0001:0001ed31       ?ControlInfoChanged@COleControl@@QAEXXZ 5f51fd31 f ctlcore.obj
 0001:0001ed6f       ?LockInPlaceActive@COleControl@@QAEHH@Z 5f51fd6f f ctlcore.obj
 0001:0001edce       ?GetExtendedControl@COleControl@@QAEPAUIDispatch@@XZ 5f51fdce f ctlcore.obj
 0001:0001ee1a       ?TransformCoords@COleControl@@QAEXPAU_POINTL@@PAUtagPOINTF@@K@Z 5f51fe1a f ctlcore.obj
 0001:0001eebf       ?AddRef@XOleControl@COleControl@@UAGKXZ 5f51febf f ctlcore.obj
 0001:0001eee7       ?Release@XOleControl@COleControl@@UAGKXZ 5f51fee7 f ctlcore.obj
 0001:0001ef0f       ?QueryInterface@XOleControl@COleControl@@UAGJABU_GUID@@PAPAX@Z 5f51ff0f f ctlcore.obj
 0001:0001ef3f       ?GetControlInfo@XOleControl@COleControl@@UAGJPAUtagCONTROLINFO@@@Z 5f51ff3f f ctlcore.obj
 0001:0001efcf       ?OnMnemonic@XOleControl@COleControl@@UAGJPAUtagMSG@@@Z 5f51ffcf f ctlcore.obj
 0001:0001f05f       ?OnAmbientPropertyChange@XOleControl@COleControl@@UAGJJ@Z 5f52005f f ctlcore.obj
 0001:0001f136       ?FreezeEvents@XOleControl@COleControl@@UAGJH@Z 5f520136 f ctlcore.obj
 0001:0001f238       ?OnGetControlInfo@COleControl@@UAEXPAUtagCONTROLINFO@@@Z 5f520238 f ctlcore.obj
 0001:0001f26d       ?OnMnemonic@COleControl@@UAEXPAUtagMSG@@@Z 5f52026d f ctlcore.obj
 0001:0001f285       ?OnAmbientPropertyChange@COleControl@@UAEXJ@Z 5f520285 f ctlcore.obj
 0001:0001f29d       ?OnFreezeEvents@COleControl@@UAEXH@Z 5f52029d f ctlcore.obj
 0001:0001f2b5       ?OnSetClientSite@COleControl@@UAEXXZ 5f5202b5 f ctlcore.obj
 0001:0001f30c       ?GetClientSite@COleControl@@QAEPAUIOleClientSite@@XZ 5f52030c f ctlcore.obj
 0001:0001f32b       ?TranslateColor@COleControl@@QAEKKPAUHPALETTE__@@@Z 5f52032b f ctlcore.obj
 0001:0001f35e       ?Refresh@COleControl@@QAEXXZ 5f52035e f ctlcore.obj
 0001:0001f395       ?DoClick@COleControl@@QAEXXZ 5f520395 f ctlcore.obj
 0001:0001f3bb       ?OnNcCreate@COleControl@@IAEHPAUtagCREATESTRUCTW@@@Z 5f5203bb f ctlcore.obj
 0001:0001f401       ?RecreateControlWindow@COleControl@@QAEXXZ 5f520401 f ctlcore.obj
 0001:0001f6e0       ?CreateWindowForSubclassedControl@COleControl@@IAEXXZ 5f5206e0 f ctlcore.obj
 0001:0001f77e       ?OnMouseActivate@COleControl@@IAEHPAVCWnd@@II@Z 5f52077e f ctlcore.obj
 0001:0001f7e9       ?PreModalDialog@COleControl@@QAEXPAUHWND__@@@Z 5f5207e9 f ctlcore.obj
 0001:0001f852       ?PostModalDialog@COleControl@@QAEXPAUHWND__@@@Z 5f520852 f ctlcore.obj
 0001:0001f8bb       ?SetModifiedFlag@COleControl@@QAEXH@Z 5f5208bb f ctlcore.obj
 0001:0001f8f5       ?IsModified@COleControl@@QAEHXZ 5f5208f5 f ctlcore.obj
 0001:0001f91a       ?WillAmbientsBeValidDuringLoad@COleControl@@QAEHXZ 5f52091a f ctlcore.obj
 0001:0001f93f       ?EnableSimpleFrame@COleControl@@QAEXXZ 5f52093f f ctlcore.obj
 0001:0001f96c       ?IgnoreWindowMessage@COleControl@@IAEHIIJPAJ@Z 5f52096c f ctlcore.obj
 0001:0001fa3c       ?WindowProc@COleControl@@UAEJIIJ@Z 5f520a3c f ctlcore.obj
 0001:0001fd42       ?DefWindowProcW@COleControl@@MAEJIIJ@Z 5f520d42 f ctlcore.obj
 0001:0001fd87       ?OnCreate@COleControl@@IAEHPAUtagCREATESTRUCTW@@@Z 5f520d87 f ctlcore.obj
 0001:0001fdcd       ?OnSize@COleControl@@IAEXIHH@Z 5f520dcd f ctlcore.obj
 0001:0001fe0f       ?OnMove@COleControl@@IAEXHH@Z 5f520e0f f ctlcore.obj
 0001:0001fe4d       ?OnShowWindow@COleControl@@IAEXHI@Z 5f520e4d f ctlcore.obj
 0001:0001fe8b       ?OnInitMenuPopup@COleControl@@IAEXPAVCMenu@@IH@Z 5f520e8b f ctlcore.obj
 0001:00020108       ?OnMenuSelect@COleControl@@IAEXIIPAUHMENU__@@@Z 5f521108 f ctlcore.obj
 0001:00020288       ?GetMessageString@COleControl@@UBEXIAAVCString@@@Z 5f521288 f ctlcore.obj
 0001:0002030d       ?OnSetMessageString@COleControl@@IAEJIJ@Z 5f52130d f ctlcore.obj
 0001:0002043e       ?OnEnterIdle@COleControl@@IAEXIPAVCWnd@@@Z 5f52143e f ctlcore.obj
 0001:000204c6       ?AddRef@XSpecifyPropertyPages@COleControl@@UAGKXZ 5f5214c6 f ctlcore.obj
 0001:000204ee       ?Release@XSpecifyPropertyPages@COleControl@@UAGKXZ 5f5214ee f ctlcore.obj
 0001:00020516       ?QueryInterface@XSpecifyPropertyPages@COleControl@@UAGJABU_GUID@@PAPAX@Z 5f521516 f ctlcore.obj
 0001:00020546       ?GetPages@XSpecifyPropertyPages@COleControl@@UAGJPAUtagCAUUID@@@Z 5f521546 f ctlcore.obj
 0001:000206a7       ?OnDestroy@COleControl@@IAEXXZ 5f5216a7 f ctlcore.obj
 0001:00020719       ?OnKillFocus@COleControl@@IAEXPAVCWnd@@@Z 5f521719 f ctlcore.obj
 0001:00020767       ?OnSetFocus@COleControl@@IAEXPAVCWnd@@@Z 5f521767 f ctlcore.obj
 0001:000207b5       ?OnOcmCtlColorBtn@COleControl@@IAEJIJ@Z 5f5217b5 f ctlcore.obj
 0001:000207e7       ?OnOcmCtlColorDlg@COleControl@@IAEJIJ@Z 5f5217e7 f ctlcore.obj
 0001:00020819       ?OnOcmCtlColorEdit@COleControl@@IAEJIJ@Z 5f521819 f ctlcore.obj
 0001:0002084b       ?OnOcmCtlColorListBox@COleControl@@IAEJIJ@Z 5f52184b f ctlcore.obj
 0001:0002087d       ?OnOcmCtlColorMsgBox@COleControl@@IAEJIJ@Z 5f52187d f ctlcore.obj
 0001:000208af       ?OnOcmCtlColorScrollBar@COleControl@@IAEJIJ@Z 5f5218af f ctlcore.obj
 0001:000208e1       ?OnOcmCtlColorStatic@COleControl@@IAEJIJ@Z 5f5218e1 f ctlcore.obj
 0001:00020913       ?ThrowError@COleControl@@QAEXJII@Z 5f521913 f ctlcore.obj
 0001:00020970       ?ThrowError@COleControl@@QAEXJPBGI@Z 5f521970 f ctlcore.obj
 0001:000209e4       ?IsInvokeAllowed@COleControl@@MAEHJ@Z 5f5219e4 f ctlcore.obj
 0001:00020a10       ??_GCOleControl@@UAEPAXI@Z 5f521a10 f ctlcore.obj
 0001:00020a10       ??_ECOleControl@@UAEPAXI@Z 5f521a10 f ctlcore.obj
 0001:00020a50       ??0XPersistStorage@COleControl@@QAE@XZ 5f521a50 f ctlcore.obj
 0001:00020a80       ??0XPersistStreamInit@COleControl@@QAE@XZ 5f521a80 f ctlcore.obj
 0001:00020ab0       ??0XPersistMemory@COleControl@@QAE@XZ 5f521ab0 f ctlcore.obj
 0001:00020ae0       ??0XPersistPropertyBag@COleControl@@QAE@XZ 5f521ae0 f ctlcore.obj
 0001:00020b10       ??0XOleObject@COleControl@@QAE@XZ 5f521b10 f ctlcore.obj
 0001:00020b40       ??0XViewObject@COleControl@@QAE@XZ 5f521b40 f ctlcore.obj
 0001:00020b70       ??0XDataObject@COleControl@@QAE@XZ 5f521b70 f ctlcore.obj
 0001:00020ba0       ??0XOleInPlaceObject@COleControl@@QAE@XZ 5f521ba0 f ctlcore.obj
 0001:00020bd0       ??0XOleInPlaceActiveObject@COleControl@@QAE@XZ 5f521bd0 f ctlcore.obj
 0001:00020c00       ??0XOleCache@COleControl@@QAE@XZ 5f521c00 f ctlcore.obj
 0001:00020c30       ??0XOleControl@COleControl@@QAE@XZ 5f521c30 f ctlcore.obj
 0001:00020c60       ??0XProvideClassInfo@COleControl@@QAE@XZ 5f521c60 f ctlcore.obj
 0001:00020c90       ??0XSpecifyPropertyPages@COleControl@@QAE@XZ 5f521c90 f ctlcore.obj
 0001:00020cc0       ??0XPerPropertyBrowsing@COleControl@@QAE@XZ 5f521cc0 f ctlcore.obj
 0001:00020cf0       ??0XFontNotification@COleControl@@QAE@XZ 5f521cf0 f ctlcore.obj
 0001:00020d20       ??0XQuickActivate@COleControl@@QAE@XZ 5f521d20 f ctlcore.obj
 0001:00020d50       ??0XPointerInactive@COleControl@@QAE@XZ 5f521d50 f ctlcore.obj
 0001:00020d80       ??0IPersistStreamInit@@QAE@XZ 5f521d80 f ctlcore.obj
 0001:00020db0       ??0IPersistMemory@@QAE@XZ  5f521db0 f ctlcore.obj
 0001:00020de0       ??0IPersistPropertyBag@@QAE@XZ 5f521de0 f ctlcore.obj
 0001:00020e10       ??0IViewObjectEx@@QAE@XZ   5f521e10 f ctlcore.obj
 0001:00020e40       ??0IOleInPlaceObjectWindowless@@QAE@XZ 5f521e40 f ctlcore.obj
 0001:00020e70       ??0IOleCache@@QAE@XZ       5f521e70 f ctlcore.obj
 0001:00020ea0       ??0IOleControl@@QAE@XZ     5f521ea0 f ctlcore.obj
 0001:00020ed0       ??0IProvideClassInfo2@@QAE@XZ 5f521ed0 f ctlcore.obj
 0001:00020f00       ??0ISpecifyPropertyPages@@QAE@XZ 5f521f00 f ctlcore.obj
 0001:00020f30       ??0IPerPropertyBrowsing@@QAE@XZ 5f521f30 f ctlcore.obj
 0001:00020f60       ??0IQuickActivate@@QAE@XZ  5f521f60 f ctlcore.obj
 0001:00020f90       ??0IPointerInactive@@QAE@XZ 5f521f90 f ctlcore.obj
 0001:00020fc0       ??0IViewObject2@@QAE@XZ    5f521fc0 f ctlcore.obj
 0001:00020ff0       ??0IProvideClassInfo@@QAE@XZ 5f521ff0 f ctlcore.obj
 0001:00021020       ??0IViewObject@@QAE@XZ     5f522020 f ctlcore.obj
 0001:00021050       ??0XEventConnPt@COleControl@@QAE@XZ 5f522050 f ctlcore.obj
 0001:000210d0       ??0XPropConnPt@COleControl@@QAE@XZ 5f5220d0 f ctlcore.obj
 0001:00021150       ?GetIID@XPropConnPt@COleControl@@UAEABU_GUID@@XZ 5f522150 f ctlcore.obj
 0001:00021170       ??_EXEventConnPt@COleControl@@UAEPAXI@Z 5f522170 f ctlcore.obj
 0001:00021170       ??_GXEventConnPt@COleControl@@UAEPAXI@Z 5f522170 f ctlcore.obj
 0001:000211b0       ??_GXPropConnPt@COleControl@@UAEPAXI@Z 5f5221b0 f ctlcore.obj
 0001:000211b0       ??_EXPropConnPt@COleControl@@UAEPAXI@Z 5f5221b0 f ctlcore.obj
 0001:000211f0       ??1XEventConnPt@COleControl@@UAE@XZ 5f5221f0 f ctlcore.obj
 0001:00021250       ??1XPropConnPt@COleControl@@UAE@XZ 5f522250 f ctlcore.obj
 0001:000212b0       ?_AfxIsEqualGUID@@YAHABU_GUID@@0@Z 5f5222b0 f ctlcore.obj
 0001:00021320       ??C?$CThreadLocal@V_AFXCTL_AMBIENT_CACHE@@@@QAEPAV_AFXCTL_AMBIENT_CACHE@@XZ 5f522320 f ctlcore.obj
 0001:00021340       ?GetData@?$CThreadLocal@V_AFXCTL_AMBIENT_CACHE@@@@QAEPAV_AFXCTL_AMBIENT_CACHE@@XZ 5f522340 f ctlcore.obj
 0001:00021390       ?CreateObject@?$CThreadLocal@V_AFXCTL_AMBIENT_CACHE@@@@SGPAVCNoTrackObject@@XZ 5f522390 f ctlcore.obj
 0001:00021420       ??0CReflectorWnd@@QAE@XZ   5f522420 f ctlcore.obj
 0001:000214a0       ??_ECReflectorWnd@@UAEPAXI@Z 5f5224a0 f ctlcore.obj
 0001:000214a0       ??_GCReflectorWnd@@UAEPAXI@Z 5f5224a0 f ctlcore.obj
 0001:000214e0       ??1CReflectorWnd@@UAE@XZ   5f5224e0 f ctlcore.obj
 0001:00021540       ??0CParkingWnd@@QAE@XZ     5f522540 f ctlcore.obj
 0001:00021620       ??_ECParkingWnd@@UAEPAXI@Z 5f522620 f ctlcore.obj
 0001:00021620       ??_GCParkingWnd@@UAEPAXI@Z 5f522620 f ctlcore.obj
 0001:00021660       ??1CParkingWnd@@UAE@XZ     5f522660 f ctlcore.obj
 0001:000216e0       ?_GetBaseConnectionMap@COleControl@@KGPBUAFX_CONNECTIONMAP@@XZ 5f5226e0 f ctlconn.obj
 0001:000216f5       ?GetConnectionMap@COleControl@@MBEPBUAFX_CONNECTIONMAP@@XZ 5f5226f5 f ctlconn.obj
 0001:00021710       ?GetConnectionHook@COleControl@@MAEPAUIConnectionPoint@@ABU_GUID@@@Z 5f522710 f ctlconn.obj
 0001:00021764       ?GetExtraConnectionPoints@COleControl@@MAEHPAVCPtrArray@@@Z 5f522764 f ctlconn.obj
 0001:00021792       ?AddRef@XProvideClassInfo@COleControl@@UAGKXZ 5f522792 f ctlconn.obj
 0001:000217ba       ?Release@XProvideClassInfo@COleControl@@UAGKXZ 5f5227ba f ctlconn.obj
 0001:000217e2       ?QueryInterface@XProvideClassInfo@COleControl@@UAGJABU_GUID@@PAPAX@Z 5f5227e2 f ctlconn.obj
 0001:00021812       ?GetClassInfoW@XProvideClassInfo@COleControl@@UAGJPAPAUITypeInfo@@@Z 5f522812 f ctlconn.obj
 0001:000218b5       ?GetGUID@XProvideClassInfo@COleControl@@UAGJKPAU_GUID@@@Z 5f5228b5 f ctlconn.obj
 0001:0002192d       ?OnAdvise@XEventConnPt@COleControl@@UAEXH@Z 5f52292d f ctlconn.obj
 0001:000219b5       ?GetIID@XEventConnPt@COleControl@@UAEABU_GUID@@XZ 5f5229b5 f ctlconn.obj
 0001:000219f8       ?QuerySinkInterface@XEventConnPt@COleControl@@UAEPAUIUnknown@@PAU3@@Z 5f5229f8 f ctlconn.obj
 0001:00021a57       ?OnEventAdvise@COleControl@@UAEXH@Z 5f522a57 f ctlconn.obj
 0001:00021a6f       ?AfxConnectionAdvise@@YGHPAUIUnknown@@ABU_GUID@@0HPAK@Z 5f522a6f f ctlconn.obj
 0001:00021c34       ?AfxConnectionUnadvise@@YGHPAUIUnknown@@ABU_GUID@@0HK@Z 5f522c34 f ctlconn.obj
 0001:00021de0       ?_AfxRegisterClipFormat@@YGGABU_GUID@@@Z 5f522de0 f ctldata.obj
 0001:00021e73       ?_AfxGetClipboardFormatConvertVBX@@YGGXZ 5f522e73 f ctldata.obj
 0001:00021ece       ?_AfxGetClipboardFormatPersistPropset@@YGGXZ 5f522ece f ctldata.obj
 0001:00021f29       ?_AfxOleMatchPropsetClipFormat@@YGHGPAU_GUID@@@Z 5f522f29 f ctldata.obj
 0001:00021fbf       ?AddRef@XDataObject@COleControl@@UAGKXZ 5f522fbf f ctldata.obj
 0001:00021fe7       ?Release@XDataObject@COleControl@@UAGKXZ 5f522fe7 f ctldata.obj
 0001:0002200f       ?QueryInterface@XDataObject@COleControl@@UAGJABU_GUID@@PAPAX@Z 5f52300f f ctldata.obj
 0001:0002203f       ?GetData@XDataObject@COleControl@@UAGJPAUtagFORMATETC@@PAUtagSTGMEDIUM@@@Z 5f52303f f ctldata.obj
 0001:00022096       ?GetDataHere@XDataObject@COleControl@@UAGJPAUtagFORMATETC@@PAUtagSTGMEDIUM@@@Z 5f523096 f ctldata.obj
 0001:000220ed       ?QueryGetData@XDataObject@COleControl@@UAGJPAUtagFORMATETC@@@Z 5f5230ed f ctldata.obj
 0001:00022140       ?GetCanonicalFormatEtc@XDataObject@COleControl@@UAGJPAUtagFORMATETC@@0@Z 5f523140 f ctldata.obj
 0001:00022197       ?SetData@XDataObject@COleControl@@UAGJPAUtagFORMATETC@@PAUtagSTGMEDIUM@@H@Z 5f523197 f ctldata.obj
 0001:000221f2       ?EnumFormatEtc@XDataObject@COleControl@@UAGJKPAPAUIEnumFORMATETC@@@Z 5f5231f2 f ctldata.obj
 0001:00022249       ?DAdvise@XDataObject@COleControl@@UAGJPAUtagFORMATETC@@KPAUIAdviseSink@@PAK@Z 5f523249 f ctldata.obj
 0001:000222f7       ?DUnadvise@XDataObject@COleControl@@UAGJK@Z 5f5232f7 f ctldata.obj
 0001:00022375       ?EnumDAdvise@XDataObject@COleControl@@UAGJPAPAUIEnumSTATDATA@@@Z 5f523375 f ctldata.obj
 0001:000223fc       ??0CControlDataSource@COleControl@@QAE@PAV1@@Z 5f5233fc f ctldata.obj
 0001:00022480       ?OnRenderGlobalData@CControlDataSource@COleControl@@MAEHPAUtagFORMATETC@@PAPAX@Z 5f523480 f ctldata.obj
 0001:000224c7       ?OnRenderFileData@CControlDataSource@COleControl@@MAEHPAUtagFORMATETC@@PAVCFile@@@Z 5f5234c7 f ctldata.obj
 0001:0002250e       ?OnRenderData@CControlDataSource@COleControl@@MAEHPAUtagFORMATETC@@PAUtagSTGMEDIUM@@@Z 5f52350e f ctldata.obj
 0001:00022577       ?OnSetData@CControlDataSource@COleControl@@MAEHPAUtagFORMATETC@@PAUtagSTGMEDIUM@@H@Z 5f523577 f ctldata.obj
 0001:000225c2       ?OnRenderGlobalData@COleControl@@UAEHPAUtagFORMATETC@@PAPAX@Z 5f5235c2 f ctldata.obj
 0001:00022649       ?OnRenderFileData@COleControl@@UAEHPAUtagFORMATETC@@PAVCFile@@@Z 5f523649 f ctldata.obj
 0001:000226b6       ?OnRenderData@COleControl@@UAEHPAUtagFORMATETC@@PAUtagSTGMEDIUM@@@Z 5f5236b6 f ctldata.obj
 0001:000227a8       ?OnSetData@COleControl@@UAEHPAUtagFORMATETC@@PAUtagSTGMEDIUM@@H@Z 5f5237a8 f ctldata.obj
 0001:00022884       ?GetDataSource@COleControl@@IAEPAVCControlDataSource@1@XZ 5f523884 f ctldata.obj
 0001:000229ac       ?SetInitialDataFormats@COleControl@@MAEXXZ 5f5239ac f ctldata.obj
 0001:00022a70       ??_GCControlDataSource@COleControl@@UAEPAXI@Z 5f523a70 f ctldata.obj
 0001:00022a70       ??_ECControlDataSource@COleControl@@UAEPAXI@Z 5f523a70 f ctldata.obj
 0001:00022ab0       ??1CControlDataSource@COleControl@@UAE@XZ 5f523ab0 f ctldata.obj
 0001:00022b10       ?InitStockEventMask@COleControl@@IAEXXZ 5f523b10 f ctlevent.obj
 0001:00022c2a       ?GetEventMap@COleControl@@MBEPBUAFX_EVENTMAP@@XZ 5f523c2a f ctlevent.obj
 0001:00022c45       ?GetEventMapEntry@COleControl@@IBEPBUAFX_EVENTMAP_ENTRY@@PBGPAJ@Z 5f523c45 f ctlevent.obj
 0001:00022d54       ?FireEventV@COleControl@@IAEXJPAEPAD@Z 5f523d54 f ctlevent.obj
 0001:00022e91       ?FireEvent@COleControl@@QAAXJPAEZZ 5f523e91 f ctlevent.obj
 0001:00022ec5       ?_AfxShiftState@@YGFXZ     5f523ec5 f ctlevent.obj
 0001:00022f58       ?OnSysKeyDown@COleControl@@IAEXIII@Z 5f523f58 f ctlevent.obj
 0001:00022fdb       ?OnSysKeyUp@COleControl@@IAEXIII@Z 5f523fdb f ctlevent.obj
 0001:0002305e       ?OnKeyDown@COleControl@@IAEXIII@Z 5f52405e f ctlevent.obj
 0001:000230e1       ?OnKeyUp@COleControl@@IAEXIII@Z 5f5240e1 f ctlevent.obj
 0001:00023164       ?KeyUp@COleControl@@IAEXPAG@Z 5f524164 f ctlevent.obj
 0001:000231ce       ?KeyDown@COleControl@@IAEXPAG@Z 5f5241ce f ctlevent.obj
 0001:00023238       ?OnGetDlgCode@COleControl@@IAEIXZ 5f524238 f ctlevent.obj
 0001:0002329b       ?OnChar@COleControl@@IAEXIII@Z 5f52429b f ctlevent.obj
 0001:00023659       ?OnKeyPressEvent@COleControl@@UAEXG@Z 5f524659 f ctlevent.obj
 0001:00023671       ?OnKeyDownEvent@COleControl@@UAEXGG@Z 5f524671 f ctlevent.obj
 0001:00023689       ?OnKeyUpEvent@COleControl@@UAEXGG@Z 5f524689 f ctlevent.obj
 0001:000236a1       ?ButtonDown@COleControl@@IAEXGIVCPoint@@@Z 5f5246a1 f ctlevent.obj
 0001:0002378f       ?ButtonUp@COleControl@@IAEXGIVCPoint@@@Z 5f52478f f ctlevent.obj
 0001:000238e2       ?ButtonDblClk@COleControl@@IAEXGIVCPoint@@@Z 5f5248e2 f ctlevent.obj
 0001:00023994       ?OnMouseMove@COleControl@@IAEXIVCPoint@@@Z 5f524994 f ctlevent.obj
 0001:00023a13       ?OnLButtonDown@COleControl@@IAEXIVCPoint@@@Z 5f524a13 f ctlevent.obj
 0001:00023a7a       ?OnLButtonUp@COleControl@@IAEXIVCPoint@@@Z 5f524a7a f ctlevent.obj
 0001:00023b5e       ?OnLButtonDblClk@COleControl@@IAEXIVCPoint@@@Z 5f524b5e f ctlevent.obj
 0001:00023bbd       ?OnMButtonDown@COleControl@@IAEXIVCPoint@@@Z 5f524bbd f ctlevent.obj
 0001:00023c1c       ?OnMButtonUp@COleControl@@IAEXIVCPoint@@@Z 5f524c1c f ctlevent.obj
 0001:00023d00       ?OnMButtonDblClk@COleControl@@IAEXIVCPoint@@@Z 5f524d00 f ctlevent.obj
 0001:00023d5f       ?OnRButtonDown@COleControl@@IAEXIVCPoint@@@Z 5f524d5f f ctlevent.obj
 0001:00023dbe       ?OnRButtonUp@COleControl@@IAEXIVCPoint@@@Z 5f524dbe f ctlevent.obj
 0001:00023ea2       ?OnRButtonDblClk@COleControl@@IAEXIVCPoint@@@Z 5f524ea2 f ctlevent.obj
 0001:00023f01       ?OnCancelMode@COleControl@@IAEXXZ 5f524f01 f ctlevent.obj
 0001:00023f66       ?OnClick@COleControl@@UAEXG@Z 5f524f66 f ctlevent.obj
 0001:00023f96       ?FireError@COleControl@@QAEXJPBGI@Z 5f524f96 f ctlevent.obj
 0001:00024093       ?DisplayError@COleControl@@UAEXJPBG00I@Z 5f525093 f ctlevent.obj
 0001:000240c0       ?_GetBaseMessageMap@CControlFrameWnd@@KGPBUAFX_MSGMAP@@XZ 5f5250c0 f ctlframe.obj
 0001:000240d5       ?GetMessageMap@CControlFrameWnd@@MBEPBUAFX_MSGMAP@@XZ 5f5250d5 f ctlframe.obj
 0001:000240f0       ??0CControlFrameWnd@@QAE@PAVCOleControl@@@Z 5f5250f0 f ctlframe.obj
 0001:0002416a       ?PreCreateWindow@CControlFrameWnd@@UAEHAAUtagCREATESTRUCTW@@@Z 5f52516a f ctlframe.obj
 0001:000241d6       ?Create@CControlFrameWnd@@UAEHPBG@Z 5f5251d6 f ctlframe.obj
 0001:00024243       ?OnClose@CControlFrameWnd@@IAEXXZ 5f525243 f ctlframe.obj
 0001:00024278       ?PostNcDestroy@CControlFrameWnd@@MAEXXZ 5f525278 f ctlframe.obj
 0001:000242b6       ?OnActivate@CControlFrameWnd@@IAEXIPAVCWnd@@H@Z 5f5252b6 f ctlframe.obj
 0001:000242f0       ??_GCControlFrameWnd@@UAEPAXI@Z 5f5252f0 f ctlframe.obj
 0001:000242f0       ??_ECControlFrameWnd@@UAEPAXI@Z 5f5252f0 f ctlframe.obj
 0001:00024330       ??1CControlFrameWnd@@UAE@XZ 5f525330 f ctlframe.obj
 0001:00024390       ??0CFontHolder@@QAE@PAUIPropertyNotifySink@@@Z 5f525390 f ctlfont.obj
 0001:000243fb       ??1CFontHolder@@QAE@XZ     5f5253fb f ctlfont.obj
 0001:00024419       ?ReleaseFont@CFontHolder@@QAEXXZ 5f525419 f ctlfont.obj
 0001:0002448d       ?InitializeFont@CFontHolder@@QAEXPBUtagFONTDESC@@PAUIDispatch@@@Z 5f52548d f ctlfont.obj
 0001:0002460a       ?_AfxIsSameFont@@YGHAAVCFontHolder@@PBUtagFONTDESC@@PAUIFontDisp@@@Z 5f52560a f ctlfont.obj
 0001:00024926       ?GetFontHandle@CFontHolder@@QAEPAUHFONT__@@XZ 5f525926 f ctlfont.obj
 0001:00024952       ?GetFontHandle@CFontHolder@@QAEPAUHFONT__@@JJ@Z 5f525952 f ctlfont.obj
 0001:000249de       ?Select@CFontHolder@@QAEPAVCFont@@PAVCDC@@JJ@Z 5f5259de f ctlfont.obj
 0001:00024aab       ?QueryTextMetrics@CFontHolder@@QAEXPAUtagTEXTMETRICW@@@Z 5f525aab f ctlfont.obj
 0001:00024b1a       ?GetFontDispatch@CFontHolder@@QAEPAUIFontDisp@@XZ 5f525b1a f ctlfont.obj
 0001:00024b9d       ?SetFont@CFontHolder@@QAEXPAUIFont@@@Z 5f525b9d f ctlfont.obj
 0001:00024c35       ?GetDisplayString@CFontHolder@@QAEHAAVCString@@@Z 5f525c35 f ctlfont.obj
 0001:00024c60       ??0_AFXCTL_UIACTIVE_INFO@@QAE@PAUHMENU__@@PAUIOleInPlaceFrame@@@Z 5f525c60 f ctlinplc.obj
 0001:00024da1       ??1_AFXCTL_UIACTIVE_INFO@@QAE@XZ 5f525da1 f ctlinplc.obj
 0001:00024e08       ?_GetClippingCoordinates@@YGXPBUtagRECT@@0PAU1@PAUtagPOINT@@@Z 5f525e08 f ctlinplc.obj
 0001:00024ea9       ?OnActivateInPlace@COleControl@@MAEJHPAUtagMSG@@@Z 5f525ea9 f ctlinplc.obj
 0001:00025636       ?ForwardActivationMsg@COleControl@@IAEXPAUtagMSG@@@Z 5f526636 f ctlinplc.obj
 0001:0002577c       ?OnGetInPlaceMenu@COleControl@@UAEPAUHMENU__@@XZ 5f52677c f ctlinplc.obj
 0001:00025794       ?BuildSharedMenu@COleControl@@MAEHXZ 5f526794 f ctlinplc.obj
 0001:0002591f       ?DestroySharedMenu@COleControl@@MAEXXZ 5f52691f f ctlinplc.obj
 0001:00025a64       ?AddFrameLevelUI@COleControl@@MAEXXZ 5f526a64 f ctlinplc.obj
 0001:00025afe       ?RemoveFrameLevelUI@COleControl@@MAEXXZ 5f526afe f ctlinplc.obj
 0001:00025bdf       ?OnShowToolBars@COleControl@@UAEXXZ 5f526bdf f ctlinplc.obj
 0001:00025c0f       ?OnHideToolBars@COleControl@@UAEXXZ 5f526c0f f ctlinplc.obj
 0001:00025c25       ?AddRef@XOleInPlaceObject@COleControl@@UAGKXZ 5f526c25 f ctlinplc.obj
 0001:00025c4d       ?Release@XOleInPlaceObject@COleControl@@UAGKXZ 5f526c4d f ctlinplc.obj
 0001:00025c75       ?QueryInterface@XOleInPlaceObject@COleControl@@UAGJABU_GUID@@PAPAX@Z 5f526c75 f ctlinplc.obj
 0001:00025ca5       ?GetWindow@XOleInPlaceObject@COleControl@@UAGJPAPAUHWND__@@@Z 5f526ca5 f ctlinplc.obj
 0001:00025d0f       ?ContextSensitiveHelp@XOleInPlaceObject@COleControl@@UAGJH@Z 5f526d0f f ctlinplc.obj
 0001:00025d26       ?InPlaceDeactivate@XOleInPlaceObject@COleControl@@UAGJXZ 5f526d26 f ctlinplc.obj
 0001:00025e99       ?UIDeactivate@XOleInPlaceObject@COleControl@@UAGJXZ 5f526e99 f ctlinplc.obj
 0001:00025fd9       ?SetObjectRects@XOleInPlaceObject@COleControl@@UAGJPBUtagRECT@@0@Z 5f526fd9 f ctlinplc.obj
 0001:00026081       ?OnSetObjectRects@COleControl@@UAEHPBUtagRECT@@0@Z 5f527081 f ctlinplc.obj
 0001:00026250       ?ReactivateAndUndo@XOleInPlaceObject@COleControl@@UAGJXZ 5f527250 f ctlinplc.obj
 0001:00026267       ?AddRef@XOleInPlaceActiveObject@COleControl@@UAGKXZ 5f527267 f ctlinplc.obj
 0001:0002628f       ?Release@XOleInPlaceActiveObject@COleControl@@UAGKXZ 5f52728f f ctlinplc.obj
 0001:000262b7       ?QueryInterface@XOleInPlaceActiveObject@COleControl@@UAGJABU_GUID@@PAPAX@Z 5f5272b7 f ctlinplc.obj
 0001:000262e7       ?GetWindow@XOleInPlaceActiveObject@COleControl@@UAGJPAPAUHWND__@@@Z 5f5272e7 f ctlinplc.obj
 0001:00026320       ?ContextSensitiveHelp@XOleInPlaceActiveObject@COleControl@@UAGJH@Z 5f527320 f ctlinplc.obj
 0001:00026337       ?TranslateAcceleratorW@XOleInPlaceActiveObject@COleControl@@UAGJPAUtagMSG@@@Z 5f527337 f ctlinplc.obj
 0001:00026428       ?OnFrameWindowActivate@XOleInPlaceActiveObject@COleControl@@UAGJH@Z 5f527428 f ctlinplc.obj
 0001:0002643c       ?OnDocWindowActivate@XOleInPlaceActiveObject@COleControl@@UAGJH@Z 5f52743c f ctlinplc.obj
 0001:000264f9       ?ResizeBorder@XOleInPlaceActiveObject@COleControl@@UAGJPBUtagRECT@@PAUIOleInPlaceUIWindow@@H@Z 5f5274f9 f ctlinplc.obj
 0001:0002650d       ?EnableModeless@XOleInPlaceActiveObject@COleControl@@UAGJH@Z 5f52750d f ctlinplc.obj
 0001:00026530       ??_G_AFXCTL_UIACTIVE_INFO@@QAEPAXI@Z 5f527530 f ctlinplc.obj
 0001:00026570       ?AfxVerifyLicFile@@YGHPAUHINSTANCE__@@PBG1I@Z 5f527570 f ctllic.obj
 0001:00026760       ?wcsrchr@@YAPAGPAGG@Z      5f527760 f ctllic.obj
 0001:00026790       ??0CConnectionPoint@@QAE@XZ 5f527790 f oleconn.obj
 0001:0002681e       ??1CConnectionPoint@@UAE@XZ 5f52781e f oleconn.obj
 0001:00026912       ?GetStartPosition@CConnectionPoint@@QBEPAU__POSITION@@XZ 5f527912 f oleconn.obj
 0001:0002699a       ?GetNextConnection@CConnectionPoint@@QBEPAUIUnknown@@AAPAU__POSITION@@@Z 5f52799a f oleconn.obj
 0001:00026ad2       ?GetConnections@CConnectionPoint@@QAEPBVCPtrArray@@XZ 5f527ad2 f oleconn.obj
 0001:00026b35       ?OnAdvise@CConnectionPoint@@UAEXH@Z 5f527b35 f oleconn.obj
 0001:00026b5d       ?GetMaxConnections@CConnectionPoint@@UAEHXZ 5f527b5d f oleconn.obj
 0001:00026b88       ?GetContainer@CConnectionPoint@@UAEPAUIConnectionPointContainer@@XZ 5f527b88 f oleconn.obj
 0001:00026bf4       ?CreateConnectionArray@CConnectionPoint@@QAEXXZ 5f527bf4 f oleconn.obj
 0001:00026cdd       ?GetConnectionCount@CConnectionPoint@@QAEHXZ 5f527cdd f oleconn.obj
 0001:00026d29       ?QuerySinkInterface@CConnectionPoint@@UAEPAUIUnknown@@PAU2@@Z 5f527d29 f oleconn.obj
 0001:00026d66       ?Release@XConnPt@CConnectionPoint@@UAGKXZ 5f527d66 f oleconn.obj
 0001:00026d8c       ?AddRef@XConnPt@CConnectionPoint@@UAGKXZ 5f527d8c f oleconn.obj
 0001:00026db2       ?QueryInterface@XConnPt@CConnectionPoint@@UAGJABU_GUID@@PAPAX@Z 5f527db2 f oleconn.obj
 0001:00026e4f       ?GetConnectionInterface@XConnPt@CConnectionPoint@@UAGJPAU_GUID@@@Z 5f527e4f f oleconn.obj
 0001:00026ec0       ?GetConnectionPointContainer@XConnPt@CConnectionPoint@@UAGJPAPAUIConnectionPointContainer@@@Z 5f527ec0 f oleconn.obj
 0001:00026f33       ?Advise@XConnPt@CConnectionPoint@@UAGJPAUIUnknown@@PAK@Z 5f527f33 f oleconn.obj
 0001:0002708f       ?Unadvise@XConnPt@CConnectionPoint@@UAGJK@Z 5f52808f f oleconn.obj
 0001:000271a1       ?EnumConnections@XConnPt@CConnectionPoint@@UAGJPAPAUIEnumConnections@@@Z 5f5281a1 f oleconn.obj
 0001:000271b8       ?_GetBaseInterfaceMap@CEnumConnPoints@@KGPBUAFX_INTERFACEMAP@@XZ 5f5281b8 f oleconn.obj
 0001:000271cd       ?GetInterfaceMap@CEnumConnPoints@@MBEPBUAFX_INTERFACEMAP@@XZ 5f5281cd f oleconn.obj
 0001:000271e8       ??0CEnumConnPoints@@QAE@PBXI@Z 5f5281e8 f oleconn.obj
 0001:0002726f       ??1CEnumConnPoints@@UAE@XZ 5f52826f f oleconn.obj
 0001:00027345       ?OnNext@CEnumConnPoints@@MAEHPAX@Z 5f528345 f oleconn.obj
 0001:0002738d       ?AddConnPoint@CEnumConnPoints@@QAEXPAUIConnectionPoint@@@Z 5f52838d f oleconn.obj
 0001:000274a7       ?AddRef@COleConnPtContainer@@UAGKXZ 5f5284a7 f oleconn.obj
 0001:000274cd       ?Release@COleConnPtContainer@@UAGKXZ 5f5284cd f oleconn.obj
 0001:000274f3       ?QueryInterface@COleConnPtContainer@@UAGJABU_GUID@@PAPAX@Z 5f5284f3 f oleconn.obj
 0001:00027521       ?EnumConnectionPoints@COleConnPtContainer@@UAGJPAPAUIEnumConnectionPoints@@@Z 5f528521 f oleconn.obj
 0001:00027724       ?FindConnectionPoint@COleConnPtContainer@@UAGJABU_GUID@@PAPAUIConnectionPoint@@@Z 5f528724 f oleconn.obj
 0001:00027825       ?EnableConnections@CCmdTarget@@QAEXXZ 5f528825 f oleconn.obj
 0001:000278c0       ??_GCConnectionPoint@@UAEPAXI@Z 5f5288c0 f oleconn.obj
 0001:000278c0       ??_ECConnectionPoint@@UAEPAXI@Z 5f5288c0 f oleconn.obj
 0001:00027900       ??0XConnPt@CConnectionPoint@@QAE@XZ 5f528900 f oleconn.obj
 0001:00027930       ??0IConnectionPoint@@QAE@XZ 5f528930 f oleconn.obj
 0001:00027960       ??_ECEnumConnPoints@@UAEPAXI@Z 5f528960 f oleconn.obj
 0001:00027960       ??_GCEnumConnPoints@@UAEPAXI@Z 5f528960 f oleconn.obj
 0001:000279a0       ??0COleConnPtContainer@@QAE@XZ 5f5289a0 f oleconn.obj
 0001:000279d0       ??4COleConnPtContainer@@QAEAAV0@ABV0@@Z 5f5289d0 f oleconn.obj
 0001:00027a00       ??0IConnectionPointContainer@@QAE@XZ 5f528a00 f oleconn.obj
 0001:00027a30       ??4IConnectionPointContainer@@QAEAAU0@ABU0@@Z 5f528a30 f oleconn.obj
 0001:00027a60       ?AddRef@XOleObject@COleControl@@UAGKXZ 5f528a60 f ctlobj.obj
 0001:00027a88       ?Release@XOleObject@COleControl@@UAGKXZ 5f528a88 f ctlobj.obj
 0001:00027ab0       ?QueryInterface@XOleObject@COleControl@@UAGJABU_GUID@@PAPAX@Z 5f528ab0 f ctlobj.obj
 0001:00027ae0       ?SetClientSite@XOleObject@COleControl@@UAGJPAUIOleClientSite@@@Z 5f528ae0 f ctlobj.obj
 0001:00027dff       ?GetClientSite@XOleObject@COleControl@@UAGJPAPAUIOleClientSite@@@Z 5f528dff f ctlobj.obj
 0001:00027e93       ?SetHostNames@XOleObject@COleControl@@UAGJPBG0@Z 5f528e93 f ctlobj.obj
 0001:00027ea7       ?Close@XOleObject@COleControl@@UAGJK@Z 5f528ea7 f ctlobj.obj
 0001:00027f37       ?OnClose@COleControl@@UAEXK@Z 5f528f37 f ctlobj.obj
 0001:00027fb4       ?SetMoniker@XOleObject@COleControl@@UAGJKPAUIMoniker@@@Z 5f528fb4 f ctlobj.obj
 0001:00027fcb       ?GetMoniker@XOleObject@COleControl@@UAGJKKPAPAUIMoniker@@@Z 5f528fcb f ctlobj.obj
 0001:00027fe2       ?InitFromData@XOleObject@COleControl@@UAGJPAUIDataObject@@HK@Z 5f528fe2 f ctlobj.obj
 0001:00027ff9       ?GetClipboardData@XOleObject@COleControl@@UAGJKPAPAUIDataObject@@@Z 5f528ff9 f ctlobj.obj
 0001:00028010       ?DoVerb@XOleObject@COleControl@@UAGJJPAUtagMSG@@PAUIOleClientSite@@JPAUHWND__@@PBUtagRECT@@@Z 5f529010 f ctlobj.obj
 0001:00028377       ?OnDoVerb@COleControl@@UAEHJPAUtagMSG@@PAUHWND__@@PBUtagRECT@@@Z 5f529377 f ctlobj.obj
 0001:000283a7       ?EnumVerbs@XOleObject@COleControl@@UAGJPAPAUIEnumOLEVERB@@@Z 5f5293a7 f ctlobj.obj
 0001:0002844b       ?OnEnumVerbs@COleControl@@UAEHPAPAUIEnumOLEVERB@@@Z 5f52944b f ctlobj.obj
 0001:0002846f       ?Update@XOleObject@COleControl@@UAGJXZ 5f52946f f ctlobj.obj
 0001:00028483       ?IsUpToDate@XOleObject@COleControl@@UAGJXZ 5f529483 f ctlobj.obj
 0001:00028497       ?GetUserClassID@XOleObject@COleControl@@UAGJPAU_GUID@@@Z 5f529497 f ctlobj.obj
 0001:000284c9       ?GetUserType@XOleObject@COleControl@@UAGJKPAPAG@Z 5f5294c9 f ctlobj.obj
 0001:000285b0       ?GetUserType@COleControl@@IAEXPAG@Z 5f5295b0 f ctlobj.obj
 0001:0002868c       ?SetExtent@XOleObject@COleControl@@UAGJKPAUtagSIZE@@@Z 5f52968c f ctlobj.obj
 0001:000286eb       ?OnSetExtent@COleControl@@UAEHPAUtagSIZE@@@Z 5f5296eb f ctlobj.obj
 0001:0002886d       ?GetExtent@XOleObject@COleControl@@UAGJKPAUtagSIZE@@@Z 5f52986d f ctlobj.obj
 0001:000288c0       ?Advise@XOleObject@COleControl@@UAGJPAUIAdviseSink@@PAK@Z 5f5298c0 f ctlobj.obj
 0001:00028934       ?Unadvise@XOleObject@COleControl@@UAGJK@Z 5f529934 f ctlobj.obj
 0001:0002898a       ?EnumAdvise@XOleObject@COleControl@@UAGJPAPAUIEnumSTATDATA@@@Z 5f52998a f ctlobj.obj
 0001:000289e0       ?GetMiscStatus@XOleObject@COleControl@@UAGJKPAK@Z 5f5299e0 f ctlobj.obj
 0001:00028a64       ?SetColorScheme@XOleObject@COleControl@@UAGJPAUtagLOGPALETTE@@@Z 5f529a64 f ctlobj.obj
 0001:00028a80       ??0CPictureHolder@@QAE@XZ  5f529a80 f ctlpict.obj
 0001:00028aa2       ??1CPictureHolder@@QAE@XZ  5f529aa2 f ctlpict.obj
 0001:00028add       ?CreateEmpty@CPictureHolder@@QAEHXZ 5f529add f ctlpict.obj
 0001:00028b4e       ?CreateFromBitmap@CPictureHolder@@QAEHI@Z 5f529b4e f ctlpict.obj
 0001:00028bda       ?CreateFromBitmap@CPictureHolder@@QAEHPAVCBitmap@@PAVCPalette@@H@Z 5f529bda f ctlpict.obj
 0001:00028c4a       ?CreateFromBitmap@CPictureHolder@@QAEHPAUHBITMAP__@@PAUHPALETTE__@@H@Z 5f529c4a f ctlpict.obj
 0001:00028ccb       ?CreateFromMetafile@CPictureHolder@@QAEHPAUHMETAFILE__@@HHH@Z 5f529ccb f ctlpict.obj
 0001:00028d52       ?CreateFromIcon@CPictureHolder@@QAEHI@Z 5f529d52 f ctlpict.obj
 0001:00028d8b       ?CreateFromIcon@CPictureHolder@@QAEHPAUHICON__@@H@Z 5f529d8b f ctlpict.obj
 0001:00028e06       ?GetPictureDispatch@CPictureHolder@@QAEPAUIPictureDisp@@XZ 5f529e06 f ctlpict.obj
 0001:00028e71       ?SetPictureDispatch@CPictureHolder@@QAEXPAUIPictureDisp@@@Z 5f529e71 f ctlpict.obj
 0001:00028f0a       ?Render@CPictureHolder@@QAEXPAVCDC@@ABVCRect@@1@Z 5f529f0a f ctlpict.obj
 0001:00028fa6       ?GetType@CPictureHolder@@QAEFXZ 5f529fa6 f ctlpict.obj
 0001:00028fe6       ?GetDisplayString@CPictureHolder@@QAEHAAVCString@@@Z 5f529fe6 f ctlpict.obj
 0001:00029140       ?_AfxGetArchiveStream@@YGPAUIStream@@AAVCArchive@@AAVCArchiveStream@@@Z 5f52a140 f ctlpropx.obj
 0001:0002920c       ?_AfxInitBlob@@YGHPAPAXPAX@Z 5f52a20c f ctlpropx.obj
 0001:000292e4       ?_AfxCopyBlob@@YGHPAPAXPAX@Z 5f52a2e4 f ctlpropx.obj
 0001:00029334       ?_AfxCopyPropValue@@YGHGPAXPBX@Z 5f52a334 f ctlpropx.obj
 0001:000294c4       ?ExchangeExtent@COleControl@@QAEHPAVCPropExchange@@@Z 5f52a4c4 f ctlpropx.obj
 0001:00029589       ?SerializeVersion@COleControl@@QAEKAAVCArchive@@KH@Z 5f52a589 f ctlpropx.obj
 0001:000295fb       ?ResetVersion@COleControl@@QAEXK@Z 5f52a5fb f ctlpropx.obj
 0001:0002961c       ?SerializeExtent@COleControl@@QAEXAAVCArchive@@@Z 5f52a61c f ctlpropx.obj
 0001:000296c4       ?ExchangeVersion@CPropExchange@@UAEHAAKKH@Z 5f52a6c4 f ctlpropx.obj
 0001:00029759       ??0CArchivePropExchange@@QAE@AAVCArchive@@@Z 5f52a759 f ctlpropx.obj
 0001:000297d6       ?ExchangeProp@CArchivePropExchange@@UAEHPBGGPAXPBX@Z 5f52a7d6 f ctlpropx.obj
 0001:00029ad8       ?ExchangeBlobProp@CArchivePropExchange@@UAEHPBGPAPAXPAX@Z 5f52aad8 f ctlpropx.obj
 0001:00029cd1       ?_AfxPeekAtClassIDInStream@@YGHPAUIStream@@PAU_GUID@@@Z 5f52acd1 f ctlpropx.obj
 0001:00029d36       ?_AfxIsSameUnknownObject@@YGHABU_GUID@@PAUIUnknown@@1@Z 5f52ad36 f ctlpropx.obj
 0001:00029e6f       ?ExchangePersistentProp@CArchivePropExchange@@UAEHPBGPAPAUIUnknown@@ABU_GUID@@PAU2@@Z 5f52ae6f f ctlpropx.obj
 0001:0002a39f       ?ExchangeFontProp@CArchivePropExchange@@UAEHPBGAAVCFontHolder@@PBUtagFONTDESC@@PAUIFontDisp@@@Z 5f52b39f f ctlpropx.obj
 0001:0002a63c       ??0CResetPropExchange@@QAE@XZ 5f52b63c f ctlpropx.obj
 0001:0002a670       ?ExchangeProp@CResetPropExchange@@UAEHPBGGPAXPBX@Z 5f52b670 f ctlpropx.obj
 0001:0002a728       ?ExchangeBlobProp@CResetPropExchange@@UAEHPBGPAPAXPAX@Z 5f52b728 f ctlpropx.obj
 0001:0002a7e7       ?ExchangePersistentProp@CResetPropExchange@@UAEHPBGPAPAUIUnknown@@ABU_GUID@@PAU2@@Z 5f52b7e7 f ctlpropx.obj
 0001:0002a8ff       ?ExchangeFontProp@CResetPropExchange@@UAEHPBGAAVCFontHolder@@PBUtagFONTDESC@@PAUIFontDisp@@@Z 5f52b8ff f ctlpropx.obj
 0001:0002a9fc       ??0CAsyncPropExchange@@QAE@K@Z 5f52b9fc f ctlpropx.obj
 0001:0002aa45       ?ExchangeVersion@CAsyncPropExchange@@UAEHAAKKH@Z 5f52ba45 f ctlpropx.obj
 0001:0002aabc       ?ExchangeProp@CAsyncPropExchange@@UAEHPBGGPAXPBX@Z 5f52babc f ctlpropx.obj
 0001:0002aaee       ?ExchangeBlobProp@CAsyncPropExchange@@UAEHPBGPAPAXPAX@Z 5f52baee f ctlpropx.obj
 0001:0002ab20       ?ExchangeFontProp@CAsyncPropExchange@@UAEHPBGAAVCFontHolder@@PBUtagFONTDESC@@PAUIFontDisp@@@Z 5f52bb20 f ctlpropx.obj
 0001:0002ab52       ?ExchangePersistentProp@CAsyncPropExchange@@UAEHPBGPAPAUIUnknown@@ABU_GUID@@PAU2@@Z 5f52bb52 f ctlpropx.obj
 0001:0002ab84       ?PX_Short@@YAHPAVCPropExchange@@PBGAAF@Z 5f52bb84 f ctlpropx.obj
 0001:0002ac5e       ?PX_Short@@YAHPAVCPropExchange@@PBGAAFF@Z 5f52bc5e f ctlpropx.obj
 0001:0002ad3a       ?PX_UShort@@YAHPAVCPropExchange@@PBGAAG@Z 5f52bd3a f ctlpropx.obj
 0001:0002ae14       ?PX_UShort@@YAHPAVCPropExchange@@PBGAAGG@Z 5f52be14 f ctlpropx.obj
 0001:0002aef0       ?PX_Long@@YAHPAVCPropExchange@@PBGAAJ@Z 5f52bef0 f ctlpropx.obj
 0001:0002afca       ?PX_Long@@YAHPAVCPropExchange@@PBGAAJJ@Z 5f52bfca f ctlpropx.obj
 0001:0002b0a6       ?PX_ULong@@YAHPAVCPropExchange@@PBGAAK@Z 5f52c0a6 f ctlpropx.obj
 0001:0002b180       ?PX_ULong@@YAHPAVCPropExchange@@PBGAAKK@Z 5f52c180 f ctlpropx.obj
 0001:0002b25c       ?PX_Color@@YAHPAVCPropExchange@@PBGAAK@Z 5f52c25c f ctlpropx.obj
 0001:0002b336       ?PX_Color@@YAHPAVCPropExchange@@PBGAAKK@Z 5f52c336 f ctlpropx.obj
 0001:0002b412       ?PX_Bool@@YAHPAVCPropExchange@@PBGAAH@Z 5f52c412 f ctlpropx.obj
 0001:0002b4ec       ?PX_Bool@@YAHPAVCPropExchange@@PBGAAHH@Z 5f52c4ec f ctlpropx.obj
 0001:0002b5c8       ?PX_String@@YAHPAVCPropExchange@@PBGAAVCString@@@Z 5f52c5c8 f ctlpropx.obj
 0001:0002b6a2       ?PX_String@@YAHPAVCPropExchange@@PBGAAVCString@@ABV2@@Z 5f52c6a2 f ctlpropx.obj
 0001:0002b77e       ?PX_String@@YAHPAVCPropExchange@@PBGAAVCString@@1@Z 5f52c77e f ctlpropx.obj
 0001:0002b85a       ?PX_Currency@@YAHPAVCPropExchange@@PBGAATtagCY@@@Z 5f52c85a f ctlpropx.obj
 0001:0002b934       ?PX_Currency@@YAHPAVCPropExchange@@PBGAATtagCY@@T2@@Z 5f52c934 f ctlpropx.obj
 0001:0002ba10       ?PX_Float@@YAHPAVCPropExchange@@PBGAAM@Z 5f52ca10 f ctlpropx.obj
 0001:0002baea       ?PX_Float@@YAHPAVCPropExchange@@PBGAAMM@Z 5f52caea f ctlpropx.obj
 0001:0002bbc6       ?PX_Double@@YAHPAVCPropExchange@@PBGAAN@Z 5f52cbc6 f ctlpropx.obj
 0001:0002bca0       ?PX_Double@@YAHPAVCPropExchange@@PBGAANN@Z 5f52cca0 f ctlpropx.obj
 0001:0002bd7c       ?PX_Blob@@YAHPAVCPropExchange@@PBGAAPAXPAX@Z 5f52cd7c f ctlpropx.obj
 0001:0002be56       ?PX_Font@@YAHPAVCPropExchange@@PBGAAVCFontHolder@@PBUtagFONTDESC@@PAUIFontDisp@@@Z 5f52ce56 f ctlpropx.obj
 0001:0002bfa2       ?PX_IUnknown@@YAHPAVCPropExchange@@PBGAAPAUIUnknown@@ABU_GUID@@PAU2@@Z 5f52cfa2 f ctlpropx.obj
 0001:0002c0f2       ?PX_Picture@@YAHPAVCPropExchange@@PBGAAVCPictureHolder@@@Z 5f52d0f2 f ctlpropx.obj
 0001:0002c1d9       ?PX_Picture@@YAHPAVCPropExchange@@PBGAAVCPictureHolder@@2@Z 5f52d1d9 f ctlpropx.obj
 0001:0002c2c4       ?PX_VBXFontConvert@@YAHPAVCPropExchange@@AAVCFontHolder@@@Z 5f52d2c4 f ctlpropx.obj
 0001:0002c513       ?PX_DataPath@@YAHPAVCPropExchange@@PBGAAVCDataPathProperty@@1@Z 5f52d513 f ctlpropx.obj
 0001:0002c7c5       ?PX_DataPath@@YAHPAVCPropExchange@@PBGAAVCDataPathProperty@@ABVCString@@@Z 5f52d7c5 f ctlpropx.obj
 0001:0002c800       ?_GetBaseInterfaceMap@COlePropertyPage@@KGPBUAFX_INTERFACEMAP@@XZ 5f52d800 f ctlppg.obj
 0001:0002c815       ?GetInterfaceMap@COlePropertyPage@@MBEPBUAFX_INTERFACEMAP@@XZ 5f52d815 f ctlppg.obj
 0001:0002c830       ?_GetBaseMessageMap@COlePropertyPage@@KGPBUAFX_MSGMAP@@XZ 5f52d830 f ctlppg.obj
 0001:0002c845       ?GetMessageMap@COlePropertyPage@@MBEPBUAFX_MSGMAP@@XZ 5f52d845 f ctlppg.obj
 0001:0002c860       ??0AFX_DDPDATA@@QAE@PAXHH0IPBG@Z 5f52d860 f ctlppg.obj
 0001:0002c907       ?_ValidatePageDialog@@YAXAAVCDialogTemplate@@AAVCString@@PAVCOlePropertyPage@@@Z 5f52d907 f ctlppg.obj
 0001:0002cbc0       ??0COlePropertyPage@@QAE@II@Z 5f52dbc0 f ctlppg.obj
 0001:0002cdab       ?OnSetPageSite@COlePropertyPage@@UAEXXZ 5f52ddab f ctlppg.obj
 0001:0002cfd2       ?OnInitDialog@COlePropertyPage@@UAEHXZ 5f52dfd2 f ctlppg.obj
 0001:0002cff2       ?PreTranslateMessage@COlePropertyPage@@MAEHPAUtagMSG@@@Z 5f52dff2 f ctlppg.obj
 0001:0002d156       ?CleanupObjectArray@COlePropertyPage@@IAEXXZ 5f52e156 f ctlppg.obj
 0001:0002d2b0       ??1COlePropertyPage@@UAE@XZ 5f52e2b0 f ctlppg.obj
 0001:0002d4f0       ?OnFinalRelease@COlePropertyPage@@MAEXXZ 5f52e4f0 f ctlppg.obj
 0001:0002d546       ?WindowProc@COlePropertyPage@@MAEJIIJ@Z 5f52e546 f ctlppg.obj
 0001:0002d62a       ?OnCtlColor@COlePropertyPage@@IAEPAUHBRUSH__@@PAVCDC@@PAVCWnd@@I@Z 5f52e62a f ctlppg.obj
 0001:0002d6b0       ?OnHelp@COlePropertyPage@@UAEHPBG@Z 5f52e6b0 f ctlppg.obj
 0001:0002d6ca       ?OnEditProperty@COlePropertyPage@@UAEHJ@Z 5f52e6ca f ctlppg.obj
 0001:0002d6e4       ?OnObjectsChanged@COlePropertyPage@@UAEXXZ 5f52e6e4 f ctlppg.obj
 0001:0002d6fa       ?GetObjectArray@COlePropertyPage@@QAEPAPAUIDispatch@@PAK@Z 5f52e6fa f ctlppg.obj
 0001:0002d76a       ?SetModifiedFlag@COlePropertyPage@@QAEXH@Z 5f52e76a f ctlppg.obj
 0001:0002d811       ?IsModified@COlePropertyPage@@QAEHXZ 5f52e811 f ctlppg.obj
 0001:0002d82d       ?SetPageName@COlePropertyPage@@QAEXPBG@Z 5f52e82d f ctlppg.obj
 0001:0002d882       ?SetDialogResource@COlePropertyPage@@QAEXPAX@Z 5f52e882 f ctlppg.obj
 0001:0002d952       ?SetHelpInfo@COlePropertyPage@@QAEXPBG0K@Z 5f52e952 f ctlppg.obj
 0001:0002da04       ?GetPageSite@COlePropertyPage@@QAEPAUIPropertyPageSite@@XZ 5f52ea04 f ctlppg.obj
 0001:0002da23       ?MessageBoxW@COlePropertyPage@@QAEHPBG0I@Z 5f52ea23 f ctlppg.obj
 0001:0002da74       ?AddRef@XPropertyPage@COlePropertyPage@@UAGKXZ 5f52ea74 f ctlppg.obj
 0001:0002da9c       ?Release@XPropertyPage@COlePropertyPage@@UAGKXZ 5f52ea9c f ctlppg.obj
 0001:0002dac4       ?QueryInterface@XPropertyPage@COlePropertyPage@@UAGJABU_GUID@@PAPAX@Z 5f52eac4 f ctlppg.obj
 0001:0002daf4       ?SetPageSite@XPropertyPage@COlePropertyPage@@UAGJPAUIPropertyPageSite@@@Z 5f52eaf4 f ctlppg.obj
 0001:0002dbee       ?Activate@XPropertyPage@COlePropertyPage@@UAGJPAUHWND__@@PBUtagRECT@@H@Z 5f52ebee f ctlppg.obj
 0001:0002de72       ?EnumChildProc@COlePropertyPage@@KGHPAUHWND__@@J@Z 5f52ee72 f ctlppg.obj
 0001:0002ded5       ?EnumControls@COlePropertyPage@@KGHPAUHWND__@@J@Z 5f52eed5 f ctlppg.obj
 0001:0002df99       ?Deactivate@XPropertyPage@COlePropertyPage@@UAGJXZ 5f52ef99 f ctlppg.obj
 0001:0002e022       ?GetPageInfo@XPropertyPage@COlePropertyPage@@UAGJPAUtagPROPPAGEINFO@@@Z 5f52f022 f ctlppg.obj
 0001:0002e0f0       ?SetObjects@XPropertyPage@COlePropertyPage@@UAGJKPAPAUIUnknown@@@Z 5f52f0f0 f ctlppg.obj
 0001:0002e34e       ?Show@XPropertyPage@COlePropertyPage@@UAGJI@Z 5f52f34e f ctlppg.obj
 0001:0002e38e       ?Move@XPropertyPage@COlePropertyPage@@UAGJPBUtagRECT@@@Z 5f52f38e f ctlppg.obj
 0001:0002e3f5       ?IsPageDirty@XPropertyPage@COlePropertyPage@@UAGJXZ 5f52f3f5 f ctlppg.obj
 0001:0002e42e       ?Apply@XPropertyPage@COlePropertyPage@@UAGJXZ 5f52f42e f ctlppg.obj
 0001:0002e578       ?Help@XPropertyPage@COlePropertyPage@@UAGJPBG@Z 5f52f578 f ctlppg.obj
 0001:0002e699       ?_AfxAtEndOfTabList@@YGHPAVCDialog@@I@Z 5f52f699 f ctlppg.obj
 0001:0002e754       ?TranslateAcceleratorW@XPropertyPage@COlePropertyPage@@UAGJPAUtagMSG@@@Z 5f52f754 f ctlppg.obj
 0001:0002ea10       ?EditProperty@XPropertyPage@COlePropertyPage@@UAGJJ@Z 5f52fa10 f ctlppg.obj
 0001:0002eac7       ?AddRef@XPropNotifySink@COlePropertyPage@@UAGKXZ 5f52fac7 f ctlppg.obj
 0001:0002eade       ?Release@XPropNotifySink@COlePropertyPage@@UAGKXZ 5f52fade f ctlppg.obj
 0001:0002eaf2       ?QueryInterface@XPropNotifySink@COlePropertyPage@@UAGJABU_GUID@@PAPAX@Z 5f52faf2 f ctlppg.obj
 0001:0002eb58       ?OnRequestEdit@XPropNotifySink@COlePropertyPage@@UAGJJ@Z 5f52fb58 f ctlppg.obj
 0001:0002eb6c       ?OnChanged@XPropNotifySink@COlePropertyPage@@UAGJJ@Z 5f52fb6c f ctlppg.obj
 0001:0002ec30       ?_AfxIsRadioButton@@YGHPAUHWND__@@@Z 5f52fc30 f ctlppg.obj
 0001:0002ec77       ?OnCommand@COlePropertyPage@@MAEHIJ@Z 5f52fc77 f ctlppg.obj
 0001:0002efc8       ?IgnoreApply@COlePropertyPage@@QAEXI@Z 5f52ffc8 f ctlppg.obj
 0001:0002eff2       ?GetControlStatus@COlePropertyPage@@QAEHI@Z 5f52fff2 f ctlppg.obj
 0001:0002f062       ?SetControlStatus@COlePropertyPage@@QAEHIH@Z 5f530062 f ctlppg.obj
 0001:0002f0d7       ?SetPropText@COlePropertyPage@@QAEHPBGAAE@Z 5f5300d7 f ctlppg.obj
 0001:0002f208       ?GetPropText@COlePropertyPage@@QAEHPBGPAE@Z 5f530208 f ctlppg.obj
 0001:0002f361       ?SetPropText@COlePropertyPage@@QAEHPBGAAF@Z 5f530361 f ctlppg.obj
 0001:0002f491       ?GetPropText@COlePropertyPage@@QAEHPBGPAF@Z 5f530491 f ctlppg.obj
 0001:0002f5ec       ?SetPropText@COlePropertyPage@@QAEHPBGAAH@Z 5f5305ec f ctlppg.obj
 0001:0002f71b       ?GetPropText@COlePropertyPage@@QAEHPBGPAH@Z 5f53071b f ctlppg.obj
 0001:0002f86e       ?SetPropText@COlePropertyPage@@QAEHPBGAAI@Z 5f53086e f ctlppg.obj
 0001:0002f99d       ?GetPropText@COlePropertyPage@@QAEHPBGPAI@Z 5f53099d f ctlppg.obj
 0001:0002faf0       ?SetPropText@COlePropertyPage@@QAEHPBGAAJ@Z 5f530af0 f ctlppg.obj
 0001:0002fc1f       ?GetPropText@COlePropertyPage@@QAEHPBGPAJ@Z 5f530c1f f ctlppg.obj
 0001:0002fd72       ?SetPropText@COlePropertyPage@@QAEHPBGAAK@Z 5f530d72 f ctlppg.obj
 0001:0002fea1       ?GetPropText@COlePropertyPage@@QAEHPBGPAK@Z 5f530ea1 f ctlppg.obj
 0001:0002fff4       ?SetPropText@COlePropertyPage@@QAEHPBGAAM@Z 5f530ff4 f ctlppg.obj
 0001:00030128       ?GetPropText@COlePropertyPage@@QAEHPBGPAM@Z 5f531128 f ctlppg.obj
 0001:00030281       ?SetPropText@COlePropertyPage@@QAEHPBGAAN@Z 5f531281 f ctlppg.obj
 0001:000303b4       ?GetPropText@COlePropertyPage@@QAEHPBGPAN@Z 5f5313b4 f ctlppg.obj
 0001:0003051c       ?SetPropText@COlePropertyPage@@QAEHPBGAAVCString@@@Z 5f53151c f ctlppg.obj
 0001:0003064e       ?GetPropText@COlePropertyPage@@QAEHPBGPAVCString@@@Z 5f53164e f ctlppg.obj
 0001:0003081b       ?SetPropCheck@COlePropertyPage@@QAEHPBGH@Z 5f53181b f ctlppg.obj
 0001:00030965       ?GetPropCheck@COlePropertyPage@@QAEHPBGPAH@Z 5f531965 f ctlppg.obj
 0001:00030adb       ?SetPropRadio@COlePropertyPage@@QAEHPBGH@Z 5f531adb f ctlppg.obj
 0001:00030c10       ?GetPropRadio@COlePropertyPage@@QAEHPBGPAH@Z 5f531c10 f ctlppg.obj
 0001:00030d64       ?SetPropIndex@COlePropertyPage@@QAEHPBGH@Z 5f531d64 f ctlppg.obj
 0001:00030d8c       ?GetPropIndex@COlePropertyPage@@QAEHPBGPAH@Z 5f531d8c f ctlppg.obj
 0001:00030db4       ?DDP_EndText@@YGXPAVCDataExchange@@HPAEPBG@Z 5f531db4 f ctlppg.obj
 0001:00030dfc       ?DDP_Text@@YGXPAVCDataExchange@@HAAEPBG@Z 5f531dfc f ctlppg.obj
 0001:00030ef5       ?DDP_EndText@@YGXPAVCDataExchange@@HPAFPBG@Z 5f531ef5 f ctlppg.obj
 0001:00030f3d       ?DDP_Text@@YGXPAVCDataExchange@@HAAFPBG@Z 5f531f3d f ctlppg.obj
 0001:00031036       ?DDP_EndText@@YGXPAVCDataExchange@@HPAHPBG@Z 5f532036 f ctlppg.obj
 0001:0003107e       ?DDP_Text@@YGXPAVCDataExchange@@HAAHPBG@Z 5f53207e f ctlppg.obj
 0001:00031177       ?DDP_EndText@@YGXPAVCDataExchange@@HPAIPBG@Z 5f532177 f ctlppg.obj
 0001:000311bf       ?DDP_Text@@YGXPAVCDataExchange@@HAAIPBG@Z 5f5321bf f ctlppg.obj
 0001:000312b8       ?DDP_EndText@@YGXPAVCDataExchange@@HPAJPBG@Z 5f5322b8 f ctlppg.obj
 0001:00031300       ?DDP_Text@@YGXPAVCDataExchange@@HAAJPBG@Z 5f532300 f ctlppg.obj
 0001:000313f9       ?DDP_EndText@@YGXPAVCDataExchange@@HPAKPBG@Z 5f5323f9 f ctlppg.obj
 0001:00031441       ?DDP_Text@@YGXPAVCDataExchange@@HAAKPBG@Z 5f532441 f ctlppg.obj
 0001:0003153a       ?DDP_EndText@@YGXPAVCDataExchange@@HPAMPBG@Z 5f53253a f ctlppg.obj
 0001:00031582       ?DDP_Text@@YGXPAVCDataExchange@@HAAMPBG@Z 5f532582 f ctlppg.obj
 0001:0003167b       ?DDP_EndText@@YGXPAVCDataExchange@@HPANPBG@Z 5f53267b f ctlppg.obj
 0001:000316c3       ?DDP_Text@@YGXPAVCDataExchange@@HAANPBG@Z 5f5326c3 f ctlppg.obj
 0001:000317bc       ?DDP_EndText@@YGXPAVCDataExchange@@HPAVCString@@PBG@Z 5f5327bc f ctlppg.obj
 0001:00031804       ?DDP_Text@@YGXPAVCDataExchange@@HAAVCString@@PBG@Z 5f532804 f ctlppg.obj
 0001:000318fd       ?DDP_EndCheck@@YGXPAVCDataExchange@@HPAHPBG@Z 5f5328fd f ctlppg.obj
 0001:00031947       ?DDP_Check@@YGXPAVCDataExchange@@HAAHPBG@Z 5f532947 f ctlppg.obj
 0001:00031a40       ?DDP_EndRadio@@YGXPAVCDataExchange@@HPAHPBG@Z 5f532a40 f ctlppg.obj
 0001:00031a8a       ?DDP_Radio@@YGXPAVCDataExchange@@HAAHPBG@Z 5f532a8a f ctlppg.obj
 0001:00031b83       ?DDP_PostProcessing@@YGXPAVCDataExchange@@@Z 5f532b83 f ctlppg.obj
 0001:00031ef0       ??_EAFX_DDPDATA@@UAEPAXI@Z 5f532ef0 f ctlppg.obj
 0001:00031ef0       ??_GAFX_DDPDATA@@UAEPAXI@Z 5f532ef0 f ctlppg.obj
 0001:00031f30       ??1AFX_DDPDATA@@UAE@XZ     5f532f30 f ctlppg.obj
 0001:00031f90       ??_GCOlePropertyPage@@UAEPAXI@Z 5f532f90 f ctlppg.obj
 0001:00031f90       ??_ECOlePropertyPage@@UAEPAXI@Z 5f532f90 f ctlppg.obj
 0001:00031fd0       ??0XPropertyPage@COlePropertyPage@@QAE@XZ 5f532fd0 f ctlppg.obj
 0001:00032000       ??0XPropNotifySink@COlePropertyPage@@QAE@XZ 5f533000 f ctlppg.obj
 0001:00032030       ??0IPropertyPage2@@QAE@XZ  5f533030 f ctlppg.obj
 0001:00032060       ??0IPropertyPage@@QAE@XZ   5f533060 f ctlppg.obj
 0001:00032090       ?InitStockPropMask@COleControl@@IAEXXZ 5f533090 f ctlprop.obj
 0001:00032191       ?ExchangeStockProps@COleControl@@QAEXPAVCPropExchange@@@Z 5f533191 f ctlprop.obj
 0001:00032693       ?SerializeStockProps@COleControl@@QAEXAAVCArchive@@@Z 5f533693 f ctlprop.obj
 0001:00032caa       ?ResetStockProps@COleControl@@QAEXXZ 5f533caa f ctlprop.obj
 0001:00032e32       ?GetAppearance@COleControl@@QAEFXZ 5f533e32 f ctlprop.obj
 0001:00032e52       ?SetAppearance@COleControl@@QAEXF@Z 5f533e52 f ctlprop.obj
 0001:00032f69       ?OnAppearanceChanged@COleControl@@UAEXXZ 5f533f69 f ctlprop.obj
 0001:00032f8b       ?GetBackColor@COleControl@@QAEKXZ 5f533f8b f ctlprop.obj
 0001:00032faa       ?SetBackColor@COleControl@@QAEXK@Z 5f533faa f ctlprop.obj
 0001:0003305b       ?OnBackColorChanged@COleControl@@UAEXXZ 5f53405b f ctlprop.obj
 0001:0003307d       ?GetBorderStyle@COleControl@@QAEFXZ 5f53407d f ctlprop.obj
 0001:0003309d       ?SetBorderStyle@COleControl@@QAEXF@Z 5f53409d f ctlprop.obj
 0001:000331b9       ?OnBorderStyleChanged@COleControl@@UAEXXZ 5f5341b9 f ctlprop.obj
 0001:000331db       ?InternalGetText@COleControl@@QAEABVCString@@XZ 5f5341db f ctlprop.obj
 0001:00033297       ?GetText@COleControl@@QAEPAGXZ 5f534297 f ctlprop.obj
 0001:000332bc       ?SetText@COleControl@@QAEXPBG@Z 5f5342bc f ctlprop.obj
 0001:0003331c       ?OnSetText@COleControl@@IAEJIJ@Z 5f53431c f ctlprop.obj
 0001:000334a7       ?OnTextChanged@COleControl@@UAEXXZ 5f5344a7 f ctlprop.obj
 0001:000334c9       ?GetEnabled@COleControl@@QAEHXZ 5f5344c9 f ctlprop.obj
 0001:000334e8       ?SetEnabled@COleControl@@QAEXH@Z 5f5344e8 f ctlprop.obj
 0001:000335c7       ?OnEnabledChanged@COleControl@@UAEXXZ 5f5345c7 f ctlprop.obj
 0001:000335e9       ?InternalGetFont@COleControl@@QAEAAVCFontHolder@@XZ 5f5345e9 f ctlprop.obj
 0001:00033607       ?GetFont@COleControl@@QAEPAUIFontDisp@@XZ 5f534607 f ctlprop.obj
 0001:0003362b       ?SetFont@COleControl@@QAEXPAUIFontDisp@@@Z 5f53462b f ctlprop.obj
 0001:000336be       ?OnFontChanged@COleControl@@UAEXXZ 5f5346be f ctlprop.obj
 0001:000337e4       ?GetForeColor@COleControl@@QAEKXZ 5f5347e4 f ctlprop.obj
 0001:00033803       ?SetForeColor@COleControl@@QAEXK@Z 5f534803 f ctlprop.obj
 0001:000338b4       ?OnForeColorChanged@COleControl@@UAEXXZ 5f5348b4 f ctlprop.obj
 0001:000338d6       ?GetHwnd@COleControl@@QAEIXZ 5f5348d6 f ctlprop.obj
 0001:00033921       ?GetReadyState@COleControl@@QAEJXZ 5f534921 f ctlprop.obj
 0001:00033940       ?AddRef@XFontNotification@COleControl@@UAGKXZ 5f534940 f ctlprop.obj
 0001:00033957       ?Release@XFontNotification@COleControl@@UAGKXZ 5f534957 f ctlprop.obj
 0001:0003396b       ?QueryInterface@XFontNotification@COleControl@@UAGJABU_GUID@@PAPAX@Z 5f53496b f ctlprop.obj
 0001:000339e5       ?OnChanged@XFontNotification@COleControl@@UAGJJ@Z 5f5349e5 f ctlprop.obj
 0001:00033a93       ?OnRequestEdit@XFontNotification@COleControl@@UAGJJ@Z 5f534a93 f ctlprop.obj
 0001:00033aa7       ?SelectStockFont@COleControl@@QAEPAVCFont@@PAVCDC@@@Z 5f534aa7 f ctlprop.obj
 0001:00033ad4       ?SelectFontObject@COleControl@@QAEPAVCFont@@PAVCDC@@AAVCFontHolder@@@Z 5f534ad4 f ctlprop.obj
 0001:00033b0e       ?GetStockTextMetrics@COleControl@@QAEXPAUtagTEXTMETRICW@@@Z 5f534b0e f ctlprop.obj
 0001:00033b38       ?GetFontTextMetrics@COleControl@@QAEXPAUtagTEXTMETRICW@@AAVCFontHolder@@@Z 5f534b38 f ctlprop.obj
 0001:00033b5c       ?_GetI4Property@@YGHPAUIDispatch@@JPAK@Z 5f534b5c f ctlprop.obj
 0001:00033c6d       ?GetAmbientDispatchDriver@COleControl@@IAEPAVCOleDispatchDriver@@XZ 5f534c6d f ctlprop.obj
 0001:00033d08       ?GetAmbientProperty@COleControl@@QAEHJGPAX@Z 5f534d08 f ctlprop.obj
 0001:00033fd5       ?AmbientAppearance@COleControl@@QAEFXZ 5f534fd5 f ctlprop.obj
 0001:00034011       ?AmbientBackColor@COleControl@@QAEKXZ 5f535011 f ctlprop.obj
 0001:00034050       ?AmbientDisplayName@COleControl@@QAE?AVCString@@XZ 5f535050 f ctlprop.obj
 0001:000340f2       ?AmbientFont@COleControl@@QAEPAUIFontDisp@@XZ 5f5350f2 f ctlprop.obj
 0001:0003412d       ?AmbientForeColor@COleControl@@QAEKXZ 5f53512d f ctlprop.obj
 0001:0003416c       ?AmbientLocaleID@COleControl@@QAEKXZ 5f53516c f ctlprop.obj
 0001:000341a7       ?AmbientScaleUnits@COleControl@@QAE?AVCString@@XZ 5f5351a7 f ctlprop.obj
 0001:00034249       ?AmbientTextAlign@COleControl@@QAEFXZ 5f535249 f ctlprop.obj
 0001:00034284       ?AmbientUserMode@COleControl@@QAEHXZ 5f535284 f ctlprop.obj
 0001:000342bf       ?AmbientUIDead@COleControl@@QAEHXZ 5f5352bf f ctlprop.obj
 0001:000342fa       ?AmbientShowGrabHandles@COleControl@@QAEHXZ 5f5352fa f ctlprop.obj
 0001:00034335       ?AmbientShowHatching@COleControl@@QAEHXZ 5f535335 f ctlprop.obj
 0001:00034370       ?BoundPropertyChanged@COleControl@@QAEXJ@Z 5f535370 f ctlprop.obj
 0001:000343ef       ?BoundPropertyRequestEdit@COleControl@@QAEHJ@Z 5f5353ef f ctlprop.obj
 0001:00034482       ?SetNotPermitted@COleControl@@QAEXXZ 5f535482 f ctlprop.obj
 0001:000344ac       ?SetNotSupported@COleControl@@QAEXXZ 5f5354ac f ctlprop.obj
 0001:000344d6       ?GetNotSupported@COleControl@@QAEXXZ 5f5354d6 f ctlprop.obj
 0001:00034500       ?AddRef@XPerPropertyBrowsing@COleControl@@UAGKXZ 5f535500 f ctlprop.obj
 0001:00034528       ?Release@XPerPropertyBrowsing@COleControl@@UAGKXZ 5f535528 f ctlprop.obj
 0001:00034550       ?QueryInterface@XPerPropertyBrowsing@COleControl@@UAGJABU_GUID@@PAPAX@Z 5f535550 f ctlprop.obj
 0001:00034580       ?GetDisplayString@XPerPropertyBrowsing@COleControl@@UAGJJPAPAG@Z 5f535580 f ctlprop.obj
 0001:000346b1       ?OnGetDisplayString@COleControl@@UAEHJAAVCString@@@Z 5f5356b1 f ctlprop.obj
 0001:000347b1       ?MapPropertyToPage@XPerPropertyBrowsing@COleControl@@UAGJJPAU_GUID@@@Z 5f5357b1 f ctlprop.obj
 0001:0003491c       ?OnMapPropertyToPage@COleControl@@UAEHJPAU_GUID@@PAH@Z 5f53591c f ctlprop.obj
 0001:000349d4       ?GetPredefinedStrings@XPerPropertyBrowsing@COleControl@@UAGJJPAUtagCALPOLESTR@@PAUtagCADWORD@@@Z 5f5359d4 f ctlprop.obj
 0001:00034d52       ?OnGetPredefinedStrings@COleControl@@UAEHJPAVCStringArray@@PAVCDWordArray@@@Z 5f535d52 f ctlprop.obj
 0001:00034e9d       ?GetPredefinedValue@XPerPropertyBrowsing@COleControl@@UAGJJKPAUtagVARIANT@@@Z 5f535e9d f ctlprop.obj
 0001:00034f80       ?OnGetPredefinedValue@COleControl@@UAEHJKPAUtagVARIANT@@@Z 5f535f80 f ctlprop.obj
 0001:00034ffa       ?Load@COleControl@@QAEXPBGAAVCDataPathProperty@@@Z 5f535ffa f ctlprop.obj
 0001:0003502f       ?Open@CDataPathProperty@@UAEHPAVCFileException@@@Z 5f53602f f ctlprop.obj
 0001:0003508d       ?Open@CDataPathProperty@@UAEHPBGPAVCFileException@@@Z 5f53608d f ctlprop.obj
 0001:000350c3       ?Open@CDataPathProperty@@UAEHPAVCOleControl@@PAVCFileException@@@Z 5f5360c3 f ctlprop.obj
 0001:000350f9       ?Open@CDataPathProperty@@UAEHPBGPAVCOleControl@@PAVCFileException@@@Z 5f5360f9 f ctlprop.obj
 0001:0003513b       ?ResetData@CDataPathProperty@@UAEXXZ 5f53613b f ctlprop.obj
 0001:00035151       ?AssertValid@CDataPathProperty@@UBEXXZ 5f536151 f ctlprop.obj
 0001:0003516f       ?Dump@CDataPathProperty@@UBEXAAVCDumpContext@@@Z 5f53616f f ctlprop.obj
 0001:000351d5       ?OnDataAvailable@CCachedDataPathProperty@@UAEXKK@Z 5f5361d5 f ctlprop.obj
 0001:0003538a       ?Close@CCachedDataPathProperty@@UAEXXZ 5f53638a f ctlprop.obj
 0001:000353b9       ?ResetData@CCachedDataPathProperty@@UAEXXZ 5f5363b9 f ctlprop.obj
 0001:000353e0       ?AssertValid@CCachedDataPathProperty@@UBEXXZ 5f5363e0 f ctlprop.obj
 0001:0003540d       ?Dump@CCachedDataPathProperty@@UBEXAAVCDumpContext@@@Z 5f53640d f ctlprop.obj
 0001:00035450       ?_AfxCopyString@@YGPAGPBG@Z 5f536450 f ctlprop.obj
 0001:000354c0       ??B?$CThreadLocal@V_AFXCTL_AMBIENT_CACHE@@@@QAEPAV_AFXCTL_AMBIENT_CACHE@@XZ 5f5364c0 f ctlprop.obj
 0001:000354e0       ?_AfxCreateMemoryStream@@YGPAUIStream@@XZ 5f5364e0 f ctlpset.obj
 0001:000355a4       ?GetPropsetData@COleControl@@IAEHPAUtagFORMATETC@@PAUtagSTGMEDIUM@@ABU_GUID@@@Z 5f5365a4 f ctlpset.obj
 0001:00035c00       ?SetPropsetData@COleControl@@IAEHPAUtagFORMATETC@@PAUtagSTGMEDIUM@@ABU_GUID@@@Z 5f536c00 f ctlpset.obj
 0001:0003600a       ??0CPropsetPropExchange@@QAE@AAVCPropertySection@@PAUIStorage@@H@Z 5f53700a f ctlpset.obj
 0001:000360c9       ?_AfxCoerceNumber@@YGHPAXG0G@Z 5f5370c9 f ctlpset.obj
 0001:00036245       ?_AfxIsSamePropValue@@YGHGPBX0@Z 5f537245 f ctlpset.obj
 0001:00036392       ?ExchangeProp@CPropsetPropExchange@@UAEHPBGGPAXPBX@Z 5f537392 f ctlpset.obj
 0001:00036827       ?ExchangeBlobProp@CPropsetPropExchange@@UAEHPBGPAPAXPAX@Z 5f537827 f ctlpset.obj
 0001:00036a4c       ?_AfxSaveStreamDataAsBlobProp@@YGHPAUIStream@@AAVCPropertySection@@KK@Z 5f537a4c f ctlpset.obj
 0001:00036b6c       ?_AfxInitStreamDataFromBlobProp@@YGHPAUIStream@@PAVCProperty@@@Z 5f537b6c f ctlpset.obj
 0001:00036bfb       ?_AfxCreateFontFromStream@@YGPAUIFont@@PAUIStream@@@Z 5f537bfb f ctlpset.obj
 0001:00036dde       ?_AfxLoadObjectFromStreamedPropset@@YGHPAUIUnknown@@PAUIStream@@@Z 5f537dde f ctlpset.obj
 0001:00036f3b       ?_AfxGetClassIDFromStreamedPropset@@YGHPAU_GUID@@PAUIStream@@@Z 5f537f3b f ctlpset.obj
 0001:00036fea       ?_AfxCreateObjectFromStreamedPropset@@YGPAUIUnknown@@PAUIStream@@ABU_GUID@@@Z 5f537fea f ctlpset.obj
 0001:00037135       ?_AfxLoadStreamFromPropset@@YGPAUIStream@@AAVCPropertySection@@PBGAAK@Z 5f538135 f ctlpset.obj
 0001:0003721f       ?_AfxSaveObjectInPropset@@YGHPAUIUnknown@@AAVCPropertySection@@K@Z 5f53821f f ctlpset.obj
 0001:00037431       ?ExchangePersistentProp@CPropsetPropExchange@@UAEHPBGPAPAUIUnknown@@ABU_GUID@@PAU2@@Z 5f538431 f ctlpset.obj
 0001:0003772f       ?ExchangeFontProp@CPropsetPropExchange@@UAEHPBGAAVCFontHolder@@PBUtagFONTDESC@@PAUIFontDisp@@@Z 5f53872f f ctlpset.obj
 0001:00037980       ?AddRef@XPersistStorage@COleControl@@UAGKXZ 5f538980 f ctlpstg.obj
 0001:000379a8       ?Release@XPersistStorage@COleControl@@UAGKXZ 5f5389a8 f ctlpstg.obj
 0001:000379d0       ?QueryInterface@XPersistStorage@COleControl@@UAGJABU_GUID@@PAPAX@Z 5f5389d0 f ctlpstg.obj
 0001:00037a00       ?GetClassID@XPersistStorage@COleControl@@UAGJPAU_GUID@@@Z 5f538a00 f ctlpstg.obj
 0001:00037a32       ?IsDirty@XPersistStorage@COleControl@@UAGJXZ 5f538a32 f ctlpstg.obj
 0001:00037ad5       ?InitNew@XPersistStorage@COleControl@@UAGJPAUIStorage@@@Z 5f538ad5 f ctlpstg.obj
 0001:00037be2       ?Load@XPersistStorage@COleControl@@UAGJPAUIStorage@@@Z 5f538be2 f ctlpstg.obj
 0001:00037dd5       ?Save@XPersistStorage@COleControl@@UAGJPAUIStorage@@H@Z 5f538dd5 f ctlpstg.obj
 0001:00037f81       ?SaveCompleted@XPersistStorage@COleControl@@UAGJPAUIStorage@@@Z 5f538f81 f ctlpstg.obj
 0001:00037ff7       ?HandsOffStorage@XPersistStorage@COleControl@@UAGJXZ 5f538ff7 f ctlpstg.obj
 0001:00038060       ?AddRef@XPersistStreamInit@COleControl@@UAGKXZ 5f539060 f ctlpstm.obj
 0001:00038088       ?Release@XPersistStreamInit@COleControl@@UAGKXZ 5f539088 f ctlpstm.obj
 0001:000380b0       ?QueryInterface@XPersistStreamInit@COleControl@@UAGJABU_GUID@@PAPAX@Z 5f5390b0 f ctlpstm.obj
 0001:000380e0       ?GetClassID@XPersistStreamInit@COleControl@@UAGJPAU_GUID@@@Z 5f5390e0 f ctlpstm.obj
 0001:00038112       ?IsDirty@XPersistStreamInit@COleControl@@UAGJXZ 5f539112 f ctlpstm.obj
 0001:00038152       ?Load@XPersistStreamInit@COleControl@@UAGJPAUIStream@@@Z 5f539152 f ctlpstm.obj
 0001:000381d8       ?Save@XPersistStreamInit@COleControl@@UAGJPAUIStream@@H@Z 5f5391d8 f ctlpstm.obj
 0001:00038278       ?GetSizeMax@XPersistStreamInit@COleControl@@UAGJPAT_ULARGE_INTEGER@@@Z 5f539278 f ctlpstm.obj
 0001:0003828f       ?InitNew@XPersistStreamInit@COleControl@@UAGJXZ 5f53928f f ctlpstm.obj
 0001:0003835a       ?AddRef@XPersistMemory@COleControl@@UAGKXZ 5f53935a f ctlpstm.obj
 0001:00038382       ?Release@XPersistMemory@COleControl@@UAGKXZ 5f539382 f ctlpstm.obj
 0001:000383aa       ?QueryInterface@XPersistMemory@COleControl@@UAGJABU_GUID@@PAPAX@Z 5f5393aa f ctlpstm.obj
 0001:000383da       ?GetClassID@XPersistMemory@COleControl@@UAGJPAU_GUID@@@Z 5f5393da f ctlpstm.obj
 0001:0003840c       ?IsDirty@XPersistMemory@COleControl@@UAGJXZ 5f53940c f ctlpstm.obj
 0001:0003844c       ?Load@XPersistMemory@COleControl@@UAGJPAXK@Z 5f53944c f ctlpstm.obj
 0001:00038611       ?Save@XPersistMemory@COleControl@@UAGJPAXHK@Z 5f539611 f ctlpstm.obj
 0001:00038628       ?GetSizeMax@XPersistMemory@COleControl@@UAGJPAK@Z 5f539628 f ctlpstm.obj
 0001:0003863f       ?InitNew@XPersistMemory@COleControl@@UAGJXZ 5f53963f f ctlpstm.obj
 0001:00038710       ?Create@CReflectorWnd@@QAEHABVCRect@@PAUHWND__@@@Z 5f539710 f ctlrefl.obj
 0001:000387a4       ?PostNcDestroy@CReflectorWnd@@MAEXXZ 5f5397a4 f ctlrefl.obj
 0001:00038803       ?WindowProc@CReflectorWnd@@MAEJIIJ@Z 5f539803 f ctlrefl.obj
 0001:00038975       ?SetControl@CReflectorWnd@@QAEXPAVCOleControl@@@Z 5f539975 f ctlrefl.obj
 0001:00038996       ?WindowProc@CParkingWnd@@UAEJIIJ@Z 5f539996 f ctlrefl.obj
 0001:00038ca0       ?_AfxRecursiveRegDeleteKey@@YGJPAUHKEY__@@PAG@Z 5f539ca0 f ctlreg.obj
 0001:00038d77       ?_AfxUnregisterInterfaces@@YAXPAUITypeLib@@@Z 5f539d77 f ctlreg.obj
 0001:00038ec3       ?AfxOleRegisterTypeLib@@YGHPAUHINSTANCE__@@ABU_GUID@@PBG2@Z 5f539ec3 f ctlreg.obj
 0001:00039173       ?AfxOleUnregisterTypeLib@@YGHABU_GUID@@GGK@Z 5f53a173 f ctlreg.obj
 0001:0003958c       ?AfxOleRegisterControlClass@@YGHPAUHINSTANCE__@@ABU_GUID@@PBGIIHK1GG@Z 5f53a58c f ctlreg.obj
 0001:00039ac9       ?AfxOleUnregisterClass@@YGHABU_GUID@@PBG@Z 5f53aac9 f ctlreg.obj
 0001:00039d62       ?AfxOleRegisterPropertyPageClass@@YGHPAUHINSTANCE__@@ABU_GUID@@I@Z 5f53ad62 f ctlreg.obj
 0001:00039d87       ?AfxOleRegisterPropertyPageClass@@YGHPAUHINSTANCE__@@ABU_GUID@@IH@Z 5f53ad87 f ctlreg.obj
 0001:0003a070       ?_AfxRegDeleteKeySucceeded@@YAHJ@Z 5f53b070 f ctlreg.obj
 0001:0003a0b0       ?CreateTracker@COleControl@@IAEXHH@Z 5f53b0b0 f ctltrack.obj
 0001:0003a42a       ?DestroyTracker@COleControl@@IAEXXZ 5f53b42a f ctltrack.obj
 0001:0003a590       ?OnNcPaint@COleControl@@IAEXXZ 5f53b590 f ctltrack.obj
 0001:0003a780       ?OnNcCalcSize@COleControl@@IAEXHPAUtagNCCALCSIZE_PARAMS@@@Z 5f53b780 f ctltrack.obj
 0001:0003a821       ?OnNcHitTest@COleControl@@IAEIVCPoint@@@Z 5f53b821 f ctltrack.obj
 0001:0003a981       ?OnNcLButtonDown@COleControl@@IAEXIVCPoint@@@Z 5f53b981 f ctltrack.obj
 0001:0003abf0       ?OnSetCursor@COleControl@@IAEHPAVCWnd@@II@Z 5f53bbf0 f ctltrack.obj
 0001:0003acb0       ?OnGetColorSet@COleControl@@UAEHPAUtagDVTARGETDEVICE@@PAUHDC__@@PAPAUtagLOGPALETTE@@@Z 5f53bcb0 f ctlview.obj
 0001:0003acca       ?OnGetViewExtent@COleControl@@UAEHKJPAUtagDVTARGETDEVICE@@PAUtagSIZE@@@Z 5f53bcca f ctlview.obj
 0001:0003ad2e       ?OnGetViewRect@COleControl@@UAEHKPAU_RECTL@@@Z 5f53bd2e f ctlview.obj
 0001:0003ad8c       ?OnGetViewStatus@COleControl@@UAEKXZ 5f53bd8c f ctlview.obj
 0001:0003ada7       ?OnQueryHitPoint@COleControl@@UAEHKPBUtagRECT@@UtagPOINT@@JPAK@Z 5f53bda7 f ctlview.obj
 0001:0003ade3       ?OnQueryHitRect@COleControl@@UAEHKPBUtagRECT@@0JPAK@Z 5f53bde3 f ctlview.obj
 0001:0003ae1f       ?OnGetNaturalExtent@COleControl@@UAEHKJPAUtagDVTARGETDEVICE@@PAUHDC__@@PAUtagExtentInfo@@PAUtagSIZE@@@Z 5f53be1f f ctlview.obj
 0001:0003ae39       ?AddRef@XViewObject@COleControl@@UAGKXZ 5f53be39 f ctlview.obj
 0001:0003ae61       ?Release@XViewObject@COleControl@@UAGKXZ 5f53be61 f ctlview.obj
 0001:0003ae89       ?QueryInterface@XViewObject@COleControl@@UAGJABU_GUID@@PAPAX@Z 5f53be89 f ctlview.obj
 0001:0003aeb9       ?Draw@XViewObject@COleControl@@UAGJKJPAXPAUtagDVTARGETDEVICE@@PAUHDC__@@2PBU_RECTL@@3P6GHK@ZK@Z 5f53beb9 f ctlview.obj
 0001:0003b179       ?GetColorSet@XViewObject@COleControl@@UAGJKJPAXPAUtagDVTARGETDEVICE@@PAUHDC__@@PAPAUtagLOGPALETTE@@@Z 5f53c179 f ctlview.obj
 0001:0003b23a       ?Freeze@XViewObject@COleControl@@UAGJKJPAXPAK@Z 5f53c23a f ctlview.obj
 0001:0003b251       ?Unfreeze@XViewObject@COleControl@@UAGJK@Z 5f53c251 f ctlview.obj
 0001:0003b268       ?SetAdvise@XViewObject@COleControl@@UAGJKKPAUIAdviseSink@@@Z 5f53c268 f ctlview.obj
 0001:0003b3c8       ?GetAdvise@XViewObject@COleControl@@UAGJPAK0PAPAUIAdviseSink@@@Z 5f53c3c8 f ctlview.obj
 0001:0003b4a5       ?GetExtent@XViewObject@COleControl@@UAGJKJPAUtagDVTARGETDEVICE@@PAUtagSIZE@@@Z 5f53c4a5 f ctlview.obj
 0001:0003b4f7       ?GetRect@XViewObject@COleControl@@UAGJKPAU_RECTL@@@Z 5f53c4f7 f ctlview.obj
 0001:0003b541       ?GetViewStatus@XViewObject@COleControl@@UAGJPAK@Z 5f53c541 f ctlview.obj
 0001:0003b576       ?QueryHitPoint@XViewObject@COleControl@@UAGJKPBUtagRECT@@UtagPOINT@@JPAK@Z 5f53c576 f ctlview.obj
 0001:0003b5d0       ?QueryHitRect@XViewObject@COleControl@@UAGJKPBUtagRECT@@0JPAK@Z 5f53c5d0 f ctlview.obj
 0001:0003b626       ?GetNaturalExtent@XViewObject@COleControl@@UAGJKJPAUtagDVTARGETDEVICE@@PAUHDC__@@PAUtagExtentInfo@@PAUtagSIZE@@@Z 5f53c626 f ctlview.obj
 0001:0003b680       ??0_AFXCTL_ADVISE_INFO@@QAE@XZ 5f53c680 f ctlview.obj
 0001:0003b6c0       ??0CProperty@@QAE@XZ       5f53c6c0 f olepset.obj
 0001:0003b6f6       ??0CProperty@@QAE@KQAXK@Z  5f53c6f6 f olepset.obj
 0001:0003b740       ??1CProperty@@QAE@XZ       5f53c740 f olepset.obj
 0001:0003b75e       ?Set@CProperty@@QAEHKQAXK@Z 5f53c75e f olepset.obj
 0001:0003b793       ?Set@CProperty@@QAEHQAXK@Z 5f53c793 f olepset.obj
 0001:0003b7c0       ?Set@CProperty@@QAEHQAX@Z  5f53c7c0 f olepset.obj
 0001:0003bbed       ?Get@CProperty@@QAEPAXXZ   5f53cbed f olepset.obj
 0001:0003bc0d       ?Get@CProperty@@QAEPAXPAK@Z 5f53cc0d f olepset.obj
 0001:0003bd81       ?GetType@CProperty@@QAEKXZ 5f53cd81 f olepset.obj
 0001:0003bd9d       ?SetType@CProperty@@QAEXK@Z 5f53cd9d f olepset.obj
 0001:0003bdbe       ?GetID@CProperty@@QAEKXZ   5f53cdbe f olepset.obj
 0001:0003bdd9       ?SetID@CProperty@@QAEXK@Z  5f53cdd9 f olepset.obj
 0001:0003bdf9       ?GetRawValue@CProperty@@QAEPAXXZ 5f53cdf9 f olepset.obj
 0001:0003be15       ?WriteToStream@CProperty@@QAEHPAUIStream@@@Z 5f53ce15 f olepset.obj
 0001:0003c30d       ?ReadFromStream@CProperty@@QAEHPAUIStream@@@Z 5f53d30d f olepset.obj
 0001:0003c75b       ?AllocValue@CProperty@@AAEPAXK@Z 5f53d75b f olepset.obj
 0001:0003c78c       ?FreeValue@CProperty@@AAEXXZ 5f53d78c f olepset.obj
 0001:0003c7c9       ??0CPropertySection@@QAE@XZ 5f53d7c9 f olepset.obj
 0001:0003c8a1       ??0CPropertySection@@QAE@U_GUID@@@Z 5f53d8a1 f olepset.obj
 0001:0003c979       ??1CPropertySection@@QAE@XZ 5f53d979 f olepset.obj
 0001:0003ca15       ?GetFormatID@CPropertySection@@QAE?AU_GUID@@XZ 5f53da15 f olepset.obj
 0001:0003ca4c       ?SetFormatID@CPropertySection@@QAEXU_GUID@@@Z 5f53da4c f olepset.obj
 0001:0003ca80       ?Set@CPropertySection@@QAEHKPAXK@Z 5f53da80 f olepset.obj
 0001:0003cb3f       ?Set@CPropertySection@@QAEHKPAX@Z 5f53db3f f olepset.obj
 0001:0003cba5       ?Get@CPropertySection@@QAEPAXK@Z 5f53dba5 f olepset.obj
 0001:0003cbcb       ?Get@CPropertySection@@QAEPAXKPAK@Z 5f53dbcb f olepset.obj
 0001:0003cc14       ?Remove@CPropertySection@@QAEXK@Z 5f53dc14 f olepset.obj
 0001:0003ccb0       ?RemoveAll@CPropertySection@@QAEXXZ 5f53dcb0 f olepset.obj
 0001:0003cd2b       ?GetProperty@CPropertySection@@QAEPAVCProperty@@K@Z 5f53dd2b f olepset.obj
 0001:0003cd8c       ?AddProperty@CPropertySection@@QAEXPAVCProperty@@@Z 5f53dd8c f olepset.obj
 0001:0003cdb9       ?GetSize@CPropertySection@@QAEKXZ 5f53ddb9 f olepset.obj
 0001:0003cdd5       ?GetCount@CPropertySection@@QAEKXZ 5f53ddd5 f olepset.obj
 0001:0003cdf6       ?GetList@CPropertySection@@QAEPAVCPtrList@@XZ 5f53ddf6 f olepset.obj
 0001:0003ce12       ?WriteToStream@CPropertySection@@QAEHPAUIStream@@@Z 5f53de12 f olepset.obj
 0001:0003d12e       ?ReadFromStream@CPropertySection@@QAEHPAUIStream@@T_LARGE_INTEGER@@@Z 5f53e12e f olepset.obj
 0001:0003d2f7       ?GetID@CPropertySection@@QAEHPBGPAK@Z 5f53e2f7 f olepset.obj
 0001:0003d3b5       ?SetName@CPropertySection@@QAEHKPBG@Z 5f53e3b5 f olepset.obj
 0001:0003d504       ?ReadNameDictFromStream@CPropertySection@@QAEHPAUIStream@@@Z 5f53e504 f olepset.obj
 0001:0003d69d       ?WriteNameDictToStream@CPropertySection@@QAEHPAUIStream@@@Z 5f53e69d f olepset.obj
 0001:0003d8ce       ?SetSectionName@CPropertySection@@QAEHPBG@Z 5f53e8ce f olepset.obj
 0001:0003d8fa       ?GetSectionName@CPropertySection@@QAEPBGXZ 5f53e8fa f olepset.obj
 0001:0003d91b       ??0CPropertySet@@QAE@XZ    5f53e91b f olepset.obj
 0001:0003d9d9       ??0CPropertySet@@QAE@U_GUID@@@Z 5f53e9d9 f olepset.obj
 0001:0003da97       ??1CPropertySet@@QAE@XZ    5f53ea97 f olepset.obj
 0001:0003db01       ?Set@CPropertySet@@QAEHU_GUID@@KPAXK@Z 5f53eb01 f olepset.obj
 0001:0003dbb5       ?Set@CPropertySet@@QAEHU_GUID@@KPAX@Z 5f53ebb5 f olepset.obj
 0001:0003dc0e       ?Get@CPropertySet@@QAEPAXU_GUID@@KPAK@Z 5f53ec0e f olepset.obj
 0001:0003dc67       ?Get@CPropertySet@@QAEPAXU_GUID@@K@Z 5f53ec67 f olepset.obj
 0001:0003dc9d       ?Remove@CPropertySet@@QAEXU_GUID@@K@Z 5f53ec9d f olepset.obj
 0001:0003dce6       ?Remove@CPropertySet@@QAEXU_GUID@@@Z 5f53ece6 f olepset.obj
 0001:0003dd8c       ?RemoveAll@CPropertySet@@QAEXXZ 5f53ed8c f olepset.obj
 0001:0003de07       ?GetSection@CPropertySet@@QAEPAVCPropertySection@@U_GUID@@@Z 5f53ee07 f olepset.obj
 0001:0003de72       ?AddSection@CPropertySet@@QAEPAVCPropertySection@@U_GUID@@@Z 5f53ee72 f olepset.obj
 0001:0003df18       ?AddSection@CPropertySet@@QAEXPAVCPropertySection@@@Z 5f53ef18 f olepset.obj
 0001:0003df45       ?GetProperty@CPropertySet@@QAEPAVCProperty@@U_GUID@@K@Z 5f53ef45 f olepset.obj
 0001:0003df9a       ?AddProperty@CPropertySet@@QAEXU_GUID@@PAVCProperty@@@Z 5f53ef9a f olepset.obj
 0001:0003dfe3       ?GetByteOrder@CPropertySet@@QAEGXZ 5f53efe3 f olepset.obj
 0001:0003dfff       ?GetFormatVersion@CPropertySet@@QAEGXZ 5f53efff f olepset.obj
 0001:0003e01c       ?SetFormatVersion@CPropertySet@@QAEXG@Z 5f53f01c f olepset.obj
 0001:0003e03f       ?GetOSVersion@CPropertySet@@QAEKXZ 5f53f03f f olepset.obj
 0001:0003e05b       ?SetOSVersion@CPropertySet@@QAEXK@Z 5f53f05b f olepset.obj
 0001:0003e07c       ?GetClassID@CPropertySet@@QAE?AU_GUID@@XZ 5f53f07c f olepset.obj
 0001:0003e0b6       ?SetClassID@CPropertySet@@QAEXU_GUID@@@Z 5f53f0b6 f olepset.obj
 0001:0003e0ed       ?GetCount@CPropertySet@@QAEKXZ 5f53f0ed f olepset.obj
 0001:0003e10e       ?GetList@CPropertySet@@QAEPAVCPtrList@@XZ 5f53f10e f olepset.obj
 0001:0003e12a       ?WriteToStream@CPropertySet@@QAEHPAUIStream@@@Z 5f53f12a f olepset.obj
 0001:0003e306       ?ReadFromStream@CPropertySet@@QAEHPAUIStream@@@Z 5f53f306 f olepset.obj
 0001:0003e4d0       ??_GCProperty@@QAEPAXI@Z   5f53f4d0 f olepset.obj
 0001:0003e510       ??_GCPropertySection@@QAEPAXI@Z 5f53f510 f olepset.obj
 0001:0003e550       ??0CBlobProperty@@QAE@PAX@Z 5f53f550 f ctlpbag.obj
 0001:0003e58f       ?GetBlob@CBlobProperty@@QAEPAXXZ 5f53f58f f ctlpbag.obj
 0001:0003e5ab       ?AddRef@CBlobProperty@@UAGKXZ 5f53f5ab f ctlpbag.obj
 0001:0003e5ca       ?Release@CBlobProperty@@UAGKXZ 5f53f5ca f ctlpbag.obj
 0001:0003e619       ?QueryInterface@CBlobProperty@@UAGJABU_GUID@@PAPAX@Z 5f53f619 f ctlpbag.obj
 0001:0003e69f       ?GetClassID@CBlobProperty@@UAGJPAU_GUID@@@Z 5f53f69f f ctlpbag.obj
 0001:0003e6d1       ?IsDirty@CBlobProperty@@UAGJXZ 5f53f6d1 f ctlpbag.obj
 0001:0003e6e5       ?Load@CBlobProperty@@UAGJPAUIStream@@@Z 5f53f6e5 f ctlpbag.obj
 0001:0003e7f0       ?Save@CBlobProperty@@UAGJPAUIStream@@H@Z 5f53f7f0 f ctlpbag.obj
 0001:0003e886       ?GetSizeMax@CBlobProperty@@UAGJPAT_ULARGE_INTEGER@@@Z 5f53f886 f ctlpbag.obj
 0001:0003e8e5       ??0CPropbagPropExchange@@QAE@PAUIPropertyBag@@PAUIErrorLog@@HH@Z 5f53f8e5 f ctlpbag.obj
 0001:0003e961       ??1CPropbagPropExchange@@QAE@XZ 5f53f961 f ctlpbag.obj
 0001:0003e9d2       ?ExchangeProp@CPropbagPropExchange@@UAEHPBGGPAXPBX@Z 5f53f9d2 f ctlpbag.obj
 0001:0003edd9       ?ExchangeBlobProp@CPropbagPropExchange@@UAEHPBGPAPAXPAX@Z 5f53fdd9 f ctlpbag.obj
 0001:0003f022       ?ExchangeFontProp@CPropbagPropExchange@@UAEHPBGAAVCFontHolder@@PBUtagFONTDESC@@PAUIFontDisp@@@Z 5f540022 f ctlpbag.obj
 0001:0003f2d1       ?ExchangePersistentProp@CPropbagPropExchange@@UAEHPBGPAPAUIUnknown@@ABU_GUID@@PAU2@@Z 5f5402d1 f ctlpbag.obj
 0001:0003f55d       ?AddRef@XPersistPropertyBag@COleControl@@UAGKXZ 5f54055d f ctlpbag.obj
 0001:0003f585       ?Release@XPersistPropertyBag@COleControl@@UAGKXZ 5f540585 f ctlpbag.obj
 0001:0003f5ad       ?QueryInterface@XPersistPropertyBag@COleControl@@UAGJABU_GUID@@PAPAX@Z 5f5405ad f ctlpbag.obj
 0001:0003f5dd       ?GetClassID@XPersistPropertyBag@COleControl@@UAGJPAU_GUID@@@Z 5f5405dd f ctlpbag.obj
 0001:0003f60f       ?InitNew@XPersistPropertyBag@COleControl@@UAGJXZ 5f54060f f ctlpbag.obj
 0001:0003f6da       ?Load@XPersistPropertyBag@COleControl@@UAGJPAUIPropertyBag@@PAUIErrorLog@@@Z 5f5406da f ctlpbag.obj
 0001:0003f83d       ?Save@XPersistPropertyBag@COleControl@@UAGJPAUIPropertyBag@@HH@Z 5f54083d f ctlpbag.obj
 0001:0003f970       ??0IPersistStream@@QAE@XZ  5f540970 f ctlpbag.obj
 0001:0003f9a0       ?_GetOlePropLibFunc@@YGP6GHXZPBD@Z 5f5409a0 f olepro32.obj
 0001:0003fa17       _OleCreatePropertyFrame@44 5f540a17 f olepro32.obj
 0001:0003fa8e       _OleCreatePropertyFrameIndirect@4 5f540a8e f olepro32.obj
 0001:0003fadd       _OleTranslateColor@12      5f540add f olepro32.obj
 0001:0003fb34       _OleCreateFontIndirect@12  5f540b34 f olepro32.obj
 0001:0003fb8b       _OleCreatePictureIndirect@16 5f540b8b f olepro32.obj
 0001:0003fbe6       _OleLoadPicture@20         5f540be6 f olepro32.obj
 0001:0003fcb1       ??0_AFXCTL_AMBIENT_CACHE@@QAE@XZ 5f540cb1 f ctlquick.obj
 0001:0003fd20       ?Cache@_AFXCTL_AMBIENT_CACHE@@QAEXPAUtagQACONTAINER@@@Z 5f540d20 f ctlquick.obj
 0001:0003fdd6       ?AddRef@XQuickActivate@COleControl@@UAGKXZ 5f540dd6 f ctlquick.obj
 0001:0003fdfe       ?Release@XQuickActivate@COleControl@@UAGKXZ 5f540dfe f ctlquick.obj
 0001:0003fe26       ?QueryInterface@XQuickActivate@COleControl@@UAGJABU_GUID@@PAPAX@Z 5f540e26 f ctlquick.obj
 0001:0003fe56       ?QuickActivate@XQuickActivate@COleControl@@UAGJPAUtagQACONTAINER@@PAUtagQACONTROL@@@Z 5f540e56 f ctlquick.obj
 0001:0003ffdf       ?SetContentExtent@XQuickActivate@COleControl@@UAGJPAUtagSIZE@@@Z 5f540fdf f ctlquick.obj
 0001:0004001a       ?GetContentExtent@XQuickActivate@COleControl@@UAGJPAUtagSIZE@@@Z 5f54101a f ctlquick.obj
 0001:00040060       ??1?$CThreadLocal@V_AFXCTL_AMBIENT_CACHE@@@@QAE@XZ 5f541060 f ctlquick.obj
 0001:000400c0       ??_G_AFXCTL_AMBIENT_CACHE@@UAEPAXI@Z 5f5410c0 f ctlquick.obj
 0001:000400c0       ??_E_AFXCTL_AMBIENT_CACHE@@UAEPAXI@Z 5f5410c0 f ctlquick.obj
 0001:00040100       ??1_AFXCTL_AMBIENT_CACHE@@UAE@XZ 5f541100 f ctlquick.obj
 0001:00040160       ?_GetBaseClass@CWindowlessDC@@KGPAUCRuntimeClass@@XZ 5f541160 f ctlnownd.obj
 0001:00040175       ?GetRuntimeClass@CWindowlessDC@@UBEPAUCRuntimeClass@@XZ 5f541175 f ctlnownd.obj
 0001:00040190       ??0CWindowlessDC@@QAE@PAUHDC__@@AAVCPoint@@@Z 5f541190 f ctlnownd.obj
 0001:00040269       ?Detach@CWindowlessDC@@QAEPAUHDC__@@XZ 5f541269 f ctlnownd.obj
 0001:000402ba       ?GetClientOffset@COleControl@@UBEXPAJ0@Z 5f5412ba f ctlnownd.obj
 0001:00040340       ?ParentToClient@COleControl@@UBEIPBUtagRECT@@PAUtagPOINT@@H@Z 5f541340 f ctlnownd.obj
 0001:00040429       ?ClientToParent@COleControl@@UBEXPBUtagRECT@@PAUtagPOINT@@@Z 5f541429 f ctlnownd.obj
 0001:00040473       ?GetActivationPolicy@COleControl@@UAEKXZ 5f541473 f ctlnownd.obj
 0001:0004048b       ?OnInactiveSetCursor@COleControl@@UAEHPBUtagRECT@@JJKH@Z 5f54148b f ctlnownd.obj
 0001:00040539       ?OnInactiveMouseMove@COleControl@@UAEXPBUtagRECT@@JJK@Z 5f541539 f ctlnownd.obj
 0001:000405a9       ?AddRef@XPointerInactive@COleControl@@UAGKXZ 5f5415a9 f ctlnownd.obj
 0001:000405d1       ?Release@XPointerInactive@COleControl@@UAGKXZ 5f5415d1 f ctlnownd.obj
 0001:000405f9       ?QueryInterface@XPointerInactive@COleControl@@UAGJABU_GUID@@PAPAX@Z 5f5415f9 f ctlnownd.obj
 0001:00040629       ?GetActivationPolicy@XPointerInactive@COleControl@@UAGJPAK@Z 5f541629 f ctlnownd.obj
 0001:0004065e       ?OnInactiveSetCursor@XPointerInactive@COleControl@@UAGJPBUtagRECT@@JJKH@Z 5f54165e f ctlnownd.obj
 0001:000406b4       ?OnInactiveMouseMove@XPointerInactive@COleControl@@UAGJPBUtagRECT@@JJK@Z 5f5416b4 f ctlnownd.obj
 0001:000406f4       ?OnWindowlessMessage@COleControl@@UAEHIIJPAJ@Z 5f5416f4 f ctlnownd.obj
 0001:000407a7       ?GetWindowlessDropTarget@COleControl@@UAEPAUIDropTarget@@XZ 5f5417a7 f ctlnownd.obj
 0001:000407bf       ?OnWindowMessage@XOleInPlaceObject@COleControl@@UAGJIIJPAJ@Z 5f5417bf f ctlnownd.obj
 0001:00040811       ?GetDropTarget@XOleInPlaceObject@COleControl@@UAGJPAPAUIDropTarget@@@Z 5f541811 f ctlnownd.obj
 0001:0004085c       ?SetCapture@COleControl@@QAEPAVCWnd@@XZ 5f54185c f ctlnownd.obj
 0001:00040921       ?ReleaseCapture@COleControl@@QAEHXZ 5f541921 f ctlnownd.obj
 0001:000409ea       ?GetCapture@COleControl@@QAEPAVCWnd@@XZ 5f5419ea f ctlnownd.obj
 0001:00040aae       ?SetFocus@COleControl@@QAEPAVCWnd@@XZ 5f541aae f ctlnownd.obj
 0001:00040b73       ?GetFocus@COleControl@@QAEPAVCWnd@@XZ 5f541b73 f ctlnownd.obj
 0001:00040c37       ?GetDC@COleControl@@QAEPAVCDC@@PBUtagRECT@@K@Z 5f541c37 f ctlnownd.obj
 0001:00040e89       ?ReleaseDC@COleControl@@QAEHPAVCDC@@@Z 5f541e89 f ctlnownd.obj
 0001:00040fb1       ?InvalidateRgn@COleControl@@QAEXPAVCRgn@@H@Z 5f541fb1 f ctlnownd.obj
 0001:00041114       ?ScrollWindow@COleControl@@QAEXHHPBUtagRECT@@0@Z 5f542114 f ctlnownd.obj
 0001:0004128c       ?ClipCaretRect@COleControl@@QAEHPAUtagRECT@@@Z 5f54228c f ctlnownd.obj
 0001:0004136c       ?GetClientRect@COleControl@@UBEXPAUtagRECT@@@Z 5f54236c f ctlnownd.obj
 0001:000414f0       ??_GCWindowlessDC@@UAEPAXI@Z 5f5424f0 f ctlnownd.obj
 0001:000414f0       ??_ECWindowlessDC@@UAEPAXI@Z 5f5424f0 f ctlnownd.obj
 0001:00041530       ??1CWindowlessDC@@UAE@XZ   5f542530 f ctlnownd.obj
 0001:00041590       ??0CColorButton@@QAE@XZ    5f542590 f ppgcolor.obj
 0001:00041609       ?SetFaceColor@CColorButton@@QAEXK@Z 5f542609 f ppgcolor.obj
 0001:0004162a       ?colGetFaceColor@CColorButton@@QAEKXZ 5f54262a f ppgcolor.obj
 0001:00041646       ?SetState@CColorButton@@QAEXH@Z 5f542646 f ppgcolor.obj
 0001:00041667       ?DrawItem@CColorButton@@MAEXPAUtagDRAWITEMSTRUCT@@@Z 5f542667 f ppgcolor.obj
 0001:000418c4       ?_GetBaseMessageMap@CColorPropPage@@KGPBUAFX_MSGMAP@@XZ 5f5428c4 f ppgcolor.obj
 0001:000418d9       ?GetMessageMap@CColorPropPage@@MBEPBUAFX_MSGMAP@@XZ 5f5428d9 f ppgcolor.obj
 0001:000418f4       ??0CColorPropPage@@QAE@XZ  5f5428f4 f ppgcolor.obj
 0001:000419f1       ?OnInitDialog@CColorPropPage@@MAEHXZ 5f5429f1 f ppgcolor.obj
 0001:00041acd       ?FillSysColors@CColorPropPage@@IAEXXZ 5f542acd f ppgcolor.obj
 0001:00041ba6       ?DoDataExchange@CColorPropPage@@MAEXPAVCDataExchange@@@Z 5f542ba6 f ppgcolor.obj
 0001:00041dc5       ?SetColorProp@CColorPropPage@@IAEHPAVCDataExchange@@KPBG@Z 5f542dc5 f ppgcolor.obj
 0001:00041fb9       ?GetColorProp@CColorPropPage@@IAEHPAVCDataExchange@@PAKPBG@Z 5f542fb9 f ppgcolor.obj
 0001:00042194       ?OnSelect@CColorPropPage@@AAEXXZ 5f543194 f ppgcolor.obj
 0001:000421c1       ?SetButton@CColorPropPage@@AAEXPAVCColorButton@@@Z 5f5431c1 f ppgcolor.obj
 0001:00042249       ?OnSelchangeColorprop@CColorPropPage@@AAEXXZ 5f543249 f ppgcolor.obj
 0001:00042270       ?_AfxDraw3DFrame@@YAXPAVCDC@@VCRect@@KK@Z 5f543270 f ppgcolor.obj
 0001:000423e5       ?_AfxDraw3DButtonFrame@@YAXPAVCDC@@VCRect@@H@Z 5f5433e5 f ppgcolor.obj
 0001:000425ec       ?_AfxInitPalette@@YAPAUHPALETTE__@@XZ 5f5435ec f ppgcolor.obj
 0001:0004285b       ?OnSelchangeSystemcolors@CColorPropPage@@AAEXXZ 5f54385b f ppgcolor.obj
 0001:000428ae       ?OnEditProperty@CColorPropPage@@MAEHJ@Z 5f5438ae f ppgcolor.obj
 0001:000428db       ?OnObjectsChanged@CColorPropPage@@MAEXXZ 5f5438db f ppgcolor.obj
 0001:00042a36       ?GetClassID@CColorPropPage@@UAEJPAU_GUID@@@Z 5f543a36 f ppgcolor.obj
 0001:00042a6e       ?UpdateRegistry@CColorPropPageFactory@CColorPropPage@@UAEHH@Z 5f543a6e f ppgcolor.obj
 0001:00042ac0       ??_ECColorButton@@UAEPAXI@Z 5f543ac0 f ppgcolor.obj
 0001:00042ac0       ??_GCColorButton@@UAEPAXI@Z 5f543ac0 f ppgcolor.obj
 0001:00042b00       ??1CColorButton@@UAE@XZ    5f543b00 f ppgcolor.obj
 0001:00042b60       ??_ECColorPropPage@@UAEPAXI@Z 5f543b60 f ppgcolor.obj
 0001:00042b60       ??_GCColorPropPage@@UAEPAXI@Z 5f543b60 f ppgcolor.obj
 0001:00042ba0       ??1CStockPropPage@@UAE@XZ  5f543ba0 f ppgcolor.obj
 0001:00042c20       ??1CColorPropPage@@UAE@XZ  5f543c20 f ppgcolor.obj
 0001:00042ce0       ??0CColorPropPageFactory@CColorPropPage@@QAE@ABU_GUID@@PAUCRuntimeClass@@HPBG@Z 5f543ce0 f ppgcolor.obj
 0001:00042d70       ??_ECColorPropPageFactory@CColorPropPage@@UAEPAXI@Z 5f543d70 f ppgcolor.obj
 0001:00042d70       ??_GCColorPropPageFactory@CColorPropPage@@UAEPAXI@Z 5f543d70 f ppgcolor.obj
 0001:00042db0       ??1CColorPropPageFactory@CColorPropPage@@UAE@XZ 5f543db0 f ppgcolor.obj
 0001:00042e10       ?_GetBaseMessageMap@CFontPropPage@@KGPBUAFX_MSGMAP@@XZ 5f543e10 f ppgfont.obj
 0001:00042e25       ?GetMessageMap@CFontPropPage@@MBEPBUAFX_MSGMAP@@XZ 5f543e25 f ppgfont.obj
 0001:00042e40       ??0CFontPropPage@@QAE@XZ   5f543e40 f ppgfont.obj
 0001:00042fa0       ?_AfxStringFromCy@@YAHAAVCString@@AATtagCY@@@Z 5f543fa0 f ppgfont.obj
 0001:00043035       ?_AfxCyFromString@@YAHAATtagCY@@PBG@Z 5f544035 f ppgfont.obj
 0001:000430db       ?_AfxDrawMaskedBitmap@@YAXPAVCDC@@PAVCBitmap@@1HHHH@Z 5f5440db f ppgfont.obj
 0001:00043229       ?_AfxInitMaskFromBitmap@@YAXPAVCBitmap@@0@Z 5f544229 f ppgfont.obj
 0001:00043341       ?DoDataExchange@CFontPropPage@@MAEXPAVCDataExchange@@@Z 5f544341 f ppgfont.obj
 0001:000436a1       ?SetFontProps@CFontPropPage@@IAEHPAVCDataExchange@@UtagFONTOBJECT@@PBG@Z 5f5446a1 f ppgfont.obj
 0001:000439cf       ?GetFontProps@CFontPropPage@@IAEHPAVCDataExchange@@PAUtagFONTOBJECT@@PBGPAUtagMERGEOBJECT@@@Z 5f5449cf f ppgfont.obj
 0001:00043d7f       ?OnInitDialog@CFontPropPage@@MAEHXZ 5f544d7f f ppgfont.obj
 0001:00043dbd       ?FillFacenameList@CFontPropPage@@IAEXXZ 5f544dbd f ppgfont.obj
 0001:00043ece       ?EnumFontFamiliesCallBack@CFontPropPage@@KGHPAUtagENUMLOGFONTW@@PAUtagNEWTEXTMETRICW@@HJ@Z 5f544ece f ppgfont.obj
 0001:00043f26       ?FillSizeList@CFontPropPage@@IAEXXZ 5f544f26 f ppgfont.obj
 0001:0004438d       ?EnumFontFamiliesCallBack2@CFontPropPage@@KGHPAUtagENUMLOGFONTW@@PAUtagNEWTEXTMETRICW@@HJ@Z 5f54538d f ppgfont.obj
 0001:000444da       ??0CFontComboBox@@QAE@XZ   5f5454da f ppgfont.obj
 0001:000445a5       ??1CFontComboBox@@UAE@XZ   5f5455a5 f ppgfont.obj
 0001:0004463f       ?AddFont@CFontComboBox@@QAEHPAUtagLOGFONTW@@K@Z 5f54563f f ppgfont.obj
 0001:000447aa       ?GetFontItem@CFontComboBox@@QAEPAUFONTITEM_PPG@@H@Z 5f5457aa f ppgfont.obj
 0001:00044899       ?GetLogFont@CFontComboBox@@QAEPAUtagLOGFONTW@@H@Z 5f545899 f ppgfont.obj
 0001:000448c0       ?GetFontType@CFontComboBox@@QAEKH@Z 5f5458c0 f ppgfont.obj
 0001:000448e6       ?GetCurrentName@CFontComboBox@@QAE?AVCString@@XZ 5f5458e6 f ppgfont.obj
 0001:00044981       ?DrawItem@CFontComboBox@@UAEXPAUtagDRAWITEMSTRUCT@@@Z 5f545981 f ppgfont.obj
 0001:00044b40       ?DeleteItem@CFontComboBox@@UAEXPAUtagDELETEITEMSTRUCT@@@Z 5f545b40 f ppgfont.obj
 0001:00044bda       ?AddSize@CSizeComboBox@@QAEHHJ@Z 5f545bda f ppgfont.obj
 0001:00044dc2       ?GetPointSize@CSizeComboBox@@QAEXAATtagCY@@@Z 5f545dc2 f ppgfont.obj
 0001:00044e0b       ?GetHeight@CSizeComboBox@@QAEJH@Z 5f545e0b f ppgfont.obj
 0001:00044edb       ?UpdateLogFont@CSizeComboBox@@QAEXPAUtagLOGFONTW@@H@Z 5f545edb f ppgfont.obj
 0001:00044f30       ?OnEditupdateFontnames@CFontPropPage@@IAEXXZ 5f545f30 f ppgfont.obj
 0001:00044ff6       ?OnEditupdateFontsizes@CFontPropPage@@IAEXXZ 5f545ff6 f ppgfont.obj
 0001:0004507b       ?OnSelchangeFontnames@CFontPropPage@@IAEXXZ 5f54607b f ppgfont.obj
 0001:00045099       ?UpdateSampleFont@CFontPropPage@@IAEXXZ 5f546099 f ppgfont.obj
 0001:000451c8       ?OnPaint@CFontPropPage@@MAEXXZ 5f5461c8 f ppgfont.obj
 0001:00045436       ?OnSelchangeFontsizes@CFontPropPage@@IAEXXZ 5f546436 f ppgfont.obj
 0001:0004548a       ?OnSelchangeFontstyles@CFontPropPage@@IAEXXZ 5f54648a f ppgfont.obj
 0001:000454e6       ?OnEditchangeFontstyles@CFontPropPage@@IAEXXZ 5f5464e6 f ppgfont.obj
 0001:000455d9       ?SelectFontFromList@CFontPropPage@@IAEXVCString@@PAUtagMERGEOBJECT@@@Z 5f5465d9 f ppgfont.obj
 0001:000457ef       ?OnStrikeout@CFontPropPage@@IAEXXZ 5f5467ef f ppgfont.obj
 0001:0004584d       ?OnUnderline@CFontPropPage@@IAEXXZ 5f54684d f ppgfont.obj
 0001:000458ab       ?OnSelchangeFontprop@CFontPropPage@@IAEXXZ 5f5468ab f ppgfont.obj
 0001:000458d2       ?OnEditProperty@CFontPropPage@@MAEHJ@Z 5f5468d2 f ppgfont.obj
 0001:000458ff       ?OnObjectsChanged@CFontPropPage@@MAEXXZ 5f5468ff f ppgfont.obj
 0001:00045a7b       ?GetClassID@CFontPropPage@@UAEJPAU_GUID@@@Z 5f546a7b f ppgfont.obj
 0001:00045ab3       ?UpdateRegistry@CFontPropPageFactory@CFontPropPage@@UAEHH@Z 5f546ab3 f ppgfont.obj
 0001:00045b10       ??_GCFontPropPage@@UAEPAXI@Z 5f546b10 f ppgfont.obj
 0001:00045b10       ??_ECFontPropPage@@UAEPAXI@Z 5f546b10 f ppgfont.obj
 0001:00045b50       ??0CSizeComboBox@@QAE@XZ   5f546b50 f ppgfont.obj
 0001:00045bc0       ??1CSizeComboBox@@UAE@XZ   5f546bc0 f ppgfont.obj
 0001:00045c20       ??1CFontPropPage@@UAE@XZ   5f546c20 f ppgfont.obj
 0001:00045d50       ??_GCSizeComboBox@@UAEPAXI@Z 5f546d50 f ppgfont.obj
 0001:00045d50       ??_ECSizeComboBox@@UAEPAXI@Z 5f546d50 f ppgfont.obj
 0001:00045d90       ??0tagFONTOBJECT@@QAE@XZ   5f546d90 f ppgfont.obj
 0001:00045e00       ??1tagFONTOBJECT@@QAE@XZ   5f546e00 f ppgfont.obj
 0001:00045e60       ??0tagFONTOBJECT@@QAE@ABU0@@Z 5f546e60 f ppgfont.obj
 0001:00045f20       ??_GCFontComboBox@@UAEPAXI@Z 5f546f20 f ppgfont.obj
 0001:00045f20       ??_ECFontComboBox@@UAEPAXI@Z 5f546f20 f ppgfont.obj
 0001:00045f60       ??_9@$BOM@AE               5f546f60 f ppgfont.obj
 0001:00045f70       ??0CFontPropPageFactory@CFontPropPage@@QAE@ABU_GUID@@PAUCRuntimeClass@@HPBG@Z 5f546f70 f ppgfont.obj
 0001:00046000       ??_ECFontPropPageFactory@CFontPropPage@@UAEPAXI@Z 5f547000 f ppgfont.obj
 0001:00046000       ??_GCFontPropPageFactory@CFontPropPage@@UAEPAXI@Z 5f547000 f ppgfont.obj
 0001:00046040       ??1CFontPropPageFactory@CFontPropPage@@UAE@XZ 5f547040 f ppgfont.obj
 0001:000460a0       ?_GetBaseMessageMap@CPicturePropPage@@KGPBUAFX_MSGMAP@@XZ 5f5470a0 f ppgpict.obj
 0001:000460b5       ?GetMessageMap@CPicturePropPage@@MBEPBUAFX_MSGMAP@@XZ 5f5470b5 f ppgpict.obj
 0001:000460d0       ??0CPicturePropPage@@QAE@XZ 5f5470d0 f ppgpict.obj
 0001:00046198       ??1CPicturePropPage@@UAE@XZ 5f547198 f ppgpict.obj
 0001:0004626d       ?OnInitDialog@CPicturePropPage@@MAEHXZ 5f54726d f ppgpict.obj
 0001:000462d7       ?DoDataExchange@CPicturePropPage@@MAEXPAVCDataExchange@@@Z 5f5472d7 f ppgpict.obj
 0001:000463bd       ?SetPictureProp@CPicturePropPage@@IAEHPAVCDataExchange@@PAUIPictureDisp@@PBG@Z 5f5473bd f ppgpict.obj
 0001:00046589       ?GetPictureProp@CPicturePropPage@@IAEHPAVCDataExchange@@PAPAUIPictureDisp@@PBG@Z 5f547589 f ppgpict.obj
 0001:00046798       ?OnPaint@CPicturePropPage@@IAEXXZ 5f547798 f ppgpict.obj
 0001:00046a36       ?_AfxCreateStreamOnFile@@YAJPBGPAPAUIStream@@PAJ@Z 5f547a36 f ppgpict.obj
 0001:00046c90       ?OnBrowse@CPicturePropPage@@IAEXXZ 5f547c90 f ppgpict.obj
 0001:0004707f       ?OnClear@CPicturePropPage@@IAEXXZ 5f54807f f ppgpict.obj
 0001:000470db       ?ChangePicture@CPicturePropPage@@IAEXPAUIPicture@@@Z 5f5480db f ppgpict.obj
 0001:000471d3       ?OnSelchangePictProp@CPicturePropPage@@IAEXXZ 5f5481d3 f ppgpict.obj
 0001:00047293       ?OnEditProperty@CPicturePropPage@@MAEHJ@Z 5f548293 f ppgpict.obj
 0001:000472c0       ?OnObjectsChanged@CPicturePropPage@@MAEXXZ 5f5482c0 f ppgpict.obj
 0001:000473bd       ?GetClassID@CPicturePropPage@@UAEJPAU_GUID@@@Z 5f5483bd f ppgpict.obj
 0001:000473f5       ?UpdateRegistry@CPicturePropPageFactory@CPicturePropPage@@UAEHH@Z 5f5483f5 f ppgpict.obj
 0001:00047450       ??_GCPicturePropPage@@UAEPAXI@Z 5f548450 f ppgpict.obj
 0001:00047450       ??_ECPicturePropPage@@UAEPAXI@Z 5f548450 f ppgpict.obj
 0001:00047490       ??0CFileStatus@@QAE@XZ     5f548490 f ppgpict.obj
 0001:000474d0       ??1CFileDialog@@UAE@XZ     5f5484d0 f ppgpict.obj
 0001:00047550       ??0CPicturePropPageFactory@CPicturePropPage@@QAE@ABU_GUID@@PAUCRuntimeClass@@HPBG@Z 5f548550 f ppgpict.obj
 0001:000475e0       ??_GCPicturePropPageFactory@CPicturePropPage@@UAEPAXI@Z 5f5485e0 f ppgpict.obj
 0001:000475e0       ??_ECPicturePropPageFactory@CPicturePropPage@@UAEPAXI@Z 5f5485e0 f ppgpict.obj
 0001:00047620       ??1CPicturePropPageFactory@CPicturePropPage@@UAE@XZ 5f548620 f ppgpict.obj
 0001:00047680       ?_GetBaseMessageMap@CStockPropPage@@KGPBUAFX_MSGMAP@@XZ 5f548680 f ppgstock.obj
 0001:00047695       ?GetMessageMap@CStockPropPage@@MBEPBUAFX_MSGMAP@@XZ 5f548695 f ppgstock.obj
 0001:000476b0       ?_AfxSizeComboToContent@@YAXPAVCComboBox@@@Z 5f5486b0 f ppgstock.obj
 0001:00047745       ??0CStockPropPage@@QAE@II@Z 5f548745 f ppgstock.obj
 0001:000477ec       ?FillPropnameList@CStockPropPage@@IAEXABU_GUID@@HAAVCComboBox@@@Z 5f5487ec f ppgstock.obj
 0001:00047ad7       ?OnSelchangePropname@CStockPropPage@@IAEXAAVCComboBox@@@Z 5f548ad7 f ppgstock.obj
 0001:00047b6d       ?OnEditProperty@CStockPropPage@@IAEHJAAVCComboBox@@@Z 5f548b6d f ppgstock.obj
 0001:00047be9       ?AfxOleTypeMatchGuid@@YGHPAUITypeInfo@@PAUtagTYPEDESC@@ABU_GUID@@K@Z 5f548be9 f ppgstock.obj
 0001:00047de0       ??_ECStockPropPage@@UAEPAXI@Z 5f548de0 f ppgstock.obj
 0001:00047de0       ??_GCStockPropPage@@UAEPAXI@Z 5f548de0 f ppgstock.obj
 0001:00047e20       ?IsOptimizedDraw@COleControl@@QAEHXZ 5f548e20 f ctlinl.obj
 0001:00047e45       ?IsConvertingVBX@COleControl@@QAEHXZ 5f548e45 f ctlinl.obj
 0001:00047e6a       ?FireKeyDown@COleControl@@QAEXPAGF@Z 5f548e6a f ctlinl.obj
 0001:00047ea1       ?FireKeyUp@COleControl@@QAEXPAGF@Z 5f548ea1 f ctlinl.obj
 0001:00047ed8       ?FireKeyPress@COleControl@@QAEXPAG@Z 5f548ed8 f ctlinl.obj
 0001:00047f0a       ?FireMouseDown@COleControl@@QAEXFFJJ@Z 5f548f0a f ctlinl.obj
 0001:00047f4a       ?FireMouseUp@COleControl@@QAEXFFJJ@Z 5f548f4a f ctlinl.obj
 0001:00047f8a       ?FireMouseMove@COleControl@@QAEXFFJJ@Z 5f548f8a f ctlinl.obj
 0001:00047fca       ?FireClick@COleControl@@QAEXXZ 5f548fca f ctlinl.obj
 0001:00047ff3       ?FireDblClick@COleControl@@QAEXXZ 5f548ff3 f ctlinl.obj
 0001:0004801c       ?FireReadyStateChange@COleControl@@QAEXXZ 5f54901c f ctlinl.obj
 0001:00048052       ?InternalSetReadyState@COleControl@@QAEXJ@Z 5f549052 f ctlinl.obj
 0001:000480b9       ?ExchangeVersion@COleControl@@QAEHPAVCPropExchange@@KH@Z 5f5490b9 f ctlinl.obj
 0001:000480ea       ?GetStockEventMask@COleControl@@IBEKXZ 5f5490ea f ctlinl.obj
 0001:00048113       ?GetStockPropMask@COleControl@@IBEKXZ 5f549113 f ctlinl.obj
 0001:00048139       ?RequestAsynchronousExchange@COleControl@@QAEXK@Z 5f549139 f ctlinl.obj
 0001:0004816a       ??0CPropExchange@@IAE@XZ   5f54916a f ctlinl.obj
 0001:000481a0       ?IsLoading@CPropExchange@@QAEHXZ 5f5491a0 f ctlinl.obj
 0001:000481bc       ?GetVersion@CPropExchange@@QAEKXZ 5f5491bc f ctlinl.obj
 0001:000481d8       ?IsAsynchronous@CPropExchange@@QAEHXZ 5f5491d8 f ctlinl.obj
 0001:000481f4       ??0CDataPathProperty@@QAE@PAVCOleControl@@@Z 5f5491f4 f ctlinl.obj
 0001:00048289       ??0CDataPathProperty@@QAE@PBGPAVCOleControl@@@Z 5f549289 f ctlinl.obj
 0001:00048322       ?SetPath@CDataPathProperty@@QAEXPBG@Z 5f549322 f ctlinl.obj
 0001:00048359       ?GetPath@CDataPathProperty@@QBE?AVCString@@XZ 5f549359 f ctlinl.obj
 0001:000483da       ?GetControl@CDataPathProperty@@QAEPAVCOleControl@@XZ 5f5493da f ctlinl.obj
 0001:00048406       ?SetControl@CDataPathProperty@@QAEXPAVCOleControl@@@Z 5f549406 f ctlinl.obj
 0001:00048437       ??0CCachedDataPathProperty@@QAE@PAVCOleControl@@@Z 5f549437 f ctlinl.obj
 0001:000484cc       ??0CCachedDataPathProperty@@QAE@PBGPAVCOleControl@@@Z 5f5494cc f ctlinl.obj
 0001:00048565       ?DDP_LBString@@YGXPAVCDataExchange@@HAAVCString@@PBG@Z 5f549565 f ctlinl.obj
 0001:0004858c       ?DDP_LBStringExact@@YGXPAVCDataExchange@@HAAVCString@@PBG@Z 5f54958c f ctlinl.obj
 0001:000485b3       ?DDP_LBIndex@@YGXPAVCDataExchange@@HAAHPBG@Z 5f5495b3 f ctlinl.obj
 0001:000485da       ?DDP_CBString@@YGXPAVCDataExchange@@HAAVCString@@PBG@Z 5f5495da f ctlinl.obj
 0001:00048601       ?DDP_CBStringExact@@YGXPAVCDataExchange@@HAAVCString@@PBG@Z 5f549601 f ctlinl.obj
 0001:00048628       ?DDP_CBIndex@@YGXPAVCDataExchange@@HAAHPBG@Z 5f549628 f ctlinl.obj
 0001:00048650       ?AfxGetThreadState@@YGPAV_AFX_THREAD_STATE@@XZ 5f549650 f MFC42UD:MFC42uD.DLL
 0001:00048656       ?AfxAssertFailedLine@@YGHPBDH@Z 5f549656 f MFC42UD:MFC42uD.DLL
 0001:0004865c       ?AfxSetModuleState@@YGPAVAFX_MODULE_STATE@@PAV1@@Z 5f54965c f MFC42UD:MFC42uD.DLL
 0001:00048662       ?AfxGetModuleState@@YGPAVAFX_MODULE_STATE@@XZ 5f549662 f MFC42UD:MFC42uD.DLL
 0001:00048668       ??3CObject@@SGXPAX@Z       5f549668 f MFC42UD:MFC42uD.DLL
 0001:0004866e       ?AfxTermThread@@YGXPAUHINSTANCE__@@@Z 5f54966e f MFC42UD:MFC42uD.DLL
 0001:00048674       ?AfxTermExtensionModule@@YGXAAUAFX_EXTENSION_MODULE@@H@Z 5f549674 f MFC42UD:MFC42uD.DLL
 0001:0004867a       ??0CDynLinkLibrary@@QAE@AAUAFX_EXTENSION_MODULE@@H@Z 5f54967a f MFC42UD:MFC42uD.DLL
 0001:00048680       ??2CObject@@SGPAXI@Z       5f549680 f MFC42UD:MFC42uD.DLL
 0001:00048686       ?AfxWinInit@@YGHPAUHINSTANCE__@@0PAGH@Z 5f549686 f MFC42UD:MFC42uD.DLL
 0001:0004868c       ?AfxCoreInitModule@@YGXXZ  5f54968c f MFC42UD:MFC42uD.DLL
 0001:00048692       ?AfxInitExtensionModule@@YGHAAUAFX_EXTENSION_MODULE@@PAUHINSTANCE__@@@Z 5f549692 f MFC42UD:MFC42uD.DLL
 0001:00048698       ?AfxGetAppModuleState@@YGPAVAFX_MODULE_STATE@@XZ 5f549698 f MFC42UD:MFC42uD.DLL
 0001:0004869e       ??1AFX_MAINTAIN_STATE@@QAE@XZ 5f54969e f MFC42UD:MFC42uD.DLL
 0001:000486a4       ??0AFX_MAINTAIN_STATE@@QAE@PAVAFX_MODULE_STATE@@@Z 5f5496a4 f MFC42UD:MFC42uD.DLL
 0001:000486aa       ??0CWinApp@@QAE@PBG@Z      5f5496aa f MFC42UD:MFC42uD.DLL
 0001:000486b0       ??1CWinApp@@UAE@XZ         5f5496b0 f MFC42UD:MFC42uD.DLL
 0001:000486b6       ?AfxWndProc@@YGJPAUHWND__@@IIJ@Z 5f5496b6 f MFC42UD:MFC42uD.DLL
 0001:000486bc       ??0AFX_MODULE_STATE@@QAE@HP6GJPAUHWND__@@IIJ@ZKH@Z 5f5496bc f MFC42UD:MFC42uD.DLL
 0001:000486c2       ??1AFX_MODULE_STATE@@UAE@XZ 5f5496c2 f MFC42UD:MFC42uD.DLL
 0001:000486c8       ??3@YAXPAX@Z               5f5496c8 f MFC42UD:MFC42uD.DLL
 0001:000486ce       ??2@YAPAXI@Z               5f5496ce f MFC42UD:MFC42uD.DLL
 0001:000486d4       ??1CCmdTarget@@UAE@XZ      5f5496d4 f MFC42UD:MFC42uD.DLL
 0001:000486da       ??1CMemFile@@UAE@XZ        5f5496da f MFC42UD:MFC42uD.DLL
 0001:000486e0       ??1CString@@QAE@XZ         5f5496e0 f MFC42UD:MFC42uD.DLL
 0001:000486e6       ??1CDC@@UAE@XZ             5f5496e6 f MFC42UD:MFC42uD.DLL
 0001:000486ec       ??1CDWordArray@@UAE@XZ     5f5496ec f MFC42UD:MFC42uD.DLL
 0001:000486f2       ??1CView@@UAE@XZ           5f5496f2 f MFC42UD:MFC42uD.DLL
 0001:000486f8       ?AfxOleGetMessageFilter@@YGPAVCOleMessageFilter@@XZ 5f5496f8 f MFC42UD:MFC42uD.DLL
 0001:000486fe       ??2CObject@@SGPAXIPBDH@Z   5f5496fe f MFC42UD:MFC42uD.DLL
 0001:00048704       ?AfxGetThread@@YGPAVCWinThread@@XZ 5f549704 f MFC42UD:MFC42uD.DLL
 0001:0004870a       ?AfxTrace@@YAXPBGZZ        5f54970a f MFC42UD:MFC42uD.DLL
 0001:00048710       ?AfxOleSetUserCtrl@@YGXH@Z 5f549710 f MFC42UD:MFC42uD.DLL
 0001:00048716       ?GetConnectionHook@CCmdTarget@@MAEPAUIConnectionPoint@@ABU_GUID@@@Z 5f549716 f MFC42UD:MFC42uD.DLL
 0001:0004871c       ?GetExtraConnectionPoints@CCmdTarget@@MAEHPAVCPtrArray@@@Z 5f54971c f MFC42UD:MFC42uD.DLL
 0001:00048722       ?GetInterfaceHook@CCmdTarget@@UAEPAUIUnknown@@PBX@Z 5f549722 f MFC42UD:MFC42uD.DLL
 0001:00048728       ?OnCreateAggregates@CCmdTarget@@UAEHXZ 5f549728 f MFC42UD:MFC42uD.DLL
 0001:0004872e       ?GetEventSinkMap@CCmdTarget@@MBEPBUAFX_EVENTSINKMAP@@XZ 5f54972e f MFC42UD:MFC42uD.DLL
 0001:00048734       ?GetConnectionMap@CCmdTarget@@MBEPBUAFX_CONNECTIONMAP@@XZ 5f549734 f MFC42UD:MFC42uD.DLL
 0001:0004873a       ?GetDispatchMap@CCmdTarget@@MBEPBUAFX_DISPMAP@@XZ 5f54973a f MFC42UD:MFC42uD.DLL
 0001:00048740       ?GetCommandMap@CCmdTarget@@MBEPBUAFX_OLECMDMAP@@XZ 5f549740 f MFC42UD:MFC42uD.DLL
 0001:00048746       ?GetMessageMap@CCmdTarget@@MBEPBUAFX_MSGMAP@@XZ 5f549746 f MFC42UD:MFC42uD.DLL
 0001:0004874c       ?GetTypeLib@CCmdTarget@@UAEJKPAPAUITypeLib@@@Z 5f54974c f MFC42UD:MFC42uD.DLL
 0001:00048752       ?GetTypeLibCache@CCmdTarget@@UAEPAVCTypeLibCache@@XZ 5f549752 f MFC42UD:MFC42uD.DLL
 0001:00048758       ?GetTypeInfoCount@CCmdTarget@@UAEIXZ 5f549758 f MFC42UD:MFC42uD.DLL
 0001:0004875e       ?GetDispatchIID@CCmdTarget@@UAEHPAU_GUID@@@Z 5f54975e f MFC42UD:MFC42uD.DLL
 0001:00048764       ?IsInvokeAllowed@CCmdTarget@@UAEHJ@Z 5f549764 f MFC42UD:MFC42uD.DLL
 0001:0004876a       ?OnFinalRelease@CCmdTarget@@UAEXXZ 5f54976a f MFC42UD:MFC42uD.DLL
 0001:00048770       ?OnCmdMsg@CCmdTarget@@UAEHIHPAXPAUAFX_CMDHANDLERINFO@@@Z 5f549770 f MFC42UD:MFC42uD.DLL
 0001:00048776       ?AfxOleLockApp@@YGXXZ      5f549776 f MFC42UD:MFC42uD.DLL
 0001:0004877c       ?AfxAssertValidObject@@YGXPBVCObject@@PBDH@Z 5f54977c f MFC42UD:MFC42uD.DLL
 0001:00048782       ?AfxOleUnlockApp@@YGXXZ    5f549782 f MFC42UD:MFC42uD.DLL
 0001:00048788       ?Delete@CException@@QAEXXZ 5f549788 f MFC42UD:MFC42uD.DLL
 0001:0004878e       ?IsKindOf@CObject@@QBEHPBUCRuntimeClass@@@Z 5f54978e f MFC42UD:MFC42uD.DLL
 0001:00048794       ?AfxGetAppName@@YGPBGXZ    5f549794 f MFC42UD:MFC42uD.DLL
 0001:0004879a       ??BCString@@QBEPBGXZ       5f54979a f MFC42UD:MFC42uD.DLL
 0001:000487a0       ?GetTitle@CDocument@@QBEABVCString@@XZ 5f5497a0 f MFC42UD:MFC42uD.DLL
 0001:000487a6       ?AfxIsValidAddress@@YGHPBXIH@Z 5f5497a6 f MFC42UD:MFC42uD.DLL
 0001:000487ac       ?AfxThrowArchiveException@@YGXHPBG@Z 5f5497ac f MFC42UD:MFC42uD.DLL
 0001:000487b2       ?Read@CArchive@@QAEIPAXI@Z 5f5497b2 f MFC42UD:MFC42uD.DLL
 0001:000487b8       ?AfxThrowMemoryException@@YGXXZ 5f5497b8 f MFC42UD:MFC42uD.DLL
 0001:000487be       ??5CArchive@@QAEAAV0@AAK@Z 5f5497be f MFC42UD:MFC42uD.DLL
 0001:000487c4       ?Write@CArchive@@QAEXPBXI@Z 5f5497c4 f MFC42UD:MFC42uD.DLL
 0001:000487ca       ??6CArchive@@QAEAAV0@K@Z   5f5497ca f MFC42UD:MFC42uD.DLL
 0001:000487d0       ??5CArchive@@QAEAAV0@AAG@Z 5f5497d0 f MFC42UD:MFC42uD.DLL
 0001:000487d6       ??6CArchive@@QAEAAV0@G@Z   5f5497d6 f MFC42UD:MFC42uD.DLL
 0001:000487dc       ?IsStoring@CArchive@@QBEHXZ 5f5497dc f MFC42UD:MFC42uD.DLL
 0001:000487e2       ?GetClientRect@CWnd@@QBEXPAUtagRECT@@@Z 5f5497e2 f MFC42UD:MFC42uD.DLL
 0001:000487e8       ?IsEmpty@CString@@QBEHXZ   5f5497e8 f MFC42UD:MFC42uD.DLL
 0001:000487ee       ?GetPathName@CDocument@@QBEABVCString@@XZ 5f5497ee f MFC42UD:MFC42uD.DLL
 0001:000487f4       ?GetParentFrame@CWnd@@QBEPAVCFrameWnd@@XZ 5f5497f4 f MFC42UD:MFC42uD.DLL
 0001:000487fa       ?AfxGetFileTitle@@YGIPBGPAGI@Z 5f5497fa f MFC42UD:MFC42uD.DLL
 0001:00048800       ?IsPrinting@CDC@@QBEHXZ    5f549800 f MFC42UD:MFC42uD.DLL
 0001:00048806       ?GetWindowExt@CDC@@QBE?AVCSize@@XZ 5f549806 f MFC42UD:MFC42uD.DLL
 0001:0004880c       ?GetWindowOrg@CDC@@QBE?AVCPoint@@XZ 5f54980c f MFC42UD:MFC42uD.DLL
 0001:00048812       ?DPtoHIMETRIC@CDC@@QBEXPAUtagSIZE@@@Z 5f549812 f MFC42UD:MFC42uD.DLL
 0001:00048818       ?AfxIsValidString@@YGHPBGH@Z 5f549818 f MFC42UD:MFC42uD.DLL
 0001:0004881e       ??6CDumpContext@@QAEAAV0@PBX@Z 5f54981e f MFC42UD:MFC42uD.DLL
 0001:00048824       ??6CDumpContext@@QAEAAV0@PBD@Z 5f549824 f MFC42UD:MFC42uD.DLL
 0001:0004882a       ??6CDumpContext@@QAEAAV0@K@Z 5f54982a f MFC42UD:MFC42uD.DLL
 0001:00048830       ??6CDumpContext@@QAEAAV0@H@Z 5f549830 f MFC42UD:MFC42uD.DLL
 0001:00048836       ??6CDumpContext@@QAEAAV0@E@Z 5f549836 f MFC42UD:MFC42uD.DLL
 0001:0004883c       ??6CDumpContext@@QAEAAV0@J@Z 5f54983c f MFC42UD:MFC42uD.DLL
 0001:00048842       ?Dump@CCmdTarget@@UBEXAAVCDumpContext@@@Z 5f549842 f MFC42UD:MFC42uD.DLL
 0001:00048848       ?AssertValid@CCmdTarget@@UBEXXZ 5f549848 f MFC42UD:MFC42uD.DLL
 0001:0004884e       ?Serialize@CObject@@UAEXAAVCArchive@@@Z 5f54984e f MFC42UD:MFC42uD.DLL
 0001:00048854       ?GetRuntimeClass@CCmdTarget@@UBEPAUCRuntimeClass@@XZ 5f549854 f MFC42UD:MFC42uD.DLL
 0001:0004885a       ??0CString@@QAE@XZ         5f54985a f MFC42UD:MFC42uD.DLL
 0001:00048860       ??0CCmdTarget@@QAE@XZ      5f549860 f MFC42UD:MFC42uD.DLL
 0001:00048866       ?DelayUpdateFrameTitle@CFrameWnd@@QAEXXZ 5f549866 f MFC42UD:MFC42uD.DLL
 0001:0004886c       ?IsWindowEnabled@CWnd@@QBEHXZ 5f54986c f MFC42UD:MFC42uD.DLL
 0001:00048872       ?SendMessageW@CWnd@@QAEJIIJ@Z 5f549872 f MFC42UD:MFC42uD.DLL
 0001:00048878       ?GetSafeHwnd@CWnd@@QBEPAUHWND__@@XZ 5f549878 f MFC42UD:MFC42uD.DLL
 0001:0004887e       ?AfxIsDescendant@@YGHPAUHWND__@@0@Z 5f54987e f MFC42UD:MFC42uD.DLL
 0001:00048884       ?AfxGetApp@@YGPAVCWinApp@@XZ 5f549884 f MFC42UD:MFC42uD.DLL
 0001:0004888a       ?GetDocument@CView@@QBEPAVCDocument@@XZ 5f54988a f MFC42UD:MFC42uD.DLL
 0001:00048890       ?ModifyStyle@CWnd@@QAEHKKI@Z 5f549890 f MFC42UD:MFC42uD.DLL
 0001:00048896       ?GetStyle@CWnd@@QBEKXZ     5f549896 f MFC42UD:MFC42uD.DLL
 0001:0004889c       ?ShowControlBar@CFrameWnd@@QAEXPAVCControlBar@@HH@Z 5f54989c f MFC42UD:MFC42uD.DLL
 0001:000488a2       ?GetBarStyle@CControlBar@@QAEKXZ 5f5498a2 f MFC42UD:MFC42uD.DLL
 0001:000488a8       ?GetNext@CPtrList@@QAEAAPAXAAPAU__POSITION@@@Z 5f5498a8 f MFC42UD:MFC42uD.DLL
 0001:000488ae       ?GetHeadPosition@CPtrList@@QBEPAU__POSITION@@XZ 5f5498ae f MFC42UD:MFC42uD.DLL
 0001:000488b4       ?GetDocTemplate@CDocument@@QBEPAVCDocTemplate@@XZ 5f5498b4 f MFC42UD:MFC42uD.DLL
 0001:000488ba       ?GetTopLevelFrame@CWnd@@QBEPAVCFrameWnd@@XZ 5f5498ba f MFC42UD:MFC42uD.DLL
 0001:000488c0       ?GetParentSplitter@CView@@SGPAVCSplitterWnd@@PBVCWnd@@H@Z 5f5498c0 f MFC42UD:MFC42uD.DLL
 0001:000488c6       ?SetFocus@CWnd@@QAEPAV1@XZ 5f5498c6 f MFC42UD:MFC42uD.DLL
 0001:000488cc       ?GetTopLevelParent@CWnd@@QBEPAV1@XZ 5f5498cc f MFC42UD:MFC42uD.DLL
 0001:000488d2       ?AfxGetMainWnd@@YGPAVCWnd@@XZ 5f5498d2 f MFC42UD:MFC42uD.DLL
 0001:000488d8       ?DelayRecalcLayout@CFrameWnd@@QAEXH@Z 5f5498d8 f MFC42UD:MFC42uD.DLL
 0001:000488de       ?IsRectEmpty@CRect@@QBEHXZ 5f5498de f MFC42UD:MFC42uD.DLL
 0001:000488e4       ?IntersectRect@CRect@@QAEHPBUtagRECT@@0@Z 5f5498e4 f MFC42UD:MFC42uD.DLL
 0001:000488ea       ??BCRect@@QAEPAUtagRECT@@XZ 5f5498ea f MFC42UD:MFC42uD.DLL
 0001:000488f0       ??BCRect@@QBEPBUtagRECT@@XZ 5f5498f0 f MFC42UD:MFC42uD.DLL
 0001:000488f6       ??0CRect@@QAE@XZ           5f5498f6 f MFC42UD:MFC42uD.DLL
 0001:000488fc       ?GetSafeHmenu@CMenu@@QBEPAUHMENU__@@XZ 5f5498fc f MFC42UD:MFC42uD.DLL
 0001:00048902       ?FromHandle@CWnd@@SGPAV1@PAUHWND__@@@Z 5f549902 f MFC42UD:MFC42uD.DLL
 0001:00048908       ?PostMessageW@CWnd@@QAEHIIJ@Z 5f549908 f MFC42UD:MFC42uD.DLL
 0001:0004890e       ?CanEnterHelpMode@CFrameWnd@@QAEHXZ 5f54990e f MFC42UD:MFC42uD.DLL
 0001:00048914       ??4CString@@QAEABV0@PBG@Z  5f549914 f MFC42UD:MFC42uD.DLL
 0001:0004891a       ?Empty@CString@@QAEXXZ     5f54991a f MFC42UD:MFC42uD.DLL
 0001:00048920       ?FromHandle@CMenu@@SGPAV1@PAUHMENU__@@@Z 5f549920 f MFC42UD:MFC42uD.DLL
 0001:00048926       ??0CSize@@QAE@UtagSIZE@@@Z 5f549926 f MFC42UD:MFC42uD.DLL
 0001:0004892c       ?CopyRect@CRect@@QAEXPBUtagRECT@@@Z 5f54992c f MFC42UD:MFC42uD.DLL
 0001:00048932       ?GetData@CProcessLocalObject@@QAEPAVCNoTrackObject@@P6GPAV2@XZ@Z 5f549932 f MFC42UD:MFC42uD.DLL
 0001:00048938       ??3CNoTrackObject@@SGXPAX@Z 5f549938 f MFC42UD:MFC42uD.DLL
 0001:0004893e       ??2CNoTrackObject@@SGPAXI@Z 5f54993e f MFC42UD:MFC42uD.DLL
 0001:00048944       ?SetRectEmpty@CRect@@QAEXXZ 5f549944 f MFC42UD:MFC42uD.DLL
 0001:0004894a       ?SetRect@CRect@@QAEXHHHH@Z 5f54994a f MFC42UD:MFC42uD.DLL
 0001:00048950       ??0CSize@@QAE@HH@Z         5f549950 f MFC42UD:MFC42uD.DLL
 0001:00048956       ?GetBufferSetLength@CString@@QAEPAGH@Z 5f549956 f MFC42UD:MFC42uD.DLL
 0001:0004895c       ?SetHandle@CSharedFile@@QAEXPAXH@Z 5f54995c f MFC42UD:MFC42uD.DLL
 0001:00048962       ??0CSharedFile@@QAE@II@Z   5f549962 f MFC42UD:MFC42uD.DLL
 0001:00048968       ??0CFile@@QAE@XZ           5f549968 f MFC42UD:MFC42uD.DLL
 0001:0004896e       ??2@YAPAXIPBDH@Z           5f54996e f MFC42UD:MFC42uD.DLL
 0001:00048974       ??1CSharedFile@@UAE@XZ     5f549974 f MFC42UD:MFC42uD.DLL
 0001:0004897a       ?Detach@CSharedFile@@QAEPAXXZ 5f54997a f MFC42UD:MFC42uD.DLL
 0001:00048980       ??6CDumpContext@@QAEAAV0@I@Z 5f549980 f MFC42UD:MFC42uD.DLL
 0001:00048986       ??6CDumpContext@@QAEAAV0@G@Z 5f549986 f MFC42UD:MFC42uD.DLL
 0001:0004898c       ?GetData@CString@@IBEPAUCStringData@@XZ 5f54998c f MFC42UD:MFC42uD.DLL
 0001:00048992       ?ReportError@CException@@UAEHII@Z 5f549992 f MFC42UD:MFC42uD.DLL
 0001:00048998       ?Dump@CObject@@UBEXAAVCDumpContext@@@Z 5f549998 f MFC42UD:MFC42uD.DLL
 0001:0004899e       ?AssertValid@CObject@@UBEXXZ 5f54999e f MFC42UD:MFC42uD.DLL
 0001:000489a4       ??1CException@@UAE@XZ      5f5499a4 f MFC42UD:MFC42uD.DLL
 0001:000489aa       ??3CException@@SGXPAX@Z    5f5499aa f MFC42UD:MFC42uD.DLL
 0001:000489b0       ?AfxLoadString@@YGHIPAGI@Z 5f5499b0 f MFC42UD:MFC42uD.DLL
 0001:000489b6       ??0CException@@QAE@XZ      5f5499b6 f MFC42UD:MFC42uD.DLL
 0001:000489bc       ?PreInitDialog@CDialog@@MAEXXZ 5f5499bc f MFC42UD:MFC42uD.DLL
 0001:000489c2       ?OnCancel@CCommonDialog@@MAEXXZ 5f5499c2 f MFC42UD:MFC42uD.DLL
 0001:000489c8       ?OnOK@CCommonDialog@@MAEXXZ 5f5499c8 f MFC42UD:MFC42uD.DLL
 0001:000489ce       ?OnSetFont@CDialog@@UAEXPAVCFont@@@Z 5f5499ce f MFC42UD:MFC42uD.DLL
 0001:000489d4       ?OnInitDialog@CDialog@@UAEHXZ 5f5499d4 f MFC42UD:MFC42uD.DLL
 0001:000489da       ?SetOccDialogInfo@CDialog@@MAEHPAU_AFX_OCC_DIALOG_INFO@@@Z 5f5499da f MFC42UD:MFC42uD.DLL
 0001:000489e0       ?IsFrameWnd@CWnd@@UBEHXZ   5f5499e0 f MFC42UD:MFC42uD.DLL
 0001:000489e6       ?CheckAutoCenter@CDialog@@UAEHXZ 5f5499e6 f MFC42UD:MFC42uD.DLL
 0001:000489ec       ?OnChildNotify@CWnd@@MAEHIIJPAJ@Z 5f5499ec f MFC42UD:MFC42uD.DLL
 0001:000489f2       ?PostNcDestroy@CWnd@@MAEXXZ 5f5499f2 f MFC42UD:MFC42uD.DLL
 0001:000489f8       ?DefWindowProcW@CWnd@@MAEJIIJ@Z 5f5499f8 f MFC42UD:MFC42uD.DLL
 0001:000489fe       ?OnWndMsg@CWnd@@MAEHIIJPAJ@Z 5f5499fe f MFC42UD:MFC42uD.DLL
 0001:00048a04       ?WindowProc@CWnd@@MAEJIIJ@Z 5f549a04 f MFC42UD:MFC42uD.DLL
 0001:00048a0a       ?OnAmbientProperty@CWnd@@UAEHPAVCOleControlSite@@JPAUtagVARIANT@@@Z 5f549a0a f MFC42UD:MFC42uD.DLL
 0001:00048a10       ?PreTranslateMessage@CDialog@@UAEHPAUtagMSG@@@Z 5f549a10 f MFC42UD:MFC42uD.DLL
 0001:00048a16       ?EndModalState@CWnd@@UAEXXZ 5f549a16 f MFC42UD:MFC42uD.DLL
 0001:00048a1c       ?BeginModalState@CWnd@@UAEXXZ 5f549a1c f MFC42UD:MFC42uD.DLL
 0001:00048a22       ?DoDataExchange@CWnd@@MAEXPAVCDataExchange@@@Z 5f549a22 f MFC42UD:MFC42uD.DLL
 0001:00048a28       ?GetSuperWndProcAddr@CWnd@@MAEPAP6GJPAUHWND__@@IIJ@ZXZ 5f549a28 f MFC42UD:MFC42uD.DLL
 0001:00048a2e       ?OnNotify@CWnd@@MAEHIJPAJ@Z 5f549a2e f MFC42UD:MFC42uD.DLL
 0001:00048a34       ?OnCommand@CWnd@@MAEHIJ@Z  5f549a34 f MFC42UD:MFC42uD.DLL
 0001:00048a3a       ?EndModalLoop@CWnd@@UAEXH@Z 5f549a3a f MFC42UD:MFC42uD.DLL
 0001:00048a40       ?ContinueModal@CWnd@@UAEHXZ 5f549a40 f MFC42UD:MFC42uD.DLL
 0001:00048a46       ?WinHelpW@CWnd@@UAEXKI@Z   5f549a46 f MFC42UD:MFC42uD.DLL
 0001:00048a4c       ?GetScrollBarCtrl@CWnd@@UBEPAVCScrollBar@@H@Z 5f549a4c f MFC42UD:MFC42uD.DLL
 0001:00048a52       ?OnToolHitTest@CWnd@@UBEHVCPoint@@PAUtagTOOLINFOW@@@Z 5f549a52 f MFC42UD:MFC42uD.DLL
 0001:00048a58       ?CalcWindowRect@CWnd@@UAEXPAUtagRECT@@I@Z 5f549a58 f MFC42UD:MFC42uD.DLL
 0001:00048a5e       ?PreCreateWindow@CWnd@@UAEHAAUtagCREATESTRUCTW@@@Z 5f549a5e f MFC42UD:MFC42uD.DLL
 0001:00048a64       ?DestroyWindow@CWnd@@UAEHXZ 5f549a64 f MFC42UD:MFC42uD.DLL
 0001:00048a6a       ?Create@CWnd@@UAEHPBG0KABUtagRECT@@PAV1@IPAUCCreateContext@@@Z 5f549a6a f MFC42UD:MFC42uD.DLL
 0001:00048a70       ?PreSubclassWindow@CWnd@@UAEXXZ 5f549a70 f MFC42UD:MFC42uD.DLL
 0001:00048a76       ?GetInterfaceMap@CCmdTarget@@MBEPBUAFX_INTERFACEMAP@@XZ 5f549a76 f MFC42UD:MFC42uD.DLL
 0001:00048a7c       ?GetMessageMap@CCommonDialog@@MBEPBUAFX_MSGMAP@@XZ 5f549a7c f MFC42UD:MFC42uD.DLL
 0001:00048a82       ?OnFinalRelease@CWnd@@UAEXXZ 5f549a82 f MFC42UD:MFC42uD.DLL
 0001:00048a88       ?OnCmdMsg@CDialog@@UAEHIHPAXPAUAFX_CMDHANDLERINFO@@@Z 5f549a88 f MFC42UD:MFC42uD.DLL
 0001:00048a8e       ?AssertValid@CDialog@@UBEXXZ 5f549a8e f MFC42UD:MFC42uD.DLL
 0001:00048a94       ?AfxHelpEnabled@@YGHXZ     5f549a94 f MFC42UD:MFC42uD.DLL
 0001:00048a9a       ??1CDialog@@UAE@XZ         5f549a9a f MFC42UD:MFC42uD.DLL
 0001:00048aa0       ?PostModal@CDialog@@IAEXXZ 5f549aa0 f MFC42UD:MFC42uD.DLL
 0001:00048aa6       ?PreModal@CDialog@@IAEPAUHWND__@@XZ 5f549aa6 f MFC42UD:MFC42uD.DLL
 0001:00048aac       ??6CDumpContext@@QAEAAV0@PBG@Z 5f549aac f MFC42UD:MFC42uD.DLL
 0001:00048ab2       ??1CWaitCursor@@QAE@XZ     5f549ab2 f MFC42UD:MFC42uD.DLL
 0001:00048ab8       ?AfxMessageBox@@YGHIII@Z   5f549ab8 f MFC42UD:MFC42uD.DLL
 0001:00048abe       ??0CWaitCursor@@QAE@XZ     5f549abe f MFC42UD:MFC42uD.DLL
 0001:00048ac4       ?LoadStringW@CString@@QAEHI@Z 5f549ac4 f MFC42UD:MFC42uD.DLL
 0001:00048aca       ??6@YGAAVCDumpContext@@AAV0@ABVCString@@@Z 5f549aca f MFC42UD:MFC42uD.DLL
 0001:00048ad0       ?AfxThrowResourceException@@YGXXZ 5f549ad0 f MFC42UD:MFC42uD.DLL
 0001:00048ad6       ??0CString@@QAE@PBG@Z      5f549ad6 f MFC42UD:MFC42uD.DLL
 0001:00048adc       ??0CString@@QAE@PBGH@Z     5f549adc f MFC42UD:MFC42uD.DLL
 0001:00048ae2       ?AfxDlgProc@@YGHPAUHWND__@@IIJ@Z 5f549ae2 f MFC42UD:MFC42uD.DLL
 0001:00048ae8       ?DoModal@CDialog@@UAEHXZ   5f549ae8 f MFC42UD:MFC42uD.DLL
 0001:00048aee       ??0CCommonDialog@@QAE@PAVCWnd@@@Z 5f549aee f MFC42UD:MFC42uD.DLL
 0001:00048af4       ?Dump@CDialog@@UBEXAAVCDumpContext@@@Z 5f549af4 f MFC42UD:MFC42uD.DLL
 0001:00048afa       ?Detach@CWnd@@QAEPAUHWND__@@XZ 5f549afa f MFC42UD:MFC42uD.DLL
 0001:00048b00       ?AfxUnhookWindowCreate@@YGHXZ 5f549b00 f MFC42UD:MFC42uD.DLL
 0001:00048b06       ?AfxHookWindowCreate@@YGXPAVCWnd@@@Z 5f549b06 f MFC42UD:MFC42uD.DLL
 0001:00048b0c       ?GetSafeOwner@CWnd@@SGPAV1@PAV1@PAPAUHWND__@@@Z 5f549b0c f MFC42UD:MFC42uD.DLL
 0001:00048b12       ?CenterWindow@CWnd@@QAEXPAV1@@Z 5f549b12 f MFC42UD:MFC42uD.DLL
 0001:00048b18       ??4CString@@QAEABV0@ABV0@@Z 5f549b18 f MFC42UD:MFC42uD.DLL
 0001:00048b1e       ??0CString@@QAE@ABV0@@Z    5f549b1e f MFC42UD:MFC42uD.DLL
 0001:00048b24       ?Format@CString@@QAAXPBGZZ 5f549b24 f MFC42UD:MFC42uD.DLL
 0001:00048b2a       ?AfxLoadDll@@YGPAUHINSTANCE__@@RAPAU1@PBDPAP6GHXZ1@Z 5f549b2a f MFC42UD:MFC42uD.DLL
 0001:00048b30       ??1CProcessLocalObject@@QAE@XZ 5f549b30 f MFC42UD:MFC42uD.DLL
 0001:00048b36       ?GetDefaultAccelerator@CDocument@@UAEPAUHACCEL__@@XZ 5f549b36 f MFC42UD:MFC42uD.DLL
 0001:00048b3c       ?GetDefaultMenu@CDocument@@UAEPAUHMENU__@@XZ 5f549b3c f MFC42UD:MFC42uD.DLL
 0001:00048b42       ?UpdateFrameCounts@CDocument@@UAEXXZ 5f549b42 f MFC42UD:MFC42uD.DLL
 0001:00048b48       ?DoFileSave@CDocument@@UAEHXZ 5f549b48 f MFC42UD:MFC42uD.DLL
 0001:00048b4e       ?DoSave@CDocument@@UAEHPBGH@Z 5f549b4e f MFC42UD:MFC42uD.DLL
 0001:00048b54       ?CanCloseFrame@CDocument@@UAEHPAVCFrameWnd@@@Z 5f549b54 f MFC42UD:MFC42uD.DLL
 0001:00048b5a       ?ReleaseFile@CDocument@@UAEXPAVCFile@@H@Z 5f549b5a f MFC42UD:MFC42uD.DLL
 0001:00048b60       ?GetFile@CDocument@@UAEPAVCFile@@PBGIPAVCFileException@@@Z 5f549b60 f MFC42UD:MFC42uD.DLL
 0001:00048b66       ?ReportSaveLoadException@CDocument@@UAEXPBGPAVCException@@HI@Z 5f549b66 f MFC42UD:MFC42uD.DLL
 0001:00048b6c       ?OnChangedViewList@CDocument@@UAEXXZ 5f549b6c f MFC42UD:MFC42uD.DLL
 0001:00048b72       ?GetNextView@CDocument@@UBEPAVCView@@AAPAU__POSITION@@@Z 5f549b72 f MFC42UD:MFC42uD.DLL
 0001:00048b78       ?GetFirstViewPosition@CDocument@@UBEPAU__POSITION@@XZ 5f549b78 f MFC42UD:MFC42uD.DLL
 0001:00048b7e       ?SetModifiedFlag@CDocument@@UAEXH@Z 5f549b7e f MFC42UD:MFC42uD.DLL
 0001:00048b84       ?IsModified@CDocument@@UAEHXZ 5f549b84 f MFC42UD:MFC42uD.DLL
 0001:00048b8a       ?SetTitle@CDocument@@UAEXPBG@Z 5f549b8a f MFC42UD:MFC42uD.DLL
 0001:00048b90       ?GetMessageMap@CDocument@@MBEPBUAFX_MSGMAP@@XZ 5f549b90 f MFC42UD:MFC42uD.DLL
 0001:00048b96       ?OnFinalRelease@CDocument@@UAEXXZ 5f549b96 f MFC42UD:MFC42uD.DLL
 0001:00048b9c       ??1CDocument@@UAE@XZ       5f549b9c f MFC42UD:MFC42uD.DLL
 0001:00048ba2       ??1CObList@@UAE@XZ         5f549ba2 f MFC42UD:MFC42uD.DLL
 0001:00048ba8       ?IsEmpty@CObList@@QBEHXZ   5f549ba8 f MFC42UD:MFC42uD.DLL
 0001:00048bae       ?IsEmpty@CPtrList@@QBEHXZ  5f549bae f MFC42UD:MFC42uD.DLL
 0001:00048bb4       ??0CObList@@QAE@H@Z        5f549bb4 f MFC42UD:MFC42uD.DLL
 0001:00048bba       ??0CDocument@@QAE@XZ       5f549bba f MFC42UD:MFC42uD.DLL
 0001:00048bc0       ?GetCount@CObList@@QBEHXZ  5f549bc0 f MFC42UD:MFC42uD.DLL
 0001:00048bc6       ?AddTail@CObList@@QAEPAU__POSITION@@PAVCObject@@@Z 5f549bc6 f MFC42UD:MFC42uD.DLL
 0001:00048bcc       ?Find@CObList@@QBEPAU__POSITION@@PAVCObject@@PAU2@@Z 5f549bcc f MFC42UD:MFC42uD.DLL
 0001:00048bd2       ?RemoveAt@CObList@@QAEXPAU__POSITION@@@Z 5f549bd2 f MFC42UD:MFC42uD.DLL
 0001:00048bd8       ?GetHeadPosition@CObList@@QBEPAU__POSITION@@XZ 5f549bd8 f MFC42UD:MFC42uD.DLL
 0001:00048bde       ?GetNext@CObList@@QBEPAVCObject@@AAPAU__POSITION@@@Z 5f549bde f MFC42UD:MFC42uD.DLL
 0001:00048be4       ?SetPathName@CDocument@@UAEXPBGH@Z 5f549be4 f MFC42UD:MFC42uD.DLL
 0001:00048bea       ??6@YGAAVCArchive@@AAV0@PBVCObject@@@Z 5f549bea f MFC42UD:MFC42uD.DLL
 0001:00048bf0       ?SaveModified@CDocument@@UAEHXZ 5f549bf0 f MFC42UD:MFC42uD.DLL
 0001:00048bf6       ?AfxMessageBox@@YGHPBGII@Z 5f549bf6 f MFC42UD:MFC42uD.DLL
 0001:00048bfc       ?AfxFormatString1@@YGXAAVCString@@IPBG@Z 5f549bfc f MFC42UD:MFC42uD.DLL
 0001:00048c02       ?OnNewDocument@CDocument@@UAEHXZ 5f549c02 f MFC42UD:MFC42uD.DLL
 0001:00048c08       ?OnOpenDocument@CDocument@@UAEHPBG@Z 5f549c08 f MFC42UD:MFC42uD.DLL
 0001:00048c0e       ?AfxComparePath@@YGHPBG0@Z 5f549c0e f MFC42UD:MFC42uD.DLL
 0001:00048c14       ?OnSaveDocument@CDocument@@UAEHPBG@Z 5f549c14 f MFC42UD:MFC42uD.DLL
 0001:00048c1a       ?OnCloseDocument@CDocument@@UAEXXZ 5f549c1a f MFC42UD:MFC42uD.DLL
 0001:00048c20       ??1CFileException@@UAE@XZ  5f549c20 f MFC42UD:MFC42uD.DLL
 0001:00048c26       ??1CArchive@@QAE@XZ        5f549c26 f MFC42UD:MFC42uD.DLL
 0001:00048c2c       ?Close@CArchive@@QAEXXZ    5f549c2c f MFC42UD:MFC42uD.DLL
 0001:00048c32       ??0CArchive@@QAE@PAVCFile@@IHPAX@Z 5f549c32 f MFC42UD:MFC42uD.DLL
 0001:00048c38       ?AfxThrowFileException@@YGXHJPBG@Z 5f549c38 f MFC42UD:MFC42uD.DLL
 0001:00048c3e       ??0CFileException@@QAE@HJPBG@Z 5f549c3e f MFC42UD:MFC42uD.DLL
 0001:00048c44       ?AssertValid@CDocument@@UBEXXZ 5f549c44 f MFC42UD:MFC42uD.DLL
 0001:00048c4a       ?Dump@CDocument@@UBEXAAVCDumpContext@@@Z 5f549c4a f MFC42UD:MFC42uD.DLL
 0001:00048c50       ?GetBufferPtr@CFile@@UAEIIIPAPAX0@Z 5f549c50 f MFC42UD:MFC42uD.DLL
 0001:00048c56       ?Open@CFile@@UAEHPBGIPAVCFileException@@@Z 5f549c56 f MFC42UD:MFC42uD.DLL
 0001:00048c5c       ?SetFilePath@CFile@@UAEXPBG@Z 5f549c5c f MFC42UD:MFC42uD.DLL
 0001:00048c62       ?GetFilePath@CFile@@UBE?AVCString@@XZ 5f549c62 f MFC42UD:MFC42uD.DLL
 0001:00048c68       ?GetFileTitle@CFile@@UBE?AVCString@@XZ 5f549c68 f MFC42UD:MFC42uD.DLL
 0001:00048c6e       ?GetFileName@CFile@@UBE?AVCString@@XZ 5f549c6e f MFC42UD:MFC42uD.DLL
 0001:00048c74       ??0AFX_CLASSINIT@@QAE@PAUCRuntimeClass@@@Z 5f549c74 f MFC42UD:MFC42uD.DLL
 0001:00048c7a       ?ReadObject@CArchive@@QAEPAVCObject@@PBUCRuntimeClass@@@Z 5f549c7a f MFC42UD:MFC42uD.DLL
 0001:00048c80       ?AfxUnlockGlobals@@YGXH@Z  5f549c80 f MFC42UD:MFC42uD.DLL
 0001:00048c86       ?AfxLockGlobals@@YGXH@Z    5f549c86 f MFC42UD:MFC42uD.DLL
 0001:00048c8c       ?PtInRect@CRect@@QBEHUtagPOINT@@@Z 5f549c8c f MFC42UD:MFC42uD.DLL
 0001:00048c92       ?GetCapture@CWnd@@SGPAV1@XZ 5f549c92 f MFC42UD:MFC42uD.DLL
 0001:00048c98       ?SetCapture@CWnd@@QAEPAV1@XZ 5f549c98 f MFC42UD:MFC42uD.DLL
 0001:00048c9e       ?InflateRect@CRect@@QAEXHH@Z 5f549c9e f MFC42UD:MFC42uD.DLL
 0001:00048ca4       ?IsRectNull@CRect@@QBEHXZ  5f549ca4 f MFC42UD:MFC42uD.DLL
 0001:00048caa       ??0CPoint@@QAE@XZ          5f549caa f MFC42UD:MFC42uD.DLL
 0001:00048cb0       ?ScreenToClient@CWnd@@QBEXPAUtagPOINT@@@Z 5f549cb0 f MFC42UD:MFC42uD.DLL
 0001:00048cb6       ??0CPoint@@QAE@HH@Z        5f549cb6 f MFC42UD:MFC42uD.DLL
 0001:00048cbc       ?IsDerivedFrom@CRuntimeClass@@QBEHPBU1@@Z 5f549cbc f MFC42UD:MFC42uD.DLL
 0001:00048cc2       ?CreateObject@CRuntimeClass@@QAEPAVCObject@@XZ 5f549cc2 f MFC42UD:MFC42uD.DLL
 0001:00048cc8       ?AddHead@CSimpleList@@QAEXPAX@Z 5f549cc8 f MFC42UD:MFC42uD.DLL
 0001:00048cce       ?Remove@CSimpleList@@QAEHPAX@Z 5f549cce f MFC42UD:MFC42uD.DLL
 0001:00048cd4       ?ExitHelpMode@CFrameWnd@@UAEXXZ 5f549cd4 f MFC42UD:MFC42uD.DLL
 0001:00048cda       ?DelayUpdateFrameMenu@CFrameWnd@@UAEXPAUHMENU__@@@Z 5f549cda f MFC42UD:MFC42uD.DLL
 0001:00048ce0       ?GetDefaultAccelerator@CFrameWnd@@UAEPAUHACCEL__@@XZ 5f549ce0 f MFC42UD:MFC42uD.DLL
 0001:00048ce6       ?OnUpdateFrameMenu@CFrameWnd@@UAEXPAUHMENU__@@@Z 5f549ce6 f MFC42UD:MFC42uD.DLL
 0001:00048cec       ?OnUpdateFrameTitle@CFrameWnd@@UAEXH@Z 5f549cec f MFC42UD:MFC42uD.DLL
 0001:00048cf2       ?OnCreateClient@CFrameWnd@@MAEHPAUtagCREATESTRUCTW@@PAUCCreateContext@@@Z 5f549cf2 f MFC42UD:MFC42uD.DLL
 0001:00048cf8       ?NegotiateBorderSpace@CFrameWnd@@UAEHIPAUtagRECT@@@Z 5f549cf8 f MFC42UD:MFC42uD.DLL
 0001:00048cfe       ?GetMessageBar@CFrameWnd@@UAEPAVCWnd@@XZ 5f549cfe f MFC42UD:MFC42uD.DLL
 0001:00048d04       ?OnSetPreviewMode@CFrameWnd@@UAEXHPAUCPrintPreviewState@@@Z 5f549d04 f MFC42UD:MFC42uD.DLL
 0001:00048d0a       ?ActivateFrame@CFrameWnd@@UAEXH@Z 5f549d0a f MFC42UD:MFC42uD.DLL
 0001:00048d10       ?GetMessageString@CFrameWnd@@UBEXIAAVCString@@@Z 5f549d10 f MFC42UD:MFC42uD.DLL
 0001:00048d16       ?GetActiveFrame@CFrameWnd@@UAEPAV1@XZ 5f549d16 f MFC42UD:MFC42uD.DLL
 0001:00048d1c       ?GetActiveDocument@CFrameWnd@@UAEPAVCDocument@@XZ 5f549d1c f MFC42UD:MFC42uD.DLL
 0001:00048d22       ?LoadFrame@CFrameWnd@@UAEHIKPAVCWnd@@PAUCCreateContext@@@Z 5f549d22 f MFC42UD:MFC42uD.DLL
 0001:00048d28       ?SetOccDialogInfo@CWnd@@MAEHPAU_AFX_OCC_DIALOG_INFO@@@Z 5f549d28 f MFC42UD:MFC42uD.DLL
 0001:00048d2e       ?IsFrameWnd@CFrameWnd@@UBEHXZ 5f549d2e f MFC42UD:MFC42uD.DLL
 0001:00048d34       ?CheckAutoCenter@CWnd@@UAEHXZ 5f549d34 f MFC42UD:MFC42uD.DLL
 0001:00048d3a       ?PreTranslateMessage@CFrameWnd@@UAEHPAUtagMSG@@@Z 5f549d3a f MFC42UD:MFC42uD.DLL
 0001:00048d40       ?EndModalState@CFrameWnd@@UAEXXZ 5f549d40 f MFC42UD:MFC42uD.DLL
 0001:00048d46       ?BeginModalState@CFrameWnd@@UAEXXZ 5f549d46 f MFC42UD:MFC42uD.DLL
 0001:00048d4c       ?OnCommand@CFrameWnd@@MAEHIJ@Z 5f549d4c f MFC42UD:MFC42uD.DLL
 0001:00048d52       ?PreCreateWindow@CFrameWnd@@MAEHAAUtagCREATESTRUCTW@@@Z 5f549d52 f MFC42UD:MFC42uD.DLL
 0001:00048d58       ?GetMessageMap@CFrameWnd@@MBEPBUAFX_MSGMAP@@XZ 5f549d58 f MFC42UD:MFC42uD.DLL
 0001:00048d5e       ?Dump@CFrameWnd@@UBEXAAVCDumpContext@@@Z 5f549d5e f MFC42UD:MFC42uD.DLL
 0001:00048d64       ?GetRuntimeClass@CFrameWnd@@UBEPAUCRuntimeClass@@XZ 5f549d64 f MFC42UD:MFC42uD.DLL
 0001:00048d6a       ??1CFrameWnd@@UAE@XZ       5f549d6a f MFC42UD:MFC42uD.DLL
 0001:00048d70       ?RemoveFrameWnd@CFrameWnd@@IAEXXZ 5f549d70 f MFC42UD:MFC42uD.DLL
 0001:00048d76       ??0CFrameWnd@@QAE@XZ       5f549d76 f MFC42UD:MFC42uD.DLL
 0001:00048d7c       ?AddFrameWnd@CFrameWnd@@IAEXXZ 5f549d7c f MFC42UD:MFC42uD.DLL
 0001:00048d82       ?AfxCallWndProc@@YGJPAVCWnd@@PAUHWND__@@IIJ@Z 5f549d82 f MFC42UD:MFC42uD.DLL
 0001:00048d88       ?PostNcDestroy@CFrameWnd@@MAEXXZ 5f549d88 f MFC42UD:MFC42uD.DLL
 0001:00048d8e       ?OnCmdMsg@CFrameWnd@@UAEHIHPAXPAUAFX_CMDHANDLERINFO@@@Z 5f549d8e f MFC42UD:MFC42uD.DLL
 0001:00048d94       ?ModifyStyleEx@CWnd@@QAEHKKI@Z 5f549d94 f MFC42UD:MFC42uD.DLL
 0001:00048d9a       ?OnCreate@CFrameWnd@@IAEHPAUtagCREATESTRUCTW@@@Z 5f549d9a f MFC42UD:MFC42uD.DLL
 0001:00048da0       ?OnDestroy@CFrameWnd@@IAEXXZ 5f549da0 f MFC42UD:MFC42uD.DLL
 0001:00048da6       ?DestroyDockBars@CFrameWnd@@QAEXXZ 5f549da6 f MFC42UD:MFC42uD.DLL
 0001:00048dac       ?DisconnectViews@CDocument@@QAEXXZ 5f549dac f MFC42UD:MFC42uD.DLL
 0001:00048db2       ?OnWindowPosChanging@CWnd@@IAEXPAUtagWINDOWPOS@@@Z 5f549db2 f MFC42UD:MFC42uD.DLL
 0001:00048db8       ?LoadAccelTable@CFrameWnd@@QAEHPBG@Z 5f549db8 f MFC42UD:MFC42uD.DLL
 0001:00048dbe       ??0CRect@@QAE@HHHH@Z       5f549dbe f MFC42UD:MFC42uD.DLL
 0001:00048dc4       ?GetDlgItem@CWnd@@QBEPAV1@H@Z 5f549dc4 f MFC42UD:MFC42uD.DLL
 0001:00048dca       ?ScreenToClient@CWnd@@QBEXPAUtagRECT@@@Z 5f549dca f MFC42UD:MFC42uD.DLL
 0001:00048dd0       ?ClientToScreen@CWnd@@QBEXPAUtagRECT@@@Z 5f549dd0 f MFC42UD:MFC42uD.DLL
 0001:00048dd6       ?GetParent@CWnd@@QBEPAV1@XZ 5f549dd6 f MFC42UD:MFC42uD.DLL
 0001:00048ddc       ?RepositionBars@CWnd@@QAEXIIIIPAUtagRECT@@PBU2@H@Z 5f549ddc f MFC42UD:MFC42uD.DLL
 0001:00048de2       ?AfxRepositionWindow@@YGXPAUAFX_SIZEPARENTPARAMS@@PAUHWND__@@PBUtagRECT@@@Z 5f549de2 f MFC42UD:MFC42uD.DLL
 0001:00048de8       ?ContinueRouting@CCmdUI@@QAEXXZ 5f549de8 f MFC42UD:MFC42uD.DLL
 0001:00048dee       ?OnUpdateControlBarMenu@CFrameWnd@@QAEXPAVCCmdUI@@@Z 5f549dee f MFC42UD:MFC42uD.DLL
 0001:00048df4       ?GetControlBar@CFrameWnd@@QAEPAVCControlBar@@I@Z 5f549df4 f MFC42UD:MFC42uD.DLL
 0001:00048dfa       ?OnBarCheck@CFrameWnd@@QAEHI@Z 5f549dfa f MFC42UD:MFC42uD.DLL
 0001:00048e00       ?OnContextHelp@CFrameWnd@@QAEXXZ 5f549e00 f MFC42UD:MFC42uD.DLL
 0001:00048e06       ?AssertValid@CFrameWnd@@UBEXXZ 5f549e06 f MFC42UD:MFC42uD.DLL
 0001:00048e0c       ??6@YGAAVCDumpContext@@AAV0@ABUtagRECT@@@Z 5f549e0c f MFC42UD:MFC42uD.DLL
 0001:00048e12       ??9@YGHABVCString@@PBG@Z   5f549e12 f MFC42UD:MFC42uD.DLL
 0001:00048e18       ?SendInitialUpdate@CDocument@@QAEXXZ 5f549e18 f MFC42UD:MFC42uD.DLL
 0001:00048e1e       ?AfxOleGetUserCtrl@@YGHXZ  5f549e1e f MFC42UD:MFC42uD.DLL
 0001:00048e24       ??6CDumpContext@@QAEAAV0@PBVCObject@@@Z 5f549e24 f MFC42UD:MFC42uD.DLL
 0001:00048e2a       ??1CFile@@UAE@XZ           5f549e2a f MFC42UD:MFC42uD.DLL
 0001:00048e30       ?AfxFullPath@@YGHPAGPBG@Z  5f549e30 f MFC42UD:MFC42uD.DLL
 0001:00048e36       ?OsErrorToException@CFileException@@SGHJ@Z 5f549e36 f MFC42UD:MFC42uD.DLL
 0001:00048e3c       ??4CTime@@QAEABV0@ABV0@@Z  5f549e3c f MFC42UD:MFC42uD.DLL
 0001:00048e42       ??0CTime@@QAE@ABU_FILETIME@@H@Z 5f549e42 f MFC42UD:MFC42uD.DLL
 0001:00048e48       ?AssertValid@CFile@@UBEXXZ 5f549e48 f MFC42UD:MFC42uD.DLL
 0001:00048e4e       ?Dump@CFile@@UBEXAAVCDumpContext@@@Z 5f549e4e f MFC42UD:MFC42uD.DLL
 0001:00048e54       ??9CSize@@QBEHUtagSIZE@@@Z 5f549e54 f MFC42UD:MFC42uD.DLL
 0001:00048e5a       ?HIMETRICtoDP@CDC@@QBEXPAUtagSIZE@@@Z 5f549e5a f MFC42UD:MFC42uD.DLL
 0001:00048e60       ?Size@CRect@@QBE?AVCSize@@XZ 5f549e60 f MFC42UD:MFC42uD.DLL
 0001:00048e66       ??0CSize@@QAE@XZ           5f549e66 f MFC42UD:MFC42uD.DLL
 0001:00048e6c       ?IsWindowVisible@CWnd@@QBEHXZ 5f549e6c f MFC42UD:MFC42uD.DLL
 0001:00048e72       ?AfxFormatString2@@YGXAAVCString@@IPBG1@Z 5f549e72 f MFC42UD:MFC42uD.DLL
 0001:00048e78       ?HideApplication@CWinApp@@QAEXXZ 5f549e78 f MFC42UD:MFC42uD.DLL
 0001:00048e7e       ?SetForegroundWindow@CWnd@@QAEHXZ 5f549e7e f MFC42UD:MFC42uD.DLL
 0001:00048e84       ?SetActiveWindow@CWnd@@QAEPAV1@XZ 5f549e84 f MFC42UD:MFC42uD.DLL
 0001:00048e8a       ?ShowWindow@CWnd@@QAEHH@Z  5f549e8a f MFC42UD:MFC42uD.DLL
 0001:00048e90       ?GetLastActivePopup@CWnd@@QBEPAV1@XZ 5f549e90 f MFC42UD:MFC42uD.DLL
 0001:00048e96       ?UpdateWindow@CWnd@@QAEXXZ 5f549e96 f MFC42UD:MFC42uD.DLL
 0001:00048e9c       ?ShowOwnedWindows@CFrameWnd@@QAEXH@Z 5f549e9c f MFC42UD:MFC42uD.DLL
 0001:00048ea2       ?Attach@CWnd@@QAEHPAUHWND__@@@Z 5f549ea2 f MFC42UD:MFC42uD.DLL
 0001:00048ea8       ?CreateOleFrame@CDocTemplate@@QAEPAVCFrameWnd@@PAVCWnd@@PAVCDocument@@H@Z 5f549ea8 f MFC42UD:MFC42uD.DLL
 0001:00048eae       ?GetExStyle@CWnd@@QBEKXZ   5f549eae f MFC42UD:MFC42uD.DLL
 0001:00048eb4       ?GetDescendantWindow@CWnd@@QBEPAV1@HH@Z 5f549eb4 f MFC42UD:MFC42uD.DLL
 0001:00048eba       ?SetActiveView@CFrameWnd@@QAEXPAVCView@@H@Z 5f549eba f MFC42UD:MFC42uD.DLL
 0001:00048ec0       ?SetParent@CWnd@@QAEPAV1@PAV1@@Z 5f549ec0 f MFC42UD:MFC42uD.DLL
 0001:00048ec6       ?GetActiveView@CFrameWnd@@QBEPAVCView@@XZ 5f549ec6 f MFC42UD:MFC42uD.DLL
 0001:00048ecc       ?IsFloating@CControlBar@@QBEHXZ 5f549ecc f MFC42UD:MFC42uD.DLL
 0001:00048ed2       ?InModalState@CFrameWnd@@QBEHXZ 5f549ed2 f MFC42UD:MFC42uD.DLL
 0001:00048ed8       ?EnableWindow@CWnd@@QAEHH@Z 5f549ed8 f MFC42UD:MFC42uD.DLL
 0001:00048ede       ?GetDepth@CDumpContext@@QBEHXZ 5f549ede f MFC42UD:MFC42uD.DLL
 0001:00048ee4       ??1CMetaFileDC@@UAE@XZ     5f549ee4 f MFC42UD:MFC42uD.DLL
 0001:00048eea       ?Close@CMetaFileDC@@QAEPAUHMETAFILE__@@XZ 5f549eea f MFC42UD:MFC42uD.DLL
 0001:00048ef0       ?SetAttribDC@CMetaFileDC@@UAEXPAUHDC__@@@Z 5f549ef0 f MFC42UD:MFC42uD.DLL
 0001:00048ef6       ?Create@CMetaFileDC@@QAEHPBG@Z 5f549ef6 f MFC42UD:MFC42uD.DLL
 0001:00048efc       ??0CMetaFileDC@@QAE@XZ     5f549efc f MFC42UD:MFC42uD.DLL
 0001:00048f02       ?AfxGetInstanceHandle@@YGPAUHINSTANCE__@@XZ 5f549f02 f MFC42UD:MFC42uD.DLL
 0001:00048f08       ?AfxGetModuleShortFileName@@YGXPAUHINSTANCE__@@AAVCString@@@Z 5f549f08 f MFC42UD:MFC42uD.DLL
 0001:00048f0e       ?AfxFormatStrings@@YGXAAVCString@@PBGPBQBGH@Z 5f549f0e f MFC42UD:MFC42uD.DLL
 0001:00048f14       ?GetNextDocTemplate@CWinApp@@QBEPAVCDocTemplate@@AAPAU__POSITION@@@Z 5f549f14 f MFC42UD:MFC42uD.DLL
 0001:00048f1a       ?GetFirstDocTemplatePosition@CWinApp@@QBEPAU__POSITION@@XZ 5f549f1a f MFC42UD:MFC42uD.DLL
 0001:00048f20       ?Find@CString@@QBEHG@Z     5f549f20 f MFC42UD:MFC42uD.DLL
 0001:00048f26       ?OnCmdMsg@CDocument@@UAEHIHPAXPAUAFX_CMDHANDLERINFO@@@Z 5f549f26 f MFC42UD:MFC42uD.DLL
 0001:00048f2c       ?GetRoutingView@CCmdTarget@@IAEPAVCView@@XZ 5f549f2c f MFC42UD:MFC42uD.DLL
 0001:00048f32       ?InsertMenuW@CMenu@@QAEHIIIPBG@Z 5f549f32 f MFC42UD:MFC42uD.DLL
 0001:00048f38       ?DeleteMenu@CMenu@@QAEHII@Z 5f549f38 f MFC42UD:MFC42uD.DLL
 0001:00048f3e       ?GetMenuStringW@CMenu@@QBEHIPAGHI@Z 5f549f3e f MFC42UD:MFC42uD.DLL
 0001:00048f44       ?GetLength@CString@@QBEHXZ 5f549f44 f MFC42UD:MFC42uD.DLL
 0001:00048f4a       ?AfxFindMessageEntry@@YGPBUAFX_MSGMAP_ENTRY@@PBU1@III@Z 5f549f4a f MFC42UD:MFC42uD.DLL
 0001:00048f50       ?GetData@CByteArray@@QBEPBEXZ 5f549f50 f MFC42UD:MFC42uD.DLL
 0001:00048f56       ?GetSize@CByteArray@@QBEHXZ 5f549f56 f MFC42UD:MFC42uD.DLL
 0001:00048f5c       ??6CDumpContext@@QAEAAV0@N@Z 5f549f5c f MFC42UD:MFC42uD.DLL
 0001:00048f62       ??6CDumpContext@@QAEAAV0@M@Z 5f549f62 f MFC42UD:MFC42uD.DLL
 0001:00048f68       ??0CArchiveStream@@QAE@PAVCArchive@@@Z 5f549f68 f MFC42UD:MFC42uD.DLL
 0001:00048f6e       ??6CArchive@@QAEAAV0@J@Z   5f549f6e f MFC42UD:MFC42uD.DLL
 0001:00048f74       ??6CArchive@@QAEAAV0@N@Z   5f549f74 f MFC42UD:MFC42uD.DLL
 0001:00048f7a       ??6CArchive@@QAEAAV0@M@Z   5f549f7a f MFC42UD:MFC42uD.DLL
 0001:00048f80       ??6CArchive@@QAEAAV0@E@Z   5f549f80 f MFC42UD:MFC42uD.DLL
 0001:00048f86       ??5CArchive@@QAEAAV0@AAJ@Z 5f549f86 f MFC42UD:MFC42uD.DLL
 0001:00048f8c       ??5CArchive@@QAEAAV0@AAN@Z 5f549f8c f MFC42UD:MFC42uD.DLL
 0001:00048f92       ??5CArchive@@QAEAAV0@AAM@Z 5f549f92 f MFC42UD:MFC42uD.DLL
 0001:00048f98       ??5CArchive@@QAEAAV0@AAE@Z 5f549f98 f MFC42UD:MFC42uD.DLL
 0001:00048f9e       ?ReleaseBuffer@CString@@QAEXH@Z 5f549f9e f MFC42UD:MFC42uD.DLL
 0001:00048fa4       ?AfxSetWindowText@@YGXPAUHWND__@@PBG@Z 5f549fa4 f MFC42UD:MFC42uD.DLL
 0001:00048faa       ?Fail@CDataExchange@@QAEXXZ 5f549faa f MFC42UD:MFC42uD.DLL
 0001:00048fb0       ?PrepareEditCtrl@CDataExchange@@QAEPAUHWND__@@H@Z 5f549fb0 f MFC42UD:MFC42uD.DLL
 0001:00048fb6       ?OnSize@CWnd@@IAEXIHH@Z    5f549fb6 f MFC42UD:MFC42uD.DLL
 0001:00048fbc       ?OnEndPrintPreview@CView@@MAEXPAVCDC@@PAUCPrintInfo@@UtagPOINT@@PAVCPreviewView@@@Z 5f549fbc f MFC42UD:MFC42uD.DLL
 0001:00048fc2       ?OnPreparePrinting@CView@@MAEHPAUCPrintInfo@@@Z 5f549fc2 f MFC42UD:MFC42uD.DLL
 0001:00048fc8       ?OnDraw@CCtrlView@@MAEXPAVCDC@@@Z 5f549fc8 f MFC42UD:MFC42uD.DLL
 0001:00048fce       ?OnUpdate@CView@@MAEXPAV1@JPAVCObject@@@Z 5f549fce f MFC42UD:MFC42uD.DLL
 0001:00048fd4       ?OnActivateFrame@CView@@MAEXIPAVCFrameWnd@@@Z 5f549fd4 f MFC42UD:MFC42uD.DLL
 0001:00048fda       ?OnActivateView@CView@@MAEXHPAV1@0@Z 5f549fda f MFC42UD:MFC42uD.DLL
 0001:00048fe0       ?OnDragScroll@CView@@UAEKKVCPoint@@@Z 5f549fe0 f MFC42UD:MFC42uD.DLL
 0001:00048fe6       ?OnDropEx@CView@@UAEKPAVCOleDataObject@@KKVCPoint@@@Z 5f549fe6 f MFC42UD:MFC42uD.DLL
 0001:00048fec       ?OnDrop@CView@@UAEHPAVCOleDataObject@@KVCPoint@@@Z 5f549fec f MFC42UD:MFC42uD.DLL
 0001:00048ff2       ?OnDragLeave@CView@@UAEXXZ 5f549ff2 f MFC42UD:MFC42uD.DLL
 0001:00048ff8       ?OnDragOver@CView@@UAEKPAVCOleDataObject@@KVCPoint@@@Z 5f549ff8 f MFC42UD:MFC42uD.DLL
 0001:00048ffe       ?OnDragEnter@CView@@UAEKPAVCOleDataObject@@KVCPoint@@@Z 5f549ffe f MFC42UD:MFC42uD.DLL
 0001:00049004       ?OnScrollBy@CView@@UAEHVCSize@@H@Z 5f54a004 f MFC42UD:MFC42uD.DLL
 0001:0004900a       ?OnScroll@CView@@UAEHIIH@Z 5f54a00a f MFC42UD:MFC42uD.DLL
 0001:00049010       ?PostNcDestroy@CView@@MAEXXZ 5f54a010 f MFC42UD:MFC42uD.DLL
 0001:00049016       ?PreTranslateMessage@CWnd@@UAEHPAUtagMSG@@@Z 5f54a016 f MFC42UD:MFC42uD.DLL
 0001:0004901c       ?GetScrollBarCtrl@CView@@UBEPAVCScrollBar@@H@Z 5f54a01c f MFC42UD:MFC42uD.DLL
 0001:00049022       ?CalcWindowRect@CView@@UAEXPAUtagRECT@@I@Z 5f54a022 f MFC42UD:MFC42uD.DLL
 0001:00049028       ?OnCmdMsg@CView@@MAEHIHPAXPAUAFX_CMDHANDLERINFO@@@Z 5f54a028 f MFC42UD:MFC42uD.DLL
 0001:0004902e       ??0CDWordArray@@QAE@XZ     5f54a02e f MFC42UD:MFC42uD.DLL
 0001:00049034       ??0CDC@@QAE@XZ             5f54a034 f MFC42UD:MFC42uD.DLL
 0001:0004903a       ??0CCtrlView@@QAE@PBGK@Z   5f54a03a f MFC42UD:MFC42uD.DLL
 0001:00049040       ?PreCreateWindow@CCtrlView@@MAEHAAUtagCREATESTRUCTW@@@Z 5f54a040 f MFC42UD:MFC42uD.DLL
 0001:00049046       ?AfxGetRichEditState@@YAPAV_AFX_RICHEDIT_STATE@@XZ 5f54a046 f MFC42UD:MFC42uD.DLL
 0001:0004904c       ?SetOptions@CRichEditCtrl@@QAEXGK@Z 5f54a04c f MFC42UD:MFC42uD.DLL
 0001:00049052       ?DragAcceptFiles@CWnd@@QAEXH@Z 5f54a052 f MFC42UD:MFC42uD.DLL
 0001:00049058       ?GetIRichEditOle@CRichEditCtrl@@QBEPAUIRichEditOle@@XZ 5f54a058 f MFC42UD:MFC42uD.DLL
 0001:0004905e       ?SetOLECallback@CRichEditCtrl@@QAEHPAUIRichEditOleCallback@@@Z 5f54a05e f MFC42UD:MFC42uD.DLL
 0001:00049064       ?SetEventMask@CRichEditCtrl@@QAEKK@Z 5f54a064 f MFC42UD:MFC42uD.DLL
 0001:0004906a       ?LimitText@CRichEditCtrl@@QAEXJ@Z 5f54a06a f MFC42UD:MFC42uD.DLL
 0001:00049070       ?OnCreate@CView@@IAEHPAUtagCREATESTRUCTW@@@Z 5f54a070 f MFC42UD:MFC42uD.DLL
 0001:00049076       ?OnInitialUpdate@CView@@UAEXXZ 5f54a076 f MFC42UD:MFC42uD.DLL
 0001:0004907c       ?EmptyUndoBuffer@CRichEditCtrl@@QAEXXZ 5f54a07c f MFC42UD:MFC42uD.DLL
 0001:00049082       ?SetWindowTextW@CWnd@@QAEXPBG@Z 5f54a082 f MFC42UD:MFC42uD.DLL
 0001:00049088       ?SetTargetDevice@CRichEditCtrl@@QAEHAAVCDC@@J@Z 5f54a088 f MFC42UD:MFC42uD.DLL
 0001:0004908e       ?CreateDCW@CDC@@QAEHPBG00PBX@Z 5f54a08e f MFC42UD:MFC42uD.DLL
 0001:00049094       ?CreatePrinterDC@CWinApp@@QAEHAAVCDC@@@Z 5f54a094 f MFC42UD:MFC42uD.DLL
 0001:0004909a       ?SetTargetDevice@CRichEditCtrl@@QAEHPAUHDC__@@J@Z 5f54a09a f MFC42UD:MFC42uD.DLL
 0001:000490a0       ?Invalidate@CWnd@@QAEXH@Z  5f54a0a0 f MFC42UD:MFC42uD.DLL
 0001:000490a6       ?StreamIn@CRichEditCtrl@@QAEJHAAU_editstream@@@Z 5f54a0a6 f MFC42UD:MFC42uD.DLL
 0001:000490ac       ?StreamOut@CRichEditCtrl@@QAEJHAAU_editstream@@@Z 5f54a0ac f MFC42UD:MFC42uD.DLL
 0001:000490b2       ?ReadHuge@CFile@@QAEKPAXK@Z 5f54a0b2 f MFC42UD:MFC42uD.DLL
 0001:000490b8       ?GetFile@CArchive@@QBEPAVCFile@@XZ 5f54a0b8 f MFC42UD:MFC42uD.DLL
 0001:000490be       ?WriteHuge@CFile@@QAEXPBXK@Z 5f54a0be f MFC42UD:MFC42uD.DLL
 0001:000490c4       ?Flush@CArchive@@QAEXXZ    5f54a0c4 f MFC42UD:MFC42uD.DLL
 0001:000490ca       ?FormatRange@CRichEditCtrl@@QAEJPAU_formatrange@@H@Z 5f54a0ca f MFC42UD:MFC42uD.DLL
 0001:000490d0       ?GetSize@CDWordArray@@QBEHXZ 5f54a0d0 f MFC42UD:MFC42uD.DLL
 0001:000490d6       ?Add@CDWordArray@@QAEHK@Z  5f54a0d6 f MFC42UD:MFC42uD.DLL
 0001:000490dc       ?DPtoLP@CDC@@QBEXPAUtagRECT@@@Z 5f54a0dc f MFC42UD:MFC42uD.DLL
 0001:000490e2       ?GetDeviceCaps@CDC@@QBEHH@Z 5f54a0e2 f MFC42UD:MFC42uD.DLL
 0001:000490e8       ?IntersectClipRect@CDC@@QAEHHHHH@Z 5f54a0e8 f MFC42UD:MFC42uD.DLL
 0001:000490ee       ??ACDWordArray@@QAEAAKH@Z  5f54a0ee f MFC42UD:MFC42uD.DLL
 0001:000490f4       ?SetMaxPage@CPrintInfo@@QAEXI@Z 5f54a0f4 f MFC42UD:MFC42uD.DLL
 0001:000490fa       ?RemoveAll@CDWordArray@@QAEXXZ 5f54a0fa f MFC42UD:MFC42uD.DLL
 0001:00049100       ?GetSel@CRichEditCtrl@@QBEXAAJ0@Z 5f54a100 f MFC42UD:MFC42uD.DLL
 0001:00049106       ?CanUndo@CRichEditCtrl@@QBEHXZ 5f54a106 f MFC42UD:MFC42uD.DLL
 0001:0004910c       ?Cut@CRichEditCtrl@@QAEXXZ 5f54a10c f MFC42UD:MFC42uD.DLL
 0001:00049112       ?Copy@CRichEditCtrl@@QAEXXZ 5f54a112 f MFC42UD:MFC42uD.DLL
 0001:00049118       ?Paste@CRichEditCtrl@@QAEXXZ 5f54a118 f MFC42UD:MFC42uD.DLL
 0001:0004911e       ?Clear@CRichEditCtrl@@QAEXXZ 5f54a11e f MFC42UD:MFC42uD.DLL
 0001:00049124       ?Undo@CRichEditCtrl@@QAEHXZ 5f54a124 f MFC42UD:MFC42uD.DLL
 0001:0004912a       ?SetSel@CRichEditCtrl@@QAEXJJ@Z 5f54a12a f MFC42UD:MFC42uD.DLL
 0001:00049130       ?OnDestroy@CView@@IAEXXZ   5f54a130 f MFC42UD:MFC42uD.DLL
 0001:00049136       ?GetCharFormat@CFontDialog@@QBEXAAU_charformatw@@@Z 5f54a136 f MFC42UD:MFC42uD.DLL
 0001:0004913c       ?DoModal@CFontDialog@@UAEHXZ 5f54a13c f MFC42UD:MFC42uD.DLL
 0001:00049142       ??0CFontDialog@@QAE@ABU_charformatw@@KPAVCDC@@PAVCWnd@@@Z 5f54a142 f MFC42UD:MFC42uD.DLL
 0001:00049148       ?PasteSpecial@CRichEditCtrl@@QAEXIKPAUHMETAFILE__@@@Z 5f54a148 f MFC42UD:MFC42uD.DLL
 0001:0004914e       ?OnKeyDown@CWnd@@IAEXIII@Z 5f54a14e f MFC42UD:MFC42uD.DLL
 0001:00049154       ?CenterPoint@CRect@@QBE?AVCPoint@@XZ 5f54a154 f MFC42UD:MFC42uD.DLL
 0001:0004915a       ?SetSel@CRichEditCtrl@@QAEXAAU_charrange@@@Z 5f54a15a f MFC42UD:MFC42uD.DLL
 0001:00049160       ?GetSel@CRichEditCtrl@@QBEXAAU_charrange@@@Z 5f54a160 f MFC42UD:MFC42uD.DLL
 0001:00049166       ?CanPaste@CRichEditCtrl@@QBEHI@Z 5f54a166 f MFC42UD:MFC42uD.DLL
 0001:0004916c       ?GetSelectionCharFormat@CRichEditCtrl@@QBEKAAU_charformatw@@@Z 5f54a16c f MFC42UD:MFC42uD.DLL
 0001:00049172       ?GetParaFormat@CRichEditCtrl@@QBEKAAU_paraformat@@@Z 5f54a172 f MFC42UD:MFC42uD.DLL
 0001:00049178       ?SetSelectionCharFormat@CRichEditCtrl@@QAEHAAU_charformatw@@@Z 5f54a178 f MFC42UD:MFC42uD.DLL
 0001:0004917e       ?SetParaFormat@CRichEditCtrl@@QAEHAAU_paraformat@@@Z 5f54a17e f MFC42UD:MFC42uD.DLL
 0001:00049184       ?MoveWindow@CWnd@@QAEXPBUtagRECT@@H@Z 5f54a184 f MFC42UD:MFC42uD.DLL
 0001:0004918a       ?OffsetRect@CRect@@QAEXHH@Z 5f54a18a f MFC42UD:MFC42uD.DLL
 0001:00049190       ?Height@CRect@@QBEHXZ      5f54a190 f MFC42UD:MFC42uD.DLL
 0001:00049196       ?GetWindowRect@CWnd@@QBEXPAUtagRECT@@@Z 5f54a196 f MFC42UD:MFC42uD.DLL
 0001:0004919c       ?ClientToScreen@CWnd@@QBEXPAUtagPOINT@@@Z 5f54a19c f MFC42UD:MFC42uD.DLL
 0001:000491a2       ?GetCharPos@CRichEditCtrl@@QBE?AVCPoint@@J@Z 5f54a1a2 f MFC42UD:MFC42uD.DLL
 0001:000491a8       ?Create@CFindReplaceDialog@@QAEHHPBG0KPAVCWnd@@@Z 5f54a1a8 f MFC42UD:MFC42uD.DLL
 0001:000491ae       ??0CFindReplaceDialog@@QAE@XZ 5f54a1ae f MFC42UD:MFC42uD.DLL
 0001:000491b4       ?FindOneOf@CString@@QBEHPBG@Z 5f54a1b4 f MFC42UD:MFC42uD.DLL
 0001:000491ba       ?GetSelText@CRichEditCtrl@@QBE?AVCString@@XZ 5f54a1ba f MFC42UD:MFC42uD.DLL
 0001:000491c0       ?ReplaceSel@CRichEditCtrl@@QAEXPBGH@Z 5f54a1c0 f MFC42UD:MFC42uD.DLL
 0001:000491c6       ?HideSelection@CRichEditCtrl@@QAEXHH@Z 5f54a1c6 f MFC42UD:MFC42uD.DLL
 0001:000491cc       ?GetFindString@CFindReplaceDialog@@QBE?AVCString@@XZ 5f54a1cc f MFC42UD:MFC42uD.DLL
 0001:000491d2       ?GetReplaceString@CFindReplaceDialog@@QBE?AVCString@@XZ 5f54a1d2 f MFC42UD:MFC42uD.DLL
 0001:000491d8       ?MatchCase@CFindReplaceDialog@@QBEHXZ 5f54a1d8 f MFC42UD:MFC42uD.DLL
 0001:000491de       ?MatchWholeWord@CFindReplaceDialog@@QBEHXZ 5f54a1de f MFC42UD:MFC42uD.DLL
 0001:000491e4       ?ReplaceAll@CFindReplaceDialog@@QBEHXZ 5f54a1e4 f MFC42UD:MFC42uD.DLL
 0001:000491ea       ?SearchDown@CFindReplaceDialog@@QBEHXZ 5f54a1ea f MFC42UD:MFC42uD.DLL
 0001:000491f0       ?ReplaceCurrent@CFindReplaceDialog@@QBEHXZ 5f54a1f0 f MFC42UD:MFC42uD.DLL
 0001:000491f6       ?FindNext@CFindReplaceDialog@@QBEHXZ 5f54a1f6 f MFC42UD:MFC42uD.DLL
 0001:000491fc       ?IsTerminating@CFindReplaceDialog@@QBEHXZ 5f54a1fc f MFC42UD:MFC42uD.DLL
 0001:00049202       ?GetNotifier@CFindReplaceDialog@@SGPAV1@J@Z 5f54a202 f MFC42UD:MFC42uD.DLL
 0001:00049208       ?FindTextW@CRichEditCtrl@@QBEJKPAU_findtextexw@@@Z 5f54a208 f MFC42UD:MFC42uD.DLL
 0001:0004920e       ?AssertValid@CCtrlView@@UBEXXZ 5f54a20e f MFC42UD:MFC42uD.DLL
 0001:00049214       ??1_AFX_EDIT_STATE@@UAE@XZ 5f54a214 f MFC42UD:MFC42uD.DLL
 0001:0004921a       ??0_AFX_EDIT_STATE@@QAE@XZ 5f54a21a f MFC42UD:MFC42uD.DLL
 0001:00049220       ?Dump@CCtrlView@@UBEXAAVCDumpContext@@@Z 5f54a220 f MFC42UD:MFC42uD.DLL
 0001:00049226       ??1_AFX_RICHEDIT_STATE@@UAE@XZ 5f54a226 f MFC42UD:MFC42uD.DLL
 0001:0004922c       ?GetModify@CRichEditCtrl@@QBEHXZ 5f54a22c f MFC42UD:MFC42uD.DLL
 0001:00049232       ?SetModify@CRichEditCtrl@@QAEXH@Z 5f54a232 f MFC42UD:MFC42uD.DLL
 0001:00049238       ?AfxW2AHelper@@YGPADPADPBGH@Z 5f54a238 f MFC42UD:MFC42uD.DLL
 0001:0004923e       ?AfxDynamicDownCast@@YAPAVCObject@@PAUCRuntimeClass@@PAV1@@Z 5f54a23e f MFC42UD:MFC42uD.DLL
 0001:00049244       ??0CRect@@QAE@UtagPOINT@@UtagSIZE@@@Z 5f54a244 f MFC42UD:MFC42uD.DLL
 0001:0004924a       ?GetTextLength@CRichEditCtrl@@QBEJXZ 5f54a24a f MFC42UD:MFC42uD.DLL
 0001:00049250       ?AfxOleCanExitApp@@YGHXZ   5f54a250 f MFC42UD:MFC42uD.DLL
 0001:00049256       ?SetAt@CMapPtrToPtr@@QAEXPAX0@Z 5f54a256 f MFC42UD:MFC42uD.DLL
 0001:0004925c       ?Lookup@CMapPtrToPtr@@QBEHPAXAAPAX@Z 5f54a25c f MFC42UD:MFC42uD.DLL
 0001:00049262       ??0CMapPtrToPtr@@QAE@H@Z   5f54a262 f MFC42UD:MFC42uD.DLL
 0001:00049268       ?AfxFindResourceHandle@@YGPAUHINSTANCE__@@PBG0@Z 5f54a268 f MFC42UD:MFC42uD.DLL
 0001:0004926e       ?GetNextAssoc@CMapPtrToPtr@@QBEXAAPAU__POSITION@@AAPAX1@Z 5f54a26e f MFC42UD:MFC42uD.DLL
 0001:00049274       ?GetStartPosition@CMapPtrToPtr@@QBEPAU__POSITION@@XZ 5f54a274 f MFC42UD:MFC42uD.DLL
 0001:0004927a       ??0CMemFile@@QAE@PAEII@Z   5f54a27a f MFC42UD:MFC42uD.DLL
 0001:00049280       ??4CString@@QAEABV0@PBD@Z  5f54a280 f MFC42UD:MFC42uD.DLL
 0001:00049286       ?AfxThrowNotSupportedException@@YGXXZ 5f54a286 f MFC42UD:MFC42uD.DLL
 0001:0004928c       ??1CMapPtrToPtr@@UAE@XZ    5f54a28c f MFC42UD:MFC42uD.DLL
 0001:00049292       ?RemoveAll@CMapPtrToPtr@@QAEXXZ 5f54a292 f MFC42UD:MFC42uD.DLL
 0001:00049298       ??1CWindowDC@@UAE@XZ       5f54a298 f MFC42UD:MFC42uD.DLL
 0001:0004929e       ?GetFont@CWnd@@QBEPAVCFont@@XZ 5f54a29e f MFC42UD:MFC42uD.DLL
 0001:000492a4       ?GetTextColor@CDC@@QBEKXZ  5f54a2a4 f MFC42UD:MFC42uD.DLL
 0001:000492aa       ?GetBkColor@CDC@@QBEKXZ    5f54a2aa f MFC42UD:MFC42uD.DLL
 0001:000492b0       ??0CWindowDC@@QAE@PAVCWnd@@@Z 5f54a2b0 f MFC42UD:MFC42uD.DLL
 0001:000492b6       ?AfxGetCtl3dState@@YGPAV_AFX_CTL3D_STATE@@XZ 5f54a2b6 f MFC42UD:MFC42uD.DLL
 0001:000492bc       ??1CFont@@UAE@XZ           5f54a2bc f MFC42UD:MFC42uD.DLL
 0001:000492c2       ?GetLogFont@CFont@@QAEHPAUtagLOGFONTW@@@Z 5f54a2c2 f MFC42UD:MFC42uD.DLL
 0001:000492c8       ?CreateStockObject@CGdiObject@@QAEHH@Z 5f54a2c8 f MFC42UD:MFC42uD.DLL
 0001:000492ce       ??0CFont@@QAE@XZ           5f54a2ce f MFC42UD:MFC42uD.DLL
 0001:000492d4       ?GetWindowTextW@CWnd@@QBEHPAGH@Z 5f54a2d4 f MFC42UD:MFC42uD.DLL
 0001:000492da       ?GetProperty@CWnd@@QBEXJGPAX@Z 5f54a2da f MFC42UD:MFC42uD.DLL
 0001:000492e0       ?GetCount@CMapPtrToPtr@@QBEHXZ 5f54a2e0 f MFC42UD:MFC42uD.DLL
 0001:000492e6       ??1CClientDC@@UAE@XZ       5f54a2e6 f MFC42UD:MFC42uD.DLL
 0001:000492ec       ??0CClientDC@@QAE@PAVCWnd@@@Z 5f54a2ec f MFC42UD:MFC42uD.DLL
 0001:000492f2       ??4CRect@@QAEXABUtagRECT@@@Z 5f54a2f2 f MFC42UD:MFC42uD.DLL
 0001:000492f8       ?RemoveKey@CMapPtrToPtr@@QAEHPAX@Z 5f54a2f8 f MFC42UD:MFC42uD.DLL
 0001:000492fe       ?UnsubclassWindow@CWnd@@QAEPAUHWND__@@XZ 5f54a2fe f MFC42UD:MFC42uD.DLL
 0001:00049304       ?ModifyStyle@CWnd@@SGHPAUHWND__@@KKI@Z 5f54a304 f MFC42UD:MFC42uD.DLL
 0001:0004930a       ?ModifyStyleEx@CWnd@@SGHPAUHWND__@@KKI@Z 5f54a30a f MFC42UD:MFC42uD.DLL
 0001:00049310       ?Width@CRect@@QBEHXZ       5f54a310 f MFC42UD:MFC42uD.DLL
 0001:00049316       ?GetFocus@CWnd@@SGPAV1@XZ  5f54a316 f MFC42UD:MFC42uD.DLL
 0001:0004931c       ??0CRect@@QAE@PBUtagRECT@@@Z 5f54a31c f MFC42UD:MFC42uD.DLL
 0001:00049322       ??1CPtrList@@UAE@XZ        5f54a322 f MFC42UD:MFC42uD.DLL
 0001:00049328       ??0CPtrList@@QAE@H@Z       5f54a328 f MFC42UD:MFC42uD.DLL
 0001:0004932e       ?RemoveAll@CPtrList@@QAEXXZ 5f54a32e f MFC42UD:MFC42uD.DLL
 0001:00049334       ?GetHead@CPtrList@@QAEAAPAXXZ 5f54a334 f MFC42UD:MFC42uD.DLL
 0001:0004933a       ?MoveWindow@CWnd@@QAEXHHHHH@Z 5f54a33a f MFC42UD:MFC42uD.DLL
 0001:00049340       ?GetDesktopWindow@CWnd@@SGPAV1@XZ 5f54a340 f MFC42UD:MFC42uD.DLL
 0001:00049346       ?RemoveAt@CPtrList@@QAEXPAU__POSITION@@@Z 5f54a346 f MFC42UD:MFC42uD.DLL
 0001:0004934c       ?AddTail@CPtrList@@QAEPAU__POSITION@@PAX@Z 5f54a34c f MFC42UD:MFC42uD.DLL
 0001:00049352       ??8@YGHABVCString@@0@Z     5f54a352 f MFC42UD:MFC42uD.DLL
 0001:00049358       ??0CString@@QAE@PBD@Z      5f54a358 f MFC42UD:MFC42uD.DLL
 0001:0004935e       ?Find@CPtrList@@QBEPAU__POSITION@@PAXPAU2@@Z 5f54a35e f MFC42UD:MFC42uD.DLL
 0001:00049364       ?GetCount@CPtrList@@QBEHXZ 5f54a364 f MFC42UD:MFC42uD.DLL
 0001:0004936a       ?SetProperty@CWnd@@QAAXJGZZ 5f54a36a f MFC42UD:MFC42uD.DLL
 0001:00049370       ?IsChild@CWnd@@QBEHPBV1@@Z 5f54a370 f MFC42UD:MFC42uD.DLL
 0001:00049376       ?GetDlgCtrlID@CWnd@@QBEHXZ 5f54a376 f MFC42UD:MFC42uD.DLL
 0001:0004937c       ?GetNextWindow@CWnd@@QBEPAV1@I@Z 5f54a37c f MFC42UD:MFC42uD.DLL
 0001:00049382       ?GetTopWindow@CWnd@@QBEPAV1@XZ 5f54a382 f MFC42UD:MFC42uD.DLL
 0001:00049388       ?InvokeHelper@CWnd@@QAAXJGGPAXPBEZZ 5f54a388 f MFC42UD:MFC42uD.DLL
 0001:0004938e       ?GetNextDlgGroupItem@CWnd@@QBEPAV1@PAV1@H@Z 5f54a38e f MFC42UD:MFC42uD.DLL
 0001:00049394       ?GetNextDlgTabItem@CWnd@@QBEPAV1@PAV1@H@Z 5f54a394 f MFC42UD:MFC42uD.DLL
 0001:0004939a       ??1CPrintInfo@@QAE@XZ      5f54a39a f MFC42UD:MFC42uD.DLL
 0001:000493a0       ?GetFromPage@CPrintInfo@@QBEIXZ 5f54a3a0 f MFC42UD:MFC42uD.DLL
 0001:000493a6       ?GetToPage@CPrintInfo@@QBEIXZ 5f54a3a6 f MFC42UD:MFC42uD.DLL
 0001:000493ac       ?GetMinPage@CPrintInfo@@QBEIXZ 5f54a3ac f MFC42UD:MFC42uD.DLL
 0001:000493b2       ??0CPrintInfo@@QAE@XZ      5f54a3b2 f MFC42UD:MFC42uD.DLL
 0001:000493b8       ?Detach@CDC@@QAEPAUHDC__@@XZ 5f54a3b8 f MFC42UD:MFC42uD.DLL
 0001:000493be       ?AbortDoc@CDC@@QAEHXZ      5f54a3be f MFC42UD:MFC42uD.DLL
 0001:000493c4       ?EndDoc@CDC@@QAEHXZ        5f54a3c4 f MFC42UD:MFC42uD.DLL
 0001:000493ca       ?_AfxAbortProc@@YGHPAUHDC__@@H@Z 5f54a3ca f MFC42UD:MFC42uD.DLL
 0001:000493d0       ?EndPage@CDC@@QAEHXZ       5f54a3d0 f MFC42UD:MFC42uD.DLL
 0001:000493d6       ?StartPage@CDC@@QAEHXZ     5f54a3d6 f MFC42UD:MFC42uD.DLL
 0001:000493dc       ?GetMaxPage@CPrintInfo@@QBEIXZ 5f54a3dc f MFC42UD:MFC42uD.DLL
 0001:000493e2       ?StartDocW@CDC@@QAEHPAU_DOCINFOW@@@Z 5f54a3e2 f MFC42UD:MFC42uD.DLL
 0001:000493e8       ?SetAbortProc@CDC@@QAEHP6GHPAUHDC__@@H@Z@Z 5f54a3e8 f MFC42UD:MFC42uD.DLL
 0001:000493ee       ?Attach@CDC@@QAEHPAUHDC__@@@Z 5f54a3ee f MFC42UD:MFC42uD.DLL
 0001:000493f4       ?GetBuffer@CString@@QAEPAGH@Z 5f54a3f4 f MFC42UD:MFC42uD.DLL
 0001:000493fa       ?GetWindowTextW@CWnd@@QBEXAAVCString@@@Z 5f54a3fa f MFC42UD:MFC42uD.DLL
 0001:00049400       ?SetRadio@CCmdUI@@UAEXH@Z  5f54a400 f MFC42UD:MFC42uD.DLL
 0001:00049406       ??0CCmdUI@@QAE@XZ          5f54a406 f MFC42UD:MFC42uD.DLL
 0001:0004940c       ?Right@CString@@QBE?AV1@H@Z 5f54a40c f MFC42UD:MFC42uD.DLL
 0001:00049412       ?SetStatusText@CControlBar@@UAEHH@Z 5f54a412 f MFC42UD:MFC42uD.DLL
 0001:00049418       ?DoPaint@CControlBar@@UAEXPAVCDC@@@Z 5f54a418 f MFC42UD:MFC42uD.DLL
 0001:0004941e       ?OnBarStyleChange@CControlBar@@UAEXKK@Z 5f54a41e f MFC42UD:MFC42uD.DLL
 0001:00049424       ?IsDockBar@CControlBar@@UBEHXZ 5f54a424 f MFC42UD:MFC42uD.DLL
 0001:0004942a       ?RecalcDelayShow@CControlBar@@UAEKPAUAFX_SIZEPARENTPARAMS@@@Z 5f54a42a f MFC42UD:MFC42uD.DLL
 0001:00049430       ?IsVisible@CControlBar@@UBEHXZ 5f54a430 f MFC42UD:MFC42uD.DLL
 0001:00049436       ?DelayShow@CControlBar@@UAEXH@Z 5f54a436 f MFC42UD:MFC42uD.DLL
 0001:0004943c       ?CalcDynamicLayout@CControlBar@@UAE?AVCSize@@HK@Z 5f54a43c f MFC42UD:MFC42uD.DLL
 0001:00049442       ?CalcFixedLayout@CControlBar@@UAE?AVCSize@@HH@Z 5f54a442 f MFC42UD:MFC42uD.DLL
 0001:00049448       ?PostNcDestroy@CControlBar@@UAEXXZ 5f54a448 f MFC42UD:MFC42uD.DLL
 0001:0004944e       ?WindowProc@CControlBar@@UAEJIIJ@Z 5f54a44e f MFC42UD:MFC42uD.DLL
 0001:00049454       ?PreTranslateMessage@CControlBar@@UAEHPAUtagMSG@@@Z 5f54a454 f MFC42UD:MFC42uD.DLL
 0001:0004945a       ?PreCreateWindow@CControlBar@@UAEHAAUtagCREATESTRUCTW@@@Z 5f54a45a f MFC42UD:MFC42uD.DLL
 0001:00049460       ?DestroyWindow@CControlBar@@UAEHXZ 5f54a460 f MFC42UD:MFC42uD.DLL
 0001:00049466       ?Dump@CControlBar@@UBEXAAVCDumpContext@@@Z 5f54a466 f MFC42UD:MFC42uD.DLL
 0001:0004946c       ?AssertValid@CControlBar@@UBEXXZ 5f54a46c f MFC42UD:MFC42uD.DLL
 0001:00049472       ??1CControlBar@@UAE@XZ     5f54a472 f MFC42UD:MFC42uD.DLL
 0001:00049478       ??1CRectTracker@@UAE@XZ    5f54a478 f MFC42UD:MFC42uD.DLL
 0001:0004947e       ??0CRectTracker@@QAE@XZ    5f54a47e f MFC42UD:MFC42uD.DLL
 0001:00049484       ??0CControlBar@@IAE@XZ     5f54a484 f MFC42UD:MFC42uD.DLL
 0001:0004948a       ?AfxEndDeferRegisterClass@@YGHF@Z 5f54a48a f MFC42UD:MFC42uD.DLL
 0001:00049490       ??1CPaintDC@@UAE@XZ        5f54a490 f MFC42UD:MFC42uD.DLL
 0001:00049496       ?Draw@CRectTracker@@QBEXPAVCDC@@@Z 5f54a496 f MFC42UD:MFC42uD.DLL
 0001:0004949c       ?SetBrushOrg@CDC@@QAE?AVCPoint@@HH@Z 5f54a49c f MFC42UD:MFC42uD.DLL
 0001:000494a2       ??0CPaintDC@@QAE@PAVCWnd@@@Z 5f54a4a2 f MFC42UD:MFC42uD.DLL
 0001:000494a8       ?SetCursor@CRectTracker@@QBEHPAVCWnd@@I@Z 5f54a4a8 f MFC42UD:MFC42uD.DLL
 0001:000494ae       ?OnSetCursor@CWnd@@IAEHPAV1@II@Z 5f54a4ae f MFC42UD:MFC42uD.DLL
 0001:000494b4       ?HitTest@CRectTracker@@QBEHVCPoint@@@Z 5f54a4b4 f MFC42UD:MFC42uD.DLL
 0001:000494ba       ?GetOwner@CWnd@@QBEPAV1@XZ 5f54a4ba f MFC42UD:MFC42uD.DLL
 0001:000494c0       ?Track@CRectTracker@@QAEHPAVCWnd@@VCPoint@@H0@Z 5f54a4c0 f MFC42UD:MFC42uD.DLL
 0001:000494c6       ??1CWnd@@UAE@XZ            5f54a4c6 f MFC42UD:MFC42uD.DLL
 0001:000494cc       ??0CWnd@@QAE@XZ            5f54a4cc f MFC42UD:MFC42uD.DLL
 0001:000494d2       ?AssertValid@CWnd@@UBEXXZ  5f54a4d2 f MFC42UD:MFC42uD.DLL
 0001:000494d8       ?Dump@CWnd@@UBEXAAVCDumpContext@@@Z 5f54a4d8 f MFC42UD:MFC42uD.DLL
 0001:000494de       ?SetWindowOrg@CDC@@QAE?AVCPoint@@HH@Z 5f54a4de f MFC42UD:MFC42uD.DLL
 0001:000494e4       ?SetViewportExt@CDC@@QAE?AVCSize@@UtagSIZE@@@Z 5f54a4e4 f MFC42UD:MFC42uD.DLL
 0001:000494ea       ?CreateEx@CWnd@@QAEHKPBG0KHHHHPAUHWND__@@PAUHMENU__@@PAX@Z 5f54a4ea f MFC42UD:MFC42uD.DLL
 0001:000494f0       ?LPtoDP@CDC@@QBEXPAUtagRECT@@@Z 5f54a4f0 f MFC42UD:MFC42uD.DLL
 0001:000494f6       ?SetWindowExt@CDC@@UAE?AVCSize@@HH@Z 5f54a4f6 f MFC42UD:MFC42uD.DLL
 0001:000494fc       ?SetMapMode@CDC@@UAEHH@Z   5f54a4fc f MFC42UD:MFC42uD.DLL
 0001:00049502       ?InvalidateRect@CWnd@@QAEXPBUtagRECT@@H@Z 5f54a502 f MFC42UD:MFC42uD.DLL
 0001:00049508       ?OffsetRect@CRect@@QAEXUtagPOINT@@@Z 5f54a508 f MFC42UD:MFC42uD.DLL
 0001:0004950e       ?SetWindowPos@CWnd@@QAEHPBV1@HHHHI@Z 5f54a50e f MFC42UD:MFC42uD.DLL
 0001:00049514       ?AfxUnlockTempMaps@@YGHH@Z 5f54a514 f MFC42UD:MFC42uD.DLL
 0001:0004951a       ?IntersectClipRect@CDC@@QAEHPBUtagRECT@@@Z 5f54a51a f MFC42UD:MFC42uD.DLL
 0001:00049520       ?AfxLockTempMaps@@YGXXZ    5f54a520 f MFC42UD:MFC42uD.DLL
 0001:00049526       ?ValidateRect@CWnd@@QAEXPBUtagRECT@@@Z 5f54a526 f MFC42UD:MFC42uD.DLL
 0001:0004952c       ?IsLoading@CArchive@@QBEHXZ 5f54a52c f MFC42UD:MFC42uD.DLL
 0001:00049532       ?OnNcCreate@CWnd@@IAEHPAUtagCREATESTRUCTW@@@Z 5f54a532 f MFC42UD:MFC42uD.DLL
 0001:00049538       ?OnMouseActivate@CWnd@@IAEHPAV1@II@Z 5f54a538 f MFC42UD:MFC42uD.DLL
 0001:0004953e       ?ReflectChildNotify@CWnd@@IAEHIIJPAJ@Z 5f54a53e f MFC42UD:MFC42uD.DLL
 0001:00049544       ?OnCreate@CWnd@@IAEHPAUtagCREATESTRUCTW@@@Z 5f54a544 f MFC42UD:MFC42uD.DLL
 0001:0004954a       ?OnMove@CWnd@@IAEXHH@Z     5f54a54a f MFC42UD:MFC42uD.DLL
 0001:00049550       ?OnShowWindow@CWnd@@IAEXHI@Z 5f54a550 f MFC42UD:MFC42uD.DLL
 0001:00049556       ?DoUpdate@CCmdUI@@QAEHPAVCCmdTarget@@H@Z 5f54a556 f MFC42UD:MFC42uD.DLL
 0001:0004955c       ?GetMenuItemID@CMenu@@QBEIH@Z 5f54a55c f MFC42UD:MFC42uD.DLL
 0001:00049562       ?GetSubMenu@CMenu@@QBEPAV1@H@Z 5f54a562 f MFC42UD:MFC42uD.DLL
 0001:00049568       ?GetMenuItemCount@CMenu@@QBEIXZ 5f54a568 f MFC42UD:MFC42uD.DLL
 0001:0004956e       ?AfxCancelModes@@YGXPAUHWND__@@@Z 5f54a56e f MFC42UD:MFC42uD.DLL
 0001:00049574       ?GetData@CThreadLocalObject@@QAEPAVCNoTrackObject@@P6GPAV2@XZ@Z 5f54a574 f MFC42UD:MFC42uD.DLL
 0001:0004957a       ?GetMessageMap@CWnd@@MBEPBUAFX_MSGMAP@@XZ 5f54a57a f MFC42UD:MFC42uD.DLL
 0001:00049580       ?GetRuntimeClass@CWnd@@UBEPAUCRuntimeClass@@XZ 5f54a580 f MFC42UD:MFC42uD.DLL
 0001:00049586       ?OnDestroy@CWnd@@IAEXXZ    5f54a586 f MFC42UD:MFC42uD.DLL
 0001:0004958c       ?OnKillFocus@CWnd@@IAEXPAV1@@Z 5f54a58c f MFC42UD:MFC42uD.DLL
 0001:00049592       ?OnSetFocus@CWnd@@IAEXPAV1@@Z 5f54a592 f MFC42UD:MFC42uD.DLL
 0001:00049598       ?Add@CPtrArray@@QAEHPAX@Z  5f54a598 f MFC42UD:MFC42uD.DLL
 0001:0004959e       ?OnGetDlgCode@CWnd@@IAEIXZ 5f54a59e f MFC42UD:MFC42uD.DLL
 0001:000495a4       ?OnMouseMove@CWnd@@IAEXIVCPoint@@@Z 5f54a5a4 f MFC42UD:MFC42uD.DLL
 0001:000495aa       ?OnLButtonDown@CWnd@@IAEXIVCPoint@@@Z 5f54a5aa f MFC42UD:MFC42uD.DLL
 0001:000495b0       ?OnLButtonUp@CWnd@@IAEXIVCPoint@@@Z 5f54a5b0 f MFC42UD:MFC42uD.DLL
 0001:000495b6       ?OnLButtonDblClk@CWnd@@IAEXIVCPoint@@@Z 5f54a5b6 f MFC42UD:MFC42uD.DLL
 0001:000495bc       ?OnMButtonDown@CWnd@@IAEXIVCPoint@@@Z 5f54a5bc f MFC42UD:MFC42uD.DLL
 0001:000495c2       ?OnMButtonUp@CWnd@@IAEXIVCPoint@@@Z 5f54a5c2 f MFC42UD:MFC42uD.DLL
 0001:000495c8       ?OnMButtonDblClk@CWnd@@IAEXIVCPoint@@@Z 5f54a5c8 f MFC42UD:MFC42uD.DLL
 0001:000495ce       ?OnRButtonDown@CWnd@@IAEXIVCPoint@@@Z 5f54a5ce f MFC42UD:MFC42uD.DLL
 0001:000495d4       ?OnRButtonUp@CWnd@@IAEXIVCPoint@@@Z 5f54a5d4 f MFC42UD:MFC42uD.DLL
 0001:000495da       ?OnRButtonDblClk@CWnd@@IAEXIVCPoint@@@Z 5f54a5da f MFC42UD:MFC42uD.DLL
 0001:000495e0       ?OnCancelMode@CWnd@@IAEXXZ 5f54a5e0 f MFC42UD:MFC42uD.DLL
 0001:000495e6       ?MessageBoxW@CWnd@@QAEHPBG0I@Z 5f54a5e6 f MFC42UD:MFC42uD.DLL
 0001:000495ec       ?ExitInstance@CWinApp@@UAEHXZ 5f54a5ec f MFC42UD:MFC42uD.DLL
 0001:000495f2       ?OnActivate@CWnd@@IAEXIPAV1@H@Z 5f54a5f2 f MFC42UD:MFC42uD.DLL
 0001:000495f8       ?FromHandle@CFont@@SGPAV1@PAUHFONT__@@@Z 5f54a5f8 f MFC42UD:MFC42uD.DLL
 0001:000495fe       ?Read@CFile@@UAEIPAXI@Z    5f54a5fe f MFC42UD:MFC42uD.DLL
 0001:00049604       ?_wcstombsz@@YAHPADPBGI@Z  5f54a604 f MFC42UD:MFC42uD.DLL
 0001:0004960a       ??0CFile@@QAE@PBGI@Z       5f54a60a f MFC42UD:MFC42uD.DLL
 0001:00049610       ?GetSize@CPtrArray@@QBEHXZ 5f54a610 f MFC42UD:MFC42uD.DLL
 0001:00049616       ?GetAt@CPtrArray@@QBEPAXH@Z 5f54a616 f MFC42UD:MFC42uD.DLL
 0001:0004961c       ??0CPtrArray@@QAE@XZ       5f54a61c f MFC42UD:MFC42uD.DLL
 0001:00049622       ?RemoveAt@CPtrArray@@QAEXHH@Z 5f54a622 f MFC42UD:MFC42uD.DLL
 0001:00049628       ??1CPtrArray@@UAE@XZ       5f54a628 f MFC42UD:MFC42uD.DLL
 0001:0004962e       ??1CBitmap@@UAE@XZ         5f54a62e f MFC42UD:MFC42uD.DLL
 0001:00049634       ?Detach@CGdiObject@@QAEPAXXZ 5f54a634 f MFC42UD:MFC42uD.DLL
 0001:0004963a       ?LoadBitmapW@CBitmap@@QAEHI@Z 5f54a63a f MFC42UD:MFC42uD.DLL
 0001:00049640       ??0CBitmap@@QAE@XZ         5f54a640 f MFC42UD:MFC42uD.DLL
 0001:00049646       ?GetSafeHandle@CGdiObject@@QBEPAXXZ 5f54a646 f MFC42UD:MFC42uD.DLL
 0001:0004964c       ?LoadIconW@CWinApp@@QBEPAUHICON__@@I@Z 5f54a64c f MFC42UD:MFC42uD.DLL
 0001:00049652       ??6@YGAAVCArchive@@AAV0@ABVCString@@@Z 5f54a652 f MFC42UD:MFC42uD.DLL
 0001:00049658       ??5@YGAAVCArchive@@AAV0@AAVCString@@@Z 5f54a658 f MFC42UD:MFC42uD.DLL
 0001:0004965e       ?OnQuery3dControls@CWnd@@IAEJIJ@Z 5f54a65e f MFC42UD:MFC42uD.DLL
 0001:00049664       ?GetRuntimeClass@CObject@@UBEPAUCRuntimeClass@@XZ 5f54a664 f MFC42UD:MFC42uD.DLL
 0001:0004966a       ??1CObject@@UAE@XZ         5f54a66a f MFC42UD:MFC42uD.DLL
 0001:00049670       ??0CObject@@IAE@XZ         5f54a670 f MFC42UD:MFC42uD.DLL
 0001:00049676       ?GetFont@CDialogTemplate@@QBEHAAVCString@@AAG@Z 5f54a676 f MFC42UD:MFC42uD.DLL
 0001:0004967c       ?GetSizeInDialogUnits@CDialogTemplate@@QBEXPAUtagSIZE@@@Z 5f54a67c f MFC42UD:MFC42uD.DLL
 0001:00049682       ?AfxEnableMemoryTracking@@YGHH@Z 5f54a682 f MFC42UD:MFC42uD.DLL
 0001:00049688       ?AddHead@CPtrList@@QAEPAU__POSITION@@PAX@Z 5f54a688 f MFC42UD:MFC42uD.DLL
 0001:0004968e       ?OnCancel@CDialog@@MAEXXZ  5f54a68e f MFC42UD:MFC42uD.DLL
 0001:00049694       ?OnOK@CDialog@@MAEXXZ      5f54a694 f MFC42UD:MFC42uD.DLL
 0001:0004969a       ??0CDialog@@QAE@XZ         5f54a69a f MFC42UD:MFC42uD.DLL
 0001:000496a0       ??1CDialogTemplate@@QAE@XZ 5f54a6a0 f MFC42UD:MFC42uD.DLL
 0001:000496a6       ?Detach@CDialogTemplate@@QAEPAXXZ 5f54a6a6 f MFC42UD:MFC42uD.DLL
 0001:000496ac       ?GetSizeInPixels@CDialogTemplate@@QBEXPAUtagSIZE@@@Z 5f54a6ac f MFC42UD:MFC42uD.DLL
 0001:000496b2       ?SetFont@CDialogTemplate@@QAEHPBGG@Z 5f54a6b2 f MFC42UD:MFC42uD.DLL
 0001:000496b8       ?AfxGetPropSheetFont@@YGHAAVCString@@AAGH@Z 5f54a6b8 f MFC42UD:MFC42uD.DLL
 0001:000496be       ??8@YGHABVCString@@PBG@Z   5f54a6be f MFC42UD:MFC42uD.DLL
 0001:000496c4       ?HasFont@CDialogTemplate@@QBEHXZ 5f54a6c4 f MFC42UD:MFC42uD.DLL
 0001:000496ca       ?Load@CDialogTemplate@@QAEHPBG@Z 5f54a6ca f MFC42UD:MFC42uD.DLL
 0001:000496d0       ??0CDialogTemplate@@QAE@PBUDLGTEMPLATE@@@Z 5f54a6d0 f MFC42UD:MFC42uD.DLL
 0001:000496d6       ?RemoveAll@CPtrArray@@QAEXXZ 5f54a6d6 f MFC42UD:MFC42uD.DLL
 0001:000496dc       ??ACPtrArray@@QAEAAPAXH@Z  5f54a6dc f MFC42UD:MFC42uD.DLL
 0001:000496e2       ?GetCurrentMessage@CWnd@@KGPBUtagMSG@@XZ 5f54a6e2 f MFC42UD:MFC42uD.DLL
 0001:000496e8       ?Default@CWnd@@IAEJXZ      5f54a6e8 f MFC42UD:MFC42uD.DLL
 0001:000496ee       ?SendChildNotifyLastMsg@CWnd@@QAEHPAJ@Z 5f54a6ee f MFC42UD:MFC42uD.DLL
 0001:000496f4       ??0CDialogTemplate@@QAE@PAX@Z 5f54a6f4 f MFC42UD:MFC42uD.DLL
 0001:000496fa       ?UpdateData@CWnd@@QAEHH@Z  5f54a6fa f MFC42UD:MFC42uD.DLL
 0001:00049700       ?Create@CDialog@@QAEHIPAVCWnd@@@Z 5f54a700 f MFC42UD:MFC42uD.DLL
 0001:00049706       ?CreateIndirect@CDialog@@QAEHPAXPAVCWnd@@@Z 5f54a706 f MFC42UD:MFC42uD.DLL
 0001:0004970c       ?GetWindow@CWnd@@QBEPAV1@I@Z 5f54a70c f MFC42UD:MFC42uD.DLL
 0001:00049712       ?GotoDlgCtrl@CDialog@@QAEXPAVCWnd@@@Z 5f54a712 f MFC42UD:MFC42uD.DLL
 0001:00049718       ?GetDefID@CDialog@@QBEKXZ  5f54a718 f MFC42UD:MFC42uD.DLL
 0001:0004971e       ?GetAt@CDWordArray@@QBEKH@Z 5f54a71e f MFC42UD:MFC42uD.DLL
 0001:00049724       ??9@YGHABVCString@@0@Z     5f54a724 f MFC42UD:MFC42uD.DLL
 0001:0004972a       ?AfxStaticDownCast@@YAPAVCObject@@PAUCRuntimeClass@@PAV1@@Z 5f54a72a f MFC42UD:MFC42uD.DLL
 0001:00049730       ?PrepareCtrl@CDataExchange@@QAEPAUHWND__@@H@Z 5f54a730 f MFC42UD:MFC42uD.DLL
 0001:00049736       ??6CArchive@@QAEAAV0@F@Z   5f54a736 f MFC42UD:MFC42uD.DLL
 0001:0004973c       ??6CArchive@@QAEAAV0@H@Z   5f54a73c f MFC42UD:MFC42uD.DLL
 0001:00049742       ??5CArchive@@QAEAAV0@AAF@Z 5f54a742 f MFC42UD:MFC42uD.DLL
 0001:00049748       ??5CArchive@@QAEAAV0@AAH@Z 5f54a748 f MFC42UD:MFC42uD.DLL
 0001:0004974e       ??1CStringArray@@UAE@XZ    5f54a74e f MFC42UD:MFC42uD.DLL
 0001:00049754       ?GetAt@CStringArray@@QBE?AVCString@@H@Z 5f54a754 f MFC42UD:MFC42uD.DLL
 0001:0004975a       ?GetSize@CStringArray@@QBEHXZ 5f54a75a f MFC42UD:MFC42uD.DLL
 0001:00049760       ??0CStringArray@@QAE@XZ    5f54a760 f MFC42UD:MFC42uD.DLL
 0001:00049766       ?RemoveAll@CStringArray@@QAEXXZ 5f54a766 f MFC42UD:MFC42uD.DLL
 0001:0004976c       ?Add@CStringArray@@QAEHPBG@Z 5f54a76c f MFC42UD:MFC42uD.DLL
 0001:00049772       ?SeekToEnd@CFile@@QAEKXZ   5f54a772 f MFC42UD:MFC42uD.DLL
 0001:00049778       ?Compare@CString@@QBEHPBG@Z 5f54a778 f MFC42UD:MFC42uD.DLL
 0001:0004977e       ??YCString@@QAEABV0@PBG@Z  5f54a77e f MFC42UD:MFC42uD.DLL
 0001:00049784       ?Left@CString@@QBE?AV1@H@Z 5f54a784 f MFC42UD:MFC42uD.DLL
 0001:0004978a       ?ReverseFind@CString@@QBEHG@Z 5f54a78a f MFC42UD:MFC42uD.DLL
 0001:00049790       ??0CRectTracker@@QAE@PBUtagRECT@@I@Z 5f54a790 f MFC42UD:MFC42uD.DLL
 0001:00049796       ??1CBrush@@UAE@XZ          5f54a796 f MFC42UD:MFC42uD.DLL
 0001:0004979c       ?FillRect@CDC@@QAEXPBUtagRECT@@PAVCBrush@@@Z 5f54a79c f MFC42UD:MFC42uD.DLL
 0001:000497a2       ??0CBrush@@QAE@K@Z         5f54a7a2 f MFC42UD:MFC42uD.DLL
 0001:000497a8       ??9CRect@@QBEHABUtagRECT@@@Z 5f54a7a8 f MFC42UD:MFC42uD.DLL
 0001:000497ae       ?FromHandle@CDC@@SGPAV1@PAUHDC__@@@Z 5f54a7ae f MFC42UD:MFC42uD.DLL
 0001:000497b4       ?_mbstowcsz@@YAHPAGPBDI@Z  5f54a7b4 f MFC42UD:MFC42uD.DLL
 0001:000497ba       ??1CMapStringToPtr@@UAE@XZ 5f54a7ba f MFC42UD:MFC42uD.DLL
 0001:000497c0       ??0CMapStringToPtr@@QAE@H@Z 5f54a7c0 f MFC42UD:MFC42uD.DLL
 0001:000497c6       ?Lookup@CMapStringToPtr@@QBEHPBGAAPAX@Z 5f54a7c6 f MFC42UD:MFC42uD.DLL
 0001:000497cc       ?MakeLower@CString@@QAEXXZ 5f54a7cc f MFC42UD:MFC42uD.DLL
 0001:000497d2       ?SetAt@CMapStringToPtr@@QAEXPBGPAX@Z 5f54a7d2 f MFC42UD:MFC42uD.DLL
 0001:000497d8       ?GetNextAssoc@CMapStringToPtr@@QBEXAAPAU__POSITION@@AAVCString@@AAPAX@Z 5f54a7d8 f MFC42UD:MFC42uD.DLL
 0001:000497de       ?GetStartPosition@CMapStringToPtr@@QBEPAU__POSITION@@XZ 5f54a7de f MFC42UD:MFC42uD.DLL
 0001:000497e4       ?GetCount@CMapStringToPtr@@QBEHXZ 5f54a7e4 f MFC42UD:MFC42uD.DLL
 0001:000497ea       ??1CThreadLocalObject@@QAE@XZ 5f54a7ea f MFC42UD:MFC42uD.DLL
 0001:000497f0       ?Escape@CDC@@UAEHHHPBDPAX@Z 5f54a7f0 f MFC42UD:MFC42uD.DLL
 0001:000497f6       ?GrayStringW@CDC@@UAEHPAVCBrush@@P6GHPAUHDC__@@JH@ZJHHHHH@Z 5f54a7f6 f MFC42UD:MFC42uD.DLL
 0001:000497fc       ?DrawTextW@CDC@@UAEHPBGHPAUtagRECT@@I@Z 5f54a7fc f MFC42UD:MFC42uD.DLL
 0001:00049802       ?TabbedTextOutW@CDC@@UAE?AVCSize@@HHPBGHHPAHH@Z 5f54a802 f MFC42UD:MFC42uD.DLL
 0001:00049808       ?ExtTextOutW@CDC@@UAEHHHIPBUtagRECT@@PBGIPAH@Z 5f54a808 f MFC42UD:MFC42uD.DLL
 0001:0004980e       ?TextOutW@CDC@@UAEHHHPBGH@Z 5f54a80e f MFC42UD:MFC42uD.DLL
 0001:00049814       ?RectVisible@CDC@@UBEHPBUtagRECT@@@Z 5f54a814 f MFC42UD:MFC42uD.DLL
 0001:0004981a       ?PtVisible@CDC@@UBEHHH@Z   5f54a81a f MFC42UD:MFC42uD.DLL
 0001:00049820       ?GetClipBox@CDC@@UBEHPAUtagRECT@@@Z 5f54a820 f MFC42UD:MFC42uD.DLL
 0001:00049826       ?ScaleWindowExt@CDC@@UAE?AVCSize@@HHHH@Z 5f54a826 f MFC42UD:MFC42uD.DLL
 0001:0004982c       ?ScaleViewportExt@CDC@@UAE?AVCSize@@HHHH@Z 5f54a82c f MFC42UD:MFC42uD.DLL
 0001:00049832       ?SetViewportExt@CDC@@UAE?AVCSize@@HH@Z 5f54a832 f MFC42UD:MFC42uD.DLL
 0001:00049838       ?OffsetViewportOrg@CDC@@UAE?AVCPoint@@HH@Z 5f54a838 f MFC42UD:MFC42uD.DLL
 0001:0004983e       ?SetViewportOrg@CDC@@UAE?AVCPoint@@HH@Z 5f54a83e f MFC42UD:MFC42uD.DLL
 0001:00049844       ?SetTextColor@CDC@@UAEKK@Z 5f54a844 f MFC42UD:MFC42uD.DLL
 0001:0004984a       ?SetBkColor@CDC@@UAEKK@Z   5f54a84a f MFC42UD:MFC42uD.DLL
 0001:00049850       ?SelectObject@CDC@@UAEPAVCFont@@PAV2@@Z 5f54a850 f MFC42UD:MFC42uD.DLL
 0001:00049856       ?SelectStockObject@CDC@@UAEPAVCGdiObject@@H@Z 5f54a856 f MFC42UD:MFC42uD.DLL
 0001:0004985c       ?RestoreDC@CDC@@UAEHH@Z    5f54a85c f MFC42UD:MFC42uD.DLL
 0001:00049862       ?SaveDC@CDC@@UAEHXZ        5f54a862 f MFC42UD:MFC42uD.DLL
 0001:00049868       ?ReleaseOutputDC@CDC@@UAEXXZ 5f54a868 f MFC42UD:MFC42uD.DLL
 0001:0004986e       ?ReleaseAttribDC@CDC@@UAEXXZ 5f54a86e f MFC42UD:MFC42uD.DLL
 0001:00049874       ?SetOutputDC@CDC@@UAEXPAUHDC__@@@Z 5f54a874 f MFC42UD:MFC42uD.DLL
 0001:0004987a       ?SetAttribDC@CDC@@UAEXPAUHDC__@@@Z 5f54a87a f MFC42UD:MFC42uD.DLL
 0001:00049880       ?Dump@CDC@@UBEXAAVCDumpContext@@@Z 5f54a880 f MFC42UD:MFC42uD.DLL
 0001:00049886       ?AssertValid@CDC@@UBEXXZ   5f54a886 f MFC42UD:MFC42uD.DLL
 0001:0004988c       ?SetViewportOrg@CDC@@QAE?AVCPoint@@UtagPOINT@@@Z 5f54a88c f MFC42UD:MFC42uD.DLL
 0001:00049892       ??HCPoint@@QBE?AV0@UtagPOINT@@@Z 5f54a892 f MFC42UD:MFC42uD.DLL
 0001:00049898       ?GetViewportOrg@CDC@@QBE?AVCPoint@@XZ 5f54a898 f MFC42UD:MFC42uD.DLL
 0001:0004989e       ?GetDC@CWnd@@QAEPAVCDC@@XZ 5f54a89e f MFC42UD:MFC42uD.DLL
 0001:000498a4       ?ReleaseDC@CWnd@@QAEHPAVCDC@@@Z 5f54a8a4 f MFC42UD:MFC42uD.DLL
 0001:000498aa       ??1CRgn@@UAE@XZ            5f54a8aa f MFC42UD:MFC42uD.DLL
 0001:000498b0       ?InvalidateRgn@CWnd@@QAEXPAVCRgn@@H@Z 5f54a8b0 f MFC42UD:MFC42uD.DLL
 0001:000498b6       ??BCRgn@@QBEPAUHRGN__@@XZ  5f54a8b6 f MFC42UD:MFC42uD.DLL
 0001:000498bc       ?OffsetRgn@CRgn@@QAEHUtagPOINT@@@Z 5f54a8bc f MFC42UD:MFC42uD.DLL
 0001:000498c2       ?CopyRgn@CRgn@@QAEHPAV1@@Z 5f54a8c2 f MFC42UD:MFC42uD.DLL
 0001:000498c8       ??0CRgn@@QAE@XZ            5f54a8c8 f MFC42UD:MFC42uD.DLL
 0001:000498ce       ?ScrollWindow@CWnd@@QAEXHHPBUtagRECT@@0@Z 5f54a8ce f MFC42UD:MFC42uD.DLL
 0001:000498d4       ?OnChildNotify@CButton@@MAEHIIJPAJ@Z 5f54a8d4 f MFC42UD:MFC42uD.DLL
 0001:000498da       ?GetRuntimeClass@CButton@@UBEPAUCRuntimeClass@@XZ 5f54a8da f MFC42UD:MFC42uD.DLL
 0001:000498e0       ??1CButton@@UAE@XZ         5f54a8e0 f MFC42UD:MFC42uD.DLL
 0001:000498e6       ??0CButton@@QAE@XZ         5f54a8e6 f MFC42UD:MFC42uD.DLL
 0001:000498ec       ?GetState@CButton@@QBEIXZ  5f54a8ec f MFC42UD:MFC42uD.DLL
 0001:000498f2       ?GetNearestColor@CDC@@QBEKK@Z 5f54a8f2 f MFC42UD:MFC42uD.DLL
 0001:000498f8       ?RealizePalette@CDC@@QAEIXZ 5f54a8f8 f MFC42UD:MFC42uD.DLL
 0001:000498fe       ?SelectPalette@CDC@@QAEPAVCPalette@@PAV2@H@Z 5f54a8fe f MFC42UD:MFC42uD.DLL
 0001:00049904       ?FromHandle@CPalette@@SGPAV1@PAUHPALETTE__@@@Z 5f54a904 f MFC42UD:MFC42uD.DLL
 0001:0004990a       ??1CComboBox@@UAE@XZ       5f54a90a f MFC42UD:MFC42uD.DLL
 0001:00049910       ??0CComboBox@@QAE@XZ       5f54a910 f MFC42UD:MFC42uD.DLL
 0001:00049916       ?SubclassDlgItem@CWnd@@QAEHIPAV1@@Z 5f54a916 f MFC42UD:MFC42uD.DLL
 0001:0004991c       ?SetCurSel@CComboBox@@QAEHH@Z 5f54a91c f MFC42UD:MFC42uD.DLL
 0001:00049922       ?SetItemData@CComboBox@@QAEHHK@Z 5f54a922 f MFC42UD:MFC42uD.DLL
 0001:00049928       ?AddString@CComboBox@@QAEHPBG@Z 5f54a928 f MFC42UD:MFC42uD.DLL
 0001:0004992e       ?GetItemData@CComboBox@@QBEKH@Z 5f54a92e f MFC42UD:MFC42uD.DLL
 0001:00049934       ?GetCount@CComboBox@@QBEHXZ 5f54a934 f MFC42UD:MFC42uD.DLL
 0001:0004993a       ?GetCurSel@CComboBox@@QBEHXZ 5f54a93a f MFC42UD:MFC42uD.DLL
 0001:00049940       ?DDX_Control@@YGXPAVCDataExchange@@HAAVCWnd@@@Z 5f54a940 f MFC42UD:MFC42uD.DLL
 0001:00049946       ?SelectObject@CDC@@QAEPAVCPen@@PAV2@@Z 5f54a946 f MFC42UD:MFC42uD.DLL
 0001:0004994c       ?LineTo@CDC@@QAEHHH@Z      5f54a94c f MFC42UD:MFC42uD.DLL
 0001:00049952       ?MoveTo@CDC@@QAE?AVCPoint@@HH@Z 5f54a952 f MFC42UD:MFC42uD.DLL
 0001:00049958       ??0CPen@@QAE@HHK@Z         5f54a958 f MFC42UD:MFC42uD.DLL
 0001:0004995e       ?FrameRect@CDC@@QAEXPBUtagRECT@@PAVCBrush@@@Z 5f54a95e f MFC42UD:MFC42uD.DLL
 0001:00049964       ??1CStatic@@UAE@XZ         5f54a964 f MFC42UD:MFC42uD.DLL
 0001:0004996a       ??0CStatic@@QAE@XZ         5f54a96a f MFC42UD:MFC42uD.DLL
 0001:00049970       ?DeleteItem@CComboBox@@UAEXPAUtagDELETEITEMSTRUCT@@@Z 5f54a970 f MFC42UD:MFC42uD.DLL
 0001:00049976       ?CompareItem@CComboBox@@UAEHPAUtagCOMPAREITEMSTRUCT@@@Z 5f54a976 f MFC42UD:MFC42uD.DLL
 0001:0004997c       ?MeasureItem@CComboBox@@UAEXPAUtagMEASUREITEMSTRUCT@@@Z 5f54a97c f MFC42UD:MFC42uD.DLL
 0001:00049982       ?DrawItem@CComboBox@@UAEXPAUtagDRAWITEMSTRUCT@@@Z 5f54a982 f MFC42UD:MFC42uD.DLL
 0001:00049988       ?OnChildNotify@CComboBox@@MAEHIIJPAJ@Z 5f54a988 f MFC42UD:MFC42uD.DLL
 0001:0004998e       ?GetRuntimeClass@CComboBox@@UBEPAUCRuntimeClass@@XZ 5f54a98e f MFC42UD:MFC42uD.DLL
 0001:00049994       ?SelectObject@CDC@@QAEPAVCBitmap@@PAV2@@Z 5f54a994 f MFC42UD:MFC42uD.DLL
 0001:0004999a       ?BitBlt@CDC@@QAEHHHHHPAV1@HHK@Z 5f54a99a f MFC42UD:MFC42uD.DLL
 0001:000499a0       ?CreateCompatibleDC@CDC@@QAEHPAV1@@Z 5f54a9a0 f MFC42UD:MFC42uD.DLL
 0001:000499a6       ?GetPixel@CDC@@QBEKHH@Z    5f54a9a6 f MFC42UD:MFC42uD.DLL
 0001:000499ac       ?CreateBitmap@CBitmap@@QAEHHHIIPBX@Z 5f54a9ac f MFC42UD:MFC42uD.DLL
 0001:000499b2       ?GetObjectW@CGdiObject@@QBEHHPAX@Z 5f54a9b2 f MFC42UD:MFC42uD.DLL
 0001:000499b8       ?GetSafeHdc@CDC@@QBEPAUHDC__@@XZ 5f54a9b8 f MFC42UD:MFC42uD.DLL
 0001:000499be       ?ResetContent@CComboBox@@QAEXXZ 5f54a9be f MFC42UD:MFC42uD.DLL
 0001:000499c4       ?SelectString@CComboBox@@QAEHHPBG@Z 5f54a9c4 f MFC42UD:MFC42uD.DLL
 0001:000499ca       ?FindString@CComboBox@@QBEHHPBG@Z 5f54a9ca f MFC42UD:MFC42uD.DLL
 0001:000499d0       ?GetLBText@CComboBox@@QBEXHAAVCString@@@Z 5f54a9d0 f MFC42UD:MFC42uD.DLL
 0001:000499d6       ?DrawFocusRect@CDC@@QAEXPBUtagRECT@@@Z 5f54a9d6 f MFC42UD:MFC42uD.DLL
 0001:000499dc       ?GetTextMetricsW@CDC@@QBEHPAUtagTEXTMETRICW@@@Z 5f54a9dc f MFC42UD:MFC42uD.DLL
 0001:000499e2       ?InsertString@CComboBox@@QAEHHPBG@Z 5f54a9e2 f MFC42UD:MFC42uD.DLL
 0001:000499e8       ?SetEditSel@CComboBox@@QAEHHH@Z 5f54a9e8 f MFC42UD:MFC42uD.DLL
 0001:000499ee       ?FindStringExact@CComboBox@@QBEHHPBG@Z 5f54a9ee f MFC42UD:MFC42uD.DLL
 0001:000499f4       ?CreateFontIndirectW@CFont@@QAEHPBUtagLOGFONTW@@@Z 5f54a9f4 f MFC42UD:MFC42uD.DLL
 0001:000499fa       ?DeleteObject@CGdiObject@@QAEHXZ 5f54a9fa f MFC42UD:MFC42uD.DLL
 0001:00049a00       ?SetBkMode@CDC@@QAEHH@Z    5f54aa00 f MFC42UD:MFC42uD.DLL
 0001:00049a06       ?GetTextExtent@CDC@@QBE?AVCSize@@PBGH@Z 5f54aa06 f MFC42UD:MFC42uD.DLL
 0001:00049a0c       ?SetCheck@CButton@@QAEXH@Z 5f54aa0c f MFC42UD:MFC42uD.DLL
 0001:00049a12       ?GetCheck@CButton@@QBEHXZ  5f54aa12 f MFC42UD:MFC42uD.DLL
 0001:00049a18       ?GetStatus@CFile@@SGHPBGAAUCFileStatus@@@Z 5f54aa18 f MFC42UD:MFC42uD.DLL
 0001:00049a1e       ??0CTime@@QAE@XZ           5f54aa1e f MFC42UD:MFC42uD.DLL
 0001:00049a24       ?GetPathName@CFileDialog@@QBE?AVCString@@XZ 5f54aa24 f MFC42UD:MFC42uD.DLL
 0001:00049a2a       ?DoModal@CFileDialog@@UAEHXZ 5f54aa2a f MFC42UD:MFC42uD.DLL
 0001:00049a30       ??0CFileDialog@@QAE@HPBG0K0PAVCWnd@@@Z 5f54aa30 f MFC42UD:MFC42uD.DLL
 0001:00049a36       ??0CMemFile@@QAE@I@Z       5f54aa36 f MFC42UD:MFC42uD.DLL
 0001:00049a40       ___CxxFrameHandler         5f54aa40 f msvcrtd:MSVCRTD.dll
 0001:00049a50       __onexit                   5f54aa50 f msvcrtd:atonexit.obj
 0001:00049b20       _atexit                    5f54ab20 f msvcrtd:atonexit.obj
 0001:00049b50       ??_L@YGXPAXIHP6EX0@Z1@Z    5f54ab50 f msvcrtd:ehvecctr.obj
 0001:00049c10       ??_M@YGXPAXIHP6EX0@Z@Z     5f54ac10 f msvcrtd:ehvecdtr.obj
 0001:00049cc0       ?__ArrayUnwind@@YGXPAXIHP6EX0@Z@Z 5f54acc0 f msvcrtd:ehvecdtr.obj
 0001:00049da0       ??_Etype_info@@UAEPAXI@Z   5f54ada0 f msvcrtd:ti_inst.obj
 0001:00049da0       ??_Gtype_info@@UAEPAXI@Z   5f54ada0 f msvcrtd:ti_inst.obj
 0001:00049dda       __purecall                 5f54adda f msvcrtd:MSVCRTD.dll
 0001:00049de0       __CxxThrowException@8      5f54ade0 f msvcrtd:MSVCRTD.dll
 0001:00049de6       _memcmp                    5f54ade6 f msvcrtd:MSVCRTD.dll
 0001:00049dec       _memcpy                    5f54adec f msvcrtd:MSVCRTD.dll
 0001:00049df2       _strlen                    5f54adf2 f msvcrtd:MSVCRTD.dll
 0001:00049df8       _memset                    5f54adf8 f msvcrtd:MSVCRTD.dll
 0001:00049e00       __chkstk                   5f54ae00   msvcrtd:chkstk.obj
 0001:00049e00       __alloca_probe             5f54ae00   msvcrtd:chkstk.obj
 0001:00049e30       __ftol                     5f54ae30 f msvcrtd:MSVCRTD.dll
 0001:00049e36       _labs                      5f54ae36 f msvcrtd:MSVCRTD.dll
 0001:00049e3c       _fabs                      5f54ae3c f msvcrtd:MSVCRTD.dll
 0001:00049e50       __CRT_INIT@12              5f54ae50 f msvcrtd:crtdll.obj
 0001:0004a050       __DllMainCRTStartup@12     5f54b050 f msvcrtd:crtdll.obj
 0001:0004a18a       ___dllonexit               5f54b18a f msvcrtd:MSVCRTD.dll
 0001:0004a190       __except_handler3          5f54b190 f msvcrtd:MSVCRTD.dll
 0001:0004a196       ?terminate@@YAXXZ          5f54b196 f msvcrtd:MSVCRTD.dll
 0001:0004a19c       ??1type_info@@UAE@XZ       5f54b19c f msvcrtd:MSVCRTD.dll
 0001:0004a1a2       __initterm                 5f54b1a2 f msvcrtd:MSVCRTD.dll
 0001:0004a1b0       ?_GetBaseClass@COleControlModule@@KGPAUCRuntimeClass@@XZ 5f54b1b0 f ctlmodul.obj
 0001:0004a1c5       ?GetRuntimeClass@COleControlModule@@UBEPAUCRuntimeClass@@XZ 5f54b1c5 f ctlmodul.obj
 0001:0004a1e0       ?InitInstance@COleControlModule@@UAEHXZ 5f54b1e0 f ctlmodul.obj
 0001:0004a205       ?ExitInstance@COleControlModule@@UAEHXZ 5f54b205 f ctlmodul.obj
 0001:0004a230       ??0CReObject@@QAE@XZ       5f54b230 f viewrich.obj
 0001:0004a270       ??0CReObject@@QAE@PAVCRichEditCntrItem@@@Z 5f54b270 f viewrich.obj
 0001:0004a3ba       ??1CReObject@@QAE@XZ       5f54b3ba f viewrich.obj
 0001:0004a462       ?_GetBaseMessageMap@CRichEditView@@KGPBUAFX_MSGMAP@@XZ 5f54b462 f viewrich.obj
 0001:0004a477       ?GetMessageMap@CRichEditView@@MBEPBUAFX_MSGMAP@@XZ 5f54b477 f viewrich.obj
 0001:0004a492       ??0CRichEditView@@QAE@XZ   5f54b492 f viewrich.obj
 0001:0004a609       ?PreCreateWindow@CRichEditView@@MAEHAAUtagCREATESTRUCTW@@@Z 5f54b609 f viewrich.obj
 0001:0004a6a8       ?OnCreate@CRichEditView@@IAEHPAUtagCREATESTRUCTW@@@Z 5f54b6a8 f viewrich.obj
 0001:0004a7a6       ?OnInitialUpdate@CRichEditView@@MAEXXZ 5f54b7a6 f viewrich.obj
 0001:0004a7e3       ?DeleteContents@CRichEditView@@UAEXXZ 5f54b7e3 f viewrich.obj
 0001:0004a87f       ?WrapChanged@CRichEditView@@MAEXXZ 5f54b87f f viewrich.obj
 0001:0004a983       ?Serialize@CRichEditView@@UAEXAAVCArchive@@@Z 5f54b983 f viewrich.obj
 0001:0004a9f4       ?Stream@CRichEditView@@QAEXAAVCArchive@@H@Z 5f54b9f4 f viewrich.obj
 0001:0004aaba       ?EditStreamCallBack@CRichEditView@@SGKKPAEJPAJ@Z 5f54baba f viewrich.obj
 0001:0004ac2f       ?OnBeginPrinting@CRichEditView@@MAEXPAVCDC@@PAUCPrintInfo@@@Z 5f54bc2f f viewrich.obj
 0001:0004acec       ?PaginateTo@CRichEditView@@IAEHPAVCDC@@PAUCPrintInfo@@@Z 5f54bcec f viewrich.obj
 0001:0004af4f       ?OnPrepareDC@CRichEditView@@UAEXPAVCDC@@PAUCPrintInfo@@@Z 5f54bf4f f viewrich.obj
 0001:0004b00b       ?PrintPage@CRichEditView@@QAEJPAVCDC@@JJ@Z 5f54c00b f viewrich.obj
 0001:0004b169       ?PrintInsideRect@CRichEditView@@QAEJPAVCDC@@AAUtagRECT@@JJH@Z 5f54c169 f viewrich.obj
 0001:0004b2d0       ?OnPrint@CRichEditView@@MAEXPAVCDC@@PAUCPrintInfo@@@Z 5f54c2d0 f viewrich.obj
 0001:0004b48f       ?OnEndPrinting@CRichEditView@@MAEXPAVCDC@@PAUCPrintInfo@@@Z 5f54c48f f viewrich.obj
 0001:0004b4db       ?_GetBaseInterfaceMap@CRichEditView@@KGPBUAFX_INTERFACEMAP@@XZ 5f54c4db f viewrich.obj
 0001:0004b4f0       ?GetInterfaceMap@CRichEditView@@MBEPBUAFX_INTERFACEMAP@@XZ 5f54c4f0 f viewrich.obj
 0001:0004b50b       ?AddRef@XRichEditOleCallback@CRichEditView@@UAGKXZ 5f54c50b f viewrich.obj
 0001:0004b533       ?Release@XRichEditOleCallback@CRichEditView@@UAGKXZ 5f54c533 f viewrich.obj
 0001:0004b55b       ?QueryInterface@XRichEditOleCallback@CRichEditView@@UAGJABU_GUID@@PAPAX@Z 5f54c55b f viewrich.obj
 0001:0004b58b       ?GetNewStorage@XRichEditOleCallback@CRichEditView@@UAGJPAPAUIStorage@@@Z 5f54c58b f viewrich.obj
 0001:0004b662       ?GetInPlaceContext@XRichEditOleCallback@CRichEditView@@UAGJPAPAUIOleInPlaceFrame@@PAPAUIOleInPlaceUIWindow@@PAUtagOIFI@@@Z 5f54c662 f viewrich.obj
 0001:0004b6f0       ?ShowContainerUI@XRichEditOleCallback@CRichEditView@@UAGJH@Z 5f54c6f0 f viewrich.obj
 0001:0004b776       ?QueryInsertObject@XRichEditOleCallback@CRichEditView@@UAGJPAU_GUID@@PAUIStorage@@J@Z 5f54c776 f viewrich.obj
 0001:0004b803       ?DeleteObject@XRichEditOleCallback@CRichEditView@@UAGJPAUIOleObject@@@Z 5f54c803 f viewrich.obj
 0001:0004b834       ?QueryAcceptData@XRichEditOleCallback@CRichEditView@@UAGJPAUIDataObject@@PAGKHPAX@Z 5f54c834 f viewrich.obj
 0001:0004b8d0       ?ContextSensitiveHelp@XRichEditOleCallback@CRichEditView@@UAGJH@Z 5f54c8d0 f viewrich.obj
 0001:0004b8e7       ?GetClipboardData@XRichEditOleCallback@CRichEditView@@UAGJPAU_charrange@@KPAPAUIDataObject@@@Z 5f54c8e7 f viewrich.obj
 0001:0004ba26       ?GetDragDropEffect@XRichEditOleCallback@CRichEditView@@UAGJHKPAK@Z 5f54ca26 f viewrich.obj
 0001:0004baa9       ?GetContextMenu@XRichEditOleCallback@CRichEditView@@UAGJGPAUIOleObject@@PAU_charrange@@PAPAUHMENU__@@@Z 5f54caa9 f viewrich.obj
 0001:0004bb71       ?OnCharEffect@CRichEditView@@QAEXKK@Z 5f54cb71 f viewrich.obj
 0001:0004bbe9       ?OnUpdateCharEffect@CRichEditView@@QAEXPAVCCmdUI@@KK@Z 5f54cbe9 f viewrich.obj
 0001:0004bc5b       ?OnParaAlign@CRichEditView@@QAEXG@Z 5f54cc5b f viewrich.obj
 0001:0004bca7       ?OnUpdateParaAlign@CRichEditView@@QAEXPAVCCmdUI@@G@Z 5f54cca7 f viewrich.obj
 0001:0004bd36       ?OnUpdateNeedSel@CRichEditView@@IAEXPAVCCmdUI@@@Z 5f54cd36 f viewrich.obj
 0001:0004bda2       ?OnUpdateNeedClip@CRichEditView@@IAEXPAVCCmdUI@@@Z 5f54cda2 f viewrich.obj
 0001:0004bde0       ?OnUpdateNeedText@CRichEditView@@IAEXPAVCCmdUI@@@Z 5f54cde0 f viewrich.obj
 0001:0004be24       ?OnUpdateNeedFind@CRichEditView@@IAEXPAVCCmdUI@@@Z 5f54ce24 f viewrich.obj
 0001:0004bea1       ?OnUpdateEditUndo@CRichEditView@@IAEXPAVCCmdUI@@@Z 5f54cea1 f viewrich.obj
 0001:0004bee6       ?OnEditCut@CRichEditView@@IAEXXZ 5f54cee6 f viewrich.obj
 0001:0004bf1e       ?OnEditCopy@CRichEditView@@IAEXXZ 5f54cf1e f viewrich.obj
 0001:0004bf56       ?OnEditPaste@CRichEditView@@IAEXXZ 5f54cf56 f viewrich.obj
 0001:0004bf98       ?OnEditClear@CRichEditView@@IAEXXZ 5f54cf98 f viewrich.obj
 0001:0004bfd0       ?OnEditUndo@CRichEditView@@IAEXXZ 5f54cfd0 f viewrich.obj
 0001:0004c027       ?OnEditSelectAll@CRichEditView@@IAEXXZ 5f54d027 f viewrich.obj
 0001:0004c063       ?OnEditFind@CRichEditView@@IAEXXZ 5f54d063 f viewrich.obj
 0001:0004c096       ?OnEditReplace@CRichEditView@@IAEXXZ 5f54d096 f viewrich.obj
 0001:0004c0c9       ?OnEditRepeat@CRichEditView@@IAEXXZ 5f54d0c9 f viewrich.obj
 0001:0004c128       ?OnCancelEditCntr@CRichEditView@@IAEXXZ 5f54d128 f viewrich.obj
 0001:0004c150       ?OnInsertObject@CRichEditView@@IAEXXZ 5f54d150 f viewrich.obj
 0001:0004c366       ?OnSelChange@CRichEditView@@IAEXPAUtagNMHDR@@PAJ@Z 5f54d366 f viewrich.obj
 0001:0004c3ce       ?OnDestroy@CRichEditView@@IAEXXZ 5f54d3ce f viewrich.obj
 0001:0004c40b       ?OnEditProperties@CRichEditView@@IAEXXZ 5f54d40b f viewrich.obj
 0001:0004c514       ?OnUpdateEditProperties@CRichEditView@@IAEXPAVCCmdUI@@@Z 5f54d514 f viewrich.obj
 0001:0004c545       ?OnCharBold@CRichEditView@@IAEXXZ 5f54d545 f viewrich.obj
 0001:0004c567       ?OnUpdateCharBold@CRichEditView@@IAEXPAVCCmdUI@@@Z 5f54d567 f viewrich.obj
 0001:0004c58f       ?OnCharItalic@CRichEditView@@IAEXXZ 5f54d58f f viewrich.obj
 0001:0004c5b1       ?OnUpdateCharItalic@CRichEditView@@IAEXPAVCCmdUI@@@Z 5f54d5b1 f viewrich.obj
 0001:0004c5d9       ?OnCharUnderline@CRichEditView@@IAEXXZ 5f54d5d9 f viewrich.obj
 0001:0004c5fb       ?OnUpdateCharUnderline@CRichEditView@@IAEXPAVCCmdUI@@@Z 5f54d5fb f viewrich.obj
 0001:0004c623       ?OnParaCenter@CRichEditView@@IAEXXZ 5f54d623 f viewrich.obj
 0001:0004c643       ?OnUpdateParaCenter@CRichEditView@@IAEXPAVCCmdUI@@@Z 5f54d643 f viewrich.obj
 0001:0004c669       ?OnParaLeft@CRichEditView@@IAEXXZ 5f54d669 f viewrich.obj
 0001:0004c689       ?OnUpdateParaLeft@CRichEditView@@IAEXPAVCCmdUI@@@Z 5f54d689 f viewrich.obj
 0001:0004c6af       ?OnParaRight@CRichEditView@@IAEXXZ 5f54d6af f viewrich.obj
 0001:0004c6cf       ?OnUpdateParaRight@CRichEditView@@IAEXPAVCCmdUI@@@Z 5f54d6cf f viewrich.obj
 0001:0004c6f5       ?OnBullet@CRichEditView@@IAEXXZ 5f54d6f5 f viewrich.obj
 0001:0004c7c6       ?OnUpdateBullet@CRichEditView@@IAEXPAVCCmdUI@@@Z 5f54d7c6 f viewrich.obj
 0001:0004c839       ?OnFormatFont@CRichEditView@@IAEXXZ 5f54d839 f viewrich.obj
 0001:0004c915       ?OnColorPick@CRichEditView@@IAEXK@Z 5f54d915 f viewrich.obj
 0001:0004c978       ?OnColorDefault@CRichEditView@@IAEXXZ 5f54d978 f viewrich.obj
 0001:0004c9cd       ?OnEditPasteSpecial@CRichEditView@@IAEXXZ 5f54d9cd f viewrich.obj
 0001:0004cb4a       ?OnUpdateEditPasteSpecial@CRichEditView@@IAEXPAVCCmdUI@@@Z 5f54db4a f viewrich.obj
 0001:0004cb75       ?OnKeyDown@CRichEditView@@IAEXIII@Z 5f54db75 f viewrich.obj
 0001:0004cc10       ?OnDropFiles@CRichEditView@@IAEXPAUHDROP__@@@Z 5f54dc10 f viewrich.obj
 0001:0004cd67       ?OnDevModeChange@CRichEditView@@IAEXPAG@Z 5f54dd67 f viewrich.obj
 0001:0004cded       ?IsRichEditFormat@CRichEditView@@SAHG@Z 5f54dded f viewrich.obj
 0001:0004ce42       ?CanPaste@CRichEditView@@QBEHXZ 5f54de42 f viewrich.obj
 0001:0004cf2f       ?GetCharFormatSelection@CRichEditView@@QAEAAU_charformatw@@XZ 5f54df2f f viewrich.obj
 0001:0004cf82       ?GetParaFormatSelection@CRichEditView@@QAEAAU_paraformat@@XZ 5f54df82 f viewrich.obj
 0001:0004cfd5       ?SetCharFormat@CRichEditView@@QAEXU_charformatw@@@Z 5f54dfd5 f viewrich.obj
 0001:0004d059       ?SetParaFormat@CRichEditView@@QAEXAAU_paraformat@@@Z 5f54e059 f viewrich.obj
 0001:0004d0dd       ?GetSelectedItem@CRichEditView@@QBEPAVCRichEditCntrItem@@XZ 5f54e0dd f viewrich.obj
 0001:0004d1f7       ?GetInPlaceActiveItem@CRichEditView@@QBEPAVCRichEditCntrItem@@XZ 5f54e1f7 f viewrich.obj
 0001:0004d31b       ?InsertItem@CRichEditView@@QAEJPAVCRichEditCntrItem@@@Z 5f54e31b f viewrich.obj
 0001:0004d3ff       ?InsertFileAsObject@CRichEditView@@QAEXPBG@Z 5f54e3ff f viewrich.obj
 0001:0004d585       ?DoPaste@CRichEditView@@QAEXAAVCOleDataObject@@GPAX@Z 5f54e585 f viewrich.obj
 0001:0004d8ed       ?OnPrinterChanged@CRichEditView@@MAEXABVCDC@@@Z 5f54e8ed f viewrich.obj
 0001:0004d9d2       ?OnPasteNativeObject@CRichEditView@@MAEHPAUIStorage@@@Z 5f54e9d2 f viewrich.obj
 0001:0004d9ec       ?GetContextMenu@CRichEditView@@MAEPAUHMENU__@@GPAUIOleObject@@PAU_charrange@@@Z 5f54e9ec f viewrich.obj
 0001:0004da06       ?GetClipboardData@CRichEditView@@MAEJPAU_charrange@@KPAUIDataObject@@PAPAU3@@Z 5f54ea06 f viewrich.obj
 0001:0004da23       ?QueryAcceptData@CRichEditView@@MAEJPAUIDataObject@@PAGKHPAX@Z 5f54ea23 f viewrich.obj
 0001:0004dbd7       ?GetWindowContext@CRichEditView@@QAEJPAPAUIOleInPlaceFrame@@PAPAUIOleInPlaceUIWindow@@PAUtagOIFI@@@Z 5f54ebd7 f viewrich.obj
 0001:0004dc3b       ?ShowContainerUI@CRichEditView@@QAEJH@Z 5f54ec3b f viewrich.obj
 0001:0004dcb5       ?AdjustDialogPosition@CRichEditView@@QAEXPAVCDialog@@@Z 5f54ecb5 f viewrich.obj
 0001:0004ddc2       ?OnEditFindReplace@CRichEditView@@IAEXH@Z 5f54edc2 f viewrich.obj
 0001:0004e0c9       ?OnFindNext@CRichEditView@@MAEXPBGHHH@Z 5f54f0c9 f viewrich.obj
 0001:0004e17b       ?OnReplaceSel@CRichEditView@@MAEXPBGHHH0@Z 5f54f17b f viewrich.obj
 0001:0004e2c4       ?OnReplaceAll@CRichEditView@@MAEXPBG0HH@Z 5f54f2c4 f viewrich.obj
 0001:0004e464       ?OnFindReplaceCmd@CRichEditView@@IAEJIJ@Z 5f54f464 f viewrich.obj
 0001:0004e729       ?SameAsSelected@CRichEditView@@IAEHPBGHH@Z 5f54f729 f viewrich.obj
 0001:0004e833       ?FindTextW@CRichEditView@@QAEHPAV_AFX_RICHEDIT_STATE@@@Z 5f54f833 f viewrich.obj
 0001:0004e88f       ?FindTextW@CRichEditView@@QAEHPBGHH@Z 5f54f88f f viewrich.obj
 0001:0004e921       ?FindTextSimple@CRichEditView@@QAEHPAV_AFX_RICHEDIT_STATE@@@Z 5f54f921 f viewrich.obj
 0001:0004e97d       ?FindTextSimple@CRichEditView@@QAEHPBGHH@Z 5f54f97d f viewrich.obj
 0001:0004eaf0       ?FindAndSelect@CRichEditView@@QAEJKAAU_findtextexw@@@Z 5f54faf0 f viewrich.obj
 0001:0004eb45       ?TextNotFound@CRichEditView@@QAEXPBG@Z 5f54fb45 f viewrich.obj
 0001:0004eb8c       ?OnTextNotFound@CRichEditView@@MAEXPBG@Z 5f54fb8c f viewrich.obj
 0001:0004ebac       ?AssertValid@CRichEditView@@UBEXXZ 5f54fbac f viewrich.obj
 0001:0004ec13       ?Dump@CRichEditView@@UBEXAAVCDumpContext@@@Z 5f54fc13 f viewrich.obj
 0001:0004ed37       ?IsSelected@CRichEditView@@MBEHPBVCObject@@@Z 5f54fd37 f viewrich.obj
 0001:0004ed6c       ??0CRichEditDoc@@IAE@XZ    5f54fd6c f viewrich.obj
 0001:0004ee08       ?GetView@CRichEditDoc@@UBEPAVCRichEditView@@XZ 5f54fe08 f viewrich.obj
 0001:0004ee7d       ?IsModified@CRichEditDoc@@UAEHXZ 5f54fe7d f viewrich.obj
 0001:0004eeaf       ?SetModifiedFlag@CRichEditDoc@@UAEXH@Z 5f54feaf f viewrich.obj
 0001:0004ef30       ?GetInPlaceActiveItem@CRichEditDoc@@UAEPAVCOleClientItem@@PAVCWnd@@@Z 5f54ff30 f viewrich.obj
 0001:0004ef83       ?SetPathName@CRichEditDoc@@UAEXPBGH@Z 5f54ff83 f viewrich.obj
 0001:0004efab       ?SetTitle@CRichEditDoc@@UAEXPBG@Z 5f54ffab f viewrich.obj
 0001:0004f0f6       ?LookupItem@CRichEditDoc@@QBEPAVCRichEditCntrItem@@PAUIOleObject@@@Z 5f5500f6 f viewrich.obj
 0001:0004f165       ?CreateClientItem@CRichEditDoc@@UBEPAVCRichEditCntrItem@@PAU_reobject@@@Z 5f550165 f viewrich.obj
 0001:0004f1b5       ?MarkItemsClear@CRichEditDoc@@IBEXXZ 5f5501b5 f viewrich.obj
 0001:0004f21d       ?DeleteUnmarkedItems@CRichEditDoc@@IBEXXZ 5f55021d f viewrich.obj
 0001:0004f2a9       ?GetStartPosition@CRichEditDoc@@UBEPAU__POSITION@@XZ 5f5502a9 f viewrich.obj
 0001:0004f2df       ?UpdateObjectCache@CRichEditDoc@@IAEXXZ 5f5502df f viewrich.obj
 0001:0004f480       ?GetPrimarySelectedItem@CRichEditDoc@@UAEPAVCOleClientItem@@PAVCView@@@Z 5f550480 f viewrich.obj
 0001:0004f4cd       ?DeleteContents@CRichEditDoc@@UAEXXZ 5f5504cd f viewrich.obj
 0001:0004f5a0       ?Serialize@CRichEditDoc@@UAEXAAVCArchive@@@Z 5f5505a0 f viewrich.obj
 0001:0004f5e2       ?AssertValid@CRichEditDoc@@UBEXXZ 5f5505e2 f viewrich.obj
 0001:0004f600       ?Dump@CRichEditDoc@@UBEXAAVCDumpContext@@@Z 5f550600 f viewrich.obj
 0001:0004f624       ?PreCloseFrame@CRichEditDoc@@UAEXPAVCFrameWnd@@@Z 5f550624 f viewrich.obj
 0001:0004f744       ?UpdateModifiedFlag@CRichEditDoc@@UAEXXZ 5f550744 f viewrich.obj
 0001:0004f75a       ?OnGetEmbeddedItem@CRichEditDoc@@MAEPAVCOleServerItem@@XZ 5f55075a f viewrich.obj
 0001:0004f78a       ??0CRichEditCntrItem@@QAE@PAU_reobject@@PAVCRichEditDoc@@@Z 5f55078a f viewrich.obj
 0001:0004f90c       ??1CRichEditCntrItem@@UAE@XZ 5f55090c f viewrich.obj
 0001:0004f993       ?OnDeactivateUI@CRichEditCntrItem@@UAEXH@Z 5f550993 f viewrich.obj
 0001:0004fa0f       ?ShowContainerUI@CRichEditCntrItem@@QAEJH@Z 5f550a0f f viewrich.obj
 0001:0004fa92       ?OnChangeItemPosition@CRichEditCntrItem@@MAEHABVCRect@@@Z 5f550a92 f viewrich.obj
 0001:0004fabf       ?CanActivate@CRichEditCntrItem@@UAEHXZ 5f550abf f viewrich.obj
 0001:0004fb17       ?GetWindowContext@CRichEditCntrItem@@QAEJPAPAUIOleInPlaceFrame@@PAPAUIOleInPlaceUIWindow@@PAUtagOIFI@@@Z 5f550b17 f viewrich.obj
 0001:0004fb83       ?ConvertTo@CRichEditCntrItem@@UAEHABU_GUID@@@Z 5f550b83 f viewrich.obj
 0001:0004fc74       ?ActivateAs@CRichEditCntrItem@@UAEHPBGABU_GUID@@1@Z 5f550c74 f viewrich.obj
 0001:0004fcde       ?SetDrawAspect@CRichEditCntrItem@@UAEXW4tagDVASPECT@@@Z 5f550cde f viewrich.obj
 0001:0004fd39       ?SyncToRichEditObject@CRichEditCntrItem@@QAEXAAU_reobject@@@Z 5f550d39 f viewrich.obj
 0001:0004fd60       ?AssertValid@CRichEditCntrItem@@UBEXXZ 5f550d60 f viewrich.obj
 0001:0004fd7e       ?Dump@CRichEditCntrItem@@UBEXAAVCDumpContext@@@Z 5f550d7e f viewrich.obj
 0001:0004fda2       ?GetClientSite@CRichEditCntrItem@@UAEPAUIOleClientSite@@XZ 5f550da2 f viewrich.obj
 0001:0004fe7c       ?GetRichEditCtrl@CRichEditView@@QBEAAVCRichEditCtrl@@XZ 5f550e7c f viewrich.obj
 0001:0004fe95       ?GetPrintWidth@CRichEditView@@QBEHXZ 5f550e95 f viewrich.obj
 0001:0004fec0       ?GetPrintRect@CRichEditView@@QBE?AVCRect@@XZ 5f550ec0 f viewrich.obj
 0001:0004ff14       ?GetPageRect@CRichEditView@@QBE?AVCRect@@XZ 5f550f14 f viewrich.obj
 0001:0004ff59       ?SetPaperSize@CRichEditView@@QAEXVCSize@@@Z 5f550f59 f viewrich.obj
 0001:0004ff85       ?GetPaperSize@CRichEditView@@QBE?AVCSize@@XZ 5f550f85 f viewrich.obj
 0001:0004ffb5       ?SetMargins@CRichEditView@@QAEXABVCRect@@@Z 5f550fb5 f viewrich.obj
 0001:0004ffec       ?GetMargins@CRichEditView@@QBE?AVCRect@@XZ 5f550fec f viewrich.obj
 0001:00050026       ?GetTextLength@CRichEditView@@QBEJXZ 5f551026 f viewrich.obj
 0001:0005004b       ?GetDocument@CRichEditView@@QBEPAVCRichEditDoc@@XZ 5f55104b f viewrich.obj
 0001:000500b6       ?GetStreamFormat@CRichEditDoc@@QBEHXZ 5f5510b6 f viewrich.obj
 0001:000500eb       ?InvalidateObjectCache@CRichEditDoc@@QAEXXZ 5f5510eb f viewrich.obj
 0001:0005010e       ?Mark@CRichEditCntrItem@@QAEXH@Z 5f55110e f viewrich.obj
 0001:0005012f       ?IsMarked@CRichEditCntrItem@@QAEHXZ 5f55112f f viewrich.obj
 0001:0005016e       ?GetDocument@CRichEditCntrItem@@QAEPAVCRichEditDoc@@XZ 5f55116e f viewrich.obj
 0001:0005018c       ?GetActiveView@CRichEditCntrItem@@QAEPAVCRichEditView@@XZ 5f55118c f viewrich.obj
 0001:000501b0       ??0XRichEditOleCallback@CRichEditView@@QAE@XZ 5f5511b0 f viewrich.obj
 0001:000501e0       ??0IRichEditOleCallback@@QAE@XZ 5f5511e0 f viewrich.obj
 0001:00050210       ??1CFontDialog@@UAE@XZ     5f551210 f viewrich.obj
 0001:00050270       ??_ECRichEditDoc@@UAEPAXI@Z 5f551270 f viewrich.obj
 0001:00050270       ??_GCRichEditDoc@@UAEPAXI@Z 5f551270 f viewrich.obj
 0001:000502b0       ??1CRichEditDoc@@UAE@XZ    5f5512b0 f viewrich.obj
 0001:00050310       _RawDllMain@12             5f551310 f dllole.obj
 0001:0005042c       _DllMain@12                5f55142c f dllole.obj
 0001:00050663       ?AfxOleInitModule@@YGXXZ   5f551663 f dllole.obj
 0001:00050746       _DllGetClassObject@12      5f551746 f dllole.obj
 0001:000507c5       _DllCanUnloadNow@0         5f5517c5 f dllole.obj
 0001:00050836       _DllRegisterServer@0       5f551836 f dllole.obj
 0001:000508d0       _DllUnregisterServer@0     5f5518d0 f dllole.obj
 0001:000509d7       ?AfxWndProcDllOle@@YGJPAUHWND__@@IIJ@Z 5f5519d7 f dllole.obj
 0001:00050a5a       ??1_AFX_INIT_OLE_DLL_STATE@@QAE@XZ 5f551a5a f dllole.obj
 0001:00050b5f       ?_AfxGetOleModuleState@@YGPAVAFX_MODULE_STATE@@XZ 5f551b5f f dllole.obj
 0001:00050baf       ??0OLE_DATA@@QAE@XZ        5f551baf f oleinit.obj
 0001:00050c93       ?AfxOleInit@@YGHXZ         5f551c93 f oleinit.obj
 0001:00050ddc       ?AfxOleTerm@@YGXH@Z        5f551ddc f oleinit.obj
 0001:00050e7c       ?AfxOleTermOrFreeLib@@YGXHH@Z 5f551e7c f oleinit.obj
 0001:00050ef6       ?RunEmbedded@CWinApp@@QAEHXZ 5f551ef6 f oleinit.obj
 0001:00051016       ?RunAutomated@CWinApp@@QAEHXZ 5f552016 f oleinit.obj
 0001:00051080       ?_GetBaseClass@COleLinkingDoc@@KGPAUCRuntimeClass@@XZ 5f552080 f olecli1.obj
 0001:00051095       ?GetRuntimeClass@COleLinkingDoc@@UBEPAUCRuntimeClass@@XZ 5f552095 f olecli1.obj
 0001:000510b0       ?AfxBSTR2CString@@YGXPAVCString@@PAG@Z 5f5520b0 f olecnvrt.obj
 0001:00051135       ?AfxAllocTaskWideString@@YGPAGPBG@Z 5f552135 f olecnvrt.obj
 0001:000511a0       ?AfxAllocTaskWideString@@YGPAGPBD@Z 5f5521a0 f olecnvrt.obj
 0001:0005122a       ?AfxAllocTaskAnsiString@@YGPADPBG@Z 5f55222a f olecnvrt.obj
 0001:000512bd       ?AfxAllocTaskAnsiString@@YGPADPBD@Z 5f5522bd f olecnvrt.obj
 0001:00051330       ?_GetBaseClass@COleDispatchException@@KGPAUCRuntimeClass@@XZ 5f552330 f oledisp1.obj
 0001:00051345       ?GetRuntimeClass@COleDispatchException@@UBEPAUCRuntimeClass@@XZ 5f552345 f oledisp1.obj
 0001:00051360       ?_GetBaseClass@COleInsertDialog@@KGPAUCRuntimeClass@@XZ 5f552360 f oledlgs1.obj
 0001:00051375       ?GetRuntimeClass@COleInsertDialog@@UBEPAUCRuntimeClass@@XZ 5f552375 f oledlgs1.obj
 0001:00051390       ?_GetBaseClass@COleConvertDialog@@KGPAUCRuntimeClass@@XZ 5f552390 f oledlgs1.obj
 0001:000513a5       ?GetRuntimeClass@COleConvertDialog@@UBEPAUCRuntimeClass@@XZ 5f5523a5 f oledlgs1.obj
 0001:000513c0       ?_GetBaseClass@COleChangeIconDialog@@KGPAUCRuntimeClass@@XZ 5f5523c0 f oledlgs1.obj
 0001:000513d5       ?GetRuntimeClass@COleChangeIconDialog@@UBEPAUCRuntimeClass@@XZ 5f5523d5 f oledlgs1.obj
 0001:000513f0       ?_GetBaseClass@COleLinksDialog@@KGPAUCRuntimeClass@@XZ 5f5523f0 f oledlgs1.obj
 0001:00051405       ?GetRuntimeClass@COleLinksDialog@@UBEPAUCRuntimeClass@@XZ 5f552405 f oledlgs1.obj
 0001:00051420       ?_GetBaseClass@COleUpdateDialog@@KGPAUCRuntimeClass@@XZ 5f552420 f oledlgs1.obj
 0001:00051435       ?GetRuntimeClass@COleUpdateDialog@@UBEPAUCRuntimeClass@@XZ 5f552435 f oledlgs1.obj
 0001:00051450       ?_GetBaseClass@COlePasteSpecialDialog@@KGPAUCRuntimeClass@@XZ 5f552450 f oledlgs1.obj
 0001:00051465       ?GetRuntimeClass@COlePasteSpecialDialog@@UBEPAUCRuntimeClass@@XZ 5f552465 f oledlgs1.obj
 0001:00051480       ?_GetBaseClass@COleDialog@@KGPAUCRuntimeClass@@XZ 5f552480 f oledlgs2.obj
 0001:00051495       ?GetRuntimeClass@COleDialog@@UBEPAUCRuntimeClass@@XZ 5f552495 f oledlgs2.obj
 0001:000514b0       ?_GetBaseClass@COleBusyDialog@@KGPAUCRuntimeClass@@XZ 5f5524b0 f oledlgs2.obj
 0001:000514c5       ?GetRuntimeClass@COleBusyDialog@@UBEPAUCRuntimeClass@@XZ 5f5524c5 f oledlgs2.obj
 0001:000514e0       ?_GetBaseClass@COlePropertiesDialog@@KGPAUCRuntimeClass@@XZ 5f5524e0 f oledlgs3.obj
 0001:000514f5       ?GetRuntimeClass@COlePropertiesDialog@@UBEPAUCRuntimeClass@@XZ 5f5524f5 f oledlgs3.obj
 0001:00051510       ?_GetBaseClass@COleChangeSourceDialog@@KGPAUCRuntimeClass@@XZ 5f552510 f oledlgs3.obj
 0001:00051525       ?GetRuntimeClass@COleChangeSourceDialog@@UBEPAUCRuntimeClass@@XZ 5f552525 f oledlgs3.obj
 0001:00051540       ?AfxThunkSysFreeString@@YGXPAG@Z 5f552540 f oledata.obj
 0001:00051574       ?AfxThunkSysAllocStringByteLen@@YGPAGPBDI@Z 5f552574 f oledata.obj
 0001:000515ac       ?AfxThunkVariantCopy@@YGJPAUtagVARIANT@@0@Z 5f5525ac f oledata.obj
 0001:000515e4       ?AfxThunkVariantClear@@YGJPAUtagVARIANT@@@Z 5f5525e4 f oledata.obj
 0001:00051618       ?AfxThunkVariantChangeType@@YGJPAUtagVARIANT@@0GG@Z 5f552618 f oledata.obj
 0001:00051658       ?AfxThunkSysAllocStringLen@@YGPAGPBGI@Z 5f552658 f oledata.obj
 0001:00051690       ?AfxThunkSysStringLen@@YGIPAG@Z 5f552690 f oledata.obj
 0001:000516c4       ?AfxThunkSysReAllocStringLen@@YGHPAPAGPBGI@Z 5f5526c4 f oledata.obj
 0001:00051700       ?AfxThunkSysAllocString@@YGPAGPBG@Z 5f552700 f oledata.obj
 0001:00051734       ?AfxThunkSysStringByteLen@@YGIPAG@Z 5f552734 f oledata.obj
 0001:00051768       ?AfxThunkVarCyFromStr@@YGJPAGKKPATtagCY@@@Z 5f552768 f oledata.obj
 0001:000517a8       ?AfxThunkVarBstrFromCy@@YGJTtagCY@@KKPAPAG@Z 5f5527a8 f oledata.obj
 0001:000517ec       ?AfxThunkVarDateFromStr@@YGJPAGKKPAN@Z 5f5527ec f oledata.obj
 0001:0005182c       ?AfxThunkVarBstrFromDate@@YGJNKKPAPAG@Z 5f55282c f oledata.obj
 0001:00051870       ?AfxThunkLoadTypeLib@@YGJPBGPAPAUITypeLib@@@Z 5f552870 f oledata.obj
 0001:000518a8       ?AfxThunkLoadRegTypeLib@@YGJABU_GUID@@GGKPAPAUITypeLib@@@Z 5f5528a8 f oledata.obj
 0001:000518ec       ?AfxThunkRegisterTypeLib@@YGJPAUITypeLib@@PAG1@Z 5f5528ec f oledata.obj
 0001:00051928       ?AfxThunkDosDateTimeToVariantTime@@YGHGGPAN@Z 5f552928 f oledata.obj
 0001:00051964       ?AfxThunkSafeArrayCreate@@YGPAUtagSAFEARRAY@@GIPAUtagSAFEARRAYBOUND@@@Z 5f552964 f oledata.obj
 0001:000519a0       ?AfxThunkSafeArrayRedim@@YGJPAUtagSAFEARRAY@@PAUtagSAFEARRAYBOUND@@@Z 5f5529a0 f oledata.obj
 0001:000519d8       ?AfxThunkSafeArrayAccessData@@YGJPAUtagSAFEARRAY@@PAPAX@Z 5f5529d8 f oledata.obj
 0001:00051a10       ?AfxThunkSafeArrayUnaccessData@@YGJPAUtagSAFEARRAY@@@Z 5f552a10 f oledata.obj
 0001:00051a44       ?AfxThunkSafeArrayGetUBound@@YGJPAUtagSAFEARRAY@@IPAJ@Z 5f552a44 f oledata.obj
 0001:00051a80       ?AfxThunkSafeArrayGetLBound@@YGJPAUtagSAFEARRAY@@IPAJ@Z 5f552a80 f oledata.obj
 0001:00051abc       ?AfxThunkSafeArrayGetElemsize@@YGIPAUtagSAFEARRAY@@@Z 5f552abc f oledata.obj
 0001:00051af0       ?AfxThunkSafeArrayGetDim@@YGIPAUtagSAFEARRAY@@@Z 5f552af0 f oledata.obj
 0001:00051b24       ?AfxThunkSafeArrayCopy@@YGJPAUtagSAFEARRAY@@PAPAU1@@Z 5f552b24 f oledata.obj
 0001:00051b5c       ?AfxThunkSafeArrayAllocData@@YGJPAUtagSAFEARRAY@@@Z 5f552b5c f oledata.obj
 0001:00051b90       ?AfxThunkSafeArrayAllocDescriptor@@YGJIPAPAUtagSAFEARRAY@@@Z 5f552b90 f oledata.obj
 0001:00051bc8       ?AfxThunkSafeArrayGetElement@@YGJPAUtagSAFEARRAY@@PAJPAX@Z 5f552bc8 f oledata.obj
 0001:00051c04       ?AfxThunkSafeArrayPutElement@@YGJPAUtagSAFEARRAY@@PAJPAX@Z 5f552c04 f oledata.obj
 0001:00051c40       ?AfxThunkSafeArrayLock@@YGJPAUtagSAFEARRAY@@@Z 5f552c40 f oledata.obj
 0001:00051c74       ?AfxThunkSafeArrayUnlock@@YGJPAUtagSAFEARRAY@@@Z 5f552c74 f oledata.obj
 0001:00051ca8       ?AfxThunkSafeArrayDestroy@@YGJPAUtagSAFEARRAY@@@Z 5f552ca8 f oledata.obj
 0001:00051cdc       ?AfxThunkSafeArrayDestroyData@@YGJPAUtagSAFEARRAY@@@Z 5f552cdc f oledata.obj
 0001:00051d10       ?AfxThunkSafeArrayDestroyDescriptor@@YGJPAUtagSAFEARRAY@@@Z 5f552d10 f oledata.obj
 0001:00051d44       ?AfxThunkSafeArrayPtrOfIndex@@YGJPAUtagSAFEARRAY@@PAJPAPAX@Z 5f552d44 f oledata.obj
 0001:00051d80       ?AfxThunkOleUIAddVerbMenu@@YGHPAUIOleObject@@PBGPAUHMENU__@@IIIHIPAPAU2@@Z 5f552d80 f oledata.obj
 0001:00051dd4       ?AfxThunkOleUIBusy@@YGIPAUtagOLEUIBUSYW@@@Z 5f552dd4 f oledata.obj
 0001:00051e08       ?AfxThunkOleUIChangeIcon@@YGIPAUtagOLEUICHANGEICONW@@@Z 5f552e08 f oledata.obj
 0001:00051e3c       ?AfxThunkOleUIChangeSource@@YGIPAUtagOLEUICHANGESOURCEW@@@Z 5f552e3c f oledata.obj
 0001:00051e70       ?AfxThunkOleUIConvert@@YGIPAUtagOLEUICONVERTW@@@Z 5f552e70 f oledata.obj
 0001:00051ea4       ?AfxThunkOleUIEditLinks@@YGIPAUtagOLEUIEDITLINKSW@@@Z 5f552ea4 f oledata.obj
 0001:00051ed8       ?AfxThunkOleUIInsertObject@@YGIPAUtagOLEUIINSERTOBJECTW@@@Z 5f552ed8 f oledata.obj
 0001:00051f0c       ?AfxThunkOleUIObjectProperties@@YGIPAUtagOLEUIOBJECTPROPSW@@@Z 5f552f0c f oledata.obj
 0001:00051f40       ?AfxThunkOleUIPasteSpecial@@YGIPAUtagOLEUIPASTESPECIALW@@@Z 5f552f40 f oledata.obj
 0001:00051f74       ?AfxThunkOleUIUpdateLinks@@YGHPAUIOleUILinkContainerW@@PAUHWND__@@PAGH@Z 5f552f74 f oledata.obj
 0001:00051fb4       ?AfxThunkReadFmtUserTypeStg@@YGJPAUIStorage@@PAGPAPAG@Z 5f552fb4 f oledata.obj
 0001:00051fea       ?AfxThunkReadClassStg@@YGJPAUIStorage@@PAU_GUID@@@Z 5f552fea f oledata.obj
 0001:00052020       ?AfxThunkCreateFileMoniker@@YGJPBGPAPAUIMoniker@@@Z 5f553020 f oledata.obj
 0001:00052056       ?AfxThunkStgIsStorageFile@@YGJPBG@Z 5f553056 f oledata.obj
 0001:00052088       ?AfxThunkStgOpenStorage@@YGJPBGPAUIStorage@@KPAPAGKPAPAU1@@Z 5f553088 f oledata.obj
 0001:000520ce       ?AfxThunkDoDragDrop@@YGJPAUIDataObject@@PAUIDropSource@@KPAK@Z 5f5530ce f oledata.obj
 0001:0005210c       ?AfxThunkCoLockObjectExternal@@YGJPAUIUnknown@@HH@Z 5f55310c f oledata.obj
 0001:00052146       ?AfxThunkRegisterDragDrop@@YGJPAUHWND__@@PAUIDropTarget@@@Z 5f553146 f oledata.obj
 0001:0005217c       ?AfxThunkOleRegGetUserType@@YGJABU_GUID@@KPAPAG@Z 5f55317c f oledata.obj
 0001:000521b6       ?AfxThunkStgCreateDocfile@@YGJPBGKKPAPAUIStorage@@@Z 5f5531b6 f oledata.obj
 0001:000521f4       ?AfxThunkRevokeDragDrop@@YGJPAUHWND__@@@Z 5f5531f4 f oledata.obj
 0001:00052226       ?AfxThunkCoRegisterClassObject@@YGJABU_GUID@@PAUIUnknown@@KKPAK@Z 5f553226 f oledata.obj
 0001:00052268       ?AfxThunkCoRevokeClassObject@@YGJK@Z 5f553268 f oledata.obj
 0001:0005229a       ?AfxThunkOleTranslateAccelerator@@YGJPAUIOleInPlaceFrame@@PAUtagOIFI@@PAUtagMSG@@@Z 5f55329a f oledata.obj
 0001:000522d4       ?AfxThunkIsAccelerator@@YGHPAUHACCEL__@@HPAUtagMSG@@PAG@Z 5f5532d4 f oledata.obj
 0001:00052312       ?AfxThunkOleCreateMenuDescriptor@@YGPAXPAUHMENU__@@PAUtagOleMenuGroupWidths@@@Z 5f553312 f oledata.obj
 0001:00052348       ?AfxThunkOleDestroyMenuDescriptor@@YGJPAX@Z 5f553348 f oledata.obj
 0001:0005237a       ?AfxThunkGetRunningObjectTable@@YGJKPAPAUIRunningObjectTable@@@Z 5f55337a f oledata.obj
 0001:000523b0       ?AfxThunkWriteClassStg@@YGJPAUIStorage@@ABU_GUID@@@Z 5f5533b0 f oledata.obj
 0001:000523e6       ?AfxThunkOleQueryLinkFromData@@YGJPAUIDataObject@@@Z 5f5533e6 f oledata.obj
 0001:00052418       ?AfxThunkCoRegisterMessageFilter@@YGJPAUIMessageFilter@@PAPAU1@@Z 5f553418 f oledata.obj
 0001:0005244e       ?AfxThunkCoCreateInstance@@YGJABU_GUID@@PAPAUIUnknown@@K0PAPAX@Z 5f55344e f oledata.obj
 0001:00052490       ?AfxThunkCreateBindCtx@@YGJKPAPAUIBindCtx@@@Z 5f553490 f oledata.obj
 0001:000524c6       ?AfxThunkStringFromCLSID@@YGJABU_GUID@@PAPAG@Z 5f5534c6 f oledata.obj
 0001:000524fc       ?AfxThunkCoDisconnectObject@@YGJPAUIUnknown@@K@Z 5f5534fc f oledata.obj
 0001:00052532       ?AfxThunkOleRegEnumVerbs@@YGJABU_GUID@@PAPAUIEnumOLEVERB@@@Z 5f553532 f oledata.obj
 0001:00052568       ?AfxThunkOleUninitialize@@YGXXZ 5f553568 f oledata.obj
 0001:00052594       ?AfxThunkCreateOleAdviseHolder@@YGJPAPAUIOleAdviseHolder@@@Z 5f553594 f oledata.obj
 0001:000525c6       ?AfxThunkCreateDataAdviseHolder@@YGJPAPAUIDataAdviseHolder@@@Z 5f5535c6 f oledata.obj
 0001:000525f8       ?AfxThunkOleGetAutoConvert@@YGJABU_GUID@@PAU1@@Z 5f5535f8 f oledata.obj
 0001:0005262e       ?AfxThunkCoGetClassObject@@YGJABU_GUID@@KPAX0PAPAX@Z 5f55362e f oledata.obj
 0001:00052670       ?AfxThunkOleCreateDefaultHandler@@YGJABU_GUID@@PAUIUnknown@@0PAPAX@Z 5f553670 f oledata.obj
 0001:000526ae       ?AfxThunkCreateDataCache@@YGJPAUIUnknown@@ABU_GUID@@1PAPAX@Z 5f5536ae f oledata.obj
 0001:000526ee       ?AfxThunkReadClassStm@@YGJPAUIStream@@PAU_GUID@@@Z 5f5536ee f oledata.obj
 0001:00052726       ?AfxThunkOleLoadFromStream@@YGJPAUIStream@@ABU_GUID@@PAPAX@Z 5f553726 f oledata.obj
 0001:00052762       ?AfxThunkStringFromGUID2@@YGHABU_GUID@@PAGH@Z 5f553762 f oledata.obj
 0001:0005279e       ?AfxThunkCoUninitialize@@YGXXZ 5f55379e f oledata.obj
 0001:000527cc       ?AfxThunkCoInitialize@@YGJPAX@Z 5f5537cc f oledata.obj
 0001:00052800       ?AfxThunkOleInitialize@@YGJPAX@Z 5f553800 f oledata.obj
 0001:00052834       ?AfxThunkCoFreeUnusedLibraries@@YGXXZ 5f553834 f oledata.obj
 0001:00052862       ?AfxThunkOleCreateFromData@@YGJPAUIDataObject@@ABU_GUID@@KPAUtagFORMATETC@@PAUIOleClientSite@@PAUIStorage@@PAPAX@Z 5f553862 f oledata.obj
 0001:000528ae       ?AfxThunkOleSetContainedObject@@YGJPAUIUnknown@@H@Z 5f5538ae f oledata.obj
 0001:000528e6       ?AfxThunkOleLockRunning@@YGJPAUIUnknown@@HH@Z 5f5538e6 f oledata.obj
 0001:00052922       ?AfxThunkCoTaskMemAlloc@@YGPAXK@Z 5f553922 f oledata.obj
 0001:00052956       ?AfxThunkCLSIDFromString@@YGJPAGPAU_GUID@@@Z 5f553956 f oledata.obj
 0001:0005298e       ?AfxThunkCLSIDFromProgID@@YGJPBGPAU_GUID@@@Z 5f55398e f oledata.obj
 0001:000529c6       ?AfxThunkOleIsCurrentClipboard@@YGJPAUIDataObject@@@Z 5f5539c6 f oledata.obj
 0001:000529fa       ?AfxThunkOleFlushClipboard@@YGJXZ 5f5539fa f oledata.obj
 0001:00052a28       ?AfxThunkOleSetClipboard@@YGJPAUIDataObject@@@Z 5f553a28 f oledata.obj
 0001:00052a5c       ?AfxThunkOleIsRunning@@YGHPAUIOleObject@@@Z 5f553a5c f oledata.obj
 0001:00052a90       ?AfxThunkOleRun@@YGJPAUIUnknown@@@Z 5f553a90 f oledata.obj
 0001:00052ac4       ?AfxThunkOleGetClipboard@@YGJPAPAUIDataObject@@@Z 5f553ac4 f oledata.obj
 0001:00052af8       ?AfxThunkCoTreatAsClass@@YGJABU_GUID@@0@Z 5f553af8 f oledata.obj
 0001:00052b30       ?AfxThunkOleQueryCreateFromData@@YGJPAUIDataObject@@@Z 5f553b30 f oledata.obj
 0001:00052b64       ?AfxThunkOleSetMenuDescriptor@@YGJPAXPAUHWND__@@1PAUIOleInPlaceFrame@@PAUIOleInPlaceActiveObject@@@Z 5f553b64 f oledata.obj
 0001:00052ba8       ?AfxThunkCreateItemMoniker@@YGJPBG0PAPAUIMoniker@@@Z 5f553ba8 f oledata.obj
 0001:00052be4       ?AfxThunkCreateGenericComposite@@YGJPAUIMoniker@@0PAPAU1@@Z 5f553be4 f oledata.obj
 0001:00052c20       ?AfxThunkCreateStreamOnHGlobal@@YGJPAXHPAPAUIStream@@@Z 5f553c20 f oledata.obj
 0001:00052c5c       ?AfxThunkOleSaveToStream@@YGJPAUIPersistStream@@PAUIStream@@@Z 5f553c5c f oledata.obj
 0001:00052c94       ?AfxThunkWriteClassStm@@YGJPAUIStream@@ABU_GUID@@@Z 5f553c94 f oledata.obj
 0001:00052ccc       ?AfxThunkCoTaskMemFree@@YGXPAX@Z 5f553ccc f oledata.obj
 0001:00052d00       ?AfxThunkOleGetIconOfClass@@YGPAXABU_GUID@@PAGH@Z 5f553d00 f oledata.obj
 0001:00052d3c       ?AfxThunkReleaseStgMedium@@YGXPAUtagSTGMEDIUM@@@Z 5f553d3c f oledata.obj
 0001:00052d70       ?AfxThunkGetHGlobalFromILockBytes@@YGJPAUILockBytes@@PAPAX@Z 5f553d70 f oledata.obj
 0001:00052da8       ?AfxThunkStgOpenStorageOnILockBytes@@YGJPAUILockBytes@@PAUIStorage@@KPAPAGKPAPAU2@@Z 5f553da8 f oledata.obj
 0001:00052df0       ?AfxThunkCreateILockBytesOnHGlobal@@YGJPAXHPAPAUILockBytes@@@Z 5f553df0 f oledata.obj
 0001:00052e2c       ?AfxThunkStgCreateDocfileOnILockBytes@@YGJPAUILockBytes@@KKPAPAUIStorage@@@Z 5f553e2c f oledata.obj
 0001:00052e6c       ?AfxThunkOleSave@@YGJPAUIPersistStorage@@PAUIStorage@@H@Z 5f553e6c f oledata.obj
 0001:00052ea8       ?AfxThunkOleLoad@@YGJPAUIStorage@@ABU_GUID@@PAUIOleClientSite@@PAPAX@Z 5f553ea8 f oledata.obj
 0001:00052ee8       ?AfxThunkOleCreate@@YGJABU_GUID@@0KPAUtagFORMATETC@@PAUIOleClientSite@@PAUIStorage@@PAPAX@Z 5f553ee8 f oledata.obj
 0001:00052f34       ?AfxThunkOleCreateLinkToFile@@YGJPBGABU_GUID@@KPAUtagFORMATETC@@PAUIOleClientSite@@PAUIStorage@@PAPAX@Z 5f553f34 f oledata.obj
 0001:00052f80       ?AfxThunkOleCreateFromFile@@YGJABU_GUID@@PBG0KPAUtagFORMATETC@@PAUIOleClientSite@@PAUIStorage@@PAPAX@Z 5f553f80 f oledata.obj
 0001:00052fd0       ?AfxThunkOleCreateStaticFromData@@YGJPAUIDataObject@@ABU_GUID@@KPAUtagFORMATETC@@PAUIOleClientSite@@PAUIStorage@@PAPAX@Z 5f553fd0 f oledata.obj
 0001:0005301c       ?AfxThunkOleCreateLinkFromData@@YGJPAUIDataObject@@ABU_GUID@@KPAUtagFORMATETC@@PAUIOleClientSite@@PAUIStorage@@PAPAX@Z 5f55401c f oledata.obj
 0001:00053068       ?AfxThunkSetConvertStg@@YGJPAUIStorage@@H@Z 5f554068 f oledata.obj
 0001:000530a0       ?AfxThunkOleDuplicateData@@YGPAXPAXGI@Z 5f5540a0 f oledata.obj
 0001:000530dc       ?AfxThunkWriteFmtUserTypeStg@@YGJPAUIStorage@@GPAG@Z 5f5540dc f oledata.obj
 0001:00053118       ?AfxThunkOleRegGetMiscStatus@@YGJABU_GUID@@KPAK@Z 5f554118 f oledata.obj
 0001:00053154       ?AfxThunkCoGetMalloc@@YGJKPAPAUIMalloc@@@Z 5f554154 f oledata.obj
 0001:0005318c       ?AfxThunkStgIsStorageILockBytes@@YGJPAUILockBytes@@@Z 5f55418c f oledata.obj
 0001:000531c0       ?AfxThunkRegisterBindStatusCallback@@YGJPAUIBindCtx@@PAUIBindStatusCallback@@PAPAU2@K@Z 5f5541c0 f oledata.obj
 0001:000531fa       ?AfxThunkRevokeBindStatusCallback@@YGJPAUIBindCtx@@PAUIBindStatusCallback@@@Z 5f5541fa f oledata.obj
 0001:00053230       ?AfxThunkIsAsyncMoniker@@YGJPAUIMoniker@@@Z 5f554230 f oledata.obj
 0001:00053262       ?AfxThunkCreateURLMoniker@@YGJPAUIMoniker@@PBGPAPAU1@@Z 5f554262 f oledata.obj
 0001:0005329c       ?AfxThunkCreateAsyncBindCtx@@YGJKPAUIBindStatusCallback@@PAUIEnumFORMATETC@@PAPAUIBindCtx@@@Z 5f55429c f oledata.obj
 0001:000532da       ??0_AFX_OLE_STATE@@QAE@XZ  5f5542da f oledata.obj
 0001:00053349       ??1_AFX_OLE_STATE@@UAE@XZ  5f554349 f oledata.obj
 0001:00053480       ?AfxLoadOleAut@@YAPAUHINSTANCE__@@PAP6GHXZPBD@Z 5f554480 f oledata.obj
 0001:000534b0       ?AfxLoadOleDlg@@YAPAUHINSTANCE__@@PAP6GHXZPBD@Z 5f5544b0 f oledata.obj
 0001:000534e0       ?AfxLoadOle@@YAPAUHINSTANCE__@@PAP6GHXZPBD@Z 5f5544e0 f oledata.obj
 0001:00053510       ?AfxLoadUrlMon@@YAPAUHINSTANCE__@@PAP6GHXZPBD@Z 5f554510 f oledata.obj
 0001:00053540       ??_G_AFX_OLE_STATE@@UAEPAXI@Z 5f554540 f oledata.obj
 0001:00053540       ??_E_AFX_OLE_STATE@@UAEPAXI@Z 5f554540 f oledata.obj
 0001:00053580       ??1?$CProcessLocal@V_AFX_OLE_STATE@@@@QAE@XZ 5f554580 f oledata.obj
 0001:000535e0       ?CreateObject@CDocItem@@SGPAVCObject@@XZ 5f5545e0 f oledoc1.obj
 0001:00053620       ?_GetBaseClass@CDocItem@@KGPAUCRuntimeClass@@XZ 5f554620 f oledoc1.obj
 0001:00053635       ?GetRuntimeClass@CDocItem@@UBEPAUCRuntimeClass@@XZ 5f554635 f oledoc1.obj
 0001:00053684       ??5@YGAAVCArchive@@AAV0@AAPAVCDocItem@@@Z 5f554684 f oledoc1.obj
 0001:000536ab       ?_GetBaseClass@COleDocument@@KGPAUCRuntimeClass@@XZ 5f5546ab f oledoc1.obj
 0001:000536c0       ?GetRuntimeClass@COleDocument@@UBEPAUCRuntimeClass@@XZ 5f5546c0 f oledoc1.obj
 0001:000536db       ?_GetBaseClass@COleClientItem@@KGPAUCRuntimeClass@@XZ 5f5546db f oledoc1.obj
 0001:000536f0       ?GetRuntimeClass@COleClientItem@@UBEPAUCRuntimeClass@@XZ 5f5546f0 f oledoc1.obj
 0001:0005370b       ?_GetBaseClass@COleServerItem@@KGPAUCRuntimeClass@@XZ 5f55470b f oledoc1.obj
 0001:00053720       ?GetRuntimeClass@COleServerItem@@UBEPAUCRuntimeClass@@XZ 5f554720 f oledoc1.obj
 0001:00053740       ??0COleMessageFilter@@QAE@XZ 5f554740 f olemsgf.obj
 0001:0005381a       ?Register@COleMessageFilter@@QAEHXZ 5f55481a f olemsgf.obj
 0001:00053890       ??_ECOleMessageFilter@@UAEPAXI@Z 5f554890 f olemsgf.obj
 0001:00053890       ??_GCOleMessageFilter@@UAEPAXI@Z 5f554890 f olemsgf.obj
 0001:000538d0       ??0XMessageFilter@COleMessageFilter@@QAE@XZ 5f5548d0 f olemsgf.obj
 0001:00053900       ??0IMessageFilter@@QAE@XZ  5f554900 f olemsgf.obj
 0001:00053930       ??0COleObjectFactory@@QAE@ABU_GUID@@PAUCRuntimeClass@@HPBG@Z 5f554930 f olefact.obj
 0001:00053ad6       ?Register@COleObjectFactory@@UAEHXZ 5f554ad6 f olefact.obj
 0001:00053be8       ?RegisterAll@COleObjectFactory@@SGHXZ 5f554be8 f olefact.obj
 0001:00053d3f       ?_GetBaseClass@COleObjectFactory@@KGPAUCRuntimeClass@@XZ 5f554d3f f olefact.obj
 0001:00053d54       ?GetRuntimeClass@COleObjectFactory@@UBEPAUCRuntimeClass@@XZ 5f554d54 f olefact.obj
 0001:00053d70       ??_GCOleObjectFactory@@UAEPAXI@Z 5f554d70 f olefact.obj
 0001:00053d70       ??_ECOleObjectFactory@@UAEPAXI@Z 5f554d70 f olefact.obj
 0001:00053db0       ??0XClassFactory@COleObjectFactory@@QAE@XZ 5f554db0 f olefact.obj
 0001:00053de0       ??0IClassFactory2@@QAE@XZ  5f554de0 f olefact.obj
 0001:00053e10       ??0IClassFactory@@QAE@XZ   5f554e10 f olefact.obj
 0001:00053e40       ?CreateObject@COleIPFrameWnd@@SGPAVCObject@@XZ 5f554e40 f oleipfrm.obj
 0001:00053e83       ?_GetBaseClass@COleIPFrameWnd@@KGPAUCRuntimeClass@@XZ 5f554e83 f oleipfrm.obj
 0001:00053e98       ?GetRuntimeClass@COleIPFrameWnd@@UBEPAUCRuntimeClass@@XZ 5f554e98 f oleipfrm.obj
 0001:00053ec0       ?_GetBaseClass@COleException@@KGPAUCRuntimeClass@@XZ 5f554ec0 f olemisc.obj
 0001:00053ed5       ?GetRuntimeClass@COleException@@UBEPAUCRuntimeClass@@XZ 5f554ed5 f olemisc.obj
 0001:00053ef0       ?_GetBaseClass@COleStreamFile@@KGPAUCRuntimeClass@@XZ 5f554ef0 f olestrm.obj
 0001:00053f05       ?GetRuntimeClass@COleStreamFile@@UBEPAUCRuntimeClass@@XZ 5f554f05 f olestrm.obj
 0001:00053f20       ?_GetBaseClass@COleServerDoc@@KGPAUCRuntimeClass@@XZ 5f554f20 f olesvr1.obj
 0001:00053f35       ?GetRuntimeClass@COleServerDoc@@UBEPAUCRuntimeClass@@XZ 5f554f35 f olesvr1.obj
 0001:00053f50       ?CreateObject@CRichEditCntrItem@@SGPAVCObject@@XZ 5f554f50 f viewrich.obj
 0001:00053f97       ?_GetBaseClass@CRichEditCntrItem@@KGPAUCRuntimeClass@@XZ 5f554f97 f viewrich.obj
 0001:00053fac       ?GetRuntimeClass@CRichEditCntrItem@@UBEPAUCRuntimeClass@@XZ 5f554fac f viewrich.obj
 0001:00053ffb       ??5@YGAAVCArchive@@AAV0@AAPAVCRichEditCntrItem@@@Z 5f554ffb f viewrich.obj
 0001:00054022       ?_GetBaseClass@CRichEditDoc@@KGPAUCRuntimeClass@@XZ 5f555022 f viewrich.obj
 0001:00054037       ?GetRuntimeClass@CRichEditDoc@@UBEPAUCRuntimeClass@@XZ 5f555037 f viewrich.obj
 0001:00054052       ?CreateObject@CRichEditView@@SGPAVCObject@@XZ 5f555052 f viewrich.obj
 0001:00054095       ?_GetBaseClass@CRichEditView@@KGPAUCRuntimeClass@@XZ 5f555095 f viewrich.obj
 0001:000540aa       ?GetRuntimeClass@CRichEditView@@UBEPAUCRuntimeClass@@XZ 5f5550aa f viewrich.obj
 0001:000540d0       ?_GetBaseClass@CMonikerFile@@KGPAUCRuntimeClass@@XZ 5f5550d0 f olemon.obj
 0001:000540e5       ?GetRuntimeClass@CMonikerFile@@UBEPAUCRuntimeClass@@XZ 5f5550e5 f olemon.obj
 0001:00054100       ?_GetBaseClass@CAsyncMonikerFile@@KGPAUCRuntimeClass@@XZ 5f555100 f oleasmon.obj
 0001:00054115       ?GetRuntimeClass@CAsyncMonikerFile@@UBEPAUCRuntimeClass@@XZ 5f555115 f oleasmon.obj
 0001:00054130       ?_GetBaseClass@COleResizeBar@@KGPAUCRuntimeClass@@XZ 5f555130 f olebar.obj
 0001:00054145       ?GetRuntimeClass@COleResizeBar@@UBEPAUCRuntimeClass@@XZ 5f555145 f olebar.obj
 0001:00054160       ?_GetBaseClass@COleControl@@KGPAUCRuntimeClass@@XZ 5f555160 f ctlcore.obj
 0001:00054175       ?GetRuntimeClass@COleControl@@UBEPAUCRuntimeClass@@XZ 5f555175 f ctlcore.obj
 0001:00054190       ?_GetBaseClass@COlePropertyPage@@KGPAUCRuntimeClass@@XZ 5f555190 f ctlppg.obj
 0001:000541a5       ?GetRuntimeClass@COlePropertyPage@@UBEPAUCRuntimeClass@@XZ 5f5551a5 f ctlppg.obj
 0001:000541c0       ?_GetBaseClass@CDataPathProperty@@KGPAUCRuntimeClass@@XZ 5f5551c0 f ctlprop.obj
 0001:000541d5       ?GetRuntimeClass@CDataPathProperty@@UBEPAUCRuntimeClass@@XZ 5f5551d5 f ctlprop.obj
 0001:000541f0       ?_GetBaseClass@CCachedDataPathProperty@@KGPAUCRuntimeClass@@XZ 5f5551f0 f ctlprop.obj
 0001:00054205       ?GetRuntimeClass@CCachedDataPathProperty@@UBEPAUCRuntimeClass@@XZ 5f555205 f ctlprop.obj
 0001:00054220       ?CreateObject@CColorPropPage@@SGPAVCObject@@XZ 5f555220 f ppgcolor.obj
 0001:00054263       ?_GetBaseClass@CColorPropPage@@KGPAUCRuntimeClass@@XZ 5f555263 f ppgcolor.obj
 0001:00054278       ?GetRuntimeClass@CColorPropPage@@UBEPAUCRuntimeClass@@XZ 5f555278 f ppgcolor.obj
 0001:000542a0       ?CreateObject@CFontPropPage@@SGPAVCObject@@XZ 5f5552a0 f ppgfont.obj
 0001:000542e3       ?_GetBaseClass@CFontPropPage@@KGPAUCRuntimeClass@@XZ 5f5552e3 f ppgfont.obj
 0001:000542f8       ?GetRuntimeClass@CFontPropPage@@UBEPAUCRuntimeClass@@XZ 5f5552f8 f ppgfont.obj
 0001:00054320       ?CreateObject@CPicturePropPage@@SGPAVCObject@@XZ 5f555320 f ppgpict.obj
 0001:00054363       ?_GetBaseClass@CPicturePropPage@@KGPAUCRuntimeClass@@XZ 5f555363 f ppgpict.obj
 0001:00054378       ?GetRuntimeClass@CPicturePropPage@@UBEPAUCRuntimeClass@@XZ 5f555378 f ppgpict.obj
 0001:000543a0       ?_GetBaseClass@CStockPropPage@@KGPAUCRuntimeClass@@XZ 5f5553a0 f ppgstock.obj
 0001:000543b5       ?GetRuntimeClass@CStockPropPage@@UBEPAUCRuntimeClass@@XZ 5f5553b5 f ppgstock.obj
 0001:000543d0       ??0COleClientItem@@QAE@PAVCOleDocument@@@Z 5f5553d0 f olecli1.obj
 0001:0005458a       ??1COleClientItem@@UAE@XZ  5f55558a f olecli1.obj
 0001:0005463e       ?Delete@COleClientItem@@QAEXH@Z 5f55563e f olecli1.obj
 0001:0005471d       ?Release@COleClientItem@@UAEXW4tagOLECLOSE@@@Z 5f55571d f olecli1.obj
 0001:00054978       ?Close@COleClientItem@@QAEXW4tagOLECLOSE@@@Z 5f555978 f olecli1.obj
 0001:00054aa6       ?GetNewItemNumber@COleClientItem@@QAEKXZ 5f555aa6 f olecli1.obj
 0001:00054b5d       ?GetItemName@COleClientItem@@QBEXPAG@Z 5f555b5d f olecli1.obj
 0001:00054bee       ?UpdateItemType@COleClientItem@@QAEXXZ 5f555bee f olecli1.obj
 0001:00054cb8       ?FinishCreate@COleClientItem@@MAEHJ@Z 5f555cb8 f olecli1.obj
 0001:00054fe6       ?CreateFromClipboard@COleClientItem@@QAEHW4tagOLERENDER@@GPAUtagFORMATETC@@@Z 5f555fe6 f olecli1.obj
 0001:00055141       ?CreateLinkFromClipboard@COleClientItem@@QAEHW4tagOLERENDER@@GPAUtagFORMATETC@@@Z 5f556141 f olecli1.obj
 0001:0005529c       ?CreateStaticFromClipboard@COleClientItem@@QAEHW4tagOLERENDER@@GPAUtagFORMATETC@@@Z 5f55629c f olecli1.obj
 0001:000553f7       ?CreateFromData@COleClientItem@@QAEHPAVCOleDataObject@@W4tagOLERENDER@@GPAUtagFORMATETC@@@Z 5f5563f7 f olecli1.obj
 0001:0005556d       ?CreateLinkFromData@COleClientItem@@QAEHPAVCOleDataObject@@W4tagOLERENDER@@GPAUtagFORMATETC@@@Z 5f55656d f olecli1.obj
 0001:000556e3       ?CreateStaticFromData@COleClientItem@@QAEHPAVCOleDataObject@@W4tagOLERENDER@@GPAUtagFORMATETC@@@Z 5f5566e3 f olecli1.obj
 0001:00055859       ?CreateFromFile@COleClientItem@@QAEHPBGABU_GUID@@W4tagOLERENDER@@GPAUtagFORMATETC@@@Z 5f556859 f olecli1.obj
 0001:000559d6       ?CreateLinkFromFile@COleClientItem@@QAEHPBGW4tagOLERENDER@@GPAUtagFORMATETC@@@Z 5f5569d6 f olecli1.obj
 0001:00055b4f       ?CreateNewItem@COleClientItem@@QAEHABU_GUID@@W4tagOLERENDER@@GPAUtagFORMATETC@@@Z 5f556b4f f olecli1.obj
 0001:00055cb8       ?CreateCloneFrom@COleClientItem@@QAEHPBV1@@Z 5f556cb8 f olecli1.obj
 0001:00055ebc       ?IsModified@COleClientItem@@QBEHXZ 5f556ebc f olecli1.obj
 0001:00055f77       ?GetItemStorageFlat@COleClientItem@@QAEXXZ 5f556f77 f olecli1.obj
 0001:000560db       ?ReadItemFlat@COleClientItem@@QAEXAAVCArchive@@@Z 5f5570db f olecli1.obj
 0001:00056388       ?WriteItemFlat@COleClientItem@@QAEXAAVCArchive@@@Z 5f557388 f olecli1.obj
 0001:000565ab       ?GetItemStorageCompound@COleClientItem@@QAEXXZ 5f5575ab f olecli1.obj
 0001:00056745       ?ReadItemCompound@COleClientItem@@QAEXAAVCArchive@@@Z 5f557745 f olecli1.obj
 0001:00056a9a       ?WriteItemCompound@COleClientItem@@QAEXAAVCArchive@@@Z 5f557a9a f olecli1.obj
 0001:00056d75       ?GetItemStorage@COleClientItem@@UAEXXZ 5f557d75 f olecli1.obj
 0001:00056db2       ?ReadItem@COleClientItem@@UAEXAAVCArchive@@@Z 5f557db2 f olecli1.obj
 0001:00056df9       ?WriteItem@COleClientItem@@UAEXAAVCArchive@@@Z 5f557df9 f olecli1.obj
 0001:00056e40       ?CommitItem@COleClientItem@@UAEXH@Z 5f557e40 f olecli1.obj
 0001:00056f96       ?Serialize@COleClientItem@@UAEXAAVCArchive@@@Z 5f557f96 f olecli1.obj
 0001:00057260       ?OnChange@COleClientItem@@UAEXW4OLE_NOTIFICATION@@K@Z 5f558260 f olecli1.obj
 0001:00057339       ?OnDataChange@COleClientItem@@MAEXPAUtagFORMATETC@@PAUtagSTGMEDIUM@@@Z 5f558339 f olecli1.obj
 0001:00057369       ?OnGetItemPosition@COleClientItem@@MAEXAAVCRect@@@Z 5f558369 f olecli1.obj
 0001:00057381       ?OnGetClipRect@COleClientItem@@MAEXAAVCRect@@@Z 5f558381 f olecli1.obj
 0001:000573fe       ?OnShowItem@COleClientItem@@MAEXXZ 5f5583fe f olecli1.obj
 0001:00057547       ?GetClassID@COleClientItem@@QBEXPAU_GUID@@@Z 5f558547 f olecli1.obj
 0001:00057600       ?GetExtent@COleClientItem@@QAEHPAUtagSIZE@@W4tagDVASPECT@@@Z 5f558600 f olecli1.obj
 0001:000576c9       ?GetCachedExtent@COleClientItem@@QAEHPAUtagSIZE@@W4tagDVASPECT@@@Z 5f5586c9 f olecli1.obj
 0001:000577bc       ?SetIconicMetafile@COleClientItem@@QAEHPAX@Z 5f5587bc f olecli1.obj
 0001:00057922       ?GetIconicMetafile@COleClientItem@@QAEPAXXZ 5f558922 f olecli1.obj
 0001:00057bd0       ?SetDrawAspect@COleClientItem@@UAEXW4tagDVASPECT@@@Z 5f558bd0 f olecli1.obj
 0001:00057c55       ?GetPrintDeviceInfo@COleClientItem@@IAEHPAPAUIOleCache@@PAPAUtagDVTARGETDEVICE@@PAK@Z 5f558c55 f olecli1.obj
 0001:00057dac       ?AttachDataObject@COleClientItem@@QBEXAAVCOleDataObject@@@Z 5f558dac f olecli1.obj
 0001:00057e40       ?Draw@COleClientItem@@QAEHPAVCDC@@PBUtagRECT@@W4tagDVASPECT@@@Z 5f558e40 f olecli1.obj
 0001:00058038       ?GetEmbeddedItemData@COleClientItem@@IAEXPAUtagSTGMEDIUM@@@Z 5f559038 f olecli1.obj
 0001:00058219       ?AddCachedData@COleClientItem@@IAEXPAVCOleDataSource@@@Z 5f559219 f olecli1.obj
 0001:000583de       ?GetLinkSourceData@COleClientItem@@IAEHPAUtagSTGMEDIUM@@@Z 5f5593de f olecli1.obj
 0001:00058661       ?GetObjectDescriptorData@COleClientItem@@IAEXPAUtagPOINT@@PAUtagSIZE@@PAUtagSTGMEDIUM@@@Z 5f559661 f olecli1.obj
 0001:000587f4       ?SetHostNames@COleClientItem@@QAEXPBG0@Z 5f5597f4 f olecli1.obj
 0001:000588dc       ?SetExtent@COleClientItem@@QAEXABVCSize@@W4tagDVASPECT@@@Z 5f5598dc f olecli1.obj
 0001:00058955       ?_GetBaseInterfaceMap@COleClientItem@@KGPBUAFX_INTERFACEMAP@@XZ 5f559955 f olecli1.obj
 0001:0005896a       ?GetInterfaceMap@COleClientItem@@MBEPBUAFX_INTERFACEMAP@@XZ 5f55996a f olecli1.obj
 0001:00058985       ?AddRef@XOleClientSite@COleClientItem@@UAGKXZ 5f559985 f olecli1.obj
 0001:000589ab       ?Release@XOleClientSite@COleClientItem@@UAGKXZ 5f5599ab f olecli1.obj
 0001:000589d1       ?QueryInterface@XOleClientSite@COleClientItem@@UAGJABU_GUID@@PAPAX@Z 5f5599d1 f olecli1.obj
 0001:000589ff       ?SaveObject@XOleClientSite@COleClientItem@@UAGJXZ 5f5599ff f olecli1.obj
 0001:00058b2e       ?GetMoniker@XOleClientSite@COleClientItem@@UAGJKKPAPAUIMoniker@@@Z 5f559b2e f olecli1.obj
 0001:00058e69       ?GetContainer@XOleClientSite@COleClientItem@@UAGJPAPAUIOleContainer@@@Z 5f559e69 f olecli1.obj
 0001:00058f2e       ?ShowObject@XOleClientSite@COleClientItem@@UAGJXZ 5f559f2e f olecli1.obj
 0001:0005901d       ?OnShowWindow@XOleClientSite@COleClientItem@@UAGJH@Z 5f55a01d f olecli1.obj
 0001:0005916f       ?RequestNewObjectLayout@XOleClientSite@COleClientItem@@UAGJXZ 5f55a16f f olecli1.obj
 0001:00059186       ?AddRef@XAdviseSink@COleClientItem@@UAGKXZ 5f55a186 f olecli1.obj
 0001:000591ac       ?Release@XAdviseSink@COleClientItem@@UAGKXZ 5f55a1ac f olecli1.obj
 0001:000591d2       ?QueryInterface@XAdviseSink@COleClientItem@@UAGJABU_GUID@@PAPAX@Z 5f55a1d2 f olecli1.obj
 0001:00059200       ?OnDataChange@XAdviseSink@COleClientItem@@UAGXPAUtagFORMATETC@@PAUtagSTGMEDIUM@@@Z 5f55a200 f olecli1.obj
 0001:0005929a       ?OnViewChange@XAdviseSink@COleClientItem@@UAGXKJ@Z 5f55a29a f olecli1.obj
 0001:0005932f       ?OnRename@XAdviseSink@COleClientItem@@UAGXPAUIMoniker@@@Z 5f55a32f f olecli1.obj
 0001:00059341       ?OnSave@XAdviseSink@COleClientItem@@UAGXXZ 5f55a341 f olecli1.obj
 0001:000593d4       ?OnClose@XAdviseSink@COleClientItem@@UAGXXZ 5f55a3d4 f olecli1.obj
 0001:00059467       ?AssertValid@COleClientItem@@UBEXXZ 5f55a467 f olecli1.obj
 0001:00059514       ?Dump@COleClientItem@@UBEXAAVCDumpContext@@@Z 5f55a514 f olecli1.obj
 0001:000596e8       ?GetLastStatus@COleClientItem@@QBEJXZ 5f55a6e8 f olecli1.obj
 0001:00059717       ?GetDocument@COleClientItem@@QBEPAVCOleDocument@@XZ 5f55a717 f olecli1.obj
 0001:00059746       ?GetType@COleClientItem@@QBE?AW4OLE_OBJTYPE@@XZ 5f55a746 f olecli1.obj
 0001:00059775       ?GetDrawAspect@COleClientItem@@QBE?AW4tagDVASPECT@@XZ 5f55a775 f olecli1.obj
 0001:000597a4       ?IsRunning@COleClientItem@@QBEHXZ 5f55a7a4 f olecli1.obj
 0001:000597ff       ?GetItemState@COleClientItem@@QBEIXZ 5f55a7ff f olecli1.obj
 0001:0005982e       ?IsInPlaceActive@COleClientItem@@QBEHXZ 5f55a82e f olecli1.obj
 0001:0005987d       ?IsOpen@COleClientItem@@QBEHXZ 5f55a87d f olecli1.obj
 0001:000598bf       ?IsLinkUpToDate@COleClientItem@@QBEHXZ 5f55a8bf f olecli1.obj
 0001:00059933       ?GetActiveView@COleClientItem@@QBEPAVCView@@XZ 5f55a933 f olecli1.obj
 0001:0005994f       ?BeginDeferErrors@COleLinkingDoc@@QAEXXZ 5f55a94f f olecli1.obj
 0001:00059996       ??1COleDataObject@@QAE@XZ  5f55a996 f olecli1.obj
 0001:000599c0       ??_GCOleClientItem@@UAEPAXI@Z 5f55a9c0 f olecli1.obj
 0001:000599c0       ??_ECOleClientItem@@UAEPAXI@Z 5f55a9c0 f olecli1.obj
 0001:00059a00       ??0XOleClientSite@COleClientItem@@QAE@XZ 5f55aa00 f olecli1.obj
 0001:00059a30       ??0XAdviseSink@COleClientItem@@QAE@XZ 5f55aa30 f olecli1.obj
 0001:00059a60       ??0XOleIPSite@COleClientItem@@QAE@XZ 5f55aa60 f olecli1.obj
 0001:00059a90       ??0IOleClientSite@@QAE@XZ  5f55aa90 f olecli1.obj
 0001:00059ac0       ??0IAdviseSink@@QAE@XZ     5f55aac0 f olecli1.obj
 0001:00059af0       ??0IOleInPlaceSite@@QAE@XZ 5f55aaf0 f olecli1.obj
 0001:00059b20       ??0IUnknown@@QAE@XZ        5f55ab20 f olecli1.obj
 0001:00059b50       ??0IOleWindow@@QAE@XZ      5f55ab50 f olecli1.obj
 0001:00059b80       ?GetClientSite@COleClientItem@@MAEPAUIOleClientSite@@XZ 5f55ab80 f olecli3.obj
 0001:00059bd8       ?Activate@COleClientItem@@QAEXJPAVCView@@PAUtagMSG@@@Z 5f55abd8 f olecli3.obj
 0001:00059d9e       ?CheckGeneral@COleClientItem@@MAEXJ@Z 5f55ad9e f olecli3.obj
 0001:00059e11       ?CopyToClipboard@COleClientItem@@QAEXH@Z 5f55ae11 f olecli3.obj
 0001:00059f1f       ?OnGetClipboardData@COleClientItem@@UAEPAVCOleDataSource@@HPAUtagPOINT@@PAUtagSIZE@@@Z 5f55af1f f olecli3.obj
 0001:0005a054       ?DoDragDrop@COleClientItem@@QAEKPBUtagRECT@@VCPoint@@HK0@Z 5f55b054 f olecli3.obj
 0001:0005a278       ?GetClipboardData@COleClientItem@@QAEXPAVCOleDataSource@@HPAUtagPOINT@@PAUtagSIZE@@@Z 5f55b278 f olecli3.obj
 0001:0005a389       ?CanPaste@COleClientItem@@SGHXZ 5f55b389 f olecli3.obj
 0001:0005a44d       ?CanPasteLink@COleClientItem@@SGHXZ 5f55b44d f olecli3.obj
 0001:0005a4b9       ?CanCreateFromData@COleClientItem@@SGHPBVCOleDataObject@@@Z 5f55b4b9 f olecli3.obj
 0001:0005a52f       ?CanCreateLinkFromData@COleClientItem@@SGHPBVCOleDataObject@@@Z 5f55b52f f olecli3.obj
 0001:0005a5a5       ?ConvertTo@COleClientItem@@UAEHABU_GUID@@@Z 5f55b5a5 f olecli3.obj
 0001:0005a711       ?Reload@COleClientItem@@QAEHXZ 5f55b711 f olecli3.obj
 0001:0005a7c6       ?ActivateAs@COleClientItem@@UAEHPBGABU_GUID@@1@Z 5f55b7c6 f olecli3.obj
 0001:0005a8e3       ?SetPrintDevice@COleClientItem@@QAEHPBUtagDVTARGETDEVICE@@@Z 5f55b8e3 f olecli3.obj
 0001:0005ab2f       ?SetPrintDevice@COleClientItem@@QAEHPBUtagPDW@@@Z 5f55bb2f f olecli3.obj
 0001:0005abb7       ?GetUserType@COleClientItem@@QAEXW4tagUSERCLASSTYPE@@AAVCString@@@Z 5f55bbb7 f olecli3.obj
 0001:0005ac93       ?Run@COleClientItem@@QAEXXZ 5f55bc93 f olecli3.obj
 0001:0005ad4a       ?UpdateLink@COleClientItem@@QAEHXZ 5f55bd4a f olecli3.obj
 0001:0005ae0c       ?FreezeLink@COleClientItem@@UAEHXZ 5f55be0c f olecli3.obj
 0001:0005b195       ?GetLinkUpdateOptions@COleClientItem@@QAE?AW4tagOLEUPDATE@@XZ 5f55c195 f olecli3.obj
 0001:0005b24d       ?SetLinkUpdateOptions@COleClientItem@@QAEXW4tagOLEUPDATE@@@Z 5f55c24d f olecli3.obj
 0001:0005b310       ??0COleDocument@@QAE@XZ    5f55c310 f oledoc1.obj
 0001:0005b49c       ??1COleDocument@@UAE@XZ    5f55c49c f oledoc1.obj
 0001:0005b607       ?AddItem@COleDocument@@UAEXPAVCDocItem@@@Z 5f55c607 f oledoc1.obj
 0001:0005b693       ?RemoveItem@COleDocument@@UAEXPAVCDocItem@@@Z 5f55c693 f oledoc1.obj
 0001:0005b78c       ?GetStartPosition@COleDocument@@UBEPAU__POSITION@@XZ 5f55c78c f oledoc1.obj
 0001:0005b7bd       ?GetNextItem@COleDocument@@UBEPAVCDocItem@@AAPAU__POSITION@@@Z 5f55c7bd f oledoc1.obj
 0001:0005b87a       ?GetNextItemOfKind@COleDocument@@IBEPAVCDocItem@@AAPAU__POSITION@@PAUCRuntimeClass@@@Z 5f55c87a f oledoc1.obj
 0001:0005b8e9       ?GetNextClientItem@COleDocument@@QBEPAVCOleClientItem@@AAPAU__POSITION@@@Z 5f55c8e9 f oledoc1.obj
 0001:0005b918       ?GetNextServerItem@COleDocument@@QBEPAVCOleServerItem@@AAPAU__POSITION@@@Z 5f55c918 f oledoc1.obj
 0001:0005b947       ?DeleteContents@COleDocument@@UAEXXZ 5f55c947 f oledoc1.obj
 0001:0005b9c0       ?SetPathName@COleDocument@@UAEXPBGH@Z 5f55c9c0 f oledoc1.obj
 0001:0005ba54       ?Serialize@COleDocument@@UAEXAAVCArchive@@@Z 5f55ca54 f oledoc1.obj
 0001:0005bb9e       ?CommitItems@COleDocument@@QAEXH@Z 5f55cb9e f oledoc1.obj
 0001:0005bbf7       ?HasBlankItems@COleDocument@@QBEHXZ 5f55cbf7 f oledoc1.obj
 0001:0005bc87       ?UpdateModifiedFlag@COleDocument@@UAEXXZ 5f55cc87 f oledoc1.obj
 0001:0005bd01       ?PreCloseFrame@COleDocument@@UAEXPAVCFrameWnd@@@Z 5f55cd01 f oledoc1.obj
 0001:0005bde9       ?SaveModified@COleDocument@@UAEHXZ 5f55cde9 f oledoc1.obj
 0001:0005bfa5       ?OnShowViews@COleDocument@@UAEXH@Z 5f55cfa5 f oledoc1.obj
 0001:0005bfbd       ?OnIdle@COleDocument@@UAEXXZ 5f55cfbd f oledoc1.obj
 0001:0005c096       ?GetFirstFrame@COleDocument@@QAEPAVCFrameWnd@@XZ 5f55d096 f oledoc1.obj
 0001:0005c152       ?GetMoniker@COleDocument@@UAEPAUIMoniker@@W4tagOLEGETMONIKER@@@Z 5f55d152 f oledoc1.obj
 0001:0005c1c0       ?GetContainer@COleDocument@@UAEPAUIOleItemContainer@@XZ 5f55d1c0 f oledoc1.obj
 0001:0005c1d8       ?OnNewDocument@COleDocument@@UAEHXZ 5f55d1d8 f oledoc1.obj
 0001:0005c29f       ?OnOpenDocument@COleDocument@@UAEHPBG@Z 5f55d29f f oledoc1.obj
 0001:0005c62e       ?OnSaveDocument@COleDocument@@UAEHPBG@Z 5f55d62e f oledoc1.obj
 0001:0005c9ed       ?OnCloseDocument@COleDocument@@UAEXXZ 5f55d9ed f oledoc1.obj
 0001:0005ca79       ?SaveToStorage@COleDocument@@MAEXPAVCObject@@@Z 5f55da79 f oledoc1.obj
 0001:0005ccb4       ?LoadFromStorage@COleDocument@@MAEXXZ 5f55dcb4 f oledoc1.obj
 0001:0005ced2       ?AssertValid@COleDocument@@UBEXXZ 5f55ded2 f oledoc1.obj
 0001:0005cf8b       ?Dump@COleDocument@@UBEXAAVCDumpContext@@@Z 5f55df8b f oledoc1.obj
 0001:0005d0ae       ??0CDocItem@@IAE@XZ        5f55e0ae f oledoc1.obj
 0001:0005d127       ??1CDocItem@@UAE@XZ        5f55e127 f oledoc1.obj
 0001:0005d1b4       ?Serialize@CDocItem@@UAEXAAVCArchive@@@Z 5f55e1b4 f oledoc1.obj
 0001:0005d298       ?IsBlank@CDocItem@@UBEHXZ  5f55e298 f oledoc1.obj
 0001:0005d2b0       ?AssertValid@CDocItem@@UBEXXZ 5f55e2b0 f oledoc1.obj
 0001:0005d2ec       ?Dump@CDocItem@@UBEXAAVCDumpContext@@@Z 5f55e2ec f oledoc1.obj
 0001:0005d338       ?GetDocument@CDocItem@@QBEPAVCDocument@@XZ 5f55e338 f oledoc1.obj
 0001:0005d354       ?EnableCompoundFile@COleDocument@@QAEXH@Z 5f55e354 f oledoc1.obj
 0001:0005d375       ?SetBusyReply@COleMessageFilter@@QAEXW4tagSERVERCALL@@@Z 5f55e375 f oledoc1.obj
 0001:0005d3a6       ?SetRetryReply@COleMessageFilter@@QAEXK@Z 5f55e3a6 f oledoc1.obj
 0001:0005d3d7       ?SetMessagePendingDelay@COleMessageFilter@@QAEXK@Z 5f55e3d7 f oledoc1.obj
 0001:0005d408       ?EnableBusyDialog@COleMessageFilter@@QAEXH@Z 5f55e408 f oledoc1.obj
 0001:0005d439       ?EnableNotRespondingDialog@COleMessageFilter@@QAEXH@Z 5f55e439 f oledoc1.obj
 0001:0005d46a       ??0CMonikerFile@@QAE@XZ    5f55e46a f oledoc1.obj
 0001:0005d4f6       ?GetMoniker@CMonikerFile@@QBEPAUIMoniker@@XZ 5f55e4f6 f oledoc1.obj
 0001:0005d527       ?GetBinding@CAsyncMonikerFile@@QBEPAUIBinding@@XZ 5f55e527 f oledoc1.obj
 0001:0005d558       ?SetBinding@CAsyncMonikerFile@@AAEXPAUIBinding@@@Z 5f55e558 f oledoc1.obj
 0001:0005d58f       ?SetFormatEtc@CAsyncMonikerFile@@AAEXPAUtagFORMATETC@@@Z 5f55e58f f oledoc1.obj
 0001:0005d5c0       ?GetFormatEtc@CAsyncMonikerFile@@QBEPAUtagFORMATETC@@XZ 5f55e5c0 f oledoc1.obj
 0001:0005d5f0       ??_ECOleDocument@@UAEPAXI@Z 5f55e5f0 f oledoc1.obj
 0001:0005d5f0       ??_GCOleDocument@@UAEPAXI@Z 5f55e5f0 f oledoc1.obj
 0001:0005d630       ??_ECDocItem@@UAEPAXI@Z    5f55e630 f oledoc1.obj
 0001:0005d630       ??_GCDocItem@@UAEPAXI@Z    5f55e630 f oledoc1.obj
 0001:0005d670       ??1?$CIP@UIMoniker@@$1IID_IMoniker@@QAE@XZ 5f55e670 f oledoc1.obj
 0001:0005d6d0       ?ApplyPrintDevice@COleDocument@@QAEHPBUtagDVTARGETDEVICE@@@Z 5f55e6d0 f oledoc2.obj
 0001:0005d7b9       ?ApplyPrintDevice@COleDocument@@QAEHPBUtagPDW@@@Z 5f55e7b9 f oledoc2.obj
 0001:0005d850       ?AfxGetScodeString@@YGPBGJ@Z 5f55e850 f olemisc.obj
 0001:0005d8aa       ?AfxGetScodeRangeString@@YGPBGJ@Z 5f55e8aa f olemisc.obj
 0001:0005d91d       ?AfxGetSeverityString@@YGPBGJ@Z 5f55e91d f olemisc.obj
 0001:0005d93f       ?AfxGetFacilityString@@YGPBGJ@Z 5f55e93f f olemisc.obj
 0001:0005d981       ?AfxGetFullScodeString@@YGPBGJ@Z 5f55e981 f olemisc.obj
 0001:0005da32       ?AfxThrowOleException@@YGXJ@Z 5f55ea32 f olemisc.obj
 0001:0005dab0       ?GetErrorMessage@COleException@@UAEHPAGIPAI@Z 5f55eab0 f olemisc.obj
 0001:0005db70       ?Process@COleException@@SGJPBVCException@@@Z 5f55eb70 f olemisc.obj
 0001:0005dbf6       ?AfxMergeMenus@@YGPAUHMENU__@@PAU1@0PAJHH@Z 5f55ebf6 f olemisc.obj
 0001:0005df45       ?AfxUnmergeMenus@@YGXPAUHMENU__@@00@Z 5f55ef45 f olemisc.obj
 0001:0005e10a       ?_AfxFillFormatEtc@@YGPAUtagFORMATETC@@PAU1@G0@Z 5f55f10a f olemisc.obj
 0001:0005e190       ?_AfxCopyStgMedium@@YGHGPAUtagSTGMEDIUM@@0@Z 5f55f190 f olemisc.obj
 0001:0005e7e8       ?_AfxOleGetObjectDescriptorData@@YGPAXU_GUID@@KUtagSIZE@@U_POINTL@@KPBG3@Z 5f55f7e8 f olemisc.obj
 0001:0005e989       ?_AfxOleGetObjectDescriptorData@@YGPAXPAUIOleObject@@PBGKU_POINTL@@PAUtagSIZE@@@Z 5f55f989 f olemisc.obj
 0001:0005ede4       ?_AfxOleDoConvert@@YGJPAUIStorage@@ABU_GUID@@@Z 5f55fde4 f olemisc.obj
 0001:0005ef8c       ?_AfxOleDoTreatAsClass@@YGJPBGABU_GUID@@1@Z 5f55ff8c f olemisc.obj
 0001:0005f054       ?_AfxOleCreateTargetDevice@@YGPAUtagDVTARGETDEVICE@@PAUtagDEVNAMES@@PAU_devicemodeW@@@Z 5f560054 f olemisc.obj
 0001:0005f2d5       ?_AfxOleCreateTargetDevice@@YGPAUtagDVTARGETDEVICE@@PAUtagPDW@@@Z 5f5602d5 f olemisc.obj
 0001:0005f36d       ?_AfxOleGetFirstMoniker@@YGPAUIMoniker@@PAU1@@Z 5f56036d f olemisc.obj
 0001:0005f456       ?_AfxOleGetLenFilePrefixOfMoniker@@YGKPAUIMoniker@@@Z 5f560456 f olemisc.obj
 0001:0005f579       ?_AfxOleCopyTargetDevice@@YGPAUtagDVTARGETDEVICE@@PAU1@@Z 5f560579 f olemisc.obj
 0001:0005f5d8       ?_AfxOleCopyFormatEtc@@YGXPAUtagFORMATETC@@0@Z 5f5605d8 f olemisc.obj
 0001:0005f670       ?_AfxOleCreateDC@@YGPAUHDC__@@PAUtagDVTARGETDEVICE@@@Z 5f560670 f olemisc.obj
 0001:0005f73f       ?_AfxDeleteMetafilePict@@YGXPAX@Z 5f56073f f olemisc.obj
 0001:0005f77c       ?_AfxXformSizeInPixelsToHimetric@@YGXPAUHDC__@@PAUtagSIZE@@1@Z 5f56077c f olemisc.obj
 0001:0005f81e       ?_AfxXformSizeInHimetricToPixels@@YGXPAUHDC__@@PAUtagSIZE@@1@Z 5f56081e f olemisc.obj
 0001:0005f8c0       ??0COleStreamFile@@QAE@PAUIStream@@@Z 5f5608c0 f olestrm.obj
 0001:0005f9fd       ??1COleStreamFile@@UAE@XZ  5f5609fd f olestrm.obj
 0001:0005fac2       ?Detach@COleStreamFile@@QAEPAUIStream@@XZ 5f560ac2 f olestrm.obj
 0001:0005faee       ?Attach@COleStreamFile@@QAEXPAUIStream@@@Z 5f560aee f olestrm.obj
 0001:0005fb5a       ?_AfxFillOleFileException@@YGXPAVCFileException@@J@Z 5f560b5a f olestrm.obj
 0001:0005fca1       ?_AfxThrowOleFileException@@YGXJ@Z 5f560ca1 f olestrm.obj
 0001:0005fd33       ?GetStatus@COleStreamFile@@QBEHAAUCFileStatus@@@Z 5f560d33 f olestrm.obj
 0001:0005fe6f       ?GetStorageName@COleStreamFile@@UBE?BVCString@@XZ 5f560e6f f olestrm.obj
 0001:0005fef3       ?GetPosition@COleStreamFile@@UBEKXZ 5f560ef3 f olestrm.obj
 0001:0005ffaa       ?OpenStream@COleStreamFile@@QAEHPAUIStorage@@PBGKPAVCFileException@@@Z 5f560faa f olestrm.obj
 0001:00060116       ?CreateStream@COleStreamFile@@QAEHPAUIStorage@@PBGKPAVCFileException@@@Z 5f561116 f olestrm.obj
 0001:000602f0       ?CreateMemoryStream@COleStreamFile@@QAEHPAVCFileException@@@Z 5f5612f0 f olestrm.obj
 0001:000603cc       ?Duplicate@COleStreamFile@@UBEPAVCFile@@XZ 5f5613cc f olestrm.obj
 0001:0006055d       ?Seek@COleStreamFile@@UAEJJI@Z 5f56155d f olestrm.obj
 0001:0006063f       ?SetLength@COleStreamFile@@UAEXK@Z 5f56163f f olestrm.obj
 0001:000606cc       ?GetLength@COleStreamFile@@UBEKXZ 5f5616cc f olestrm.obj
 0001:0006076d       ?Read@COleStreamFile@@UAEIPAXI@Z 5f56176d f olestrm.obj
 0001:00060834       ?Write@COleStreamFile@@UAEXPBXI@Z 5f561834 f olestrm.obj
 0001:0006091a       ?LockRange@COleStreamFile@@UAEXKK@Z 5f56191a f olestrm.obj
 0001:000609be       ?UnlockRange@COleStreamFile@@UAEXKK@Z 5f5619be f olestrm.obj
 0001:00060a62       ?Abort@COleStreamFile@@UAEXXZ 5f561a62 f olestrm.obj
 0001:00060ade       ?Flush@COleStreamFile@@UAEXXZ 5f561ade f olestrm.obj
 0001:00060b56       ?Close@COleStreamFile@@UAEXXZ 5f561b56 f olestrm.obj
 0001:00060bcb       ?GetStream@COleStreamFile@@QBEPAUIStream@@XZ 5f561bcb f olestrm.obj
 0001:00060be7       ?AssertValid@COleStreamFile@@UBEXXZ 5f561be7 f olestrm.obj
 0001:00060c05       ?Dump@COleStreamFile@@UBEXAAVCDumpContext@@@Z 5f561c05 f olestrm.obj
 0001:00060c70       ?AfxGetIIDString@@YGPBGABU_GUID@@@Z 5f561c70 f oleunk.obj
 0001:00060d52       ?_AfxQueryInterface@@YGPAUIUnknown@@PAU1@ABU_GUID@@@Z 5f561d52 f oleunk.obj
 0001:00060db5       ?_AfxRelease@@YGKPAPAUIUnknown@@@Z 5f561db5 f oleunk.obj
 0001:00060e1e       ?EnableAggregation@CCmdTarget@@QAEXXZ 5f561e1e f oleunk.obj
 0001:00060e4b       ?ExternalAddRef@CCmdTarget@@QAEKXZ 5f561e4b f oleunk.obj
 0001:00060e8d       ?InternalRelease@CCmdTarget@@QAEKXZ 5f561e8d f oleunk.obj
 0001:00060f5e       ?ExternalRelease@CCmdTarget@@QAEKXZ 5f561f5e f oleunk.obj
 0001:00060fa0       ?GetInterface@CCmdTarget@@QAEPAUIUnknown@@PBX@Z 5f561fa0 f oleunk.obj
 0001:000611af       ?QueryAggregates@CCmdTarget@@QAEPAUIUnknown@@PBX@Z 5f5621af f oleunk.obj
 0001:000612ae       ?InternalQueryInterface@CCmdTarget@@QAEKPBXPAPAX@Z 5f5622ae f oleunk.obj
 0001:00061321       ?ExternalQueryInterface@CCmdTarget@@QAEKPBXPAPAX@Z 5f562321 f oleunk.obj
 0001:00061374       ?AddRef@CInnerUnknown@@UAGKXZ 5f562374 f oleunk.obj
 0001:0006139a       ?Release@CInnerUnknown@@UAGKXZ 5f56239a f oleunk.obj
 0001:0006141a       ?QueryInterface@CInnerUnknown@@UAGJABU_GUID@@PAPAX@Z 5f56241a f oleunk.obj
 0001:00061478       ?ExternalDisconnect@CCmdTarget@@QAEXXZ 5f562478 f oleunk.obj
 0001:000614f5       ?GetControllingUnknown@CCmdTarget@@QAEPAUIUnknown@@XZ 5f5624f5 f oleunk.obj
 0001:00061536       ??0COleException@@QAE@XZ   5f562536 f oleunk.obj
 0001:000615af       ??1COleException@@UAE@XZ   5f5625af f oleunk.obj
 0001:00061617       ?InternalAddRef@CCmdTarget@@QAEKXZ 5f562617 f oleunk.obj
 0001:00061662       ?IsRegistered@COleObjectFactory@@UBEHXZ 5f562662 f oleunk.obj
 0001:000616a1       ?GetClassID@COleObjectFactory@@QBEABU_GUID@@XZ 5f5626a1 f oleunk.obj
 0001:000616cd       ??1COleDispatchDriver@@QAE@XZ 5f5626cd f oleunk.obj
 0001:000616eb       ??BCOleDispatchDriver@@QAEPAUIDispatch@@XZ 5f5626eb f oleunk.obj
 0001:00061706       ??0COleVariant@@QAE@XZ     5f562706 f oleunk.obj
 0001:00061728       ??1COleVariant@@QAE@XZ     5f562728 f oleunk.obj
 0001:00061748       ??0COleVariant@@QAE@PBG@Z  5f562748 f oleunk.obj
 0001:00061777       ??0COleVariant@@QAE@AAVCString@@@Z 5f562777 f oleunk.obj
 0001:000617a6       ??0COleVariant@@QAE@E@Z    5f5627a6 f oleunk.obj
 0001:000617d2       ??0COleVariant@@QAE@ABVCOleCurrency@@@Z 5f5627d2 f oleunk.obj
 0001:00061808       ??0COleVariant@@QAE@M@Z    5f562808 f oleunk.obj
 0001:00061834       ??0COleVariant@@QAE@N@Z    5f562834 f oleunk.obj
 0001:00061866       ??0COleVariant@@QAE@ABVCOleDateTime@@@Z 5f562866 f oleunk.obj
 0001:0006189a       ??0COleVariant@@QAE@ABVCByteArray@@@Z 5f56289a f oleunk.obj
 0001:000618c9       ??0COleVariant@@QAE@ABVCLongBinary@@@Z 5f5628c9 f oleunk.obj
 0001:000618f8       ??8COleVariant@@QBEHPBUtagVARIANT@@@Z 5f5628f8 f oleunk.obj
 0001:0006191c       ??BCOleVariant@@QAEPAUtagVARIANT@@XZ 5f56291c f oleunk.obj
 0001:00061935       ??BCOleVariant@@QBEPBUtagVARIANT@@XZ 5f562935 f oleunk.obj
 0001:0006194e       ??0COleCurrency@@QAE@XZ    5f56294e f oleunk.obj
 0001:00061984       ??0COleCurrency@@QAE@TtagCY@@@Z 5f562984 f oleunk.obj
 0001:000619b7       ??0COleCurrency@@QAE@ABV0@@Z 5f5629b7 f oleunk.obj
 0001:000619ee       ??0COleCurrency@@QAE@ABUtagVARIANT@@@Z 5f5629ee f oleunk.obj
 0001:00061a15       ?GetStatus@COleCurrency@@QBE?AW4CurrencyStatus@1@XZ 5f562a15 f oleunk.obj
 0001:00061a31       ?SetStatus@COleCurrency@@QAEXW4CurrencyStatus@1@@Z 5f562a31 f oleunk.obj
 0001:00061a52       ??YCOleCurrency@@QAEABV0@ABV0@@Z 5f562a52 f oleunk.obj
 0001:00061a86       ??ZCOleCurrency@@QAEABV0@ABV0@@Z 5f562a86 f oleunk.obj
 0001:00061aba       ??XCOleCurrency@@QAEABV0@J@Z 5f562aba f oleunk.obj
 0001:00061aee       ??_0COleCurrency@@QAEABV0@J@Z 5f562aee f oleunk.obj
 0001:00061b22       ??8COleCurrency@@QBEHABV0@@Z 5f562b22 f oleunk.obj
 0001:00061b7a       ??9COleCurrency@@QBEHABV0@@Z 5f562b7a f oleunk.obj
 0001:00061bd2       ??BCOleCurrency@@QBE?ATtagCY@@XZ 5f562bd2 f oleunk.obj
 0001:00061bfd       ??0COleDateTime@@QAE@XZ    5f562bfd f oleunk.obj
 0001:00061c30       ??0COleDateTime@@QAE@ABV0@@Z 5f562c30 f oleunk.obj
 0001:00061c67       ??0COleDateTime@@QAE@ABUtagVARIANT@@@Z 5f562c67 f oleunk.obj
 0001:00061c8e       ??0COleDateTime@@QAE@N@Z   5f562c8e f oleunk.obj
 0001:00061cc1       ??0COleDateTime@@QAE@J@Z   5f562cc1 f oleunk.obj
 0001:00061ce8       ??0COleDateTime@@QAE@ABU_SYSTEMTIME@@@Z 5f562ce8 f oleunk.obj
 0001:00061d0f       ??0COleDateTime@@QAE@ABU_FILETIME@@@Z 5f562d0f f oleunk.obj
 0001:00061d36       ??0COleDateTime@@QAE@HHHHHH@Z 5f562d36 f oleunk.obj
 0001:00061d71       ??0COleDateTime@@QAE@GG@Z  5f562d71 f oleunk.obj
 0001:00061dbf       ??4COleDateTime@@QAEABV0@ABV0@@Z 5f562dbf f oleunk.obj
 0001:00061df6       ?GetStatus@COleDateTime@@QBE?AW4DateTimeStatus@1@XZ 5f562df6 f oleunk.obj
 0001:00061e12       ?SetStatus@COleDateTime@@QAEXW4DateTimeStatus@1@@Z 5f562e12 f oleunk.obj
 0001:00061e33       ??8COleDateTime@@QBEHABV0@@Z 5f562e33 f oleunk.obj
 0001:00061e7e       ??9COleDateTime@@QBEHABV0@@Z 5f562e7e f oleunk.obj
 0001:00061ec9       ??YCOleDateTime@@QAEABV0@VCOleDateTimeSpan@@@Z 5f562ec9 f oleunk.obj
 0001:00061efd       ??ZCOleDateTime@@QAEABV0@VCOleDateTimeSpan@@@Z 5f562efd f oleunk.obj
 0001:00061f31       ??BCOleDateTime@@QBENXZ    5f562f31 f oleunk.obj
 0001:00061f4c       ?SetDate@COleDateTime@@QAEHHHH@Z 5f562f4c f oleunk.obj
 0001:00061f7e       ?SetTime@COleDateTime@@QAEHHHH@Z 5f562f7e f oleunk.obj
 0001:00061fb3       ??0COleDateTimeSpan@@QAE@XZ 5f562fb3 f oleunk.obj
 0001:00061fe6       ??0COleDateTimeSpan@@QAE@N@Z 5f562fe6 f oleunk.obj
 0001:00062019       ??0COleDateTimeSpan@@QAE@ABV0@@Z 5f563019 f oleunk.obj
 0001:00062050       ??0COleDateTimeSpan@@QAE@JHHH@Z 5f563050 f oleunk.obj
 0001:00062083       ?GetStatus@COleDateTimeSpan@@QBE?AW4DateTimeSpanStatus@1@XZ 5f563083 f oleunk.obj
 0001:0006209f       ?SetStatus@COleDateTimeSpan@@QAEXW4DateTimeSpanStatus@1@@Z 5f56309f f oleunk.obj
 0001:000620c0       ?GetTotalDays@COleDateTimeSpan@@QBENXZ 5f5630c0 f oleunk.obj
 0001:00062103       ?GetTotalHours@COleDateTimeSpan@@QBENXZ 5f563103 f oleunk.obj
 0001:0006214c       ?GetTotalMinutes@COleDateTimeSpan@@QBENXZ 5f56314c f oleunk.obj
 0001:00062195       ?GetTotalSeconds@COleDateTimeSpan@@QBENXZ 5f563195 f oleunk.obj
 0001:000621de       ?GetDays@COleDateTimeSpan@@QBEJXZ 5f5631de f oleunk.obj
 0001:00062226       ??8COleDateTimeSpan@@QBEHABV0@@Z 5f563226 f oleunk.obj
 0001:00062271       ??9COleDateTimeSpan@@QBEHABV0@@Z 5f563271 f oleunk.obj
 0001:000622bc       ??MCOleDateTimeSpan@@QBEHABV0@@Z 5f5632bc f oleunk.obj
 0001:00062345       ??OCOleDateTimeSpan@@QBEHABV0@@Z 5f563345 f oleunk.obj
 0001:000623ce       ??NCOleDateTimeSpan@@QBEHABV0@@Z 5f5633ce f oleunk.obj
 0001:00062457       ??PCOleDateTimeSpan@@QBEHABV0@@Z 5f563457 f oleunk.obj
 0001:000624e0       ??YCOleDateTimeSpan@@QAEABV0@V0@@Z 5f5634e0 f oleunk.obj
 0001:00062514       ??ZCOleDateTimeSpan@@QAEABV0@V0@@Z 5f563514 f oleunk.obj
 0001:00062548       ??GCOleDateTimeSpan@@QBE?AV0@XZ 5f563548 f oleunk.obj
 0001:00062578       ??BCOleDateTimeSpan@@QBENXZ 5f563578 f oleunk.obj
 0001:00062593       ??0COleSafeArray@@QAE@XZ   5f563593 f oleunk.obj
 0001:000625bd       ??1COleSafeArray@@QAE@XZ   5f5635bd f oleunk.obj
 0001:000625db       ?Clear@COleSafeArray@@QAEXXZ 5f5635db f oleunk.obj
 0001:0006261b       ??BCOleSafeArray@@QAEPAUtagVARIANT@@XZ 5f56361b f oleunk.obj
 0001:00062634       ??BCOleSafeArray@@QBEPBUtagVARIANT@@XZ 5f563634 f oleunk.obj
 0001:0006264d       ?GetDim@COleSafeArray@@QAEKXZ 5f56364d f oleunk.obj
 0001:00062670       ?GetElemSize@COleSafeArray@@QAEKXZ 5f563670 f oleunk.obj
 0001:000626a0       ??0CInnerUnknown@@QAE@XZ   5f5636a0 f oleunk.obj
 0001:000626d0       ??_GCOleException@@UAEPAXI@Z 5f5636d0 f oleunk.obj
 0001:000626d0       ??_ECOleException@@UAEPAXI@Z 5f5636d0 f oleunk.obj
 0001:00062710       ??1CMonikerFile@@UAE@XZ    5f563710 f olemon.obj
 0001:000627ac       ?Open@CMonikerFile@@MAEHPBGPAUIBindHost@@PAUIBindStatusCallback@@PAUIBindCtx@@PAVCFileException@@@Z 5f5637ac f olemon.obj
 0001:000627fe       ?Attach@CMonikerFile@@IAEHPBGPAUIBindHost@@PAUIBindStatusCallback@@PAUIBindCtx@@PAVCFileException@@@Z 5f5637fe f olemon.obj
 0001:00062a3f       ?Open@CMonikerFile@@UAEHPBGPAVCFileException@@@Z 5f563a3f f olemon.obj
 0001:00062b06       ?Open@CMonikerFile@@UAEHPAUIMoniker@@PAVCFileException@@@Z 5f563b06 f olemon.obj
 0001:00062bd5       ?Open@CMonikerFile@@MAEHPAUIMoniker@@PAUIBindHost@@PAUIBindStatusCallback@@PAUIBindCtx@@PAVCFileException@@@Z 5f563bd5 f olemon.obj
 0001:00062c14       ?Attach@CMonikerFile@@IAEHPAUIMoniker@@PAUIBindHost@@PAUIBindStatusCallback@@PAUIBindCtx@@PAVCFileException@@@Z 5f563c14 f olemon.obj
 0001:00062dab       ?Close@CMonikerFile@@UAEXXZ 5f563dab f olemon.obj
 0001:00062de7       ?Detach@CMonikerFile@@QAEHPAVCFileException@@@Z 5f563de7 f olemon.obj
 0001:00062f14       ?CreateBindHost@CMonikerFile@@KAPAUIBindHost@@XZ 5f563f14 f olemon.obj
 0001:00062f6e       ?CreateBindContext@CMonikerFile@@IAEPAUIBindCtx@@PAVCFileException@@@Z 5f563f6e f olemon.obj
 0001:00062f88       ?PostBindToStream@CMonikerFile@@MAEHPAVCFileException@@@Z 5f563f88 f olemon.obj
 0001:0006305d       ?AssertValid@CMonikerFile@@UBEXXZ 5f56405d f olemon.obj
 0001:0006307b       ?Dump@CMonikerFile@@UBEXAAVCDumpContext@@@Z 5f56407b f olemon.obj
 0001:000630d0       ??1?$CIP@UIBindCtx@@$1IID_IBindCtx@@QAE@XZ 5f5640d0 f olemon.obj
 0001:00063130       ??1?$CIP@UIBindHost@@$1IID_IBindHost@@QAE@XZ 5f564130 f olemon.obj
 0001:00063190       ??1?$CIP@UIStream@@$1IID_IStream@@QAE@XZ 5f564190 f olemon.obj
 0001:000631f0       ??0IBindHost@@QAE@XZ       5f5641f0 f olemon.obj
 0001:00063220       ??_G_AfxBindHost@@QAEPAXI@Z 5f564220 f olemon.obj
 0001:00063260       ??1?$CIP@UIBindStatusCallback@@$1IID_IBindStatusCallback@@QAE@XZ 5f564260 f olemon.obj
 0001:000632c0       ??0CAsyncMonikerFile@@QAE@XZ 5f5642c0 f oleasmon.obj
 0001:000633a8       ??1CAsyncMonikerFile@@UAE@XZ 5f5643a8 f oleasmon.obj
 0001:000634ac       ?Open@CAsyncMonikerFile@@UAEHPBGPAVCFileException@@@Z 5f5644ac f oleasmon.obj
 0001:0006353e       ?Open@CAsyncMonikerFile@@UAEHPAUIMoniker@@PAVCFileException@@@Z 5f56453e f oleasmon.obj
 0001:000635d0       ?Open@CAsyncMonikerFile@@UAEHPAUIMoniker@@PAUIBindHost@@PAVCFileException@@@Z 5f5645d0 f oleasmon.obj
 0001:00063719       ?Open@CAsyncMonikerFile@@UAEHPBGPAUIBindHost@@PAVCFileException@@@Z 5f564719 f oleasmon.obj
 0001:00063862       ?Open@CAsyncMonikerFile@@UAEHPBGPAUIServiceProvider@@PAVCFileException@@@Z 5f564862 f oleasmon.obj
 0001:00063ac1       ?Open@CAsyncMonikerFile@@UAEHPBGPAUIUnknown@@PAVCFileException@@@Z 5f564ac1 f oleasmon.obj
 0001:00063c30       ?Open@CAsyncMonikerFile@@UAEHPAUIMoniker@@PAUIServiceProvider@@PAVCFileException@@@Z 5f564c30 f oleasmon.obj
 0001:00063d50       ?Open@CAsyncMonikerFile@@UAEHPAUIMoniker@@PAUIUnknown@@PAVCFileException@@@Z 5f564d50 f oleasmon.obj
 0001:00063eca       ?GetBindInfo@CAsyncMonikerFile@@MBEKXZ 5f564eca f oleasmon.obj
 0001:00063ee5       ?GetPriority@CAsyncMonikerFile@@MBEJXZ 5f564ee5 f oleasmon.obj
 0001:00063efd       ?OnDataAvailable@CAsyncMonikerFile@@MAEXKK@Z 5f564efd f oleasmon.obj
 0001:00063f15       ?OnLowResource@CAsyncMonikerFile@@MAEXXZ 5f564f15 f oleasmon.obj
 0001:00063f2b       ?OnStartBinding@CAsyncMonikerFile@@MAEXXZ 5f564f2b f oleasmon.obj
 0001:00063f41       ?OnStopBinding@CAsyncMonikerFile@@MAEXJPBG@Z 5f564f41 f oleasmon.obj
 0001:00063f59       ?OnProgress@CAsyncMonikerFile@@MAEXKKKPBG@Z 5f564f59 f oleasmon.obj
 0001:00063f71       ?Close@CAsyncMonikerFile@@UAEXXZ 5f564f71 f oleasmon.obj
 0001:0006401b       ?PostBindToStream@CAsyncMonikerFile@@MAEHPAVCFileException@@@Z 5f56501b f oleasmon.obj
 0001:00064060       ?AssertValid@CAsyncMonikerFile@@UBEXXZ 5f565060 f oleasmon.obj
 0001:0006407e       ?Dump@CAsyncMonikerFile@@UBEXAAVCDumpContext@@@Z 5f56507e f oleasmon.obj
 0001:00064160       ??0IBindStatusCallback@@QAE@XZ 5f565160 f oleasmon.obj
 0001:00064190       ??1?$CIP@UIBinding@@$1IID_IBinding@@QAE@XZ 5f565190 f oleasmon.obj
 0001:000641f0       ??1?$CIP@UIServiceProvider@@$1IID_IServiceProvider@@QAE@XZ 5f5651f0 f oleasmon.obj
 0001:00064250       ??0COleFrameHook@@QAE@PAVCFrameWnd@@PAVCOleClientItem@@@Z 5f565250 f olecli2.obj
 0001:00064370       ??1COleFrameHook@@UAE@XZ   5f565370 f olecli2.obj
 0001:00064440       ?OnRecalcLayout@COleFrameHook@@UAEXXZ 5f565440 f olecli2.obj
 0001:000644c3       ?OnDocActivate@COleFrameHook@@UAEHH@Z 5f5654c3 f olecli2.obj
 0001:000645e3       ?OnContextHelp@COleFrameHook@@UAEHH@Z 5f5655e3 f olecli2.obj
 0001:00064648       ?OnPreTranslateMessage@COleFrameHook@@UAEHPAUtagMSG@@@Z 5f565648 f olecli2.obj
 0001:000646ea       ?OnActivate@COleFrameHook@@UAEXH@Z 5f5656ea f olecli2.obj
 0001:00064762       ?OnEnableModeless@COleFrameHook@@UAEXH@Z 5f565762 f olecli2.obj
 0001:000647c2       ?OnUpdateFrameTitle@COleFrameHook@@UAEHXZ 5f5657c2 f olecli2.obj
 0001:0006483b       ?OnPaletteChanged@COleFrameHook@@UAEXPAVCWnd@@@Z 5f56583b f olecli2.obj
 0001:00064883       ?OnQueryNewPalette@COleFrameHook@@UAEHXZ 5f565883 f olecli2.obj
 0001:000648c9       ?NotifyAllInPlace@COleFrameHook@@QAEHHP81@AEHH@Z@Z 5f5658c9 f olecli2.obj
 0001:00064a99       ?DoContextSensitiveHelp@COleFrameHook@@QAEHH@Z 5f565a99 f olecli2.obj
 0001:00064b13       ?DoEnableModeless@COleFrameHook@@QAEHH@Z 5f565b13 f olecli2.obj
 0001:00064bd8       ?CanActivate@COleClientItem@@MAEHXZ 5f565bd8 f olecli2.obj
 0001:00064cb6       ?OnActivate@COleClientItem@@UAEXXZ 5f565cb6 f olecli2.obj
 0001:00064d2d       ?OnActivateUI@COleClientItem@@UAEXXZ 5f565d2d f olecli2.obj
 0001:00064e91       ?OnShowControlBars@COleClientItem@@UAEHPAVCFrameWnd@@H@Z 5f565e91 f olecli2.obj
 0001:00064fef       ?OnGetWindowContext@COleClientItem@@MAEHPAPAVCFrameWnd@@0PAUtagOIFI@@@Z 5f565fef f olecli2.obj
 0001:00065244       ?OnScrollBy@COleClientItem@@MAEHVCSize@@@Z 5f566244 f olecli2.obj
 0001:000652eb       ?OnDeactivateUI@COleClientItem@@UAEXH@Z 5f5662eb f olecli2.obj
 0001:00065583       ?OnDeactivate@COleClientItem@@UAEXXZ 5f566583 f olecli2.obj
 0001:000656ba       ?OnDiscardUndoState@COleClientItem@@MAEXXZ 5f5666ba f olecli2.obj
 0001:000656e3       ?OnDeactivateAndUndo@COleClientItem@@MAEXXZ 5f5666e3 f olecli2.obj
 0001:00065714       ?OnChangeItemPosition@COleClientItem@@MAEHABVCRect@@@Z 5f566714 f olecli2.obj
 0001:000657fc       ?OnInsertMenus@COleClientItem@@UAEXPAVCMenu@@PAUtagOleMenuGroupWidths@@@Z 5f5667fc f olecli2.obj
 0001:000658c8       ?OnSetMenu@COleClientItem@@UAEXPAVCMenu@@PAXPAUHWND__@@@Z 5f5668c8 f olecli2.obj
 0001:00065a03       ?OnRemoveMenus@COleClientItem@@UAEXPAVCMenu@@@Z 5f566a03 f olecli2.obj
 0001:00065a7f       ?OnUpdateFrameTitle@COleClientItem@@UAEHXZ 5f566a7f f olecli2.obj
 0001:00065aaa       ?Deactivate@COleClientItem@@QAEXXZ 5f566aaa f olecli2.obj
 0001:00065b91       ?DeactivateUI@COleClientItem@@QAEXXZ 5f566b91 f olecli2.obj
 0001:00065c79       ?SetItemRects@COleClientItem@@QAEHPBUtagRECT@@0@Z 5f566c79 f olecli2.obj
 0001:00065e7a       ?ReactivateAndUndo@COleClientItem@@QAEHXZ 5f566e7a f olecli2.obj
 0001:00065f60       ?GetInPlaceWindow@COleClientItem@@QAEPAVCWnd@@XZ 5f566f60 f olecli2.obj
 0001:0006603f       ?_GetBaseInterfaceMap@COleFrameHook@@KGPBUAFX_INTERFACEMAP@@XZ 5f56703f f olecli2.obj
 0001:00066054       ?GetInterfaceMap@COleFrameHook@@MBEPBUAFX_INTERFACEMAP@@XZ 5f567054 f olecli2.obj
 0001:0006606f       ?AddRef@XOleInPlaceFrame@COleFrameHook@@UAGKXZ 5f56706f f olecli2.obj
 0001:00066095       ?Release@XOleInPlaceFrame@COleFrameHook@@UAGKXZ 5f567095 f olecli2.obj
 0001:000660bb       ?QueryInterface@XOleInPlaceFrame@COleFrameHook@@UAGJABU_GUID@@PAPAX@Z 5f5670bb f olecli2.obj
 0001:000660e9       ?GetWindow@XOleInPlaceFrame@COleFrameHook@@UAGJPAPAUHWND__@@@Z 5f5670e9 f olecli2.obj
 0001:0006612a       ?ContextSensitiveHelp@XOleInPlaceFrame@COleFrameHook@@UAGJH@Z 5f56712a f olecli2.obj
 0001:0006627b       ?GetBorder@XOleInPlaceFrame@COleFrameHook@@UAGJPAUtagRECT@@@Z 5f56727b f olecli2.obj
 0001:000663d0       ?RequestBorderSpace@XOleInPlaceFrame@COleFrameHook@@UAGJPBUtagRECT@@@Z 5f5673d0 f olecli2.obj
 0001:000664b2       ?SetBorderSpace@XOleInPlaceFrame@COleFrameHook@@UAGJPBUtagRECT@@@Z 5f5674b2 f olecli2.obj
 0001:00066591       ?SetActiveObject@XOleInPlaceFrame@COleFrameHook@@UAGJPAUIOleInPlaceActiveObject@@PBG@Z 5f567591 f olecli2.obj
 0001:00066709       ?InsertMenus@XOleInPlaceFrame@COleFrameHook@@UAGJPAUHMENU__@@PAUtagOleMenuGroupWidths@@@Z 5f567709 f olecli2.obj
 0001:0006682f       ?SetMenu@XOleInPlaceFrame@COleFrameHook@@UAGJPAUHMENU__@@PAXPAUHWND__@@@Z 5f56782f f olecli2.obj
 0001:00066959       ?RemoveMenus@XOleInPlaceFrame@COleFrameHook@@UAGJPAUHMENU__@@@Z 5f567959 f olecli2.obj
 0001:00066a7b       ?SetStatusText@XOleInPlaceFrame@COleFrameHook@@UAGJPBG@Z 5f567a7b f olecli2.obj
 0001:00066ac1       ?EnableModeless@XOleInPlaceFrame@COleFrameHook@@UAGJH@Z 5f567ac1 f olecli2.obj
 0001:00066bfc       ?TranslateAcceleratorW@XOleInPlaceFrame@COleFrameHook@@UAGJPAUtagMSG@@G@Z 5f567bfc f olecli2.obj
 0001:00066d73       ?AddRef@XOleIPSite@COleClientItem@@UAGKXZ 5f567d73 f olecli2.obj
 0001:00066d99       ?Release@XOleIPSite@COleClientItem@@UAGKXZ 5f567d99 f olecli2.obj
 0001:00066dbf       ?QueryInterface@XOleIPSite@COleClientItem@@UAGJABU_GUID@@PAPAX@Z 5f567dbf f olecli2.obj
 0001:00066ded       ?GetWindow@XOleIPSite@COleClientItem@@UAGJPAPAUHWND__@@@Z 5f567ded f olecli2.obj
 0001:00066e33       ?ContextSensitiveHelp@XOleIPSite@COleClientItem@@UAGJH@Z 5f567e33 f olecli2.obj
 0001:00066e82       ?CanInPlaceActivate@XOleIPSite@COleClientItem@@UAGJXZ 5f567e82 f olecli2.obj
 0001:00066f20       ?OnInPlaceActivate@XOleIPSite@COleClientItem@@UAGJXZ 5f567f20 f olecli2.obj
 0001:0006701c       ?OnUIActivate@XOleIPSite@COleClientItem@@UAGJXZ 5f56801c f olecli2.obj
 0001:00067118       ?GetWindowContext@XOleIPSite@COleClientItem@@UAGJPAPAUIOleInPlaceFrame@@PAPAUIOleInPlaceUIWindow@@PAUtagRECT@@2PAUtagOIFI@@@Z 5f568118 f olecli2.obj
 0001:000673c4       ?Scroll@XOleIPSite@COleClientItem@@UAGJUtagSIZE@@@Z 5f5683c4 f olecli2.obj
 0001:000674e8       ?OnUIDeactivate@XOleIPSite@COleClientItem@@UAGJH@Z 5f5684e8 f olecli2.obj
 0001:000675e8       ?OnInPlaceDeactivate@XOleIPSite@COleClientItem@@UAGJXZ 5f5685e8 f olecli2.obj
 0001:000676e4       ?DiscardUndoState@XOleIPSite@COleClientItem@@UAGJXZ 5f5686e4 f olecli2.obj
 0001:000677e0       ?DeactivateAndUndo@XOleIPSite@COleClientItem@@UAGJXZ 5f5687e0 f olecli2.obj
 0001:000678dc       ?OnPosRectChange@XOleIPSite@COleClientItem@@UAGJPBUtagRECT@@@Z 5f5688dc f olecli2.obj
 0001:000679f0       ??_ECOleFrameHook@@UAEPAXI@Z 5f5689f0 f olecli2.obj
 0001:000679f0       ??_GCOleFrameHook@@UAEPAXI@Z 5f5689f0 f olecli2.obj
 0001:00067a30       ??0XOleInPlaceFrame@COleFrameHook@@QAE@XZ 5f568a30 f olecli2.obj
 0001:00067a60       ??0IOleInPlaceFrame@@QAE@XZ 5f568a60 f olecli2.obj
 0001:00067a90       ??0IOleInPlaceUIWindow@@QAE@XZ 5f568a90 f olecli2.obj
 0001:00067ac0       ?_AfxOlePropertiesEnabled@@YGHXZ 5f568ac0 f oledlgs1.obj
 0001:00067b35       ?_AfxParseDisplayName@@YAJPAUIMoniker@@PAUIBindCtx@@PAGPAKPAPAU1@@Z 5f568b35 f oledlgs1.obj
 0001:00067d89       ??0COleUILinkInfo@@QAE@PAVCOleDocument@@@Z 5f568d89 f oledlgs1.obj
 0001:00067e1a       ?AddRef@COleUILinkInfo@@UAGKXZ 5f568e1a f oledlgs1.obj
 0001:00067e2e       ?Release@COleUILinkInfo@@UAGKXZ 5f568e2e f oledlgs1.obj
 0001:00067e42       ?QueryInterface@COleUILinkInfo@@UAGJABU_GUID@@PAPAX@Z 5f568e42 f oledlgs1.obj
 0001:00067e59       ?GetNextLink@COleUILinkInfo@@UAGKK@Z 5f568e59 f oledlgs1.obj
 0001:00067f26       ?SetLinkUpdateOptions@COleUILinkInfo@@UAGJKK@Z 5f568f26 f oledlgs1.obj
 0001:0006804a       ?GetLinkUpdateOptions@COleUILinkInfo@@UAGJKPAK@Z 5f56904a f oledlgs1.obj
 0001:00068165       ?SetLinkSource@COleUILinkInfo@@UAGJKPAGKPAKH@Z 5f569165 f oledlgs1.obj
 0001:0006863a       ?GetLinkSource@COleUILinkInfo@@UAGJKPAPAGPAK00PAH2@Z 5f56963a f oledlgs1.obj
 0001:00068966       ?OpenLinkSource@COleUILinkInfo@@UAGJK@Z 5f569966 f oledlgs1.obj
 0001:00068a8f       ?UpdateLink@COleUILinkInfo@@UAGJKHH@Z 5f569a8f f oledlgs1.obj
 0001:00068bbc       ?CancelLink@COleUILinkInfo@@UAGJK@Z 5f569bbc f oledlgs1.obj
 0001:00068d0c       ?GetLastUpdate@COleUILinkInfo@@UAGJKPAU_FILETIME@@@Z 5f569d0c f oledlgs1.obj
 0001:00068d3c       ??0COleInsertDialog@@QAE@KPAVCWnd@@@Z 5f569d3c f oledlgs1.obj
 0001:00068e4f       ??1COleInsertDialog@@UAE@XZ 5f569e4f f oledlgs1.obj
 0001:00068ec6       ?DoModal@COleInsertDialog@@UAEHXZ 5f569ec6 f oledlgs1.obj
 0001:00068f46       ?GetSelectionType@COleInsertDialog@@QBEIXZ 5f569f46 f oledlgs1.obj
 0001:00068fc9       ?CreateItem@COleInsertDialog@@QAEHPAVCOleClientItem@@@Z 5f569fc9 f oledlgs1.obj
 0001:00069165       ?Dump@COleInsertDialog@@UBEXAAVCDumpContext@@@Z 5f56a165 f oledlgs1.obj
 0001:000692de       ??0COleConvertDialog@@QAE@PAVCOleClientItem@@KPAU_GUID@@PAVCWnd@@@Z 5f56a2de f oledlgs1.obj
 0001:000695df       ??1COleConvertDialog@@UAE@XZ 5f56a5df f oledlgs1.obj
 0001:00069656       ?DoModal@COleConvertDialog@@UAEHXZ 5f56a656 f oledlgs1.obj
 0001:000696d6       ?DoConvert@COleConvertDialog@@QAEHPAVCOleClientItem@@@Z 5f56a6d6 f oledlgs1.obj
 0001:000698db       ?GetSelectionType@COleConvertDialog@@QBEIXZ 5f56a8db f oledlgs1.obj
 0001:0006995b       ?Dump@COleConvertDialog@@UBEXAAVCDumpContext@@@Z 5f56a95b f oledlgs1.obj
 0001:00069b50       ??0COleChangeIconDialog@@QAE@PAVCOleClientItem@@KPAVCWnd@@@Z 5f56ab50 f oledlgs1.obj
 0001:00069c6e       ??1COleChangeIconDialog@@UAE@XZ 5f56ac6e f oledlgs1.obj
 0001:00069ce5       ?DoModal@COleChangeIconDialog@@UAEHXZ 5f56ace5 f oledlgs1.obj
 0001:00069d65       ?DoChangeIcon@COleChangeIconDialog@@QAEHPAVCOleClientItem@@@Z 5f56ad65 f oledlgs1.obj
 0001:00069de8       ?Dump@COleChangeIconDialog@@UBEXAAVCDumpContext@@@Z 5f56ade8 f oledlgs1.obj
 0001:00069f44       ??0COleLinksDialog@@QAE@PAVCOleDocument@@PAVCView@@KPAVCWnd@@@Z 5f56af44 f oledlgs1.obj
 0001:0006a0a0       ??1COleLinksDialog@@UAE@XZ 5f56b0a0 f oledlgs1.obj
 0001:0006a108       ?DoModal@COleLinksDialog@@UAEHXZ 5f56b108 f oledlgs1.obj
 0001:0006a195       ?Dump@COleLinksDialog@@UBEXAAVCDumpContext@@@Z 5f56b195 f oledlgs1.obj
 0001:0006a2d3       ?AssertValid@COleLinksDialog@@UBEXXZ 5f56b2d3 f oledlgs1.obj
 0001:0006a2f1       ??0COleUpdateDialog@@QAE@PAVCOleDocument@@HHPAVCWnd@@@Z 5f56b2f1 f oledlgs1.obj
 0001:0006a3f9       ??1COleUpdateDialog@@UAE@XZ 5f56b3f9 f oledlgs1.obj
 0001:0006a47d       ?DoModal@COleUpdateDialog@@UAEHXZ 5f56b47d f oledlgs1.obj
 0001:0006a54f       ?Dump@COleUpdateDialog@@UBEXAAVCDumpContext@@@Z 5f56b54f f oledlgs1.obj
 0001:0006a59c       ??0COlePasteSpecialDialog@@QAE@KPAVCOleDataObject@@PAVCWnd@@@Z 5f56b59c f oledlgs1.obj
 0001:0006a748       ??1COlePasteSpecialDialog@@UAE@XZ 5f56b748 f oledlgs1.obj
 0001:0006a86d       ?DoModal@COlePasteSpecialDialog@@UAEHXZ 5f56b86d f oledlgs1.obj
 0001:0006a907       ?GetSelectionType@COlePasteSpecialDialog@@QBEIXZ 5f56b907 f oledlgs1.obj
 0001:0006a9f7       ?Dump@COlePasteSpecialDialog@@UBEXAAVCDumpContext@@@Z 5f56b9f7 f oledlgs1.obj
 0001:0006abcb       ?AssertValid@COlePasteSpecialDialog@@UBEXXZ 5f56bbcb f oledlgs1.obj
 0001:0006ac71       ?AddLinkEntry@COlePasteSpecialDialog@@QAE?AW4tagOLEUIPASTEFLAG@@I@Z 5f56bc71 f oledlgs1.obj
 0001:0006ad4f       ?AddFormat@COlePasteSpecialDialog@@QAEXIKIHH@Z 5f56bd4f f oledlgs1.obj
 0001:0006af2a       ?AddFormat@COlePasteSpecialDialog@@QAEXABUtagFORMATETC@@PAG1K@Z 5f56bf2a f oledlgs1.obj
 0001:0006afef       ?AddStandardFormats@COlePasteSpecialDialog@@QAEXH@Z 5f56bfef f oledlgs1.obj
 0001:0006b0cc       ?CreateItem@COlePasteSpecialDialog@@QAEHPAVCOleClientItem@@@Z 5f56c0cc f oledlgs1.obj
 0001:0006b32e       ?GetLastError@COleDialog@@QBEIXZ 5f56c32e f oledlgs1.obj
 0001:0006b34a       ?GetPathName@COleInsertDialog@@QBE?AVCString@@XZ 5f56c34a f oledlgs1.obj
 0001:0006b3f8       ?GetClassID@COleInsertDialog@@QBEABU_GUID@@XZ 5f56c3f8 f oledlgs1.obj
 0001:0006b429       ?GetIconicMetafile@COleInsertDialog@@QBEPAXXZ 5f56c429 f oledlgs1.obj
 0001:0006b45b       ?GetDrawAspect@COleInsertDialog@@QBE?AW4tagDVASPECT@@XZ 5f56c45b f oledlgs1.obj
 0001:0006b4a0       ?GetIconicMetafile@COleConvertDialog@@QBEPAXXZ 5f56c4a0 f oledlgs1.obj
 0001:0006b4d2       ?GetDrawAspect@COleConvertDialog@@QBE?AW4tagDVASPECT@@XZ 5f56c4d2 f oledlgs1.obj
 0001:0006b504       ?GetClassID@COleConvertDialog@@QBEABU_GUID@@XZ 5f56c504 f oledlgs1.obj
 0001:0006b535       ?GetIconicMetafile@COleChangeIconDialog@@QBEPAXXZ 5f56c535 f oledlgs1.obj
 0001:0006b567       ?GetPasteIndex@COlePasteSpecialDialog@@QBEHXZ 5f56c567 f oledlgs1.obj
 0001:0006b599       ?GetDrawAspect@COlePasteSpecialDialog@@QBE?AW4tagDVASPECT@@XZ 5f56c599 f oledlgs1.obj
 0001:0006b5de       ?GetIconicMetafile@COlePasteSpecialDialog@@QBEPAXXZ 5f56c5de f oledlgs1.obj
 0001:0006b610       ?GetSelectionType@COleBusyDialog@@QBEIXZ 5f56c610 f oledlgs1.obj
 0001:0006b642       ?IsValidSource@COleChangeSourceDialog@@QAEHXZ 5f56c642 f oledlgs1.obj
 0001:0006b661       ?GetDisplayName@COleChangeSourceDialog@@QAE?AVCString@@XZ 5f56c661 f oledlgs1.obj
 0001:0006b6d5       ?GetFileName@COleChangeSourceDialog@@QAE?AVCString@@XZ 5f56c6d5 f oledlgs1.obj
 0001:0006b753       ?GetItemName@COleChangeSourceDialog@@QAE?AVCString@@XZ 5f56c753 f oledlgs1.obj
 0001:0006b7d2       ?GetFromPrefix@COleChangeSourceDialog@@QAE?AVCString@@XZ 5f56c7d2 f oledlgs1.obj
 0001:0006b846       ?GetToPrefix@COleChangeSourceDialog@@QAE?AVCString@@XZ 5f56c846 f oledlgs1.obj
 0001:0006b8c0       ??0IOleUILinkInfoW@@QAE@XZ 5f56c8c0 f oledlgs1.obj
 0001:0006b8f0       ??0IOleUILinkContainerW@@QAE@XZ 5f56c8f0 f oledlgs1.obj
 0001:0006b920       ??_GCOleInsertDialog@@UAEPAXI@Z 5f56c920 f oledlgs1.obj
 0001:0006b920       ??_ECOleInsertDialog@@UAEPAXI@Z 5f56c920 f oledlgs1.obj
 0001:0006b960       ??1COleDialog@@UAE@XZ      5f56c960 f oledlgs1.obj
 0001:0006b9c0       ??1CCommonDialog@@UAE@XZ   5f56c9c0 f oledlgs1.obj
 0001:0006ba20       ??_ECOleConvertDialog@@UAEPAXI@Z 5f56ca20 f oledlgs1.obj
 0001:0006ba20       ??_GCOleConvertDialog@@UAEPAXI@Z 5f56ca20 f oledlgs1.obj
 0001:0006ba60       ??_ECOleChangeIconDialog@@UAEPAXI@Z 5f56ca60 f oledlgs1.obj
 0001:0006ba60       ??_GCOleChangeIconDialog@@UAEPAXI@Z 5f56ca60 f oledlgs1.obj
 0001:0006baa0       ??_ECOleLinksDialog@@UAEPAXI@Z 5f56caa0 f oledlgs1.obj
 0001:0006baa0       ??_GCOleLinksDialog@@UAEPAXI@Z 5f56caa0 f oledlgs1.obj
 0001:0006bae0       ??_ECOleUpdateDialog@@UAEPAXI@Z 5f56cae0 f oledlgs1.obj
 0001:0006bae0       ??_GCOleUpdateDialog@@UAEPAXI@Z 5f56cae0 f oledlgs1.obj
 0001:0006bb20       ??_ECOlePasteSpecialDialog@@UAEPAXI@Z 5f56cb20 f oledlgs1.obj
 0001:0006bb20       ??_GCOlePasteSpecialDialog@@UAEPAXI@Z 5f56cb20 f oledlgs1.obj
 0001:0006bb60       ?AfxOleHookProc@@YGIPAUHWND__@@IIJ@Z 5f56cb60 f oledlgs2.obj
 0001:0006bbd9       ??0COleDialog@@QAE@PAVCWnd@@@Z 5f56cbd9 f oledlgs2.obj
 0001:0006bc58       ?MapResult@COleDialog@@QAEHI@Z 5f56cc58 f oledlgs2.obj
 0001:0006bca6       ?Dump@COleDialog@@UBEXAAVCDumpContext@@@Z 5f56cca6 f oledlgs2.obj
 0001:0006bcf2       ??0COleBusyDialog@@QAE@PAUHTASK__@@HKPAVCWnd@@@Z 5f56ccf2 f oledlgs2.obj
 0001:0006bdc4       ??1COleBusyDialog@@UAE@XZ  5f56cdc4 f oledlgs2.obj
 0001:0006be2c       ?DoModal@COleBusyDialog@@UAEHXZ 5f56ce2c f oledlgs2.obj
 0001:0006bf21       ?Dump@COleBusyDialog@@UBEXAAVCDumpContext@@@Z 5f56cf21 f oledlgs2.obj
 0001:0006c080       ??_GCOleDialog@@UAEPAXI@Z  5f56d080 f oledlgs2.obj
 0001:0006c080       ??_ECOleDialog@@UAEPAXI@Z  5f56d080 f oledlgs2.obj
 0001:0006c0c0       ??_ECOleBusyDialog@@UAEPAXI@Z 5f56d0c0 f oledlgs2.obj
 0001:0006c0c0       ??_GCOleBusyDialog@@UAEPAXI@Z 5f56d0c0 f oledlgs2.obj
 0001:0006c100       ??0COlePropertiesDialog@@QAE@PAVCOleClientItem@@IIPAVCWnd@@@Z 5f56d100 f oledlgs3.obj
 0001:0006c35d       ?DoModal@COlePropertiesDialog@@UAEHXZ 5f56d35d f oledlgs3.obj
 0001:0006c450       ?OnInitDialog@COlePropertiesDialog@@UAEHXZ 5f56d450 f oledlgs3.obj
 0001:0006c491       ?AddRef@XOleUIObjInfo@COlePropertiesDialog@@UAGKXZ 5f56d491 f oledlgs3.obj
 0001:0006c4a5       ?Release@XOleUIObjInfo@COlePropertiesDialog@@UAGKXZ 5f56d4a5 f oledlgs3.obj
 0001:0006c4b9       ?QueryInterface@XOleUIObjInfo@COlePropertiesDialog@@UAGJABU_GUID@@PAPAX@Z 5f56d4b9 f oledlgs3.obj
 0001:0006c4d0       ?GetObjectInfo@XOleUIObjInfo@COlePropertiesDialog@@UAGJKPAKPAPAG111@Z 5f56d4d0 f oledlgs3.obj
 0001:0006c8b1       ?GetConvertInfo@XOleUIObjInfo@COlePropertiesDialog@@UAGJKPAU_GUID@@PAG0PAPAU3@PAI@Z 5f56d8b1 f oledlgs3.obj
 0001:0006c958       ?ConvertObject@XOleUIObjInfo@COlePropertiesDialog@@UAGJKABU_GUID@@@Z 5f56d958 f oledlgs3.obj
 0001:0006c9b7       ?GetViewInfo@XOleUIObjInfo@COlePropertiesDialog@@UAGJKPAPAXPAKPAH@Z 5f56d9b7 f oledlgs3.obj
 0001:0006ca28       ?SetViewInfo@XOleUIObjInfo@COlePropertiesDialog@@UAGJKPAXKHH@Z 5f56da28 f oledlgs3.obj
 0001:0006cb1c       ?OnApplyScale@COlePropertiesDialog@@UAEHPAVCOleClientItem@@HH@Z 5f56db1c f oledlgs3.obj
 0001:0006cb36       ?Dump@COlePropertiesDialog@@UBEXAAVCDumpContext@@@Z 5f56db36 f oledlgs3.obj
 0001:0006cb5a       ?AssertValid@COlePropertiesDialog@@UBEXXZ 5f56db5a f oledlgs3.obj
 0001:0006cc15       ??0COleChangeSourceDialog@@QAE@PAVCOleClientItem@@PAVCWnd@@@Z 5f56dc15 f oledlgs3.obj
 0001:0006cd19       ?DoModal@COleChangeSourceDialog@@UAEHXZ 5f56dd19 f oledlgs3.obj
 0001:0006cd99       ?PreInitDialog@COleChangeSourceDialog@@UAEXXZ 5f56dd99 f oledlgs3.obj
 0001:0006cdcc       ??1COleChangeSourceDialog@@UAE@XZ 5f56ddcc f oledlgs3.obj
 0001:0006ce64       ?Dump@COleChangeSourceDialog@@UBEXAAVCDumpContext@@@Z 5f56de64 f oledlgs3.obj
 0001:0006cfa2       ?AssertValid@COleChangeSourceDialog@@UBEXXZ 5f56dfa2 f oledlgs3.obj
 0001:0006d010       ??_GCOlePropertiesDialog@@UAEPAXI@Z 5f56e010 f oledlgs3.obj
 0001:0006d010       ??_ECOlePropertiesDialog@@UAEPAXI@Z 5f56e010 f oledlgs3.obj
 0001:0006d050       ??0XOleUIObjInfo@COlePropertiesDialog@@QAE@XZ 5f56e050 f oledlgs3.obj
 0001:0006d080       ??1COlePropertiesDialog@@UAE@XZ 5f56e080 f oledlgs3.obj
 0001:0006d0e0       ??0IOleUIObjInfoW@@QAE@XZ  5f56e0e0 f oledlgs3.obj
 0001:0006d110       ??_GCOleChangeSourceDialog@@UAEPAXI@Z 5f56e110 f oledlgs3.obj
 0001:0006d110       ??_ECOleChangeSourceDialog@@UAEPAXI@Z 5f56e110 f oledlgs3.obj
 0001:0006d150       ?ReportError@COleClientItem@@UBEHJ@Z 5f56e150 f oleui1.obj
 0001:0006d23c       ?DoVerb@COleClientItem@@UAEHJPAVCView@@PAUtagMSG@@@Z 5f56e23c f oleui1.obj
 0001:0006d3e1       ?OnCmdMsg@COleDocument@@MAEHIHPAXPAUAFX_CMDHANDLERINFO@@@Z 5f56e3e1 f oleui1.obj
 0001:0006d500       ?GetPrimarySelectedItem@COleDocument@@UAEPAVCOleClientItem@@PAVCView@@@Z 5f56e500 f oleui1.obj
 0001:0006d5c1       ?GetInPlaceActiveItem@COleDocument@@UAEPAVCOleClientItem@@PAVCWnd@@@Z 5f56e5c1 f oleui1.obj
 0001:0006d6d0       ?AfxOleSetEditMenu@@YGXPAVCOleClientItem@@PAVCMenu@@IIII@Z 5f56e6d0 f oleui2.obj
 0001:0006d7bd       ?OnUpdatePasteMenu@COleDocument@@IAEXPAVCCmdUI@@@Z 5f56e7bd f oleui2.obj
 0001:0006d7e5       ?OnUpdatePasteLinkMenu@COleDocument@@IAEXPAVCCmdUI@@@Z 5f56e7e5 f oleui2.obj
 0001:0006d80d       ?OnUpdateEditLinksMenu@COleDocument@@IAEXPAVCCmdUI@@@Z 5f56e80d f oleui2.obj
 0001:0006d882       ?OnEditLinks@COleDocument@@IAEXXZ 5f56e882 f oleui2.obj
 0001:0006d925       ?OnEditConvert@COleDocument@@IAEXXZ 5f56e925 f oleui2.obj
 0001:0006da05       ?OnUpdateEditChangeIcon@COleDocument@@IAEXPAVCCmdUI@@@Z 5f56ea05 f oleui2.obj
 0001:0006da55       ?OnEditChangeIcon@COleDocument@@IAEXXZ 5f56ea55 f oleui2.obj
 0001:0006db33       ?OnUpdateObjectVerbMenu@COleDocument@@IAEXPAVCCmdUI@@@Z 5f56eb33 f oleui2.obj
 0001:0006dc20       ??0COleDataObject@@QAE@XZ  5f56ec20 f oledobj1.obj
 0001:0006dc60       ?Attach@COleDataObject@@QAEXPAUIDataObject@@H@Z 5f56ec60 f oledobj1.obj
 0001:0006dcb0       ?Release@COleDataObject@@QAEXXZ 5f56ecb0 f oledobj1.obj
 0001:0006dd2b       ?Detach@COleDataObject@@QAEPAUIDataObject@@XZ 5f56ed2b f oledobj1.obj
 0001:0006dd67       ?GetIDataObject@COleDataObject@@QAEPAUIDataObject@@H@Z 5f56ed67 f oledobj1.obj
 0001:0006ddb2       ?BeginEnumFormats@COleDataObject@@QAEXXZ 5f56edb2 f oledobj1.obj
 0001:0006de80       ?GetNextFormat@COleDataObject@@QAEHPAUtagFORMATETC@@@Z 5f56ee80 f oledobj1.obj
 0001:0006df60       ?GetFileData@COleDataObject@@QAEPAVCFile@@GPAUtagFORMATETC@@@Z 5f56ef60 f oledobj1.obj
 0001:0006e325       ?GetGlobalData@COleDataObject@@QAEPAXGPAUtagFORMATETC@@@Z 5f56f325 f oledobj1.obj
 0001:0006e4ea       ?GetData@COleDataObject@@QAEHGPAUtagSTGMEDIUM@@PAUtagFORMATETC@@@Z 5f56f4ea f oledobj1.obj
 0001:0006e5c0       ?IsDataAvailable@COleDataObject@@QAEHGPAUtagFORMATETC@@@Z 5f56f5c0 f oledobj1.obj
 0001:0006e695       ?AttachClipboard@COleDataObject@@QAEHXZ 5f56f695 f oledobj1.obj
 0001:0006e730       ?EnsureClipboardObject@COleDataObject@@QAEXXZ 5f56f730 f oledobj1.obj
 0001:0006e7c0       ??0COleDataSource@@QAE@XZ  5f56f7c0 f oledobj2.obj
 0001:0006e862       ??1COleDataSource@@UAE@XZ  5f56f862 f oledobj2.obj
 0001:0006e8f8       ?Empty@COleDataSource@@QAEXXZ 5f56f8f8 f oledobj2.obj
 0001:0006ea56       ?SetClipboard@COleDataSource@@QAEXXZ 5f56fa56 f oledobj2.obj
 0001:0006eaf1       ?FlushClipboard@COleDataSource@@SGXXZ 5f56faf1 f oledobj2.obj
 0001:0006eb36       ?GetClipboardOwner@COleDataSource@@SGPAV1@XZ 5f56fb36 f oledobj2.obj
 0001:0006ebb9       ?GetCacheEntry@COleDataSource@@IAEPAUAFX_DATACACHE_ENTRY@@PAUtagFORMATETC@@W4tagDATADIR@@@Z 5f56fbb9 f oledobj2.obj
 0001:0006ed54       ?CacheGlobalData@COleDataSource@@QAEXGPAXPAUtagFORMATETC@@@Z 5f56fd54 f oledobj2.obj
 0001:0006ee11       ?CacheData@COleDataSource@@QAEXGPAUtagSTGMEDIUM@@PAUtagFORMATETC@@@Z 5f56fe11 f oledobj2.obj
 0001:0006ef5b       ?DelayRenderFileData@COleDataSource@@QAEXGPAUtagFORMATETC@@@Z 5f56ff5b f oledobj2.obj
 0001:0006eff4       ?DelayRenderData@COleDataSource@@QAEXGPAUtagFORMATETC@@@Z 5f56fff4 f oledobj2.obj
 0001:0006f0a6       ?DelaySetData@COleDataSource@@QAEXGPAUtagFORMATETC@@@Z 5f5700a6 f oledobj2.obj
 0001:0006f138       ?Lookup@COleDataSource@@IBEPAUAFX_DATACACHE_ENTRY@@PAUtagFORMATETC@@W4tagDATADIR@@@Z 5f570138 f oledobj2.obj
 0001:0006f1f4       ?OnRenderGlobalData@COleDataSource@@UAEHPAUtagFORMATETC@@PAPAX@Z 5f5701f4 f oledobj2.obj
 0001:0006f20e       ?OnRenderFileData@COleDataSource@@UAEHPAUtagFORMATETC@@PAVCFile@@@Z 5f57020e f oledobj2.obj
 0001:0006f228       ?OnRenderData@COleDataSource@@UAEHPAUtagFORMATETC@@PAUtagSTGMEDIUM@@@Z 5f570228 f oledobj2.obj
 0001:0006f4f3       ?OnSetData@COleDataSource@@UAEHPAUtagFORMATETC@@PAUtagSTGMEDIUM@@H@Z 5f5704f3 f oledobj2.obj
 0001:0006f50d       ?_GetBaseInterfaceMap@CEnumFormatEtc@@KGPBUAFX_INTERFACEMAP@@XZ 5f57050d f oledobj2.obj
 0001:0006f522       ?GetInterfaceMap@CEnumFormatEtc@@MBEPBUAFX_INTERFACEMAP@@XZ 5f570522 f oledobj2.obj
 0001:0006f53d       ??0CEnumFormatEtc@@QAE@XZ  5f57053d f oledobj2.obj
 0001:0006f5be       ??1CEnumFormatEtc@@UAE@XZ  5f5705be f oledobj2.obj
 0001:0006f676       ?OnNext@CEnumFormatEtc@@MAEHPAX@Z 5f570676 f oledobj2.obj
 0001:0006f6e5       ?AddFormat@CEnumFormatEtc@@QAEXPBUtagFORMATETC@@@Z 5f5706e5 f oledobj2.obj
 0001:0006f82b       ?_GetBaseInterfaceMap@COleDataSource@@KGPBUAFX_INTERFACEMAP@@XZ 5f57082b f oledobj2.obj
 0001:0006f840       ?GetInterfaceMap@COleDataSource@@MBEPBUAFX_INTERFACEMAP@@XZ 5f570840 f oledobj2.obj
 0001:0006f85b       ?AddRef@XDataObject@COleDataSource@@UAGKXZ 5f57085b f oledobj2.obj
 0001:0006f881       ?Release@XDataObject@COleDataSource@@UAGKXZ 5f570881 f oledobj2.obj
 0001:0006f8a7       ?QueryInterface@XDataObject@COleDataSource@@UAGJABU_GUID@@PAPAX@Z 5f5708a7 f oledobj2.obj
 0001:0006f8d5       ?GetData@XDataObject@COleDataSource@@UAGJPAUtagFORMATETC@@PAUtagSTGMEDIUM@@@Z 5f5708d5 f oledobj2.obj
 0001:0006fa92       ?GetDataHere@XDataObject@COleDataSource@@UAGJPAUtagFORMATETC@@PAUtagSTGMEDIUM@@@Z 5f570a92 f oledobj2.obj
 0001:0006fc9c       ?QueryGetData@XDataObject@COleDataSource@@UAGJPAUtagFORMATETC@@@Z 5f570c9c f oledobj2.obj
 0001:0006fce1       ?GetCanonicalFormatEtc@XDataObject@COleDataSource@@UAGJPAUtagFORMATETC@@0@Z 5f570ce1 f oledobj2.obj
 0001:0006fcf8       ?SetData@XDataObject@COleDataSource@@UAGJPAUtagFORMATETC@@PAUtagSTGMEDIUM@@H@Z 5f570cf8 f oledobj2.obj
 0001:0006fe95       ?EnumFormatEtc@XDataObject@COleDataSource@@UAGJKPAPAUIEnumFORMATETC@@@Z 5f570e95 f oledobj2.obj
 0001:0006ffef       ?DAdvise@XDataObject@COleDataSource@@UAGJPAUtagFORMATETC@@KPAUIAdviseSink@@PAK@Z 5f570fef f oledobj2.obj
 0001:0007000f       ?DUnadvise@XDataObject@COleDataSource@@UAGJK@Z 5f57100f f oledobj2.obj
 0001:00070026       ?EnumDAdvise@XDataObject@COleDataSource@@UAGJPAPAUIEnumSTATDATA@@@Z 5f571026 f oledobj2.obj
 0001:00070046       ?AssertValid@COleDataSource@@UBEXXZ 5f571046 f oledobj2.obj
 0001:000700c0       ?Dump@COleDataSource@@UBEXAAVCDumpContext@@@Z 5f5710c0 f oledobj2.obj
 0001:00070270       ??0XDataObject@COleDataSource@@QAE@XZ 5f571270 f oledobj2.obj
 0001:000702a0       ??0IDataObject@@QAE@XZ     5f5712a0 f oledobj2.obj
 0001:000702d0       ??_GCEnumFormatEtc@@UAEPAXI@Z 5f5712d0 f oledobj2.obj
 0001:000702d0       ??_ECEnumFormatEtc@@UAEPAXI@Z 5f5712d0 f oledobj2.obj
 0001:00070310       ??0CEnumArray@@QAE@IPBXIH@Z 5f571310 f oleenum.obj
 0001:000703d4       ??1CEnumArray@@UAE@XZ      5f5713d4 f oleenum.obj
 0001:000704d0       ?OnNext@CEnumArray@@MAEHPAX@Z 5f5714d0 f oleenum.obj
 0001:00070543       ?OnSkip@CEnumArray@@MAEHXZ 5f571543 f oleenum.obj
 0001:000705a6       ?OnReset@CEnumArray@@MAEXXZ 5f5715a6 f oleenum.obj
 0001:000705d6       ?OnClone@CEnumArray@@MAEPAV1@XZ 5f5715d6 f oleenum.obj
 0001:000706a5       ?AddRef@XEnumVOID@CEnumArray@@UAGKXZ 5f5716a5 f oleenum.obj
 0001:000706cb       ?Release@XEnumVOID@CEnumArray@@UAGKXZ 5f5716cb f oleenum.obj
 0001:000706f1       ?QueryInterface@XEnumVOID@CEnumArray@@UAGJABU_GUID@@PAPAX@Z 5f5716f1 f oleenum.obj
 0001:0007071f       ?Next@XEnumVOID@CEnumArray@@UAGJKPAXPAK@Z 5f57171f f oleenum.obj
 0001:000708de       ?Skip@XEnumVOID@CEnumArray@@UAGJK@Z 5f5718de f oleenum.obj
 0001:00070a24       ?Reset@XEnumVOID@CEnumArray@@UAGJXZ 5f571a24 f oleenum.obj
 0001:00070abe       ?Clone@XEnumVOID@CEnumArray@@UAGJPAPAUIEnumVOID@@@Z 5f571abe f oleenum.obj
 0001:00070c20       ??_GCEnumArray@@UAEPAXI@Z  5f571c20 f oleenum.obj
 0001:00070c20       ??_ECEnumArray@@UAEPAXI@Z  5f571c20 f oleenum.obj
 0001:00070c60       ??0XEnumVOID@CEnumArray@@QAE@XZ 5f571c60 f oleenum.obj
 0001:00070c90       ??0IEnumVOID@@QAE@XZ       5f571c90 f oleenum.obj
 0001:00070cc0       ?_GetBaseInterfaceMap@COleObjectFactory@@KGPBUAFX_INTERFACEMAP@@XZ 5f571cc0 f olefact.obj
 0001:00070cd5       ?GetInterfaceMap@COleObjectFactory@@MBEPBUAFX_INTERFACEMAP@@XZ 5f571cd5 f olefact.obj
 0001:00070cf0       ?UpdateRegistry@COleObjectFactory@@QAEXPBG@Z 5f571cf0 f olefact.obj
 0001:00070d94       ?UpdateRegistryAll@COleObjectFactory@@SGHH@Z 5f571d94 f olefact.obj
 0001:00070ea0       ?OnCreateObject@COleObjectFactory@@MAEPAVCCmdTarget@@XZ 5f571ea0 f olefact.obj
 0001:00070f5a       ?IsLicenseValid@COleObjectFactory@@QAEHXZ 5f571f5a f olefact.obj
 0001:00070fa2       ?UpdateRegistry@COleObjectFactory@@MAEHH@Z 5f571fa2 f olefact.obj
 0001:00070fd3       ?VerifyUserLicense@COleObjectFactory@@MAEHXZ 5f571fd3 f olefact.obj
 0001:00070fee       ?GetLicenseKey@COleObjectFactory@@MAEHKPAPAG@Z 5f571fee f olefact.obj
 0001:00071008       ?VerifyLicenseKey@COleObjectFactory@@MAEHPAG@Z 5f572008 f olefact.obj
 0001:000710c3       ?AddRef@XClassFactory@COleObjectFactory@@UAGKXZ 5f5720c3 f olefact.obj
 0001:000710e9       ?Release@XClassFactory@COleObjectFactory@@UAGKXZ 5f5720e9 f olefact.obj
 0001:0007110f       ?QueryInterface@XClassFactory@COleObjectFactory@@UAGJABU_GUID@@PAPAX@Z 5f57210f f olefact.obj
 0001:0007113d       ?CreateInstance@XClassFactory@COleObjectFactory@@UAGJPAUIUnknown@@ABU_GUID@@PAPAX@Z 5f57213d f olefact.obj
 0001:0007116b       ?LockServer@XClassFactory@COleObjectFactory@@UAGJH@Z 5f57216b f olefact.obj
 0001:00071272       ?GetLicInfo@XClassFactory@COleObjectFactory@@UAGJPAUtagLICINFO@@@Z 5f572272 f olefact.obj
 0001:00071341       ?RequestLicKey@XClassFactory@COleObjectFactory@@UAGJKPAPAG@Z 5f572341 f olefact.obj
 0001:00071477       ?CreateInstanceLic@XClassFactory@COleObjectFactory@@UAGJPAUIUnknown@@0ABU_GUID@@PAGPAPAX@Z 5f572477 f olefact.obj
 0001:00071721       ?AssertValid@COleObjectFactory@@UBEXXZ 5f572721 f olefact.obj
 0001:000717f4       ?Dump@COleObjectFactory@@UBEXAAVCDumpContext@@@Z 5f5727f4 f olefact.obj
 0001:00071950       ??0COleCntrFrameWnd@@QAE@PAVCOleIPFrameWnd@@@Z 5f572950 f oleipfrm.obj
 0001:000719d5       ??1COleCntrFrameWnd@@UAE@XZ 5f5729d5 f oleipfrm.obj
 0001:00071a4d       ?RecalcLayout@COleCntrFrameWnd@@UAEXH@Z 5f572a4d f oleipfrm.obj
 0001:00071b9b       ?OnIdleUpdateCmdUI@COleCntrFrameWnd@@QAEXXZ 5f572b9b f oleipfrm.obj
 0001:00071c55       ?OnCmdMsg@COleCntrFrameWnd@@UAEHIHPAXPAUAFX_CMDHANDLERINFO@@@Z 5f572c55 f oleipfrm.obj
 0001:00071caa       ?PostNcDestroy@COleCntrFrameWnd@@MAEXXZ 5f572caa f oleipfrm.obj
 0001:00071cc0       ?AssertValid@COleCntrFrameWnd@@UBEXXZ 5f572cc0 f oleipfrm.obj
 0001:00071d0d       ?_GetBaseMessageMap@COleIPFrameWnd@@KGPBUAFX_MSGMAP@@XZ 5f572d0d f oleipfrm.obj
 0001:00071d22       ?GetMessageMap@COleIPFrameWnd@@MBEPBUAFX_MSGMAP@@XZ 5f572d22 f oleipfrm.obj
 0001:00071d3d       ??0COleIPFrameWnd@@QAE@XZ  5f572d3d f oleipfrm.obj
 0001:00071e8e       ??1COleIPFrameWnd@@UAE@XZ  5f572e8e f oleipfrm.obj
 0001:00071fef       ?OnCreate@COleIPFrameWnd@@IAEHPAUtagCREATESTRUCTW@@@Z 5f572fef f oleipfrm.obj
 0001:0007207b       ?OnDestroy@COleIPFrameWnd@@IAEXXZ 5f57307b f oleipfrm.obj
 0001:00072133       ?OnCreateControlBars@COleIPFrameWnd@@UAEHPAVCWnd@@0@Z 5f573133 f oleipfrm.obj
 0001:00072172       ?OnCreateControlBars@COleIPFrameWnd@@UAEHPAVCFrameWnd@@0@Z 5f573172 f oleipfrm.obj
 0001:000721a0       ?OnIdleUpdateCmdUI@COleIPFrameWnd@@IAEXXZ 5f5731a0 f oleipfrm.obj
 0001:000721f2       ?OnWindowPosChanging@COleIPFrameWnd@@IAEXPAUtagWINDOWPOS@@@Z 5f5731f2 f oleipfrm.obj
 0001:0007224c       ?OnSetMessageString@COleIPFrameWnd@@UAEJIJ@Z 5f57324c f oleipfrm.obj
 0001:0007238f       ?LoadFrame@COleIPFrameWnd@@UAEHIKPAVCWnd@@PAUCCreateContext@@@Z 5f57338f f oleipfrm.obj
 0001:0007248e       ?OnSize@COleIPFrameWnd@@IAEXIHH@Z 5f57348e f oleipfrm.obj
 0001:000724a6       ?OnResizeChild@COleIPFrameWnd@@IAEJIJ@Z 5f5734a6 f oleipfrm.obj
 0001:0007261c       ?OnRequestPositionChange@COleIPFrameWnd@@MAEXPBUtagRECT@@@Z 5f57361c f oleipfrm.obj
 0001:000726a6       ?OnRecalcParent@COleIPFrameWnd@@IAEJIJ@Z 5f5736a6 f oleipfrm.obj
 0001:0007270e       ?RecalcLayout@COleIPFrameWnd@@UAEXH@Z 5f57370e f oleipfrm.obj
 0001:00072938       ?RepositionFrame@COleIPFrameWnd@@UAEXPBUtagRECT@@0@Z 5f573938 f oleipfrm.obj
 0001:00072a0d       ?PreTranslateMessage@COleIPFrameWnd@@UAEHPAUtagMSG@@@Z 5f573a0d f oleipfrm.obj
 0001:00072aee       ?OnUpdateControlBarMenu@COleIPFrameWnd@@IAEXPAVCCmdUI@@@Z 5f573aee f oleipfrm.obj
 0001:00072bbe       ?OnBarCheck@COleIPFrameWnd@@IAEHI@Z 5f573bbe f oleipfrm.obj
 0001:00072c89       ?OnContextHelp@COleIPFrameWnd@@IAEXXZ 5f573c89 f oleipfrm.obj
 0001:00072dfa       ?GetInPlaceMenu@COleIPFrameWnd@@MAEPAUHMENU__@@XZ 5f573dfa f oleipfrm.obj
 0001:00072e58       ?BuildSharedMenu@COleIPFrameWnd@@MAEHXZ 5f573e58 f oleipfrm.obj
 0001:00073023       ?DestroySharedMenu@COleIPFrameWnd@@MAEXXZ 5f574023 f oleipfrm.obj
 0001:0007317f       ?AssertValid@COleIPFrameWnd@@UBEXXZ 5f57417f f oleipfrm.obj
 0001:000731dd       ?Dump@COleIPFrameWnd@@UBEXAAVCDumpContext@@@Z 5f5741dd f oleipfrm.obj
 0001:000732e0       ??_GCOleCntrFrameWnd@@UAEPAXI@Z 5f5742e0 f oleipfrm.obj
 0001:000732e0       ??_ECOleCntrFrameWnd@@UAEPAXI@Z 5f5742e0 f oleipfrm.obj
 0001:00073320       ??0COleLinkingDoc@@QAE@XZ  5f574320 f olelink.obj
 0001:0007342a       ??1COleLinkingDoc@@UAE@XZ  5f57442a f olelink.obj
 0001:00073523       ?GetMoniker@COleLinkingDoc@@UAEPAUIMoniker@@W4tagOLEGETMONIKER@@@Z 5f574523 f olelink.obj
 0001:0007359e       ?Register@COleLinkingDoc@@QAEHPAVCOleObjectFactory@@PBG@Z 5f57459e f olelink.obj
 0001:000738c9       ?Revoke@COleLinkingDoc@@QAEXXZ 5f5748c9 f olelink.obj
 0001:00073996       ?OnNewDocument@COleLinkingDoc@@UAEHXZ 5f574996 f olelink.obj
 0001:000739fc       ?OnOpenDocument@COleLinkingDoc@@UAEHPBG@Z 5f5749fc f olelink.obj
 0001:00073a8b       ?OnSaveDocument@COleLinkingDoc@@UAEHPBG@Z 5f574a8b f olelink.obj
 0001:00073b22       ?OnCloseDocument@COleLinkingDoc@@UAEXXZ 5f574b22 f olelink.obj
 0001:00073bea       ?UpdateVisibleLock@COleLinkingDoc@@IAEXHH@Z 5f574bea f olelink.obj
 0001:00073c53       ?OnShowViews@COleLinkingDoc@@MAEXH@Z 5f574c53 f olelink.obj
 0001:00073c83       ?SaveToStorage@COleLinkingDoc@@MAEXPAVCObject@@@Z 5f574c83 f olelink.obj
 0001:00073d28       ?RegisterIfServerAttached@COleLinkingDoc@@MAEHPBGH@Z 5f574d28 f olelink.obj
 0001:00073e3b       ?GetContainer@COleLinkingDoc@@UAEPAUIOleItemContainer@@XZ 5f574e3b f olelink.obj
 0001:00073e78       ?OnGetLinkedItem@COleLinkingDoc@@MAEPAVCOleServerItem@@PBG@Z 5f574e78 f olelink.obj
 0001:00073ea5       ?OnFindEmbeddedItem@COleLinkingDoc@@MAEPAVCOleClientItem@@PBG@Z 5f574ea5 f olelink.obj
 0001:00073f87       ?LockExternal@COleLinkingDoc@@IAEXHH@Z 5f574f87 f olelink.obj
 0001:00073ffc       ?ReportSaveLoadException@COleLinkingDoc@@UAEXPBGPAVCException@@HI@Z 5f574ffc f olelink.obj
 0001:00074053       ?EndDeferErrors@COleLinkingDoc@@QAEJJ@Z 5f575053 f olelink.obj
 0001:0007410b       ?_GetBaseInterfaceMap@COleLinkingDoc@@KGPBUAFX_INTERFACEMAP@@XZ 5f57510b f olelink.obj
 0001:00074120       ?GetInterfaceMap@COleLinkingDoc@@MBEPBUAFX_INTERFACEMAP@@XZ 5f575120 f olelink.obj
 0001:0007413b       ?AddRef@XPersistFile@COleLinkingDoc@@UAGKXZ 5f57513b f olelink.obj
 0001:00074163       ?Release@XPersistFile@COleLinkingDoc@@UAGKXZ 5f575163 f olelink.obj
 0001:0007418b       ?QueryInterface@XPersistFile@COleLinkingDoc@@UAGJABU_GUID@@PAPAX@Z 5f57518b f olelink.obj
 0001:000741bb       ?GetClassID@XPersistFile@COleLinkingDoc@@UAGJPAU_GUID@@@Z 5f5751bb f olelink.obj
 0001:00074255       ?IsDirty@XPersistFile@COleLinkingDoc@@UAGJXZ 5f575255 f olelink.obj
 0001:000742f2       ?Load@XPersistFile@COleLinkingDoc@@UAGJPBGK@Z 5f5752f2 f olelink.obj
 0001:000744ae       ?Save@XPersistFile@COleLinkingDoc@@UAGJPBGH@Z 5f5754ae f olelink.obj
 0001:0007463c       ?SaveCompleted@XPersistFile@COleLinkingDoc@@UAGJPBG@Z 5f57563c f olelink.obj
 0001:00074753       ?GetCurFile@XPersistFile@COleLinkingDoc@@UAGJPAPAG@Z 5f575753 f olelink.obj
 0001:0007480b       ?AddRef@XOleItemContainer@COleLinkingDoc@@UAGKXZ 5f57580b f olelink.obj
 0001:00074833       ?Release@XOleItemContainer@COleLinkingDoc@@UAGKXZ 5f575833 f olelink.obj
 0001:0007485b       ?QueryInterface@XOleItemContainer@COleLinkingDoc@@UAGJABU_GUID@@PAPAX@Z 5f57585b f olelink.obj
 0001:0007488b       ?EnumObjects@XOleItemContainer@COleLinkingDoc@@UAGJKPAPAUIEnumUnknown@@@Z 5f57588b f olelink.obj
 0001:000748ab       ?ParseDisplayName@XOleItemContainer@COleLinkingDoc@@UAGJPAUIBindCtx@@PAGPAKPAPAUIMoniker@@@Z 5f5758ab f olelink.obj
 0001:00074ab7       ?LockContainer@XOleItemContainer@COleLinkingDoc@@UAGJH@Z 5f575ab7 f olelink.obj
 0001:00074ae7       ?GetObjectW@XOleItemContainer@COleLinkingDoc@@UAGJPAGKPAUIBindCtx@@ABU_GUID@@PAPAX@Z 5f575ae7 f olelink.obj
 0001:00074ce3       ?GetObjectStorage@XOleItemContainer@COleLinkingDoc@@UAGJPAGPAUIBindCtx@@ABU_GUID@@PAPAX@Z 5f575ce3 f olelink.obj
 0001:00074e38       ?IsRunning@XOleItemContainer@COleLinkingDoc@@UAGJPAG@Z 5f575e38 f olelink.obj
 0001:00074fda       ?AssertValid@COleLinkingDoc@@UBEXXZ 5f575fda f olelink.obj
 0001:0007501f       ?Dump@COleLinkingDoc@@UBEXAAVCDumpContext@@@Z 5f57601f f olelink.obj
 0001:000750d0       ??_ECOleLinkingDoc@@UAEPAXI@Z 5f5760d0 f olelink.obj
 0001:000750d0       ??_GCOleLinkingDoc@@UAEPAXI@Z 5f5760d0 f olelink.obj
 0001:00075110       ??0XPersistFile@COleLinkingDoc@@QAE@XZ 5f576110 f olelink.obj
 0001:00075140       ??0XOleItemContainer@COleLinkingDoc@@QAE@XZ 5f576140 f olelink.obj
 0001:00075170       ??0IPersistFile@@QAE@XZ    5f576170 f olelink.obj
 0001:000751a0       ??0IOleItemContainer@@QAE@XZ 5f5761a0 f olelink.obj
 0001:000751d0       ??0IPersist@@QAE@XZ        5f5761d0 f olelink.obj
 0001:00075200       ??0IOleContainer@@QAE@XZ   5f576200 f olelink.obj
 0001:00075230       ??0IParseDisplayName@@QAE@XZ 5f576230 f olelink.obj
 0001:00075260       ??0COleTemplateServer@@QAE@XZ 5f576260 f oletsvr.obj
 0001:000752e4       ?Register@COleTemplateServer@@UAEHXZ 5f5762e4 f oletsvr.obj
 0001:00075302       ?ConnectTemplate@COleTemplateServer@@QAEXABU_GUID@@PAVCDocTemplate@@H@Z 5f576302 f oletsvr.obj
 0001:000753bb       ?UpdateRegistry@COleTemplateServer@@QAEXW4OLE_APPTYPE@@PAPBG1@Z 5f5763bb f oletsvr.obj
 0001:0007567d       ?OnCreateObject@COleTemplateServer@@MAEPAVCCmdTarget@@XZ 5f57667d f oletsvr.obj
 0001:00075740       ?AfxDllGetClassObject@@YGJABU_GUID@@0PAPAX@Z 5f576740 f oledll.obj
 0001:00075901       ?AfxDllCanUnloadNow@@YGJXZ 5f576901 f oledll.obj
 0001:00075a30       ??0COleDropSource@@QAE@XZ  5f576a30 f oledrop1.obj
 0001:00075b39       ?QueryContinueDrag@COleDropSource@@UAEJHK@Z 5f576b39 f oledrop1.obj
 0001:00075bc0       ?GiveFeedback@COleDropSource@@UAEJK@Z 5f576bc0 f oledrop1.obj
 0001:00075c01       ?OnBeginDrag@COleDropSource@@UAEHPAVCWnd@@@Z 5f576c01 f oledrop1.obj
 0001:00075dba       ?_GetBaseInterfaceMap@COleDropSource@@KGPBUAFX_INTERFACEMAP@@XZ 5f576dba f oledrop1.obj
 0001:00075dcf       ?GetInterfaceMap@COleDropSource@@MBEPBUAFX_INTERFACEMAP@@XZ 5f576dcf f oledrop1.obj
 0001:00075dea       ?AddRef@XDropSource@COleDropSource@@UAGKXZ 5f576dea f oledrop1.obj
 0001:00075e10       ?Release@XDropSource@COleDropSource@@UAGKXZ 5f576e10 f oledrop1.obj
 0001:00075e36       ?QueryInterface@XDropSource@COleDropSource@@UAGJABU_GUID@@PAPAX@Z 5f576e36 f oledrop1.obj
 0001:00075e64       ?QueryContinueDrag@XDropSource@COleDropSource@@UAGJHK@Z 5f576e64 f oledrop1.obj
 0001:00075e95       ?GiveFeedback@XDropSource@COleDropSource@@UAGJK@Z 5f576e95 f oledrop1.obj
 0001:00075f2f       ?DoDragDrop@COleDataSource@@QAEKKPBUtagRECT@@PAVCOleDropSource@@@Z 5f576f2f f oledrop1.obj
 0001:0007614e       ?Dump@COleDropSource@@UBEXAAVCDumpContext@@@Z 5f57714e f oledrop1.obj
 0001:00076210       ??0XDropSource@COleDropSource@@QAE@XZ 5f577210 f oledrop1.obj
 0001:00076240       ??0IDropSource@@QAE@XZ     5f577240 f oledrop1.obj
 0001:00076270       ??0COleDropTarget@@QAE@XZ  5f577270 f oledrop2.obj
 0001:00076382       ??1COleDropTarget@@UAE@XZ  5f577382 f oledrop2.obj
 0001:00076433       ?Register@COleDropTarget@@QAEHPAVCWnd@@@Z 5f577433 f oledrop2.obj
 0001:0007654d       ?Revoke@COleDropTarget@@UAEXXZ 5f57754d f oledrop2.obj
 0001:00076614       ?OnDragScroll@COleDropTarget@@UAEKPAVCWnd@@KVCPoint@@@Z 5f577614 f oledrop2.obj
 0001:000769e9       ?OnDragEnter@COleDropTarget@@UAEKPAVCWnd@@PAVCOleDataObject@@KVCPoint@@@Z 5f5779e9 f oledrop2.obj
 0001:00076a68       ?OnDragOver@COleDropTarget@@UAEKPAVCWnd@@PAVCOleDataObject@@KVCPoint@@@Z 5f577a68 f oledrop2.obj
 0001:00076ae7       ?OnDrop@COleDropTarget@@UAEHPAVCWnd@@PAVCOleDataObject@@KVCPoint@@@Z 5f577ae7 f oledrop2.obj
 0001:00076b66       ?OnDropEx@COleDropTarget@@UAEKPAVCWnd@@PAVCOleDataObject@@KKVCPoint@@@Z 5f577b66 f oledrop2.obj
 0001:00076bec       ?OnDragLeave@COleDropTarget@@UAEXPAVCWnd@@@Z 5f577bec f oledrop2.obj
 0001:00076c59       ?_GetBaseInterfaceMap@COleDropTarget@@KGPBUAFX_INTERFACEMAP@@XZ 5f577c59 f oledrop2.obj
 0001:00076c6e       ?GetInterfaceMap@COleDropTarget@@MBEPBUAFX_INTERFACEMAP@@XZ 5f577c6e f oledrop2.obj
 0001:00076c89       ?AddRef@XDropTarget@COleDropTarget@@UAGKXZ 5f577c89 f oledrop2.obj
 0001:00076caf       ?Release@XDropTarget@COleDropTarget@@UAGKXZ 5f577caf f oledrop2.obj
 0001:00076cd5       ?QueryInterface@XDropTarget@COleDropTarget@@UAGJABU_GUID@@PAPAX@Z 5f577cd5 f oledrop2.obj
 0001:00076d03       ?DragEnter@XDropTarget@COleDropTarget@@UAGJPAUIDataObject@@KU_POINTL@@PAK@Z 5f577d03 f oledrop2.obj
 0001:00076ff8       ?DragOver@XDropTarget@COleDropTarget@@UAGJKU_POINTL@@PAK@Z 5f577ff8 f oledrop2.obj
 0001:000771f8       ?DragLeave@XDropTarget@COleDropTarget@@UAGJXZ 5f5781f8 f oledrop2.obj
 0001:0007731a       ?Drop@XDropTarget@COleDropTarget@@UAGJPAUIDataObject@@KU_POINTL@@PAK@Z 5f57831a f oledrop2.obj
 0001:000775a8       ?AssertValid@COleDropTarget@@UBEXXZ 5f5785a8 f oledrop2.obj
 0001:000775f3       ?Dump@COleDropTarget@@UBEXAAVCDumpContext@@@Z 5f5785f3 f oledrop2.obj
 0001:00077690       ??0XDropTarget@COleDropTarget@@QAE@XZ 5f578690 f oledrop2.obj
 0001:000776c0       ??0IDropTarget@@QAE@XZ     5f5786c0 f oledrop2.obj
 0001:000776f0       ?BeginBusyState@COleMessageFilter@@UAEXXZ 5f5786f0 f olemsgf.obj
 0001:0007771c       ?EndBusyState@COleMessageFilter@@UAEXXZ 5f57871c f olemsgf.obj
 0001:00077755       ?OnMessagePending@COleMessageFilter@@UAEHPBUtagMSG@@@Z 5f578755 f olemsgf.obj
 0001:000777a7       ?IsSignificantMessage@COleMessageFilter@@UAEHPAUtagMSG@@@Z 5f5787a7 f olemsgf.obj
 0001:000778a7       ?OnBusyDialog@COleMessageFilter@@UAEHPAUHTASK__@@@Z 5f5788a7 f olemsgf.obj
 0001:000779b2       ?OnNotRespondingDialog@COleMessageFilter@@UAEHPAUHTASK__@@@Z 5f5789b2 f olemsgf.obj
 0001:00077abd       ?_GetBaseInterfaceMap@COleMessageFilter@@KGPBUAFX_INTERFACEMAP@@XZ 5f578abd f olemsgf.obj
 0001:00077ad2       ?GetInterfaceMap@COleMessageFilter@@MBEPBUAFX_INTERFACEMAP@@XZ 5f578ad2 f olemsgf.obj
 0001:00077aed       ?AddRef@XMessageFilter@COleMessageFilter@@UAGKXZ 5f578aed f olemsgf.obj
 0001:00077b13       ?Release@XMessageFilter@COleMessageFilter@@UAGKXZ 5f578b13 f olemsgf.obj
 0001:00077b39       ?QueryInterface@XMessageFilter@COleMessageFilter@@UAGJABU_GUID@@PAPAX@Z 5f578b39 f olemsgf.obj
 0001:00077b67       ?HandleInComingCall@XMessageFilter@COleMessageFilter@@UAGKKPAUHTASK__@@KPAUtagINTERFACEINFO@@@Z 5f578b67 f olemsgf.obj
 0001:00077c04       ?RetryRejectedCall@XMessageFilter@COleMessageFilter@@UAGKPAUHTASK__@@KK@Z 5f578c04 f olemsgf.obj
 0001:00077d62       ?MessagePending@XMessageFilter@COleMessageFilter@@UAGKPAUHTASK__@@KK@Z 5f578d62 f olemsgf.obj
 0001:00077f0a       ?AssertValid@COleMessageFilter@@UBEXXZ 5f578f0a f olemsgf.obj
 0001:00077f28       ?Dump@COleMessageFilter@@UBEXAAVCDumpContext@@@Z 5f578f28 f olemsgf.obj
 0001:00078040       ??0COleServerDoc@@QAE@XZ   5f579040 f olesvr1.obj
 0001:0007818b       ??1COleServerDoc@@UAE@XZ   5f57918b f olesvr1.obj
 0001:00078345       ?DeleteContents@COleServerDoc@@UAEXXZ 5f579345 f olesvr1.obj
 0001:00078435       ?GetEmbeddedItem@COleServerDoc@@QAEPAVCOleServerItem@@XZ 5f579435 f olesvr1.obj
 0001:0007849f       ?GetDocObjectServer@COleServerDoc@@MAEPAVCDocObjectServer@@PAUIOleDocumentSite@@@Z 5f57949f f olesvr1.obj
 0001:000784b9       ?OnExecOleCmd@COleServerDoc@@MAEJPBU_GUID@@KKPAUtagVARIANT@@1@Z 5f5794b9 f olesvr1.obj
 0001:000784d6       ?GetInterfaceHook@COleServerDoc@@MAEPAUIUnknown@@PBX@Z 5f5794d6 f olesvr1.obj
 0001:000785a7       ?ActivateDocObject@COleServerDoc@@QAEXXZ 5f5795a7 f olesvr1.obj
 0001:000785db       ?NotifyRename@COleServerDoc@@QAEXPBG@Z 5f5795db f olesvr1.obj
 0001:000786c6       ?NotifyAllItems@COleServerDoc@@IAEXW4OLE_NOTIFICATION@@K@Z 5f5796c6 f olesvr1.obj
 0001:00078730       ?UpdateAllItems@COleServerDoc@@QAEXPAVCOleServerItem@@JPAVCObject@@W4tagDVASPECT@@@Z 5f579730 f olesvr1.obj
 0001:000787b1       ?OnUpdate@COleServerItem@@UAEXPAV1@JPAVCObject@@W4tagDVASPECT@@@Z 5f5797b1 f olesvr1.obj
 0001:000787d5       ?GetZoomFactor@COleServerDoc@@QBEHPAUtagSIZE@@0PBUtagRECT@@@Z 5f5797d5 f olesvr1.obj
 0001:00078a9d       ?GetItemPosition@COleServerDoc@@QBEXPAUtagRECT@@@Z 5f579a9d f olesvr1.obj
 0001:00078b5d       ?GetItemClipRect@COleServerDoc@@QBEXPAUtagRECT@@@Z 5f579b5d f olesvr1.obj
 0001:00078c1d       ?OnGetLinkedItem@COleServerDoc@@UAEPAVCOleServerItem@@PBG@Z 5f579c1d f olesvr1.obj
 0001:00078cff       ?OnClose@COleServerDoc@@MAEXW4tagOLECLOSE@@@Z 5f579cff f olesvr1.obj
 0001:00078ec0       ?SaveModifiedPrompt@COleServerDoc@@IAEHXZ 5f579ec0 f olesvr1.obj
 0001:0007902b       ?CanCloseFrame@COleServerDoc@@UAEHPAVCFrameWnd@@@Z 5f57a02b f olesvr1.obj
 0001:0007907d       ?GetFileTypeString@COleServerDoc@@MAEHAAVCString@@@Z 5f57a07d f olesvr1.obj
 0001:000790f1       ?OnSetHostNames@COleServerDoc@@MAEXPBG0@Z 5f57a0f1 f olesvr1.obj
 0001:00079299       ?SaveEmbedding@COleServerDoc@@QAEXXZ 5f57a299 f olesvr1.obj
 0001:00079321       ?OnUpdateDocument@COleServerDoc@@UAEHXZ 5f57a321 f olesvr1.obj
 0001:00079415       ?GetMoniker@COleServerDoc@@UAEPAUIMoniker@@W4tagOLEGETMONIKER@@@Z 5f57a415 f olesvr1.obj
 0001:0007948d       ?SaveModified@COleServerDoc@@MAEHXZ 5f57a48d f olesvr1.obj
 0001:00079504       ?GetDefaultMenu@COleServerDoc@@MAEPAUHMENU__@@XZ 5f57a504 f olesvr1.obj
 0001:00079599       ?GetDefaultAccelerator@COleServerDoc@@MAEPAUHACCEL__@@XZ 5f57a599 f olesvr1.obj
 0001:0007962e       ?_GetBaseMessageMap@COleServerDoc@@KGPBUAFX_MSGMAP@@XZ 5f57a62e f olesvr1.obj
 0001:00079643       ?GetMessageMap@COleServerDoc@@MBEPBUAFX_MSGMAP@@XZ 5f57a643 f olesvr1.obj
 0001:0007965e       ?OnFileUpdate@COleServerDoc@@IAEXXZ 5f57a65e f olesvr1.obj
 0001:000796cb       ?OnFileSaveCopyAs@COleServerDoc@@IAEXXZ 5f57a6cb f olesvr1.obj
 0001:00079809       ?UpdateUsingHostObj@COleServerDoc@@IAEXIPAVCCmdUI@@@Z 5f57a809 f olesvr1.obj
 0001:000798f7       ?OnUpdateFileExit@COleServerDoc@@IAEXPAVCCmdUI@@@Z 5f57a8f7 f olesvr1.obj
 0001:00079955       ?OnUpdateFileUpdate@COleServerDoc@@IAEXPAVCCmdUI@@@Z 5f57a955 f olesvr1.obj
 0001:000799b3       ?OnSaveDocument@COleServerDoc@@UAEHPBG@Z 5f57a9b3 f olesvr1.obj
 0001:00079aa3       ?OnCloseDocument@COleServerDoc@@UAEXXZ 5f57aaa3 f olesvr1.obj
 0001:00079c44       ?OnShowDocument@COleServerDoc@@MAEXH@Z 5f57ac44 f olesvr1.obj
 0001:0007a12a       ?OnNewEmbedding@COleServerDoc@@MAEXPAUIStorage@@@Z 5f57b12a f olesvr1.obj
 0001:0007a29a       ?OnOpenEmbedding@COleServerDoc@@MAEXPAUIStorage@@@Z 5f57b29a f olesvr1.obj
 0001:0007a40c       ?OnSaveEmbedding@COleServerDoc@@MAEXPAUIStorage@@@Z 5f57b40c f olesvr1.obj
 0001:0007a564       ?ActivateInPlace@COleServerDoc@@QAEHXZ 5f57b564 f olesvr1.obj
 0001:0007ae4c       ?CreateInPlaceFrame@COleServerDoc@@MAEPAVCOleIPFrameWnd@@PAVCWnd@@@Z 5f57be4c f olesvr1.obj
 0001:0007b008       ?DestroyInPlaceFrame@COleServerDoc@@MAEXPAVCOleIPFrameWnd@@@Z 5f57c008 f olesvr1.obj
 0001:0007b193       ?ConnectView@COleServerDoc@@IAEXPAVCWnd@@PAVCView@@@Z 5f57c193 f olesvr1.obj
 0001:0007b23a       ?OnFrameWindowActivate@COleServerDoc@@MAEXH@Z 5f57c23a f olesvr1.obj
 0001:0007b322       ?OnDocWindowActivate@COleServerDoc@@MAEXH@Z 5f57c322 f olesvr1.obj
 0001:0007b51c       ?OnShowControlBars@COleServerDoc@@MAEXPAVCFrameWnd@@H@Z 5f57c51c f olesvr1.obj
 0001:0007b65a       ?OnResizeBorder@COleServerDoc@@UAEXPBUtagRECT@@PAUIOleInPlaceUIWindow@@H@Z 5f57c65a f olesvr1.obj
 0001:0007b926       ?OnDeactivate@COleServerDoc@@UAEXXZ 5f57c926 f olesvr1.obj
 0001:0007bb42       ?OnDeactivateUI@COleServerDoc@@UAEXH@Z 5f57cb42 f olesvr1.obj
 0001:0007bd7f       ?OnSetItemRects@COleServerDoc@@MAEXPBUtagRECT@@0@Z 5f57cd7f f olesvr1.obj
 0001:0007be54       ?OnReactivateAndUndo@COleServerDoc@@MAEHXZ 5f57ce54 f olesvr1.obj
 0001:0007be6c       ?RequestPositionChange@COleServerDoc@@QAEXPBUtagRECT@@@Z 5f57ce6c f olesvr1.obj
 0001:0007bf29       ?ScrollContainerBy@COleServerDoc@@QAEHVCSize@@@Z 5f57cf29 f olesvr1.obj
 0001:0007bfe2       ?DeactivateAndUndo@COleServerDoc@@QAEHXZ 5f57cfe2 f olesvr1.obj
 0001:0007c091       ?DiscardUndoState@COleServerDoc@@QAEHXZ 5f57d091 f olesvr1.obj
 0001:0007c140       ?_GetBaseInterfaceMap@COleServerDoc@@KGPBUAFX_INTERFACEMAP@@XZ 5f57d140 f olesvr1.obj
 0001:0007c155       ?GetInterfaceMap@COleServerDoc@@MBEPBUAFX_INTERFACEMAP@@XZ 5f57d155 f olesvr1.obj
 0001:0007c170       ?AddRef@XPersistStorage@COleServerDoc@@UAGKXZ 5f57d170 f olesvr1.obj
 0001:0007c198       ?Release@XPersistStorage@COleServerDoc@@UAGKXZ 5f57d198 f olesvr1.obj
 0001:0007c1c0       ?QueryInterface@XPersistStorage@COleServerDoc@@UAGJABU_GUID@@PAPAX@Z 5f57d1c0 f olesvr1.obj
 0001:0007c1f0       ?GetClassID@XPersistStorage@COleServerDoc@@UAGJPAU_GUID@@@Z 5f57d1f0 f olesvr1.obj
 0001:0007c230       ?IsDirty@XPersistStorage@COleServerDoc@@UAGJXZ 5f57d230 f olesvr1.obj
 0001:0007c26c       ?InitNew@XPersistStorage@COleServerDoc@@UAGJPAUIStorage@@@Z 5f57d26c f olesvr1.obj
 0001:0007c386       ?Load@XPersistStorage@COleServerDoc@@UAGJPAUIStorage@@@Z 5f57d386 f olesvr1.obj
 0001:0007c4b7       ?Save@XPersistStorage@COleServerDoc@@UAGJPAUIStorage@@H@Z 5f57d4b7 f olesvr1.obj
 0001:0007c68d       ?SaveCompleted@XPersistStorage@COleServerDoc@@UAGJPAUIStorage@@@Z 5f57d68d f olesvr1.obj
 0001:0007c7b3       ?HandsOffStorage@XPersistStorage@COleServerDoc@@UAGJXZ 5f57d7b3 f olesvr1.obj
 0001:0007c8c0       ?AddRef@XOleObject@COleServerDoc@@UAGKXZ 5f57d8c0 f olesvr1.obj
 0001:0007c8e8       ?Release@XOleObject@COleServerDoc@@UAGKXZ 5f57d8e8 f olesvr1.obj
 0001:0007c910       ?QueryInterface@XOleObject@COleServerDoc@@UAGJABU_GUID@@PAPAX@Z 5f57d910 f olesvr1.obj
 0001:0007c940       ?SetClientSite@XOleObject@COleServerDoc@@UAGJPAUIOleClientSite@@@Z 5f57d940 f olesvr1.obj
 0001:0007ca6d       ?GetClientSite@XOleObject@COleServerDoc@@UAGJPAPAUIOleClientSite@@@Z 5f57da6d f olesvr1.obj
 0001:0007cad8       ?SetHostNames@XOleObject@COleServerDoc@@UAGJPBG0@Z 5f57dad8 f olesvr1.obj
 0001:0007cbea       ?Close@XOleObject@COleServerDoc@@UAGJK@Z 5f57dbea f olesvr1.obj
 0001:0007cd01       ?SetMoniker@XOleObject@COleServerDoc@@UAGJKPAUIMoniker@@@Z 5f57dd01 f olesvr1.obj
 0001:0007cdf5       ?GetMoniker@XOleObject@COleServerDoc@@UAGJKKPAPAUIMoniker@@@Z 5f57ddf5 f olesvr1.obj
 0001:0007ce44       ?InitFromData@XOleObject@COleServerDoc@@UAGJPAUIDataObject@@HK@Z 5f57de44 f olesvr1.obj
 0001:0007cfda       ?GetClipboardData@XOleObject@COleServerDoc@@UAGJKPAPAUIDataObject@@@Z 5f57dfda f olesvr1.obj
 0001:0007d18f       ?DoVerb@XOleObject@COleServerDoc@@UAGJJPAUtagMSG@@PAUIOleClientSite@@JPAUHWND__@@PBUtagRECT@@@Z 5f57e18f f olesvr1.obj
 0001:0007d2ee       ?EnumVerbs@XOleObject@COleServerDoc@@UAGJPAPAUIEnumOLEVERB@@@Z 5f57e2ee f olesvr1.obj
 0001:0007d367       ?Update@XOleObject@COleServerDoc@@UAGJXZ 5f57e367 f olesvr1.obj
 0001:0007d4b5       ?IsUpToDate@XOleObject@COleServerDoc@@UAGJXZ 5f57e4b5 f olesvr1.obj
 0001:0007d614       ?GetUserClassID@XOleObject@COleServerDoc@@UAGJPAU_GUID@@@Z 5f57e614 f olesvr1.obj
 0001:0007d654       ?GetUserType@XOleObject@COleServerDoc@@UAGJKPAPAG@Z 5f57e654 f olesvr1.obj
 0001:0007d6d1       ?SetExtent@XOleObject@COleServerDoc@@UAGJKPAUtagSIZE@@@Z 5f57e6d1 f olesvr1.obj
 0001:0007d848       ?GetExtent@XOleObject@COleServerDoc@@UAGJKPAUtagSIZE@@@Z 5f57e848 f olesvr1.obj
 0001:0007d9d5       ?Advise@XOleObject@COleServerDoc@@UAGJPAUIAdviseSink@@PAK@Z 5f57e9d5 f olesvr1.obj
 0001:0007db43       ?Unadvise@XOleObject@COleServerDoc@@UAGJK@Z 5f57eb43 f olesvr1.obj
 0001:0007dcad       ?EnumAdvise@XOleObject@COleServerDoc@@UAGJPAPAUIEnumSTATDATA@@@Z 5f57ecad f olesvr1.obj
 0001:0007de17       ?GetMiscStatus@XOleObject@COleServerDoc@@UAGJKPAK@Z 5f57ee17 f olesvr1.obj
 0001:0007de94       ?SetColorScheme@XOleObject@COleServerDoc@@UAGJPAUtagLOGPALETTE@@@Z 5f57ee94 f olesvr1.obj
 0001:0007dfe6       ?AddRef@XDataObject@COleServerDoc@@UAGKXZ 5f57efe6 f olesvr1.obj
 0001:0007e00e       ?Release@XDataObject@COleServerDoc@@UAGKXZ 5f57f00e f olesvr1.obj
 0001:0007e036       ?QueryInterface@XDataObject@COleServerDoc@@UAGJABU_GUID@@PAPAX@Z 5f57f036 f olesvr1.obj
 0001:0007e066       ?GetData@XDataObject@COleServerDoc@@UAGJPAUtagFORMATETC@@PAUtagSTGMEDIUM@@@Z 5f57f066 f olesvr1.obj
 0001:0007e1d4       ?GetDataHere@XDataObject@COleServerDoc@@UAGJPAUtagFORMATETC@@PAUtagSTGMEDIUM@@@Z 5f57f1d4 f olesvr1.obj
 0001:0007e342       ?QueryGetData@XDataObject@COleServerDoc@@UAGJPAUtagFORMATETC@@@Z 5f57f342 f olesvr1.obj
 0001:0007e4ac       ?GetCanonicalFormatEtc@XDataObject@COleServerDoc@@UAGJPAUtagFORMATETC@@0@Z 5f57f4ac f olesvr1.obj
 0001:0007e4c3       ?SetData@XDataObject@COleServerDoc@@UAGJPAUtagFORMATETC@@PAUtagSTGMEDIUM@@H@Z 5f57f4c3 f olesvr1.obj
 0001:0007e635       ?EnumFormatEtc@XDataObject@COleServerDoc@@UAGJKPAPAUIEnumFORMATETC@@@Z 5f57f635 f olesvr1.obj
 0001:0007e7a3       ?DAdvise@XDataObject@COleServerDoc@@UAGJPAUtagFORMATETC@@KPAUIAdviseSink@@PAK@Z 5f57f7a3 f olesvr1.obj
 0001:0007e919       ?DUnadvise@XDataObject@COleServerDoc@@UAGJK@Z 5f57f919 f olesvr1.obj
 0001:0007ea83       ?EnumDAdvise@XDataObject@COleServerDoc@@UAGJPAPAUIEnumSTATDATA@@@Z 5f57fa83 f olesvr1.obj
 0001:0007ebed       ?AddRef@XOleInPlaceObject@COleServerDoc@@UAGKXZ 5f57fbed f olesvr1.obj
 0001:0007ec15       ?Release@XOleInPlaceObject@COleServerDoc@@UAGKXZ 5f57fc15 f olesvr1.obj
 0001:0007ec3d       ?QueryInterface@XOleInPlaceObject@COleServerDoc@@UAGJABU_GUID@@PAPAX@Z 5f57fc3d f olesvr1.obj
 0001:0007ec6d       ?GetWindow@XOleInPlaceObject@COleServerDoc@@UAGJPAPAUHWND__@@@Z 5f57fc6d f olesvr1.obj
 0001:0007ecad       ?ContextSensitiveHelp@XOleInPlaceObject@COleServerDoc@@UAGJH@Z 5f57fcad f olesvr1.obj
 0001:0007eced       ?InPlaceDeactivate@XOleInPlaceObject@COleServerDoc@@UAGJXZ 5f57fced f olesvr1.obj
 0001:0007ee33       ?UIDeactivate@XOleInPlaceObject@COleServerDoc@@UAGJXZ 5f57fe33 f olesvr1.obj
 0001:0007efa7       ?SetObjectRects@XOleInPlaceObject@COleServerDoc@@UAGJPBUtagRECT@@0@Z 5f57ffa7 f olesvr1.obj
 0001:0007f0ad       ?ReactivateAndUndo@XOleInPlaceObject@COleServerDoc@@UAGJXZ 5f5800ad f olesvr1.obj
 0001:0007f1bf       ?AddRef@XOleInPlaceActiveObject@COleServerDoc@@UAGKXZ 5f5801bf f olesvr1.obj
 0001:0007f1e7       ?Release@XOleInPlaceActiveObject@COleServerDoc@@UAGKXZ 5f5801e7 f olesvr1.obj
 0001:0007f20f       ?QueryInterface@XOleInPlaceActiveObject@COleServerDoc@@UAGJABU_GUID@@PAPAX@Z 5f58020f f olesvr1.obj
 0001:0007f23f       ?GetWindow@XOleInPlaceActiveObject@COleServerDoc@@UAGJPAPAUHWND__@@@Z 5f58023f f olesvr1.obj
 0001:0007f28a       ?ContextSensitiveHelp@XOleInPlaceActiveObject@COleServerDoc@@UAGJH@Z 5f58028a f olesvr1.obj
 0001:0007f3c5       ?TranslateAcceleratorW@XOleInPlaceActiveObject@COleServerDoc@@UAGJPAUtagMSG@@@Z 5f5803c5 f olesvr1.obj
 0001:0007f524       ?OnFrameWindowActivate@XOleInPlaceActiveObject@COleServerDoc@@UAGJH@Z 5f580524 f olesvr1.obj
 0001:0007f626       ?OnDocWindowActivate@XOleInPlaceActiveObject@COleServerDoc@@UAGJH@Z 5f580626 f olesvr1.obj
 0001:0007f728       ?ResizeBorder@XOleInPlaceActiveObject@COleServerDoc@@UAGJPBUtagRECT@@PAUIOleInPlaceUIWindow@@H@Z 5f580728 f olesvr1.obj
 0001:0007f832       ?EnableModeless@XOleInPlaceActiveObject@COleServerDoc@@UAGJH@Z 5f580832 f olesvr1.obj
 0001:0007f9b9       ?AssertValid@COleServerDoc@@UBEXXZ 5f5809b9 f olesvr1.obj
 0001:0007fa25       ?Dump@COleServerDoc@@UBEXAAVCDumpContext@@@Z 5f580a25 f olesvr1.obj
 0001:0007fb5c       ?GetDocument@COleServerItem@@QBEPAVCOleServerDoc@@XZ 5f580b5c f olesvr1.obj
 0001:0007fb8b       ?NotifyChanged@COleServerItem@@QAEXW4tagDVASPECT@@@Z 5f580b8b f olesvr1.obj
 0001:0007fbc4       ?GetItemName@COleServerItem@@QBEABVCString@@XZ 5f580bc4 f olesvr1.obj
 0001:0007fbf3       ?SetItemName@COleServerItem@@QAEXPBG@Z 5f580bf3 f olesvr1.obj
 0001:0007fc7a       ?IsLinkedItem@COleServerItem@@QBEHXZ 5f580c7a f olesvr1.obj
 0001:0007fcc6       ?GetDataSource@COleServerItem@@IAEPAVCOleDataSource@@XZ 5f580cc6 f olesvr1.obj
 0001:0007fcf5       ?NotifyChanged@COleServerDoc@@QAEXXZ 5f580cf5 f olesvr1.obj
 0001:0007fd2a       ?NotifyClosed@COleServerDoc@@QAEXXZ 5f580d2a f olesvr1.obj
 0001:0007fd5f       ?NotifySaved@COleServerDoc@@QAEXXZ 5f580d5f f olesvr1.obj
 0001:0007fd94       ?IsEmbedded@COleServerDoc@@QBEHXZ 5f580d94 f olesvr1.obj
 0001:0007fdc3       ?IsDocObject@COleServerDoc@@QBEHXZ 5f580dc3 f olesvr1.obj
 0001:0007fe08       ?IsInPlaceActive@COleServerDoc@@QBEHXZ 5f580e08 f olesvr1.obj
 0001:0007fe50       ??_GCOleServerDoc@@UAEPAXI@Z 5f580e50 f olesvr1.obj
 0001:0007fe50       ??_ECOleServerDoc@@UAEPAXI@Z 5f580e50 f olesvr1.obj
 0001:0007fe90       ??0XPersistStorage@COleServerDoc@@QAE@XZ 5f580e90 f olesvr1.obj
 0001:0007fec0       ??0XOleObject@COleServerDoc@@QAE@XZ 5f580ec0 f olesvr1.obj
 0001:0007fef0       ??0XDataObject@COleServerDoc@@QAE@XZ 5f580ef0 f olesvr1.obj
 0001:0007ff20       ??0XOleInPlaceObject@COleServerDoc@@QAE@XZ 5f580f20 f olesvr1.obj
 0001:0007ff50       ??0XOleInPlaceActiveObject@COleServerDoc@@QAE@XZ 5f580f50 f olesvr1.obj
 0001:0007ff80       ??0IPersistStorage@@QAE@XZ 5f580f80 f olesvr1.obj
 0001:0007ffb0       ??0IOleObject@@QAE@XZ      5f580fb0 f olesvr1.obj
 0001:0007ffe0       ??0IOleInPlaceObject@@QAE@XZ 5f580fe0 f olesvr1.obj
 0001:00080010       ??0IOleInPlaceActiveObject@@QAE@XZ 5f581010 f olesvr1.obj
 0001:00080040       ??0COleServerItem@@IAE@PAVCOleServerDoc@@H@Z 5f581040 f olesvr2.obj
 0001:000801f3       ??1COleServerItem@@UAE@XZ  5f5811f3 f olesvr2.obj
 0001:0008035f       ?IsBlank@COleServerItem@@MBEHXZ 5f58135f f olesvr2.obj
 0001:0008037a       ?IsConnected@COleServerItem@@QBEHXZ 5f58137a f olesvr2.obj
 0001:000803d8       ?NotifyClient@COleServerItem@@QAEXW4OLE_NOTIFICATION@@K@Z 5f5813d8 f olesvr2.obj
 0001:000804e5       ?GetDataObject@COleServerItem@@QAEPAUIDataObject@@XZ 5f5814e5 f olesvr2.obj
 0001:00080530       ?GetOleObject@COleServerItem@@QAEPAUIOleObject@@XZ 5f581530 f olesvr2.obj
 0001:0008057b       ?OnQueryUpdateItems@COleServerItem@@UAEHXZ 5f58157b f olesvr2.obj
 0001:00080604       ?OnUpdateItems@COleServerItem@@UAEXXZ 5f581604 f olesvr2.obj
 0001:00080693       ?OnSetExtent@COleServerItem@@UAEHW4tagDVASPECT@@ABVCSize@@@Z 5f581693 f olesvr2.obj
 0001:000806e7       ?OnGetExtent@COleServerItem@@UAEHW4tagDVASPECT@@AAVCSize@@@Z 5f5816e7 f olesvr2.obj
 0001:00080754       ?OnDoVerb@COleServerItem@@UAEXJ@Z 5f581754 f olesvr2.obj
 0001:00080810       ?OnDrawEx@COleServerItem@@UAEHPAVCDC@@W4tagDVASPECT@@AAVCSize@@@Z 5f581810 f olesvr2.obj
 0001:0008088c       ?OnShow@COleServerItem@@MAEXXZ 5f58188c f olesvr2.obj
 0001:000808de       ?OnOpen@COleServerItem@@MAEXXZ 5f5818de f olesvr2.obj
 0001:00080944       ?OnHide@COleServerItem@@MAEXXZ 5f581944 f olesvr2.obj
 0001:0008099b       ?GetMetafileData@COleServerItem@@MAEHPAUtagFORMATETC@@PAUtagSTGMEDIUM@@@Z 5f58199b f olesvr2.obj
 0001:00080d86       ?OnSetColorScheme@COleServerItem@@UAEHPBUtagLOGPALETTE@@@Z 5f581d86 f olesvr2.obj
 0001:00080db3       ?OnInitFromData@COleServerItem@@UAEHPAVCOleDataObject@@H@Z 5f581db3 f olesvr2.obj
 0001:00080dea       ?CopyToClipboard@COleServerItem@@QAEXH@Z 5f581dea f olesvr2.obj
 0001:00080e33       ?OnGetClipboardData@COleServerItem@@UAEPAVCOleDataSource@@HPAUtagPOINT@@PAUtagSIZE@@@Z 5f581e33 f olesvr2.obj
 0001:00080f68       ?DoDragDrop@COleServerItem@@QAEKPBUtagRECT@@VCPoint@@HK0@Z 5f581f68 f olesvr2.obj
 0001:0008117a       ?GetClipboardData@COleServerItem@@QAEXPAVCOleDataSource@@HPAUtagPOINT@@PAUtagSIZE@@@Z 5f58217a f olesvr2.obj
 0001:0008129d       ?GetEmbedSourceData@COleServerItem@@QAEXPAUtagSTGMEDIUM@@@Z 5f58229d f olesvr2.obj
 0001:00081527       ?AddOtherClipboardData@COleServerItem@@QAEXPAVCOleDataSource@@@Z 5f582527 f olesvr2.obj
 0001:0008163e       ?GetMoniker@COleServerItem@@QAEPAUIMoniker@@W4tagOLEGETMONIKER@@@Z 5f58263e f olesvr2.obj
 0001:000816a3       ?GetLinkSourceData@COleServerItem@@QAEHPAUtagSTGMEDIUM@@@Z 5f5826a3 f olesvr2.obj
 0001:00081898       ?GetObjectDescriptorData@COleServerItem@@QAEXPAUtagPOINT@@PAUtagSIZE@@PAUtagSTGMEDIUM@@@Z 5f582898 f olesvr2.obj
 0001:00081a32       ?OnSaveEmbedding@COleServerItem@@MAEXPAUIStorage@@@Z 5f582a32 f olesvr2.obj
 0001:00081b50       ?OnRenderGlobalData@COleServerItem@@UAEHPAUtagFORMATETC@@PAPAX@Z 5f582b50 f olesvr2.obj
 0001:00081b7d       ?OnRenderFileData@COleServerItem@@UAEHPAUtagFORMATETC@@PAVCFile@@@Z 5f582b7d f olesvr2.obj
 0001:00081baa       ?OnRenderData@COleServerItem@@UAEHPAUtagFORMATETC@@PAUtagSTGMEDIUM@@@Z 5f582baa f olesvr2.obj
 0001:00081c71       ?OnSetData@COleServerItem@@UAEHPAUtagFORMATETC@@PAUtagSTGMEDIUM@@H@Z 5f582c71 f olesvr2.obj
 0001:00081c9e       ?_GetBaseInterfaceMap@COleServerItem@@KGPBUAFX_INTERFACEMAP@@XZ 5f582c9e f olesvr2.obj
 0001:00081cb3       ?GetInterfaceMap@COleServerItem@@MBEPBUAFX_INTERFACEMAP@@XZ 5f582cb3 f olesvr2.obj
 0001:00081cce       ?AddRef@XOleObject@COleServerItem@@UAGKXZ 5f582cce f olesvr2.obj
 0001:00081cf4       ?Release@XOleObject@COleServerItem@@UAGKXZ 5f582cf4 f olesvr2.obj
 0001:00081d1a       ?QueryInterface@XOleObject@COleServerItem@@UAGJABU_GUID@@PAPAX@Z 5f582d1a f olesvr2.obj
 0001:00081d48       ?OnFinalRelease@COleServerItem@@UAEXXZ 5f582d48 f olesvr2.obj
 0001:00081df7       ?SetClientSite@XOleObject@COleServerItem@@UAGJPAUIOleClientSite@@@Z 5f582df7 f olesvr2.obj
 0001:00081e0e       ?GetClientSite@XOleObject@COleServerItem@@UAGJPAPAUIOleClientSite@@@Z 5f582e0e f olesvr2.obj
 0001:00081e2e       ?SetHostNames@XOleObject@COleServerItem@@UAGJPBG0@Z 5f582e2e f olesvr2.obj
 0001:00081e45       ?Close@XOleObject@COleServerItem@@UAGJK@Z 5f582e45 f olesvr2.obj
 0001:00081e5c       ?SetMoniker@XOleObject@COleServerItem@@UAGJKPAUIMoniker@@@Z 5f582e5c f olesvr2.obj
 0001:00081e73       ?GetMoniker@XOleObject@COleServerItem@@UAGJKKPAPAUIMoniker@@@Z 5f582e73 f olesvr2.obj
 0001:0008215f       ?InitFromData@XOleObject@COleServerItem@@UAGJPAUIDataObject@@HK@Z 5f58315f f olesvr2.obj
 0001:00082176       ?GetClipboardData@XOleObject@COleServerItem@@UAGJKPAPAUIDataObject@@@Z 5f583176 f olesvr2.obj
 0001:000822de       ?DoVerb@XOleObject@COleServerItem@@UAGJJPAUtagMSG@@PAUIOleClientSite@@JPAUHWND__@@PBUtagRECT@@@Z 5f5832de f olesvr2.obj
 0001:000823f0       ?EnumVerbs@XOleObject@COleServerItem@@UAGJPAPAUIEnumOLEVERB@@@Z 5f5833f0 f olesvr2.obj
 0001:00082446       ?Update@XOleObject@COleServerItem@@UAGJXZ 5f583446 f olesvr2.obj
 0001:00082547       ?IsUpToDate@XOleObject@COleServerItem@@UAGJXZ 5f583547 f olesvr2.obj
 0001:00082659       ?GetUserClassID@XOleObject@COleServerItem@@UAGJPAU_GUID@@@Z 5f583659 f olesvr2.obj
 0001:0008269b       ?GetUserType@XOleObject@COleServerItem@@UAGJKPAPAG@Z 5f58369b f olesvr2.obj
 0001:000826f5       ?SetExtent@XOleObject@COleServerItem@@UAGJKPAUtagSIZE@@@Z 5f5836f5 f olesvr2.obj
 0001:0008270c       ?GetExtent@XOleObject@COleServerItem@@UAGJKPAUtagSIZE@@@Z 5f58370c f olesvr2.obj
 0001:0008284c       ?Advise@XOleObject@COleServerItem@@UAGJPAUIAdviseSink@@PAK@Z 5f58384c f olesvr2.obj
 0001:000828de       ?Unadvise@XOleObject@COleServerItem@@UAGJK@Z 5f5838de f olesvr2.obj
 0001:0008294e       ?EnumAdvise@XOleObject@COleServerItem@@UAGJPAPAUIEnumSTATDATA@@@Z 5f58394e f olesvr2.obj
 0001:000829c7       ?GetMiscStatus@XOleObject@COleServerItem@@UAGJKPAK@Z 5f5839c7 f olesvr2.obj
 0001:00082a21       ?SetColorScheme@XOleObject@COleServerItem@@UAGJPAUtagLOGPALETTE@@@Z 5f583a21 f olesvr2.obj
 0001:00082b26       ?AddRef@XDataObject@COleServerItem@@UAGKXZ 5f583b26 f olesvr2.obj
 0001:00082b4c       ?Release@XDataObject@COleServerItem@@UAGKXZ 5f583b4c f olesvr2.obj
 0001:00082b72       ?QueryInterface@XDataObject@COleServerItem@@UAGJABU_GUID@@PAPAX@Z 5f583b72 f olesvr2.obj
 0001:00082ba0       ?GetData@XDataObject@COleServerItem@@UAGJPAUtagFORMATETC@@PAUtagSTGMEDIUM@@@Z 5f583ba0 f olesvr2.obj
 0001:00082bd6       ?GetDataHere@XDataObject@COleServerItem@@UAGJPAUtagFORMATETC@@PAUtagSTGMEDIUM@@@Z 5f583bd6 f olesvr2.obj
 0001:00082c0c       ?QueryGetData@XDataObject@COleServerItem@@UAGJPAUtagFORMATETC@@@Z 5f583c0c f olesvr2.obj
 0001:00082c3e       ?GetCanonicalFormatEtc@XDataObject@COleServerItem@@UAGJPAUtagFORMATETC@@0@Z 5f583c3e f olesvr2.obj
 0001:00082c55       ?SetData@XDataObject@COleServerItem@@UAGJPAUtagFORMATETC@@PAUtagSTGMEDIUM@@H@Z 5f583c55 f olesvr2.obj
 0001:00082c8f       ?EnumFormatEtc@XDataObject@COleServerItem@@UAGJKPAPAUIEnumFORMATETC@@@Z 5f583c8f f olesvr2.obj
 0001:00082cc5       ?DAdvise@XDataObject@COleServerItem@@UAGJPAUtagFORMATETC@@KPAUIAdviseSink@@PAK@Z 5f583cc5 f olesvr2.obj
 0001:00082e09       ?DUnadvise@XDataObject@COleServerItem@@UAGJK@Z 5f583e09 f olesvr2.obj
 0001:00082e79       ?EnumDAdvise@XDataObject@COleServerItem@@UAGJPAPAUIEnumSTATDATA@@@Z 5f583e79 f olesvr2.obj
 0001:00082ef2       ?OnRenderGlobalData@CItemDataSource@COleServerItem@@MAEHPAUtagFORMATETC@@PAPAX@Z 5f583ef2 f olesvr2.obj
 0001:00082f3c       ?OnRenderFileData@CItemDataSource@COleServerItem@@MAEHPAUtagFORMATETC@@PAVCFile@@@Z 5f583f3c f olesvr2.obj
 0001:00082f86       ?OnRenderData@CItemDataSource@COleServerItem@@MAEHPAUtagFORMATETC@@PAUtagSTGMEDIUM@@@Z 5f583f86 f olesvr2.obj
 0001:00082ff2       ?OnSetData@CItemDataSource@COleServerItem@@MAEHPAUtagFORMATETC@@PAUtagSTGMEDIUM@@H@Z 5f583ff2 f olesvr2.obj
 0001:00083040       ?AssertValid@COleServerItem@@UBEXXZ 5f584040 f olesvr2.obj
 0001:00083092       ?Dump@COleServerItem@@UBEXAAVCDumpContext@@@Z 5f584092 f olesvr2.obj
 0001:00083160       ??_ECOleServerItem@@UAEPAXI@Z 5f584160 f olesvr2.obj
 0001:00083160       ??_GCOleServerItem@@UAEPAXI@Z 5f584160 f olesvr2.obj
 0001:000831a0       ??0CItemDataSource@COleServerItem@@QAE@XZ 5f5841a0 f olesvr2.obj
 0001:00083210       ??1CItemDataSource@COleServerItem@@UAE@XZ 5f584210 f olesvr2.obj
 0001:00083270       ??0XOleObject@COleServerItem@@QAE@XZ 5f584270 f olesvr2.obj
 0001:000832a0       ??0XDataObject@COleServerItem@@QAE@XZ 5f5842a0 f olesvr2.obj
 0001:000832d0       ??_GCItemDataSource@COleServerItem@@UAEPAXI@Z 5f5842d0 f olesvr2.obj
 0001:000832d0       ??_ECItemDataSource@COleServerItem@@UAEPAXI@Z 5f5842d0 f olesvr2.obj
 0001:00083310       ?AfxOleRegisterServerClassCompat@@YGHABU_GUID@@PBG11W4OLE_APPTYPE@@PAPBG3@Z 5f584310 f olereg.obj
 0001:00083347       ?AfxOleRegisterServerClass@@YGHABU_GUID@@PBG11W4OLE_APPTYPE@@PAPBG3H1@Z 5f584347 f olereg.obj
 0001:000836d5       ?AfxOleRegisterHelper@@YGHPBQBG0HHPAUHKEY__@@@Z 5f5846d5 f olereg.obj
 0001:000839a0       ??0COleResizeBar@@QAE@XZ   5f5849a0 f olebar.obj
 0001:00083a37       ??1COleResizeBar@@UAE@XZ   5f584a37 f olebar.obj
 0001:00083ab8       ?Create@COleResizeBar@@QAEHPAVCWnd@@KI@Z 5f584ab8 f olebar.obj
 0001:00083b7e       ?_GetBaseMessageMap@COleResizeBar@@KGPBUAFX_MSGMAP@@XZ 5f584b7e f olebar.obj
 0001:00083b93       ?GetMessageMap@COleResizeBar@@MBEPBUAFX_MSGMAP@@XZ 5f584b93 f olebar.obj
 0001:00083bae       ?OnEraseBkgnd@COleResizeBar@@IAEHPAVCDC@@@Z 5f584bae f olebar.obj
 0001:00083bcb       ?OnPaint@COleResizeBar@@IAEXXZ 5f584bcb f olebar.obj
 0001:00083c6e       ?OnSize@COleResizeBar@@IAEXIHH@Z 5f584c6e f olebar.obj
 0001:00083cbd       ?OnSetCursor@COleResizeBar@@IAEHPAVCWnd@@II@Z 5f584cbd f olebar.obj
 0001:00083d3f       ?OnLButtonDown@COleResizeBar@@IAEXIVCPoint@@@Z 5f584d3f f olebar.obj
 0001:00083eaf       ?OnSizeParent@COleResizeBar@@IAEJIJ@Z 5f584eaf f olebar.obj
 0001:00083f17       ?OnUpdateCmdUI@COleResizeBar@@UAEXPAVCFrameWnd@@H@Z 5f584f17 f olebar.obj
 0001:00083f30       ?GetStandardProp@CCmdTarget@@IAEXPBUAFX_DISPMAP_ENTRY@@PAUtagVARIANT@@PAI@Z 5f584f30 f oledisp1.obj
 0001:00084134       ?SetStandardProp@CCmdTarget@@IAEJPBUAFX_DISPMAP_ENTRY@@PAUtagDISPPARAMS@@PAI@Z 5f585134 f oledisp1.obj
 0001:00084468       ?GetEntryCount@CCmdTarget@@KGIPBUAFX_DISPMAP@@@Z 5f585468 f oledisp1.obj
 0001:00084513       ?MemberIDFromName@CCmdTarget@@KGJPBUAFX_DISPMAP@@PBG@Z 5f585513 f oledisp1.obj
 0001:0008461a       ?GetDispEntry@CCmdTarget@@IAGPBUAFX_DISPMAP_ENTRY@@J@Z 5f58561a f oledisp1.obj
 0001:000847f7       ?GetNotSupported@CCmdTarget@@QAEXXZ 5f5857f7 f oledisp1.obj
 0001:0008481e       ?SetNotSupported@CCmdTarget@@QAEXXZ 5f58581e f oledisp1.obj
 0001:00084845       ?EnableAutomation@CCmdTarget@@QAEXXZ 5f585845 f oledisp1.obj
 0001:000848e0       ?GetIDispatch@CCmdTarget@@QAEPAUIDispatch@@H@Z 5f5858e0 f oledisp1.obj
 0001:0008494f       ?FromIDispatch@CCmdTarget@@SGPAV1@PAUIDispatch@@@Z 5f58594f f oledisp1.obj
 0001:000849c2       ?IsResultExpected@CCmdTarget@@QAEHXZ 5f5859c2 f oledisp1.obj
 0001:000849ee       ?Disconnect@COleDispatchImpl@@UAEXXZ 5f5859ee f oledisp1.obj
 0001:00084a15       ?AllocSysString@CString@@QBEPAGXZ 5f585a15 f oledisp1.obj
 0001:00084a58       ?SetSysString@CString@@QBEPAGPAPAG@Z 5f585a58 f oledisp1.obj
 0001:00084aef       ?GetStackSize@CCmdTarget@@KGIPBEG@Z 5f585aef f oledisp1.obj
 0001:00084bf6       ?PushStackArgs@CCmdTarget@@IAEJPAEPBEPAXGPAUtagDISPPARAMS@@PAIPAUtagVARIANT@@@Z 5f585bf6 f oledisp1.obj
 0001:000851fb       ?CallMemberFunc@CCmdTarget@@IAEJPBUAFX_DISPMAP_ENTRY@@GPAUtagVARIANT@@PAUtagDISPPARAMS@@PAI@Z 5f5861fb f oledisp1.obj
 0001:00085866       ?AddRef@COleDispatchImpl@@UAGKXZ 5f586866 f oledisp1.obj
 0001:0008588c       ?Release@COleDispatchImpl@@UAGKXZ 5f58688c f oledisp1.obj
 0001:000858b2       ?QueryInterface@COleDispatchImpl@@UAGJABU_GUID@@PAPAX@Z 5f5868b2 f oledisp1.obj
 0001:000858e0       ?GetTypeInfoCount@COleDispatchImpl@@UAGJPAI@Z 5f5868e0 f oledisp1.obj
 0001:00085910       ?GetTypeInfo@COleDispatchImpl@@UAGJIKPAPAUITypeInfo@@@Z 5f586910 f oledisp1.obj
 0001:000859ae       ?GetIDsOfNames@COleDispatchImpl@@UAGJABU_GUID@@PAPAGIKPAJ@Z 5f5869ae f oledisp1.obj
 0001:00085b74       ?Invoke@COleDispatchImpl@@UAGJJABU_GUID@@KGPAUtagDISPPARAMS@@PAUtagVARIANT@@PAUtagEXCEPINFO@@PAI@Z 5f586b74 f oledisp1.obj
 0001:0008659a       ??1COleDispatchException@@UAE@XZ 5f58759a f oledisp1.obj
 0001:0008664d       ?Process@COleDispatchException@@SGXPAUtagEXCEPINFO@@PBVCException@@@Z 5f58764d f oledisp1.obj
 0001:00086871       ??0COleDispatchException@@QAE@PBGIG@Z 5f587871 f oledisp1.obj
 0001:000869a4       ?GetErrorMessage@COleDispatchException@@UAEHPAGIPAI@Z 5f5879a4 f oledisp1.obj
 0001:00086a25       ?AfxThrowOleDispatchException@@YGXGPBGI@Z 5f587a25 f oledisp1.obj
 0001:00086ab4       ?AfxThrowOleDispatchException@@YGXGII@Z 5f587ab4 f oledisp1.obj
 0001:00086b80       ??0COleDispatchImpl@@QAE@XZ 5f587b80 f oledisp1.obj
 0001:00086bb0       ??4COleDispatchImpl@@QAEAAV0@ABV0@@Z 5f587bb0 f oledisp1.obj
 0001:00086be0       ??0IDispatch@@QAE@XZ       5f587be0 f oledisp1.obj
 0001:00086c10       ??4IDispatch@@QAEAAU0@ABU0@@Z 5f587c10 f oledisp1.obj
 0001:00086c40       ??4IUnknown@@QAEAAU0@ABU0@@Z 5f587c40 f oledisp1.obj
 0001:00086c60       ??_ECOleDispatchException@@UAEPAXI@Z 5f587c60 f oledisp1.obj
 0001:00086c60       ??_GCOleDispatchException@@UAEPAXI@Z 5f587c60 f oledisp1.obj
 0001:00086ca0       ?AfxGetClassIDFromString@@YGJPBGPAU_GUID@@@Z 5f587ca0 f oledisp2.obj
 0001:00086d09       ??0COleDispatchDriver@@QAE@XZ 5f587d09 f oledisp2.obj
 0001:00086d35       ??0COleDispatchDriver@@QAE@PAUIDispatch@@H@Z 5f587d35 f oledisp2.obj
 0001:00086d61       ??0COleDispatchDriver@@QAE@ABV0@@Z 5f587d61 f oledisp2.obj
 0001:00086dcd       ??4COleDispatchDriver@@QAEABV0@ABV0@@Z 5f587dcd f oledisp2.obj
 0001:00086e4f       ?CreateDispatch@COleDispatchDriver@@QAEHABU_GUID@@PAVCOleException@@@Z 5f587e4f f oledisp2.obj
 0001:00086fc7       ?CreateDispatch@COleDispatchDriver@@QAEHPBGPAVCOleException@@@Z 5f587fc7 f oledisp2.obj
 0001:00087044       ?AttachDispatch@COleDispatchDriver@@QAEXPAUIDispatch@@H@Z 5f588044 f oledisp2.obj
 0001:00087097       ?ReleaseDispatch@COleDispatchDriver@@QAEXXZ 5f588097 f oledisp2.obj
 0001:000870df       ?DetachDispatch@COleDispatchDriver@@QAEPAUIDispatch@@XZ 5f5880df f oledisp2.obj
 0001:00087109       ?InvokeHelperV@COleDispatchDriver@@QAEXJGGPAXPBEPAD@Z 5f588109 f oledisp2.obj
 0001:00087a9f       ?InvokeHelper@COleDispatchDriver@@QAAXJGGPAXPBEZZ 5f588a9f f oledisp2.obj
 0001:00087adf       ?GetProperty@COleDispatchDriver@@QBEXJGPAX@Z 5f588adf f oledisp2.obj
 0001:00087b13       ?SetProperty@COleDispatchDriver@@QAAXJGZZ 5f588b13 f oledisp2.obj
 0001:00087ba0       __AfxDispatchCall@12       5f588ba0 f olecall.obj
 0001:00087bc0       ??1COleMessageFilter@@UAE@XZ 5f588bc0 f olemsgf.obj
 0001:00087c40       ?Revoke@COleMessageFilter@@QAEXXZ 5f588c40 f olemsgf.obj
 0001:00087c90       ??1COleObjectFactory@@UAE@XZ 5f588c90 f olefact.obj
 0001:00087db9       ?Revoke@COleObjectFactory@@QAEXXZ 5f588db9 f olefact.obj
 0001:00087e1d       ?RevokeAll@COleObjectFactory@@SGXXZ 5f588e1d f olefact.obj
 0001:00088700       ??_ECOleDataSource@@UAEPAXI@Z 5f589700 f dllole.obj
 0001:00088770       ??_ECOleDropSource@@UAEPAXI@Z 5f589770 f dllole.obj
 0001:000887e0       ??1COleDropSource@@UAE@XZ  5f5897e0 f dllole.obj
 0001:00088840       ??_ECOleResizeBar@@UAEPAXI@Z 5f589840 f dllole.obj
 0001:000888b0       ??_ECOleStreamFile@@UAEPAXI@Z 5f5898b0 f dllole.obj
 0001:00088920       ??_FCOleStreamFile@@QAEXXZ 5f589920 f dllole.obj
 0001:00088940       ??_ECMonikerFile@@UAEPAXI@Z 5f589940 f dllole.obj
 0001:000889b0       ??_ECOleTemplateServer@@UAEPAXI@Z 5f5899b0 f dllole.obj
 0001:00088a20       ??1COleTemplateServer@@UAE@XZ 5f589a20 f dllole.obj
 0001:00088a80       ??_ECOleDropTarget@@UAEPAXI@Z 5f589a80 f dllole.obj
 0001:00088af0       ??_ECOleIPFrameWnd@@UAEPAXI@Z 5f589af0 f dllole.obj
 0001:00088b60       ??_ECOleDocIPFrameWnd@@UAEPAXI@Z 5f589b60 f dllole.obj
 0001:00088bd0       ??_ECAsyncMonikerFile@@UAEPAXI@Z 5f589bd0 f dllole.obj
 0001:00088c40       ??_ECCachedDataPathProperty@@UAEPAXI@Z 5f589c40 f dllole.obj
 0001:00088cb0       ??_FCCachedDataPathProperty@@QAEXXZ 5f589cb0 f dllole.obj
 0001:00088cd0       ??1CCachedDataPathProperty@@UAE@XZ 5f589cd0 f dllole.obj
 0001:00088d50       ??_ECDataPathProperty@@UAEPAXI@Z 5f589d50 f dllole.obj
 0001:00088dc0       ??_FCDataPathProperty@@QAEXXZ 5f589dc0 f dllole.obj
 0001:00088de0       ??1CDataPathProperty@@UAE@XZ 5f589de0 f dllole.obj
 0001:00088e60       ??_ECRichEditView@@UAEPAXI@Z 5f589e60 f dllole.obj
 0001:00088ed0       ??1CRichEditView@@UAE@XZ   5f589ed0 f dllole.obj
 0001:00088f70       ??_ECRichEditCntrItem@@UAEPAXI@Z 5f589f70 f dllole.obj
 0001:00088fe0       ??_FCRichEditCntrItem@@QAEXXZ 5f589fe0 f dllole.obj
 0001:00089010       ??1CCtrlView@@UAE@XZ       5f58a010 f dllole.obj
 0002:00000054       ??_C@_0M@IGON@MFC42UD?4DLL?$AA@ 5f58b054   dllole.obj
 0002:00000060       ??_C@_1DE@GHMD@?$AAR?$AAi?$AAc?$AAh?$AAE?$AAd?$AAi?$AAt?$AA?5?$AAT?$AAe?$AAx?$AAt?$AA?5?$AAa?$AAn?$AAd?$AA?5?$AAO?$AAb@ 5f58b060   oleinit.obj
 0002:00000094       ??_C@_1CC@FCIJ@?$AAR?$AAi?$AAc?$AAh?$AA?5?$AAT?$AAe?$AAx?$AAt?$AA?5?$AAF?$AAo?$AAr?$AAm?$AAa?$AAt?$AA?$AA?$AA?$AA?$AA?$AH?$AA?$AA@ 5f58b094   oleinit.obj
 0002:000000b8       ??_C@_1BE@OIFD@?$AAF?$AAi?$AAl?$AAe?$AAN?$AAa?$AAm?$AAe?$AAW?$AA?$AA?$AA?$AH?$AA?$AA?$AA?$AA?$AA?$AA?6?$AF?$:O?$AA?$BE?$AA?$AB?$CI?$DM?$AB?$DN@ 5f58b0b8   oleinit.obj
 0002:000000cc       ??_C@_1BC@LEEL@?$AAF?$AAi?$AAl?$AAe?$AAN?$AAa?$AAm?$AAe?$AA?$AA?$AA?$AA?$AA?$AH?$AA?$AA?$AA?$AA?$AA?$AA?7?$AF?$:O?$AA?$BC?$AA?$AB@ 5f58b0cc   oleinit.obj
 0002:000000e0       ??_C@_1CO@MJBN@?$AAL?$AAi?$AAn?$AAk?$AA?5?$AAS?$AAo?$AAu?$AAr?$AAc?$AAe?$AA?5?$AAD?$AAe?$AAs?$AAc?$AAr?$AAi?$AAp?$AAt@ 5f58b0e0   oleinit.obj
 0002:00000110       ??_C@_1CE@PGMB@?$AAO?$AAb?$AAj?$AAe?$AAc?$AAt?$AA?5?$AAD?$AAe?$AAs?$AAc?$AAr?$AAi?$AAp?$AAt?$AAo?$AAr?$AA?$AA?$AA?$AH?$AA?$AA@ 5f58b110   oleinit.obj
 0002:00000134       ??_C@_1BI@PBNI@?$AAL?$AAi?$AAn?$AAk?$AA?5?$AAS?$AAo?$AAu?$AAr?$AAc?$AAe?$AA?$AA?$AA?$AH?$AA?$AA?$AA?$AA?$AA?$AA?$AH?$AA?$AF?$:O?$AA?$BI?$AA?$AB@ 5f58b134   oleinit.obj
 0002:0000014c       ??_C@_1BK@EEJA@?$AAE?$AAm?$AAb?$AAe?$AAd?$AA?5?$AAS?$AAo?$AAu?$AAr?$AAc?$AAe?$AA?$AA?$AA?$AA?$AA?$AH?$AA?$AA?$AA?$AA?$AA?$AA?$AG?$BA?$AF?$:O@ 5f58b14c   oleinit.obj
 0002:00000168       ??_C@_1CA@NPFJ@?$AAE?$AAm?$AAb?$AAe?$AAd?$AAd?$AAe?$AAd?$AA?5?$AAO?$AAb?$AAj?$AAe?$AAc?$AAt?$AA?$AA?$AA?$AH?$AA?$AA?$AA?$AA?$AA?$AA@ 5f58b168   oleinit.obj
 0002:00000188       ??_C@_1BG@JFDH@?$AAO?$AAb?$AAj?$AAe?$AAc?$AAt?$AAL?$AAi?$AAn?$AAk?$AA?$AA?$AA?$AA?$AA?$AH?$AA?$AA?$AA?$AA?$AA?$AA?$AE0?$AF?$:O?$AA?$BG?$AA?$AB@ 5f58b188   oleinit.obj
 0002:000001a0       ??_C@_1BE@MPFF@?$AAO?$AAw?$AAn?$AAe?$AAr?$AAL?$AAi?$AAn?$AAk?$AA?$AA?$AA?$AH?$AA?$AA?$AA?$AA?$AA?$AA?$ADH?$AF?$:O?$AA?$BE?$AA?$AB?$CI?$DM?$AB?$DN@ 5f58b1a0   oleinit.obj
 0002:000001b4       ??_C@_1O@OGPB@?$AAN?$AAa?$AAt?$AAi?$AAv?$AAe?$AA?$AA?$AA?$AA?$AA?$AH?$AA?$AA?$AA?$AA?$AA?$AA?$ACd?$AF?$:O@ 5f58b1b4   oleinit.obj
 0002:000001c4       ??_C@_1FK@FCNG@?$AAW?$AAa?$AAr?$AAn?$AAi?$AAn?$AAg?$AA?3?$AA?5?$AAO?$AAl?$AAe?$AAI?$AAn?$AAi?$AAt?$AAi?$AAa?$AAl?$AAi@ 5f58b1c4   oleinit.obj
 0002:00000220       ??_C@_1BE@IDHE@?$AAE?$AAm?$AAb?$AAe?$AAd?$AAd?$AAi?$AAn?$AAg?$AA?$AA?$AA?$AH?$AA?$AA?$AA?$AA?$AA?$AA?$AG?$CI?$AF?$:O?$AA?$BE?$AA?$AB?$AA?$AA?$AA?$AA@ 5f58b220   oleinit.obj
 0002:00000234       ??_C@_1BG@GHOC@?$AAA?$AAu?$AAt?$AAo?$AAm?$AAa?$AAt?$AAi?$AAo?$AAn?$AA?$AA?$AA?$AA?$AA?$AH?$AA?$AA?$AA?$AA?$AA?$AA?$AG?$CI?$AF?$:O?$AA?$BG?$AA?$AB@ 5f58b234   oleinit.obj
 0002:0000024c       ??_C@_0P@EIOM@COleLinkingDoc?$AA@ 5f58b24c   olecli1.obj
 0002:00000260       ?interfaceMap@COleClientItem@@1UAFX_INTERFACEMAP@@B 5f58b260   olecli1.obj
 0002:00000268       ?_interfaceEntries@COleClientItem@@0PBUAFX_INTERFACEMAP_ENTRY@@B 5f58b268   olecli1.obj
 0002:00000290       ?classCOleLinkingDoc@COleLinkingDoc@@2UCRuntimeClass@@B 5f58b290   olecli1.obj
 0002:000002ac       ??_7COleClientItem@@6B@    5f58b2ac   olecli1.obj
 0002:0000039c       ??_7XOleClientSite@COleClientItem@@6B@ 5f58b39c   olecli1.obj
 0002:000003c4       ??_7XAdviseSink@COleClientItem@@6B@ 5f58b3c4   olecli1.obj
 0002:000003ec       ??_7XOleIPSite@COleClientItem@@6B@ 5f58b3ec   olecli1.obj
 0002:0000042c       ??_7IOleClientSite@@6B@    5f58b42c   olecli1.obj
 0002:00000454       ??_7IAdviseSink@@6B@       5f58b454   olecli1.obj
 0002:0000047c       ??_7IOleInPlaceSite@@6B@   5f58b47c   olecli1.obj
 0002:000004bc       ??_7IUnknown@@6B@          5f58b4bc   olecli1.obj
 0002:000004cc       ??_7IOleWindow@@6B@        5f58b4cc   olecli1.obj
 0002:000004e0       ??_C@_1BM@EINE@?$AAE?$AAm?$AAb?$AAe?$AAd?$AAd?$AAi?$AAn?$AAg?$AA?5?$AA?$CF?$AAl?$AAu?$AA?$AA?$AA?$AH?$AA?$AA?$AA?$AA?$AA?$AA?$AHx?$AF?$:O@ 5f58b4e0   olecli1.obj
 0002:000004fc       ??_C@_1FK@OGLE@?$AAW?$AAa?$AAr?$AAn?$AAi?$AAn?$AAg?$AA?3?$AA?5?$AAu?$AAn?$AAa?$AAb?$AAl?$AAe?$AA?5?$AAt?$AAo?$AA?5?$AAc@ 5f58b4fc   olecli1.obj
 0002:00000558       ??_C@_15DEDE@?$AA?$CF?$AAs?$AA?$AA?$AA?$AA?$AA?$AH?$AA?$AA@ 5f58b558   olecli1.obj
 0002:00000560       ??_C@_1IA@HDKC@?$AAW?$AAa?$AAr?$AAn?$AAi?$AAn?$AAg?$AA?5?$AAO?$AAn?$AAN?$AAe?$AAw?$AAD?$AAo?$AAc?$AAu?$AAm?$AAe?$AAn@ 5f58b560   olecli1.obj
 0002:000005e0       ??_C@_1FG@DBGB@?$AAW?$AAa?$AAr?$AAn?$AAi?$AAn?$AAg?$AA?3?$AA?5?$AAu?$AAn?$AAa?$AAb?$AAl?$AAe?$AA?5?$AAt?$AAo?$AA?5?$AAo@ 5f58b5e0   olecli1.obj
 0002:00000638       ??_C@_1GO@MCKF@?$AAW?$AAa?$AAr?$AAn?$AAi?$AAn?$AAg?$AA?3?$AA?5?$AAo?$AAb?$AAj?$AAe?$AAc?$AAt?$AA?5?$AAd?$AAo?$AAe?$AAs@ 5f58b638   olecli1.obj
 0002:000006a8       ??_C@_1GE@CFGJ@?$AAW?$AAa?$AAr?$AAn?$AAi?$AAn?$AAg?$AA?3?$AA?5?$AAu?$AAn?$AAa?$AAb?$AAl?$AAe?$AA?5?$AAt?$AAo?$AA?5?$AAg@ 5f58b6a8   olecli1.obj
 0002:0000070c       ??_C@_1GE@FDMC@?$AAW?$AAa?$AAr?$AAn?$AAi?$AAn?$AAg?$AA?3?$AA?5?$AAu?$AAn?$AAa?$AAb?$AAl?$AAe?$AA?5?$AAt?$AAo?$AA?5?$AAg@ 5f58b70c   olecli1.obj
 0002:00000770       ??_C@_13HMCP@?$AA?2?$AA?$AA?$AA?$AH?$AA?$AA@ 5f58b770   olecli1.obj
 0002:00000774       ??_C@_0BB@JMCJ@?6m_hWndServer?5?$DN?5?$AA@ 5f58b774   olecli1.obj
 0002:00000788       ??_C@_0BE@DEMF@?6m_pInPlaceFrame?5?$DN?5?$AA@ 5f58b788   olecli1.obj
 0002:0000079c       ??_C@_0BH@JIDM@?6m_dwContainerStyle?5?$DN?5?$AA@ 5f58b79c   olecli1.obj
 0002:000007b4       ??_C@_0M@EFKC@?6m_pView?5?$DN?5?$AA@ 5f58b7b4   olecli1.obj
 0002:000007c0       ??_C@_0BB@JNMD@?6m_nItemState?5?$DN?5?$AA@ 5f58b7c0   olecli1.obj
 0002:000007d4       ??_C@_0BC@CJ@?6m_bNeedCommit?5?$DN?5?$AA@ 5f58b7d4   olecli1.obj
 0002:000007e8       ??_C@_0BD@DFML@?6m_lpNewStorage?5?$DN?5?$AA@ 5f58b7e8   olecli1.obj
 0002:000007fc       ??_C@_0P@HJAA@?6m_bMoniker?5?$DN?5?$AA@ 5f58b7fc   olecli1.obj
 0002:0000080c       ??_C@_0BD@CALL@?6m_bLinkUnavail?5?$DN?5?$AA@ 5f58b80c   olecli1.obj
 0002:00000820       ??_C@_0BD@DPMG@?6m_dwConnection?5?$DN?5?$AA@ 5f58b820   olecli1.obj
 0002:00000834       ??_C@_0BC@DIDM@?6m_lpLockBytes?5?$DN?5?$AA@ 5f58b834   olecli1.obj
 0002:00000848       ??_C@_0BA@LKEM@?6m_lpStorage?5?$DN?5?$AA@ 5f58b848   olecli1.obj
 0002:00000858       ??_C@_0N@EFDC@?6m_scLast?5?$DN?5?$AA@ 5f58b858   olecli1.obj
 0002:00000868       ??_C@_0BC@DBNB@?6m_nDrawAspect?5?$DN?5?$AA@ 5f58b868   olecli1.obj
 0002:0000087c       ??_C@_0BD@MOJB@?6m_dwItemNumber?5?$DN?5?$AA@ 5f58b87c   olecli1.obj
 0002:00000890       ??_C@_0O@EOEE@m_lpObject?5?$DN?5?$AA@ 5f58b890   olecli1.obj
 0002:000008a0       ?interfaceMap@COleFrameHook@@1UAFX_INTERFACEMAP@@B 5f58b8a0   olecli2.obj
 0002:000008a8       ?_interfaceEntries@COleFrameHook@@0PBUAFX_INTERFACEMAP_ENTRY@@B 5f58b8a8   olecli2.obj
 0002:000008cc       ??_7COleFrameHook@@6B@     5f58b8cc   olecli2.obj
 0002:0000094c       ??_7XOleInPlaceFrame@COleFrameHook@@6B@ 5f58b94c   olecli2.obj
 0002:0000098c       ??_7IOleInPlaceFrame@@6B@  5f58b98c   olecli2.obj
 0002:000009cc       ??_7IOleInPlaceUIWindow@@6B@ 5f58b9cc   olecli2.obj
 0002:000009f0       ??_C@_0BP@CJDN@d?3?2msdev?2mfc?2include?2afxtls_?4h?$AA@ 5f58b9f0   olecli2.obj
 0002:00000a10       ??_C@_1FC@ECEN@?$AAW?$AAa?$AAr?$AAn?$AAi?$AAn?$AAg?$AA?3?$AA?5?$AAo?$AAp?$AAe?$AAr?$AAa?$AAt?$AAi?$AAo?$AAn?$AA?5?$AAr@ 5f58ba10   olecli3.obj
 0002:00000a68       ?interfaceMap@CEnumFormatEtc@@1UAFX_INTERFACEMAP@@B 5f58ba68   oledobj2.obj
 0002:00000a70       ?_interfaceEntries@CEnumFormatEtc@@0PBUAFX_INTERFACEMAP_ENTRY@@B 5f58ba70   oledobj2.obj
 0002:00000a80       ?interfaceMap@COleDataSource@@1UAFX_INTERFACEMAP@@B 5f58ba80   oledobj2.obj
 0002:00000a88       ?_interfaceEntries@COleDataSource@@0PBUAFX_INTERFACEMAP_ENTRY@@B 5f58ba88   oledobj2.obj
 0002:00000a9c       ??_7COleDataSource@@6B@    5f58ba9c   oledobj2.obj
 0002:00000b0c       ??_7XDataObject@COleDataSource@@6B@ 5f58bb0c   oledobj2.obj
 0002:00000b44       ??_7IDataObject@@6B@       5f58bb44   oledobj2.obj
 0002:00000b7c       ??_7CEnumFormatEtc@@6B@    5f58bb7c   oledobj2.obj
 0002:00000be4       ??_C@_01BJG@?6?$AA@        5f58bbe4   oledobj2.obj
 0002:00000be8       ??_C@_03JNEF@?6?7?$HN?$AA@ 5f58bbe8   oledobj2.obj
 0002:00000bec       ??_C@_0BB@GMOB@?6?7?5m_nDataDir?5?$DN?5?$AA@ 5f58bbec   oledobj2.obj
 0002:00000c00       ??_C@_0BI@PNP@?6?7?5m_stgMedium?4tymed?5?$DN?5?$AA@ 5f58bc00   oledobj2.obj
 0002:00000c18       ??_C@_0BI@EFAF@?6?7?5m_formatEtc?4tymed?5?$DN?5?$AA@ 5f58bc18   oledobj2.obj
 0002:00000c30       ??_C@_0BJ@LPOO@?6?7?5m_formatEtc?4lindex?5?$DN?5?$AA@ 5f58bc30   oledobj2.obj
 0002:00000c4c       ??_C@_0BL@HFLA@?6?7?5m_formatEtc?4dwAspect?5?$DN?5?$AA@ 5f58bc4c   oledobj2.obj
 0002:00000c68       ??_C@_0BG@LHAO@?6?7?5m_formatEtc?4pdt?5?$DN?5?$AA@ 5f58bc68   oledobj2.obj
 0002:00000c80       ??_C@_0BL@IPEG@?6?7?5m_formatEtc?4cfFormat?5?$DN?5?$AA@ 5f58bc80   oledobj2.obj
 0002:00000c9c       ??_C@_05EJJM@?$FN?5?$DN?5?$HL?$AA@ 5f58bc9c   oledobj2.obj
 0002:00000ca4       ??_C@_09EIHB@?6?7entry?5?$FL?$AA@ 5f58bca4   oledobj2.obj
 0002:00000cb0       ??_C@_0BB@IFBL@?6m_pDataCache?5?$DN?5?$AA@ 5f58bcb0   oledobj2.obj
 0002:00000cc4       ??_C@_0M@NOBL@?6m_nSize?5?$DN?5?$AA@ 5f58bcc4   oledobj2.obj
 0002:00000cd0       ??_C@_0O@JNKF@m_nMaxSize?5?$DN?5?$AA@ 5f58bcd0   oledobj2.obj
 0002:00000ce0       ??_C@_0BG@OGI@COleDispatchException?$AA@ 5f58bce0   oledisp1.obj
 0002:00000da0       ?classCOleDispatchException@COleDispatchException@@2UCRuntimeClass@@B 5f58bda0   oledisp1.obj
 0002:00000db8       ??_C@_1FO@OBOM@?$AAW?$AAa?$AAr?$AAn?$AAi?$AAn?$AAg?$AA?3?$AA?5?$AAa?$AAu?$AAt?$AAo?$AAm?$AAa?$AAt?$AAi?$AAo?$AAn?$AA?5@ 5f58bdb8   oledisp1.obj
 0002:00000e1c       ??_7COleDispatchImpl@@6B@  5f58be1c   oledisp1.obj
 0002:00000e44       ??_7IDispatch@@6B@         5f58be44   oledisp1.obj
 0002:00000e60       ??_C@_1FO@CJEA@?$AAW?$AAa?$AAr?$AAn?$AAi?$AAn?$AAg?$AA?3?$AA?5?$AAa?$AAu?$AAt?$AAo?$AAm?$AAa?$AAt?$AAi?$AAo?$AAn?$AA?5@ 5f58be60   oledisp1.obj
 0002:00000ec0       ??_C@_1FK@ODHN@?$AAE?$AAr?$AAr?$AAo?$AAr?$AA?3?$AA?5?$AAs?$AAt?$AAa?$AAc?$AAk?$AA?5?$AAo?$AAv?$AAe?$AAr?$AAf?$AAl?$AAo@ 5f58bec0   oledisp1.obj
 0002:00000f24       ??_7COleDispatchException@@6B@ 5f58bf24   oledisp1.obj
 0002:00000f40       ??_C@_1FO@CAPH@?$AAW?$AAa?$AAr?$AAn?$AAi?$AAn?$AAg?$AA?3?$AA?5?$AAC?$AAr?$AAe?$AAa?$AAt?$AAe?$AAD?$AAi?$AAs?$AAp?$AAa@ 5f58bf40   oledisp2.obj
 0002:00000fa0       ??_C@_1GG@NHJK@?$AAW?$AAa?$AAr?$AAn?$AAi?$AAn?$AAg?$AA?3?$AA?5?$AAa?$AAu?$AAt?$AAo?$AAm?$AAa?$AAt?$AAi?$AAo?$AAn?$AA?5@ 5f58bfa0   oledisp2.obj
 0002:00001008       ??_C@_1HC@POEP@?$AAW?$AAa?$AAr?$AAn?$AAi?$AAn?$AAg?$AA?3?$AA?5?$AAa?$AAt?$AAt?$AAe?$AAm?$AAp?$AAt?$AA?5?$AAt?$AAo?$AA?5@ 5f58c008   oledisp2.obj
 0002:0000107c       ??_C@_0BH@NAFF@COlePasteSpecialDialog?$AA@ 5f58c07c   oledlgs1.obj
 0002:00001094       ??_C@_0BB@HGD@COleUpdateDialog?$AA@ 5f58c094   oledlgs1.obj
 0002:000010a8       ??_C@_0BA@PIHM@COleLinksDialog?$AA@ 5f58c0a8   oledlgs1.obj
 0002:000010b8       ??_C@_0BF@JMPM@COleChangeIconDialog?$AA@ 5f58c0b8   oledlgs1.obj
 0002:000010d0       ??_C@_0BC@CIPN@COleConvertDialog?$AA@ 5f58c0d0   oledlgs1.obj
 0002:000010e4       ??_C@_0BB@KPPE@COleInsertDialog?$AA@ 5f58c0e4   oledlgs1.obj
 0002:000010f8       ?classCOleInsertDialog@COleInsertDialog@@2UCRuntimeClass@@B 5f58c0f8   oledlgs1.obj
 0002:00001110       ?classCOleConvertDialog@COleConvertDialog@@2UCRuntimeClass@@B 5f58c110   oledlgs1.obj
 0002:00001128       ?classCOleChangeIconDialog@COleChangeIconDialog@@2UCRuntimeClass@@B 5f58c128   oledlgs1.obj
 0002:00001140       ?classCOleLinksDialog@COleLinksDialog@@2UCRuntimeClass@@B 5f58c140   oledlgs1.obj
 0002:00001158       ?classCOleUpdateDialog@COleUpdateDialog@@2UCRuntimeClass@@B 5f58c158   oledlgs1.obj
 0002:00001170       ?classCOlePasteSpecialDialog@COlePasteSpecialDialog@@2UCRuntimeClass@@B 5f58c170   oledlgs1.obj
 0002:0000118c       ??_7COleUILinkInfo@@6B@    5f58c18c   oledlgs1.obj
 0002:000011c4       ??_7IOleUILinkInfoW@@6B@   5f58c1c4   oledlgs1.obj
 0002:000011fc       ??_7IOleUILinkContainerW@@6B@ 5f58c1fc   oledlgs1.obj
 0002:0000122c       ??_7COleInsertDialog@@6B@  5f58c22c   oledlgs1.obj
 0002:00001304       ??_C@_1GK@ODNE@?$AAW?$AAa?$AAr?$AAn?$AAi?$AAn?$AAg?$AA?3?$AA?5?$AAf?$AAa?$AAi?$AAl?$AAe?$AAd?$AA?5?$AAt?$AAo?$AA?5?$AAs@ 5f58c304   oledlgs1.obj
 0002:00001370       ??_C@_0BD@CHHM@?6m_io?4hMetaPict?5?$DN?5?$AA@ 5f58c370   oledlgs1.obj
 0002:00001384       ??_C@_0DB@BLDH@?6hook?5function?5set?5to?5non?9standa@ 5f58c384   oledlgs1.obj
 0002:000013b8       ??_C@_0DB@MAOJ@?6hook?5function?5set?5to?5standard?5M@ 5f58c3b8   oledlgs1.obj
 0002:000013ec       ??_C@_0BD@IPNN@?6m_io?4hResource?5?$DN?5?$AA@ 5f58c3ec   oledlgs1.obj
 0002:00001400       ??_C@_0BG@EDJJ@?6m_io?4lpszTemplate?5?$DN?5?$AA@ 5f58c400   oledlgs1.obj
 0002:00001418       ??_C@_0BD@ELPK@?6m_io?4hInstance?5?$DN?5?$AA@ 5f58c418   oledlgs1.obj
 0002:0000142c       ??_C@_0BD@JLLA@?6m_io?4lCustData?5?$DN?5?$AA@ 5f58c42c   oledlgs1.obj
 0002:00001440       ??_C@_0BF@PECB@?6m_io?4lpszCaption?5?$DN?5?$AA@ 5f58c440   oledlgs1.obj
 0002:00001458       ??_C@_0BD@NMHJ@?6m_io?4hWndOwner?5?$DN?5?$AA@ 5f58c458   oledlgs1.obj
 0002:0000146c       ??_C@_0BB@FCGN@?6m_io?4dwFlags?5?$DN?5?$AA@ 5f58c46c   oledlgs1.obj
 0002:00001480       ??_C@_0BC@LPPE@?6m_io?4cbStruct?5?$DN?5?$AA@ 5f58c480   oledlgs1.obj
 0002:00001494       ??_C@_0BA@KFFI@m_szFileName?5?$DN?5?$AA@ 5f58c494   oledlgs1.obj
 0002:000014ac       ??_7COleConvertDialog@@6B@ 5f58c4ac   oledlgs1.obj
 0002:00001584       ??_C@_0BN@NCPK@?6m_cv?4fObjectsIconChanged?5?$DN?5?$AA@ 5f58c584   oledlgs1.obj
 0002:000015a4       ??_C@_0BG@FMAM@?6m_cv?4lpszUserType?5?$DN?5?$AA@ 5f58c5a4   oledlgs1.obj
 0002:000015bc       ??_C@_0BD@BAPC@?6m_cv?4hMetaPict?5?$DN?5?$AA@ 5f58c5bc   oledlgs1.obj
 0002:000015d0       ??_C@_0BJ@PDJL@?6m_cv?4fIsLinkedObject?5?$DN?5?$AA@ 5f58c5d0   oledlgs1.obj
 0002:000015ec       ??_C@_0BB@NDIA@?6m_cv?4wFormat?5?$DN?5?$AA@ 5f58c5ec   oledlgs1.obj
 0002:00001600       ??_C@_0BC@DIHB@?6m_cv?4dvAspect?5?$DN?5?$AA@ 5f58c600   oledlgs1.obj
 0002:00001614       ??_C@_0BD@LIFD@?6m_cv?4hResource?5?$DN?5?$AA@ 5f58c614   oledlgs1.obj
 0002:00001628       ??_C@_0BG@NAOD@?6m_cv?4lpszTemplate?5?$DN?5?$AA@ 5f58c628   oledlgs1.obj
 0002:00001640       ??_C@_0BD@HMHE@?6m_cv?4hInstance?5?$DN?5?$AA@ 5f58c640   oledlgs1.obj
 0002:00001654       ??_C@_0BD@KMDO@?6m_cv?4lCustData?5?$DN?5?$AA@ 5f58c654   oledlgs1.obj
 0002:00001668       ??_C@_0BF@IOJB@?6m_cv?4lpszCaption?5?$DN?5?$AA@ 5f58c668   oledlgs1.obj
 0002:00001680       ??_C@_0BD@OLPH@?6m_cv?4hWndOwner?5?$DN?5?$AA@ 5f58c680   oledlgs1.obj
 0002:00001694       ??_C@_0BB@KHMP@?6m_cv?4dwFlags?5?$DN?5?$AA@ 5f58c694   oledlgs1.obj
 0002:000016a8       ??_C@_0BB@HIEM@m_cv?4cbStruct?5?$DN?5?$AA@ 5f58c6a8   oledlgs1.obj
 0002:000016c4       ??_7COleChangeIconDialog@@6B@ 5f58c6c4   oledlgs1.obj
 0002:0000179c       ??_C@_0BD@HGNJ@?6m_ci?4hMetaPict?5?$DN?5?$AA@ 5f58c79c   oledlgs1.obj
 0002:000017b0       ??_C@_0BD@NOHI@?6m_ci?4hResource?5?$DN?5?$AA@ 5f58c7b0   oledlgs1.obj
 0002:000017c4       ??_C@_0BG@PPBE@?6m_ci?4lpszTemplate?5?$DN?5?$AA@ 5f58c7c4   oledlgs1.obj
 0002:000017dc       ??_C@_0BD@BKFP@?6m_ci?4hInstance?5?$DN?5?$AA@ 5f58c7dc   oledlgs1.obj
 0002:000017f0       ??_C@_0BD@MKBF@?6m_ci?4lCustData?5?$DN?5?$AA@ 5f58c7f0   oledlgs1.obj
 0002:00001804       ??_C@_0BF@HJOD@?6m_ci?4lpszCaption?5?$DN?5?$AA@ 5f58c804   oledlgs1.obj
 0002:0000181c       ??_C@_0BD@INNM@?6m_ci?4hWndOwner?5?$DN?5?$AA@ 5f58c81c   oledlgs1.obj
 0002:00001830       ??_C@_0BB@BHKG@?6m_ci?4dwFlags?5?$DN?5?$AA@ 5f58c830   oledlgs1.obj
 0002:00001844       ??_C@_0BB@FDPM@m_ci?4cbStruct?5?$DN?5?$AA@ 5f58c844   oledlgs1.obj
 0002:0000185c       ??_7COleLinksDialog@@6B@   5f58c85c   oledlgs1.obj
 0002:00001934       ??_C@_0BD@HAKN@?6m_el?4hResource?5?$DN?5?$AA@ 5f58c934   oledlgs1.obj
 0002:00001948       ??_C@_0BG@KHIK@?6m_el?4lpszTemplate?5?$DN?5?$AA@ 5f58c948   oledlgs1.obj
 0002:00001960       ??_C@_0BD@LEIK@?6m_el?4hInstance?5?$DN?5?$AA@ 5f58c960   oledlgs1.obj
 0002:00001974       ??_C@_0BD@GEMA@?6m_el?4lCustData?5?$DN?5?$AA@ 5f58c974   oledlgs1.obj
 0002:00001988       ??_C@_0BF@OHOP@?6m_el?4lpszCaption?5?$DN?5?$AA@ 5f58c988   oledlgs1.obj
 0002:000019a0       ??_C@_0BD@CDAJ@?6m_el?4hWndOwner?5?$DN?5?$AA@ 5f58c9a0   oledlgs1.obj
 0002:000019b4       ??_C@_0BB@CKIK@?6m_el?4dwFlags?5?$DN?5?$AA@ 5f58c9b4   oledlgs1.obj
 0002:000019c8       ??_C@_0BC@MPIM@?6m_el?4cbStruct?5?$DN?5?$AA@ 5f58c9c8   oledlgs1.obj
 0002:000019e4       ??_7COleUpdateDialog@@6B@  5f58c9e4   oledlgs1.obj
 0002:00001abc       ??_C@_0BA@OFIG@m_strCaption?5?$DN?5?$AA@ 5f58cabc   oledlgs1.obj
 0002:00001ad4       ??_7COlePasteSpecialDialog@@6B@ 5f58cad4   oledlgs1.obj
 0002:00001bac       ??_C@_0P@JJLH@?6m_ps?4fLink?5?$DN?5?$AA@ 5f58cbac   oledlgs1.obj
 0002:00001bbc       ??_C@_0BI@PHBO@?6m_ps?4nSelectedIndex?5?$DN?5?$AA@ 5f58cbbc   oledlgs1.obj
 0002:00001bd4       ??_C@_0BE@OPOD@?6m_ps?4cLinkTypes?5?$DN?5?$AA@ 5f58cbd4   oledlgs1.obj
 0002:00001be8       ??_C@_0BH@IOIO@?6m_ps?4cPasteEntries?5?$DN?5?$AA@ 5f58cbe8   oledlgs1.obj
 0002:00001c00       ??_C@_0BG@GBAG@?6m_ps?4lpSrcDataObj?5?$DN?5?$AA@ 5f58cc00   oledlgs1.obj
 0002:00001c18       ??_C@_0BD@PEKC@?6m_ps?4hResource?5?$DN?5?$AA@ 5f58cc18   oledlgs1.obj
 0002:00001c2c       ??_C@_0BG@JFBL@?6m_ps?4lpszTemplate?5?$DN?5?$AA@ 5f58cc2c   oledlgs1.obj
 0002:00001c44       ??_C@_0BD@DAIF@?6m_ps?4hInstance?5?$DN?5?$AA@ 5f58cc44   oledlgs1.obj
 0002:00001c58       ??_C@_0BD@OAMP@?6m_ps?4lCustData?5?$DN?5?$AA@ 5f58cc58   oledlgs1.obj
 0002:00001c6c       ??_C@_0BF@HGCH@?6m_ps?4lpszCaption?5?$DN?5?$AA@ 5f58cc6c   oledlgs1.obj
 0002:00001c84       ??_C@_0BD@KHAG@?6m_ps?4hWndOwner?5?$DN?5?$AA@ 5f58cc84   oledlgs1.obj
 0002:00001c98       ??_C@_0BB@JIOH@?6m_ps?4dwFlags?5?$DN?5?$AA@ 5f58cc98   oledlgs1.obj
 0002:00001cac       ??_C@_0BB@IJHD@m_ps?4cbStruct?5?$DN?5?$AA@ 5f58ccac   oledlgs1.obj
 0002:00001cc0       ??_C@_1EO@DNCJ@?$AAW?$AAa?$AAr?$AAn?$AAi?$AAn?$AAg?$AA?3?$AA?5?$AAf?$AAa?$AAi?$AAl?$AAe?$AAd?$AA?5?$AAt?$AAo?$AA?5?$AAs@ 5f58ccc0   oledlgs1.obj
 0002:00001d10       ??_C@_1EC@EONM@?$AAW?$AAa?$AAr?$AAn?$AAi?$AAn?$AAg?$AA?3?$AA?5?$AAC?$AAr?$AAe?$AAa?$AAt?$AAe?$AAF?$AAr?$AAo?$AAm?$AAD@ 5f58cd10   oledlgs1.obj
 0002:00001d54       ??_C@_1EO@GNLD@?$AAW?$AAa?$AAr?$AAn?$AAi?$AAn?$AAg?$AA?3?$AA?5?$AAC?$AAr?$AAe?$AAa?$AAt?$AAe?$AAS?$AAt?$AAa?$AAt?$AAi@ 5f58cd54   oledlgs1.obj
 0002:00001da4       ??_C@_1EK@LAB@?$AAW?$AAa?$AAr?$AAn?$AAi?$AAn?$AAg?$AA?3?$AA?5?$AAC?$AAr?$AAe?$AAa?$AAt?$AAe?$AAL?$AAi?$AAn?$AAk?$AAF@ 5f58cda4   oledlgs1.obj
 0002:00001df0       ??_C@_0P@CLOH@COleBusyDialog?$AA@ 5f58cdf0   oledlgs2.obj
 0002:00001e00       ??_C@_0L@HMIO@COleDialog?$AA@ 5f58ce00   oledlgs2.obj
 0002:00001e10       ?classCOleDialog@COleDialog@@2UCRuntimeClass@@B 5f58ce10   oledlgs2.obj
 0002:00001e28       ?classCOleBusyDialog@COleBusyDialog@@2UCRuntimeClass@@B 5f58ce28   oledlgs2.obj
 0002:00001e44       ??_7COleDialog@@6B@        5f58ce44   oledlgs2.obj
 0002:00001f1c       ??_C@_0BA@LHGD@m_nLastError?5?$DN?5?$AA@ 5f58cf1c   oledlgs2.obj
 0002:00001f34       ??_7COleBusyDialog@@6B@    5f58cf34   oledlgs2.obj
 0002:0000200c       ??_C@_0P@PHCO@?6m_bz?4hTask?5?$DN?5?$AA@ 5f58d00c   oledlgs2.obj
 0002:0000201c       ??_C@_0BD@PJDN@?6m_bz?4hResource?5?$DN?5?$AA@ 5f58d01c   oledlgs2.obj
 0002:00002030       ??_C@_0BG@LEJO@?6m_bz?4lpszTemplate?5?$DN?5?$AA@ 5f58d030   oledlgs2.obj
 0002:00002048       ??_C@_0BD@DNBK@?6m_bz?4hInstance?5?$DN?5?$AA@ 5f58d048   oledlgs2.obj
 0002:0000205c       ??_C@_0BD@ONFA@?6m_bz?4lCustData?5?$DN?5?$AA@ 5f58d05c   oledlgs2.obj
 0002:00002070       ??_C@_0BF@PDKP@?6m_bz?4lpszCaption?5?$DN?5?$AA@ 5f58d070   oledlgs2.obj
 0002:00002088       ??_C@_0BD@KKJJ@?6m_bz?4hWndOwner?5?$DN?5?$AA@ 5f58d088   oledlgs2.obj
 0002:0000209c       ??_C@_0BB@COFM@?6m_bz?4dwFlags?5?$DN?5?$AA@ 5f58d09c   oledlgs2.obj
 0002:000020b0       ??_C@_0BB@BGMF@m_bz?4cbStruct?5?$DN?5?$AA@ 5f58d0b0   oledlgs2.obj
 0002:000020c4       ??_C@_0BH@HBLJ@COleChangeSourceDialog?$AA@ 5f58d0c4   oledlgs3.obj
 0002:000020dc       ??_C@_0BF@IDJJ@COlePropertiesDialog?$AA@ 5f58d0dc   oledlgs3.obj
 0002:000020f8       ?classCOlePropertiesDialog@COlePropertiesDialog@@2UCRuntimeClass@@B 5f58d0f8   oledlgs3.obj
 0002:00002110       ?classCOleChangeSourceDialog@COleChangeSourceDialog@@2UCRuntimeClass@@B 5f58d110   oledlgs3.obj
 0002:0000212c       ??_7COlePropertiesDialog@@6B@ 5f58d12c   oledlgs3.obj
 0002:0000220c       ??_7XOleUIObjInfo@COlePropertiesDialog@@6B@ 5f58d20c   oledlgs3.obj
 0002:00002234       ??_7IOleUIObjInfoW@@6B@    5f58d234   oledlgs3.obj
 0002:0000225c       ??_7COleChangeSourceDialog@@6B@ 5f58d25c   oledlgs3.obj
 0002:00002334       ??_C@_0BD@JJEH@?6m_cs?4hResource?5?$DN?5?$AA@ 5f58d334   oledlgs3.obj
 0002:00002348       ??_C@_0BG@PEEF@?6m_cs?4lpszTemplate?5?$DN?5?$AA@ 5f58d348   oledlgs3.obj
 0002:00002360       ??_C@_0BD@FNGA@?6m_cs?4hInstance?5?$DN?5?$AA@ 5f58d360   oledlgs3.obj
 0002:00002374       ??_C@_0BD@INCK@?6m_cs?4lCustData?5?$DN?5?$AA@ 5f58d374   oledlgs3.obj
 0002:00002388       ??_C@_0BF@CIFJ@?6m_cs?4lpszCaption?5?$DN?5?$AA@ 5f58d388   oledlgs3.obj
 0002:000023a0       ??_C@_0BD@MKOD@?6m_cs?4hWndOwner?5?$DN?5?$AA@ 5f58d3a0   oledlgs3.obj
 0002:000023b4       ??_C@_0BB@HNIP@?6m_cs?4dwFlags?5?$DN?5?$AA@ 5f58d3b4   oledlgs3.obj
 0002:000023c8       ??_C@_0BB@GMJG@m_cs?4cbStruct?5?$DN?5?$AA@ 5f58d3c8   oledlgs3.obj
 0002:000023dc       ??_C@_0O@BGLP@SysFreeString?$AA@ 5f58d3dc   oledata.obj
 0002:000023ec       ??_C@_0N@NEJH@OLEAUT32?4DLL?$AA@ 5f58d3ec   oledata.obj
 0002:000023fc       ??_C@_0BG@IMDN@SysAllocStringByteLen?$AA@ 5f58d3fc   oledata.obj
 0002:00002414       ??_C@_0M@DCEG@VariantCopy?$AA@ 5f58d414   oledata.obj
 0002:00002420       ??_C@_0N@FFGB@VariantClear?$AA@ 5f58d420   oledata.obj
 0002:00002430       ??_C@_0BC@KHNL@VariantChangeType?$AA@ 5f58d430   oledata.obj
 0002:00002444       ??_C@_0BC@IFPH@SysAllocStringLen?$AA@ 5f58d444   oledata.obj
 0002:00002458       ??_C@_0N@BDNG@SysStringLen?$AA@ 5f58d458   oledata.obj
 0002:00002468       ??_C@_0BE@LAIK@SysReAllocStringLen?$AA@ 5f58d468   oledata.obj
 0002:0000247c       ??_C@_0P@GPGK@SysAllocString?$AA@ 5f58d47c   oledata.obj
 0002:0000248c       ??_C@_0BB@JFPK@SysStringByteLen?$AA@ 5f58d48c   oledata.obj
 0002:000024a0       ??_C@_0N@JLNH@VarCyFromStr?$AA@ 5f58d4a0   oledata.obj
 0002:000024b0       ??_C@_0O@LOJC@VarBstrFromCy?$AA@ 5f58d4b0   oledata.obj
 0002:000024c0       ??_C@_0P@NKFO@VarDateFromStr?$AA@ 5f58d4c0   oledata.obj
 0002:000024d0       ??_C@_0BA@CEJB@VarBstrFromDate?$AA@ 5f58d4d0   oledata.obj
 0002:000024e0       ??_C@_0M@JJEC@LoadTypeLib?$AA@ 5f58d4e0   oledata.obj
 0002:000024ec       ??_C@_0P@PBAH@LoadRegTypeLib?$AA@ 5f58d4ec   oledata.obj
 0002:000024fc       ??_C@_0BA@LFHA@RegisterTypeLib?$AA@ 5f58d4fc   oledata.obj
 0002:0000250c       ??_C@_0BJ@EBKA@DosDateTimeToVariantTime?$AA@ 5f58d50c   oledata.obj
 0002:00002528       ??_C@_0BA@FGJD@SafeArrayCreate?$AA@ 5f58d528   oledata.obj
 0002:00002538       ??_C@_0P@MFKA@SafeArrayRedim?$AA@ 5f58d538   oledata.obj
 0002:00002548       ??_C@_0BE@BBCE@SafeArrayAccessData?$AA@ 5f58d548   oledata.obj
 0002:0000255c       ??_C@_0BG@MK@SafeArrayUnaccessData?$AA@ 5f58d55c   oledata.obj
 0002:00002574       ??_C@_0BD@GAPJ@SafeArrayGetUBound?$AA@ 5f58d574   oledata.obj
 0002:00002588       ??_C@_0BD@CFK@SafeArrayGetLBound?$AA@ 5f58d588   oledata.obj
 0002:0000259c       ??_C@_0BF@OFJD@SafeArrayGetElemsize?$AA@ 5f58d59c   oledata.obj
 0002:000025b4       ??_C@_0BA@INBD@SafeArrayGetDim?$AA@ 5f58d5b4   oledata.obj
 0002:000025c4       ??_C@_0O@COOP@SafeArrayCopy?$AA@ 5f58d5c4   oledata.obj
 0002:000025d4       ??_C@_0BD@MBFL@SafeArrayAllocData?$AA@ 5f58d5d4   oledata.obj
 0002:000025e8       ??_C@_0BJ@PNKB@SafeArrayAllocDescriptor?$AA@ 5f58d5e8   oledata.obj
 0002:00002604       ??_C@_0BE@HPKN@SafeArrayGetElement?$AA@ 5f58d604   oledata.obj
 0002:00002618       ??_C@_0BE@IEE@SafeArrayPutElement?$AA@ 5f58d618   oledata.obj
 0002:0000262c       ??_C@_0O@FDMJ@SafeArrayLock?$AA@ 5f58d62c   oledata.obj
 0002:0000263c       ??_C@_0BA@CBIN@SafeArrayUnlock?$AA@ 5f58d63c   oledata.obj
 0002:0000264c       ??_C@_0BB@PKGE@SafeArrayDestroy?$AA@ 5f58d64c   oledata.obj
 0002:00002660       ??_C@_0BF@NJHK@SafeArrayDestroyData?$AA@ 5f58d660   oledata.obj
 0002:00002678       ??_C@_0BL@HKPA@SafeArrayDestroyDescriptor?$AA@ 5f58d678   oledata.obj
 0002:00002694       ??_C@_0BE@BNJG@SafeArrayPtrOfIndex?$AA@ 5f58d694   oledata.obj
 0002:000026a8       ??_C@_0BC@ONFF@OleUIAddVerbMenuW?$AA@ 5f58d6a8   oledata.obj
 0002:000026bc       ??_C@_0L@KCDN@OLEDLG?4DLL?$AA@ 5f58d6bc   oledata.obj
 0002:000026c8       ??_C@_0L@KCCD@OleUIBusyW?$AA@ 5f58d6c8   oledata.obj
 0002:000026d4       ??_C@_0BB@PPLG@OleUIChangeIconW?$AA@ 5f58d6d4   oledata.obj
 0002:000026e8       ??_C@_0BD@NLMC@OleUIChangeSourceW?$AA@ 5f58d6e8   oledata.obj
 0002:000026fc       ??_C@_0O@PFGM@OleUIConvertW?$AA@ 5f58d6fc   oledata.obj
 0002:0000270c       ??_C@_0BA@DPNF@OleUIEditLinksW?$AA@ 5f58d70c   oledata.obj
 0002:0000271c       ??_C@_0BD@NBAK@OleUIInsertObjectW?$AA@ 5f58d71c   oledata.obj
 0002:00002730       ??_C@_0BH@KBCA@OleUIObjectPropertiesW?$AA@ 5f58d730   oledata.obj
 0002:00002748       ??_C@_0BD@JNFM@OleUIPasteSpecialW?$AA@ 5f58d748   oledata.obj
 0002:0000275c       ??_C@_0BC@IGLB@OleUIUpdateLinksW?$AA@ 5f58d75c   oledata.obj
 0002:00002770       ??_C@_0BD@DJAF@ReadFmtUserTypeStg?$AA@ 5f58d770   oledata.obj
 0002:00002784       ??_C@_09OJA@OLE32?4DLL?$AA@ 5f58d784   oledata.obj
 0002:00002790       ??_C@_0N@CPBD@ReadClassStg?$AA@ 5f58d790   oledata.obj
 0002:000027a0       ??_C@_0BC@EKAO@CreateFileMoniker?$AA@ 5f58d7a0   oledata.obj
 0002:000027b4       ??_C@_0BB@EPKB@StgIsStorageFile?$AA@ 5f58d7b4   oledata.obj
 0002:000027c8       ??_C@_0P@HFGE@StgOpenStorage?$AA@ 5f58d7c8   oledata.obj
 0002:000027d8       ??_C@_0L@PDGE@DoDragDrop?$AA@ 5f58d7d8   oledata.obj
 0002:000027e4       ??_C@_0BF@NECC@CoLockObjectExternal?$AA@ 5f58d7e4   oledata.obj
 0002:000027fc       ??_C@_0BB@OONH@RegisterDragDrop?$AA@ 5f58d7fc   oledata.obj
 0002:00002810       ??_C@_0BC@BDPC@OleRegGetUserType?$AA@ 5f58d810   oledata.obj
 0002:00002824       ??_C@_0BB@EKOE@StgCreateDocfile?$AA@ 5f58d824   oledata.obj
 0002:00002838       ??_C@_0P@DJKP@RevokeDragDrop?$AA@ 5f58d838   oledata.obj
 0002:00002848       ??_C@_0BG@IHDG@CoRegisterClassObject?$AA@ 5f58d848   oledata.obj
 0002:00002860       ??_C@_0BE@BPKP@CoRevokeClassObject?$AA@ 5f58d860   oledata.obj
 0002:00002874       ??_C@_0BI@NBOK@OleTranslateAccelerator?$AA@ 5f58d874   oledata.obj
 0002:0000288c       ??_C@_0O@DIHD@IsAccelerator?$AA@ 5f58d88c   oledata.obj
 0002:0000289c       ??_C@_0BI@BNNJ@OleCreateMenuDescriptor?$AA@ 5f58d89c   oledata.obj
 0002:000028b4       ??_C@_0BJ@FPGM@OleDestroyMenuDescriptor?$AA@ 5f58d8b4   oledata.obj
 0002:000028d0       ??_C@_0BG@MKEE@GetRunningObjectTable?$AA@ 5f58d8d0   oledata.obj
 0002:000028e8       ??_C@_0O@BJAB@WriteClassStg?$AA@ 5f58d8e8   oledata.obj
 0002:000028f8       ??_C@_0BF@MANO@OleQueryLinkFromData?$AA@ 5f58d8f8   oledata.obj
 0002:00002910       ??_C@_0BI@BNGE@CoRegisterMessageFilter?$AA@ 5f58d910   oledata.obj
 0002:00002928       ??_C@_0BB@NMLE@CoCreateInstance?$AA@ 5f58d928   oledata.obj
 0002:0000293c       ??_C@_0O@ECEL@CreateBindCtx?$AA@ 5f58d93c   oledata.obj
 0002:0000294c       ??_C@_0BA@LAP@StringFromCLSID?$AA@ 5f58d94c   oledata.obj
 0002:0000295c       ??_C@_0BD@FHMA@CoDisconnectObject?$AA@ 5f58d95c   oledata.obj
 0002:00002970       ??_C@_0BA@EPLO@OleRegEnumVerbs?$AA@ 5f58d970   oledata.obj
 0002:00002980       ??_C@_0BA@EBMG@OleUninitialize?$AA@ 5f58d980   oledata.obj
 0002:00002990       ??_C@_0BG@IIMB@CreateOleAdviseHolder?$AA@ 5f58d990   oledata.obj
 0002:000029a8       ??_C@_0BH@ONAA@CreateDataAdviseHolder?$AA@ 5f58d9a8   oledata.obj
 0002:000029c0       ??_C@_0BC@IDOF@OleGetAutoConvert?$AA@ 5f58d9c0   oledata.obj
 0002:000029d4       ??_C@_0BB@OJLJ@CoGetClassObject?$AA@ 5f58d9d4   oledata.obj
 0002:000029e8       ??_C@_0BI@MJPD@OleCreateDefaultHandler?$AA@ 5f58d9e8   oledata.obj
 0002:00002a00       ??_C@_0BA@LKEF@CreateDataCache?$AA@ 5f58da00   oledata.obj
 0002:00002a10       ??_C@_0N@COIF@ReadClassStm?$AA@ 5f58da10   oledata.obj
 0002:00002a20       ??_C@_0BC@MAIF@OleLoadFromStream?$AA@ 5f58da20   oledata.obj
 0002:00002a34       ??_C@_0BA@JMPN@StringFromGUID2?$AA@ 5f58da34   oledata.obj
 0002:00002a44       ??_C@_0P@PBBF@CoUninitialize?$AA@ 5f58da44   oledata.obj
 0002:00002a54       ??_C@_0N@OOAF@CoInitialize?$AA@ 5f58da54   oledata.obj
 0002:00002a64       ??_C@_0O@NKOA@OleInitialize?$AA@ 5f58da64   oledata.obj
 0002:00002a74       ??_C@_0BG@JPMJ@CoFreeUnusedLibraries?$AA@ 5f58da74   oledata.obj
 0002:00002a8c       ??_C@_0BC@PDII@OleCreateFromData?$AA@ 5f58da8c   oledata.obj
 0002:00002aa0       ??_C@_0BG@GOAI@OleSetContainedObject?$AA@ 5f58daa0   oledata.obj
 0002:00002ab8       ??_C@_0P@NFJJ@OleLockRunning?$AA@ 5f58dab8   oledata.obj
 0002:00002ac8       ??_C@_0P@HIOO@CoTaskMemAlloc?$AA@ 5f58dac8   oledata.obj
 0002:00002ad8       ??_C@_0BA@MEAI@CLSIDFromString?$AA@ 5f58dad8   oledata.obj
 0002:00002ae8       ??_C@_0BA@BAAA@CLSIDFromProgID?$AA@ 5f58dae8   oledata.obj
 0002:00002af8       ??_C@_0BG@LOIL@OleIsCurrentClipboard?$AA@ 5f58daf8   oledata.obj
 0002:00002b10       ??_C@_0BC@KOJB@OleFlushClipboard?$AA@ 5f58db10   oledata.obj
 0002:00002b24       ??_C@_0BA@OHGK@OleSetClipboard?$AA@ 5f58db24   oledata.obj
 0002:00002b34       ??_C@_0N@DPBH@OleIsRunning?$AA@ 5f58db34   oledata.obj
 0002:00002b44       ??_C@_06OKKN@OleRun?$AA@   5f58db44   oledata.obj
 0002:00002b4c       ??_C@_0BA@IOGI@OleGetClipboard?$AA@ 5f58db4c   oledata.obj
 0002:00002b5c       ??_C@_0P@CPCO@CoTreatAsClass?$AA@ 5f58db5c   oledata.obj
 0002:00002b6c       ??_C@_0BH@PLKE@OleQueryCreateFromData?$AA@ 5f58db6c   oledata.obj
 0002:00002b84       ??_C@_0BF@CBBF@OleSetMenuDescriptor?$AA@ 5f58db84   oledata.obj
 0002:00002b9c       ??_C@_0BC@CIFP@CreateItemMoniker?$AA@ 5f58db9c   oledata.obj
 0002:00002bb0       ??_C@_0BH@IOJA@CreateGenericComposite?$AA@ 5f58dbb0   oledata.obj
 0002:00002bc8       ??_C@_0BG@GBMH@CreateStreamOnHGlobal?$AA@ 5f58dbc8   oledata.obj
 0002:00002be0       ??_C@_0BA@FHLA@OleSaveToStream?$AA@ 5f58dbe0   oledata.obj
 0002:00002bf0       ??_C@_0O@BIJH@WriteClassStm?$AA@ 5f58dbf0   oledata.obj
 0002:00002c00       ??_C@_0O@HCPD@CoTaskMemFree?$AA@ 5f58dc00   oledata.obj
 0002:00002c10       ??_C@_0BC@NOGN@OleGetIconOfClass?$AA@ 5f58dc10   oledata.obj
 0002:00002c24       ??_C@_0BB@MOII@ReleaseStgMedium?$AA@ 5f58dc24   oledata.obj
 0002:00002c38       ??_C@_0BJ@OPCH@GetHGlobalFromILockBytes?$AA@ 5f58dc38   oledata.obj
 0002:00002c54       ??_C@_0BL@OKLN@StgOpenStorageOnILockBytes?$AA@ 5f58dc54   oledata.obj
 0002:00002c70       ??_C@_0BK@MJJH@CreateILockBytesOnHGlobal?$AA@ 5f58dc70   oledata.obj
 0002:00002c8c       ??_C@_0BN@OHEP@StgCreateDocfileOnILockBytes?$AA@ 5f58dc8c   oledata.obj
 0002:00002cac       ??_C@_07HMJO@OleSave?$AA@  5f58dcac   oledata.obj
 0002:00002cb4       ??_C@_07CEDI@OleLoad?$AA@  5f58dcb4   oledata.obj
 0002:00002cbc       ??_C@_09LJLH@OleCreate?$AA@ 5f58dcbc   oledata.obj
 0002:00002cc8       ??_C@_0BE@INML@OleCreateLinkToFile?$AA@ 5f58dcc8   oledata.obj
 0002:00002cdc       ??_C@_0BC@FMDI@OleCreateFromFile?$AA@ 5f58dcdc   oledata.obj
 0002:00002cf0       ??_C@_0BI@NMGO@OleCreateStaticFromData?$AA@ 5f58dcf0   oledata.obj
 0002:00002d08       ??_C@_0BG@EDCD@OleCreateLinkFromData?$AA@ 5f58dd08   oledata.obj
 0002:00002d20       ??_C@_0O@OCLP@SetConvertStg?$AA@ 5f58dd20   oledata.obj
 0002:00002d30       ??_C@_0BB@LGIA@OleDuplicateData?$AA@ 5f58dd30   oledata.obj
 0002:00002d44       ??_C@_0BE@BAAB@WriteFmtUserTypeStg?$AA@ 5f58dd44   oledata.obj
 0002:00002d58       ??_C@_0BE@JDCJ@OleRegGetMiscStatus?$AA@ 5f58dd58   oledata.obj
 0002:00002d6c       ??_C@_0M@IMDF@CoGetMalloc?$AA@ 5f58dd6c   oledata.obj
 0002:00002d78       ??_C@_0BH@FBKD@StgIsStorageILockBytes?$AA@ 5f58dd78   oledata.obj
 0002:00002d90       ??_C@_0BL@KJFF@RegisterBindStatusCallback?$AA@ 5f58dd90   oledata.obj
 0002:00002dac       ??_C@_0L@MIHB@URLMON?4DLL?$AA@ 5f58ddac   oledata.obj
 0002:00002db8       ??_C@_0BJ@DDPL@RevokeBindStatusCallback?$AA@ 5f58ddb8   oledata.obj
 0002:00002dd4       ??_C@_0P@LIML@IsAsyncMoniker?$AA@ 5f58ddd4   oledata.obj
 0002:00002de4       ??_C@_0BB@NJCH@CreateURLMoniker?$AA@ 5f58dde4   oledata.obj
 0002:00002df8       ??_C@_0BD@CFKO@CreateAsyncBindCtx?$AA@ 5f58ddf8   oledata.obj
 0002:00002e14       ??_7_AFX_OLE_STATE@@6B@    5f58de14   oledata.obj
 0002:00002e1c       ??_7CNoTrackObject@@6B@    5f58de1c   oledata.obj
 0002:00002e20       ??_C@_0P@ODMG@COleServerItem?$AA@ 5f58de20   oledoc1.obj
 0002:00002e30       ??_C@_0P@JNNP@COleClientItem?$AA@ 5f58de30   oledoc1.obj
 0002:00002e40       ??_C@_0N@KLEF@COleDocument?$AA@ 5f58de40   oledoc1.obj
 0002:00002e50       ??_C@_08NNLJ@CDocItem?$AA@ 5f58de50   oledoc1.obj
 0002:00002e78       ?classCOleDocument@COleDocument@@2UCRuntimeClass@@B 5f58de78   oledoc1.obj
 0002:00002e90       ?classCOleClientItem@COleClientItem@@2UCRuntimeClass@@B 5f58de90   oledoc1.obj
 0002:00002ea8       ?classCOleServerItem@COleServerItem@@2UCRuntimeClass@@B 5f58dea8   oledoc1.obj
 0002:00002ec0       ??_C@_1FI@DJMI@?$AA?7?$AAp?$AAe?$AAr?$AAh?$AAa?$AAp?$AAs?$AA?5?$AAA?$AAf?$AAx?$AAO?$AAl?$AAe?$AAI?$AAn?$AAi?$AAt?$AA?$CI@ 5f58dec0   oledoc1.obj
 0002:00002f18       ??_C@_1GE@FOMJ@?$AAW?$AAa?$AAr?$AAn?$AAi?$AAn?$AAg?$AA?3?$AA?5?$AAC?$AAo?$AAG?$AAe?$AAt?$AAM?$AAa?$AAl?$AAl?$AAo?$AAc@ 5f58df18   oledoc1.obj
 0002:00002f84       ??_7COleDocument@@6B@      5f58df84   oledoc1.obj
 0002:0000306c       ??_C@_1GK@HFJD@?$AAW?$AAa?$AAr?$AAn?$AAi?$AAn?$AAg?$AA?3?$AA?5?$AAd?$AAe?$AAs?$AAt?$AAr?$AAo?$AAy?$AAi?$AAn?$AAg?$AA?5@ 5f58e06c   oledoc1.obj
 0002:000030d8       ??_C@_1GO@PBDE@?$AAW?$AAa?$AAr?$AAn?$AAi?$AAn?$AAg?$AA?3?$AA?5?$AAO?$AAn?$AAO?$AAp?$AAe?$AAn?$AAD?$AAo?$AAc?$AAu?$AAm@ 5f58e0d8   oledoc1.obj
 0002:00003148       ??_C@_09HEBF@?6m_ptd?5?$DN?5?$AA@ 5f58e148   oledoc1.obj
 0002:00003154       ??_C@_0BA@DJOI@?6m_bRemember?5?$DN?5?$AA@ 5f58e154   oledoc1.obj
 0002:00003164       ??_C@_0BC@BIJ@?6m_bSameAsLoad?5?$DN?5?$AA@ 5f58e164   oledoc1.obj
 0002:00003178       ??_C@_0BA@MPDA@?6m_lpRootStg?5?$DN?5?$AA@ 5f58e178   oledoc1.obj
 0002:00003188       ??_C@_0BA@IKCF@?6m_bEmbedded?5?$DN?5?$AA@ 5f58e188   oledoc1.obj
 0002:00003198       ??_C@_0BD@KBMC@?6m_bLastVisible?5?$DN?5?$AA@ 5f58e198   oledoc1.obj
 0002:000031ac       ??_C@_0BH@BKJA@?6m_dwNextItemNumber?5?$DN?5?$AA@ 5f58e1ac   oledoc1.obj
 0002:000031c4       ??_C@_0L@EFON@?5doc?5items?$AA@ 5f58e1c4   oledoc1.obj
 0002:000031d0       ??_C@_05KIFI@with?5?$AA@   5f58e1d0   oledoc1.obj
 0002:000031dc       ??_7CDocItem@@6B@          5f58e1dc   oledoc1.obj
 0002:00003238       ??_C@_0P@NBEM@m_pDocument?5?$DN?5?$AA@ 5f58e238   oledoc1.obj
 0002:0000324c       ??_7CMonikerFile@@6B@      5f58e24c   oledoc1.obj
 0002:00003300       ?interfaceMap@COleDropSource@@1UAFX_INTERFACEMAP@@B 5f58e300   oledrop1.obj
 0002:00003308       ?_interfaceEntries@COleDropSource@@0PBUAFX_INTERFACEMAP_ENTRY@@B 5f58e308   oledrop1.obj
 0002:0000331c       ??_7COleDropSource@@6B@    5f58e31c   oledrop1.obj
 0002:00003384       ??_7XDropSource@COleDropSource@@6B@ 5f58e384   oledrop1.obj
 0002:0000339c       ??_7IDropSource@@6B@       5f58e39c   oledrop1.obj
 0002:000033b0       ??_C@_0BL@ICEB@?6m_rectStartDrag?4bottom?5?$DN?5?$AA@ 5f58e3b0   oledrop1.obj
 0002:000033cc       ??_C@_0BK@NCCF@?6m_rectStartDrag?4right?5?$DN?5?$AA@ 5f58e3cc   oledrop1.obj
 0002:000033e8       ??_C@_0BI@LLBJ@?6m_rectStartDrag?4top?5?$DN?5?$AA@ 5f58e3e8   oledrop1.obj
 0002:00003400       ??_C@_0BJ@IMOF@?6m_rectStartDrag?4left?5?$DN?5?$AA@ 5f58e400   oledrop1.obj
 0002:0000341c       ??_C@_0BC@ECHL@m_bDragStarted?5?$DN?5?$AA@ 5f58e41c   oledrop1.obj
 0002:000034a8       ?interfaceMap@COleDropTarget@@1UAFX_INTERFACEMAP@@B 5f58e4a8   oledrop2.obj
 0002:000034b0       ?_interfaceEntries@COleDropTarget@@0PBUAFX_INTERFACEMAP_ENTRY@@B 5f58e4b0   oledrop2.obj
 0002:000034c4       ??_7COleDropTarget@@6B@    5f58e4c4   oledrop2.obj
 0002:0000353c       ??_7XDropTarget@COleDropTarget@@6B@ 5f58e53c   oledrop2.obj
 0002:0000355c       ??_7IDropTarget@@6B@       5f58e55c   oledrop2.obj
 0002:00003578       ??_C@_1EM@CLN@?$AA?7?$AAm?$AAa?$AAy?$AA?5?$AAc?$AAa?$AAu?$AAs?$AAe?$AA?5?$AAR?$AAI?$AAP?$AAs?$AA?5?$AAu?$AAn?$AAd?$AAe@ 5f58e578   oledrop2.obj
 0002:000035c4       ??_C@_1HA@KAFM@?$AAC?$AAO?$AAl?$AAe?$AAD?$AAr?$AAo?$AAp?$AAT?$AAa?$AAr?$AAg?$AAe?$AAt?$AA?3?$AA?3?$AAR?$AAe?$AAv?$AAo@ 5f58e5c4   oledrop2.obj
 0002:00003634       ??_C@_0BB@OINI@?6m_dwLastTick?5?$DN?5?$AA@ 5f58e634   oledrop2.obj
 0002:00003648       ??_C@_0P@NGLE@?6m_nTimerID?5?$DN?5?$AA@ 5f58e648   oledrop2.obj
 0002:00003658       ??_C@_0BD@KEMD@?6m_lpDataObject?5?$DN?5?$AA@ 5f58e658   oledrop2.obj
 0002:0000366c       ??_C@_09BKNC@m_hWnd?5?$DN?5?$AA@ 5f58e66c   oledrop2.obj
 0002:00003678       ?interfaceMap@COleMessageFilter@@1UAFX_INTERFACEMAP@@B 5f58e678   olemsgf.obj
 0002:00003680       ?_interfaceEntries@COleMessageFilter@@0PBUAFX_INTERFACEMAP_ENTRY@@B 5f58e680   olemsgf.obj
 0002:00003694       ??_7COleMessageFilter@@6B@ 5f58e694   olemsgf.obj
 0002:0000370c       ??_7XMessageFilter@COleMessageFilter@@6B@ 5f58e70c   olemsgf.obj
 0002:0000372c       ??_7IMessageFilter@@6B@    5f58e72c   olemsgf.obj
 0002:00003744       ??_C@_0P@JKLE@?6m_nTimeout?5?$DN?5?$AA@ 5f58e744   olemsgf.obj
 0002:00003754       ??_C@_0BB@PGOJ@?6m_nBusyReply?5?$DN?5?$AA@ 5f58e754   olemsgf.obj
 0002:00003768       ??_C@_0BC@GKAC@?6m_nRetryReply?5?$DN?5?$AA@ 5f58e768   olemsgf.obj
 0002:0000377c       ??_C@_0BC@IEIC@?6m_bUnblocking?5?$DN?5?$AA@ 5f58e77c   olemsgf.obj
 0002:00003790       ??_C@_0BL@KMOL@?6m_bEnableNotResponding?5?$DN?5?$AA@ 5f58e790   olemsgf.obj
 0002:000037ac       ??_C@_0BC@KPPB@?6m_bEnableBusy?5?$DN?5?$AA@ 5f58e7ac   olemsgf.obj
 0002:000037c0       ??_C@_0BB@MEI@?6m_nBusyCount?5?$DN?5?$AA@ 5f58e7c0   olemsgf.obj
 0002:000037d4       ??_C@_0BB@EDJN@m_bRegistered?5?$DN?5?$AA@ 5f58e7d4   olemsgf.obj
 0002:000037ec       ??_7CEnumArray@@6B@        5f58e7ec   oleenum.obj
 0002:0000385c       ??_7XEnumVOID@CEnumArray@@6B@ 5f58e85c   oleenum.obj
 0002:0000387c       ??_7IEnumVOID@@6B@         5f58e87c   oleenum.obj
 0002:00003898       ??_C@_0BC@HKPN@COleObjectFactory?$AA@ 5f58e898   olefact.obj
 0002:000038b0       ?interfaceMap@COleObjectFactory@@1UAFX_INTERFACEMAP@@B 5f58e8b0   olefact.obj
 0002:000038b8       ?_interfaceEntries@COleObjectFactory@@0PBUAFX_INTERFACEMAP_ENTRY@@B 5f58e8b8   olefact.obj
 0002:000038d0       ?classCOleObjectFactory@COleObjectFactory@@2UCRuntimeClass@@B 5f58e8d0   olefact.obj
 0002:000038ec       ??_7COleObjectFactory@@6B@ 5f58e8ec   olefact.obj
 0002:00003964       ??_7XClassFactory@COleObjectFactory@@6B@ 5f58e964   olefact.obj
 0002:0000398c       ??_7IClassFactory2@@6B@    5f58e98c   olefact.obj
 0002:000039b4       ??_7IClassFactory@@6B@     5f58e9b4   olefact.obj
 0002:000039c8       ??_C@_1GG@DMOB@?$AAW?$AAa?$AAr?$AAn?$AAi?$AAn?$AAg?$AA?3?$AA?5?$AAC?$AAo?$AAR?$AAe?$AAg?$AAi?$AAs?$AAt?$AAe?$AAr?$AAC@ 5f58e9c8   olefact.obj
 0002:00003a30       ??_C@_1FO@HNKF@?$AAW?$AAa?$AAr?$AAn?$AAi?$AAn?$AAg?$AA?3?$AA?5?$AAo?$AAb?$AAj?$AAe?$AAc?$AAt?$AA?5?$AAc?$AAr?$AAe?$AAa@ 5f58ea30   olefact.obj
 0002:00003a90       ??_C@_0BE@OGII@?6m_bLicenseValid?5?$DN?5?$AA@ 5f58ea90   olefact.obj
 0002:00003aa4       ??_C@_0BG@HOFD@?6m_bLicenseChecked?5?$DN?5?$AA@ 5f58eaa4   olefact.obj
 0002:00003abc       ??_C@_0BB@CECH@?6m_lpszProgID?5?$DN?5?$AA@ 5f58eabc   olefact.obj
 0002:00003ad0       ??_C@_0BF@OMHN@?6m_bMultiInstance?5?$DN?5?$AA@ 5f58ead0   olefact.obj
 0002:00003ae8       ??_C@_0BE@BMEC@?6m_pRuntimeClass?5?$DN?5?$AA@ 5f58eae8   olefact.obj
 0002:00003afc       ??_C@_0M@GKHL@?6m_clsid?5?$DN?5?$AA@ 5f58eafc   olefact.obj
 0002:00003b08       ??_C@_0BC@KNA@?6m_bRegistered?5?$DN?5?$AA@ 5f58eb08   olefact.obj
 0002:00003b1c       ??_C@_0BB@GHJL@?6m_dwRegister?5?$DN?5?$AA@ 5f58eb1c   olefact.obj
 0002:00003b30       ??_C@_0BC@HEHA@m_pNextFactory?5?$DN?5?$AA@ 5f58eb30   olefact.obj
 0002:00003b44       ??_C@_0P@CBLJ@COleIPFrameWnd?$AA@ 5f58eb44   oleipfrm.obj
 0002:00003b58       ?messageMap@COleIPFrameWnd@@1UAFX_MSGMAP@@B 5f58eb58   oleipfrm.obj
 0002:00003b60       ?_messageEntries@COleIPFrameWnd@@0PBUAFX_MSGMAP_ENTRY@@B 5f58eb60   oleipfrm.obj
 0002:00003c98       ?classCOleIPFrameWnd@COleIPFrameWnd@@2UCRuntimeClass@@B 5f58ec98   oleipfrm.obj
 0002:00003cb4       ??_7COleCntrFrameWnd@@6B@  5f58ecb4   oleipfrm.obj
 0002:00003db4       ??_7COleIPFrameWnd@@6B@    5f58edb4   oleipfrm.obj
 0002:00003ed0       ??_C@_0BC@GPEG@?6m_hSharedMenu?5?$DN?5?$AA@ 5f58eed0   oleipfrm.obj
 0002:00003ee4       ??_C@_0BE@EIME@?6m_bInsideRecalc?5?$DN?5?$AA@ 5f58eee4   oleipfrm.obj
 0002:00003ef8       ??_C@_0P@MHEP@?6m_rectClip?5?$DN?5?$AA@ 5f58eef8   oleipfrm.obj
 0002:00003f08       ??_C@_0O@FEOJ@?6m_rectPos?5?$DN?5?$AA@ 5f58ef08   oleipfrm.obj
 0002:00003f18       ??_C@_0P@JLOC@?6m_hOleMenu?5?$DN?5?$AA@ 5f58ef18   oleipfrm.obj
 0002:00003f28       ??_C@_0BB@PHGG@?6m_lpDocFrame?5?$DN?5?$AA@ 5f58ef28   oleipfrm.obj
 0002:00003f3c       ??_C@_0N@LBG@m_lpFrame?5?$DN?5?$AA@ 5f58ef3c   oleipfrm.obj
 0002:00003f50       ?interfaceMap@COleLinkingDoc@@1UAFX_INTERFACEMAP@@B 5f58ef50   olelink.obj
 0002:00003f58       ?_interfaceEntries@COleLinkingDoc@@0PBUAFX_INTERFACEMAP_ENTRY@@B 5f58ef58   olelink.obj
 0002:00003f8c       ??_7COleLinkingDoc@@6B@    5f58ef8c   olelink.obj
 0002:00004084       ??_7XPersistFile@COleLinkingDoc@@6B@ 5f58f084   olelink.obj
 0002:000040ac       ??_7XOleItemContainer@COleLinkingDoc@@6B@ 5f58f0ac   olelink.obj
 0002:000040d4       ??_7IPersistFile@@6B@      5f58f0d4   olelink.obj
 0002:000040fc       ??_7IOleItemContainer@@6B@ 5f58f0fc   olelink.obj
 0002:00004124       ??_7IPersist@@6B@          5f58f124   olelink.obj
 0002:0000413c       ??_7IOleContainer@@6B@     5f58f13c   olelink.obj
 0002:0000415c       ??_7IParseDisplayName@@6B@ 5f58f15c   olelink.obj
 0002:0000416c       ??_C@_11A@?$AA?$AA?$AA?$AA@ 5f58f16c   olelink.obj
 0002:00004170       ??_C@_1GK@LNHN@?$AAW?$AAa?$AAr?$AAn?$AAi?$AAn?$AAg?$AA?3?$AA?5?$AAU?$AAn?$AAa?$AAb?$AAl?$AAe?$AA?5?$AAt?$AAo?$AA?5?$AAr@ 5f58f170   olelink.obj
 0002:000041dc       ??_C@_1FG@NCHM@?$AA?7?$AAi?$AAm?$AAp?$AAl?$AAe?$AAm?$AAe?$AAn?$AAt?$AAa?$AAt?$AAi?$AAo?$AAn?$AA?5?$AAf?$AAa?$AAi?$AAl@ 5f58f1dc   olelink.obj
 0002:00004234       ??_C@_1GK@FBPP@?$AAW?$AAa?$AAr?$AAn?$AAi?$AAn?$AAg?$AA?3?$AA?5?$AAd?$AAe?$AAf?$AAa?$AAu?$AAl?$AAt?$AA?5?$AAC?$AAO?$AAl@ 5f58f234   olelink.obj
 0002:000042a0       ??_C@_0BB@BIHL@?6with?5no?5factory?$AA@ 5f58f2a0   olelink.obj
 0002:000042b4       ??_C@_0BA@KOFE@?6with?5factory?3?5?$AA@ 5f58f2b4   olelink.obj
 0002:000042c4       ??_C@_0BD@KPFI@?6m_bVisibleLock?5?$DN?5?$AA@ 5f58f2c4   olelink.obj
 0002:000042d8       ??_C@_0O@EEPE@COleException?$AA@ 5f58f2d8   olemisc.obj
 0002:000042e8       ??_C@_1CC@PGEG@?$AAF?$AAA?$AAC?$AAI?$AAL?$AAI?$AAT?$AAY?$AA_?$AAW?$AAI?$AAN?$AAD?$AAO?$AAW?$AAS?$AA?$AA?$AA?$AA?$AA?$AH?$AA?$AA@ 5f58f2e8   olemisc.obj
 0002:0000430c       ??_C@_1BO@NG@?$AAF?$AAA?$AAC?$AAI?$AAL?$AAI?$AAT?$AAY?$AA_?$AAW?$AAI?$AAN?$AA3?$AA2?$AA?$AA?$AA?$AA?$AA?$AH?$AA?$AA?$AA?$AA?$AA?$AA@ 5f58f30c   olemisc.obj
 0002:0000432c       ??_C@_1BM@IBDA@?$AAF?$AAA?$AAC?$AAI?$AAL?$AAI?$AAT?$AAY?$AA_?$AA0?$AAx?$AA0?$AA6?$AA?$AA?$AA?$AH?$AA?$AA?$AA?$AA?$AA?$AA?$AF?5?$AF?$:O@ 5f58f32c   olemisc.obj
 0002:00004348       ??_C@_1BM@HHAL@?$AAF?$AAA?$AAC?$AAI?$AAL?$AAI?$AAT?$AAY?$AA_?$AA0?$AAx?$AA0?$AA5?$AA?$AA?$AA?$AH?$AA?$AA?$AA?$AA?$AA?$AA?$AE?$AF?$:O@ 5f58f348   olemisc.obj
 0002:00004364       ??_C@_1BK@BANM@?$AAF?$AAA?$AAC?$AAI?$AAL?$AAI?$AAT?$AAY?$AA_?$AAI?$AAT?$AAF?$AA?$AA?$AA?$AA?$AA?$AH?$AA?$AA?$AA?$AA?$AA?$AA?$AE?$;I?$AF?$:O@ 5f58f364   olemisc.obj
 0002:00004380       ??_C@_1CC@GKIJ@?$AAF?$AAA?$AAC?$AAI?$AAL?$AAI?$AAT?$AAY?$AA_?$AAS?$AAT?$AAO?$AAR?$AAA?$AAG?$AAE?$AA?$AA?$AA?$AA?$AA?$AH?$AA?$AA@ 5f58f380   olemisc.obj
 0002:000043a4       ??_C@_1CE@DPAP@?$AAF?$AAA?$AAC?$AAI?$AAL?$AAI?$AAT?$AAY?$AA_?$AAD?$AAI?$AAS?$AAP?$AAA?$AAT?$AAC?$AAH?$AA?$AA?$AA?$AH?$AA?$AA@ 5f58f3a4   olemisc.obj
 0002:000043c8       ??_C@_1BK@GEEM@?$AAF?$AAA?$AAC?$AAI?$AAL?$AAI?$AAT?$AAY?$AA_?$AAR?$AAP?$AAC?$AA?$AA?$AA?$AA?$AA?$AH?$AA?$AA?$AA?$AA?$AA?$AA?$AD?$AF?$:O@ 5f58f3c8   olemisc.obj
 0002:000043e4       ??_C@_1BM@IPAO@?$AAF?$AAA?$AAC?$AAI?$AAL?$AAI?$AAT?$AAY?$AA_?$AAN?$AAU?$AAL?$AAL?$AA?$AA?$AA?$AH?$AA?$AA?$AA?$AA?$AA?$AA?$AD?$;I?$AF?$:O@ 5f58f3e4   olemisc.obj
 0002:00004400       ??_C@_1BO@IFJE@?$AAS?$AAE?$AAV?$AAE?$AAR?$AAI?$AAT?$AAY?$AA_?$AAE?$AAR?$AAR?$AAO?$AAR?$AA?$AA?$AA?$AA?$AA?$AH?$AA?$AA?$AA?$AA?$AA?$AA@ 5f58f400   olemisc.obj
 0002:00004420       ??_C@_1CC@NIDK@?$AAS?$AAE?$AAV?$AAE?$AAR?$AAI?$AAT?$AAY?$AA_?$AAS?$AAU?$AAC?$AAC?$AAE?$AAS?$AAS?$AA?$AA?$AA?$AA?$AA?$AH?$AA?$AA@ 5f58f420   olemisc.obj
 0002:00004444       ??_C@_1DG@GLBJ@?$AAV?$AAI?$AAE?$AAW?$AA_?$AAS?$AA_?$AAF?$AAI?$AAR?$AAS?$AAT?$AA?4?$AA?4?$AA?4?$AAV?$AAI?$AAE?$AAW?$AA_@ 5f58f444   olemisc.obj
 0002:0000447c       ??_C@_1DG@GICE@?$AAV?$AAI?$AAE?$AAW?$AA_?$AAE?$AA_?$AAF?$AAI?$AAR?$AAS?$AAT?$AA?4?$AA?4?$AA?4?$AAV?$AAI?$AAE?$AAW?$AA_@ 5f58f47c   olemisc.obj
 0002:000044b4       ??_C@_1DK@NFLN@?$AAR?$AAE?$AAG?$AAD?$AAB?$AA_?$AAS?$AA_?$AAF?$AAI?$AAR?$AAS?$AAT?$AA?4?$AA?4?$AA?4?$AAR?$AAE?$AAG?$AAD@ 5f58f4b4   olemisc.obj
 0002:000044f0       ??_C@_1DK@OKIK@?$AAR?$AAE?$AAG?$AAD?$AAB?$AA_?$AAE?$AA_?$AAF?$AAI?$AAR?$AAS?$AAT?$AA?4?$AA?4?$AA?4?$AAR?$AAE?$AAG?$AAD@ 5f58f4f0   olemisc.obj
 0002:0000452c       ??_C@_1DC@MINK@?$AAO?$AAL?$AAE?$AA_?$AAS?$AA_?$AAF?$AAI?$AAR?$AAS?$AAT?$AA?4?$AA?4?$AA?4?$AAO?$AAL?$AAE?$AA_?$AAS?$AA_@ 5f58f52c   olemisc.obj
 0002:00004560       ??_C@_1DC@FBFB@?$AAO?$AAL?$AAE?$AA_?$AAE?$AA_?$AAF?$AAI?$AAR?$AAS?$AAT?$AA?4?$AA?4?$AA?4?$AAO?$AAL?$AAE?$AA_?$AAE?$AA_@ 5f58f560   olemisc.obj
 0002:00004594       ??_C@_1DO@NBMI@?$AAO?$AAL?$AAE?$AAO?$AAB?$AAJ?$AA_?$AAS?$AA_?$AAF?$AAI?$AAR?$AAS?$AAT?$AA?4?$AA?4?$AA?4?$AAO?$AAL?$AAE@ 5f58f594   olemisc.obj
 0002:000045d4       ??_C@_1DO@JPIG@?$AAO?$AAL?$AAE?$AAO?$AAB?$AAJ?$AA_?$AAE?$AA_?$AAF?$AAI?$AAR?$AAS?$AAT?$AA?4?$AA?4?$AA?4?$AAO?$AAL?$AAE@ 5f58f5d4   olemisc.obj
 0002:00004614       ??_C@_1CO@DJDM@?$AAM?$AAK?$AA_?$AAS?$AA_?$AAF?$AAI?$AAR?$AAS?$AAT?$AA?4?$AA?4?$AA?4?$AAM?$AAK?$AA_?$AAS?$AA_?$AAL?$AAA@ 5f58f614   olemisc.obj
 0002:00004644       ??_C@_1CO@CEOJ@?$AAM?$AAK?$AA_?$AAE?$AA_?$AAF?$AAI?$AAR?$AAS?$AAT?$AA?4?$AA?4?$AA?4?$AAM?$AAK?$AA_?$AAE?$AA_?$AAL?$AAA@ 5f58f644   olemisc.obj
 0002:00004674       ??_C@_1EC@HBAE@?$AAM?$AAA?$AAR?$AAS?$AAH?$AAA?$AAL?$AA_?$AAS?$AA_?$AAF?$AAI?$AAR?$AAS?$AAT?$AA?4?$AA?4?$AA?4?$AAM?$AAA@ 5f58f674   olemisc.obj
 0002:000046b8       ??_C@_1EC@NFIJ@?$AAM?$AAA?$AAR?$AAS?$AAH?$AAA?$AAL?$AA_?$AAE?$AA_?$AAF?$AAI?$AAR?$AAS?$AAT?$AA?4?$AA?4?$AA?4?$AAM?$AAA@ 5f58f6b8   olemisc.obj
 0002:000046fc       ??_C@_1EC@JFOO@?$AAI?$AAN?$AAP?$AAL?$AAA?$AAC?$AAE?$AA_?$AAS?$AA_?$AAF?$AAI?$AAR?$AAS?$AAT?$AA?4?$AA?4?$AA?4?$AAI?$AAN@ 5f58f6fc   olemisc.obj
 0002:00004740       ??_C@_1EC@DBGD@?$AAI?$AAN?$AAP?$AAL?$AAA?$AAC?$AAE?$AA_?$AAE?$AA_?$AAF?$AAI?$AAR?$AAS?$AAT?$AA?4?$AA?4?$AA?4?$AAI?$AAN@ 5f58f740   olemisc.obj
 0002:00004784       ??_C@_1DG@DHLN@?$AAE?$AAN?$AAU?$AAM?$AA_?$AAS?$AA_?$AAF?$AAI?$AAR?$AAS?$AAT?$AA?4?$AA?4?$AA?4?$AAE?$AAN?$AAU?$AAM?$AA_@ 5f58f784   olemisc.obj
 0002:000047bc       ??_C@_1DG@DEIA@?$AAE?$AAN?$AAU?$AAM?$AA_?$AAE?$AA_?$AAF?$AAI?$AAR?$AAS?$AAT?$AA?4?$AA?4?$AA?4?$AAE?$AAN?$AAU?$AAM?$AA_@ 5f58f7bc   olemisc.obj
 0002:000047f4       ??_C@_1EG@IIDN@?$AAD?$AAR?$AAA?$AAG?$AAD?$AAR?$AAO?$AAP?$AA_?$AAS?$AA_?$AAF?$AAI?$AAR?$AAS?$AAT?$AA?4?$AA?4?$AA?4?$AAD@ 5f58f7f4   olemisc.obj
 0002:0000483c       ??_C@_1EG@NPND@?$AAD?$AAR?$AAA?$AAG?$AAD?$AAR?$AAO?$AAP?$AA_?$AAE?$AA_?$AAF?$AAI?$AAR?$AAS?$AAT?$AA?4?$AA?4?$AA?4?$AAD@ 5f58f83c   olemisc.obj
 0002:00004884       ??_C@_1DG@MMKC@?$AAD?$AAA?$AAT?$AAA?$AA_?$AAS?$AA_?$AAF?$AAI?$AAR?$AAS?$AAT?$AA?4?$AA?4?$AA?4?$AAD?$AAA?$AAT?$AAA?$AA_@ 5f58f884   olemisc.obj
 0002:000048bc       ??_C@_1DG@MPJP@?$AAD?$AAA?$AAT?$AAA?$AA_?$AAE?$AA_?$AAF?$AAI?$AAR?$AAS?$AAT?$AA?4?$AA?4?$AA?4?$AAD?$AAA?$AAT?$AAA?$AA_@ 5f58f8bc   olemisc.obj
 0002:000048f4       ??_C@_1CO@OOFB@?$AAC?$AAO?$AA_?$AAS?$AA_?$AAF?$AAI?$AAR?$AAS?$AAT?$AA?4?$AA?4?$AA?4?$AAC?$AAO?$AA_?$AAS?$AA_?$AAL?$AAA@ 5f58f8f4   olemisc.obj
 0002:00004924       ??_C@_1CO@PDIE@?$AAC?$AAO?$AA_?$AAE?$AA_?$AAF?$AAI?$AAR?$AAS?$AAT?$AA?4?$AA?4?$AA?4?$AAC?$AAO?$AA_?$AAE?$AA_?$AAL?$AAA@ 5f58f924   olemisc.obj
 0002:00004954       ??_C@_1EK@DHFD@?$AAC?$AAO?$AAN?$AAV?$AAE?$AAR?$AAT?$AA1?$AA0?$AA_?$AAS?$AA_?$AAF?$AAI?$AAR?$AAS?$AAT?$AA?4?$AA?4?$AA?4@ 5f58f954   olemisc.obj
 0002:000049a0       ??_C@_1EK@MBEP@?$AAC?$AAO?$AAN?$AAV?$AAE?$AAR?$AAT?$AA1?$AA0?$AA_?$AAE?$AA_?$AAF?$AAI?$AAR?$AAS?$AAT?$AA?4?$AA?4?$AA?4@ 5f58f9a0   olemisc.obj
 0002:000049ec       ??_C@_1EC@FKKE@?$AAC?$AAL?$AAI?$AAP?$AAB?$AAR?$AAD?$AA_?$AAS?$AA_?$AAF?$AAI?$AAR?$AAS?$AAT?$AA?4?$AA?4?$AA?4?$AAC?$AAL@ 5f58f9ec   olemisc.obj
 0002:00004a30       ??_C@_1EC@POCJ@?$AAC?$AAL?$AAI?$AAP?$AAB?$AAR?$AAD?$AA_?$AAE?$AA_?$AAF?$AAI?$AAR?$AAS?$AAT?$AA?4?$AA?4?$AA?4?$AAC?$AAL@ 5f58fa30   olemisc.obj
 0002:00004a74       ??_C@_1EO@FNCB@?$AAC?$AAL?$AAI?$AAE?$AAN?$AAT?$AAS?$AAI?$AAT?$AAE?$AA_?$AAS?$AA_?$AAF?$AAI?$AAR?$AAS?$AAT?$AA?4?$AA?4@ 5f58fa74   olemisc.obj
 0002:00004ac4       ??_C@_1EO@BCKI@?$AAC?$AAL?$AAI?$AAE?$AAN?$AAT?$AAS?$AAI?$AAT?$AAE?$AA_?$AAE?$AA_?$AAF?$AAI?$AAR?$AAS?$AAT?$AA?4?$AA?4@ 5f58fac4   olemisc.obj
 0002:00004b14       ??_C@_1FG@JJOH@?$AAC?$AAL?$AAA?$AAS?$AAS?$AAF?$AAA?$AAC?$AAT?$AAO?$AAR?$AAY?$AA_?$AAS?$AA_?$AAF?$AAI?$AAR?$AAS?$AAT@ 5f58fb14   olemisc.obj
 0002:00004b6c       ??_C@_1FG@MNFB@?$AAC?$AAL?$AAA?$AAS?$AAS?$AAF?$AAA?$AAC?$AAT?$AAO?$AAR?$AAY?$AA_?$AAE?$AA_?$AAF?$AAI?$AAR?$AAS?$AAT@ 5f58fb6c   olemisc.obj
 0002:00004bc4       ??_C@_1DK@PNKG@?$AAC?$AAA?$AAC?$AAH?$AAE?$AA_?$AAS?$AA_?$AAF?$AAI?$AAR?$AAS?$AAT?$AA?4?$AA?4?$AA?4?$AAC?$AAA?$AAC?$AAH@ 5f58fbc4   olemisc.obj
 0002:00004c00       ??_C@_1DK@MCJB@?$AAC?$AAA?$AAC?$AAH?$AAE?$AA_?$AAE?$AA_?$AAF?$AAI?$AAR?$AAS?$AAT?$AA?4?$AA?4?$AA?4?$AAC?$AAA?$AAC?$AAH@ 5f58fc00   olemisc.obj
 0002:00004c3c       ??_C@_1BI@OCCK@?$AAV?$AAI?$AAE?$AAW?$AA_?$AAE?$AA_?$AAD?$AAR?$AAA?$AAW?$AA?$AA?$AA?$AH?$AA?$AA?$AA?$AA?$AA?$AA?$AE?$AF?$:O?$AA?$BI?$AA?$AB@ 5f58fc3c   olemisc.obj
 0002:00004c54       ??_C@_1CK@KAKD@?$AAT?$AAY?$AAP?$AAE?$AA_?$AAE?$AA_?$AAW?$AAR?$AAO?$AAN?$AAG?$AAT?$AAY?$AAP?$AAE?$AAK?$AAI?$AAN?$AAD@ 5f58fc54   olemisc.obj
 0002:00004c80       ??_C@_1CG@ECCK@?$AAT?$AAY?$AAP?$AAE?$AA_?$AAE?$AA_?$AAU?$AAN?$AAS?$AAU?$AAP?$AAF?$AAO?$AAR?$AAM?$AAA?$AAT?$AA?$AA?$AA?$AA@ 5f58fc80   olemisc.obj
 0002:00004ca8       ??_C@_1CG@HLBD@?$AAT?$AAY?$AAP?$AAE?$AA_?$AAE?$AA_?$AAU?$AAN?$AAK?$AAN?$AAO?$AAW?$AAN?$AAL?$AAC?$AAI?$AAD?$AA?$AA?$AA?$AA@ 5f58fca8   olemisc.obj
 0002:00004cd0       ??_C@_1CK@HNNC@?$AAT?$AAY?$AAP?$AAE?$AA_?$AAE?$AA_?$AAU?$AAN?$AAD?$AAE?$AAF?$AAI?$AAN?$AAE?$AAD?$AAT?$AAY?$AAP?$AAE@ 5f58fcd0   olemisc.obj
 0002:00004cfc       ??_C@_1CI@LOKP@?$AAT?$AAY?$AAP?$AAE?$AA_?$AAE?$AA_?$AAT?$AAY?$AAP?$AAE?$AAM?$AAI?$AAS?$AAM?$AAA?$AAT?$AAC?$AAH?$AA?$AA@ 5f58fcfc   olemisc.obj
 0002:00004d24       ??_C@_1CE@CHBK@?$AAT?$AAY?$AAP?$AAE?$AA_?$AAE?$AA_?$AAS?$AAI?$AAZ?$AAE?$AAT?$AAO?$AAO?$AAB?$AAI?$AAG?$AA?$AA?$AA?$AH?$AA?$AA@ 5f58fd24   olemisc.obj
 0002:00004d48       ??_C@_1CM@PCLA@?$AAT?$AAY?$AAP?$AAE?$AA_?$AAE?$AA_?$AAR?$AAE?$AAG?$AAI?$AAS?$AAT?$AAR?$AAY?$AAA?$AAC?$AAC?$AAE?$AAS@ 5f58fd48   olemisc.obj
 0002:00004d74       ??_C@_1DO@BJLO@?$AAT?$AAY?$AAP?$AAE?$AA_?$AAE?$AA_?$AAQ?$AAU?$AAA?$AAL?$AAI?$AAF?$AAI?$AAE?$AAD?$AAN?$AAA?$AAM?$AAE@ 5f58fd74   olemisc.obj
 0002:00004db4       ??_C@_1CG@CDNK@?$AAT?$AAY?$AAP?$AAE?$AA_?$AAE?$AA_?$AAO?$AAU?$AAT?$AAO?$AAF?$AAB?$AAO?$AAU?$AAN?$AAD?$AAS?$AA?$AA?$AA?$AA@ 5f58fdb4   olemisc.obj
 0002:00004ddc       ??_C@_1CI@LHDE@?$AAT?$AAY?$AAP?$AAE?$AA_?$AAE?$AA_?$AAN?$AAA?$AAM?$AAE?$AAC?$AAO?$AAN?$AAF?$AAL?$AAI?$AAC?$AAT?$AA?$AA@ 5f58fddc   olemisc.obj
 0002:00004e04       ??_C@_1DA@GKOK@?$AAT?$AAY?$AAP?$AAE?$AA_?$AAE?$AA_?$AAL?$AAI?$AAB?$AAN?$AAO?$AAT?$AAR?$AAE?$AAG?$AAI?$AAS?$AAT?$AAE@ 5f58fe04   olemisc.obj
 0002:00004e34       ??_C@_1BO@GLOA@?$AAT?$AAY?$AAP?$AAE?$AA_?$AAE?$AA_?$AAI?$AAO?$AAE?$AAR?$AAR?$AAO?$AAR?$AA?$AA?$AA?$AA?$AA?$AH?$AA?$AA?$AA?$AA?$AA?$AA@ 5f58fe34   olemisc.obj
 0002:00004e54       ??_C@_1CG@HMHL@?$AAT?$AAY?$AAP?$AAE?$AA_?$AAE?$AA_?$AAI?$AAN?$AAV?$AAD?$AAA?$AAT?$AAA?$AAR?$AAE?$AAA?$AAD?$AA?$AA?$AA?$AA@ 5f58fe54   olemisc.obj
 0002:00004e7c       ??_C@_1CI@CFMF@?$AAT?$AAY?$AAP?$AAE?$AA_?$AAE?$AA_?$AAI?$AAN?$AAV?$AAA?$AAL?$AAI?$AAD?$AAS?$AAT?$AAA?$AAT?$AAE?$AA?$AA@ 5f58fe7c   olemisc.obj
 0002:00004ea4       ??_C@_1DK@GEAK@?$AAT?$AAY?$AAP?$AAE?$AA_?$AAE?$AA_?$AAI?$AAN?$AAC?$AAO?$AAN?$AAS?$AAI?$AAS?$AAT?$AAE?$AAN?$AAT?$AAP@ 5f58fea4   olemisc.obj
 0002:00004ee0       ??_C@_1CO@EOMF@?$AAT?$AAY?$AAP?$AAE?$AA_?$AAE?$AA_?$AAE?$AAL?$AAE?$AAM?$AAE?$AAN?$AAT?$AAN?$AAO?$AAT?$AAF?$AAO?$AAU@ 5f58fee0   olemisc.obj
 0002:00004f10       ??_C@_1CG@KEMO@?$AAT?$AAY?$AAP?$AAE?$AA_?$AAE?$AA_?$AAD?$AAU?$AAP?$AAL?$AAI?$AAC?$AAA?$AAT?$AAE?$AAI?$AAD?$AA?$AA?$AA?$AA@ 5f58ff10   olemisc.obj
 0002:00004f38       ??_C@_1DG@DKHF@?$AAT?$AAY?$AAP?$AAE?$AA_?$AAE?$AA_?$AAD?$AAL?$AAL?$AAF?$AAU?$AAN?$AAC?$AAT?$AAI?$AAO?$AAN?$AAN?$AAO@ 5f58ff38   olemisc.obj
 0002:00004f70       ??_C@_1CI@EGHD@?$AAT?$AAY?$AAP?$AAE?$AA_?$AAE?$AA_?$AAC?$AAI?$AAR?$AAC?$AAU?$AAL?$AAA?$AAR?$AAT?$AAY?$AAP?$AAE?$AA?$AA@ 5f58ff70   olemisc.obj
 0002:00004f98       ??_C@_1CO@JBCO@?$AAT?$AAY?$AAP?$AAE?$AA_?$AAE?$AA_?$AAC?$AAA?$AAN?$AAT?$AAL?$AAO?$AAA?$AAD?$AAL?$AAI?$AAB?$AAR?$AAA@ 5f58ff98   olemisc.obj
 0002:00004fc8       ??_C@_1DC@BEA@?$AAT?$AAY?$AAP?$AAE?$AA_?$AAE?$AA_?$AAC?$AAA?$AAN?$AAT?$AAC?$AAR?$AAE?$AAA?$AAT?$AAE?$AAT?$AAM?$AAP@ 5f58ffc8   olemisc.obj
 0002:00004ffc       ??_C@_1CM@DMMO@?$AAT?$AAY?$AAP?$AAE?$AA_?$AAE?$AA_?$AAB?$AAU?$AAF?$AAF?$AAE?$AAR?$AAT?$AAO?$AAO?$AAS?$AAM?$AAA?$AAL@ 5f58fffc   olemisc.obj
 0002:00005028       ??_C@_1CK@HGOO@?$AAT?$AAY?$AAP?$AAE?$AA_?$AAE?$AA_?$AAB?$AAA?$AAD?$AAM?$AAO?$AAD?$AAU?$AAL?$AAE?$AAK?$AAI?$AAN?$AAD@ 5f590028   olemisc.obj
 0002:00005054       ??_C@_1CK@BMEM@?$AAT?$AAY?$AAP?$AAE?$AA_?$AAE?$AA_?$AAA?$AAM?$AAB?$AAI?$AAG?$AAU?$AAO?$AAU?$AAS?$AAN?$AAA?$AAM?$AAE@ 5f590054   olemisc.obj
 0002:00005080       ??_C@_1CC@MJJG@?$AAS?$AAT?$AAG?$AA_?$AAE?$AA_?$AAW?$AAR?$AAI?$AAT?$AAE?$AAF?$AAA?$AAU?$AAL?$AAT?$AA?$AA?$AA?$AA?$AA?$AH?$AA?$AA@ 5f590080   olemisc.obj
 0002:000050a4       ??_C@_1BM@BIIG@?$AAS?$AAT?$AAG?$AA_?$AAE?$AA_?$AAU?$AAN?$AAK?$AAN?$AAO?$AAW?$AAN?$AA?$AA?$AA?$AH?$AA?$AA?$AA?$AA?$AA?$AA?$;OX?$AF?$:O@ 5f5900a4   olemisc.obj
 0002:000050c0       ??_C@_1DI@MKDG@?$AAS?$AAT?$AAG?$AA_?$AAE?$AA_?$AAU?$AAN?$AAI?$AAM?$AAP?$AAL?$AAE?$AAM?$AAE?$AAN?$AAT?$AAE?$AAD?$AAF@ 5f5900c0   olemisc.obj
 0002:000050f8       ??_C@_1CO@LDMI@?$AAS?$AAT?$AAG?$AA_?$AAE?$AA_?$AAT?$AAO?$AAO?$AAM?$AAA?$AAN?$AAY?$AAO?$AAP?$AAE?$AAN?$AAF?$AAI?$AAL@ 5f5900f8   olemisc.obj
 0002:00005128       ??_C@_1CK@MONO@?$AAS?$AAT?$AAG?$AA_?$AAE?$AA_?$AAS?$AAH?$AAA?$AAR?$AAE?$AAV?$AAI?$AAO?$AAL?$AAA?$AAT?$AAI?$AAO?$AAN@ 5f590128   olemisc.obj
 0002:00005154       ??_C@_1CI@MILG@?$AAS?$AAT?$AAG?$AA_?$AAE?$AA_?$AAS?$AAH?$AAA?$AAR?$AAE?$AAR?$AAE?$AAQ?$AAU?$AAI?$AAR?$AAE?$AAD?$AA?$AA@ 5f590154   olemisc.obj
 0002:0000517c       ??_C@_1CA@FOGA@?$AAS?$AAT?$AAG?$AA_?$AAE?$AA_?$AAS?$AAE?$AAE?$AAK?$AAE?$AAR?$AAR?$AAO?$AAR?$AA?$AA?$AA?$AH?$AA?$AA?$AA?$AA?$AA?$AA@ 5f59017c   olemisc.obj
 0002:0000519c       ??_C@_1BO@FDBP@?$AAS?$AAT?$AAG?$AA_?$AAE?$AA_?$AAR?$AAE?$AAV?$AAE?$AAR?$AAT?$AAE?$AAD?$AA?$AA?$AA?$AA?$AA?$AH?$AA?$AA?$AA?$AA?$AA?$AA@ 5f59019c   olemisc.obj
 0002:000051bc       ??_C@_1CA@PKA@?$AAS?$AAT?$AAG?$AA_?$AAE?$AA_?$AAR?$AAE?$AAA?$AAD?$AAF?$AAA?$AAU?$AAL?$AAT?$AA?$AA?$AA?$AH?$AA?$AA?$AA?$AA?$AA?$AA@ 5f5901bc   olemisc.obj
 0002:000051dc       ??_C@_1CG@JCJK@?$AAS?$AAT?$AAG?$AA_?$AAE?$AA_?$AAP?$AAA?$AAT?$AAH?$AAN?$AAO?$AAT?$AAF?$AAO?$AAU?$AAN?$AAD?$AA?$AA?$AA?$AA@ 5f5901dc   olemisc.obj
 0002:00005204       ??_C@_1CA@EHAB@?$AAS?$AAT?$AAG?$AA_?$AAE?$AA_?$AAO?$AAL?$AAD?$AAF?$AAO?$AAR?$AAM?$AAA?$AAT?$AA?$AA?$AA?$AH?$AA?$AA?$AA?$AA?$AA?$AA@ 5f590204   olemisc.obj
 0002:00005224       ??_C@_1BK@PJCM@?$AAS?$AAT?$AAG?$AA_?$AAE?$AA_?$AAO?$AAL?$AAD?$AAD?$AAL?$AAL?$AA?$AA?$AA?$AA?$AA?$AH?$AA?$AA?$AA?$AA?$AA?$AA?$;G?$:I?$AF?$:O@ 5f590224   olemisc.obj
 0002:00005240       ??_C@_1DE@NAFN@?$AAS?$AAT?$AAG?$AA_?$AAE?$AA_?$AAN?$AAO?$AAT?$AAF?$AAI?$AAL?$AAE?$AAB?$AAA?$AAS?$AAE?$AAD?$AAS?$AAT@ 5f590240   olemisc.obj
 0002:00005274       ??_C@_1CC@LHMA@?$AAS?$AAT?$AAG?$AA_?$AAE?$AA_?$AAN?$AAO?$AAT?$AAC?$AAU?$AAR?$AAR?$AAE?$AAN?$AAT?$AA?$AA?$AA?$AA?$AA?$AH?$AA?$AA@ 5f590274   olemisc.obj
 0002:00005298       ??_C@_1CE@LFJM@?$AAS?$AAT?$AAG?$AA_?$AAE?$AA_?$AAN?$AAO?$AAM?$AAO?$AAR?$AAE?$AAF?$AAI?$AAL?$AAE?$AAS?$AA?$AA?$AA?$AH?$AA?$AA@ 5f590298   olemisc.obj
 0002:000052bc       ??_C@_1CC@IFJO@?$AAS?$AAT?$AAG?$AA_?$AAE?$AA_?$AAM?$AAE?$AAD?$AAI?$AAU?$AAM?$AAF?$AAU?$AAL?$AAL?$AA?$AA?$AA?$AA?$AA?$AH?$AA?$AA@ 5f5902bc   olemisc.obj
 0002:000052e0       ??_C@_1CI@NCHA@?$AAS?$AAT?$AAG?$AA_?$AAE?$AA_?$AAL?$AAO?$AAC?$AAK?$AAV?$AAI?$AAO?$AAL?$AAA?$AAT?$AAI?$AAO?$AAN?$AA?$AA@ 5f5902e0   olemisc.obj
 0002:00005308       ??_C@_1CK@CNAM@?$AAS?$AAT?$AAG?$AA_?$AAE?$AA_?$AAI?$AAN?$AAV?$AAA?$AAL?$AAI?$AAD?$AAP?$AAO?$AAI?$AAN?$AAT?$AAE?$AAR@ 5f590308   olemisc.obj
 0002:00005334       ??_C@_1CO@OHLL@?$AAS?$AAT?$AAG?$AA_?$AAE?$AA_?$AAI?$AAN?$AAV?$AAA?$AAL?$AAI?$AAD?$AAP?$AAA?$AAR?$AAA?$AAM?$AAE?$AAT@ 5f590334   olemisc.obj
 0002:00005364       ??_C@_1CE@MMHO@?$AAS?$AAT?$AAG?$AA_?$AAE?$AA_?$AAI?$AAN?$AAV?$AAA?$AAL?$AAI?$AAD?$AAN?$AAA?$AAM?$AAE?$AA?$AA?$AA?$AH?$AA?$AA@ 5f590364   olemisc.obj
 0002:00005388       ??_C@_1CI@JAPL@?$AAS?$AAT?$AAG?$AA_?$AAE?$AA_?$AAI?$AAN?$AAV?$AAA?$AAL?$AAI?$AAD?$AAH?$AAE?$AAA?$AAD?$AAE?$AAR?$AA?$AA@ 5f590388   olemisc.obj
 0002:000053b0       ??_C@_1CI@FJHJ@?$AAS?$AAT?$AAG?$AA_?$AAE?$AA_?$AAI?$AAN?$AAV?$AAA?$AAL?$AAI?$AAD?$AAH?$AAA?$AAN?$AAD?$AAL?$AAE?$AA?$AA@ 5f5903b0   olemisc.obj
 0002:000053d8       ??_C@_1CM@GDKF@?$AAS?$AAT?$AAG?$AA_?$AAE?$AA_?$AAI?$AAN?$AAV?$AAA?$AAL?$AAI?$AAD?$AAF?$AAU?$AAN?$AAC?$AAT?$AAI?$AAO@ 5f5903d8   olemisc.obj
 0002:00005404       ??_C@_1CE@BLMD@?$AAS?$AAT?$AAG?$AA_?$AAE?$AA_?$AAI?$AAN?$AAV?$AAA?$AAL?$AAI?$AAD?$AAF?$AAL?$AAA?$AAG?$AA?$AA?$AA?$AH?$AA?$AA@ 5f590404   olemisc.obj
 0002:00005428       ??_C@_1BI@EOED@?$AAS?$AAT?$AAG?$AA_?$AAE?$AA_?$AAI?$AAN?$AAU?$AAS?$AAE?$AA?$AA?$AA?$AH?$AA?$AA?$AA?$AA?$AA?$AAx?$AF?$:O?$AA?$BI?$AA?$AB@ 5f590428   olemisc.obj
 0002:00005440       ??_C@_1DC@JOBB@?$AAS?$AAT?$AAG?$AA_?$AAE?$AA_?$AAI?$AAN?$AAS?$AAU?$AAF?$AAF?$AAI?$AAC?$AAI?$AAE?$AAN?$AAT?$AAM?$AAE@ 5f590440   olemisc.obj
 0002:00005474       ??_C@_1CG@NCMD@?$AAS?$AAT?$AAG?$AA_?$AAE?$AA_?$AAF?$AAI?$AAL?$AAE?$AAN?$AAO?$AAT?$AAF?$AAO?$AAU?$AAN?$AAD?$AA?$AA?$AA?$AA@ 5f590474   olemisc.obj
 0002:0000549c       ??_C@_1DA@NMOL@?$AAS?$AAT?$AAG?$AA_?$AAE?$AA_?$AAF?$AAI?$AAL?$AAE?$AAA?$AAL?$AAR?$AAE?$AAA?$AAD?$AAY?$AAE?$AAX?$AAI@ 5f59049c   olemisc.obj
 0002:000054cc       ??_C@_1DC@HJBC@?$AAS?$AAT?$AAG?$AA_?$AAE?$AA_?$AAE?$AAX?$AAT?$AAA?$AAN?$AAT?$AAM?$AAA?$AAR?$AAS?$AAH?$AAA?$AAL?$AAL@ 5f5904cc   olemisc.obj
 0002:00005500       ??_C@_1DG@FIDG@?$AAS?$AAT?$AAG?$AA_?$AAE?$AA_?$AAD?$AAI?$AAS?$AAK?$AAI?$AAS?$AAW?$AAR?$AAI?$AAT?$AAE?$AAP?$AAR?$AAO@ 5f590500   olemisc.obj
 0002:00005538       ??_C@_1BO@DPJM@?$AAS?$AAT?$AAG?$AA_?$AAE?$AA_?$AAC?$AAA?$AAN?$AAT?$AAS?$AAA?$AAV?$AAE?$AA?$AA?$AA?$AA?$AA?$AH?$AA?$AA?$AA?$AA?$AA?$AA@ 5f590538   olemisc.obj
 0002:00005558       ??_C@_1CG@DOFK@?$AAS?$AAT?$AAG?$AA_?$AAE?$AA_?$AAA?$AAC?$AAC?$AAE?$AAS?$AAS?$AAD?$AAE?$AAN?$AAI?$AAE?$AAD?$AA?$AA?$AA?$AA@ 5f590558   olemisc.obj
 0002:00005580       ??_C@_1CM@BLHG@?$AAS?$AAT?$AAG?$AA_?$AAE?$AA_?$AAA?$AAB?$AAN?$AAO?$AAR?$AAM?$AAA?$AAL?$AAA?$AAP?$AAI?$AAE?$AAX?$AAI@ 5f590580   olemisc.obj
 0002:000055ac       ??_C@_1CG@GHAG@?$AAR?$AAP?$AAC?$AA_?$AAE?$AA_?$AAW?$AAR?$AAO?$AAN?$AAG?$AA_?$AAT?$AAH?$AAR?$AAE?$AAA?$AAD?$AA?$AA?$AA?$AA@ 5f5905ac   olemisc.obj
 0002:000055d4       ??_C@_1CC@HDGM@?$AAR?$AAP?$AAC?$AA_?$AAE?$AA_?$AAU?$AAN?$AAE?$AAX?$AAP?$AAE?$AAC?$AAT?$AAE?$AAD?$AA?$AA?$AA?$AA?$AA?$AH?$AA?$AA@ 5f5905d4   olemisc.obj
 0002:000055f8       ??_C@_1CM@IBFJ@?$AAR?$AAP?$AAC?$AA_?$AAE?$AA_?$AAT?$AAH?$AAR?$AAE?$AAA?$AAD?$AA_?$AAN?$AAO?$AAT?$AA_?$AAI?$AAN?$AAI@ 5f5905f8   olemisc.obj
 0002:00005624       ??_C@_1CM@OFKP@?$AAR?$AAP?$AAC?$AA_?$AAE?$AA_?$AAS?$AAY?$AAS?$AA_?$AAC?$AAA?$AAL?$AAL?$AA_?$AAF?$AAA?$AAI?$AAL?$AAE@ 5f590624   olemisc.obj
 0002:00005650       ??_C@_1CE@BLCF@?$AAR?$AAP?$AAC?$AA_?$AAE?$AA_?$AAS?$AAE?$AAR?$AAV?$AAE?$AAR?$AAF?$AAA?$AAU?$AAL?$AAT?$AA?$AA?$AA?$AH?$AA?$AA@ 5f590650   olemisc.obj
 0002:00005674       ??_C@_1DI@OAKG@?$AAR?$AAP?$AAC?$AA_?$AAE?$AA_?$AAS?$AAE?$AAR?$AAV?$AAE?$AAR?$AAC?$AAA?$AAL?$AAL?$AA_?$AAR?$AAE?$AAT@ 5f590674   olemisc.obj
 0002:000056ac       ??_C@_1DE@IFOI@?$AAR?$AAP?$AAC?$AA_?$AAE?$AA_?$AAS?$AAE?$AAR?$AAV?$AAE?$AAR?$AAC?$AAA?$AAL?$AAL?$AA_?$AAR?$AAE?$AAJ@ 5f5906ac   olemisc.obj
 0002:000056e0       ??_C@_1CM@JEGC@?$AAR?$AAP?$AAC?$AA_?$AAE?$AA_?$AAS?$AAE?$AAR?$AAV?$AAE?$AAR?$AA_?$AAD?$AAI?$AAE?$AAD?$AA_?$AAD?$AAN@ 5f5906e0   olemisc.obj
 0002:0000570c       ??_C@_1CE@GBIE@?$AAR?$AAP?$AAC?$AA_?$AAE?$AA_?$AAS?$AAE?$AAR?$AAV?$AAE?$AAR?$AA_?$AAD?$AAI?$AAE?$AAD?$AA?$AA?$AA?$AH?$AA?$AA@ 5f59070c   olemisc.obj
 0002:00005730       ??_C@_1EA@MMNP@?$AAR?$AAP?$AAC?$AA_?$AAE?$AA_?$AAS?$AAE?$AAR?$AAV?$AAE?$AAR?$AA_?$AAC?$AAA?$AAN?$AAT?$AAU?$AAN?$AAM@ 5f590730   olemisc.obj
 0002:00005770       ??_C@_1DM@HCPL@?$AAR?$AAP?$AAC?$AA_?$AAE?$AA_?$AAS?$AAE?$AAR?$AAV?$AAE?$AAR?$AA_?$AAC?$AAA?$AAN?$AAT?$AAM?$AAA?$AAR@ 5f590770   olemisc.obj
 0002:000057ac       ??_C@_1BI@PEHP@?$AAR?$AAP?$AAC?$AA_?$AAE?$AA_?$AAR?$AAE?$AAT?$AAR?$AAY?$AA?$AA?$AA?$AH?$AA?$AA?$AA?$AA?$AA?$AAt?$AF?$:O?$AA?$BI?$AA?$AB@ 5f5907ac   olemisc.obj
 0002:000057c4       ??_C@_1CO@LJH@?$AAR?$AAP?$AAC?$AA_?$AAE?$AA_?$AAO?$AAU?$AAT?$AA_?$AAO?$AAF?$AA_?$AAR?$AAE?$AAS?$AAO?$AAU?$AAR?$AAC@ 5f5907c4   olemisc.obj
 0002:000057f4       ??_C@_1CK@LGFB@?$AAR?$AAP?$AAC?$AA_?$AAE?$AA_?$AAN?$AAO?$AAT?$AA_?$AAR?$AAE?$AAG?$AAI?$AAS?$AAT?$AAE?$AAR?$AAE?$AAD@ 5f5907f4   olemisc.obj
 0002:00005820       ??_C@_1CI@NHDA@?$AAR?$AAP?$AAC?$AA_?$AAE?$AA_?$AAI?$AAN?$AAV?$AAA?$AAL?$AAI?$AAD?$AAM?$AAE?$AAT?$AAH?$AAO?$AAD?$AA?$AA@ 5f590820   olemisc.obj
 0002:00005848       ??_C@_1DA@FOAB@?$AAR?$AAP?$AAC?$AA_?$AAE?$AA_?$AAI?$AAN?$AAV?$AAA?$AAL?$AAI?$AAD?$AA_?$AAP?$AAA?$AAR?$AAA?$AAM?$AAE@ 5f590848   olemisc.obj
 0002:00005878       ??_C@_1DC@MFFE@?$AAR?$AAP?$AAC?$AA_?$AAE?$AA_?$AAI?$AAN?$AAV?$AAA?$AAL?$AAI?$AAD?$AA_?$AAD?$AAA?$AAT?$AAA?$AAP?$AAA@ 5f590878   olemisc.obj
 0002:000058ac       ??_C@_1CG@BFIL@?$AAR?$AAP?$AAC?$AA_?$AAE?$AA_?$AAI?$AAN?$AAV?$AAA?$AAL?$AAI?$AAD?$AA_?$AAD?$AAA?$AAT?$AAA?$AA?$AA?$AA?$AA@ 5f5908ac   olemisc.obj
 0002:000058d4       ??_C@_1CO@ICIC@?$AAR?$AAP?$AAC?$AA_?$AAE?$AA_?$AAI?$AAN?$AAV?$AAA?$AAL?$AAI?$AAD?$AA_?$AAC?$AAA?$AAL?$AAL?$AAD?$AAA@ 5f5908d4   olemisc.obj
 0002:00005904       ??_C@_1BI@JIFA@?$AAR?$AAP?$AAC?$AA_?$AAE?$AA_?$AAF?$AAA?$AAU?$AAL?$AAT?$AA?$AA?$AA?$AH?$AA?$AA?$AA?$AA?$AA?$AA?$9G?$BM?$AF?$:O?$AA?$BI?$AA?$AB@ 5f590904   olemisc.obj
 0002:0000591c       ??_C@_1CG@JINA@?$AAR?$AAP?$AAC?$AA_?$AAE?$AA_?$AAD?$AAI?$AAS?$AAC?$AAO?$AAN?$AAN?$AAE?$AAC?$AAT?$AAE?$AAD?$AA?$AA?$AA?$AA@ 5f59091c   olemisc.obj
 0002:00005944       ??_C@_1DI@PFCK@?$AAR?$AAP?$AAC?$AA_?$AAE?$AA_?$AAC?$AAO?$AAN?$AAN?$AAE?$AAC?$AAT?$AAI?$AAO?$AAN?$AA_?$AAT?$AAE?$AAR@ 5f590944   olemisc.obj
 0002:0000597c       ??_C@_1CE@LGEP@?$AAR?$AAP?$AAC?$AA_?$AAE?$AA_?$AAC?$AAL?$AAI?$AAE?$AAN?$AAT?$AA_?$AAD?$AAI?$AAE?$AAD?$AA?$AA?$AA?$AH?$AA?$AA@ 5f59097c   olemisc.obj
 0002:000059a0       ??_C@_1EA@BBAI@?$AAR?$AAP?$AAC?$AA_?$AAE?$AA_?$AAC?$AAL?$AAI?$AAE?$AAN?$AAT?$AA_?$AAC?$AAA?$AAN?$AAT?$AAU?$AAN?$AAM@ 5f5909a0   olemisc.obj
 0002:000059e0       ??_C@_1DM@NNK@?$AAR?$AAP?$AAC?$AA_?$AAE?$AA_?$AAC?$AAL?$AAI?$AAE?$AAN?$AAT?$AA_?$AAC?$AAA?$AAN?$AAT?$AAM?$AAA?$AAR@ 5f5909e0   olemisc.obj
 0002:00005a1c       ??_C@_1CG@EAON@?$AAR?$AAP?$AAC?$AA_?$AAE?$AA_?$AAC?$AAH?$AAA?$AAN?$AAG?$AAE?$AAD?$AA_?$AAM?$AAO?$AAD?$AAE?$AA?$AA?$AA?$AA@ 5f590a1c   olemisc.obj
 0002:00005a44       ??_C@_1DA@JEBP@?$AAR?$AAP?$AAC?$AA_?$AAE?$AA_?$AAC?$AAA?$AAN?$AAT?$AAT?$AAR?$AAA?$AAN?$AAS?$AAM?$AAI?$AAT?$AA_?$AAC@ 5f590a44   olemisc.obj
 0002:00005a74       ??_C@_1DE@JPLC@?$AAR?$AAP?$AAC?$AA_?$AAE?$AA_?$AAC?$AAA?$AAN?$AAT?$AAP?$AAO?$AAS?$AAT?$AA_?$AAI?$AAN?$AAS?$AAE?$AAN@ 5f590a74   olemisc.obj
 0002:00005aa8       ??_C@_1EE@BONG@?$AAR?$AAP?$AAC?$AA_?$AAE?$AA_?$AAC?$AAA?$AAN?$AAT?$AAC?$AAA?$AAL?$AAL?$AAO?$AAU?$AAT?$AA_?$AAI?$AAN@ 5f590aa8   olemisc.obj
 0002:00005aec       ??_C@_1EC@BNP@?$AAR?$AAP?$AAC?$AA_?$AAE?$AA_?$AAC?$AAA?$AAN?$AAT?$AAC?$AAA?$AAL?$AAL?$AAO?$AAU?$AAT?$AA_?$AAI?$AAN@ 5f590aec   olemisc.obj
 0002:00005b30       ??_C@_1DM@IGPA@?$AAR?$AAP?$AAC?$AA_?$AAE?$AA_?$AAC?$AAA?$AAN?$AAT?$AAC?$AAA?$AAL?$AAL?$AAO?$AAU?$AAT?$AA_?$AAI?$AAN@ 5f590b30   olemisc.obj
 0002:00005b6c       ??_C@_1DA@GBNH@?$AAR?$AAP?$AAC?$AA_?$AAE?$AA_?$AAC?$AAA?$AAN?$AAT?$AAC?$AAA?$AAL?$AAL?$AAO?$AAU?$AAT?$AA_?$AAA?$AAG@ 5f590b6c   olemisc.obj
 0002:00005b9c       ??_C@_1CI@HIFL@?$AAR?$AAP?$AAC?$AA_?$AAE?$AA_?$AAC?$AAA?$AAL?$AAL?$AA_?$AAR?$AAE?$AAJ?$AAE?$AAC?$AAT?$AAE?$AAD?$AA?$AA@ 5f590b9c   olemisc.obj
 0002:00005bc4       ??_C@_1CI@OODH@?$AAR?$AAP?$AAC?$AA_?$AAE?$AA_?$AAC?$AAA?$AAL?$AAL?$AA_?$AAC?$AAA?$AAN?$AAC?$AAE?$AAL?$AAE?$AAD?$AA?$AA@ 5f590bc4   olemisc.obj
 0002:00005bec       ??_C@_1DI@LBBG@?$AAR?$AAP?$AAC?$AA_?$AAE?$AA_?$AAA?$AAT?$AAT?$AAE?$AAM?$AAP?$AAT?$AAE?$AAD?$AA_?$AAM?$AAU?$AAL?$AAT@ 5f590bec   olemisc.obj
 0002:00005c24       ??_C@_1CG@DFFG@?$AAR?$AAE?$AAG?$AAD?$AAB?$AA_?$AAE?$AA_?$AAW?$AAR?$AAI?$AAT?$AAE?$AAR?$AAE?$AAG?$AAD?$AAB?$AA?$AA?$AA?$AA@ 5f590c24   olemisc.obj
 0002:00005c4c       ??_C@_1CE@FHKA@?$AAR?$AAE?$AAG?$AAD?$AAB?$AA_?$AAE?$AA_?$AAR?$AAE?$AAA?$AAD?$AAR?$AAE?$AAG?$AAD?$AAB?$AA?$AA?$AA?$AH?$AA?$AA@ 5f590c4c   olemisc.obj
 0002:00005c70       ??_C@_1CG@BDGN@?$AAR?$AAE?$AAG?$AAD?$AAB?$AA_?$AAE?$AA_?$AAK?$AAE?$AAY?$AAM?$AAI?$AAS?$AAS?$AAI?$AAN?$AAG?$AA?$AA?$AA?$AA@ 5f590c70   olemisc.obj
 0002:00005c98       ??_C@_1CK@MGDO@?$AAR?$AAE?$AAG?$AAD?$AAB?$AA_?$AAE?$AA_?$AAI?$AAN?$AAV?$AAA?$AAL?$AAI?$AAD?$AAV?$AAA?$AAL?$AAU?$AAE@ 5f590c98   olemisc.obj
 0002:00005cc4       ??_C@_1CE@EJHK@?$AAR?$AAE?$AAG?$AAD?$AAB?$AA_?$AAE?$AA_?$AAI?$AAI?$AAD?$AAN?$AAO?$AAT?$AAR?$AAE?$AAG?$AA?$AA?$AA?$AH?$AA?$AA@ 5f590cc4   olemisc.obj
 0002:00005ce8       ??_C@_1CI@CCKM@?$AAR?$AAE?$AAG?$AAD?$AAB?$AA_?$AAE?$AA_?$AAC?$AAL?$AAA?$AAS?$AAS?$AAN?$AAO?$AAT?$AAR?$AAE?$AAG?$AA?$AA@ 5f590ce8   olemisc.obj
 0002:00005d10       ??_C@_1CC@NLOO@?$AAO?$AAL?$AAE?$AAO?$AAB?$AAJ?$AA_?$AAE?$AA_?$AAN?$AAO?$AAV?$AAE?$AAR?$AAB?$AAS?$AA?$AA?$AA?$AA?$AA?$AH?$AA?$AA@ 5f590d10   olemisc.obj
 0002:00005d34       ??_C@_1CK@FAO@?$AAO?$AAL?$AAE?$AAO?$AAB?$AAJ?$AA_?$AAE?$AA_?$AAI?$AAN?$AAV?$AAA?$AAL?$AAI?$AAD?$AAV?$AAE?$AAR?$AAB@ 5f590d34   olemisc.obj
 0002:00005d60       ??_C@_1CG@BCJA@?$AAO?$AAL?$AAE?$AA_?$AAE?$AA_?$AAW?$AAR?$AAO?$AAN?$AAG?$AAC?$AAO?$AAM?$AAP?$AAO?$AAB?$AAJ?$AA?$AA?$AA?$AA@ 5f590d60   olemisc.obj
 0002:00005d88       ??_C@_1BK@JFPG@?$AAO?$AAL?$AAE?$AA_?$AAE?$AA_?$AAS?$AAT?$AAA?$AAT?$AAI?$AAC?$AA?$AA?$AA?$AA?$AA?$AH?$AA?$AA?$AA?$AA?$AA?$AAq?$AF?$:O@ 5f590d88   olemisc.obj
 0002:00005da4       ??_C@_1DE@GBEI@?$AAO?$AAL?$AAE?$AA_?$AAE?$AA_?$AAP?$AAR?$AAO?$AAM?$AAP?$AAT?$AAS?$AAA?$AAV?$AAE?$AAC?$AAA?$AAN?$AAC@ 5f590da4   olemisc.obj
 0002:00005dd8       ??_C@_1BM@CCJI@?$AAO?$AAL?$AAE?$AA_?$AAE?$AA_?$AAO?$AAL?$AAE?$AAV?$AAE?$AAR?$AAB?$AA?$AA?$AA?$AH?$AA?$AA?$AA?$AA?$AA?$AApd?$AF?$:O@ 5f590dd8   olemisc.obj
 0002:00005df4       ??_C@_1CC@LJHL@?$AAO?$AAL?$AAE?$AA_?$AAE?$AA_?$AAN?$AAO?$AAT?$AAR?$AAU?$AAN?$AAN?$AAI?$AAN?$AAG?$AA?$AA?$AA?$AA?$AA?$AH?$AA?$AA@ 5f590df4   olemisc.obj
 0002:00005e18       ??_C@_1DA@BBIE@?$AAO?$AAL?$AAE?$AA_?$AAE?$AA_?$AAN?$AAO?$AAT?$AA_?$AAI?$AAN?$AAP?$AAL?$AAA?$AAC?$AAE?$AAA?$AAC?$AAT@ 5f590e18   olemisc.obj
 0002:00005e48       ??_C@_1CA@BEG@?$AAO?$AAL?$AAE?$AA_?$AAE?$AA_?$AAN?$AAO?$AAS?$AAT?$AAO?$AAR?$AAA?$AAG?$AAE?$AA?$AA?$AA?$AH?$AA?$AA?$AA?$AA?$AA?$AA@ 5f590e48   olemisc.obj
 0002:00005e68       ??_C@_1CG@COAI@?$AAO?$AAL?$AAE?$AA_?$AAE?$AA_?$AAN?$AAO?$AAC?$AAO?$AAN?$AAN?$AAE?$AAC?$AAT?$AAI?$AAO?$AAN?$AA?$AA?$AA?$AA@ 5f590e68   olemisc.obj
 0002:00005e90       ??_C@_1BM@BNPN@?$AAO?$AAL?$AAE?$AA_?$AAE?$AA_?$AAN?$AAO?$AAC?$AAA?$AAC?$AAH?$AAE?$AA?$AA?$AA?$AH?$AA?$AA?$AA?$AA?$AA?$AAl?$AF?$:O@ 5f590e90   olemisc.obj
 0002:00005eac       ??_C@_1CE@ICFE@?$AAO?$AAL?$AAE?$AA_?$AAE?$AA_?$AAI?$AAN?$AAV?$AAA?$AAL?$AAI?$AAD?$AAR?$AAE?$AAC?$AAT?$AA?$AA?$AA?$AH?$AA?$AA@ 5f590eac   olemisc.obj
 0002:00005ed0       ??_C@_1CE@IEIG@?$AAO?$AAL?$AAE?$AA_?$AAE?$AA_?$AAI?$AAN?$AAV?$AAA?$AAL?$AAI?$AAD?$AAH?$AAW?$AAN?$AAD?$AA?$AA?$AA?$AH?$AA?$AA@ 5f590ed0   olemisc.obj
 0002:00005ef4       ??_C@_1CE@FBOG@?$AAO?$AAL?$AAE?$AA_?$AAE?$AA_?$AAE?$AAN?$AAU?$AAM?$AA_?$AAN?$AAO?$AAM?$AAO?$AAR?$AAE?$AA?$AA?$AA?$AH?$AA?$AA@ 5f590ef4   olemisc.obj
 0002:00005f18       ??_C@_1CA@CPLB@?$AAO?$AAL?$AAE?$AA_?$AAE?$AA_?$AAC?$AAL?$AAA?$AAS?$AAS?$AAD?$AAI?$AAF?$AAF?$AA?$AA?$AA?$AH?$AA?$AA?$AA?$AA?$AA?$AA@ 5f590f18   olemisc.obj
 0002:00005f38       ??_C@_1CE@MKJF@?$AAO?$AAL?$AAE?$AA_?$AAE?$AA_?$AAC?$AAA?$AAN?$AAT?$AAC?$AAO?$AAN?$AAV?$AAE?$AAR?$AAT?$AA?$AA?$AA?$AH?$AA?$AA@ 5f590f38   olemisc.obj
 0002:00005f5c       ??_C@_1CM@OLDA@?$AAO?$AAL?$AAE?$AA_?$AAE?$AA_?$AAC?$AAA?$AAN?$AAT?$AA_?$AAG?$AAE?$AAT?$AAM?$AAO?$AAN?$AAI?$AAK?$AAE@ 5f590f5c   olemisc.obj
 0002:00005f88       ??_C@_1DA@JHGK@?$AAO?$AAL?$AAE?$AA_?$AAE?$AA_?$AAC?$AAA?$AAN?$AAT?$AA_?$AAB?$AAI?$AAN?$AAD?$AAT?$AAO?$AAS?$AAO?$AAU@ 5f590f88   olemisc.obj
 0002:00005fb8       ??_C@_1BI@HLCA@?$AAO?$AAL?$AAE?$AA_?$AAE?$AA_?$AAB?$AAL?$AAA?$AAN?$AAK?$AA?$AA?$AA?$AH?$AA?$AA?$AA?$AA?$AA?$AAfh?$AF?$:O?$AA?$BI?$AA?$AB@ 5f590fb8   olemisc.obj
 0002:00005fd0       ??_C@_1DC@IKJE@?$AAO?$AAL?$AAE?$AA_?$AAE?$AA_?$AAA?$AAD?$AAV?$AAI?$AAS?$AAE?$AAN?$AAO?$AAT?$AAS?$AAU?$AAP?$AAP?$AAO@ 5f590fd0   olemisc.obj
 0002:00006004       ??_C@_1BG@HAAJ@?$AAO?$AAL?$AAE?$AA_?$AAE?$AA_?$AAA?$AAD?$AAV?$AAF?$AA?$AA?$AA?$AA?$AA?$AH?$AA?$AA?$AA?$AA?$AA?$AAd?$AF?$:O?$AA?$BG?$AA?$AB@ 5f591004   olemisc.obj
 0002:0000601c       ??_C@_1CC@FBLB@?$AAM?$AAK?$AA_?$AAE?$AA_?$AAU?$AAN?$AAA?$AAV?$AAA?$AAI?$AAL?$AAA?$AAB?$AAL?$AAE?$AA?$AA?$AA?$AA?$AA?$AH?$AA?$AA@ 5f59101c   olemisc.obj
 0002:00006040       ??_C@_1BI@FDNB@?$AAM?$AAK?$AA_?$AAE?$AA_?$AAS?$AAY?$AAN?$AAT?$AAA?$AAX?$AA?$AA?$AA?$AH?$AA?$AA?$AA?$AA?$AA?$AAc?$GA?$AF?$:O?$AA?$BI?$AA?$AB@ 5f591040   olemisc.obj
 0002:00006058       ??_C@_1BM@NNMF@?$AAM?$AAK?$AA_?$AAE?$AA_?$AAN?$AAO?$AAT?$AAB?$AAO?$AAU?$AAN?$AAD?$AA?$AA?$AA?$AH?$AA?$AA?$AA?$AA?$AA?$AAb?$;E?$AF?$:O@ 5f591058   olemisc.obj
 0002:00006074       ??_C@_1CC@EEBL@?$AAM?$AAK?$AA_?$AAE?$AA_?$AAN?$AAO?$AAT?$AAB?$AAI?$AAN?$AAD?$AAA?$AAB?$AAL?$AAE?$AA?$AA?$AA?$AA?$AA?$AH?$AA?$AA@ 5f591074   olemisc.obj
 0002:00006098       ??_C@_1BO@POFJ@?$AAM?$AAK?$AA_?$AAE?$AA_?$AAN?$AAO?$AAS?$AAT?$AAO?$AAR?$AAA?$AAG?$AAE?$AA?$AA?$AA?$AA?$AA?$AH?$AA?$AA?$AA?$AA?$AA?$AA@ 5f591098   olemisc.obj
 0002:000060b8       ??_C@_1BM@KFME@?$AAM?$AAK?$AA_?$AAE?$AA_?$AAN?$AAO?$AAP?$AAR?$AAE?$AAF?$AAI?$AAX?$AA?$AA?$AA?$AH?$AA?$AA?$AA?$AA?$AA?$AA?$GAd?$AF?$:O@ 5f5910b8   olemisc.obj
 0002:000060d4       ??_C@_1BM@JBAA@?$AAM?$AAK?$AA_?$AAE?$AA_?$AAN?$AAO?$AAO?$AAB?$AAJ?$AAE?$AAC?$AAT?$AA?$AA?$AA?$AH?$AA?$AA?$AA?$AA?$AA?$AA_?$;I?$AF?$:O@ 5f5910d4   olemisc.obj
 0002:000060f0       ??_C@_1BO@BOCH@?$AAM?$AAK?$AA_?$AAE?$AA_?$AAN?$AAO?$AAI?$AAN?$AAV?$AAE?$AAR?$AAS?$AAE?$AA?$AA?$AA?$AA?$AA?$AH?$AA?$AA?$AA?$AA?$AA?$AA@ 5f5910f0   olemisc.obj
 0002:00006110       ??_C@_1CG@JKOP@?$AAM?$AAK?$AA_?$AAE?$AA_?$AAN?$AAO?$AA_?$AAN?$AAO?$AAR?$AAM?$AAA?$AAL?$AAI?$AAZ?$AAE?$AAD?$AA?$AA?$AA?$AA@ 5f591110   olemisc.obj
 0002:00006138       ??_C@_1CC@IOML@?$AAM?$AAK?$AA_?$AAE?$AA_?$AAN?$AAE?$AAE?$AAD?$AAG?$AAE?$AAN?$AAE?$AAR?$AAI?$AAC?$AA?$AA?$AA?$AA?$AA?$AH?$AA?$AA@ 5f591138   olemisc.obj
 0002:0000615c       ??_C@_1CI@EEHM@?$AAM?$AAK?$AA_?$AAE?$AA_?$AAM?$AAU?$AAS?$AAT?$AAB?$AAO?$AAT?$AAH?$AAE?$AAR?$AAU?$AAS?$AAE?$AAR?$AA?$AA@ 5f59115c   olemisc.obj
 0002:00006184       ??_C@_1CM@JHBL@?$AAM?$AAK?$AA_?$AAE?$AA_?$AAI?$AAN?$AAV?$AAA?$AAL?$AAI?$AAD?$AAE?$AAX?$AAT?$AAE?$AAN?$AAS?$AAI?$AAO@ 5f591184   olemisc.obj
 0002:000061b0       ??_C@_1EO@EHAI@?$AAM?$AAK?$AA_?$AAE?$AA_?$AAI?$AAN?$AAT?$AAE?$AAR?$AAM?$AAE?$AAD?$AAI?$AAA?$AAT?$AAE?$AAI?$AAN?$AAT@ 5f5911b0   olemisc.obj
 0002:00006200       ??_C@_1CM@GDPI@?$AAM?$AAK?$AA_?$AAE?$AA_?$AAE?$AAX?$AAC?$AAE?$AAE?$AAD?$AAE?$AAD?$AAD?$AAE?$AAA?$AAD?$AAL?$AAI?$AAN@ 5f591200   olemisc.obj
 0002:0000622c       ??_C@_1DA@CFPI@?$AAM?$AAK?$AA_?$AAE?$AA_?$AAE?$AAN?$AAU?$AAM?$AAE?$AAR?$AAA?$AAT?$AAI?$AAO?$AAN?$AA_?$AAF?$AAA?$AAI@ 5f59122c   olemisc.obj
 0002:0000625c       ??_C@_1CK@IBJB@?$AAM?$AAK?$AA_?$AAE?$AA_?$AAC?$AAO?$AAN?$AAN?$AAE?$AAC?$AAT?$AAM?$AAA?$AAN?$AAU?$AAA?$AAL?$AAL?$AAY@ 5f59125c   olemisc.obj
 0002:00006288       ??_C@_1CE@BCIM@?$AAM?$AAK?$AA_?$AAE?$AA_?$AAC?$AAA?$AAN?$AAT?$AAO?$AAP?$AAE?$AAN?$AAF?$AAI?$AAL?$AAE?$AA?$AA?$AA?$AH?$AA?$AA@ 5f591288   olemisc.obj
 0002:000062ac       ??_C@_1CG@BBBN@?$AAM?$AAE?$AAM?$AA_?$AAE?$AA_?$AAI?$AAN?$AAV?$AAA?$AAL?$AAI?$AAD?$AA_?$AAS?$AAI?$AAZ?$AAE?$AA?$AA?$AA?$AA@ 5f5912ac   olemisc.obj
 0002:000062d4       ??_C@_1CG@GFLB@?$AAM?$AAE?$AAM?$AA_?$AAE?$AA_?$AAI?$AAN?$AAV?$AAA?$AAL?$AAI?$AAD?$AA_?$AAR?$AAO?$AAO?$AAT?$AA?$AA?$AA?$AA@ 5f5912d4   olemisc.obj
 0002:000062fc       ??_C@_1CG@JGCE@?$AAM?$AAE?$AAM?$AA_?$AAE?$AA_?$AAI?$AAN?$AAV?$AAA?$AAL?$AAI?$AAD?$AA_?$AAL?$AAI?$AAN?$AAK?$AA?$AA?$AA?$AA@ 5f5912fc   olemisc.obj
 0002:00006324       ??_C@_1CM@ICP@?$AAI?$AAN?$AAP?$AAL?$AAA?$AAC?$AAE?$AA_?$AAE?$AA_?$AAN?$AAO?$AAT?$AAU?$AAN?$AAD?$AAO?$AAA?$AAB?$AAL@ 5f591324   olemisc.obj
 0002:00006350       ??_C@_1CM@OIKI@?$AAI?$AAN?$AAP?$AAL?$AAA?$AAC?$AAE?$AA_?$AAE?$AA_?$AAN?$AAO?$AAT?$AAO?$AAO?$AAL?$AAS?$AAP?$AAA?$AAC@ 5f591350   olemisc.obj
 0002:0000637c       ??_C@_1BG@GAHH@?$AAD?$AAV?$AA_?$AAE?$AA_?$AAT?$AAY?$AAM?$AAE?$AAD?$AA?$AA?$AA?$AA?$AA?$AH?$AA?$AA?$AA?$AA?$AA?$AAS?$AE?$AF?$:O?$AA?$BG?$AA?$AB@ 5f59137c   olemisc.obj
 0002:00006394       ??_C@_1BO@KLE@?$AAD?$AAV?$AA_?$AAE?$AA_?$AAS?$AAT?$AAG?$AAM?$AAE?$AAD?$AAI?$AAU?$AAM?$AA?$AA?$AA?$AA?$AA?$AH?$AA?$AA?$AA?$AA?$AA?$AA@ 5f591394   olemisc.obj
 0002:000063b4       ??_C@_1BM@MHJF@?$AAD?$AAV?$AA_?$AAE?$AA_?$AAS?$AAT?$AAA?$AAT?$AAD?$AAA?$AAT?$AAA?$AA?$AA?$AA?$AH?$AA?$AA?$AA?$AA?$AA?$AAQ?$9I?$AF?$:O@ 5f5913b4   olemisc.obj
 0002:000063d0       ??_C@_1CG@CNAE@?$AAD?$AAV?$AA_?$AAE?$AA_?$AAN?$AAO?$AAI?$AAV?$AAI?$AAE?$AAW?$AAO?$AAB?$AAJ?$AAE?$AAC?$AAT?$AA?$AA?$AA?$AA@ 5f5913d0   olemisc.obj
 0002:000063f8       ??_C@_1BI@BDDA@?$AAD?$AAV?$AA_?$AAE?$AA_?$AAL?$AAI?$AAN?$AAD?$AAE?$AAX?$AA?$AA?$AA?$AH?$AA?$AA?$AA?$AA?$AA?$AAP?$AI?$AF?$:O?$AA?$BI?$AA?$AB@ 5f5913f8   olemisc.obj
 0002:00006410       ??_C@_1BO@GMFM@?$AAD?$AAV?$AA_?$AAE?$AA_?$AAF?$AAO?$AAR?$AAM?$AAA?$AAT?$AAE?$AAT?$AAC?$AA?$AA?$AA?$AA?$AA?$AH?$AA?$AA?$AA?$AA?$AA?$AA@ 5f591410   olemisc.obj
 0002:00006430       ??_C@_1DC@CMMI@?$AAD?$AAV?$AA_?$AAE?$AA_?$AAD?$AAV?$AAT?$AAA?$AAR?$AAG?$AAE?$AAT?$AAD?$AAE?$AAV?$AAI?$AAC?$AAE?$AA_@ 5f591430   olemisc.obj
 0002:00006464       ??_C@_1CI@KID@?$AAD?$AAV?$AA_?$AAE?$AA_?$AAD?$AAV?$AAT?$AAA?$AAR?$AAG?$AAE?$AAT?$AAD?$AAE?$AAV?$AAI?$AAC?$AAE?$AA?$AA@ 5f591464   olemisc.obj
 0002:0000648c       ??_C@_1BM@JHPO@?$AAD?$AAV?$AA_?$AAE?$AA_?$AAD?$AAV?$AAA?$AAS?$AAP?$AAE?$AAC?$AAT?$AA?$AA?$AA?$AH?$AA?$AA?$AA?$AA?$AA?$AAL?$AF?$:O@ 5f59148c   olemisc.obj
 0002:000064a8       ??_C@_1CA@BPPK@?$AAD?$AAV?$AA_?$AAE?$AA_?$AAC?$AAL?$AAI?$AAP?$AAF?$AAO?$AAR?$AAM?$AAA?$AAT?$AA?$AA?$AA?$AH?$AA?$AA?$AA?$AA?$AA?$AA@ 5f5914a8   olemisc.obj
 0002:000064c8       ??_C@_1DC@OJMN@?$AAD?$AAR?$AAA?$AAG?$AAD?$AAR?$AAO?$AAP?$AA_?$AAE?$AA_?$AAN?$AAO?$AAT?$AAR?$AAE?$AAG?$AAI?$AAS?$AAT@ 5f5914c8   olemisc.obj
 0002:000064fc       ??_C@_1CO@BCKO@?$AAD?$AAR?$AAA?$AAG?$AAD?$AAR?$AAO?$AAP?$AA_?$AAE?$AA_?$AAI?$AAN?$AAV?$AAA?$AAL?$AAI?$AAD?$AAH?$AAW@ 5f5914fc   olemisc.obj
 0002:0000652c       ??_C@_1DK@LFEE@?$AAD?$AAR?$AAA?$AAG?$AAD?$AAR?$AAO?$AAP?$AA_?$AAE?$AA_?$AAA?$AAL?$AAR?$AAE?$AAA?$AAD?$AAY?$AAR?$AAE@ 5f59152c   olemisc.obj
 0002:00006568       ??_C@_1CG@NPMK@?$AAD?$AAI?$AAS?$AAP?$AA_?$AAE?$AA_?$AAU?$AAN?$AAK?$AAN?$AAO?$AAW?$AAN?$AAN?$AAA?$AAM?$AAE?$AA?$AA?$AA?$AA@ 5f591568   olemisc.obj
 0002:00006590       ??_C@_1CG@NEPC@?$AAD?$AAI?$AAS?$AAP?$AA_?$AAE?$AA_?$AAU?$AAN?$AAK?$AAN?$AAO?$AAW?$AAN?$AAL?$AAC?$AAI?$AAD?$AA?$AA?$AA?$AA@ 5f591590   olemisc.obj
 0002:000065b8       ??_C@_1DA@DIIF@?$AAD?$AAI?$AAS?$AAP?$AA_?$AAE?$AA_?$AAU?$AAN?$AAK?$AAN?$AAO?$AAW?$AAN?$AAI?$AAN?$AAT?$AAE?$AAR?$AAF@ 5f5915b8   olemisc.obj
 0002:000065e8       ??_C@_1CI@KIFA@?$AAD?$AAI?$AAS?$AAP?$AA_?$AAE?$AA_?$AAT?$AAY?$AAP?$AAE?$AAM?$AAI?$AAS?$AAM?$AAA?$AAT?$AAC?$AAH?$AA?$AA@ 5f5915e8   olemisc.obj
 0002:00006610       ??_C@_1DA@IGMM@?$AAD?$AAI?$AAS?$AAP?$AA_?$AAE?$AA_?$AAP?$AAA?$AAR?$AAA?$AAM?$AAN?$AAO?$AAT?$AAO?$AAP?$AAT?$AAI?$AAO@ 5f591610   olemisc.obj
 0002:00006640       ??_C@_1CK@LMPI@?$AAD?$AAI?$AAS?$AAP?$AA_?$AAE?$AA_?$AAP?$AAA?$AAR?$AAA?$AAM?$AAN?$AAO?$AAT?$AAF?$AAO?$AAU?$AAN?$AAD@ 5f591640   olemisc.obj
 0002:0000666c       ??_C@_1CA@IEKP@?$AAD?$AAI?$AAS?$AAP?$AA_?$AAE?$AA_?$AAO?$AAV?$AAE?$AAR?$AAF?$AAL?$AAO?$AAW?$AA?$AA?$AA?$AH?$AA?$AA?$AA?$AA?$AA?$AA@ 5f59166c   olemisc.obj
 0002:0000668c       ??_C@_1CM@DEPO@?$AAD?$AAI?$AAS?$AAP?$AA_?$AAE?$AA_?$AAN?$AAO?$AAT?$AAA?$AAC?$AAO?$AAL?$AAL?$AAE?$AAC?$AAT?$AAI?$AAO@ 5f59168c   olemisc.obj
 0002:000066b8       ??_C@_1CG@NIDG@?$AAD?$AAI?$AAS?$AAP?$AA_?$AAE?$AA_?$AAN?$AAO?$AAN?$AAA?$AAM?$AAE?$AAD?$AAA?$AAR?$AAG?$AAS?$AA?$AA?$AA?$AA@ 5f5916b8   olemisc.obj
 0002:000066e0       ??_C@_1CM@EGKL@?$AAD?$AAI?$AAS?$AAP?$AA_?$AAE?$AA_?$AAM?$AAE?$AAM?$AAB?$AAE?$AAR?$AAN?$AAO?$AAT?$AAF?$AAO?$AAU?$AAN@ 5f5916e0   olemisc.obj
 0002:0000670c       ??_C@_1CC@JEDP@?$AAD?$AAI?$AAS?$AAP?$AA_?$AAE?$AA_?$AAE?$AAX?$AAC?$AAE?$AAP?$AAT?$AAI?$AAO?$AAN?$AA?$AA?$AA?$AA?$AA?$AH?$AA?$AA@ 5f59170c   olemisc.obj
 0002:00006730       ??_C@_1CE@KKCF@?$AAD?$AAI?$AAS?$AAP?$AA_?$AAE?$AA_?$AAB?$AAA?$AAD?$AAV?$AAA?$AAR?$AAT?$AAY?$AAP?$AAE?$AA?$AA?$AA?$AH?$AA?$AA@ 5f591730   olemisc.obj
 0002:00006754       ??_C@_1CK@HPPF@?$AAD?$AAI?$AAS?$AAP?$AA_?$AAE?$AA_?$AAB?$AAA?$AAD?$AAP?$AAA?$AAR?$AAA?$AAM?$AAC?$AAO?$AAU?$AAN?$AAT@ 5f591754   olemisc.obj
 0002:00006780       ??_C@_1CA@PNEE@?$AAD?$AAI?$AAS?$AAP?$AA_?$AAE?$AA_?$AAB?$AAA?$AAD?$AAI?$AAN?$AAD?$AAE?$AAX?$AA?$AA?$AA?$AH?$AA?$AA?$AA?$AA?$AA?$AA@ 5f591780   olemisc.obj
 0002:000067a0       ??_C@_1CC@BEPF@?$AAD?$AAI?$AAS?$AAP?$AA_?$AAE?$AA_?$AAB?$AAA?$AAD?$AAC?$AAA?$AAL?$AAL?$AAE?$AAE?$AA?$AA?$AA?$AA?$AA?$AH?$AA?$AA@ 5f5917a0   olemisc.obj
 0002:000067c4       ??_C@_1CK@NMIM@?$AAD?$AAI?$AAS?$AAP?$AA_?$AAE?$AA_?$AAA?$AAR?$AAR?$AAA?$AAY?$AAI?$AAS?$AAL?$AAO?$AAC?$AAK?$AAE?$AAD@ 5f5917c4   olemisc.obj
 0002:000067f0       ??_C@_1DM@NCMG@?$AAC?$AAO?$AAN?$AAV?$AAE?$AAR?$AAT?$AA1?$AA0?$AA_?$AAE?$AA_?$AAS?$AAT?$AAG?$AA_?$AAN?$AAO?$AA_?$AAS@ 5f5917f0   olemisc.obj
 0002:0000682c       ??_C@_1CI@LLEF@?$AAC?$AAO?$AAN?$AAV?$AAE?$AAR?$AAT?$AA1?$AA0?$AA_?$AAE?$AA_?$AAS?$AAT?$AAG?$AA_?$AAF?$AAM?$AAT?$AA?$AA@ 5f59182c   olemisc.obj
 0002:00006854       ??_C@_1DM@JNIG@?$AAC?$AAO?$AAN?$AAV?$AAE?$AAR?$AAT?$AA1?$AA0?$AA_?$AAE?$AA_?$AAS?$AAT?$AAG?$AA_?$AAD?$AAI?$AAB?$AA_@ 5f591854   olemisc.obj
 0002:00006890       ??_C@_1DE@PHEO@?$AAC?$AAO?$AAN?$AAV?$AAE?$AAR?$AAT?$AA1?$AA0?$AA_?$AAE?$AA_?$AAO?$AAL?$AAE?$AAS?$AAT?$AAR?$AAE?$AAA@ 5f591890   olemisc.obj
 0002:000068c4       ??_C@_1DE@NFKJ@?$AAC?$AAO?$AAN?$AAV?$AAE?$AAR?$AAT?$AA1?$AA0?$AA_?$AAE?$AA_?$AAO?$AAL?$AAE?$AAS?$AAT?$AAR?$AAE?$AAA@ 5f5918c4   olemisc.obj
 0002:000068f8       ??_C@_1DE@PKBG@?$AAC?$AAO?$AAN?$AAV?$AAE?$AAR?$AAT?$AA1?$AA0?$AA_?$AAE?$AA_?$AAO?$AAL?$AAE?$AAS?$AAT?$AAR?$AAE?$AAA@ 5f5918f8   olemisc.obj
 0002:0000692c       ??_C@_1EI@IMIH@?$AAC?$AAO?$AAN?$AAV?$AAE?$AAR?$AAT?$AA1?$AA0?$AA_?$AAE?$AA_?$AAO?$AAL?$AAE?$AAS?$AAT?$AAR?$AAE?$AAA@ 5f59192c   olemisc.obj
 0002:00006974       ??_C@_1CG@BGOE@?$AAC?$AAO?$AA_?$AAE?$AA_?$AAW?$AAR?$AAO?$AAN?$AAG?$AAO?$AAS?$AAF?$AAO?$AAR?$AAA?$AAP?$AAP?$AA?$AA?$AA?$AA@ 5f591974   olemisc.obj
 0002:0000699c       ??_C@_1CK@LBAM@?$AAC?$AAO?$AA_?$AAE?$AA_?$AAS?$AAE?$AAR?$AAV?$AAE?$AAR?$AA_?$AAS?$AAT?$AAO?$AAP?$AAP?$AAI?$AAN?$AAG@ 5f59199c   olemisc.obj
 0002:000069c8       ??_C@_1DC@EPNB@?$AAC?$AAO?$AA_?$AAE?$AA_?$AAS?$AAE?$AAR?$AAV?$AAE?$AAR?$AA_?$AAE?$AAX?$AAE?$AAC?$AA_?$AAF?$AAA?$AAI@ 5f5919c8   olemisc.obj
 0002:000069fc       ??_C@_1CK@NMPH@?$AAC?$AAO?$AA_?$AAE?$AA_?$AAS?$AAC?$AAM?$AA_?$AAR?$AAP?$AAC?$AA_?$AAF?$AAA?$AAI?$AAL?$AAU?$AAR?$AAE@ 5f5919fc   olemisc.obj
 0002:00006a28       ??_C@_1BO@FALE@?$AAC?$AAO?$AA_?$AAE?$AA_?$AAS?$AAC?$AAM?$AA_?$AAE?$AAR?$AAR?$AAO?$AAR?$AA?$AA?$AA?$AA?$AA?$AH?$AA?$AA?$AA?$AA?$AA?$AA@ 5f591a28   olemisc.obj
 0002:00006a48       ??_C@_1DA@FCAF@?$AAC?$AAO?$AA_?$AAE?$AA_?$AAO?$AAB?$AAJ?$AAS?$AAR?$AAV?$AA_?$AAR?$AAP?$AAC?$AA_?$AAF?$AAA?$AAI?$AAL@ 5f591a48   olemisc.obj
 0002:00006a78       ??_C@_1BO@DBHH@?$AAC?$AAO?$AA_?$AAE?$AA_?$AAO?$AAB?$AAJ?$AAN?$AAO?$AAT?$AAR?$AAE?$AAG?$AA?$AA?$AA?$AA?$AA?$AH?$AA?$AA?$AA?$AA?$AA?$AA@ 5f591a78   olemisc.obj
 0002:00006a98       ??_C@_1CK@IHHI@?$AAC?$AAO?$AA_?$AAE?$AA_?$AAO?$AAB?$AAJ?$AAN?$AAO?$AAT?$AAC?$AAO?$AAN?$AAN?$AAE?$AAC?$AAT?$AAE?$AAD@ 5f591a98   olemisc.obj
 0002:00006ac4       ??_C@_1BM@GEKP@?$AAC?$AAO?$AA_?$AAE?$AA_?$AAO?$AAB?$AAJ?$AAI?$AAS?$AAR?$AAE?$AAG?$AA?$AA?$AA?$AH?$AA?$AA?$AA?$AA?$AA?$AA08?$AF?$:O@ 5f591ac4   olemisc.obj
 0002:00006ae0       ??_C@_1CI@JFFI@?$AAC?$AAO?$AA_?$AAE?$AA_?$AAN?$AAO?$AAT?$AAI?$AAN?$AAI?$AAT?$AAI?$AAA?$AAL?$AAI?$AAZ?$AAE?$AAD?$AA?$AA@ 5f591ae0   olemisc.obj
 0002:00006b08       ??_C@_1BO@NKGB@?$AAC?$AAO?$AA_?$AAE?$AA_?$AAI?$AAI?$AAD?$AAS?$AAT?$AAR?$AAI?$AAN?$AAG?$AA?$AA?$AA?$AA?$AA?$AH?$AA?$AA?$AA?$AA?$AA?$AA@ 5f591b08   olemisc.obj
 0002:00006b28       ??_C@_1CA@LLMP@?$AAC?$AAO?$AA_?$AAE?$AA_?$AAE?$AAR?$AAR?$AAO?$AAR?$AAI?$AAN?$AAD?$AAL?$AAL?$AA?$AA?$AA?$AH?$AA?$AA?$AA?$AA?$AA?$AA@ 5f591b28   olemisc.obj
 0002:00006b48       ??_C@_1CA@FFGD@?$AAC?$AAO?$AA_?$AAE?$AA_?$AAE?$AAR?$AAR?$AAO?$AAR?$AAI?$AAN?$AAA?$AAP?$AAP?$AA?$AA?$AA?$AH?$AA?$AA?$AA?$AA?$AA?$AA@ 5f591b48   olemisc.obj
 0002:00006b68       ??_C@_1CC@GGDK@?$AAC?$AAO?$AA_?$AAE?$AA_?$AAD?$AAL?$AAL?$AAN?$AAO?$AAT?$AAF?$AAO?$AAU?$AAN?$AAD?$AA?$AA?$AA?$AA?$AA?$AH?$AA?$AA@ 5f591b68   olemisc.obj
 0002:00006b8c       ??_C@_1CC@CODD@?$AAC?$AAO?$AA_?$AAE?$AA_?$AAC?$AAL?$AAA?$AAS?$AAS?$AAS?$AAT?$AAR?$AAI?$AAN?$AAG?$AA?$AA?$AA?$AA?$AA?$AH?$AA?$AA@ 5f591b8c   olemisc.obj
 0002:00006bb0       ??_C@_1DC@IBNI@?$AAC?$AAO?$AA_?$AAE?$AA_?$AAC?$AAL?$AAA?$AAS?$AAS?$AA_?$AAC?$AAR?$AAE?$AAA?$AAT?$AAE?$AA_?$AAF?$AAA@ 5f591bb0   olemisc.obj
 0002:00006be4       ??_C@_1DA@NHGD@?$AAC?$AAO?$AA_?$AAE?$AA_?$AAC?$AAA?$AAN?$AAT?$AAD?$AAE?$AAT?$AAE?$AAR?$AAM?$AAI?$AAN?$AAE?$AAC?$AAL@ 5f591be4   olemisc.obj
 0002:00006c14       ??_C@_1BM@ENKA@?$AAC?$AAO?$AA_?$AAE?$AA_?$AAB?$AAA?$AAD?$AA_?$AAP?$AAA?$AAT?$AAH?$AA?$AA?$AA?$AH?$AA?$AA?$AA?$AA?$AA?$AA?$CJH?$AF?$:O@ 5f591c14   olemisc.obj
 0002:00006c30       ??_C@_1CE@HGKM@?$AAC?$AAO?$AA_?$AAE?$AA_?$AAA?$AAP?$AAP?$AAS?$AAI?$AAN?$AAG?$AAL?$AAE?$AAU?$AAS?$AAE?$AA?$AA?$AA?$AH?$AA?$AA@ 5f591c30   olemisc.obj
 0002:00006c54       ??_C@_1CC@CEAC@?$AAC?$AAO?$AA_?$AAE?$AA_?$AAA?$AAP?$AAP?$AAN?$AAO?$AAT?$AAF?$AAO?$AAU?$AAN?$AAD?$AA?$AA?$AA?$AA?$AA?$AH?$AA?$AA@ 5f591c54   olemisc.obj
 0002:00006c78       ??_C@_1CC@OKD@?$AAC?$AAO?$AA_?$AAE?$AA_?$AAA?$AAP?$AAP?$AAD?$AAI?$AAD?$AAN?$AAT?$AAR?$AAE?$AAG?$AA?$AA?$AA?$AA?$AA?$AH?$AA?$AA@ 5f591c78   olemisc.obj
 0002:00006c9c       ??_C@_1DA@EBNH@?$AAC?$AAO?$AA_?$AAE?$AA_?$AAA?$AAL?$AAR?$AAE?$AAA?$AAD?$AAY?$AAI?$AAN?$AAI?$AAT?$AAI?$AAA?$AAL?$AAI@ 5f591c9c   olemisc.obj
 0002:00006ccc       ??_C@_1CG@PCJF@?$AAC?$AAL?$AAI?$AAP?$AAB?$AAR?$AAD?$AA_?$AAE?$AA_?$AAC?$AAA?$AAN?$AAT?$AA_?$AAS?$AAE?$AAT?$AA?$AA?$AA?$AA@ 5f591ccc   olemisc.obj
 0002:00006cf4       ??_C@_1CI@NEML@?$AAC?$AAL?$AAI?$AAP?$AAB?$AAR?$AAD?$AA_?$AAE?$AA_?$AAC?$AAA?$AAN?$AAT?$AA_?$AAO?$AAP?$AAE?$AAN?$AA?$AA@ 5f591cf4   olemisc.obj
 0002:00006d1c       ??_C@_1CK@EEPA@?$AAC?$AAL?$AAI?$AAP?$AAB?$AAR?$AAD?$AA_?$AAE?$AA_?$AAC?$AAA?$AAN?$AAT?$AA_?$AAE?$AAM?$AAP?$AAT?$AAY@ 5f591d1c   olemisc.obj
 0002:00006d48       ??_C@_1CK@DEPI@?$AAC?$AAL?$AAI?$AAP?$AAB?$AAR?$AAD?$AA_?$AAE?$AA_?$AAC?$AAA?$AAN?$AAT?$AA_?$AAC?$AAL?$AAO?$AAS?$AAE@ 5f591d48   olemisc.obj
 0002:00006d74       ??_C@_1CG@BJNC@?$AAC?$AAL?$AAI?$AAP?$AAB?$AAR?$AAD?$AA_?$AAE?$AA_?$AAB?$AAA?$AAD?$AA_?$AAD?$AAA?$AAT?$AAA?$AA?$AA?$AA?$AA@ 5f591d74   olemisc.obj
 0002:00006d9c       ??_C@_1CM@NDJN@?$AAC?$AAL?$AAA?$AAS?$AAS?$AA_?$AAE?$AA_?$AAN?$AAO?$AAA?$AAG?$AAG?$AAR?$AAE?$AAG?$AAA?$AAT?$AAI?$AAO@ 5f591d9c   olemisc.obj
 0002:00006dc8       ??_C@_1DE@HLBE@?$AAC?$AAL?$AAA?$AAS?$AAS?$AA_?$AAE?$AA_?$AAC?$AAL?$AAA?$AAS?$AAS?$AAN?$AAO?$AAT?$AAA?$AAV?$AAA?$AAI@ 5f591dc8   olemisc.obj
 0002:00006dfc       ??_C@_1DA@HBCI@?$AAC?$AAA?$AAC?$AAH?$AAE?$AA_?$AAE?$AA_?$AAN?$AAO?$AAC?$AAA?$AAC?$AAH?$AAE?$AA_?$AAU?$AAP?$AAD?$AAA@ 5f591dfc   olemisc.obj
 0002:00006e2c       ??_C@_1BO@DKFH@?$AAE?$AA_?$AAA?$AAC?$AAC?$AAE?$AAS?$AAS?$AAD?$AAE?$AAN?$AAI?$AAE?$AAD?$AA?$AA?$AA?$AA?$AA?$AH?$AA?$AA?$AA?$AA?$AA?$AA@ 5f591e2c   olemisc.obj
 0002:00006e4c       ??_C@_1O@OECF@?$AAE?$AA_?$AAF?$AAA?$AAI?$AAL?$AA?$AA?$AA?$AA?$AA?$AH?$AA?$AA?$AA?$AA?$AA?$AA?$BO?2?$AF?$:O@ 5f591e4c   olemisc.obj
 0002:00006e5c       ??_C@_1BA@PAOH@?$AAE?$AA_?$AAA?$AAB?$AAO?$AAR?$AAT?$AA?$AA?$AA?$AH?$AA?$AA?$AA?$AA?$AA?$AA?$BN?$;M?$AF?$:O?$AA?$BA?$AA?$AB@ 5f591e5c   olemisc.obj
 0002:00006e6c       ??_C@_1BC@GKAH@?$AAE?$AA_?$AAH?$AAA?$AAN?$AAD?$AAL?$AAE?$AA?$AA?$AA?$AA?$AA?$AH?$AA?$AA?$AA?$AA?$AA?$AA?$BM?$AF?$:O?$AA?$BC?$AA?$AB@ 5f591e6c   olemisc.obj
 0002:00006e80       ??_C@_1BE@IPCL@?$AAE?$AA_?$AAP?$AAO?$AAI?$AAN?$AAT?$AAE?$AAR?$AA?$AA?$AA?$AH?$AA?$AA?$AA?$AA?$AA?$AA?$BMD?$AF?$:O?$AA?$BE?$AA?$AB?$EA?$AD?$9A?$AA@ 5f591e80   olemisc.obj
 0002:00006e94       ??_C@_1BM@KFKD@?$AAE?$AA_?$AAN?$AAO?$AAI?$AAN?$AAT?$AAE?$AAR?$AAF?$AAA?$AAC?$AAE?$AA?$AA?$AA?$AH?$AA?$AA?$AA?$AA?$AA?$AA?$BL?$9I?$AF?$:O@ 5f591e94   olemisc.obj
 0002:00006eb0       ??_C@_1BK@HNFJ@?$AAE?$AA_?$AAI?$AAN?$AAV?$AAA?$AAL?$AAI?$AAD?$AAA?$AAR?$AAG?$AA?$AA?$AA?$AA?$AA?$AH?$AA?$AA?$AA?$AA?$AA?$AA?$BK?$AF?$:O@ 5f591eb0   olemisc.obj
 0002:00006ecc       ??_C@_1BM@IGII@?$AAE?$AA_?$AAO?$AAU?$AAT?$AAO?$AAF?$AAM?$AAE?$AAM?$AAO?$AAR?$AAY?$AA?$AA?$AA?$AH?$AA?$AA?$AA?$AA?$AA?$AA?$BK?$BA?$AF?$:O@ 5f591ecc   olemisc.obj
 0002:00006ee8       ??_C@_1BE@7?$AAE?$AA_?$AAN?$AAO?$AAT?$AAI?$AAM?$AAP?$AAL?$AA?$AA?$AA?$AH?$AA?$AA?$AA?$AA?$AA?$AA?$BJ?2?$AF?$:O?$AA?$BE?$AA?$AB?$EA?$AB?$9A?$AA@ 5f591ee8   olemisc.obj
 0002:00006efc       ??_C@_1BK@JJBN@?$AAE?$AA_?$AAU?$AAN?$AAE?$AAX?$AAP?$AAE?$AAC?$AAT?$AAE?$AAD?$AA?$AA?$AA?$AA?$AA?$AH?$AA?$AA?$AA?$AA?$AA?$AA?$BI?$;A?$AF?$:O@ 5f591efc   olemisc.obj
 0002:00006f18       ??_C@_1CM@JDMC@?$AAV?$AAI?$AAE?$AAW?$AA_?$AAS?$AA_?$AAA?$AAL?$AAR?$AAE?$AAA?$AAD?$AAY?$AA_?$AAF?$AAR?$AAO?$AAZ?$AAE@ 5f591f18   olemisc.obj
 0002:00006f44       ??_C@_1CA@DDIN@?$AAS?$AAT?$AAG?$AA_?$AAS?$AA_?$AAC?$AAO?$AAN?$AAV?$AAE?$AAR?$AAT?$AAE?$AAD?$AA?$AA?$AA?$AH?$AA?$AA?$AA?$AA?$AA?$AA@ 5f591f44   olemisc.obj
 0002:00006f64       ??_C@_1BM@PHGB@?$AAO?$AAL?$AAE?$AAO?$AAB?$AAJ?$AA_?$AAS?$AA_?$AAL?$AAA?$AAS?$AAT?$AA?$AA?$AA?$AH?$AA?$AA?$AA?$AA?$AA?$AA?$BGX?$AF?$:O@ 5f591f64   olemisc.obj
 0002:00006f80       ??_C@_1CK@CBFE@?$AAO?$AAL?$AAE?$AAO?$AAB?$AAJ?$AA_?$AAS?$AA_?$AAI?$AAN?$AAV?$AAA?$AAL?$AAI?$AAD?$AAV?$AAE?$AAR?$AAB@ 5f591f80   olemisc.obj
 0002:00006fac       ??_C@_1CK@EBML@?$AAO?$AAL?$AAE?$AAO?$AAB?$AAJ?$AA_?$AAS?$AA_?$AAI?$AAN?$AAV?$AAA?$AAL?$AAI?$AAD?$AAH?$AAW?$AAN?$AAD@ 5f591fac   olemisc.obj
 0002:00006fd8       ??_C@_1DG@BLFN@?$AAO?$AAL?$AAE?$AAO?$AAB?$AAJ?$AA_?$AAS?$AA_?$AAC?$AAA?$AAN?$AAN?$AAO?$AAT?$AA_?$AAD?$AAO?$AAV?$AAE@ 5f591fd8   olemisc.obj
 0002:00007010       ??_C@_1BK@LKFF@?$AAO?$AAL?$AAE?$AA_?$AAS?$AA_?$AAU?$AAS?$AAE?$AAR?$AAE?$AAG?$AA?$AA?$AA?$AA?$AA?$AH?$AA?$AA?$AA?$AA?$AA?$AA?$BD?$AF?$:O@ 5f592010   olemisc.obj
 0002:0000702c       ??_C@_1BK@OPCO@?$AAO?$AAL?$AAE?$AA_?$AAS?$AA_?$AAS?$AAT?$AAA?$AAT?$AAI?$AAC?$AA?$AA?$AA?$AA?$AA?$AH?$AA?$AA?$AA?$AA?$AA?$AA?$BC?$AF?$:O@ 5f59202c   olemisc.obj
 0002:00007048       ??_C@_1CK@PBPL@?$AAO?$AAL?$AAE?$AA_?$AAS?$AA_?$AAM?$AAA?$AAC?$AA_?$AAC?$AAL?$AAI?$AAP?$AAF?$AAO?$AAR?$AAM?$AAA?$AAT@ 5f592048   olemisc.obj
 0002:00007074       ??_C@_1BA@OECF@?$AAM?$AAK?$AA_?$AAS?$AA_?$AAU?$AAS?$AA?$AA?$AA?$AH?$AA?$AA?$AA?$AA?$AA?$AA?$BBT?$AF?$:O?$AA?$BA?$AA?$AB@ 5f592074   olemisc.obj
 0002:00007084       ??_C@_1CK@LKHK@?$AAM?$AAK?$AA_?$AAS?$AA_?$AAR?$AAE?$AAD?$AAU?$AAC?$AAE?$AAD?$AA_?$AAT?$AAO?$AA_?$AAS?$AAE?$AAL?$AAF@ 5f592084   olemisc.obj
 0002:000070b0       ??_C@_1DM@JHIF@?$AAM?$AAK?$AA_?$AAS?$AA_?$AAM?$AAO?$AAN?$AAI?$AAK?$AAE?$AAR?$AAA?$AAL?$AAR?$AAE?$AAA?$AAD?$AAY?$AAR@ 5f5920b0   olemisc.obj
 0002:000070ec       ??_C@_1BA@CKEH@?$AAM?$AAK?$AA_?$AAS?$AA_?$AAM?$AAE?$AA?$AA?$AA?$AH?$AA?$AA?$AA?$AA?$AA?$AA?$AO?$AF?$:O?$AA?$BA?$AA?$AB@ 5f5920ec   olemisc.obj
 0002:000070fc       ??_C@_1BC@KOIF@?$AAM?$AAK?$AA_?$AAS?$AA_?$AAH?$AAI?$AAM?$AA?$AA?$AA?$AA?$AA?$AH?$AA?$AA?$AA?$AA?$AA?$AA?$AOH?$AF?$:O?$AA?$BC?$AA?$AB@ 5f5920fc   olemisc.obj
 0002:00007110       ??_C@_1CI@ECAG@?$AAI?$AAN?$AAP?$AAL?$AAA?$AAC?$AAE?$AA_?$AAS?$AA_?$AAT?$AAR?$AAU?$AAN?$AAC?$AAA?$AAT?$AAE?$AAD?$AA?$AA@ 5f592110   olemisc.obj
 0002:00007138       ??_C@_1DK@EDAA@?$AAD?$AAR?$AAA?$AAG?$AAD?$AAR?$AAO?$AAP?$AA_?$AAS?$AA_?$AAU?$AAS?$AAE?$AAD?$AAE?$AAF?$AAA?$AAU?$AAL@ 5f592138   olemisc.obj
 0002:00007174       ??_C@_1CA@EMMF@?$AAD?$AAR?$AAA?$AAG?$AAD?$AAR?$AAO?$AAP?$AA_?$AAS?$AA_?$AAD?$AAR?$AAO?$AAP?$AA?$AA?$AA?$AH?$AA?$AA?$AA?$AA?$AA?$AA@ 5f592174   olemisc.obj
 0002:00007194       ??_C@_1CE@HOEF@?$AAD?$AAR?$AAA?$AAG?$AAD?$AAR?$AAO?$AAP?$AA_?$AAS?$AA_?$AAC?$AAA?$AAN?$AAC?$AAE?$AAL?$AA?$AA?$AA?$AH?$AA?$AA@ 5f592194   olemisc.obj
 0002:000071b8       ??_C@_1CK@BIOJ@?$AAD?$AAA?$AAT?$AAA?$AA_?$AAS?$AA_?$AAS?$AAA?$AAM?$AAE?$AAF?$AAO?$AAR?$AAM?$AAA?$AAT?$AAE?$AAT?$AAC@ 5f5921b8   olemisc.obj
 0002:000071e4       ??_C@_1DI@EDLA@?$AAC?$AAO?$AAN?$AAV?$AAE?$AAR?$AAT?$AA1?$AA0?$AA_?$AAS?$AA_?$AAN?$AAO?$AA_?$AAP?$AAR?$AAE?$AAS?$AAE@ 5f5921e4   olemisc.obj
 0002:0000721c       ??_C@_1DM@OGIK@?$AAC?$AAA?$AAC?$AAH?$AAE?$AA_?$AAS?$AA_?$AAS?$AAO?$AAM?$AAE?$AAC?$AAA?$AAC?$AAH?$AAE?$AAS?$AA_?$AAN@ 5f59221c   olemisc.obj
 0002:00007258       ??_C@_1CE@DFNM@?$AAC?$AAA?$AAC?$AAH?$AAE?$AA_?$AAS?$AA_?$AAS?$AAA?$AAM?$AAE?$AAC?$AAA?$AAC?$AAH?$AAE?$AA?$AA?$AA?$AH?$AA?$AA@ 5f592258   olemisc.obj
 0002:0000727c       ??_C@_1DO@ECFN@?$AAC?$AAA?$AAC?$AAH?$AAE?$AA_?$AAS?$AA_?$AAF?$AAO?$AAR?$AAM?$AAA?$AAT?$AAE?$AAT?$AAC?$AA_?$AAN?$AAO@ 5f59227c   olemisc.obj
 0002:000072bc       ??_C@_1BA@CGLD@?$AAS?$AA_?$AAF?$AAA?$AAL?$AAS?$AAE?$AA?$AA?$AA?$AH?$AA?$AA?$AA?$AA?$AA?$AA?$AGL?$AF?$:O?$AA?$BA?$AA?$AB@ 5f5922bc   olemisc.obj
 0002:000072cc       ??_C@_19IKIG@?$AAS?$AA_?$AAO?$AAK?$AA?$AA?$AA?$AA?$AA?$AH?$AA?$AA?$AA?$AA?$AA?$AA@ 5f5922cc   olemisc.obj
 0002:00007bf0       ?classCOleException@COleException@@2UCRuntimeClass@@B 5f592bf0   olemisc.obj
 0002:00007c08       ??_C@_1CG@FHOC@?$AA?$DM?$AAU?$AAn?$AAk?$AAn?$AAo?$AAw?$AAn?$AA?5?$AAF?$AAa?$AAc?$AAi?$AAl?$AAi?$AAt?$AAy?$AA?$DO?$AA?$AA?$AA?$AA@ 5f592c08   olemisc.obj
 0002:00007c30       ??_C@_1EI@NCJG@?$AAs?$AAe?$AAv?$AAe?$AAr?$AAi?$AAt?$AAy?$AA?3?$AA?5?$AA?$CF?$AAs?$AA?0?$AA?5?$AAf?$AAa?$AAc?$AAi?$AAl?$AAi@ 5f592c30   olemisc.obj
 0002:00007c78       ??_C@_1CG@PK@?$AAr?$AAa?$AAn?$AAg?$AAe?$AA?3?$AA?5?$AA?$CF?$AAs?$AA?5?$AA?$CI?$AA$?$AA?$CF?$AA0?$AA8?$AAl?$AAX?$AA?$CJ?$AA?$AA?$AA?$AA@ 5f592c78   olemisc.obj
 0002:00007ca0       ??_C@_1BI@IOEF@?$AA?$CF?$AAs?$AA?5?$AA?$CI?$AA$?$AA?$CF?$AA0?$AA8?$AAl?$AAX?$AA?$CJ?$AA?$AA?$AA?$AH?$AA?$AA?$AA?$AA?$AA?$AA?$AG?$BE?$AF?$:O?$AA?$BI?$AA?$AB@ 5f592ca0   olemisc.obj
 0002:00007cb8       ??_C@_1GE@BIAC@?$AAW?$AAa?$AAr?$AAn?$AAi?$AAn?$AAg?$AA?3?$AA?5?$AAc?$AAo?$AAn?$AAs?$AAt?$AAr?$AAu?$AAc?$AAt?$AAi?$AAn@ 5f592cb8   olemisc.obj
 0002:00007d1c       ??_C@_1M@EPCN@?$AAC?$AAL?$AAS?$AAI?$AAD?$AA?$AA?$AA?$AH?$AA?$AA?$AA?$AA?$AA?$AA?7l?$AF?$:O@ 5f592d1c   olemisc.obj
 0002:00007d28       ??_C@_1BA@FHJ@?$AAD?$AAI?$AAS?$AAP?$AAL?$AAA?$AAY?$AA?$AA?$AA?$AH?$AA?$AA?$AA?$AA?$AA?$AA?$AEt?$AF?$:O?$AA?$BA?$AA?$AB@ 5f592d28   olemisc.obj
 0002:00007d38       ??_C@_0P@CGBG@COleStreamFile?$AA@ 5f592d38   olestrm.obj
 0002:00007d48       ?classCOleStreamFile@COleStreamFile@@2UCRuntimeClass@@B 5f592d48   olestrm.obj
 0002:00007d64       ??_7COleStreamFile@@6B@    5f592d64   olestrm.obj
 0002:00007dc4       ??_C@_02PJJB@?$CC?6?$AA@   5f592dc4   olestrm.obj
 0002:00007dc8       ??_C@_0BF@MCAF@m_strStorageName?5?$DN?5?$CC?$AA@ 5f592dc8   olestrm.obj
 0002:00007de0       ??_C@_0O@MEPH@m_lpStream?5?$DN?5?$AA@ 5f592de0   olestrm.obj
 0002:00007df0       ??_C@_0O@ELE@COleServerDoc?$AA@ 5f592df0   olesvr1.obj
 0002:00007e00       ?messageMap@COleServerDoc@@1UAFX_MSGMAP@@B 5f592e00   olesvr1.obj
 0002:00007e08       ?_messageEntries@COleServerDoc@@0PBUAFX_MSGMAP_ENTRY@@B 5f592e08   olesvr1.obj
 0002:00007e80       ?interfaceMap@COleServerDoc@@1UAFX_INTERFACEMAP@@B 5f592e80   olesvr1.obj
 0002:00007e88       ?_interfaceEntries@COleServerDoc@@0PBUAFX_INTERFACEMAP_ENTRY@@B 5f592e88   olesvr1.obj
 0002:00007ec0       ?classCOleServerDoc@COleServerDoc@@2UCRuntimeClass@@B 5f592ec0   olesvr1.obj
 0002:00007edc       ??_7COleServerDoc@@6B@     5f592edc   olesvr1.obj
 0002:0000802c       ??_7XPersistStorage@COleServerDoc@@6B@ 5f59302c   olesvr1.obj
 0002:0000805c       ??_7XOleObject@COleServerDoc@@6B@ 5f59305c   olesvr1.obj
 0002:000080c4       ??_7XDataObject@COleServerDoc@@6B@ 5f5930c4   olesvr1.obj
 0002:000080fc       ??_7XOleInPlaceObject@COleServerDoc@@6B@ 5f5930fc   olesvr1.obj
 0002:00008124       ??_7XOleInPlaceActiveObject@COleServerDoc@@6B@ 5f593124   olesvr1.obj
 0002:00008154       ??_7IPersistStorage@@6B@   5f593154   olesvr1.obj
 0002:00008184       ??_7IOleObject@@6B@        5f593184   olesvr1.obj
 0002:000081ec       ??_7IOleInPlaceObject@@6B@ 5f5931ec   olesvr1.obj
 0002:00008214       ??_7IOleInPlaceActiveObject@@6B@ 5f593214   olesvr1.obj
 0002:0000823c       ??_C@_1HK@FGIB@?$AAW?$AAa?$AAr?$AAn?$AAi?$AAn?$AAg?$AA?3?$AA?5?$AAz?$AAe?$AAr?$AAo?$AA?5?$AA?8?$AAz?$AAo?$AAo?$AAm?$AA?5@ 5f59323c   olesvr1.obj
 0002:000082b8       ??_C@_1DI@KNCN@?$AA?7?$AAf?$AAa?$AAi?$AAl?$AAe?$AAd?$AA?5?$AAt?$AAo?$AA?5?$AAf?$AAi?$AAn?$AAd?$AA?5?$AAi?$AAt?$AAe?$AAm@ 5f5932b8   olesvr1.obj
 0002:000082f0       ??_C@_1IA@EAAE@?$AAW?$AAa?$AAr?$AAn?$AAi?$AAn?$AAg?$AA?3?$AA?5?$AAd?$AAe?$AAf?$AAa?$AAu?$AAl?$AAt?$AA?5?$AAC?$AAO?$AAl@ 5f5932f0   olesvr1.obj
 0002:00008370       ??_C@_1FK@ELKM@?$AAW?$AAa?$AAr?$AAn?$AAi?$AAn?$AAg?$AA?3?$AA?5?$AAO?$AAn?$AAU?$AAp?$AAd?$AAa?$AAt?$AAe?$AAD?$AAo?$AAc@ 5f593370   olesvr1.obj
 0002:000083cc       ??_C@_0BC@JDAG@?6m_dwOrigStyle?5?$DN?5?$AA@ 5f5933cc   olesvr1.obj
 0002:000083e0       ??_C@_0BD@IBCE@?6m_bCntrVisible?5?$DN?5?$AA@ 5f5933e0   olesvr1.obj
 0002:000083f4       ??_C@_0BB@HMNG@?6m_strHostObj?5?$DN?5?$AA@ 5f5933f4   olesvr1.obj
 0002:00008408       ??_C@_0BC@JBGM@m_lpClientSite?5?$DN?5?$AA@ 5f593408   olesvr1.obj
 0002:0000841c       ??_C@_0BJ@FFMJ@with?5no?5original?5parent?6?$AA@ 5f59341c   olesvr1.obj
 0002:00008438       ??_C@_0BI@GHAM@?6with?5original?5parent?3?5?$AA@ 5f593438   olesvr1.obj
 0002:00008450       ??_C@_0BJ@CNKJ@?6with?5no?5in?9place?5frame?6?$AA@ 5f593450   olesvr1.obj
 0002:0000846c       ??_C@_0BH@HIOP@?6with?5in?9place?5frame?3?5?$AA@ 5f59346c   olesvr1.obj
 0002:00008488       ?interfaceMap@COleServerItem@@1UAFX_INTERFACEMAP@@B 5f593488   olesvr2.obj
 0002:00008490       ?_interfaceEntries@COleServerItem@@0PBUAFX_INTERFACEMAP_ENTRY@@B 5f593490   olesvr2.obj
 0002:000084ac       ??_7COleServerItem@@6B@    5f5934ac   olesvr2.obj
 0002:0000855c       ??_7CItemDataSource@COleServerItem@@6B@ 5f59355c   olesvr2.obj
 0002:000085cc       ??_7XOleObject@COleServerItem@@6B@ 5f5935cc   olesvr2.obj
 0002:00008634       ??_7XDataObject@COleServerItem@@6B@ 5f593634   olesvr2.obj
 0002:00008664       ??_C@_1FM@MHHB@?$AA?7?$AAw?$AAi?$AAl?$AAl?$AA?5?$AAn?$AAo?$AAt?$AA?5?$AAw?$AAo?$AAr?$AAk?$AA?5?$AAw?$AAi?$AAt?$AAh?$AA?5@ 5f593664   olesvr2.obj
 0002:000086c0       ??_C@_1GA@INNF@?$AAW?$AAa?$AAr?$AAn?$AAi?$AAn?$AAg?$AA?3?$AA?5?$AAC?$AAO?$AAl?$AAe?$AAS?$AAe?$AAr?$AAv?$AAe?$AAr?$AAI@ 5f5936c0   olesvr2.obj
 0002:00008720       ??_C@_1FK@HLPM@?$AAW?$AAa?$AAr?$AAn?$AAi?$AAn?$AAg?$AA?3?$AA?5?$AAH?$AAI?$AAM?$AAE?$AAT?$AAR?$AAI?$AAC?$AA?5?$AAn?$AAa@ 5f593720   olesvr2.obj
 0002:0000877c       ??_C@_1FK@DCGH@?$AA?7?$AAp?$AAr?$AAe?$AAs?$AAe?$AAn?$AAt?$AAa?$AAt?$AAi?$AAo?$AAn?$AA?5?$AAm?$AAe?$AAt?$AAa?$AAf?$AAi@ 5f59377c   olesvr2.obj
 0002:000087d8       ??_C@_1GA@NAIL@?$AAW?$AAa?$AAr?$AAn?$AAi?$AAn?$AAg?$AA?3?$AA?5?$AAO?$AAn?$AAG?$AAe?$AAt?$AAE?$AAx?$AAt?$AAe?$AAn?$AAt@ 5f5937d8   olesvr2.obj
 0002:00008838       ??_C@_1FG@DGD@?$AAc?$AAa?$AAl?$AAl?$AAi?$AAn?$AAg?$AA?5?$AAC?$AAO?$AAl?$AAe?$AAS?$AAe?$AAr?$AAv?$AAe?$AAr?$AAI?$AAt@ 5f593838   olesvr2.obj
 0002:00008890       ??_C@_1FI@MCBM@?$AAW?$AAa?$AAr?$AAn?$AAi?$AAn?$AAg?$AA?3?$AA?5?$AAu?$AAn?$AAa?$AAb?$AAl?$AAe?$AA?5?$AAt?$AAo?$AA?5?$AAg@ 5f593890   olesvr2.obj
 0002:000088e8       ??_C@_0BF@OOCM@?6with?5m_dataSource?3?5?$AA@ 5f5938e8   olesvr2.obj
 0002:00008900       ??_C@_0BJ@NNND@?6m_lpDataAdviseHolder?5?$DN?5?$AA@ 5f593900   olesvr2.obj
 0002:0000891c       ??_C@_0BI@EGAL@?6m_lpOleAdviseHolder?5?$DN?5?$AA@ 5f59391c   olesvr2.obj
 0002:00008934       ??_C@_0BC@MFJM@?6m_strItemName?5?$DN?5?$AA@ 5f593934   olesvr2.obj
 0002:00008948       ??_C@_0BC@BDB@?6m_bAutoDelete?5?$DN?5?$AA@ 5f593948   olesvr2.obj
 0002:0000895c       ??_C@_0BB@GJMC@m_bNeedUnlock?5?$DN?5?$AA@ 5f59395c   olesvr2.obj
 0002:00008f10       ??_C@_15KLDP@?$AA?$CF?$AAd?$AA?$AA?$AA?$AA?$AA?$AH?$AA?$AA@ 5f593f10   olereg.obj
 0002:00008f18       ??_C@_1IA@EMIO@?$AAW?$AAa?$AAr?$AAn?$AAi?$AAn?$AAg?$AA?3?$AA?5?$AAS?$AAt?$AAr?$AAi?$AAn?$AAg?$AAF?$AAr?$AAo?$AAm?$AAC@ 5f593f18   olereg.obj
 0002:00008f98       ??_C@_1FO@KKNN@?$AAE?$AAr?$AAr?$AAo?$AAr?$AA?3?$AA?5?$AAf?$AAa?$AAi?$AAl?$AAe?$AAd?$AA?5?$AAs?$AAe?$AAt?$AAt?$AAi?$AAn@ 5f593f98   olereg.obj
 0002:00008ff8       ??_C@_1DG@EHJJ@?$AA?7?$AAi?$AAn?$AAt?$AAe?$AAn?$AAd?$AAe?$AAd?$AA?5?$AAv?$AAa?$AAl?$AAu?$AAe?$AA?5?$AAw?$AAa?$AAs?$AA?5@ 5f593ff8   olereg.obj
 0002:00009030       ??_C@_1GM@OFND@?$AAW?$AAa?$AAr?$AAn?$AAi?$AAn?$AAg?$AA?3?$AA?5?$AAL?$AAe?$AAa?$AAv?$AAi?$AAn?$AAg?$AA?5?$AAv?$AAa?$AAl@ 5f594030   olereg.obj
 0002:0000909c       ??_C@_1EG@FLBO@?$AAW?$AAa?$AAr?$AAn?$AAi?$AAn?$AAg?$AA?3?$AA?5?$AAs?$AAk?$AAi?$AAp?$AAp?$AAi?$AAn?$AAg?$AA?5?$AAe?$AAm@ 5f59409c   olereg.obj
 0002:000090e4       ??_C@_1M@EPCN@?$AAC?$AAL?$AAS?$AAI?$AAD?$AA?$AA?$AA?$AH?$AA?$AA?$AA?$AA?$AA?$AA?$BI?$AF?$:O@ 5f5940e4   olereg.obj
 0002:000090f4       ??_7COleTemplateServer@@6B@ 5f5940f4   oletsvr.obj
 0002:00009168       ??_C@_1IM@LDKN@?$AAE?$AAr?$AAr?$AAo?$AAr?$AA?3?$AA?5?$AAn?$AAo?$AAt?$AA?5?$AAe?$AAn?$AAo?$AAu?$AAg?$AAh?$AA?5?$AAi?$AAn@ 5f594168   oletsvr.obj
 0002:000091f4       ??_C@_1BC@PGFM@?$AAI?$AAI?$AAD?$AA_?$AAN?$AAU?$AAL?$AAL?$AA?$AA?$AA?$AA?$AA?$AH?$AA?$AA?$AA?$AA?$AA?$AA$0?$AF?$:O?$AA?$BC?$AA?$AB@ 5f5941f4   oleunk.obj
 0002:00009208       ??_C@_1CC@PGDC@?$AAI?$AAI?$AAD?$AA_?$AAI?$AAV?$AAi?$AAe?$AAw?$AAO?$AAb?$AAj?$AAe?$AAc?$AAt?$AA2?$AA?$AA?$AA?$AA?$AA?$AH?$AA?$AA@ 5f594208   oleunk.obj
 0002:0000922c       ??_C@_1CA@LCIJ@?$AAI?$AAI?$AAD?$AA_?$AAI?$AAV?$AAi?$AAe?$AAw?$AAO?$AAb?$AAj?$AAe?$AAc?$AAt?$AA?$AA?$AA?$AH?$AA?$AA?$AA?$AA?$AA?$AA@ 5f59422c   oleunk.obj
 0002:0000924c       ??_C@_1BK@PEME@?$AAI?$AAI?$AAD?$AA_?$AAI?$AAU?$AAn?$AAk?$AAn?$AAo?$AAw?$AAn?$AA?$AA?$AA?$AA?$AA?$AH?$AA?$AA?$AA?$AA?$AA?$AA?$CD?$BA?$AF?$:O@ 5f59424c   oleunk.obj
 0002:00009268       ??_C@_1CC@CGO@?$AAI?$AAI?$AAD?$AA_?$AAI?$AAS?$AAt?$AAu?$AAb?$AAM?$AAa?$AAn?$AAa?$AAg?$AAe?$AAr?$AA?$AA?$AA?$AA?$AA?$AH?$AA?$AA@ 5f594268   oleunk.obj
 0002:0000928c       ??_C@_1BI@BKJF@?$AAI?$AAI?$AAD?$AA_?$AAI?$AAS?$AAt?$AAr?$AAe?$AAa?$AAm?$AA?$AA?$AA?$AH?$AA?$AA?$AA?$AA?$AA?$AA?$CCT?$AF?$:O?$AA?$BI?$AA?$AB@ 5f59428c   oleunk.obj
 0002:000092a4       ??_C@_1BK@CGLI@?$AAI?$AAI?$AAD?$AA_?$AAI?$AAS?$AAt?$AAo?$AAr?$AAa?$AAg?$AAe?$AA?$AA?$AA?$AA?$AA?$AH?$AA?$AA?$AA?$AA?$AA?$AA?$CB?$AF?$:O@ 5f5942a4   oleunk.obj
 0002:000092c0       ??_C@_1CI@ONFB@?$AAI?$AAI?$AAD?$AA_?$AAI?$AAS?$AAt?$AAd?$AAM?$AAa?$AAr?$AAs?$AAh?$AAa?$AAl?$AAI?$AAn?$AAf?$AAo?$AA?$AA@ 5f5942c0   oleunk.obj
 0002:000092e8       ??_C@_1DA@KPDH@?$AAI?$AAI?$AAD?$AA_?$AAI?$AAR?$AAu?$AAn?$AAn?$AAi?$AAn?$AAg?$AAO?$AAb?$AAj?$AAe?$AAc?$AAt?$AAT?$AAa@ 5f5942e8   oleunk.obj
 0002:00009318       ??_C@_1CI@BIGG@?$AAI?$AAI?$AAD?$AA_?$AAI?$AAR?$AAu?$AAn?$AAn?$AAa?$AAb?$AAl?$AAe?$AAO?$AAb?$AAj?$AAe?$AAc?$AAt?$AA?$AA@ 5f594318   oleunk.obj
 0002:00009340       ??_C@_1BK@FFEE@?$AAI?$AAI?$AAD?$AA_?$AAI?$AAR?$AAp?$AAc?$AAS?$AAt?$AAu?$AAb?$AA?$AA?$AA?$AA?$AA?$AH?$AA?$AA?$AA?$AA?$AA?$AA?5?2?$AF?$:O@ 5f594340   oleunk.obj
 0002:0000935c       ??_C@_1BM@ECFL@?$AAI?$AAI?$AAD?$AA_?$AAI?$AAR?$AAp?$AAc?$AAP?$AAr?$AAo?$AAx?$AAy?$AA?$AA?$AA?$AH?$AA?$AA?$AA?$AA?$AA?$AA?5?$AA?$AF?$:O@ 5f59435c   oleunk.obj
 0002:00009378       ??_C@_1CA@ILDG@?$AAI?$AAI?$AAD?$AA_?$AAI?$AAR?$AAp?$AAc?$AAC?$AAh?$AAa?$AAn?$AAn?$AAe?$AAl?$AA?$AA?$AA?$AH?$AA?$AA?$AA?$AA?$AA?$AA@ 5f594378   oleunk.obj
 0002:00009398       ??_C@_1CC@ECHI@?$AAI?$AAI?$AAD?$AA_?$AAI?$AAR?$AAo?$AAo?$AAt?$AAS?$AAt?$AAo?$AAr?$AAa?$AAg?$AAe?$AA?$AA?$AA?$AA?$AA?$AH?$AA?$AA@ 5f594398   oleunk.obj
 0002:000093bc       ??_C@_1CE@KAKA@?$AAI?$AAI?$AAD?$AA_?$AAI?$AAP?$AAr?$AAo?$AAx?$AAy?$AAM?$AAa?$AAn?$AAa?$AAg?$AAe?$AAr?$AA?$AA?$AA?$AH?$AA?$AA@ 5f5943bc   oleunk.obj
 0002:000093e0       ??_C@_1CG@DEPD@?$AAI?$AAI?$AAD?$AA_?$AAI?$AAP?$AAe?$AAr?$AAs?$AAi?$AAs?$AAt?$AAS?$AAt?$AAr?$AAe?$AAa?$AAm?$AA?$AA?$AA?$AA@ 5f5943e0   oleunk.obj
 0002:00009408       ??_C@_1CI@FDOF@?$AAI?$AAI?$AAD?$AA_?$AAI?$AAP?$AAe?$AAr?$AAs?$AAi?$AAs?$AAt?$AAS?$AAt?$AAo?$AAr?$AAa?$AAg?$AAe?$AA?$AA@ 5f594408   oleunk.obj
 0002:00009430       ??_C@_1CC@JGBD@?$AAI?$AAI?$AAD?$AA_?$AAI?$AAP?$AAe?$AAr?$AAs?$AAi?$AAs?$AAt?$AAF?$AAi?$AAl?$AAe?$AA?$AA?$AA?$AA?$AA?$AH?$AA?$AA@ 5f594430   oleunk.obj
 0002:00009454       ??_C@_1BK@NNIA@?$AAI?$AAI?$AAD?$AA_?$AAI?$AAP?$AAe?$AAr?$AAs?$AAi?$AAs?$AAt?$AA?$AA?$AA?$AA?$AA?$AH?$AA?$AA?$AA?$AA?$AA?$AA?$BNH?$AF?$:O@ 5f594454   oleunk.obj
 0002:00009470       ??_C@_1CM@HKDG@?$AAI?$AAI?$AAD?$AA_?$AAI?$AAP?$AAa?$AAr?$AAs?$AAe?$AAD?$AAi?$AAs?$AAp?$AAl?$AAa?$AAy?$AAN?$AAa?$AAm@ 5f594470   oleunk.obj
 0002:0000949c       ??_C@_1BO@HHB@?$AAI?$AAI?$AAD?$AA_?$AAI?$AAP?$AAS?$AAF?$AAa?$AAc?$AAt?$AAo?$AAr?$AAy?$AA?$AA?$AA?$AA?$AA?$AH?$AA?$AA?$AA?$AA?$AA?$AA@ 5f59449c   oleunk.obj
 0002:000094bc       ??_C@_1BO@ODOO@?$AAI?$AAI?$AAD?$AA_?$AAI?$AAO?$AAl?$AAe?$AAW?$AAi?$AAn?$AAd?$AAo?$AAw?$AA?$AA?$AA?$AA?$AA?$AH?$AA?$AA?$AA?$AA?$AA?$AA@ 5f5944bc   oleunk.obj
 0002:000094dc       ??_C@_1CA@HIIO@?$AAI?$AAI?$AAD?$AA_?$AAI?$AAO?$AAl?$AAe?$AAP?$AAr?$AAe?$AAs?$AAO?$AAb?$AAj?$AA?$AA?$AA?$AH?$AA?$AA?$AA?$AA?$AA?$AA@ 5f5944dc   oleunk.obj
 0002:000094fc       ??_C@_1BO@EFIA@?$AAI?$AAI?$AAD?$AA_?$AAI?$AAO?$AAl?$AAe?$AAO?$AAb?$AAj?$AAe?$AAc?$AAt?$AA?$AA?$AA?$AA?$AA?$AH?$AA?$AA?$AA?$AA?$AA?$AA@ 5f5944fc   oleunk.obj
 0002:0000951c       ??_C@_1CA@NGAA@?$AAI?$AAI?$AAD?$AA_?$AAI?$AAO?$AAl?$AAe?$AAM?$AAa?$AAn?$AAa?$AAg?$AAe?$AAr?$AA?$AA?$AA?$AH?$AA?$AA?$AA?$AA?$AA?$AA@ 5f59451c   oleunk.obj
 0002:0000953c       ??_C@_1BK@FEPI@?$AAI?$AAI?$AAD?$AA_?$AAI?$AAO?$AAl?$AAe?$AAL?$AAi?$AAn?$AAk?$AA?$AA?$AA?$AA?$AA?$AH?$AA?$AA?$AA?$AA?$AA?$AA?$BK?$;A?$AF?$:O@ 5f59453c   oleunk.obj
 0002:00009558       ??_C@_1CM@POLK@?$AAI?$AAI?$AAD?$AA_?$AAI?$AAO?$AAl?$AAe?$AAI?$AAt?$AAe?$AAm?$AAC?$AAo?$AAn?$AAt?$AAa?$AAi?$AAn?$AAe@ 5f594558   oleunk.obj
 0002:00009584       ??_C@_1DA@BENE@?$AAI?$AAI?$AAD?$AA_?$AAI?$AAO?$AAl?$AAe?$AAI?$AAn?$AAP?$AAl?$AAa?$AAc?$AAe?$AAU?$AAI?$AAW?$AAi?$AAn@ 5f594584   oleunk.obj
 0002:000095b4       ??_C@_1CI@LJKE@?$AAI?$AAI?$AAD?$AA_?$AAI?$AAO?$AAl?$AAe?$AAI?$AAn?$AAP?$AAl?$AAa?$AAc?$AAe?$AAS?$AAi?$AAt?$AAe?$AA?$AA@ 5f5945b4   oleunk.obj
 0002:000095dc       ??_C@_1CM@OIJJ@?$AAI?$AAI?$AAD?$AA_?$AAI?$AAO?$AAl?$AAe?$AAI?$AAn?$AAP?$AAl?$AAa?$AAc?$AAe?$AAO?$AAb?$AAj?$AAe?$AAc@ 5f5945dc   oleunk.obj
 0002:00009608       ??_C@_1CK@LOII@?$AAI?$AAI?$AAD?$AA_?$AAI?$AAO?$AAl?$AAe?$AAI?$AAn?$AAP?$AAl?$AAa?$AAc?$AAe?$AAF?$AAr?$AAa?$AAm?$AAe@ 5f594608   oleunk.obj
 0002:00009634       ??_C@_1DI@CFFB@?$AAI?$AAI?$AAD?$AA_?$AAI?$AAO?$AAl?$AAe?$AAI?$AAn?$AAP?$AAl?$AAa?$AAc?$AAe?$AAA?$AAc?$AAt?$AAi?$AAv@ 5f594634   oleunk.obj
 0002:0000966c       ??_C@_1CE@NODB@?$AAI?$AAI?$AAD?$AA_?$AAI?$AAO?$AAl?$AAe?$AAC?$AAo?$AAn?$AAt?$AAa?$AAi?$AAn?$AAe?$AAr?$AA?$AA?$AA?$AH?$AA?$AA@ 5f59466c   oleunk.obj
 0002:00009690       ??_C@_1CG@IBJB@?$AAI?$AAI?$AAD?$AA_?$AAI?$AAO?$AAl?$AAe?$AAC?$AAl?$AAi?$AAe?$AAn?$AAt?$AAS?$AAi?$AAt?$AAe?$AA?$AA?$AA?$AA@ 5f594690   oleunk.obj
 0002:000096b8       ??_C@_1CK@DLDK@?$AAI?$AAI?$AAD?$AA_?$AAI?$AAO?$AAl?$AAe?$AAC?$AAa?$AAc?$AAh?$AAe?$AAC?$AAo?$AAn?$AAt?$AAr?$AAo?$AAl@ 5f5946b8   oleunk.obj
 0002:000096e4       ??_C@_1BO@CNKN@?$AAI?$AAI?$AAD?$AA_?$AAI?$AAO?$AAl?$AAe?$AAC?$AAa?$AAc?$AAh?$AAe?$AA2?$AA?$AA?$AA?$AA?$AA?$AH?$AA?$AA?$AA?$AA?$AA?$AA@ 5f5946e4   oleunk.obj
 0002:00009704       ??_C@_1BM@JHBI@?$AAI?$AAI?$AAD?$AA_?$AAI?$AAO?$AAl?$AAe?$AAC?$AAa?$AAc?$AAh?$AAe?$AA?$AA?$AA?$AH?$AA?$AA?$AA?$AA?$AA?$AA?$BG?$BI?$AF?$:O@ 5f594704   oleunk.obj
 0002:00009720       ??_C@_1CK@DFMF@?$AAI?$AAI?$AAD?$AA_?$AAI?$AAO?$AAl?$AAe?$AAA?$AAd?$AAv?$AAi?$AAs?$AAe?$AAH?$AAo?$AAl?$AAd?$AAe?$AAr@ 5f594720   oleunk.obj
 0002:0000974c       ??_C@_1BK@JECK@?$AAI?$AAI?$AAD?$AA_?$AAI?$AAM?$AAo?$AAn?$AAi?$AAk?$AAe?$AAr?$AA?$AA?$AA?$AA?$AA?$AH?$AA?$AA?$AA?$AA?$AA?$AA?$BFP?$AF?$:O@ 5f59474c   oleunk.obj
 0002:00009768       ??_C@_1CG@CGGO@?$AAI?$AAI?$AAD?$AA_?$AAI?$AAM?$AAe?$AAs?$AAs?$AAa?$AAg?$AAe?$AAF?$AAi?$AAl?$AAt?$AAe?$AAr?$AA?$AA?$AA?$AA@ 5f594768   oleunk.obj
 0002:00009790       ??_C@_1BK@LCEE@?$AAI?$AAI?$AAD?$AA_?$AAI?$AAM?$AAa?$AAr?$AAs?$AAh?$AAa?$AAl?$AA?$AA?$AA?$AA?$AA?$AH?$AA?$AA?$AA?$AA?$AA?$AA?$BE?$AF?$:O@ 5f594790   oleunk.obj
 0002:000097ac       ??_C@_1BI@NEHI@?$AAI?$AAI?$AAD?$AA_?$AAI?$AAM?$AAa?$AAl?$AAl?$AAo?$AAc?$AA?$AA?$AA?$AH?$AA?$AA?$AA?$AA?$AA?$AA?$BE4?$AF?$:O?$AA?$BI?$AA?$AB@ 5f5947ac   oleunk.obj
 0002:000097c4       ??_C@_1BO@DGME@?$AAI?$AAI?$AAD?$AA_?$AAI?$AAL?$AAo?$AAc?$AAk?$AAB?$AAy?$AAt?$AAe?$AAs?$AA?$AA?$AA?$AA?$AA?$AH?$AA?$AA?$AA?$AA?$AA?$AA@ 5f5947c4   oleunk.obj
 0002:000097e4       ??_C@_1CK@JFE@?$AAI?$AAI?$AAD?$AA_?$AAI?$AAI?$AAn?$AAt?$AAe?$AAr?$AAn?$AAa?$AAl?$AAM?$AAo?$AAn?$AAi?$AAk?$AAe?$AAr@ 5f5947e4   oleunk.obj
 0002:00009810       ??_C@_1CC@MLIL@?$AAI?$AAI?$AAD?$AA_?$AAI?$AAE?$AAn?$AAu?$AAm?$AAV?$AAA?$AAR?$AAI?$AAA?$AAN?$AAT?$AA?$AA?$AA?$AA?$AA?$AH?$AA?$AA@ 5f594810   oleunk.obj
 0002:00009834       ??_C@_1CC@GMAD@?$AAI?$AAI?$AAD?$AA_?$AAI?$AAE?$AAn?$AAu?$AAm?$AAU?$AAn?$AAk?$AAn?$AAo?$AAw?$AAn?$AA?$AA?$AA?$AA?$AA?$AH?$AA?$AA@ 5f594834   oleunk.obj
 0002:00009858       ??_C@_1CA@FGJ@?$AAI?$AAI?$AAD?$AA_?$AAI?$AAE?$AAn?$AAu?$AAm?$AAS?$AAt?$AAr?$AAi?$AAn?$AAg?$AA?$AA?$AA?$AH?$AA?$AA?$AA?$AA?$AA?$AA@ 5f594858   oleunk.obj
 0002:00009878       ??_C@_1CC@ELHM@?$AAI?$AAI?$AAD?$AA_?$AAI?$AAE?$AAn?$AAu?$AAm?$AAS?$AAT?$AAA?$AAT?$AAS?$AAT?$AAG?$AA?$AA?$AA?$AA?$AA?$AH?$AA?$AA@ 5f594878   oleunk.obj
 0002:0000989c       ??_C@_1CE@GBAK@?$AAI?$AAI?$AAD?$AA_?$AAI?$AAE?$AAn?$AAu?$AAm?$AAS?$AAT?$AAA?$AAT?$AAD?$AAA?$AAT?$AAA?$AA?$AA?$AA?$AH?$AA?$AA@ 5f59489c   oleunk.obj
 0002:000098c0       ??_C@_1CC@BJFA@?$AAI?$AAI?$AAD?$AA_?$AAI?$AAE?$AAn?$AAu?$AAm?$AAO?$AAL?$AAE?$AAV?$AAE?$AAR?$AAB?$AA?$AA?$AA?$AA?$AA?$AH?$AA?$AA@ 5f5948c0   oleunk.obj
 0002:000098e4       ??_C@_1CC@MON@?$AAI?$AAI?$AAD?$AA_?$AAI?$AAE?$AAn?$AAu?$AAm?$AAM?$AAo?$AAn?$AAi?$AAk?$AAe?$AAr?$AA?$AA?$AA?$AA?$AA?$AH?$AA?$AA@ 5f5948e4   oleunk.obj
 0002:00009908       ??_C@_1CA@CJAC@?$AAI?$AAI?$AAD?$AA_?$AAI?$AAE?$AAn?$AAu?$AAm?$AAH?$AAo?$AAl?$AAd?$AAe?$AAr?$AA?$AA?$AA?$AH?$AA?$AA?$AA?$AA?$AA?$AA@ 5f594908   oleunk.obj
 0002:00009928       ??_C@_1CC@OPNL@?$AAI?$AAI?$AAD?$AA_?$AAI?$AAE?$AAn?$AAu?$AAm?$AAG?$AAe?$AAn?$AAe?$AAr?$AAi?$AAc?$AA?$AA?$AA?$AA?$AA?$AH?$AA?$AA@ 5f594928   oleunk.obj
 0002:0000994c       ??_C@_1CG@CFMN@?$AAI?$AAI?$AAD?$AA_?$AAI?$AAE?$AAn?$AAu?$AAm?$AAF?$AAO?$AAR?$AAM?$AAA?$AAT?$AAE?$AAT?$AAC?$AA?$AA?$AA?$AA@ 5f59494c   oleunk.obj
 0002:00009974       ??_C@_1CE@IMAD@?$AAI?$AAI?$AAD?$AA_?$AAI?$AAE?$AAn?$AAu?$AAm?$AAC?$AAa?$AAl?$AAl?$AAb?$AAa?$AAc?$AAk?$AA?$AA?$AA?$AH?$AA?$AA@ 5f594974   oleunk.obj
 0002:00009998       ??_C@_1CA@HLHD@?$AAI?$AAI?$AAD?$AA_?$AAI?$AAD?$AAr?$AAo?$AAp?$AAT?$AAa?$AAr?$AAg?$AAe?$AAt?$AA?$AA?$AA?$AH?$AA?$AA?$AA?$AA?$AA?$AA@ 5f594998   oleunk.obj
 0002:000099b8       ??_C@_1CA@GHOO@?$AAI?$AAI?$AAD?$AA_?$AAI?$AAD?$AAr?$AAo?$AAp?$AAS?$AAo?$AAu?$AAr?$AAc?$AAe?$AA?$AA?$AA?$AH?$AA?$AA?$AA?$AA?$AA?$AA@ 5f5949b8   oleunk.obj
 0002:000099d8       ??_C@_1BM@JOHN@?$AAI?$AAI?$AAD?$AA_?$AAI?$AAD?$AAi?$AAs?$AAp?$AAa?$AAt?$AAc?$AAh?$AA?$AA?$AA?$AH?$AA?$AA?$AA?$AA?$AA?$AA?$AO?$AE?$AF?$:O@ 5f5949d8   oleunk.obj
 0002:000099f4       ??_C@_1CC@PCEG@?$AAI?$AAI?$AAD?$AA_?$AAI?$AAD?$AAf?$AAR?$AAe?$AAs?$AAe?$AAr?$AAv?$AAe?$AAd?$AA3?$AA?$AA?$AA?$AA?$AA?$AH?$AA?$AA@ 5f5949f4   oleunk.obj
 0002:00009a18       ??_C@_1CC@KAFA@?$AAI?$AAI?$AAD?$AA_?$AAI?$AAD?$AAf?$AAR?$AAe?$AAs?$AAe?$AAr?$AAv?$AAe?$AAd?$AA2?$AA?$AA?$AA?$AA?$AA?$AH?$AA?$AA@ 5f594a18   oleunk.obj
 0002:00009a3c       ??_C@_1CC@FGGL@?$AAI?$AAI?$AAD?$AA_?$AAI?$AAD?$AAf?$AAR?$AAe?$AAs?$AAe?$AAr?$AAv?$AAe?$AAd?$AA1?$AA?$AA?$AA?$AA?$AA?$AH?$AA?$AA@ 5f594a3c   oleunk.obj
 0002:00009a60       ??_C@_1CC@FBEG@?$AAI?$AAI?$AAD?$AA_?$AAI?$AAD?$AAe?$AAb?$AAu?$AAg?$AAS?$AAt?$AAr?$AAe?$AAa?$AAm?$AA?$AA?$AA?$AA?$AA?$AH?$AA?$AA@ 5f594a60   oleunk.obj
 0002:00009a84       ??_C@_1BG@GPMC@?$AAI?$AAI?$AAD?$AA_?$AAI?$AAD?$AAe?$AAb?$AAu?$AAg?$AA?$AA?$AA?$AA?$AA?$AH?$AA?$AA?$AA?$AA?$AA?$AA?$AM?$BM?$AF?$:O?$AA?$BG?$AA?$AB@ 5f594a84   oleunk.obj
 0002:00009a9c       ??_C@_1CA@HFGH@?$AAI?$AAI?$AAD?$AA_?$AAI?$AAD?$AAa?$AAt?$AAa?$AAO?$AAb?$AAj?$AAe?$AAc?$AAt?$AA?$AA?$AA?$AH?$AA?$AA?$AA?$AA?$AA?$AA@ 5f594a9c   oleunk.obj
 0002:00009abc       ??_C@_1CM@EIIG@?$AAI?$AAI?$AAD?$AA_?$AAI?$AAD?$AAa?$AAt?$AAa?$AAA?$AAd?$AAv?$AAi?$AAs?$AAe?$AAH?$AAo?$AAl?$AAd?$AAe@ 5f594abc   oleunk.obj
 0002:00009ae8       ??_C@_1BG@DFCJ@?$AAI?$AAI?$AAD?$AA_?$AAI?$AAP?$AAr?$AAi?$AAn?$AAt?$AA?$AA?$AA?$AA?$AA?$AH?$AA?$AA?$AA?$AA?$AA?$AA?6?$AF?$:O?$AA?$BG?$AA?$AB@ 5f594ae8   oleunk.obj
 0002:00009b00       ??_C@_1CK@MEBC@?$AAI?$AAI?$AAD?$AA_?$AAI?$AAO?$AAl?$AAe?$AAD?$AAo?$AAc?$AAu?$AAm?$AAe?$AAn?$AAt?$AAV?$AAi?$AAe?$AAw@ 5f594b00   oleunk.obj
 0002:00009b2c       ??_C@_1CK@CIEN@?$AAI?$AAI?$AAD?$AA_?$AAI?$AAO?$AAl?$AAe?$AAD?$AAo?$AAc?$AAu?$AAm?$AAe?$AAn?$AAt?$AAS?$AAi?$AAt?$AAe@ 5f594b2c   oleunk.obj
 0002:00009b58       ??_C@_1CC@IOAB@?$AAI?$AAI?$AAD?$AA_?$AAI?$AAO?$AAl?$AAe?$AAD?$AAo?$AAc?$AAu?$AAm?$AAe?$AAn?$AAt?$AA?$AA?$AA?$AA?$AA?$AH?$AA?$AA@ 5f594b58   oleunk.obj
 0002:00009b7c       ??_C@_1CM@LPOP@?$AAI?$AAI?$AAD?$AA_?$AAI?$AAO?$AAl?$AAe?$AAC?$AAo?$AAm?$AAm?$AAa?$AAn?$AAd?$AAT?$AAa?$AAr?$AAg?$AAe@ 5f594b7c   oleunk.obj
 0002:00009ba8       ??_C@_1DE@HL@?$AAI?$AAI?$AAD?$AA_?$AAI?$AAE?$AAn?$AAu?$AAm?$AAO?$AAl?$AAe?$AAD?$AAo?$AAc?$AAu?$AAm?$AAe?$AAn?$AAt@ 5f594ba8   oleunk.obj
 0002:00009bdc       ??_C@_1CM@DBAJ@?$AAI?$AAI?$AAD?$AA_?$AAI?$AAC?$AAo?$AAn?$AAt?$AAi?$AAn?$AAu?$AAe?$AAC?$AAa?$AAl?$AAl?$AAb?$AAa?$AAc@ 5f594bdc   oleunk.obj
 0002:00009c08       ??_C@_1CE@EAJK@?$AAI?$AAI?$AAD?$AA_?$AAI?$AAC?$AAl?$AAa?$AAs?$AAs?$AAF?$AAa?$AAc?$AAt?$AAo?$AAr?$AAy?$AA?$AA?$AA?$AH?$AA?$AA@ 5f594c08   oleunk.obj
 0002:00009c2c       ??_C@_1BK@MCPN@?$AAI?$AAI?$AAD?$AA_?$AAI?$AAB?$AAi?$AAn?$AAd?$AAC?$AAt?$AAx?$AA?$AA?$AA?$AA?$AA?$AH?$AA?$AA?$AA?$AA?$AA?$AA?$AH?$<A?$AF?$:O@ 5f594c2c   oleunk.obj
 0002:00009c48       ??_C@_1CC@DII@?$AAI?$AAI?$AAD?$AA_?$AAI?$AAA?$AAd?$AAv?$AAi?$AAs?$AAe?$AAS?$AAi?$AAn?$AAk?$AA2?$AA?$AA?$AA?$AA?$AA?$AH?$AA?$AA@ 5f594c48   oleunk.obj
 0002:00009c6c       ??_C@_1CA@GCGN@?$AAI?$AAI?$AAD?$AA_?$AAI?$AAA?$AAd?$AAv?$AAi?$AAs?$AAe?$AAS?$AAi?$AAn?$AAk?$AA?$AA?$AA?$AH?$AA?$AA?$AA?$AA?$AA?$AA@ 5f594c6c   oleunk.obj
 0002:00009f10       ??_C@_1M@MLPL@?$AA?$CF?$AA2?$AA?4?$AA2?$AAX?$AA?$AA?$AA?$AH?$AA?$AA?$AA?$AA?$AA?$AA?9?$AF?$:O@ 5f594f10   oleunk.obj
 0002:00009f1c       ??_C@_1CG@DKJA@?$AA?$CF?$AA8?$AA?4?$AA8?$AAX?$AA?9?$AA?$CF?$AA4?$AA?4?$AA4?$AAX?$AA?9?$AA?$CF?$AA4?$AA?4?$AA4?$AAX?$AA?9?$AA?$AA?$AA?$AA@ 5f594f1c   oleunk.obj
 0002:00009f4c       ??_7CInnerUnknown@@6B@     5f594f4c   oleunk.obj
 0002:00009f5c       ??_7COleException@@6B@     5f594f5c   oleunk.obj
 0002:00009f78       ?interfaceMap@CEnumOleVerb@@1UAFX_INTERFACEMAP@@B 5f594f78   oleverb.obj
 0002:00009f80       ?_interfaceEntries@CEnumOleVerb@@0PBUAFX_INTERFACEMAP_ENTRY@@B 5f594f80   oleverb.obj
 0002:00009f94       ??_7CEnumOleVerb@@6B@      5f594f94   oleverb.obj
 0002:00009ffc       ??_C@_1BO@JDJE@?$AA?$DM?$AAu?$AAn?$AAk?$AAn?$AAo?$AAw?$AAn?$AA?5?$AAv?$AAe?$AAr?$AAb?$AA?$DO?$AA?$AA?$AA?$AA?$AA?$AH?$AA?$AA?$AA?$AA?$AA?$AA@ 5f594ffc   oleverb.obj
 0002:0000a01c       ??_C@_0O@MAFH@?6?7?5punkVal?5?$DN?5?$AA@ 5f59501c   olevar.obj
 0002:0000a02c       ??_C@_0M@GFHL@?6?7?5scode?5?$DN?5?$AA@ 5f59502c   olevar.obj
 0002:0000a038       ??_C@_0O@EOOF@?6?7?5bstrVal?5?$DN?5?$AA@ 5f595038   olevar.obj
 0002:0000a048       ??_C@_0L@KHBD@?6?7?5date?5?$DN?5?$AA@ 5f595048   olevar.obj
 0002:0000a054       ??_C@_0N@PCIP@?6?7?5dblVal?5?$DN?5?$AA@ 5f595054   olevar.obj
 0002:0000a064       ??_C@_0N@BKHL@?6?7?5fltVal?5?$DN?5?$AA@ 5f595064   olevar.obj
 0002:0000a074       ??_C@_0M@NOJL@?6?7?5cyVal?5?$DN?5?$AA@ 5f595074   olevar.obj
 0002:0000a080       ??_C@_0L@PIPP@?6?7?5lVal?5?$DN?5?$AA@ 5f595080   olevar.obj
 0002:0000a08c       ??_C@_0L@GMDM@?6?7?5iVal?5?$DN?5?$AA@ 5f59508c   olevar.obj
 0002:0000a098       ??_C@_0L@GLCP@?6?7?5bVal?5?$DN?5?$AA@ 5f595098   olevar.obj
 0002:0000a0a4       ??_C@_0O@NJPJ@?6?7?5VT_BOOL?5?$DN?5?$AA@ 5f5950a4   olevar.obj
 0002:0000a0b4       ??_C@_08JIFF@?6?7?5vt?5?$DN?5?$AA@ 5f5950b4   olevar.obj
 0002:0000a0c0       ??_C@_0BF@NHIO@?6COleVariant?5Object?3?$AA@ 5f5950c0   olevar.obj
 0002:0000a148       ??_C@_1FE@FCOP@?$AA?6?$AAC?$AAO?$AAl?$AAe?$AAC?$AAu?$AAr?$AAr?$AAe?$AAn?$AAc?$AAy?$AA?5?$AAV?$AAa?$AAr?$AAC?$AAy?$AAF@ 5f595148   olevar.obj
 0002:0000a19c       ??_C@_0O@GEHN@?6?7Currency?5?$DN?5?$AA@ 5f59519c   olevar.obj
 0002:0000a1ac       ??_C@_0O@DBAA@?6?7m_status?5?$DN?5?$AA@ 5f5951ac   olevar.obj
 0002:0000a1bc       ??_C@_0BG@PNJ@?6COleCurrency?5Object?3?$AA@ 5f5951bc   olevar.obj
 0002:0000a1d4       ??_C@_1GA@EPJN@?$AA?6?$AAF?$AAi?$AAl?$AAe?$AAT?$AAi?$AAm?$AAe?$AAT?$AAo?$AAL?$AAo?$AAc?$AAa?$AAl?$AAF?$AAi?$AAl?$AAe@ 5f5951d4   olevar.obj
 0002:0000a234       ??_C@_1FI@BAAA@?$AA?6?$AAC?$AAO?$AAl?$AAe?$AAD?$AAa?$AAt?$AAe?$AAT?$AAi?$AAm?$AAe?$AA?5?$AAV?$AAa?$AAr?$AAD?$AAa?$AAt@ 5f595234   olevar.obj
 0002:0000a28c       ??_C@_09IMNF@?6?7date?5?$DN?5?$AA@ 5f59528c   olevar.obj
 0002:0000a298       ??_C@_0BG@FBOI@?6COleDateTime?5Object?3?$AA@ 5f595298   olevar.obj
 0002:0000a2b0       ??_C@_0O@CNBC@?6?7dateSpan?5?$DN?5?$AA@ 5f5952b0   olevar.obj
 0002:0000a2c0       ??_C@_0BK@NGPI@?6COleDateTimeSpan?5Object?3?$AA@ 5f5952c0   olevar.obj
 0002:0000a2dc       ??_C@_0O@OMMG@CRichEditView?$AA@ 5f5952dc   viewrich.obj
 0002:0000a2ec       ??_C@_0N@HOLH@CRichEditDoc?$AA@ 5f5952ec   viewrich.obj
 0002:0000a2fc       ??_C@_0BC@CJOP@CRichEditCntrItem?$AA@ 5f5952fc   viewrich.obj
 0002:0000a310       ?messageMap@CRichEditView@@1UAFX_MSGMAP@@B 5f595310   viewrich.obj
 0002:0000a318       ?_messageEntries@CRichEditView@@0PBUAFX_MSGMAP_ENTRY@@B 5f595318   viewrich.obj
 0002:0000a5e8       ?interfaceMap@CRichEditView@@1UAFX_INTERFACEMAP@@B 5f5955e8   viewrich.obj
 0002:0000a5f0       ?_interfaceEntries@CRichEditView@@0PBUAFX_INTERFACEMAP_ENTRY@@B 5f5955f0   viewrich.obj
 0002:0000a610       ?classCRichEditDoc@CRichEditDoc@@2UCRuntimeClass@@B 5f595610   viewrich.obj
 0002:0000a628       ?classCRichEditView@CRichEditView@@2UCRuntimeClass@@B 5f595628   viewrich.obj
 0002:0000a640       ??_C@_1CI@PGNH@?$AAc?$AAo?$AAm?$AAm?$AAd?$AAl?$AAg?$AA_?$AAF?$AAi?$AAn?$AAd?$AAR?$AAe?$AAp?$AAl?$AAa?$AAc?$AAe?$AA?$AA@ 5f595640   viewrich.obj
 0002:0000a668       ??_C@_1BC@IAEH@?$AAR?$AAI?$AAC?$AAH?$AAE?$AAD?$AAI?$AAT?$AA?$AA?$AA?$AA?$AA?$AH?$AA?$AA?$AA?$AA?$AA?$AA?$AB?$BM?$AF?$:O?$AA?$BC?$AA?$AB@ 5f595668   viewrich.obj
 0002:0000a684       ??_7CRichEditView@@6B@     5f595684   viewrich.obj
 0002:0000a7c4       ??_7XRichEditOleCallback@CRichEditView@@6B@ 5f5957c4   viewrich.obj
 0002:0000a7fc       ??_7IRichEditOleCallback@@6B@ 5f5957fc   viewrich.obj
 0002:0000a830       ??_C@_0N@GEKM@RICHED32?4DLL?$AA@ 5f595830   viewrich.obj
 0002:0000a840       ??_C@_1BA@FHJ@?$AAD?$AAI?$AAS?$AAP?$AAL?$AAA?$AAY?$AA?$AA?$AA?$AH?$AA?$AA?$AA?$AA?$AA?$AA?$BE?$CI?$AF?$:O?$AA?$BA?$AA?$AB@ 5f595840   viewrich.obj
 0002:0000a850       ??_C@_1CC@NEDF@?$AAE?$AAn?$AAd?$AA?5?$AAo?$AAf?$AA?5?$AAD?$AAo?$AAc?$AAu?$AAm?$AAe?$AAn?$AAt?$AA?6?$AA?$AA?$AA?$AA?$AA?$AH?$AA?$AA@ 5f595850   viewrich.obj
 0002:0000a874       ??_C@_15MLJJ@?$AA?6?$AA?$AN?$AA?$AA?$AA?$AA?$AA?$AH?$AA?$AA@ 5f595874   viewrich.obj
 0002:0000a884       ??_7_AFX_RICHEDIT_STATE@@6B@ 5f595884   viewrich.obj
 0002:0000a888       ??_C@_1BE@HHGH@?$AA?6?$AAb?$AAN?$AAe?$AAx?$AAt?$AA?5?$AA?$DN?$AA?5?$AA?$AA?$AA?$AH?$AA?$AA?$AA?$AA?$AA?$AA?$AO?$BI?$AF?$:O?$AA?$BE?$AA?$AB?5?$AA@ 5f595888   viewrich.obj
 0002:0000a89c       ??_C@_1BE@GJH@?$AA?6?$AAb?$AAW?$AAo?$AAr?$AAd?$AA?5?$AA?$DN?$AA?5?$AA?$AA?$AA?$AH?$AA?$AA?$AA?$AA?$AA?$AA?$AN?$BI?$AF?$:O?$AA?$BE?$AA?$AB?5?$AA@ 5f59589c   viewrich.obj
 0002:0000a8b0       ??_C@_1BE@GCNH@?$AA?6?$AAb?$AAC?$AAa?$AAs?$AAe?$AA?5?$AA?$DN?$AA?5?$AA?$AA?$AA?$AH?$AA?$AA?$AA?$AA?$AA?$AA?$AM?$BI?$AF?$:O?$AA?$BE?$AA?$AB?5?$AA@ 5f5958b0   viewrich.obj
 0002:0000a8c4       ??_C@_1BO@DJC@?$AA?6?$AAs?$AAt?$AAr?$AAR?$AAe?$AAp?$AAl?$AAa?$AAc?$AAe?$AA?5?$AA?$DN?$AA?5?$AA?$AA?$AA?$AA?$AA?$AH?$AA?$AA?$AA?$AA?$AA?$AA@ 5f5958c4   viewrich.obj
 0002:0000a8e4       ??_C@_1BI@DKKK@?$AA?6?$AAs?$AAt?$AAr?$AAF?$AAi?$AAn?$AAd?$AA?5?$AA?$DN?$AA?5?$AA?$AA?$AA?$AH?$AA?$AA?$AA?$AA?$AA?$AA?6?$AI?$AF?$:O?$AA?$BI?$AA?$AB@ 5f5958e4   viewrich.obj
 0002:0000a8fc       ??_C@_1BM@POFC@?$AA?6?$AAb?$AAF?$AAi?$AAn?$AAd?$AAO?$AAn?$AAl?$AAy?$AA?5?$AA?$DN?$AA?5?$AA?$AA?$AA?$AH?$AA?$AA?$AA?$AA?$AA?$AA?7?$AA?$AF?$:O@ 5f5958fc   viewrich.obj
 0002:0000a918       ??_C@_1CI@HBKG@?$AA?6?$AAp?$AAF?$AAi?$AAn?$AAd?$AAR?$AAe?$AAp?$AAl?$AAa?$AAc?$AAe?$AAD?$AAl?$AAg?$AA?5?$AA?$DN?$AA?5?$AA?$AA@ 5f595918   viewrich.obj
 0002:0000a940       ??_C@_1CM@DGMB@?$AA?6?$AA?5?$AAS?$AAt?$AAa?$AAt?$AAi?$AAc?$AA?5?$AAM?$AAe?$AAm?$AAb?$AAe?$AAr?$AA?5?$AAD?$AAa?$AAt?$AAa@ 5f595940   viewrich.obj
 0002:0000a96c       ??_C@_1BO@HLJK@?$AA?6?$AAm?$AA_?$AAa?$AAP?$AAa?$AAg?$AAe?$AAS?$AAt?$AAa?$AAr?$AAt?$AA?5?$AA?$AA?$AA?$AA?$AA?$AH?$AA?$AA?$AA?$AA?$AA?$AA@ 5f59596c   viewrich.obj
 0002:0000a994       ??_7CRichEditDoc@@6B@      5f595994   viewrich.obj
 0002:0000aaec       ??_7CRichEditCntrItem@@6B@ 5f595aec   viewrich.obj
 0002:0000abd4       ??_C@_1FC@NHOP@?$AAI?$AAn?$AAf?$AAo?$AA?3?$AA?5?$AAA?$AAf?$AAx?$AAD?$AAl?$AAl?$AAC?$AAa?$AAn?$AAU?$AAn?$AAl?$AAo?$AAa@ 5f595bd4   oledll.obj
 0002:0000ac28       ??_C@_0N@CIKC@CMonikerFile?$AA@ 5f595c28   olemon.obj
 0002:0000ac38       ?classCMonikerFile@CMonikerFile@@2UCRuntimeClass@@B 5f595c38   olemon.obj
 0002:0000ac50       ??_C@_0BP@NLGN@d?3?2msdev?2mfc?2include?2afxcom_?4h?$AA@ 5f595c50   olemon.obj
 0002:0000ac74       ??_7_AfxBindHost@@6B@      5f595c74   olemon.obj
 0002:0000ac94       ??_7IBindHost@@6B@         5f595c94   olemon.obj
 0002:0000acac       ??_C@_0O@KOAJ@?6m_Moniker?5?$DN?5?$AA@ 5f595cac   olemon.obj
 0002:0000acc4       ??_7COccManager@@6B@       5f595cc4   occmgr.obj
 0002:0000acec       ??_C@_1HI@MCPK@?$AAD?$AAi?$AAa?$AAl?$AAo?$AAg?$AA?5?$AAh?$AAa?$AAs?$AA?5?$AAO?$AAL?$AAE?$AA?5?$AAc?$AAo?$AAn?$AAt?$AAr@ 5f595cec   occmgr.obj
 0002:0000ad64       ??_C@_1GM@BHNP@?$AAD?$AAL?$AAG?$AAI?$AAN?$AAI?$AAT?$AA?5?$AAr?$AAe?$AAs?$AAo?$AAu?$AAr?$AAc?$AAe?$AA?5?$AAw?$AAa?$AAs@ 5f595d64   occmgr.obj
 0002:0000add0       ??_C@_1FC@BPFC@?$AA?$DO?$AA?$DO?$AA?$DO?$AA?5?$AAI?$AAs?$AA?5?$AAt?$AAh?$AAe?$AA?5?$AAc?$AAo?$AAn?$AAt?$AAr?$AAo?$AAl?$AA?5?$AAp@ 5f595dd0   occmgr.obj
 0002:0000ae24       ??_C@_1DE@LFAE@?$AA?$DO?$AA?$DO?$AA?$DO?$AA?5?$AAR?$AAe?$AAs?$AAu?$AAl?$AAt?$AA?5?$AAc?$AAo?$AAd?$AAe?$AA?3?$AA?5?$AA0?$AAx?$AA?$CF@ 5f595e24   occmgr.obj
 0002:0000ae58       ??_C@_1FA@NJAM@?$AAU?$AAn?$AAa?$AAb?$AAl?$AAe?$AA?5?$AAt?$AAo?$AA?5?$AAc?$AAo?$AAn?$AAv?$AAe?$AAr?$AAt?$AA?5?$AA?$CC?$AA?$CF@ 5f595e58   occmgr.obj
 0002:0000aea8       ??_C@_1GA@COJE@?$AAE?$AAr?$AAr?$AAo?$AAr?$AA?3?$AA?5?$AAn?$AAo?$AA?5?$AAd?$AAa?$AAt?$AAa?$AA?5?$AAe?$AAx?$AAc?$AAh?$AAa@ 5f595ea8   occmgr.obj
 0002:0000af08       ?interfaceMap@COleControlContainer@@1UAFX_INTERFACEMAP@@B 5f595f08   occcont.obj
 0002:0000af10       ?_interfaceEntries@COleControlContainer@@0PBUAFX_INTERFACEMAP_ENTRY@@B 5f595f10   occcont.obj
 0002:0000af28       ?dispatchMap@COleControlContainer@@1UAFX_DISPMAP@@B 5f595f28   occcont.obj
 0002:0000af38       ?_dispatchEntries@COleControlContainer@@0PBUAFX_DISPMAP_ENTRY@@B 5f595f38   occcont.obj
 0002:0000af58       ?interfaceMap@CEnumUnknown@@1UAFX_INTERFACEMAP@@B 5f595f58   occcont.obj
 0002:0000af60       ?_interfaceEntries@CEnumUnknown@@0PBUAFX_INTERFACEMAP_ENTRY@@B 5f595f60   occcont.obj
 0002:0000af70       ??_C@_1HK@MLHB@?$AA?$DO?$AA?$DO?$AA?$DO?$AA?5?$AAY?$AAo?$AAu?$AA?5?$AAs?$AAh?$AAo?$AAu?$AAl?$AAd?$AA?5?$AAc?$AAa?$AAl?$AAl?$AA?5@ 5f595f70   occcont.obj
 0002:0000afec       ??_C@_1HK@GNEK@?$AAW?$AAa?$AAr?$AAn?$AAi?$AAn?$AAg?$AA?3?$AA?5?$AAA?$AAf?$AAx?$AAE?$AAn?$AAa?$AAb?$AAl?$AAe?$AAC?$AAo@ 5f595fec   occcont.obj
 0002:0000b06c       ??_7COleControlContainer@@6B@ 5f59606c   occcont.obj
 0002:0000b104       ??_7XOleIPFrame@COleControlContainer@@6B@ 5f596104   occcont.obj
 0002:0000b144       ??_7XOleContainer@COleControlContainer@@6B@ 5f596144   occcont.obj
 0002:0000b164       ??_7CEnumUnknown@@6B@      5f596164   occcont.obj
 0002:0000b1d0       ?interfaceMap@COleControlSite@@1UAFX_INTERFACEMAP@@B 5f5961d0   occsite.obj
 0002:0000b1d8       ?_interfaceEntries@COleControlSite@@0PBUAFX_INTERFACEMAP_ENTRY@@B 5f5961d8   occsite.obj
 0002:0000b254       ??_7COleControlSite@@6B@   5f596254   occsite.obj
 0002:0000b324       ??_7XOleClientSite@COleControlSite@@6B@ 5f596324   occsite.obj
 0002:0000b34c       ??_7XOleIPSite@COleControlSite@@6B@ 5f59634c   occsite.obj
 0002:0000b38c       ??_7XOleControlSite@COleControlSite@@6B@ 5f59638c   occsite.obj
 0002:0000b3bc       ??_7XAmbientProps@COleControlSite@@6B@ 5f5963bc   occsite.obj
 0002:0000b3dc       ??_7XPropertyNotifySink@COleControlSite@@6B@ 5f5963dc   occsite.obj
 0002:0000b3f4       ??_7XEventSink@COleControlSite@@6B@ 5f5963f4   occsite.obj
 0002:0000b414       ??_7XBoundObjectSite@COleControlSite@@6B@ 5f596414   occsite.obj
 0002:0000b42c       ??_7XNotifyDBEvents@COleControlSite@@6B@ 5f59642c   occsite.obj
 0002:0000b45c       ??_7IOleControlSite@@6B@   5f59645c   occsite.obj
 0002:0000b48c       ??_7IPropertyNotifySink@@6B@ 5f59648c   occsite.obj
 0002:0000b4a4       ??_7IBoundObjectSite@@6B@  5f5964a4   occsite.obj
 0002:0000b4bc       ??_7INotifyDBEvents@@6B@   5f5964bc   occsite.obj
 0002:0000b4e4       ??_C@_1IA@NEHL@?$AAI?$AAO?$AAl?$AAe?$AAI?$AAn?$AAP?$AAl?$AAa?$AAc?$AAe?$AAO?$AAb?$AAj?$AAe?$AAc?$AAt?$AA?5?$AAn?$AAo@ 5f5964e4   occsite.obj
 0002:0000b564       ??_C@_1HE@IBDF@?$AAW?$AAa?$AAr?$AAn?$AAi?$AAn?$AAg?$AA?3?$AA?5?$AAS?$AAe?$AAt?$AAE?$AAx?$AAt?$AAe?$AAn?$AAt?$AA?5?$AAo@ 5f596564   occsite.obj
 0002:0000b5d8       ??_C@_1FO@GJKM@?$AAP?$AAe?$AAr?$AAs?$AAi?$AAs?$AAt?$AAe?$AAn?$AAc?$AAe?$AA?5?$AAn?$AAo?$AAt?$AA?5?$AAs?$AAu?$AAp?$AAp@ 5f5965d8   occsite.obj
 0002:0000b638       ??_C@_1FI@CEE@?$AAI?$AAn?$AAi?$AAt?$AAN?$AAe?$AAw?$AA?5?$AAo?$AAr?$AA?5?$AAL?$AAo?$AAa?$AAd?$AA?5?$AAo?$AAn?$AA?5?$AAO@ 5f596638   occsite.obj
 0002:0000b690       ??_C@_1FE@FIJD@?$AAS?$AAe?$AAt?$AAC?$AAl?$AAi?$AAe?$AAn?$AAt?$AAS?$AAi?$AAt?$AAe?$AA?5?$AAo?$AAn?$AA?5?$AAO?$AAL?$AAE@ 5f596690   occsite.obj
 0002:0000b6e4       ??_C@_1FI@CJC@?$AA?$DO?$AA?$DO?$AA?$DO?$AA?5?$AAI?$AAs?$AA?5?$AAt?$AAh?$AAe?$AA?5?$AAc?$AAo?$AAn?$AAt?$AAr?$AAo?$AAl?$AA?5?$AAi@ 5f5966e4   occsite.obj
 0002:0000b73c       ??_C@_1FK@FIJJ@?$AAC?$AAo?$AAC?$AAr?$AAe?$AAa?$AAt?$AAe?$AAI?$AAn?$AAs?$AAt?$AAa?$AAn?$AAc?$AAe?$AA?5?$AAo?$AAf?$AA?5@ 5f59673c   occsite.obj
 0002:0000b798       ??_C@_1FK@EAGF@?$AAW?$AAa?$AAr?$AAn?$AAi?$AAn?$AAg?$AA?3?$AA?5?$AAc?$AAo?$AAn?$AAt?$AAr?$AAo?$AAl?$AA?5?$AAh?$AAa?$AAs@ 5f596798   occsite.obj
 0002:0000b7fc       ??_7CDataSourceControl@@6B@ 5f5967fc   occsite.obj
 0002:0000b814       ??_C@_1BO@JBLJ@?$AAD?$AAa?$AAt?$AAa?$AAS?$AAo?$AAu?$AAr?$AAc?$AAe?$AAN?$AAa?$AAm?$AAe?$AA?$AA?$AA?$AA?$AA?$AH?$AA?$AA?$AA?$AA?$AA?$AA@ 5f596814   occsite.obj
 0002:0000b83c       ??_7COleControlLock@@6B@   5f59683c   occlock.obj
 0002:0000b840       ??_C@_0BF@FCEC@CDocObjectServerItem?$AA@ 5f596840   oledocob.obj
 0002:0000b858       ??_C@_0BB@ICMG@CDocObjectServer?$AA@ 5f596858   oledocob.obj
 0002:0000b870       ?classCDocObjectServer@CDocObjectServer@@2UCRuntimeClass@@B 5f596870   oledocob.obj
 0002:0000b888       ?messageMap@CDocObjectServer@@1UAFX_MSGMAP@@B 5f596888   oledocob.obj
 0002:0000b890       ?_messageEntries@CDocObjectServer@@0PBUAFX_MSGMAP_ENTRY@@B 5f596890   oledocob.obj
 0002:0000b8a8       ?interfaceMap@CDocObjectServer@@1UAFX_INTERFACEMAP@@B 5f5968a8   oledocob.obj
 0002:0000b8b0       ?_interfaceEntries@CDocObjectServer@@0PBUAFX_INTERFACEMAP_ENTRY@@B 5f5968b0   oledocob.obj
 0002:0000b8e0       ?classCDocObjectServerItem@CDocObjectServerItem@@2UCRuntimeClass@@B 5f5968e0   oledocob.obj
 0002:0000b8fc       ??_7CDocObjectServer@@6B@  5f5968fc   oledocob.obj
 0002:0000b96c       ??_7XOleObject@CDocObjectServer@@6B@ 5f59696c   oledocob.obj
 0002:0000b9d4       ??_7XOleDocument@CDocObjectServer@@6B@ 5f5969d4   oledocob.obj
 0002:0000b9f4       ??_7XOleDocumentView@CDocObjectServer@@6B@ 5f5969f4   oledocob.obj
 0002:0000ba3c       ??_7XOleCommandTarget@CDocObjectServer@@6B@ 5f596a3c   oledocob.obj
 0002:0000ba54       ??_7XPrint@CDocObjectServer@@6B@ 5f596a54   oledocob.obj
 0002:0000ba74       ??_7IOleDocument@@6B@      5f596a74   oledocob.obj
 0002:0000ba94       ??_7IOleDocumentView@@6B@  5f596a94   oledocob.obj
 0002:0000badc       ??_7IOleCommandTarget@@6B@ 5f596adc   oledocob.obj
 0002:0000baf4       ??_7IPrint@@6B@            5f596af4   oledocob.obj
 0002:0000bb0c       ??_C@_1HG@ICCB@?$AAE?$AAr?$AAr?$AAo?$AAr?$AA?3?$AA?5?$AAA?$AAn?$AA?5?$AAa?$AAp?$AAp?$AAr?$AAo?$AAp?$AAr?$AAi?$AAa?$AAt@ 5f596b0c   oledocob.obj
 0002:0000bb84       ??_C@_1IC@KEPM@?$AAC?$AAD?$AAo?$AAc?$AAO?$AAb?$AAj?$AAe?$AAc?$AAt?$AAS?$AAe?$AAr?$AAv?$AAe?$AAr?$AA?3?$AA?3?$AAX?$AAO@ 5f596b84   oledocob.obj
 0002:0000bc08       ??_C@_0P@PBDG@m_pViewSite?5?$DN?5?$AA@ 5f596c08   oledocob.obj
 0002:0000bc18       ??_C@_0O@KKDN@m_pDocSite?5?$DN?5?$AA@ 5f596c18   oledocob.obj
 0002:0000bc2c       ??_7CDocObjectServerItem@@6B@ 5f596c2c   oledocob.obj
 0002:0000bcdc       ??_7COleCmdUI@@6B@         5f596cdc   oledoctg.obj
 0002:0000bcf0       ??_C@_0BC@DHMK@COleDocIPFrameWnd?$AA@ 5f596cf0   oledocip.obj
 0002:0000bd08       ?classCOleDocIPFrameWnd@COleDocIPFrameWnd@@2UCRuntimeClass@@B 5f596d08   oledocip.obj
 0002:0000bd20       ?messageMap@COleDocIPFrameWnd@@1UAFX_MSGMAP@@B 5f596d20   oledocip.obj
 0002:0000bd28       ?_messageEntries@COleDocIPFrameWnd@@0PBUAFX_MSGMAP_ENTRY@@B 5f596d28   oledocip.obj
 0002:0000bd44       ??_7COleDocIPFrameWnd@@6B@ 5f596d44   oledocip.obj
 0002:0000be60       ??_C@_0BC@OCAO@CAsyncMonikerFile?$AA@ 5f596e60   oleasmon.obj
 0002:0000be78       ?classCAsyncMonikerFile@CAsyncMonikerFile@@2UCRuntimeClass@@B 5f596e78   oleasmon.obj
 0002:0000be94       ??_7CAsyncMonikerFile@@6B@ 5f596e94   oleasmon.obj
 0002:0000bf44       ??_7_AfxBindStatusCallback@@6B@ 5f596f44   oleasmon.obj
 0002:0000bf74       ??_7IBindStatusCallback@@6B@ 5f596f74   oleasmon.obj
 0002:0000bfa0       ??_C@_0BK@KJOD@?6m_BSC?9?$DOm_pModuleState?5?$DN?5?$AA@ 5f596fa0   oleasmon.obj
 0002:0000bfbc       ??_C@_0BD@LDGP@?6m_BSC?9?$DOm_dwRef?5?$DN?5?$AA@ 5f596fbc   oleasmon.obj
 0002:0000bfd0       ??_C@_0BE@GCCJ@?6m_BSC?9?$DOm_pOwner?5?$DN?5?$AA@ 5f596fd0   oleasmon.obj
 0002:0000bfe4       ??_C@_09IFPP@?6m_BSC?5?$DN?5?$AA@ 5f596fe4   oleasmon.obj
 0002:0000bff0       ??_C@_0BB@DDKI@?6m_pFormatEtc?5?$DN?5?$AA@ 5f596ff0   oleasmon.obj
 0002:0000c004       ??_C@_0O@DNLE@?6m_Binding?5?$DN?5?$AA@ 5f597004   oleasmon.obj
 0002:0000c014       ??_C@_0O@BGCL@COleResizeBar?$AA@ 5f597014   olebar.obj
 0002:0000c050       ?messageMap@COleResizeBar@@1UAFX_MSGMAP@@B 5f597050   olebar.obj
 0002:0000c058       ?_messageEntries@COleResizeBar@@0PBUAFX_MSGMAP_ENTRY@@B 5f597058   olebar.obj
 0002:0000c100       ?classCOleResizeBar@COleResizeBar@@2UCRuntimeClass@@B 5f597100   olebar.obj
 0002:0000c11c       ??_7COleResizeBar@@6B@     5f59711c   olebar.obj
 0002:0000c204       ??_C@_0M@EGDG@COleControl?$AA@ 5f597204   ctlcore.obj
 0002:0000c210       ?interfaceMap@COleControl@@1UAFX_INTERFACEMAP@@B 5f597210   ctlcore.obj
 0002:0000c218       ?_interfaceEntries@COleControl@@0PBUAFX_INTERFACEMAP_ENTRY@@B 5f597218   ctlcore.obj
 0002:0000c2d0       ?eventMap@COleControl@@1UAFX_EVENTMAP@@B 5f5972d0   ctlcore.obj
 0002:0000c2e0       ?messageMap@COleControl@@1UAFX_MSGMAP@@B 5f5972e0   ctlcore.obj
 0002:0000c2e8       ?_messageEntries@COleControl@@0PBUAFX_MSGMAP_ENTRY@@B 5f5972e8   ctlcore.obj
 0002:0000c720       ?classCOleControl@COleControl@@2UCRuntimeClass@@B 5f597720   ctlcore.obj
 0002:0000c73c       ??_7COleControl@@6B@       5f59773c   ctlcore.obj
 0002:0000c93c       ??_7XPersistStorage@COleControl@@6B@ 5f59793c   ctlcore.obj
 0002:0000c96c       ??_7XPersistStreamInit@COleControl@@6B@ 5f59796c   ctlcore.obj
 0002:0000c994       ??_7XPersistMemory@COleControl@@6B@ 5f597994   ctlcore.obj
 0002:0000c9bc       ??_7XPersistPropertyBag@COleControl@@6B@ 5f5979bc   ctlcore.obj
 0002:0000c9dc       ??_7XOleObject@COleControl@@6B@ 5f5979dc   ctlcore.obj
 0002:0000ca44       ??_7XViewObject@COleControl@@6B@ 5f597a44   ctlcore.obj
 0002:0000ca84       ??_7XDataObject@COleControl@@6B@ 5f597a84   ctlcore.obj
 0002:0000cabc       ??_7XOleInPlaceObject@COleControl@@6B@ 5f597abc   ctlcore.obj
 0002:0000caec       ??_7XOleInPlaceActiveObject@COleControl@@6B@ 5f597aec   ctlcore.obj
 0002:0000cb1c       ??_7XOleCache@COleControl@@6B@ 5f597b1c   ctlcore.obj
 0002:0000cb44       ??_7XOleControl@COleControl@@6B@ 5f597b44   ctlcore.obj
 0002:0000cb64       ??_7XProvideClassInfo@COleControl@@6B@ 5f597b64   ctlcore.obj
 0002:0000cb7c       ??_7XSpecifyPropertyPages@COleControl@@6B@ 5f597b7c   ctlcore.obj
 0002:0000cb94       ??_7XPerPropertyBrowsing@COleControl@@6B@ 5f597b94   ctlcore.obj
 0002:0000cbb4       ??_7XFontNotification@COleControl@@6B@ 5f597bb4   ctlcore.obj
 0002:0000cbcc       ??_7XQuickActivate@COleControl@@6B@ 5f597bcc   ctlcore.obj
 0002:0000cbec       ??_7XPointerInactive@COleControl@@6B@ 5f597bec   ctlcore.obj
 0002:0000cc0c       ??_7IPersistStreamInit@@6B@ 5f597c0c   ctlcore.obj
 0002:0000cc34       ??_7IPersistMemory@@6B@    5f597c34   ctlcore.obj
 0002:0000cc5c       ??_7IPersistPropertyBag@@6B@ 5f597c5c   ctlcore.obj
 0002:0000cc7c       ??_7IViewObjectEx@@6B@     5f597c7c   ctlcore.obj
 0002:0000ccbc       ??_7IOleInPlaceObjectWindowless@@6B@ 5f597cbc   ctlcore.obj
 0002:0000ccec       ??_7IOleCache@@6B@         5f597cec   ctlcore.obj
 0002:0000cd14       ??_7IOleControl@@6B@       5f597d14   ctlcore.obj
 0002:0000cd34       ??_7IProvideClassInfo2@@6B@ 5f597d34   ctlcore.obj
 0002:0000cd4c       ??_7ISpecifyPropertyPages@@6B@ 5f597d4c   ctlcore.obj
 0002:0000cd64       ??_7IPerPropertyBrowsing@@6B@ 5f597d64   ctlcore.obj
 0002:0000cd84       ??_7IQuickActivate@@6B@    5f597d84   ctlcore.obj
 0002:0000cda4       ??_7IPointerInactive@@6B@  5f597da4   ctlcore.obj
 0002:0000cdc4       ??_7IViewObject2@@6B@      5f597dc4   ctlcore.obj
 0002:0000cdf4       ??_7IProvideClassInfo@@6B@ 5f597df4   ctlcore.obj
 0002:0000ce0c       ??_7IViewObject@@6B@       5f597e0c   ctlcore.obj
 0002:0000ce30       ??_C@_06NEML@?$CINULL?$CJ?$AA@ 5f597e30   ctlcore.obj
 0002:0000ce38       ??_C@_1BA@FMBE@?$AA0?$AAx?$AA?$CF?$AA0?$AA8?$AAl?$AAx?$AA?$AA?$AA?$AH?$AA?$AA?$AA?$AA?$AA?$AA?$AD?$AF?$:O?$AA?$BA?$AA?$AB@ 5f597e38   ctlcore.obj
 0002:0000ce48       ??_C@_0O@GJBD@?6m_bUIDead?5?$DN?5?$AA@ 5f597e48   ctlcore.obj
 0002:0000ce58       ??_C@_0BD@FKID@?6m_bSimpleFrame?5?$DN?5?$AA@ 5f597e58   ctlcore.obj
 0002:0000ce6c       ??_C@_0BC@HCBP@?6m_bConvertVBX?5?$DN?5?$AA@ 5f597e6c   ctlcore.obj
 0002:0000ce80       ??_C@_0BG@DGPF@?6m_bChangingExtent?5?$DN?5?$AA@ 5f597e80   ctlcore.obj
 0002:0000ce98       ??_C@_0M@NMDE@?6m_bOpen?5?$DN?5?$AA@ 5f597e98   ctlcore.obj
 0002:0000cea4       ??_C@_0BL@GHHG@?6m_bPendingUIActivation?5?$DN?5?$AA@ 5f597ea4   ctlcore.obj
 0002:0000cec0       ??_C@_0BA@BKLA@?6m_bUIActive?5?$DN?5?$AA@ 5f597ec0   ctlcore.obj
 0002:0000ced0       ??_C@_0BF@HHGG@?6m_bInPlaceActive?5?$DN?5?$AA@ 5f597ed0   ctlcore.obj
 0002:0000cee8       ??_C@_0BD@IOMN@?6m_iDblClkState?5?$DN?5?$AA@ 5f597ee8   ctlcore.obj
 0002:0000cefc       ??_C@_0BD@GJIM@?6m_iButtonState?5?$DN?5?$AA@ 5f597efc   ctlcore.obj
 0002:0000cf10       ??_C@_0BH@KOMC@?6m_bCountOnAmbients?5?$DN?5?$AA@ 5f597f10   ctlcore.obj
 0002:0000cf28       ??_C@_0BA@BOKL@?6m_bModified?5?$DN?5?$AA@ 5f597f28   ctlcore.obj
 0002:0000cf38       ??_C@_0BK@GELF@?6m_bFinalReleaseCalled?5?$DN?5?$AA@ 5f597f38   ctlcore.obj
 0002:0000cf54       ??_C@_0P@KCGN@?6m_cyExtent?5?$DN?5?$AA@ 5f597f54   ctlcore.obj
 0002:0000cf64       ??_C@_0P@CNKP@?6m_cxExtent?5?$DN?5?$AA@ 5f597f64   ctlcore.obj
 0002:0000cf74       ??_C@_0M@HIFN@?6m_rcPos?5?$DN?5?$AA@ 5f597f74   ctlcore.obj
 0002:0000cf80       ??_C@_0BE@BOHF@?6m_cEventsFrozen?5?$DN?5?$AA@ 5f597f80   ctlcore.obj
 0002:0000cf94       ??_C@_0BG@IAJB@?6m_dwVersionLoaded?5?$DN?5?$AA@ 5f597f94   ctlcore.obj
 0002:0000cfac       ??_C@_0BC@BCLH@?6m_piidEvents?5?$DN?5?5?$AA@ 5f597fac   ctlcore.obj
 0002:0000cfc0       ??_C@_0BC@EKAH@?6m_piidPrimary?5?$DN?5?$AA@ 5f597fc0   ctlcore.obj
 0002:0000cfd4       ??_C@_0BD@DIIE@?6m_pModuleState?5?$DN?5?$AA@ 5f597fd4   ctlcore.obj
 0002:0000cfe8       ??_C@_1CE@GDJL@?$AAA?$AAf?$AAx?$AAO?$AAl?$AAe?$AAC?$AAo?$AAn?$AAt?$AAr?$AAo?$AAl?$AA4?$AA2?$AAu?$AAd?$AA?$AA?$AA?$AG?$AA?$AA@ 5f597fe8   ctlcore.obj
 0002:0000d014       ??_7XEventConnPt@COleControl@@6B@ 5f598014   ctlcore.obj
 0002:0000d084       ??_7XPropConnPt@COleControl@@6B@ 5f598084   ctlcore.obj
 0002:0000d0f0       ??_C@_1GA@KHGF@?$AAW?$AAa?$AAr?$AAn?$AAi?$AAn?$AAg?$AA?3?$AA?5?$AAn?$AAo?$AA?5?$AAm?$AAe?$AAs?$AAs?$AAa?$AAg?$AAe?$AA?5@ 5f5980f0   ctlcore.obj
 0002:0000d154       ??_7CReflectorWnd@@6B@     5f598154   ctlcore.obj
 0002:0000d214       ??_C@_1CE@GDJL@?$AAA?$AAf?$AAx?$AAO?$AAl?$AAe?$AAC?$AAo?$AAn?$AAt?$AAr?$AAo?$AAl?$AA4?$AA2?$AAu?$AAd?$AA?$AA?6?$;E?$AF?$:O@ 5f598214   ctlcore.obj
 0002:0000d23c       ??_7CParkingWnd@@6B@       5f59823c   ctlcore.obj
 0002:0000d300       ?connectionMap@COleControl@@1UAFX_CONNECTIONMAP@@B 5f598300   ctlconn.obj
 0002:0000d308       ?_connectionEntries@COleControl@@0PBUAFX_CONNECTIONMAP_ENTRY@@B 5f598308   ctlconn.obj
 0002:0000d318       ??_C@_1GI@CCPJ@?$AA?$HL?$AA?$CF?$AA0?$AA8?$AAl?$AAX?$AA?9?$AA?$CF?$AA0?$AA4?$AAX?$AA?9?$AA?$CF?$AA0?$AA4?$AAX?$AA?9?$AA?$CF?$AA0?$AA2@ 5f598318   ctldata.obj
 0002:0000d384       ??_7CControlDataSource@COleControl@@6B@ 5f598384   ctldata.obj
 0002:0000d418       ??_C@_1BC@BKHA@?$AAC?$AAo?$AAm?$AAb?$AAo?$AAB?$AAo?$AAx?$AA?$AA?$AA?$AA?$AA?$AH?$AA?$AA?$AA?$AA?$AA?$AA2?$AF?$:O?$AA?$BC?$AA?$AB@ 5f598418   ctlevent.obj
 0002:0000d42c       ??_C@_1BA@GKFH@?$AAL?$AAi?$AAs?$AAt?$AAB?$AAo?$AAx?$AA?$AA?$AA?$AH?$AA?$AA?$AA?$AA?$AA?$AA2?2?$AF?$:O?$AA?$BA?$AA?$AB@ 5f59842c   ctlevent.obj
 0002:0000d43c       ??_C@_19JGFH@?$AAE?$AAd?$AAi?$AAt?$AA?$AA?$AA?$AA?$AA?$AH?$AA?$AA?$AA?$AA?$AA?$AA@ 5f59843c   ctlevent.obj
 0002:0000d448       ??_C@_07FGFI@?$ACH?6?$AI?$AI?$ADK?$AA@ 5f598448   ctlevent.obj
 0002:0000d450       ??_C@_0BC@KPIB@COleControlModule?$AA@ 5f598450   ctlmodul.obj
 0002:0000d468       ?classCOleControlModule@COleControlModule@@2UCRuntimeClass@@B 5f598468   ctlmodul.obj
 0002:0000d480       ?messageMap@CControlFrameWnd@@1UAFX_MSGMAP@@B 5f598480   ctlframe.obj
 0002:0000d488       ?_messageEntries@CControlFrameWnd@@0PBUAFX_MSGMAP_ENTRY@@B 5f598488   ctlframe.obj
 0002:0000d4d4       ??_7CControlFrameWnd@@6B@  5f5984d4   ctlframe.obj
 0002:0000d598       ??_C@_1BG@IDIG@?$AAA?$AAf?$AAx?$AAW?$AAn?$AAd?$AA4?$AA2?$AAu?$AAd?$AA?$AA?$AA?$AA?$AA?$AA?$AA?$AA?$AA?$AA?$AA?$AA?$AA?$AA?$AA?$AA?$AA?$AA?$AA?$AA@ 5f598598   ctlframe.obj
 0002:0000d5b0       ??_C@_1FI@KDGM@?$AAW?$AAa?$AAr?$AAn?$AAi?$AAn?$AAg?$AA?3?$AA?5?$AAf?$AAa?$AAi?$AAl?$AAe?$AAd?$AA?5?$AAt?$AAo?$AA?5?$AAc@ 5f5985b0   ctlframe.obj
 0002:0000d608       ??_C@_1BM@LDDO@?$AAM?$AAS?$AA?5?$AAS?$AAa?$AAn?$AAs?$AA?5?$AAS?$AAe?$AAr?$AAi?$AAf?$AA?$AA?$AA?$AH?$AA?$AA?$AA?$AA?$AA?$AA?$AA?$AF?$:O@ 5f598608   ctlfont.obj
 0002:0000d648       ?interfaceMap@CEnumConnPoints@@1UAFX_INTERFACEMAP@@B 5f598648   oleconn.obj
 0002:0000d650       ?_interfaceEntries@CEnumConnPoints@@0PBUAFX_INTERFACEMAP_ENTRY@@B 5f598650   oleconn.obj
 0002:0000d664       ??_7CConnectionPoint@@6B@  5f598664   oleconn.obj
 0002:0000d6d4       ??_7XConnPt@CConnectionPoint@@6B@ 5f5986d4   oleconn.obj
 0002:0000d6fc       ??_7IConnectionPoint@@6B@  5f5986fc   oleconn.obj
 0002:0000d724       ??_7CEnumConnPoints@@6B@   5f598724   oleconn.obj
 0002:0000d794       ??_7COleConnPtContainer@@6B@ 5f598794   oleconn.obj
 0002:0000d7ac       ??_7IConnectionPointContainer@@6B@ 5f5987ac   oleconn.obj
 0002:0000d7d0       ??_C@_1BC@EBDI@?$AA_?$AAE?$AAx?$AAt?$AAe?$AAn?$AAt?$AAY?$AA?$AA?$AA?$AA?$AA?$AH?$AA?$AA?$AA?$AA?$AA?$AA?$AG?$EA?$AF?$:O?$AA?$BC?$AA?$AB@ 5f5987d0   ctlpropx.obj
 0002:0000d7e4       ??_C@_1BC@BDCO@?$AA_?$AAE?$AAx?$AAt?$AAe?$AAn?$AAt?$AAX?$AA?$AA?$AA?$AA?$AA?$AH?$AA?$AA?$AA?$AA?$AA?$AA?$AFP?$AF?$:O?$AA?$BC?$AA?$AB@ 5f5987e4   ctlpropx.obj
 0002:0000d7f8       ??_C@_1BC@IEIC@?$AA_?$AAV?$AAe?$AAr?$AAs?$AAi?$AAo?$AAn?$AA?$AA?$AA?$AA?$AA?$AH?$AA?$AA?$AA?$AA?$AA?$AA?$AI?$AF?$:O?$AA?$BC?$AA?$AB@ 5f5987f8   ctlpropx.obj
 0002:0000d80c       ??_C@_1BC@IEIC@?$AA_?$AAV?$AAe?$AAr?$AAs?$AAi?$AAo?$AAn?$AA?$AA?$AA?$AA?$AA?$AH?$AA?$AA?$AA?$AA?$AA?$AA?$AGx?$AF?$:O?$AA?$BC?$AA?$AB@ 5f59880c   ctlpropx.obj
 0002:0000d824       ??_7CArchivePropExchange@@6B@ 5f598824   ctlpropx.obj
 0002:0000d83c       ??_7CResetPropExchange@@6B@ 5f59883c   ctlpropx.obj
 0002:0000d854       ??_7CAsyncPropExchange@@6B@ 5f598854   ctlpropx.obj
 0002:0000d868       ??_C@_1BO@FKJD@?$AAF?$AAo?$AAn?$AAt?$AAS?$AAt?$AAr?$AAi?$AAk?$AAe?$AAt?$AAh?$AAr?$AAu?$AA?$AA?$AA?$AA?$AA?$AH?$AA?$AA?$AA?$AA?$AA?$AA@ 5f598868   ctlpropx.obj
 0002:0000d888       ??_C@_1BM@KNCC@?$AAF?$AAo?$AAn?$AAt?$AAU?$AAn?$AAd?$AAe?$AAr?$AAl?$AAi?$AAn?$AAe?$AA?$AA?$AA?$AH?$AA?$AA?$AA?$AA?$AA?$AA$H?$AF?$:O@ 5f598888   ctlpropx.obj
 0002:0000d8a4       ??_C@_1BG@LJAN@?$AAF?$AAo?$AAn?$AAt?$AAI?$AAt?$AAa?$AAl?$AAi?$AAc?$AA?$AA?$AA?$AA?$AA?$AH?$AA?$AA?$AA?$AA?$AA?$AA?$CCT?$AF?$:O?$AA?$BG?$AA?$AB@ 5f5988a4   ctlpropx.obj
 0002:0000d8bc       ??_C@_1BC@KBKA@?$AAF?$AAo?$AAn?$AAt?$AAB?$AAo?$AAl?$AAd?$AA?$AA?$AA?$AA?$AA?$AH?$AA?$AA?$AA?$AA?$AA?$AA?5d?$AF?$:O?$AA?$BC?$AA?$AB@ 5f5988bc   ctlpropx.obj
 0002:0000d8d0       ??_C@_1BC@DAIL@?$AAF?$AAo?$AAn?$AAt?$AAS?$AAi?$AAz?$AAe?$AA?$AA?$AA?$AA?$AA?$AH?$AA?$AA?$AA?$AA?$AA?$AA?$BN?$AF?$:O?$AA?$BC?$AA?$AB@ 5f5988d0   ctlpropx.obj
 0002:0000d8e4       ??_C@_1BC@NLCC@?$AAF?$AAo?$AAn?$AAt?$AAN?$AAa?$AAm?$AAe?$AA?$AA?$AA?$AA?$AA?$AH?$AA?$AA?$AA?$AA?$AA?$AA?$BI?$;E?$AF?$:O?$AA?$BC?$AA?$AB@ 5f5988e4   ctlpropx.obj
 0002:0000d8f8       ??_C@_1DO@FOGK@?$AAN?$AAo?$AA?5?$AAc?$AAl?$AAi?$AAe?$AAn?$AAt?$AA?5?$AAs?$AAi?$AAt?$AAe?$AA?5?$AAi?$AAn?$AA?5?$AAP?$AAX@ 5f5988f8   ctlpropx.obj
 0002:0000d938       ??_C@_1DG@FPKA@?$AAN?$AAo?$AA?5?$AAc?$AAo?$AAn?$AAt?$AAr?$AAo?$AAl?$AA?5?$AAi?$AAn?$AA?5?$AAP?$AAX?$AA_?$AAD?$AAa?$AAt@ 5f598938   ctlpropx.obj
 0002:0000d970       ??_C@_0BB@LGDG@COlePropertyPage?$AA@ 5f598970   ctlppg.obj
 0002:0000d988       ?interfaceMap@COlePropertyPage@@1UAFX_INTERFACEMAP@@B 5f598988   ctlppg.obj
 0002:0000d990       ?_interfaceEntries@COlePropertyPage@@0PBUAFX_INTERFACEMAP_ENTRY@@B 5f598990   ctlppg.obj
 0002:0000d9a8       ?messageMap@COlePropertyPage@@1UAFX_MSGMAP@@B 5f5989a8   ctlppg.obj
 0002:0000d9b0       ?_messageEntries@COlePropertyPage@@0PBUAFX_MSGMAP_ENTRY@@B 5f5989b0   ctlppg.obj
 0002:0000daa0       ?classCOlePropertyPage@COlePropertyPage@@2UCRuntimeClass@@B 5f598aa0   ctlppg.obj
 0002:0000dabc       ??_7AFX_DDPDATA@@6B@       5f598abc   ctlppg.obj
 0002:0000dad0       ??_C@_1EC@EHOL@?$AA?5?$AAF?$AAo?$AAn?$AAt?$AA?5?$AAs?$AAh?$AAo?$AAu?$AAl?$AAd?$AA?5?$AAb?$AAe?$AA?5?$AAM?$AAS?$AA?5?$AAS@ 5f598ad0   ctlppg.obj
 0002:0000db14       ??_C@_1BK@OGFJ@?$AAW?$AAa?$AAr?$AAn?$AAi?$AAn?$AAg?$AA?3?$AA?5?$AA?$CF?$AAs?$AA?6?$AA?$AA?$AA?$AA?$AA?$AH?$AA?$AA?$AA?$AA?$AA?$AA?$CG?$<A?$AF?$:O@ 5f598b14   ctlppg.obj
 0002:0000db30       ??_C@_1FI@BENB@?$AAP?$AAr?$AAo?$AAp?$AAe?$AAr?$AAt?$AAy?$AA?5?$AAp?$AAa?$AAg?$AAe?$AA?5?$AA?8?$AA?$CF?$AAs?$AA?8?$AA?5?$AAu@ 5f598b30   ctlppg.obj
 0002:0000db88       ??_C@_19OFHG@?$AAH?$AAe?$AAl?$AAv?$AA?$AA?$AA?$AA?$AA?$AH?$AA?$AA?$AA?$AA?$AA?$AA@ 5f598b88   ctlppg.obj
 0002:0000db94       ??_C@_1BM@LDDO@?$AAM?$AAS?$AA?5?$AAS?$AAa?$AAn?$AAs?$AA?5?$AAS?$AAe?$AAr?$AAi?$AAf?$AA?$AA?$AA?$AH?$AA?$AA?$AA?$AA?$AA?$AA?$CCH?$AF?$:O@ 5f598b94   ctlppg.obj
 0002:0000dbb0       ??_C@_1CM@HPIG@?$AAP?$AAr?$AAo?$AAp?$AAe?$AAr?$AAt?$AAy?$AA?5?$AAp?$AAa?$AAg?$AAe?$AA?5?$AAw?$AAa?$AAr?$AAn?$AAi?$AAn@ 5f598bb0   ctlppg.obj
 0002:0000dbdc       ??_C@_1GM@LPAD@?$AA?5?$AAD?$AAi?$AAm?$AAe?$AAn?$AAs?$AAi?$AAo?$AAn?$AAs?$AA?5?$AAs?$AAh?$AAo?$AAu?$AAl?$AAd?$AA?5?$AAb@ 5f598bdc   ctlppg.obj
 0002:0000dc48       ??_C@_1BK@OGFJ@?$AAW?$AAa?$AAr?$AAn?$AAi?$AAn?$AAg?$AA?3?$AA?5?$AA?$CF?$AAs?$AA?6?$AA?$AA?$AA?$AA?$AA?$AH?$AA?$AA?$AA?$AA?$AA?$AA?$BO?$HM?$AF?$:O@ 5f598c48   ctlppg.obj
 0002:0000dc64       ??_C@_1FO@HMCD@?$AAP?$AAr?$AAo?$AAp?$AAe?$AAr?$AAt?$AAy?$AA?5?$AAp?$AAa?$AAg?$AAe?$AA?5?$AA?8?$AA?$CF?$AAs?$AA?8?$AA?5?$AAh@ 5f598c64   ctlppg.obj
 0002:0000dccc       ??_7COlePropertyPage@@6B@  5f598ccc   ctlppg.obj
 0002:0000ddbc       ??_7XPropertyPage@COlePropertyPage@@6B@ 5f598dbc   ctlppg.obj
 0002:0000ddfc       ??_7XPropNotifySink@COlePropertyPage@@6B@ 5f598dfc   ctlppg.obj
 0002:0000de14       ??_7IPropertyPage2@@6B@    5f598e14   ctlppg.obj
 0002:0000de54       ??_7IPropertyPage@@6B@     5f598e54   ctlppg.obj
 0002:0000de8c       ??_C@_1BM@LDDO@?$AAM?$AAS?$AA?5?$AAS?$AAa?$AAn?$AAs?$AA?5?$AAS?$AAe?$AAr?$AAi?$AAf?$AA?$AA?$AA?$AH?$AA?$AA?$AA?$AA?$AA?$AA?$CL?$AF?$:O@ 5f598e8c   ctlppg.obj
 0002:0000dea8       ??_C@_19CJM@?$AAE?$AAD?$AAI?$AAT?$AA?$AA?$AA?$AA?$AA?$AH?$AA?$AA?$AA?$AA?$AA?$AA@ 5f598ea8   ctlppg.obj
 0002:0000deb4       ??_C@_0BI@EKAI@CCachedDataPathProperty?$AA@ 5f598eb4   ctlprop.obj
 0002:0000decc       ??_C@_0BC@OBPM@CDataPathProperty?$AA@ 5f598ecc   ctlprop.obj
 0002:0000df60       ?classCDataPathProperty@CDataPathProperty@@2UCRuntimeClass@@B 5f598f60   ctlprop.obj
 0002:0000df78       ?classCCachedDataPathProperty@CCachedDataPathProperty@@2UCRuntimeClass@@B 5f598f78   ctlprop.obj
 0002:0000df90       ??_C@_1BG@LJOC@?$AAA?$AAp?$AAp?$AAe?$AAa?$AAr?$AAa?$AAn?$AAc?$AAe?$AA?$AA?$AA?$AA?$AA?$AH?$AA?$AA?$AA?$AA?$AA?$AAB?$AF?$:O?$AA?$BG?$AA?$AB@ 5f598f90   ctlprop.obj
 0002:0000dfa8       ??_C@_1BA@CGKE@?$AAE?$AAn?$AAa?$AAb?$AAl?$AAe?$AAd?$AA?$AA?$AA?$AH?$AA?$AA?$AA?$AA?$AA?$AA?$DL?$<A?$AF?$:O?$AA?$BA?$AA?$AB@ 5f598fa8   ctlprop.obj
 0002:0000dfb8       ??_C@_1BI@PNDM@?$AAB?$AAo?$AAr?$AAd?$AAe?$AAr?$AAS?$AAt?$AAy?$AAl?$AAe?$AA?$AA?$AA?$AH?$AA?$AA?$AA?$AA?$AA?$AA5?0?$AF?$:O?$AA?$BI?$AA?$AB@ 5f598fb8   ctlprop.obj
 0002:0000dfd0       ??_C@_19LHGG@?$AAF?$AAo?$AAn?$AAt?$AA?$AA?$AA?$AA?$AA?$AH?$AA?$AA?$AA?$AA?$AA?$AA@ 5f598fd0   ctlprop.obj
 0002:0000dfdc       ??_C@_1BE@DJDJ@?$AAB?$AAa?$AAc?$AAk?$AAC?$AAo?$AAl?$AAo?$AAr?$AA?$AA?$AA?$AH?$AA?$AA?$AA?$AA?$AA?$AA?$CF?$AF?$:O?$AA?$BE?$AA?$AB?$AA?$AB?$AA?$AA@ 5f598fdc   ctlprop.obj
 0002:0000dff0       ??_C@_1BE@NMAC@?$AAF?$AAo?$AAr?$AAe?$AAC?$AAo?$AAl?$AAo?$AAr?$AA?$AA?$AA?$AH?$AA?$AA?$AA?$AA?$AA?$AA?$CB?$AF?$:O?$AA?$BE?$AA?$AB?$AA?$AI?$AA?$AA@ 5f598ff0   ctlprop.obj
 0002:0000e004       ??_C@_19PMHI@?$AAT?$AAe?$AAx?$AAt?$AA?$AA?$AA?$AA?$AA?$AH?$AA?$AA?$AA?$AA?$AA?$AA@ 5f599004   ctlprop.obj
 0002:0000e010       ??_C@_1BA@JOHB@?$AAC?$AAa?$AAp?$AAt?$AAi?$AAo?$AAn?$AA?$AA?$AA?$AH?$AA?$AA?$AA?$AA?$AA?$AA?$BE?$<E?$AF?$:O?$AA?$BA?$AA?$AB@ 5f599010   ctlprop.obj
 0002:0000e020       ??_C@_1BI@HFFM@?$AA_?$AAS?$AAt?$AAo?$AAc?$AAk?$AAP?$AAr?$AAo?$AAp?$AAs?$AA?$AA?$AA?$AH?$AA?$AA?$AA?$AA?$AA?$AA?$AGH?$AF?$:O?$AA?$BI?$AA?$AB@ 5f599020   ctlprop.obj
 0002:0000e038       ??_C@_0P@CJNJ@?6m_strPath?5?$DN?5?$CC?$AA@ 5f599038   ctlprop.obj
 0002:0000e048       ??_C@_0P@NANG@?6m_pControl?5?$DN?5?$AA@ 5f599048   ctlprop.obj
 0002:0000e0b0       ??_C@_1EO@JDHG@?$AAF?$AAa?$AAi?$AAl?$AAe?$AAd?$AA?5?$AAt?$AAo?$AA?5?$AAa?$AAl?$AAl?$AAo?$AAc?$AAa?$AAt?$AAe?$AA?5?$AAm@ 5f5990b0   ctlpset.obj
 0002:0000e100       ??_C@_1DO@NMJN@?$AAC?$AAr?$AAe?$AAa?$AAt?$AAe?$AAS?$AAt?$AAr?$AAe?$AAa?$AAm?$AAO?$AAn?$AAH?$AAG?$AAl?$AAo?$AAb?$AAa@ 5f599100   ctlpset.obj
 0002:0000e140       ??_C@_1EK@DGMD@?$AAC?$AAP?$AAr?$AAo?$AAp?$AAe?$AAr?$AAt?$AAy?$AAS?$AAe?$AAt?$AA?3?$AA?3?$AAW?$AAr?$AAi?$AAt?$AAe?$AAT@ 5f599140   ctlpset.obj
 0002:0000e18c       ??_C@_1DA@BKCK@?$AAD?$AAo?$AAP?$AAr?$AAo?$AAp?$AAE?$AAx?$AAc?$AAh?$AAa?$AAn?$AAg?$AAe?$AA?5?$AAf?$AAa?$AAi?$AAl?$AAe@ 5f59918c   ctlpset.obj
 0002:0000e1bc       ??_C@_1EE@PIBB@?$AAC?$AAP?$AAr?$AAo?$AAp?$AAe?$AAr?$AAt?$AAy?$AAS?$AAe?$AAt?$AA?3?$AA?3?$AAA?$AAd?$AAd?$AAS?$AAe?$AAc@ 5f5991bc   ctlpset.obj
 0002:0000e200       ??_C@_1EA@BEDP@?$AAI?$AAS?$AAt?$AAo?$AAr?$AAa?$AAg?$AAe?$AA?3?$AA?3?$AAC?$AAr?$AAe?$AAa?$AAt?$AAe?$AAS?$AAt?$AAr?$AAe@ 5f599200   ctlpset.obj
 0002:0000e240       ??_C@_1EM@EGDF@?$AAS?$AAt?$AAg?$AAC?$AAr?$AAe?$AAa?$AAt?$AAe?$AAD?$AAo?$AAc?$AAf?$AAi?$AAl?$AAe?$AAO?$AAn?$AAI?$AAL@ 5f599240   ctlpset.obj
 0002:0000e28c       ??_C@_1EG@BNDL@?$AAC?$AAr?$AAe?$AAa?$AAt?$AAe?$AAI?$AAL?$AAo?$AAc?$AAk?$AAB?$AAy?$AAt?$AAe?$AAs?$AAO?$AAn?$AAH?$AAG@ 5f59928c   ctlpset.obj
 0002:0000e2d4       ??_C@_1FO@FEKP@?$AAP?$AAr?$AAo?$AAp?$AAs?$AAe?$AAt?$AA?5?$AAo?$AAn?$AAl?$AAy?$AA?5?$AAs?$AAu?$AAp?$AAp?$AAo?$AAr?$AAt@ 5f5992d4   ctlpset.obj
 0002:0000e334       ??_C@_1HC@NHOG@?$AAC?$AAL?$AAS?$AAI?$AAD?$AA_?$AAP?$AAe?$AAr?$AAs?$AAi?$AAs?$AAt?$AAP?$AAr?$AAo?$AAp?$AAs?$AAe?$AAt@ 5f599334   ctlpset.obj
 0002:0000e3a8       ??_C@_1EM@BINA@?$AAC?$AAP?$AAr?$AAo?$AAp?$AAe?$AAr?$AAt?$AAy?$AAS?$AAe?$AAt?$AA?3?$AA?3?$AAR?$AAe?$AAa?$AAd?$AAF?$AAr@ 5f5993a8   ctlpset.obj
 0002:0000e3f4       ??_C@_1EA@GAEG@?$AAF?$AAa?$AAi?$AAl?$AAe?$AAd?$AA?5?$AAt?$AAo?$AA?5?$AAo?$AAp?$AAe?$AAn?$AA?5?$AAc?$AAo?$AAn?$AAt?$AAe@ 5f5993f4   ctlpset.obj
 0002:0000e43c       ??_7CPropsetPropExchange@@6B@ 5f59943c   ctlpset.obj
 0002:0000e450       ??_C@_1BC@DBBK@?$AAC?$AAo?$AAn?$AAt?$AAe?$AAn?$AAt?$AAs?$AA?$AA?$AA?$AA?$AA?$AH?$AA?$AA?$AA?$AA?$AA?$AA?$AA?$9A?$AF?$:O?$AA?$BC?$AA?$AB@ 5f599450   ctlpstg.obj
 0002:0000e464       ??_C@_1CE@GDJL@?$AAA?$AAf?$AAx?$AAO?$AAl?$AAe?$AAC?$AAo?$AAn?$AAt?$AAr?$AAo?$AAl?$AA4?$AA2?$AAu?$AAd?$AA?$AA?$AA?$AL?$AA?$AA@ 5f599464   ctlrefl.obj
 0002:0000e488       ??_C@_1CE@CBLG@?$AAI?$AAn?$AAp?$AAr?$AAo?$AAc?$AAS?$AAe?$AAr?$AAv?$AAe?$AAr?$AA3?$AA2?$AA?$AA?$AA?$CF?$AA2?$AA?$AA?$AA?$AA?$AA?$AA@ 5f599488   ctlreg.obj
 0002:0000e4ac       ??_C@_1BG@KBAC@?$AAV?$AAe?$AAr?$AAs?$AAi?$AAo?$AAn?$AA?$AA?$AA?$CF?$AA7?$AA?$AA?$AA?$AA?$AA?$AA?$AA?$AA?$AA?$AA?$AA?$AA?$AA?$AA?$AA?$AA?$AA?$AA?$AA?$AA@ 5f5994ac   ctlreg.obj
 0002:0000e4c4       ??_C@_1BG@CKJF@?$AAT?$AAy?$AAp?$AAe?$AAL?$AAi?$AAb?$AA?$AA?$AA?$CF?$AA6?$AA?$AA?$AA?$AA?$AA?$AA?$AA?$AA?$AA?$AA?$AA?$AA?$AA?$AA?$AA?$AA?$AA?$AA?$AA?$AA@ 5f5994c4   ctlreg.obj
 0002:0000e4dc       ??_C@_1BC@GHKE@?$AAC?$AAo?$AAn?$AAt?$AAr?$AAo?$AAl?$AA?$AA?$AA?$AA?$AA?$AA?$AA?$AA?$AA?$AA?$AA?$AA?$AA?$AA?$AA?$AA?$AA?$AA?$AA?$AA?$AA?$AA@ 5f5994dc   ctlreg.obj
 0002:0000e4f0       ??_C@_1CA@JADL@?$AAM?$AAi?$AAs?$AAc?$AAS?$AAt?$AAa?$AAt?$AAu?$AAs?$AA?2?$AA1?$AA?$AA?$AA?$CF?$AA5?$AA?$AA?$AA?$AA?$AA?$AA?$AA?$AA?$AA?$AA@ 5f5994f0   ctlreg.obj
 0002:0000e510       ??_C@_1BK@KBO@?$AAM?$AAi?$AAs?$AAc?$AAS?$AAt?$AAa?$AAt?$AAu?$AAs?$AA?$AA?$AA0?$AA?$AA?$AA?$AA?$AA?$AA?$AA?$AA?$AA?$AA?$AA?$AA?$AA?$AA?$AA?$AA@ 5f599510   ctlreg.obj
 0002:0000e52c       ??_C@_1CO@FFFM@?$AAT?$AAo?$AAo?$AAl?$AAb?$AAo?$AAx?$AAB?$AAi?$AAt?$AAm?$AAa?$AAp?$AA3?$AA2?$AA?$AA?$AA?$CF?$AA3?$AA?0?$AA?5@ 5f59952c   ctlreg.obj
 0002:0000e55c       ??_C@_1CE@HDKA@?$AAI?$AAn?$AAp?$AAr?$AAo?$AAc?$AAS?$AAe?$AAr?$AAv?$AAe?$AAr?$AA3?$AA2?$AA?$AA?$AA?$CF?$AA3?$AA?$AA?$AA?$AA?$AA?$AA@ 5f59955c   ctlreg.obj
 0002:0000e580       ??_C@_1BE@EDCM@?$AAP?$AAr?$AAo?$AAg?$AAI?$AAD?$AA?$AA?$AA?$CF?$AA2?$AA?$AA?$AA?$AA?$AA?$AA?$AA?$AA?$AA?$AA?$AA?$AA?$AA?$AA?$AA?$AA?$AA?$AA?$AA?$AA?$AA?$AA@ 5f599580   ctlreg.obj
 0002:0000e594       ??_C@_1BC@HIDF@?$AAC?$AAL?$AAS?$AAI?$AAD?$AA?$AA?$AA?$CF?$AA2?$AA?$AA?$AA?$AA?$AA?$AA?$AA?$AA?$AA?$AA?$AA?$AA?$AA?$AA?$AA?$AA?$AA?$AA?$AA?$AA@ 5f599594   ctlreg.obj
 0002:0000e5a8       ??_C@_17BFLD@?$AA?$AA?$AA?$CF?$AA1?$AA?$AA?$AA?$AA?$AA?$AA?$AA?$AA?$AA?$AA@ 5f5995a8   ctlreg.obj
 0002:0000e5f4       ??_C@_1BG@JIPA@?$AAI?$AAn?$AAt?$AAe?$AAr?$AAf?$AAa?$AAc?$AAe?$AA?2?$AA?$AA?$AA?$AA?$AA?$AH?$AA?$AA?$AA?$AA?$AA?$AA?$AD?$CI?$AF?$:O?$AA?$BG?$AA?$AB@ 5f5995f4   ctlreg.obj
 0002:0000e60c       ??_C@_1FM@PKPN@?$AAW?$AAa?$AAr?$AAn?$AAi?$AAn?$AAg?$AA?3?$AA?5?$AAC?$AAo?$AAu?$AAl?$AAd?$AA?5?$AAn?$AAo?$AAt?$AA?5?$AAl@ 5f59960c   ctlreg.obj
 0002:0000e668       ??_C@_1M@BFC@?$AAw?$AAi?$AAn?$AA3?$AA2?$AA?$AA?$AA?$AH?$AA?$AA?$AA?$AA?$AA?$AA?$CL?$AF?$:O@ 5f599668   ctlreg.obj
 0002:0000e674       ??_C@_1M@JEC@?$AAw?$AAi?$AAn?$AA1?$AA6?$AA?$AA?$AA?$AH?$AA?$AA?$AA?$AA?$AA?$AA?$CJx?$AF?$:O@ 5f599674   ctlreg.obj
 0002:0000e680       ??_C@_1M@OFBC@?$AAF?$AAL?$AAA?$AAG?$AAS?$AA?$AA?$AA?$AH?$AA?$AA?$AA?$AA?$AA?$AA$?$AE?$AF?$:O@ 5f599680   ctlreg.obj
 0002:0000e68c       ??_C@_1BA@KOAG@?$AAH?$AAE?$AAL?$AAP?$AAD?$AAI?$AAR?$AA?$AA?$AA?$AH?$AA?$AA?$AA?$AA?$AA?$AA?$CDL?$AF?$:O?$AA?$BA?$AA?$AB@ 5f59968c   ctlreg.obj
 0002:0000e69c       ??_C@_1BG@DNML@?$AAT?$AAY?$AAP?$AAE?$AAL?$AAI?$AAB?$AA?2?$AA?$CF?$AAs?$AA?$AA?$AA?$AA?$AA?$AH?$AA?$AA?$AA?$AA?$AA?$AA?$BC?$AF?$:O?$AA?$BG?$AA?$AB@ 5f59969c   ctlreg.obj
 0002:0000e6b4       ??_C@_1BO@PFNJ@?$AAT?$AAh?$AAr?$AAe?$AAa?$AAd?$AAi?$AAn?$AAg?$AAM?$AAo?$AAd?$AAe?$AAl?$AA?$AA?$AA?$AA?$AA?$AH?$AA?$AA?$AA?$AA?$AA?$AA@ 5f5996b4   ctlreg.obj
 0002:0000e6d4       ??_C@_1BO@OGKK@?$AAI?$AAn?$AAp?$AAr?$AAo?$AAc?$AAS?$AAe?$AAr?$AAv?$AAe?$AAr?$AA3?$AA2?$AA?$AA?$AA?$AA?$AA?$AH?$AA?$AA?$AA?$AA?$AA?$AA@ 5f5996d4   ctlreg.obj
 0002:0000e6f4       ??_C@_1BG@HHA@?$AAI?$AAn?$AAs?$AAe?$AAr?$AAt?$AAa?$AAb?$AAl?$AAe?$AA?$AA?$AA?$AA?$AA?$AH?$AA?$AA?$AA?$AA?$AA?$AAH?$AF?$:O?$AA?$BG?$AA?$AB@ 5f5996f4   ctlreg.obj
 0002:0000e70c       ??_C@_1BG@HHA@?$AAI?$AAn?$AAs?$AAe?$AAr?$AAt?$AAa?$AAb?$AAl?$AAe?$AA?$AA?$AA?$AA?$AA?$AH?$AA?$AA?$AA?$AA?$AA?$AAGl?$AF?$:O?$AA?$BG?$AA?$AB@ 5f59970c   ctlreg.obj
 0002:0000e724       ??_C@_1BC@CNEA@?$AAC?$AAL?$AAS?$AAI?$AAD?$AA?2?$AA?$CF?$AAs?$AA?$AA?$AA?$AA?$AA?$AH?$AA?$AA?$AA?$AA?$AA?$AA?1?$:A?$AF?$:O?$AA?$BC?$AA?$AB@ 5f599724   ctlreg.obj
 0002:0000e738       ??_C@_1M@CJDN@?$AA?$CF?$AAd?$AA?4?$AA?$CF?$AAd?$AA?$AA?$AA?$AH?$AA?$AA?$AA?$AA?$AA?$AA?0?$DM?$AF?$:O@ 5f599738   ctlreg.obj
 0002:0000e744       ??_C@_1BC@CNEA@?$AAC?$AAL?$AAS?$AAI?$AAD?$AA?2?$AA?$CF?$AAs?$AA?$AA?$AA?$AA?$AA?$AH?$AA?$AA?$AA?$AA?$AA?$AA?$BI?$AF?$:O?$AA?$BC?$AA?$AB@ 5f599744   ctlreg.obj
 0002:0000e758       ??_C@_1BI@FGP@?$AAC?$AAL?$AAS?$AAI?$AAD?$AA?2?$AA?$CF?$AAs?$AA?2?$AA?$CF?$AAs?$AA?$AA?$AA?$AH?$AA?$AA?$AA?$AA?$AA?$AA?$BF?$;I?$AF?$:O?$AA?$BI?$AA?$AB@ 5f599758   ctlreg.obj
 0002:0000e770       ??_C@_1CA@NEAI@?$AAT?$AAo?$AAo?$AAl?$AAb?$AAo?$AAx?$AAB?$AAi?$AAt?$AAm?$AAa?$AAp?$AA3?$AA2?$AA?$AA?$AA?$AH?$AA?$AA?$AA?$AA?$AA?$AA@ 5f599770   ctlreg.obj
 0002:0000e790       ??_C@_1BI@FGP@?$AAC?$AAL?$AAS?$AAI?$AAD?$AA?2?$AA?$CF?$AAs?$AA?2?$AA?$CF?$AAs?$AA?$AA?$AA?$AH?$AA?$AA?$AA?$AA?$AA?$AA?$BC?$AF?$:O?$AA?$BI?$AA?$AB@ 5f599790   ctlreg.obj
 0002:0000e7a8       ??_C@_1BI@FGP@?$AAC?$AAL?$AAS?$AAI?$AAD?$AA?2?$AA?$CF?$AAs?$AA?2?$AA?$CF?$AAs?$AA?$AA?$AA?$AH?$AA?$AA?$AA?$AA?$AA?$AA?$AM?$AF?$:O?$AA?$BI?$AA?$AB@ 5f5997a8   ctlreg.obj
 0002:0000e7c0       ??_C@_1BK@KICO@?$AAI?$AAn?$AAp?$AAr?$AAo?$AAc?$AAS?$AAe?$AAr?$AAv?$AAe?$AAr?$AA?$AA?$AA?$AA?$AA?$AH?$AA?$AA?$AA?$AA?$AA?$AA?$AN?$EA?$AF?$:O@ 5f5997c0   ctlreg.obj
 0002:0000e7dc       ??_C@_1BC@CNEA@?$AAC?$AAL?$AAS?$AAI?$AAD?$AA?2?$AA?$CF?$AAs?$AA?$AA?$AA?$AA?$AA?$AH?$AA?$AA?$AA?$AA?$AA?$AA?$CC?$<E?$AF?$:O?$AA?$BC?$AA?$AB@ 5f5997dc   ctlreg.obj
 0002:0000e7f0       ??_C@_1DK@NHLK@?$AAC?$AAP?$AAr?$AAo?$AAp?$AAe?$AAr?$AAt?$AAy?$AA?3?$AA?3?$AAA?$AAl?$AAl?$AAo?$AAc?$AAV?$AAa?$AAl?$AAu@ 5f5997f0   olepset.obj
 0002:0000e82c       ??_C@_1EK@FCKG@?$AAW?$AAr?$AAi?$AAt?$AAe?$AA?5?$AAo?$AAf?$AA?5?$AAs?$AAe?$AAc?$AAt?$AAi?$AAo?$AAn?$AA?5?$AAh?$AAe?$AAa@ 5f59982c   olepset.obj
 0002:0000e878       ??_C@_1DA@HAMF@?$AAW?$AAr?$AAi?$AAt?$AAe?$AA?5?$AAo?$AAf?$AA?5?$AA?8?$AAp?$AAi?$AAd?$AAo?$AA?8?$AA?5?$AAf?$AAa?$AAi?$AAl@ 5f599878   olepset.obj
 0002:0000e8a8       ??_C@_1FA@PLMF@?$AAW?$AAa?$AAr?$AAn?$AAi?$AAn?$AAg?$AA?3?$AA?5?$AAW?$AAr?$AAo?$AAt?$AAe?$AA?5?$AAe?$AAm?$AAp?$AAt?$AAy@ 5f5998a8   olepset.obj
 0002:0000e8f8       ??_C@_1EK@BEHO@?$AAW?$AAr?$AAi?$AAt?$AAe?$AA?5?$AAo?$AAf?$AA?5?$AAs?$AAe?$AAc?$AAt?$AAi?$AAo?$AAn?$AA?5?$AAh?$AAe?$AAa@ 5f5998f8   olepset.obj
 0002:0000e944       ??_C@_1EI@NOMP@?$AAF?$AAa?$AAi?$AAl?$AAe?$AAd?$AA?5?$AAt?$AAo?$AA?5?$AAa?$AAd?$AAd?$AA?5?$AAe?$AAn?$AAt?$AAr?$AAy?$AA?5@ 5f599944   olepset.obj
 0002:0000e98c       ??_C@_1EE@OIJE@?$AAR?$AAe?$AAa?$AAd?$AA?5?$AAo?$AAf?$AA?5?$AAd?$AAi?$AAc?$AAt?$AAi?$AAo?$AAn?$AAa?$AAr?$AAy?$AA?5?$AAe@ 5f59998c   olepset.obj
 0002:0000e9d0       ??_C@_1EG@CALL@?$AAR?$AAe?$AAa?$AAd?$AA?5?$AAo?$AAf?$AA?5?$AAd?$AAi?$AAc?$AAt?$AAi?$AAo?$AAn?$AAa?$AAr?$AAy?$AA?5?$AAh@ 5f5999d0   olepset.obj
 0002:0000ea18       ??_C@_1EI@LICJ@?$AAW?$AAr?$AAi?$AAt?$AAe?$AA?5?$AAo?$AAf?$AA?5?$AAd?$AAi?$AAc?$AAt?$AAi?$AAo?$AAn?$AAa?$AAr?$AAy?$AA?5@ 5f599a18   olepset.obj
 0002:0000ea60       ??_C@_1EG@FEDK@?$AAW?$AAr?$AAi?$AAt?$AAe?$AA?5?$AAo?$AAf?$AA?5?$AAd?$AAi?$AAc?$AAt?$AAi?$AAo?$AAn?$AAa?$AAr?$AAy?$AA?5@ 5f599a60   olepset.obj
 0002:0000eaa8       ??_C@_1DC@NLIC@?$AAW?$AAr?$AAi?$AAt?$AAe?$AA?5?$AAo?$AAf?$AA?5?$AA?8?$AAf?$AAi?$AAd?$AAo?$AA?8?$AA?5?$AAf?$AAa?$AAi?$AAl@ 5f599aa8   olepset.obj
 0002:0000eadc       ??_C@_1EI@NGHM@?$AAW?$AAa?$AAr?$AAn?$AAi?$AAn?$AAg?$AA?3?$AA?5?$AAW?$AAr?$AAo?$AAt?$AAe?$AA?5?$AAe?$AAm?$AAp?$AAt?$AAy@ 5f599adc   olepset.obj
 0002:0000eb24       ??_C@_1EM@JHDM@?$AAW?$AAr?$AAi?$AAt?$AAe?$AA?5?$AAo?$AAf?$AA?5?$AAP?$AAr?$AAo?$AAp?$AAe?$AAr?$AAt?$AAy?$AA?5?$AAS?$AAe@ 5f599b24   olepset.obj
 0002:0000eb84       ??_7CBlobProperty@@6B@     5f599b84   ctlpbag.obj
 0002:0000ebac       ??_7IPersistStream@@6B@    5f599bac   ctlpbag.obj
 0002:0000ebd4       ??_7CPropbagPropExchange@@6B@ 5f599bd4   ctlpbag.obj
 0002:0000ebe8       ??_C@_0N@CENN@OLEPRO32?4DLL?$AA@ 5f599be8   olepro32.obj
 0002:0000ebf8       ??_C@_0BH@GCMB@OleCreatePropertyFrame?$AA@ 5f599bf8   olepro32.obj
 0002:0000ec10       ??_C@_0BP@DENE@OleCreatePropertyFrameIndirect?$AA@ 5f599c10   olepro32.obj
 0002:0000ec30       ??_C@_0BC@BAHL@OleTranslateColor?$AA@ 5f599c30   olepro32.obj
 0002:0000ec44       ??_C@_0BG@DGED@OleCreateFontIndirect?$AA@ 5f599c44   olepro32.obj
 0002:0000ec5c       ??_C@_0BJ@MOCC@OleCreatePictureIndirect?$AA@ 5f599c5c   olepro32.obj
 0002:0000ec78       ??_C@_0P@CJGP@OleLoadPicture?$AA@ 5f599c78   olepro32.obj
 0002:0000ec8c       ??_7_AFXCTL_AMBIENT_CACHE@@6B@ 5f599c8c   ctlquick.obj
 0002:0000ec90       ??_C@_0O@FBOP@CWindowlessDC?$AA@ 5f599c90   ctlnownd.obj
 0002:0000eca0       ?classCWindowlessDC@CWindowlessDC@@2UCRuntimeClass@@B 5f599ca0   ctlnownd.obj
 0002:0000ecbc       ??_7CWindowlessDC@@6B@     5f599cbc   ctlnownd.obj
 0002:0000ed38       ??_C@_0P@PKCG@CColorPropPage?$AA@ 5f599d38   ppgcolor.obj
 0002:0000edf8       ?messageMap@CColorPropPage@@1UAFX_MSGMAP@@B 5f599df8   ppgcolor.obj
 0002:0000ee00       ?_messageEntries@CColorPropPage@@0PBUAFX_MSGMAP_ENTRY@@B 5f599e00   ppgcolor.obj
 0002:0000eff0       ?guid@CColorPropPage@@2U_GUID@@B 5f599ff0   ppgcolor.obj
 0002:0000f000       ?classCColorPropPage@CColorPropPage@@2UCRuntimeClass@@B 5f59a000   ppgcolor.obj
 0002:0000f01c       ??_7CColorButton@@6B@      5f59a01c   ppgcolor.obj
 0002:0000f0e4       ??_7CColorPropPage@@6B@    5f59a0e4   ppgcolor.obj
 0002:0000f1d4       ??_7CColorPropPageFactory@CColorPropPage@@6B@ 5f59a1d4   ppgcolor.obj
 0002:0000f248       ??_C@_0O@IMID@CFontPropPage?$AA@ 5f59a248   ppgfont.obj
 0002:0000f258       ?messageMap@CFontPropPage@@1UAFX_MSGMAP@@B 5f59a258   ppgfont.obj
 0002:0000f260       ?_messageEntries@CFontPropPage@@0PBUAFX_MSGMAP_ENTRY@@B 5f59a260   ppgfont.obj
 0002:0000f390       ?guid@CFontPropPage@@2U_GUID@@B 5f59a390   ppgfont.obj
 0002:0000f3a0       ?classCFontPropPage@CFontPropPage@@2UCRuntimeClass@@B 5f59a3a0   ppgfont.obj
 0002:0000f3bc       ??_7CFontPropPage@@6B@     5f59a3bc   ppgfont.obj
 0002:0000f4b4       ??_7CSizeComboBox@@6B@     5f59a4b4   ppgfont.obj
 0002:0000f58c       ??_7CFontComboBox@@6B@     5f59a58c   ppgfont.obj
 0002:0000f664       ??_7CFontPropPageFactory@CFontPropPage@@6B@ 5f59a664   ppgfont.obj
 0002:0000f6d8       ??_C@_0BB@EHCI@CPicturePropPage?$AA@ 5f59a6d8   ppgpict.obj
 0002:0000f6f0       ?messageMap@CPicturePropPage@@1UAFX_MSGMAP@@B 5f59a6f0   ppgpict.obj
 0002:0000f6f8       ?_messageEntries@CPicturePropPage@@0PBUAFX_MSGMAP_ENTRY@@B 5f59a6f8   ppgpict.obj
 0002:0000f7a0       ?guid@CPicturePropPage@@2U_GUID@@B 5f59a7a0   ppgpict.obj
 0002:0000f7b0       ?classCPicturePropPage@CPicturePropPage@@2UCRuntimeClass@@B 5f59a7b0   ppgpict.obj
 0002:0000f7cc       ??_7CPicturePropPage@@6B@  5f59a7cc   ppgpict.obj
 0002:0000f8bc       ??_7CPicturePropPageFactory@CPicturePropPage@@6B@ 5f59a8bc   ppgpict.obj
 0002:0000f930       ??_C@_0P@GBDL@CStockPropPage?$AA@ 5f59a930   ppgstock.obj
 0002:0000f940       ?messageMap@CStockPropPage@@1UAFX_MSGMAP@@B 5f59a940   ppgstock.obj
 0002:0000f948       ?_messageEntries@CStockPropPage@@0PBUAFX_MSGMAP_ENTRY@@B 5f59a948   ppgstock.obj
 0002:0000f960       ?classCStockPropPage@CStockPropPage@@2UCRuntimeClass@@B 5f59a960   ppgstock.obj
 0002:0000f97c       ??_7CStockPropPage@@6B@    5f59a97c   ppgstock.obj
 0002:0000fa64       ??_C@_02NCNO@B?$AC?$AA@    5f59aa64   ctlinl.obj
 0002:0000fa68       ??_C@_01PAOO@B?$AA@        5f59aa68   ctlinl.obj
 0002:0000fa6c       ??_C@_04CKMP@?$AC?$AC?$AD?$AD?$AA@ 5f59aa6c   ctlinl.obj
 0002:0000fa74       ??_C@_01PPLJ@?$AD?$AA@     5f59aa74   ctlinl.obj
 0002:0000fa7c       ??_7CPropExchange@@6B@     5f59aa7c   ctlinl.obj
 0002:0000fa94       ??_7CDataPathProperty@@6B@ 5f59aa94   ctlinl.obj
 0002:0000fb54       ??_7CCachedDataPathProperty@@6B@ 5f59ab54   ctlinl.obj
 0002:0000fc44       ??_7type_info@@6B@         5f59ac44   msvcrtd:ti_inst.obj
 0002:0000fc48       ??_C@_08JKC@crtdll?4c?$AA@ 5f59ac48   msvcrtd:crtdll.obj
 0002:0000fc58       _IID_IOleAdviseHolder      5f59ac58   uuid:oleidl_i.obj
 0002:0000fc68       _IID_IOleCache             5f59ac68   uuid:oleidl_i.obj
 0002:0000fc78       _IID_IOleCache2            5f59ac78   uuid:oleidl_i.obj
 0002:0000fc88       _IID_IOleCacheControl      5f59ac88   uuid:oleidl_i.obj
 0002:0000fc98       _IID_IParseDisplayName     5f59ac98   uuid:oleidl_i.obj
 0002:0000fca8       _IID_IOleContainer         5f59aca8   uuid:oleidl_i.obj
 0002:0000fcb8       _IID_IOleClientSite        5f59acb8   uuid:oleidl_i.obj
 0002:0000fcc8       _IID_IOleObject            5f59acc8   uuid:oleidl_i.obj
 0002:0000fcd8       _IID_IOleWindow            5f59acd8   uuid:oleidl_i.obj
 0002:0000fce8       _IID_IOleLink              5f59ace8   uuid:oleidl_i.obj
 0002:0000fcf8       _IID_IOleItemContainer     5f59acf8   uuid:oleidl_i.obj
 0002:0000fd08       _IID_IOleInPlaceUIWindow   5f59ad08   uuid:oleidl_i.obj
 0002:0000fd18       _IID_IOleInPlaceActiveObject 5f59ad18   uuid:oleidl_i.obj
 0002:0000fd28       _IID_IOleInPlaceFrame      5f59ad28   uuid:oleidl_i.obj
 0002:0000fd38       _IID_IOleInPlaceObject     5f59ad38   uuid:oleidl_i.obj
 0002:0000fd48       _IID_IOleInPlaceSite       5f59ad48   uuid:oleidl_i.obj
 0002:0000fd58       _IID_IViewObject           5f59ad58   uuid:oleidl_i.obj
 0002:0000fd68       _IID_IViewObject2          5f59ad68   uuid:oleidl_i.obj
 0002:0000fd78       _IID_IDropSource           5f59ad78   uuid:oleidl_i.obj
 0002:0000fd88       _IID_IDropTarget           5f59ad88   uuid:oleidl_i.obj
 0002:0000fd98       _IID_IEnumOLEVERB          5f59ad98   uuid:oleidl_i.obj
 0002:0000fda8       _IID_IMarshal              5f59ada8   uuid:objidl_i.obj
 0002:0000fdb8       _IID_IMalloc               5f59adb8   uuid:objidl_i.obj
 0002:0000fdc8       _IID_IMallocSpy            5f59adc8   uuid:objidl_i.obj
 0002:0000fdd8       _IID_IStdMarshalInfo       5f59add8   uuid:objidl_i.obj
 0002:0000fde8       _IID_IExternalConnection   5f59ade8   uuid:objidl_i.obj
 0002:0000fdf8       _IID_IEnumUnknown          5f59adf8   uuid:objidl_i.obj
 0002:0000fe08       _IID_IBindCtx              5f59ae08   uuid:objidl_i.obj
 0002:0000fe18       _IID_IEnumMoniker          5f59ae18   uuid:objidl_i.obj
 0002:0000fe28       _IID_IRunnableObject       5f59ae28   uuid:objidl_i.obj
 0002:0000fe38       _IID_IRunningObjectTable   5f59ae38   uuid:objidl_i.obj
 0002:0000fe48       _IID_IPersist              5f59ae48   uuid:objidl_i.obj
 0002:0000fe58       _IID_IPersistStream        5f59ae58   uuid:objidl_i.obj
 0002:0000fe68       _IID_IMoniker              5f59ae68   uuid:objidl_i.obj
 0002:0000fe78       _IID_IROTData              5f59ae78   uuid:objidl_i.obj
 0002:0000fe88       _IID_IEnumString           5f59ae88   uuid:objidl_i.obj
 0002:0000fe98       _IID_IStream               5f59ae98   uuid:objidl_i.obj
 0002:0000fea8       _IID_IEnumSTATSTG          5f59aea8   uuid:objidl_i.obj
 0002:0000feb8       _IID_IStorage              5f59aeb8   uuid:objidl_i.obj
 0002:0000fec8       _IID_IPersistFile          5f59aec8   uuid:objidl_i.obj
 0002:0000fed8       _IID_IPersistStorage       5f59aed8   uuid:objidl_i.obj
 0002:0000fee8       _IID_ILockBytes            5f59aee8   uuid:objidl_i.obj
 0002:0000fef8       _IID_IEnumFORMATETC        5f59aef8   uuid:objidl_i.obj
 0002:0000ff08       _IID_IEnumSTATDATA         5f59af08   uuid:objidl_i.obj
 0002:0000ff18       _IID_IRootStorage          5f59af18   uuid:objidl_i.obj
 0002:0000ff28       _IID_IAdviseSink           5f59af28   uuid:objidl_i.obj
 0002:0000ff38       _IID_IAdviseSink2          5f59af38   uuid:objidl_i.obj
 0002:0000ff48       _IID_IDataObject           5f59af48   uuid:objidl_i.obj
 0002:0000ff58       _IID_IDataAdviseHolder     5f59af58   uuid:objidl_i.obj
 0002:0000ff68       _IID_IMessageFilter        5f59af68   uuid:objidl_i.obj
 0002:0000ff78       _IID_IRpcChannelBuffer     5f59af78   uuid:objidl_i.obj
 0002:0000ff88       _IID_IRpcProxyBuffer       5f59af88   uuid:objidl_i.obj
 0002:0000ff98       _IID_IRpcStubBuffer        5f59af98   uuid:objidl_i.obj
 0002:0000ffa8       _IID_IPSFactoryBuffer      5f59afa8   uuid:objidl_i.obj
 0002:0000ffb8       _IID_IUnknown              5f59afb8   uuid:unknwn_i.obj
 0002:0000ffc8       _IID_IClassFactory         5f59afc8   uuid:unknwn_i.obj
 0002:0000ffd8       _GUID_NULL                 5f59afd8   uuid:cguid_i.obj
 0002:0000ffe8       _IID_IRpcChannel           5f59afe8   uuid:cguid_i.obj
 0002:0000fff8       _IID_IRpcStub              5f59aff8   uuid:cguid_i.obj
 0002:00010008       _IID_IStubManager          5f59b008   uuid:cguid_i.obj
 0002:00010018       _IID_IRpcProxy             5f59b018   uuid:cguid_i.obj
 0002:00010028       _IID_IProxyManager         5f59b028   uuid:cguid_i.obj
 0002:00010038       _IID_IPSFactory            5f59b038   uuid:cguid_i.obj
 0002:00010048       _IID_IInternalMoniker      5f59b048   uuid:cguid_i.obj
 0002:00010058       _IID_IDfReserved1          5f59b058   uuid:cguid_i.obj
 0002:00010068       _IID_IDfReserved2          5f59b068   uuid:cguid_i.obj
 0002:00010078       _IID_IDfReserved3          5f59b078   uuid:cguid_i.obj
 0002:00010088       _CLSID_StdMarshal          5f59b088   uuid:cguid_i.obj
 0002:00010098       _IID_IStub                 5f59b098   uuid:cguid_i.obj
 0002:000100a8       _IID_IProxy                5f59b0a8   uuid:cguid_i.obj
 0002:000100b8       _IID_IEnumGeneric          5f59b0b8   uuid:cguid_i.obj
 0002:000100c8       _IID_IEnumHolder           5f59b0c8   uuid:cguid_i.obj
 0002:000100d8       _IID_IEnumCallback         5f59b0d8   uuid:cguid_i.obj
 0002:000100e8       _IID_IOleManager           5f59b0e8   uuid:cguid_i.obj
 0002:000100f8       _IID_IOlePresObj           5f59b0f8   uuid:cguid_i.obj
 0002:00010108       _IID_IDebug                5f59b108   uuid:cguid_i.obj
 0002:00010118       _IID_IDebugStream          5f59b118   uuid:cguid_i.obj
 0002:00010128       _CLSID_PSGenObject         5f59b128   uuid:cguid_i.obj
 0002:00010138       _CLSID_PSClientSite        5f59b138   uuid:cguid_i.obj
 0002:00010148       _CLSID_PSClassObject       5f59b148   uuid:cguid_i.obj
 0002:00010158       _CLSID_PSInPlaceActive     5f59b158   uuid:cguid_i.obj
 0002:00010168       _CLSID_PSInPlaceFrame      5f59b168   uuid:cguid_i.obj
 0002:00010178       _CLSID_PSDragDrop          5f59b178   uuid:cguid_i.obj
 0002:00010188       _CLSID_PSBindCtx           5f59b188   uuid:cguid_i.obj
 0002:00010198       _CLSID_PSEnumerators       5f59b198   uuid:cguid_i.obj
 0002:000101a8       _CLSID_StaticMetafile      5f59b1a8   uuid:cguid_i.obj
 0002:000101b8       _CLSID_StaticDib           5f59b1b8   uuid:cguid_i.obj
 0002:000101c8       _CLSID_IdentityUnmarshal   5f59b1c8   uuid:cguid_i.obj
 0002:000101d8       _CLSID_InProcFreeMarshaler 5f59b1d8   uuid:cguid_i.obj
 0002:000101e8       _CLSID_Picture_Metafile    5f59b1e8   uuid:cguid_i.obj
 0002:000101f8       _CLSID_Picture_EnhMetafile 5f59b1f8   uuid:cguid_i.obj
 0002:00010208       _CLSID_Picture_Dib         5f59b208   uuid:cguid_i.obj
 0002:00010218       _IID_ICreateTypeInfo       5f59b218   uuid:oaidl_i.obj
 0002:00010228       _IID_ICreateTypeLib        5f59b228   uuid:oaidl_i.obj
 0002:00010238       _IID_IDispatch             5f59b238   uuid:oaidl_i.obj
 0002:00010248       _IID_IEnumVARIANT          5f59b248   uuid:oaidl_i.obj
 0002:00010258       _IID_ITypeComp             5f59b258   uuid:oaidl_i.obj
 0002:00010268       _IID_ITypeInfo             5f59b268   uuid:oaidl_i.obj
 0002:00010278       _IID_ITypeLib              5f59b278   uuid:oaidl_i.obj
 0002:00010288       _IID_IErrorInfo            5f59b288   uuid:oaidl_i.obj
 0002:00010298       _IID_ICreateErrorInfo      5f59b298   uuid:oaidl_i.obj
 0002:000102a8       _IID_ISupportErrorInfo     5f59b2a8   uuid:oaidl_i.obj
 0002:000102b8       _IID_IPropertyNotifySink   5f59b2b8   uuid:uuid2.obj
 0002:000102c8       _IID_IClassFactory2        5f59b2c8   uuid:uuid2.obj
 0002:000102d8       _IID_IProvideClassInfo     5f59b2d8   uuid:uuid2.obj
 0002:000102e8       _IID_IProvideClassInfo2    5f59b2e8   uuid:uuid2.obj
 0002:000102f8       _IID_IConnectionPointContainer 5f59b2f8   uuid:uuid2.obj
 0002:00010308       _IID_IEnumConnectionPoints 5f59b308   uuid:uuid2.obj
 0002:00010318       _IID_IConnectionPoint      5f59b318   uuid:uuid2.obj
 0002:00010328       _IID_IEnumConnections      5f59b328   uuid:uuid2.obj
 0002:00010338       _IID_IOleControl           5f59b338   uuid:uuid2.obj
 0002:00010348       _IID_IOleControlSite       5f59b348   uuid:uuid2.obj
 0002:00010358       _IID_ISimpleFrameSite      5f59b358   uuid:uuid2.obj
 0002:00010368       _IID_IPersistStreamInit    5f59b368   uuid:uuid2.obj
 0002:00010378       _IID_IPersistMemory        5f59b378   uuid:uuid2.obj
 0002:00010388       _IID_IPersistPropertyBag   5f59b388   uuid:uuid2.obj
 0002:00010398       _IID_IPropertyBag          5f59b398   uuid:uuid2.obj
 0002:000103a8       _IID_IErrorLog             5f59b3a8   uuid:uuid2.obj
 0002:000103b8       _IID_IPropertyFrame        5f59b3b8   uuid:uuid2.obj
 0002:000103c8       _IID_ISpecifyPropertyPages 5f59b3c8   uuid:uuid2.obj
 0002:000103d8       _IID_IPerPropertyBrowsing  5f59b3d8   uuid:uuid2.obj
 0002:000103e8       _IID_IPropertyPageSite     5f59b3e8   uuid:uuid2.obj
 0002:000103f8       _IID_IPropertyPage         5f59b3f8   uuid:uuid2.obj
 0002:00010408       _IID_IPropertyPage2        5f59b408   uuid:uuid2.obj
 0002:00010418       _CLSID_CFontPropPage       5f59b418   uuid:uuid2.obj
 0002:00010428       _CLSID_CColorPropPage      5f59b428   uuid:uuid2.obj
 0002:00010438       _CLSID_CPicturePropPage    5f59b438   uuid:uuid2.obj
 0002:00010448       _CLSID_PersistPropset      5f59b448   uuid:uuid2.obj
 0002:00010458       _CLSID_ConvertVBX          5f59b458   uuid:uuid2.obj
 0002:00010468       _CLSID_StdFont             5f59b468   uuid:uuid2.obj
 0002:00010478       _CLSID_StdPicture          5f59b478   uuid:uuid2.obj
 0002:00010488       _IID_IFont                 5f59b488   uuid:uuid2.obj
 0002:00010498       _IID_IFontDisp             5f59b498   uuid:uuid2.obj
 0002:000104a8       _IID_IPicture              5f59b4a8   uuid:uuid2.obj
 0002:000104b8       _IID_IPictureDisp          5f59b4b8   uuid:uuid2.obj
 0002:000104c8       _GUID_HIMETRIC             5f59b4c8   uuid:uuid2.obj
 0002:000104d8       _GUID_COLOR                5f59b4d8   uuid:uuid2.obj
 0002:000104e8       _GUID_XPOSPIXEL            5f59b4e8   uuid:uuid2.obj
 0002:000104f8       _GUID_YPOSPIXEL            5f59b4f8   uuid:uuid2.obj
 0002:00010508       _GUID_XSIZEPIXEL           5f59b508   uuid:uuid2.obj
 0002:00010518       _GUID_YSIZEPIXEL           5f59b518   uuid:uuid2.obj
 0002:00010528       _GUID_XPOS                 5f59b528   uuid:uuid2.obj
 0002:00010538       _GUID_YPOS                 5f59b538   uuid:uuid2.obj
 0002:00010548       _GUID_XSIZE                5f59b548   uuid:uuid2.obj
 0002:00010558       _GUID_YSIZE                5f59b558   uuid:uuid2.obj
 0002:00010568       _GUID_TRISTATE             5f59b568   uuid:uuid2.obj
 0002:00010578       _GUID_OPTIONVALUEEXCLUSIVE 5f59b578   uuid:uuid2.obj
 0002:00010588       _GUID_CHECKVALUEEXCLUSIVE  5f59b588   uuid:uuid2.obj
 0002:00010598       _GUID_FONTNAME             5f59b598   uuid:uuid2.obj
 0002:000105a8       _GUID_FONTSIZE             5f59b5a8   uuid:uuid2.obj
 0002:000105b8       _GUID_FONTBOLD             5f59b5b8   uuid:uuid2.obj
 0002:000105c8       _GUID_FONTITALIC           5f59b5c8   uuid:uuid2.obj
 0002:000105d8       _GUID_FONTUNDERSCORE       5f59b5d8   uuid:uuid2.obj
 0002:000105e8       _GUID_FONTSTRIKETHROUGH    5f59b5e8   uuid:uuid2.obj
 0002:000105f8       _GUID_HANDLE               5f59b5f8   uuid:uuid2.obj
 0002:00010608       _IID_IOleDocument          5f59b608   uuid:docobj.obj
 0002:00010618       _IID_IOleDocumentSite      5f59b618   uuid:docobj.obj
 0002:00010628       _IID_IOleDocumentView      5f59b628   uuid:docobj.obj
 0002:00010638       _IID_IEnumOleDocumentViews 5f59b638   uuid:docobj.obj
 0002:00010648       _IID_IContinueCallback     5f59b648   uuid:docobj.obj
 0002:00010658       _IID_IPrint                5f59b658   uuid:docobj.obj
 0002:00010668       _IID_IOleCommandTarget     5f59b668   uuid:docobj.obj
 0002:00010678       _IID_IBindHost             5f59b678   uuid:datapath.obj
 0002:00010688       _IID_IObjectWithSite       5f59b688   uuid:datapath.obj
 0002:00010698       _IID_IDataPathBrowser      5f59b698   uuid:datapath.obj
 0002:000106a8       _IID_IProvideClassInfo3    5f59b6a8   uuid:datapath.obj
 0002:000106b8       _COLUMNID_INVALID          5f59b6b8   uuid:go7.obj
 0002:000106d0       _COLUMN_AUTOINCREMENT      5f59b6d0   uuid:go7.obj
 0002:000106e8       _COLUMN_BASECOLUMNNAME     5f59b6e8   uuid:go7.obj
 0002:00010700       _COLUMN_BASENAME           5f59b700   uuid:go7.obj
 0002:00010718       _COLUMN_BINARYCOMPARABLE   5f59b718   uuid:go7.obj
 0002:00010730       _COLUMN_BINDTYPE           5f59b730   uuid:go7.obj
 0002:00010748       _COLUMN_CASESENSITIVE      5f59b748   uuid:go7.obj
 0002:00010760       _COLUMN_COLLATINGORDER     5f59b760   uuid:go7.obj
 0002:00010778       _COLUMN_COLUMNID           5f59b778   uuid:go7.obj
 0002:00010790       _COLUMN_CURSORCOLUMN       5f59b790   uuid:go7.obj
 0002:000107a8       _COLUMN_DATACOLUMN         5f59b7a8   uuid:go7.obj
 0002:000107c0       _COLUMN_DEFAULTVALUE       5f59b7c0   uuid:go7.obj
 0002:000107d8       _COLUMN_ENTRYIDMAXLENGTH   5f59b7d8   uuid:go7.obj
 0002:000107f0       _COLUMN_FIXED              5f59b7f0   uuid:go7.obj
 0002:00010808       _COLUMN_HASDEFAULT         5f59b808   uuid:go7.obj
 0002:00010820       _COLUMN_MAXLENGTH          5f59b820   uuid:go7.obj
 0002:00010838       _COLUMN_MULTIVALUED        5f59b838   uuid:go7.obj
 0002:00010850       _COLUMN_NAME               5f59b850   uuid:go7.obj
 0002:00010868       _COLUMN_NULLABLE           5f59b868   uuid:go7.obj
 0002:00010880       _COLUMN_PHYSICALSORT       5f59b880   uuid:go7.obj
 0002:00010898       _COLUMN_NUMBER             5f59b898   uuid:go7.obj
 0002:000108b0       _COLUMN_ROWENTRYID         5f59b8b0   uuid:go7.obj
 0002:000108c8       _COLUMN_SCALE              5f59b8c8   uuid:go7.obj
 0002:000108e0       _COLUMN_SEARCHABLE         5f59b8e0   uuid:go7.obj
 0002:000108f8       _COLUMN_TYPE               5f59b8f8   uuid:go7.obj
 0002:00010910       _COLUMN_UNIQUE             5f59b910   uuid:go7.obj
 0002:00010928       _COLUMN_UPDATABLE          5f59b928   uuid:go7.obj
 0002:00010940       _COLUMN_VERSION            5f59b940   uuid:go7.obj
 0002:00010958       _COLUMN_STATUS             5f59b958   uuid:go7.obj
 0002:00010970       _COLUMN_BMKTEMPORARY       5f59b970   uuid:go7.obj
 0002:00010988       _COLUMN_BMKTEMPORARYREL    5f59b988   uuid:go7.obj
 0002:000109a0       _COLUMN_BMKCURSOR          5f59b9a0   uuid:go7.obj
 0002:000109b8       _COLUMN_BMKCURSORREL       5f59b9b8   uuid:go7.obj
 0002:000109d0       _COLUMN_BMKSESSION         5f59b9d0   uuid:go7.obj
 0002:000109e8       _COLUMN_BMKSESSIONREL      5f59b9e8   uuid:go7.obj
 0002:00010a00       _COLUMN_BMKPERSIST         5f59ba00   uuid:go7.obj
 0002:00010a18       _COLUMN_BMKPERSISTREL      5f59ba18   uuid:go7.obj
 0002:00010a30       _DBBMK_INVALID             5f59ba30   uuid:go7.obj
 0002:00010a34       _DBBMK_CURRENT             5f59ba34   uuid:go7.obj
 0002:00010a38       _DBBMK_BEGINNING           5f59ba38   uuid:go7.obj
 0002:00010a3c       _DBBMK_END                 5f59ba3c   uuid:go7.obj
 0002:00010a40       _IID_IBoundObject          5f59ba40   uuid:go7.obj
 0002:00010a50       _IID_IBoundObjectSite      5f59ba50   uuid:go7.obj
 0002:00010a60       _IID_ICursor               5f59ba60   uuid:go7.obj
 0002:00010a70       _IID_ICursorMove           5f59ba70   uuid:go7.obj
 0002:00010a80       _IID_ICursorScroll         5f59ba80   uuid:go7.obj
 0002:00010a90       _IID_ICursorUpdateARow     5f59ba90   uuid:go7.obj
 0002:00010aa0       _IID_INotifyDBEvents       5f59baa0   uuid:go7.obj
 0002:00010ab0       _IID_ICursorFind           5f59bab0   uuid:go7.obj
 0002:00010ac0       _IID_IEntryID              5f59bac0   uuid:go7.obj
 0002:00010ad0       __GUID_NAMEONLY            5f59bad0   uuid:go7.obj
 0002:00010ae0       __DBBMKGUID                5f59bae0   uuid:go7.obj
 0002:00010af0       __DBCIDGUID                5f59baf0   uuid:go7.obj
 0002:00010b00       _IID_IAdviseSinkEx         5f59bb00   uuid:ocx96_i.obj
 0002:00010b10       _IID_IOleInPlaceObjectWindowless 5f59bb10   uuid:ocx96_i.obj
 0002:00010b20       _IID_IOleInPlaceSiteEx     5f59bb20   uuid:ocx96_i.obj
 0002:00010b30       _IID_IOleInPlaceSiteWindowless 5f59bb30   uuid:ocx96_i.obj
 0002:00010b40       _IID_IViewObjectEx         5f59bb40   uuid:ocx96_i.obj
 0002:00010b50       _IID_IOleUndoUnit          5f59bb50   uuid:ocx96_i.obj
 0002:00010b60       _IID_IOleParentUndoUnit    5f59bb60   uuid:ocx96_i.obj
 0002:00010b70       _IID_IEnumOleUndoUnits     5f59bb70   uuid:ocx96_i.obj
 0002:00010b80       _IID_IOleUndoManager       5f59bb80   uuid:ocx96_i.obj
 0002:00010b90       _IID_IQuickActivate        5f59bb90   uuid:ocx96_i.obj
 0002:00010ba0       _IID_IPointerInactive      5f59bba0   uuid:ocx96_i.obj
 0002:00010bb0       _IID_IPersistMoniker       5f59bbb0   uuid:urlmon.obj
 0002:00010bc0       _IID_IBindProtocol         5f59bbc0   uuid:urlmon.obj
 0002:00010bd0       _IID_IBinding              5f59bbd0   uuid:urlmon.obj
 0002:00010be0       _IID_IBindStatusCallback   5f59bbe0   uuid:urlmon.obj
 0002:00010bf0       _IID_IAuthenticate         5f59bbf0   uuid:urlmon.obj
 0002:00010c00       _IID_ICodeInstall          5f59bc00   uuid:urlmon.obj
 0002:00010c10       _IID_IHttpNegotiate        5f59bc10   uuid:urlmon.obj
 0002:00010c20       _IID_IServiceProvider      5f59bc20   uuid:servprov.obj
 0002:00010c30       ??_R4COleClientItem@@6B@   5f59bc30   olecli1.obj
 0002:00010c48       ??_R3COleClientItem@@8     5f59bc48   olecli1.obj
 0002:00010c58       ??_R2COleClientItem@@8     5f59bc58   olecli1.obj
 0002:00010c70       ??_R1A@?0A@A@CDocItem@@8   5f59bc70   olecli1.obj
 0002:00010c88       ??_R1A@?0A@A@COleClientItem@@8 5f59bc88   olecli1.obj
 0002:00010ca0       ??_R1A@?0A@A@CObject@@8    5f59bca0   olecli1.obj
 0002:00010cb8       ??_R1A@?0A@A@CCmdTarget@@8 5f59bcb8   olecli1.obj
 0002:00010cd0       ??_R4XOleClientSite@COleClientItem@@6B@ 5f59bcd0   olecli1.obj
 0002:00010ce8       ??_R3XOleClientSite@COleClientItem@@8 5f59bce8   olecli1.obj
 0002:00010cf8       ??_R2XOleClientSite@COleClientItem@@8 5f59bcf8   olecli1.obj
 0002:00010d08       ??_R1A@?0A@A@XOleClientSite@COleClientItem@@8 5f59bd08   olecli1.obj
 0002:00010d20       ??_R1A@?0A@A@IUnknown@@8   5f59bd20   olecli1.obj
 0002:00010d38       ??_R1A@?0A@A@IOleClientSite@@8 5f59bd38   olecli1.obj
 0002:00010d50       ??_R4XAdviseSink@COleClientItem@@6B@ 5f59bd50   olecli1.obj
 0002:00010d68       ??_R3XAdviseSink@COleClientItem@@8 5f59bd68   olecli1.obj
 0002:00010d78       ??_R2XAdviseSink@COleClientItem@@8 5f59bd78   olecli1.obj
 0002:00010d88       ??_R1A@?0A@A@XAdviseSink@COleClientItem@@8 5f59bd88   olecli1.obj
 0002:00010da0       ??_R1A@?0A@A@IAdviseSink@@8 5f59bda0   olecli1.obj
 0002:00010db8       ??_R4XOleIPSite@COleClientItem@@6B@ 5f59bdb8   olecli1.obj
 0002:00010dd0       ??_R3XOleIPSite@COleClientItem@@8 5f59bdd0   olecli1.obj
 0002:00010de0       ??_R2XOleIPSite@COleClientItem@@8 5f59bde0   olecli1.obj
 0002:00010df8       ??_R1A@?0A@A@XOleIPSite@COleClientItem@@8 5f59bdf8   olecli1.obj
 0002:00010e10       ??_R1A@?0A@A@IOleInPlaceSite@@8 5f59be10   olecli1.obj
 0002:00010e28       ??_R1A@?0A@A@IOleWindow@@8 5f59be28   olecli1.obj
 0002:00010e40       ??_R4IOleClientSite@@6B@   5f59be40   olecli1.obj
 0002:00010e58       ??_R3IOleClientSite@@8     5f59be58   olecli1.obj
 0002:00010e68       ??_R2IOleClientSite@@8     5f59be68   olecli1.obj
 0002:00010e78       ??_R4IAdviseSink@@6B@      5f59be78   olecli1.obj
 0002:00010e90       ??_R3IAdviseSink@@8        5f59be90   olecli1.obj
 0002:00010ea0       ??_R2IAdviseSink@@8        5f59bea0   olecli1.obj
 0002:00010eb0       ??_R4IOleInPlaceSite@@6B@  5f59beb0   olecli1.obj
 0002:00010ec8       ??_R3IOleInPlaceSite@@8    5f59bec8   olecli1.obj
 0002:00010ed8       ??_R2IOleInPlaceSite@@8    5f59bed8   olecli1.obj
 0002:00010ee8       ??_R4IUnknown@@6B@         5f59bee8   olecli1.obj
 0002:00010f00       ??_R3IUnknown@@8           5f59bf00   olecli1.obj
 0002:00010f10       ??_R2IUnknown@@8           5f59bf10   olecli1.obj
 0002:00010f18       ??_R4IOleWindow@@6B@       5f59bf18   olecli1.obj
 0002:00010f30       ??_R3IOleWindow@@8         5f59bf30   olecli1.obj
 0002:00010f40       ??_R2IOleWindow@@8         5f59bf40   olecli1.obj
 0002:00010f50       ??_R4COleFrameHook@@6B@    5f59bf50   olecli2.obj
 0002:00010f68       ??_R3COleFrameHook@@8      5f59bf68   olecli2.obj
 0002:00010f78       ??_R2COleFrameHook@@8      5f59bf78   olecli2.obj
 0002:00010f88       ??_R1A@?0A@A@COleFrameHook@@8 5f59bf88   olecli2.obj
 0002:00010fa0       ??_R4XOleInPlaceFrame@COleFrameHook@@6B@ 5f59bfa0   olecli2.obj
 0002:00010fb8       ??_R3XOleInPlaceFrame@COleFrameHook@@8 5f59bfb8   olecli2.obj
 0002:00010fc8       ??_R2XOleInPlaceFrame@COleFrameHook@@8 5f59bfc8   olecli2.obj
 0002:00010fe0       ??_R1A@?0A@A@IOleInPlaceFrame@@8 5f59bfe0   olecli2.obj
 0002:00010ff8       ??_R1A@?0A@A@XOleInPlaceFrame@COleFrameHook@@8 5f59bff8   olecli2.obj
 0002:00011010       ??_R1A@?0A@A@IOleInPlaceUIWindow@@8 5f59c010   olecli2.obj
 0002:00011028       ??_R4IOleInPlaceFrame@@6B@ 5f59c028   olecli2.obj
 0002:00011040       ??_R3IOleInPlaceFrame@@8   5f59c040   olecli2.obj
 0002:00011050       ??_R2IOleInPlaceFrame@@8   5f59c050   olecli2.obj
 0002:00011068       ??_R4IOleInPlaceUIWindow@@6B@ 5f59c068   olecli2.obj
 0002:00011080       ??_R3IOleInPlaceUIWindow@@8 5f59c080   olecli2.obj
 0002:00011090       ??_R2IOleInPlaceUIWindow@@8 5f59c090   olecli2.obj
 0002:000110a0       ??_R4COleDataSource@@6B@   5f59c0a0   oledobj2.obj
 0002:000110b8       ??_R3COleDataSource@@8     5f59c0b8   oledobj2.obj
 0002:000110c8       ??_R2COleDataSource@@8     5f59c0c8   oledobj2.obj
 0002:000110d8       ??_R1A@?0A@A@COleDataSource@@8 5f59c0d8   oledobj2.obj
 0002:000110f0       ??_R4XDataObject@COleDataSource@@6B@ 5f59c0f0   oledobj2.obj
 0002:00011108       ??_R3XDataObject@COleDataSource@@8 5f59c108   oledobj2.obj
 0002:00011118       ??_R2XDataObject@COleDataSource@@8 5f59c118   oledobj2.obj
 0002:00011128       ??_R1A@?0A@A@XDataObject@COleDataSource@@8 5f59c128   oledobj2.obj
 0002:00011140       ??_R1A@?0A@A@IDataObject@@8 5f59c140   oledobj2.obj
 0002:00011158       ??_R4IDataObject@@6B@      5f59c158   oledobj2.obj
 0002:00011170       ??_R3IDataObject@@8        5f59c170   oledobj2.obj
 0002:00011180       ??_R2IDataObject@@8        5f59c180   oledobj2.obj
 0002:00011190       ??_R4CEnumFormatEtc@@6B@   5f59c190   oledobj2.obj
 0002:000111a8       ??_R3CEnumFormatEtc@@8     5f59c1a8   oledobj2.obj
 0002:000111b8       ??_R2CEnumFormatEtc@@8     5f59c1b8   oledobj2.obj
 0002:000111d0       ??_R1A@?0A@A@CEnumArray@@8 5f59c1d0   oledobj2.obj
 0002:000111e8       ??_R1A@?0A@A@CEnumFormatEtc@@8 5f59c1e8   oledobj2.obj
 0002:00011200       ??_R4COleDispatchImpl@@6B@ 5f59c200   oledisp1.obj
 0002:00011218       ??_R3COleDispatchImpl@@8   5f59c218   oledisp1.obj
 0002:00011228       ??_R2COleDispatchImpl@@8   5f59c228   oledisp1.obj
 0002:00011238       ??_R1A@?0A@A@IDispatch@@8  5f59c238   oledisp1.obj
 0002:00011250       ??_R1A@?0A@A@COleDispatchImpl@@8 5f59c250   oledisp1.obj
 0002:00011268       ??_R4IDispatch@@6B@        5f59c268   oledisp1.obj
 0002:00011280       ??_R3IDispatch@@8          5f59c280   oledisp1.obj
 0002:00011290       ??_R2IDispatch@@8          5f59c290   oledisp1.obj
 0002:000112a0       ??_R4COleDispatchException@@6B@ 5f59c2a0   oledisp1.obj
 0002:000112b8       ??_R3COleDispatchException@@8 5f59c2b8   oledisp1.obj
 0002:000112c8       ??_R2COleDispatchException@@8 5f59c2c8   oledisp1.obj
 0002:000112d8       ??_R1A@?0A@A@CException@@8 5f59c2d8   oledisp1.obj
 0002:000112f0       ??_R1A@?0A@A@COleDispatchException@@8 5f59c2f0   oledisp1.obj
 0002:00011308       ??_R4COleUILinkInfo@@6B@   5f59c308   oledlgs1.obj
 0002:00011320       ??_R3COleUILinkInfo@@8     5f59c320   oledlgs1.obj
 0002:00011330       ??_R2COleUILinkInfo@@8     5f59c330   oledlgs1.obj
 0002:00011348       ??_R1A@?0A@A@IOleUILinkContainerW@@8 5f59c348   oledlgs1.obj
 0002:00011360       ??_R1A@?0A@A@IOleUILinkInfoW@@8 5f59c360   oledlgs1.obj
 0002:00011378       ??_R1A@?0A@A@COleUILinkInfo@@8 5f59c378   oledlgs1.obj
 0002:00011390       ??_R4IOleUILinkInfoW@@6B@  5f59c390   oledlgs1.obj
 0002:000113a8       ??_R3IOleUILinkInfoW@@8    5f59c3a8   oledlgs1.obj
 0002:000113b8       ??_R2IOleUILinkInfoW@@8    5f59c3b8   oledlgs1.obj
 0002:000113c8       ??_R4IOleUILinkContainerW@@6B@ 5f59c3c8   oledlgs1.obj
 0002:000113e0       ??_R3IOleUILinkContainerW@@8 5f59c3e0   oledlgs1.obj
 0002:000113f0       ??_R2IOleUILinkContainerW@@8 5f59c3f0   oledlgs1.obj
 0002:00011400       ??_R4COleInsertDialog@@6B@ 5f59c400   oledlgs1.obj
 0002:00011418       ??_R3COleInsertDialog@@8   5f59c418   oledlgs1.obj
 0002:00011428       ??_R2COleInsertDialog@@8   5f59c428   oledlgs1.obj
 0002:00011448       ??_R1A@?0A@A@CDialog@@8    5f59c448   oledlgs1.obj
 0002:00011460       ??_R1A@?0A@A@CCommonDialog@@8 5f59c460   oledlgs1.obj
 0002:00011478       ??_R1A@?0A@A@COleDialog@@8 5f59c478   oledlgs1.obj
 0002:00011490       ??_R1A@?0A@A@COleInsertDialog@@8 5f59c490   oledlgs1.obj
 0002:000114a8       ??_R1A@?0A@A@CWnd@@8       5f59c4a8   oledlgs1.obj
 0002:000114c0       ??_R4COleConvertDialog@@6B@ 5f59c4c0   oledlgs1.obj
 0002:000114d8       ??_R3COleConvertDialog@@8  5f59c4d8   oledlgs1.obj
 0002:000114e8       ??_R2COleConvertDialog@@8  5f59c4e8   oledlgs1.obj
 0002:00011508       ??_R1A@?0A@A@COleConvertDialog@@8 5f59c508   oledlgs1.obj
 0002:00011520       ??_R4COleChangeIconDialog@@6B@ 5f59c520   oledlgs1.obj
 0002:00011538       ??_R3COleChangeIconDialog@@8 5f59c538   oledlgs1.obj
 0002:00011548       ??_R2COleChangeIconDialog@@8 5f59c548   oledlgs1.obj
 0002:00011568       ??_R1A@?0A@A@COleChangeIconDialog@@8 5f59c568   oledlgs1.obj
 0002:00011580       ??_R4COleLinksDialog@@6B@  5f59c580   oledlgs1.obj
 0002:00011598       ??_R3COleLinksDialog@@8    5f59c598   oledlgs1.obj
 0002:000115a8       ??_R2COleLinksDialog@@8    5f59c5a8   oledlgs1.obj
 0002:000115c8       ??_R1A@?0A@A@COleLinksDialog@@8 5f59c5c8   oledlgs1.obj
 0002:000115e0       ??_R4COleUpdateDialog@@6B@ 5f59c5e0   oledlgs1.obj
 0002:000115f8       ??_R3COleUpdateDialog@@8   5f59c5f8   oledlgs1.obj
 0002:00011608       ??_R2COleUpdateDialog@@8   5f59c608   oledlgs1.obj
 0002:00011630       ??_R1A@?0A@A@COleUpdateDialog@@8 5f59c630   oledlgs1.obj
 0002:00011648       ??_R4COlePasteSpecialDialog@@6B@ 5f59c648   oledlgs1.obj
 0002:00011660       ??_R3COlePasteSpecialDialog@@8 5f59c660   oledlgs1.obj
 0002:00011670       ??_R2COlePasteSpecialDialog@@8 5f59c670   oledlgs1.obj
 0002:00011690       ??_R1A@?0A@A@COlePasteSpecialDialog@@8 5f59c690   oledlgs1.obj
 0002:000116a8       ??_R4COleDialog@@6B@       5f59c6a8   oledlgs2.obj
 0002:000116c0       ??_R3COleDialog@@8         5f59c6c0   oledlgs2.obj
 0002:000116d0       ??_R2COleDialog@@8         5f59c6d0   oledlgs2.obj
 0002:000116f0       ??_R4COleBusyDialog@@6B@   5f59c6f0   oledlgs2.obj
 0002:00011708       ??_R3COleBusyDialog@@8     5f59c708   oledlgs2.obj
 0002:00011718       ??_R2COleBusyDialog@@8     5f59c718   oledlgs2.obj
 0002:00011738       ??_R1A@?0A@A@COleBusyDialog@@8 5f59c738   oledlgs2.obj
 0002:00011750       ??_R4COlePropertiesDialog@@6B@ 5f59c750   oledlgs3.obj
 0002:00011768       ??_R3COlePropertiesDialog@@8 5f59c768   oledlgs3.obj
 0002:00011778       ??_R2COlePropertiesDialog@@8 5f59c778   oledlgs3.obj
 0002:00011798       ??_R1A@?0A@A@COlePropertiesDialog@@8 5f59c798   oledlgs3.obj
 0002:000117b0       ??_R4XOleUIObjInfo@COlePropertiesDialog@@6B@ 5f59c7b0   oledlgs3.obj
 0002:000117c8       ??_R3XOleUIObjInfo@COlePropertiesDialog@@8 5f59c7c8   oledlgs3.obj
 0002:000117d8       ??_R2XOleUIObjInfo@COlePropertiesDialog@@8 5f59c7d8   oledlgs3.obj
 0002:000117e8       ??_R1A@?0A@A@XOleUIObjInfo@COlePropertiesDialog@@8 5f59c7e8   oledlgs3.obj
 0002:00011800       ??_R1A@?0A@A@IOleUIObjInfoW@@8 5f59c800   oledlgs3.obj
 0002:00011818       ??_R4IOleUIObjInfoW@@6B@   5f59c818   oledlgs3.obj
 0002:00011830       ??_R3IOleUIObjInfoW@@8     5f59c830   oledlgs3.obj
 0002:00011840       ??_R2IOleUIObjInfoW@@8     5f59c840   oledlgs3.obj
 0002:00011850       ??_R4COleChangeSourceDialog@@6B@ 5f59c850   oledlgs3.obj
 0002:00011868       ??_R3COleChangeSourceDialog@@8 5f59c868   oledlgs3.obj
 0002:00011878       ??_R2COleChangeSourceDialog@@8 5f59c878   oledlgs3.obj
 0002:00011898       ??_R1A@?0A@A@COleChangeSourceDialog@@8 5f59c898   oledlgs3.obj
 0002:000118b0       ??_R4_AFX_OLE_STATE@@6B@   5f59c8b0   oledata.obj
 0002:000118c8       ??_R3_AFX_OLE_STATE@@8     5f59c8c8   oledata.obj
 0002:000118d8       ??_R2_AFX_OLE_STATE@@8     5f59c8d8   oledata.obj
 0002:000118e8       ??_R1A@?0A@A@_AFX_OLE_STATE@@8 5f59c8e8   oledata.obj
 0002:00011900       ??_R1A@?0A@A@CNoTrackObject@@8 5f59c900   oledata.obj
 0002:00011918       ??_R4CNoTrackObject@@6B@   5f59c918   oledata.obj
 0002:00011930       ??_R3CNoTrackObject@@8     5f59c930   oledata.obj
 0002:00011940       ??_R2CNoTrackObject@@8     5f59c940   oledata.obj
 0002:00011948       ??_R4COleDocument@@6B@     5f59c948   oledoc1.obj
 0002:00011960       ??_R3COleDocument@@8       5f59c960   oledoc1.obj
 0002:00011970       ??_R2COleDocument@@8       5f59c970   oledoc1.obj
 0002:00011988       ??_R1A@?0A@A@CDocument@@8  5f59c988   oledoc1.obj
 0002:000119a0       ??_R1A@?0A@A@COleDocument@@8 5f59c9a0   oledoc1.obj
 0002:000119b8       ??_R4CDocItem@@6B@         5f59c9b8   oledoc1.obj
 0002:000119d0       ??_R3CDocItem@@8           5f59c9d0   oledoc1.obj
 0002:000119e0       ??_R2CDocItem@@8           5f59c9e0   oledoc1.obj
 0002:000119f0       ??_R4CMonikerFile@@6B@     5f59c9f0   oledoc1.obj
 0002:00011a08       ??_R3CMonikerFile@@8       5f59ca08   oledoc1.obj
 0002:00011a18       ??_R2CMonikerFile@@8       5f59ca18   oledoc1.obj
 0002:00011a30       ??_R1A@?0A@A@CFile@@8      5f59ca30   oledoc1.obj
 0002:00011a48       ??_R1A@?0A@A@COleStreamFile@@8 5f59ca48   oledoc1.obj
 0002:00011a60       ??_R1A@?0A@A@CMonikerFile@@8 5f59ca60   oledoc1.obj
 0002:00011a78       ??_R4COleDropSource@@6B@   5f59ca78   oledrop1.obj
 0002:00011a90       ??_R3COleDropSource@@8     5f59ca90   oledrop1.obj
 0002:00011aa0       ??_R2COleDropSource@@8     5f59caa0   oledrop1.obj
 0002:00011ab0       ??_R1A@?0A@A@COleDropSource@@8 5f59cab0   oledrop1.obj
 0002:00011ac8       ??_R4XDropSource@COleDropSource@@6B@ 5f59cac8   oledrop1.obj
 0002:00011ae0       ??_R3XDropSource@COleDropSource@@8 5f59cae0   oledrop1.obj
 0002:00011af0       ??_R2XDropSource@COleDropSource@@8 5f59caf0   oledrop1.obj
 0002:00011b00       ??_R1A@?0A@A@XDropSource@COleDropSource@@8 5f59cb00   oledrop1.obj
 0002:00011b18       ??_R1A@?0A@A@IDropSource@@8 5f59cb18   oledrop1.obj
 0002:00011b30       ??_R4IDropSource@@6B@      5f59cb30   oledrop1.obj
 0002:00011b48       ??_R3IDropSource@@8        5f59cb48   oledrop1.obj
 0002:00011b58       ??_R2IDropSource@@8        5f59cb58   oledrop1.obj
 0002:00011b68       ??_R4COleDropTarget@@6B@   5f59cb68   oledrop2.obj
 0002:00011b80       ??_R3COleDropTarget@@8     5f59cb80   oledrop2.obj
 0002:00011b90       ??_R2COleDropTarget@@8     5f59cb90   oledrop2.obj
 0002:00011ba0       ??_R1A@?0A@A@COleDropTarget@@8 5f59cba0   oledrop2.obj
 0002:00011bb8       ??_R4XDropTarget@COleDropTarget@@6B@ 5f59cbb8   oledrop2.obj
 0002:00011bd0       ??_R3XDropTarget@COleDropTarget@@8 5f59cbd0   oledrop2.obj
 0002:00011be0       ??_R2XDropTarget@COleDropTarget@@8 5f59cbe0   oledrop2.obj
 0002:00011bf0       ??_R1A@?0A@A@XDropTarget@COleDropTarget@@8 5f59cbf0   oledrop2.obj
 0002:00011c08       ??_R1A@?0A@A@IDropTarget@@8 5f59cc08   oledrop2.obj
 0002:00011c20       ??_R4IDropTarget@@6B@      5f59cc20   oledrop2.obj
 0002:00011c38       ??_R3IDropTarget@@8        5f59cc38   oledrop2.obj
 0002:00011c48       ??_R2IDropTarget@@8        5f59cc48   oledrop2.obj
 0002:00011c58       ??_R4COleMessageFilter@@6B@ 5f59cc58   olemsgf.obj
 0002:00011c70       ??_R3COleMessageFilter@@8  5f59cc70   olemsgf.obj
 0002:00011c80       ??_R2COleMessageFilter@@8  5f59cc80   olemsgf.obj
 0002:00011c90       ??_R1A@?0A@A@COleMessageFilter@@8 5f59cc90   olemsgf.obj
 0002:00011ca8       ??_R4XMessageFilter@COleMessageFilter@@6B@ 5f59cca8   olemsgf.obj
 0002:00011cc0       ??_R3XMessageFilter@COleMessageFilter@@8 5f59ccc0   olemsgf.obj
 0002:00011cd0       ??_R2XMessageFilter@COleMessageFilter@@8 5f59ccd0   olemsgf.obj
 0002:00011ce0       ??_R1A@?0A@A@XMessageFilter@COleMessageFilter@@8 5f59cce0   olemsgf.obj
 0002:00011cf8       ??_R1A@?0A@A@IMessageFilter@@8 5f59ccf8   olemsgf.obj
 0002:00011d10       ??_R4IMessageFilter@@6B@   5f59cd10   olemsgf.obj
 0002:00011d28       ??_R3IMessageFilter@@8     5f59cd28   olemsgf.obj
 0002:00011d38       ??_R2IMessageFilter@@8     5f59cd38   olemsgf.obj
 0002:00011d48       ??_R4CEnumArray@@6B@       5f59cd48   oleenum.obj
 0002:00011d60       ??_R3CEnumArray@@8         5f59cd60   oleenum.obj
 0002:00011d70       ??_R2CEnumArray@@8         5f59cd70   oleenum.obj
 0002:00011d80       ??_R4XEnumVOID@CEnumArray@@6B@ 5f59cd80   oleenum.obj
 0002:00011d98       ??_R3XEnumVOID@CEnumArray@@8 5f59cd98   oleenum.obj
 0002:00011da8       ??_R2XEnumVOID@CEnumArray@@8 5f59cda8   oleenum.obj
 0002:00011db8       ??_R1A@?0A@A@XEnumVOID@CEnumArray@@8 5f59cdb8   oleenum.obj
 0002:00011dd0       ??_R1A@?0A@A@IEnumVOID@@8  5f59cdd0   oleenum.obj
 0002:00011de8       ??_R4IEnumVOID@@6B@        5f59cde8   oleenum.obj
 0002:00011e00       ??_R3IEnumVOID@@8          5f59ce00   oleenum.obj
 0002:00011e10       ??_R2IEnumVOID@@8          5f59ce10   oleenum.obj
 0002:00011e20       ??_R4COleObjectFactory@@6B@ 5f59ce20   olefact.obj
 0002:00011e38       ??_R3COleObjectFactory@@8  5f59ce38   olefact.obj
 0002:00011e48       ??_R2COleObjectFactory@@8  5f59ce48   olefact.obj
 0002:00011e58       ??_R1A@?0A@A@COleObjectFactory@@8 5f59ce58   olefact.obj
 0002:00011e70       ??_R4XClassFactory@COleObjectFactory@@6B@ 5f59ce70   olefact.obj
 0002:00011e88       ??_R3XClassFactory@COleObjectFactory@@8 5f59ce88   olefact.obj
 0002:00011e98       ??_R2XClassFactory@COleObjectFactory@@8 5f59ce98   olefact.obj
 0002:00011eb0       ??_R1A@?0A@A@XClassFactory@COleObjectFactory@@8 5f59ceb0   olefact.obj
 0002:00011ec8       ??_R1A@?0A@A@IClassFactory2@@8 5f59cec8   olefact.obj
 0002:00011ee0       ??_R1A@?0A@A@IClassFactory@@8 5f59cee0   olefact.obj
 0002:00011ef8       ??_R4IClassFactory2@@6B@   5f59cef8   olefact.obj
 0002:00011f10       ??_R3IClassFactory2@@8     5f59cf10   olefact.obj
 0002:00011f20       ??_R2IClassFactory2@@8     5f59cf20   olefact.obj
 0002:00011f30       ??_R4IClassFactory@@6B@    5f59cf30   olefact.obj
 0002:00011f48       ??_R3IClassFactory@@8      5f59cf48   olefact.obj
 0002:00011f58       ??_R2IClassFactory@@8      5f59cf58   olefact.obj
 0002:00011f68       ??_R4COleCntrFrameWnd@@6B@ 5f59cf68   oleipfrm.obj
 0002:00011f80       ??_R3COleCntrFrameWnd@@8   5f59cf80   oleipfrm.obj
 0002:00011f90       ??_R2COleCntrFrameWnd@@8   5f59cf90   oleipfrm.obj
 0002:00011fa8       ??_R1A@?0A@A@COleCntrFrameWnd@@8 5f59cfa8   oleipfrm.obj
 0002:00011fc0       ??_R1A@?0A@A@CFrameWnd@@8  5f59cfc0   oleipfrm.obj
 0002:00011fd8       ??_R4COleIPFrameWnd@@6B@   5f59cfd8   oleipfrm.obj
 0002:00011ff0       ??_R3COleIPFrameWnd@@8     5f59cff0   oleipfrm.obj
 0002:00012000       ??_R2COleIPFrameWnd@@8     5f59d000   oleipfrm.obj
 0002:00012018       ??_R1A@?0A@A@COleIPFrameWnd@@8 5f59d018   oleipfrm.obj
 0002:00012030       ??_R4COleLinkingDoc@@6B@   5f59d030   olelink.obj
 0002:00012048       ??_R3COleLinkingDoc@@8     5f59d048   olelink.obj
 0002:00012058       ??_R2COleLinkingDoc@@8     5f59d058   olelink.obj
 0002:00012070       ??_R1A@?0A@A@COleLinkingDoc@@8 5f59d070   olelink.obj
 0002:00012088       ??_R4XPersistFile@COleLinkingDoc@@6B@ 5f59d088   olelink.obj
 0002:000120a0       ??_R3XPersistFile@COleLinkingDoc@@8 5f59d0a0   olelink.obj
 0002:000120b0       ??_R2XPersistFile@COleLinkingDoc@@8 5f59d0b0   olelink.obj
 0002:000120c8       ??_R1A@?0A@A@IPersist@@8   5f59d0c8   olelink.obj
 0002:000120e0       ??_R1A@?0A@A@IPersistFile@@8 5f59d0e0   olelink.obj
 0002:000120f8       ??_R1A@?0A@A@XPersistFile@COleLinkingDoc@@8 5f59d0f8   olelink.obj
 0002:00012110       ??_R4XOleItemContainer@COleLinkingDoc@@6B@ 5f59d110   olelink.obj
 0002:00012128       ??_R3XOleItemContainer@COleLinkingDoc@@8 5f59d128   olelink.obj
 0002:00012138       ??_R2XOleItemContainer@COleLinkingDoc@@8 5f59d138   olelink.obj
 0002:00012150       ??_R1A@?0A@A@XOleItemContainer@COleLinkingDoc@@8 5f59d150   olelink.obj
 0002:00012168       ??_R1A@?0A@A@IOleItemContainer@@8 5f59d168   olelink.obj
 0002:00012180       ??_R1A@?0A@A@IOleContainer@@8 5f59d180   olelink.obj
 0002:00012198       ??_R1A@?0A@A@IParseDisplayName@@8 5f59d198   olelink.obj
 0002:000121b0       ??_R4IPersistFile@@6B@     5f59d1b0   olelink.obj
 0002:000121c8       ??_R3IPersistFile@@8       5f59d1c8   olelink.obj
 0002:000121d8       ??_R2IPersistFile@@8       5f59d1d8   olelink.obj
 0002:000121e8       ??_R4IOleItemContainer@@6B@ 5f59d1e8   olelink.obj
 0002:00012200       ??_R3IOleItemContainer@@8  5f59d200   olelink.obj
 0002:00012210       ??_R2IOleItemContainer@@8  5f59d210   olelink.obj
 0002:00012228       ??_R4IPersist@@6B@         5f59d228   olelink.obj
 0002:00012240       ??_R3IPersist@@8           5f59d240   olelink.obj
 0002:00012250       ??_R2IPersist@@8           5f59d250   olelink.obj
 0002:00012260       ??_R4IOleContainer@@6B@    5f59d260   olelink.obj
 0002:00012278       ??_R3IOleContainer@@8      5f59d278   olelink.obj
 0002:00012288       ??_R2IOleContainer@@8      5f59d288   olelink.obj
 0002:00012298       ??_R4IParseDisplayName@@6B@ 5f59d298   olelink.obj
 0002:000122b0       ??_R3IParseDisplayName@@8  5f59d2b0   olelink.obj
 0002:000122c0       ??_R2IParseDisplayName@@8  5f59d2c0   olelink.obj
 0002:000122d0       ??_R4COleStreamFile@@6B@   5f59d2d0   olestrm.obj
 0002:000122e8       ??_R3COleStreamFile@@8     5f59d2e8   olestrm.obj
 0002:000122f8       ??_R2COleStreamFile@@8     5f59d2f8   olestrm.obj
 0002:00012308       ??_R4COleServerDoc@@6B@    5f59d308   olesvr1.obj
 0002:00012320       ??_R3COleServerDoc@@8      5f59d320   olesvr1.obj
 0002:00012330       ??_R2COleServerDoc@@8      5f59d330   olesvr1.obj
 0002:00012350       ??_R1A@?0A@A@COleServerDoc@@8 5f59d350   olesvr1.obj
 0002:00012368       ??_R4XPersistStorage@COleServerDoc@@6B@ 5f59d368   olesvr1.obj
 0002:00012380       ??_R3XPersistStorage@COleServerDoc@@8 5f59d380   olesvr1.obj
 0002:00012390       ??_R2XPersistStorage@COleServerDoc@@8 5f59d390   olesvr1.obj
 0002:000123a8       ??_R1A@?0A@A@IPersistStorage@@8 5f59d3a8   olesvr1.obj
 0002:000123c0       ??_R1A@?0A@A@XPersistStorage@COleServerDoc@@8 5f59d3c0   olesvr1.obj
 0002:000123d8       ??_R4XOleObject@COleServerDoc@@6B@ 5f59d3d8   olesvr1.obj
 0002:000123f0       ??_R3XOleObject@COleServerDoc@@8 5f59d3f0   olesvr1.obj
 0002:00012400       ??_R2XOleObject@COleServerDoc@@8 5f59d400   olesvr1.obj
 0002:00012410       ??_R1A@?0A@A@XOleObject@COleServerDoc@@8 5f59d410   olesvr1.obj
 0002:00012428       ??_R1A@?0A@A@IOleObject@@8 5f59d428   olesvr1.obj
 0002:00012440       ??_R4XDataObject@COleServerDoc@@6B@ 5f59d440   olesvr1.obj
 0002:00012458       ??_R3XDataObject@COleServerDoc@@8 5f59d458   olesvr1.obj
 0002:00012468       ??_R2XDataObject@COleServerDoc@@8 5f59d468   olesvr1.obj
 0002:00012478       ??_R1A@?0A@A@XDataObject@COleServerDoc@@8 5f59d478   olesvr1.obj
 0002:00012490       ??_R4XOleInPlaceObject@COleServerDoc@@6B@ 5f59d490   olesvr1.obj
 0002:000124a8       ??_R3XOleInPlaceObject@COleServerDoc@@8 5f59d4a8   olesvr1.obj
 0002:000124b8       ??_R2XOleInPlaceObject@COleServerDoc@@8 5f59d4b8   olesvr1.obj
 0002:000124d0       ??_R1A@?0A@A@XOleInPlaceObject@COleServerDoc@@8 5f59d4d0   olesvr1.obj
 0002:000124e8       ??_R1A@?0A@A@IOleInPlaceObject@@8 5f59d4e8   olesvr1.obj
 0002:00012500       ??_R4XOleInPlaceActiveObject@COleServerDoc@@6B@ 5f59d500   olesvr1.obj
 0002:00012518       ??_R3XOleInPlaceActiveObject@COleServerDoc@@8 5f59d518   olesvr1.obj
 0002:00012528       ??_R2XOleInPlaceActiveObject@COleServerDoc@@8 5f59d528   olesvr1.obj
 0002:00012540       ??_R1A@?0A@A@XOleInPlaceActiveObject@COleServerDoc@@8 5f59d540   olesvr1.obj
 0002:00012558       ??_R1A@?0A@A@IOleInPlaceActiveObject@@8 5f59d558   olesvr1.obj
 0002:00012570       ??_R4IPersistStorage@@6B@  5f59d570   olesvr1.obj
 0002:00012588       ??_R3IPersistStorage@@8    5f59d588   olesvr1.obj
 0002:00012598       ??_R2IPersistStorage@@8    5f59d598   olesvr1.obj
 0002:000125a8       ??_R4IOleObject@@6B@       5f59d5a8   olesvr1.obj
 0002:000125c0       ??_R3IOleObject@@8         5f59d5c0   olesvr1.obj
 0002:000125d0       ??_R2IOleObject@@8         5f59d5d0   olesvr1.obj
 0002:000125e0       ??_R4IOleInPlaceObject@@6B@ 5f59d5e0   olesvr1.obj
 0002:000125f8       ??_R3IOleInPlaceObject@@8  5f59d5f8   olesvr1.obj
 0002:00012608       ??_R2IOleInPlaceObject@@8  5f59d608   olesvr1.obj
 0002:00012618       ??_R4IOleInPlaceActiveObject@@6B@ 5f59d618   olesvr1.obj
 0002:00012630       ??_R3IOleInPlaceActiveObject@@8 5f59d630   olesvr1.obj
 0002:00012640       ??_R2IOleInPlaceActiveObject@@8 5f59d640   olesvr1.obj
 0002:00012650       ??_R4COleServerItem@@6B@   5f59d650   olesvr2.obj
 0002:00012668       ??_R3COleServerItem@@8     5f59d668   olesvr2.obj
 0002:00012678       ??_R2COleServerItem@@8     5f59d678   olesvr2.obj
 0002:00012690       ??_R1A@?0A@A@COleServerItem@@8 5f59d690   olesvr2.obj
 0002:000126a8       ??_R4CItemDataSource@COleServerItem@@6B@ 5f59d6a8   olesvr2.obj
 0002:000126c0       ??_R3CItemDataSource@COleServerItem@@8 5f59d6c0   olesvr2.obj
 0002:000126d0       ??_R2CItemDataSource@COleServerItem@@8 5f59d6d0   olesvr2.obj
 0002:000126e8       ??_R1A@?0A@A@CItemDataSource@COleServerItem@@8 5f59d6e8   olesvr2.obj
 0002:00012700       ??_R4XOleObject@COleServerItem@@6B@ 5f59d700   olesvr2.obj
 0002:00012718       ??_R3XOleObject@COleServerItem@@8 5f59d718   olesvr2.obj
 0002:00012728       ??_R2XOleObject@COleServerItem@@8 5f59d728   olesvr2.obj
 0002:00012738       ??_R1A@?0A@A@XOleObject@COleServerItem@@8 5f59d738   olesvr2.obj
 0002:00012750       ??_R4XDataObject@COleServerItem@@6B@ 5f59d750   olesvr2.obj
 0002:00012768       ??_R3XDataObject@COleServerItem@@8 5f59d768   olesvr2.obj
 0002:00012778       ??_R2XDataObject@COleServerItem@@8 5f59d778   olesvr2.obj
 0002:00012788       ??_R1A@?0A@A@XDataObject@COleServerItem@@8 5f59d788   olesvr2.obj
 0002:000127a0       ??_R4COleTemplateServer@@6B@ 5f59d7a0   oletsvr.obj
 0002:000127b8       ??_R3COleTemplateServer@@8 5f59d7b8   oletsvr.obj
 0002:000127c8       ??_R2COleTemplateServer@@8 5f59d7c8   oletsvr.obj
 0002:000127e0       ??_R1A@?0A@A@COleTemplateServer@@8 5f59d7e0   oletsvr.obj
 0002:000127f8       ??_R4CInnerUnknown@@6B@    5f59d7f8   oleunk.obj
 0002:00012810       ??_R3CInnerUnknown@@8      5f59d810   oleunk.obj
 0002:00012820       ??_R2CInnerUnknown@@8      5f59d820   oleunk.obj
 0002:00012830       ??_R1A@?0A@A@CInnerUnknown@@8 5f59d830   oleunk.obj
 0002:00012848       ??_R4COleException@@6B@    5f59d848   oleunk.obj
 0002:00012860       ??_R3COleException@@8      5f59d860   oleunk.obj
 0002:00012870       ??_R2COleException@@8      5f59d870   oleunk.obj
 0002:00012880       ??_R1A@?0A@A@COleException@@8 5f59d880   oleunk.obj
 0002:00012898       ??_R4CEnumOleVerb@@6B@     5f59d898   oleverb.obj
 0002:000128b0       ??_R3CEnumOleVerb@@8       5f59d8b0   oleverb.obj
 0002:000128c0       ??_R2CEnumOleVerb@@8       5f59d8c0   oleverb.obj
 0002:000128d8       ??_R1A@?0A@A@CEnumOleVerb@@8 5f59d8d8   oleverb.obj
 0002:000128f0       ??_R4CRichEditView@@6B@    5f59d8f0   viewrich.obj
 0002:00012908       ??_R3CRichEditView@@8      5f59d908   viewrich.obj
 0002:00012918       ??_R2CRichEditView@@8      5f59d918   viewrich.obj
 0002:00012938       ??_R1A@?0A@A@CView@@8      5f59d938   viewrich.obj
 0002:00012950       ??_R1A@?0A@A@CCtrlView@@8  5f59d950   viewrich.obj
 0002:00012968       ??_R1A@?0A@A@CRichEditView@@8 5f59d968   viewrich.obj
 0002:00012980       ??_R4XRichEditOleCallback@CRichEditView@@6B@ 5f59d980   viewrich.obj
 0002:00012998       ??_R3XRichEditOleCallback@CRichEditView@@8 5f59d998   viewrich.obj
 0002:000129a8       ??_R2XRichEditOleCallback@CRichEditView@@8 5f59d9a8   viewrich.obj
 0002:000129b8       ??_R1A@?0A@A@IRichEditOleCallback@@8 5f59d9b8   viewrich.obj
 0002:000129d0       ??_R1A@?0A@A@XRichEditOleCallback@CRichEditView@@8 5f59d9d0   viewrich.obj
 0002:000129e8       ??_R4IRichEditOleCallback@@6B@ 5f59d9e8   viewrich.obj
 0002:00012a00       ??_R3IRichEditOleCallback@@8 5f59da00   viewrich.obj
 0002:00012a10       ??_R2IRichEditOleCallback@@8 5f59da10   viewrich.obj
 0002:00012a20       ??_R4_AFX_RICHEDIT_STATE@@6B@ 5f59da20   viewrich.obj
 0002:00012a38       ??_R3_AFX_RICHEDIT_STATE@@8 5f59da38   viewrich.obj
 0002:00012a48       ??_R2_AFX_RICHEDIT_STATE@@8 5f59da48   viewrich.obj
 0002:00012a58       ??_R1A@?0A@A@_AFX_EDIT_STATE@@8 5f59da58   viewrich.obj
 0002:00012a70       ??_R1A@?0A@A@_AFX_RICHEDIT_STATE@@8 5f59da70   viewrich.obj
 0002:00012a88       ??_R4CRichEditDoc@@6B@     5f59da88   viewrich.obj
 0002:00012aa0       ??_R3CRichEditDoc@@8       5f59daa0   viewrich.obj
 0002:00012ab0       ??_R2CRichEditDoc@@8       5f59dab0   viewrich.obj
 0002:00012ad0       ??_R1A@?0A@A@CRichEditDoc@@8 5f59dad0   viewrich.obj
 0002:00012ae8       ??_R4CRichEditCntrItem@@6B@ 5f59dae8   viewrich.obj
 0002:00012b00       ??_R3CRichEditCntrItem@@8  5f59db00   viewrich.obj
 0002:00012b10       ??_R2CRichEditCntrItem@@8  5f59db10   viewrich.obj
 0002:00012b28       ??_R1A@?0A@A@CRichEditCntrItem@@8 5f59db28   viewrich.obj
 0002:00012b40       ??_R4_AfxBindHost@@6B@     5f59db40   olemon.obj
 0002:00012b58       ??_R3_AfxBindHost@@8       5f59db58   olemon.obj
 0002:00012b68       ??_R2_AfxBindHost@@8       5f59db68   olemon.obj
 0002:00012b78       ??_R1A@?0A@A@_AfxBindHost@@8 5f59db78   olemon.obj
 0002:00012b90       ??_R1A@?0A@A@IBindHost@@8  5f59db90   olemon.obj
 0002:00012ba8       ??_R4IBindHost@@6B@        5f59dba8   olemon.obj
 0002:00012bc0       ??_R3IBindHost@@8          5f59dbc0   olemon.obj
 0002:00012bd0       ??_R2IBindHost@@8          5f59dbd0   olemon.obj
 0002:00012be0       ??_R4COccManager@@6B@      5f59dbe0   occmgr.obj
 0002:00012bf8       ??_R3COccManager@@8        5f59dbf8   occmgr.obj
 0002:00012c08       ??_R2COccManager@@8        5f59dc08   occmgr.obj
 0002:00012c18       ??_R1A@?0A@A@COccManager@@8 5f59dc18   occmgr.obj
 0002:00012c30       ??_R4COleControlContainer@@6B@ 5f59dc30   occcont.obj
 0002:00012c48       ??_R3COleControlContainer@@8 5f59dc48   occcont.obj
 0002:00012c58       ??_R2COleControlContainer@@8 5f59dc58   occcont.obj
 0002:00012c68       ??_R1A@?0A@A@COleControlContainer@@8 5f59dc68   occcont.obj
 0002:00012c80       ??_R4XOleIPFrame@COleControlContainer@@6B@ 5f59dc80   occcont.obj
 0002:00012c98       ??_R3XOleIPFrame@COleControlContainer@@8 5f59dc98   occcont.obj
 0002:00012ca8       ??_R2XOleIPFrame@COleControlContainer@@8 5f59dca8   occcont.obj
 0002:00012cc0       ??_R1A@?0A@A@XOleIPFrame@COleControlContainer@@8 5f59dcc0   occcont.obj
 0002:00012cd8       ??_R4XOleContainer@COleControlContainer@@6B@ 5f59dcd8   occcont.obj
 0002:00012cf0       ??_R3XOleContainer@COleControlContainer@@8 5f59dcf0   occcont.obj
 0002:00012d00       ??_R2XOleContainer@COleControlContainer@@8 5f59dd00   occcont.obj
 0002:00012d18       ??_R1A@?0A@A@XOleContainer@COleControlContainer@@8 5f59dd18   occcont.obj
 0002:00012d30       ??_R4CEnumUnknown@@6B@     5f59dd30   occcont.obj
 0002:00012d48       ??_R3CEnumUnknown@@8       5f59dd48   occcont.obj
 0002:00012d58       ??_R2CEnumUnknown@@8       5f59dd58   occcont.obj
 0002:00012d70       ??_R1A@?0A@A@CEnumUnknown@@8 5f59dd70   occcont.obj
 0002:00012d88       ??_R4COleControlSite@@6B@  5f59dd88   occsite.obj
 0002:00012da0       ??_R3COleControlSite@@8    5f59dda0   occsite.obj
 0002:00012db0       ??_R2COleControlSite@@8    5f59ddb0   occsite.obj
 0002:00012dc0       ??_R1A@?0A@A@COleControlSite@@8 5f59ddc0   occsite.obj
 0002:00012dd8       ??_R4XOleClientSite@COleControlSite@@6B@ 5f59ddd8   occsite.obj
 0002:00012df0       ??_R3XOleClientSite@COleControlSite@@8 5f59ddf0   occsite.obj
 0002:00012e00       ??_R2XOleClientSite@COleControlSite@@8 5f59de00   occsite.obj
 0002:00012e10       ??_R1A@?0A@A@XOleClientSite@COleControlSite@@8 5f59de10   occsite.obj
 0002:00012e28       ??_R4XOleIPSite@COleControlSite@@6B@ 5f59de28   occsite.obj
 0002:00012e40       ??_R3XOleIPSite@COleControlSite@@8 5f59de40   occsite.obj
 0002:00012e50       ??_R2XOleIPSite@COleControlSite@@8 5f59de50   occsite.obj
 0002:00012e68       ??_R1A@?0A@A@XOleIPSite@COleControlSite@@8 5f59de68   occsite.obj
 0002:00012e80       ??_R4XOleControlSite@COleControlSite@@6B@ 5f59de80   occsite.obj
 0002:00012e98       ??_R3XOleControlSite@COleControlSite@@8 5f59de98   occsite.obj
 0002:00012ea8       ??_R2XOleControlSite@COleControlSite@@8 5f59dea8   occsite.obj
 0002:00012eb8       ??_R1A@?0A@A@IOleControlSite@@8 5f59deb8   occsite.obj
 0002:00012ed0       ??_R1A@?0A@A@XOleControlSite@COleControlSite@@8 5f59ded0   occsite.obj
 0002:00012ee8       ??_R4XAmbientProps@COleControlSite@@6B@ 5f59dee8   occsite.obj
 0002:00012f00       ??_R3XAmbientProps@COleControlSite@@8 5f59df00   occsite.obj
 0002:00012f10       ??_R2XAmbientProps@COleControlSite@@8 5f59df10   occsite.obj
 0002:00012f20       ??_R1A@?0A@A@XAmbientProps@COleControlSite@@8 5f59df20   occsite.obj
 0002:00012f38       ??_R4XPropertyNotifySink@COleControlSite@@6B@ 5f59df38   occsite.obj
 0002:00012f50       ??_R3XPropertyNotifySink@COleControlSite@@8 5f59df50   occsite.obj
 0002:00012f60       ??_R2XPropertyNotifySink@COleControlSite@@8 5f59df60   occsite.obj
 0002:00012f70       ??_R1A@?0A@A@IPropertyNotifySink@@8 5f59df70   occsite.obj
 0002:00012f88       ??_R1A@?0A@A@XPropertyNotifySink@COleControlSite@@8 5f59df88   occsite.obj
 0002:00012fa0       ??_R4XEventSink@COleControlSite@@6B@ 5f59dfa0   occsite.obj
 0002:00012fb8       ??_R3XEventSink@COleControlSite@@8 5f59dfb8   occsite.obj
 0002:00012fc8       ??_R2XEventSink@COleControlSite@@8 5f59dfc8   occsite.obj
 0002:00012fd8       ??_R1A@?0A@A@XEventSink@COleControlSite@@8 5f59dfd8   occsite.obj
 0002:00012ff0       ??_R4XBoundObjectSite@COleControlSite@@6B@ 5f59dff0   occsite.obj
 0002:00013008       ??_R3XBoundObjectSite@COleControlSite@@8 5f59e008   occsite.obj
 0002:00013018       ??_R2XBoundObjectSite@COleControlSite@@8 5f59e018   occsite.obj
 0002:00013028       ??_R1A@?0A@A@XBoundObjectSite@COleControlSite@@8 5f59e028   occsite.obj
 0002:00013040       ??_R1A@?0A@A@IBoundObjectSite@@8 5f59e040   occsite.obj
 0002:00013058       ??_R4XNotifyDBEvents@COleControlSite@@6B@ 5f59e058   occsite.obj
 0002:00013070       ??_R3XNotifyDBEvents@COleControlSite@@8 5f59e070   occsite.obj
 0002:00013080       ??_R2XNotifyDBEvents@COleControlSite@@8 5f59e080   occsite.obj
 0002:00013090       ??_R1A@?0A@A@INotifyDBEvents@@8 5f59e090   occsite.obj
 0002:000130a8       ??_R1A@?0A@A@XNotifyDBEvents@COleControlSite@@8 5f59e0a8   occsite.obj
 0002:000130c0       ??_R4IOleControlSite@@6B@  5f59e0c0   occsite.obj
 0002:000130d8       ??_R3IOleControlSite@@8    5f59e0d8   occsite.obj
 0002:000130e8       ??_R2IOleControlSite@@8    5f59e0e8   occsite.obj
 0002:000130f8       ??_R4IPropertyNotifySink@@6B@ 5f59e0f8   occsite.obj
 0002:00013110       ??_R3IPropertyNotifySink@@8 5f59e110   occsite.obj
 0002:00013120       ??_R2IPropertyNotifySink@@8 5f59e120   occsite.obj
 0002:00013130       ??_R4IBoundObjectSite@@6B@ 5f59e130   occsite.obj
 0002:00013148       ??_R3IBoundObjectSite@@8   5f59e148   occsite.obj
 0002:00013158       ??_R2IBoundObjectSite@@8   5f59e158   occsite.obj
 0002:00013168       ??_R4INotifyDBEvents@@6B@  5f59e168   occsite.obj
 0002:00013180       ??_R3INotifyDBEvents@@8    5f59e180   occsite.obj
 0002:00013190       ??_R2INotifyDBEvents@@8    5f59e190   occsite.obj
 0002:000131a0       ??_R4CDataSourceControl@@6B@ 5f59e1a0   occsite.obj
 0002:000131b8       ??_R3CDataSourceControl@@8 5f59e1b8   occsite.obj
 0002:000131c8       ??_R2CDataSourceControl@@8 5f59e1c8   occsite.obj
 0002:000131d0       ??_R1A@?0A@A@CDataSourceControl@@8 5f59e1d0   occsite.obj
 0002:000131e8       ??_R4COleControlLock@@6B@  5f59e1e8   occlock.obj
 0002:00013200       ??_R3COleControlLock@@8    5f59e200   occlock.obj
 0002:00013210       ??_R2COleControlLock@@8    5f59e210   occlock.obj
 0002:00013218       ??_R1A@?0A@A@COleControlLock@@8 5f59e218   occlock.obj
 0002:00013230       ??_R4CDocObjectServer@@6B@ 5f59e230   oledocob.obj
 0002:00013248       ??_R3CDocObjectServer@@8   5f59e248   oledocob.obj
 0002:00013258       ??_R2CDocObjectServer@@8   5f59e258   oledocob.obj
 0002:00013268       ??_R1A@?0A@A@CDocObjectServer@@8 5f59e268   oledocob.obj
 0002:00013280       ??_R4XOleObject@CDocObjectServer@@6B@ 5f59e280   oledocob.obj
 0002:00013298       ??_R3XOleObject@CDocObjectServer@@8 5f59e298   oledocob.obj
 0002:000132a8       ??_R2XOleObject@CDocObjectServer@@8 5f59e2a8   oledocob.obj
 0002:000132b8       ??_R1A@?0A@A@XOleObject@CDocObjectServer@@8 5f59e2b8   oledocob.obj
 0002:000132d0       ??_R4XOleDocument@CDocObjectServer@@6B@ 5f59e2d0   oledocob.obj
 0002:000132e8       ??_R3XOleDocument@CDocObjectServer@@8 5f59e2e8   oledocob.obj
 0002:000132f8       ??_R2XOleDocument@CDocObjectServer@@8 5f59e2f8   oledocob.obj
 0002:00013308       ??_R1A@?0A@A@XOleDocument@CDocObjectServer@@8 5f59e308   oledocob.obj
 0002:00013320       ??_R1A@?0A@A@IOleDocument@@8 5f59e320   oledocob.obj
 0002:00013338       ??_R4XOleDocumentView@CDocObjectServer@@6B@ 5f59e338   oledocob.obj
 0002:00013350       ??_R3XOleDocumentView@CDocObjectServer@@8 5f59e350   oledocob.obj
 0002:00013360       ??_R2XOleDocumentView@CDocObjectServer@@8 5f59e360   oledocob.obj
 0002:00013370       ??_R1A@?0A@A@XOleDocumentView@CDocObjectServer@@8 5f59e370   oledocob.obj
 0002:00013388       ??_R1A@?0A@A@IOleDocumentView@@8 5f59e388   oledocob.obj
 0002:000133a0       ??_R4XOleCommandTarget@CDocObjectServer@@6B@ 5f59e3a0   oledocob.obj
 0002:000133b8       ??_R3XOleCommandTarget@CDocObjectServer@@8 5f59e3b8   oledocob.obj
 0002:000133c8       ??_R2XOleCommandTarget@CDocObjectServer@@8 5f59e3c8   oledocob.obj
 0002:000133d8       ??_R1A@?0A@A@IOleCommandTarget@@8 5f59e3d8   oledocob.obj
 0002:000133f0       ??_R1A@?0A@A@XOleCommandTarget@CDocObjectServer@@8 5f59e3f0   oledocob.obj
 0002:00013408       ??_R4XPrint@CDocObjectServer@@6B@ 5f59e408   oledocob.obj
 0002:00013420       ??_R3XPrint@CDocObjectServer@@8 5f59e420   oledocob.obj
 0002:00013430       ??_R2XPrint@CDocObjectServer@@8 5f59e430   oledocob.obj
 0002:00013440       ??_R1A@?0A@A@IPrint@@8     5f59e440   oledocob.obj
 0002:00013458       ??_R1A@?0A@A@XPrint@CDocObjectServer@@8 5f59e458   oledocob.obj
 0002:00013470       ??_R4IOleDocument@@6B@     5f59e470   oledocob.obj
 0002:00013488       ??_R3IOleDocument@@8       5f59e488   oledocob.obj
 0002:00013498       ??_R2IOleDocument@@8       5f59e498   oledocob.obj
 0002:000134a8       ??_R4IOleDocumentView@@6B@ 5f59e4a8   oledocob.obj
 0002:000134c0       ??_R3IOleDocumentView@@8   5f59e4c0   oledocob.obj
 0002:000134d0       ??_R2IOleDocumentView@@8   5f59e4d0   oledocob.obj
 0002:000134e0       ??_R4IOleCommandTarget@@6B@ 5f59e4e0   oledocob.obj
 0002:000134f8       ??_R3IOleCommandTarget@@8  5f59e4f8   oledocob.obj
 0002:00013508       ??_R2IOleCommandTarget@@8  5f59e508   oledocob.obj
 0002:00013518       ??_R4IPrint@@6B@           5f59e518   oledocob.obj
 0002:00013530       ??_R3IPrint@@8             5f59e530   oledocob.obj
 0002:00013540       ??_R2IPrint@@8             5f59e540   oledocob.obj
 0002:00013550       ??_R4CDocObjectServerItem@@6B@ 5f59e550   oledocob.obj
 0002:00013568       ??_R3CDocObjectServerItem@@8 5f59e568   oledocob.obj
 0002:00013578       ??_R2CDocObjectServerItem@@8 5f59e578   oledocob.obj
 0002:00013590       ??_R1A@?0A@A@CDocObjectServerItem@@8 5f59e590   oledocob.obj
 0002:000135a8       ??_R4COleCmdUI@@6B@        5f59e5a8   oledoctg.obj
 0002:000135c0       ??_R3COleCmdUI@@8          5f59e5c0   oledoctg.obj
 0002:000135d0       ??_R2COleCmdUI@@8          5f59e5d0   oledoctg.obj
 0002:000135e0       ??_R1A@?0A@A@CCmdUI@@8     5f59e5e0   oledoctg.obj
 0002:000135f8       ??_R1A@?0A@A@COleCmdUI@@8  5f59e5f8   oledoctg.obj
 0002:00013610       ??_R4COleDocIPFrameWnd@@6B@ 5f59e610   oledocip.obj
 0002:00013628       ??_R3COleDocIPFrameWnd@@8  5f59e628   oledocip.obj
 0002:00013638       ??_R2COleDocIPFrameWnd@@8  5f59e638   oledocip.obj
 0002:00013658       ??_R1A@?0A@A@COleDocIPFrameWnd@@8 5f59e658   oledocip.obj
 0002:00013670       ??_R4CAsyncMonikerFile@@6B@ 5f59e670   oleasmon.obj
 0002:00013688       ??_R3CAsyncMonikerFile@@8  5f59e688   oleasmon.obj
 0002:00013698       ??_R2CAsyncMonikerFile@@8  5f59e698   oleasmon.obj
 0002:000136b0       ??_R1A@?0A@A@CAsyncMonikerFile@@8 5f59e6b0   oleasmon.obj
 0002:000136c8       ??_R4_AfxBindStatusCallback@@6B@ 5f59e6c8   oleasmon.obj
 0002:000136e0       ??_R3_AfxBindStatusCallback@@8 5f59e6e0   oleasmon.obj
 0002:000136f0       ??_R2_AfxBindStatusCallback@@8 5f59e6f0   oleasmon.obj
 0002:00013700       ??_R1A@?0A@A@_AfxBindStatusCallback@@8 5f59e700   oleasmon.obj
 0002:00013718       ??_R1A@?0A@A@IBindStatusCallback@@8 5f59e718   oleasmon.obj
 0002:00013730       ??_R4IBindStatusCallback@@6B@ 5f59e730   oleasmon.obj
 0002:00013748       ??_R3IBindStatusCallback@@8 5f59e748   oleasmon.obj
 0002:00013758       ??_R2IBindStatusCallback@@8 5f59e758   oleasmon.obj
 0002:00013768       ??_R4COleResizeBar@@6B@    5f59e768   olebar.obj
 0002:00013780       ??_R3COleResizeBar@@8      5f59e780   olebar.obj
 0002:00013790       ??_R2COleResizeBar@@8      5f59e790   olebar.obj
 0002:000137a8       ??_R1A@?0A@A@CControlBar@@8 5f59e7a8   olebar.obj
 0002:000137c0       ??_R1A@?0A@A@COleResizeBar@@8 5f59e7c0   olebar.obj
 0002:000137d8       ??_R4COleControl@@6B@      5f59e7d8   ctlcore.obj
 0002:000137f0       ??_R3COleControl@@8        5f59e7f0   ctlcore.obj
 0002:00013800       ??_R2COleControl@@8        5f59e800   ctlcore.obj
 0002:00013818       ??_R1A@?0A@A@COleControl@@8 5f59e818   ctlcore.obj
 0002:00013830       ??_R4XPersistStorage@COleControl@@6B@ 5f59e830   ctlcore.obj
 0002:00013848       ??_R3XPersistStorage@COleControl@@8 5f59e848   ctlcore.obj
 0002:00013858       ??_R2XPersistStorage@COleControl@@8 5f59e858   ctlcore.obj
 0002:00013870       ??_R1A@?0A@A@XPersistStorage@COleControl@@8 5f59e870   ctlcore.obj
 0002:00013888       ??_R4XPersistStreamInit@COleControl@@6B@ 5f59e888   ctlcore.obj
 0002:000138a0       ??_R3XPersistStreamInit@COleControl@@8 5f59e8a0   ctlcore.obj
 0002:000138b0       ??_R2XPersistStreamInit@COleControl@@8 5f59e8b0   ctlcore.obj
 0002:000138c8       ??_R1A@?0A@A@XPersistStreamInit@COleControl@@8 5f59e8c8   ctlcore.obj
 0002:000138e0       ??_R1A@?0A@A@IPersistStreamInit@@8 5f59e8e0   ctlcore.obj
 0002:000138f8       ??_R4XPersistMemory@COleControl@@6B@ 5f59e8f8   ctlcore.obj
 0002:00013910       ??_R3XPersistMemory@COleControl@@8 5f59e910   ctlcore.obj
 0002:00013920       ??_R2XPersistMemory@COleControl@@8 5f59e920   ctlcore.obj
 0002:00013938       ??_R1A@?0A@A@XPersistMemory@COleControl@@8 5f59e938   ctlcore.obj
 0002:00013950       ??_R1A@?0A@A@IPersistMemory@@8 5f59e950   ctlcore.obj
 0002:00013968       ??_R4XPersistPropertyBag@COleControl@@6B@ 5f59e968   ctlcore.obj
 0002:00013980       ??_R3XPersistPropertyBag@COleControl@@8 5f59e980   ctlcore.obj
 0002:00013990       ??_R2XPersistPropertyBag@COleControl@@8 5f59e990   ctlcore.obj
 0002:000139a8       ??_R1A@?0A@A@XPersistPropertyBag@COleControl@@8 5f59e9a8   ctlcore.obj
 0002:000139c0       ??_R1A@?0A@A@IPersistPropertyBag@@8 5f59e9c0   ctlcore.obj
 0002:000139d8       ??_R4XOleObject@COleControl@@6B@ 5f59e9d8   ctlcore.obj
 0002:000139f0       ??_R3XOleObject@COleControl@@8 5f59e9f0   ctlcore.obj
 0002:00013a00       ??_R2XOleObject@COleControl@@8 5f59ea00   ctlcore.obj
 0002:00013a10       ??_R1A@?0A@A@XOleObject@COleControl@@8 5f59ea10   ctlcore.obj
 0002:00013a28       ??_R4XViewObject@COleControl@@6B@ 5f59ea28   ctlcore.obj
 0002:00013a40       ??_R3XViewObject@COleControl@@8 5f59ea40   ctlcore.obj
 0002:00013a50       ??_R2XViewObject@COleControl@@8 5f59ea50   ctlcore.obj
 0002:00013a68       ??_R1A@?0A@A@IViewObjectEx@@8 5f59ea68   ctlcore.obj
 0002:00013a80       ??_R1A@?0A@A@XViewObject@COleControl@@8 5f59ea80   ctlcore.obj
 0002:00013a98       ??_R1A@?0A@A@IViewObject2@@8 5f59ea98   ctlcore.obj
 0002:00013ab0       ??_R1A@?0A@A@IViewObject@@8 5f59eab0   ctlcore.obj
 0002:00013ac8       ??_R4XDataObject@COleControl@@6B@ 5f59eac8   ctlcore.obj
 0002:00013ae0       ??_R3XDataObject@COleControl@@8 5f59eae0   ctlcore.obj
 0002:00013af0       ??_R2XDataObject@COleControl@@8 5f59eaf0   ctlcore.obj
 0002:00013b00       ??_R1A@?0A@A@XDataObject@COleControl@@8 5f59eb00   ctlcore.obj
 0002:00013b18       ??_R4XOleInPlaceObject@COleControl@@6B@ 5f59eb18   ctlcore.obj
 0002:00013b30       ??_R3XOleInPlaceObject@COleControl@@8 5f59eb30   ctlcore.obj
 0002:00013b40       ??_R2XOleInPlaceObject@COleControl@@8 5f59eb40   ctlcore.obj
 0002:00013b58       ??_R1A@?0A@A@XOleInPlaceObject@COleControl@@8 5f59eb58   ctlcore.obj
 0002:00013b70       ??_R1A@?0A@A@IOleInPlaceObjectWindowless@@8 5f59eb70   ctlcore.obj
 0002:00013b88       ??_R4XOleInPlaceActiveObject@COleControl@@6B@ 5f59eb88   ctlcore.obj
 0002:00013ba0       ??_R3XOleInPlaceActiveObject@COleControl@@8 5f59eba0   ctlcore.obj
 0002:00013bb0       ??_R2XOleInPlaceActiveObject@COleControl@@8 5f59ebb0   ctlcore.obj
 0002:00013bc8       ??_R1A@?0A@A@XOleInPlaceActiveObject@COleControl@@8 5f59ebc8   ctlcore.obj
 0002:00013be0       ??_R4XOleCache@COleControl@@6B@ 5f59ebe0   ctlcore.obj
 0002:00013bf8       ??_R3XOleCache@COleControl@@8 5f59ebf8   ctlcore.obj
 0002:00013c08       ??_R2XOleCache@COleControl@@8 5f59ec08   ctlcore.obj
 0002:00013c18       ??_R1A@?0A@A@XOleCache@COleControl@@8 5f59ec18   ctlcore.obj
 0002:00013c30       ??_R1A@?0A@A@IOleCache@@8  5f59ec30   ctlcore.obj
 0002:00013c48       ??_R4XOleControl@COleControl@@6B@ 5f59ec48   ctlcore.obj
 0002:00013c60       ??_R3XOleControl@COleControl@@8 5f59ec60   ctlcore.obj
 0002:00013c70       ??_R2XOleControl@COleControl@@8 5f59ec70   ctlcore.obj
 0002:00013c80       ??_R1A@?0A@A@IOleControl@@8 5f59ec80   ctlcore.obj
 0002:00013c98       ??_R1A@?0A@A@XOleControl@COleControl@@8 5f59ec98   ctlcore.obj
 0002:00013cb0       ??_R4XProvideClassInfo@COleControl@@6B@ 5f59ecb0   ctlcore.obj
 0002:00013cc8       ??_R3XProvideClassInfo@COleControl@@8 5f59ecc8   ctlcore.obj
 0002:00013cd8       ??_R2XProvideClassInfo@COleControl@@8 5f59ecd8   ctlcore.obj
 0002:00013cf0       ??_R1A@?0A@A@IProvideClassInfo@@8 5f59ecf0   ctlcore.obj
 0002:00013d08       ??_R1A@?0A@A@IProvideClassInfo2@@8 5f59ed08   ctlcore.obj
 0002:00013d20       ??_R1A@?0A@A@XProvideClassInfo@COleControl@@8 5f59ed20   ctlcore.obj
 0002:00013d38       ??_R4XSpecifyPropertyPages@COleControl@@6B@ 5f59ed38   ctlcore.obj
 0002:00013d50       ??_R3XSpecifyPropertyPages@COleControl@@8 5f59ed50   ctlcore.obj
 0002:00013d60       ??_R2XSpecifyPropertyPages@COleControl@@8 5f59ed60   ctlcore.obj
 0002:00013d70       ??_R1A@?0A@A@XSpecifyPropertyPages@COleControl@@8 5f59ed70   ctlcore.obj
 0002:00013d88       ??_R1A@?0A@A@ISpecifyPropertyPages@@8 5f59ed88   ctlcore.obj
 0002:00013da0       ??_R4XPerPropertyBrowsing@COleControl@@6B@ 5f59eda0   ctlcore.obj
 0002:00013db8       ??_R3XPerPropertyBrowsing@COleControl@@8 5f59edb8   ctlcore.obj
 0002:00013dc8       ??_R2XPerPropertyBrowsing@COleControl@@8 5f59edc8   ctlcore.obj
 0002:00013dd8       ??_R1A@?0A@A@IPerPropertyBrowsing@@8 5f59edd8   ctlcore.obj
 0002:00013df0       ??_R1A@?0A@A@XPerPropertyBrowsing@COleControl@@8 5f59edf0   ctlcore.obj
 0002:00013e08       ??_R4XFontNotification@COleControl@@6B@ 5f59ee08   ctlcore.obj
 0002:00013e20       ??_R3XFontNotification@COleControl@@8 5f59ee20   ctlcore.obj
 0002:00013e30       ??_R2XFontNotification@COleControl@@8 5f59ee30   ctlcore.obj
 0002:00013e40       ??_R1A@?0A@A@XFontNotification@COleControl@@8 5f59ee40   ctlcore.obj
 0002:00013e58       ??_R4XQuickActivate@COleControl@@6B@ 5f59ee58   ctlcore.obj
 0002:00013e70       ??_R3XQuickActivate@COleControl@@8 5f59ee70   ctlcore.obj
 0002:00013e80       ??_R2XQuickActivate@COleControl@@8 5f59ee80   ctlcore.obj
 0002:00013e90       ??_R1A@?0A@A@XQuickActivate@COleControl@@8 5f59ee90   ctlcore.obj
 0002:00013ea8       ??_R1A@?0A@A@IQuickActivate@@8 5f59eea8   ctlcore.obj
 0002:00013ec0       ??_R4XPointerInactive@COleControl@@6B@ 5f59eec0   ctlcore.obj
 0002:00013ed8       ??_R3XPointerInactive@COleControl@@8 5f59eed8   ctlcore.obj
 0002:00013ee8       ??_R2XPointerInactive@COleControl@@8 5f59eee8   ctlcore.obj
 0002:00013ef8       ??_R1A@?0A@A@XPointerInactive@COleControl@@8 5f59eef8   ctlcore.obj
 0002:00013f10       ??_R1A@?0A@A@IPointerInactive@@8 5f59ef10   ctlcore.obj
 0002:00013f28       ??_R4IPersistStreamInit@@6B@ 5f59ef28   ctlcore.obj
 0002:00013f40       ??_R3IPersistStreamInit@@8 5f59ef40   ctlcore.obj
 0002:00013f50       ??_R2IPersistStreamInit@@8 5f59ef50   ctlcore.obj
 0002:00013f60       ??_R4IPersistMemory@@6B@   5f59ef60   ctlcore.obj
 0002:00013f78       ??_R3IPersistMemory@@8     5f59ef78   ctlcore.obj
 0002:00013f88       ??_R2IPersistMemory@@8     5f59ef88   ctlcore.obj
 0002:00013f98       ??_R4IPersistPropertyBag@@6B@ 5f59ef98   ctlcore.obj
 0002:00013fb0       ??_R3IPersistPropertyBag@@8 5f59efb0   ctlcore.obj
 0002:00013fc0       ??_R2IPersistPropertyBag@@8 5f59efc0   ctlcore.obj
 0002:00013fd0       ??_R4IViewObjectEx@@6B@    5f59efd0   ctlcore.obj
 0002:00013fe8       ??_R3IViewObjectEx@@8      5f59efe8   ctlcore.obj
 0002:00013ff8       ??_R2IViewObjectEx@@8      5f59eff8   ctlcore.obj
 0002:00014010       ??_R4IOleInPlaceObjectWindowless@@6B@ 5f59f010   ctlcore.obj
 0002:00014028       ??_R3IOleInPlaceObjectWindowless@@8 5f59f028   ctlcore.obj
 0002:00014038       ??_R2IOleInPlaceObjectWindowless@@8 5f59f038   ctlcore.obj
 0002:00014050       ??_R4IOleCache@@6B@        5f59f050   ctlcore.obj
 0002:00014068       ??_R3IOleCache@@8          5f59f068   ctlcore.obj
 0002:00014078       ??_R2IOleCache@@8          5f59f078   ctlcore.obj
 0002:00014088       ??_R4IOleControl@@6B@      5f59f088   ctlcore.obj
 0002:000140a0       ??_R3IOleControl@@8        5f59f0a0   ctlcore.obj
 0002:000140b0       ??_R2IOleControl@@8        5f59f0b0   ctlcore.obj
 0002:000140c0       ??_R4IProvideClassInfo2@@6B@ 5f59f0c0   ctlcore.obj
 0002:000140d8       ??_R3IProvideClassInfo2@@8 5f59f0d8   ctlcore.obj
 0002:000140e8       ??_R2IProvideClassInfo2@@8 5f59f0e8   ctlcore.obj
 0002:000140f8       ??_R4ISpecifyPropertyPages@@6B@ 5f59f0f8   ctlcore.obj
 0002:00014110       ??_R3ISpecifyPropertyPages@@8 5f59f110   ctlcore.obj
 0002:00014120       ??_R2ISpecifyPropertyPages@@8 5f59f120   ctlcore.obj
 0002:00014130       ??_R4IPerPropertyBrowsing@@6B@ 5f59f130   ctlcore.obj
 0002:00014148       ??_R3IPerPropertyBrowsing@@8 5f59f148   ctlcore.obj
 0002:00014158       ??_R2IPerPropertyBrowsing@@8 5f59f158   ctlcore.obj
 0002:00014168       ??_R4IQuickActivate@@6B@   5f59f168   ctlcore.obj
 0002:00014180       ??_R3IQuickActivate@@8     5f59f180   ctlcore.obj
 0002:00014190       ??_R2IQuickActivate@@8     5f59f190   ctlcore.obj
 0002:000141a0       ??_R4IPointerInactive@@6B@ 5f59f1a0   ctlcore.obj
 0002:000141b8       ??_R3IPointerInactive@@8   5f59f1b8   ctlcore.obj
 0002:000141c8       ??_R2IPointerInactive@@8   5f59f1c8   ctlcore.obj
 0002:000141d8       ??_R4IViewObject2@@6B@     5f59f1d8   ctlcore.obj
 0002:000141f0       ??_R3IViewObject2@@8       5f59f1f0   ctlcore.obj
 0002:00014200       ??_R2IViewObject2@@8       5f59f200   ctlcore.obj
 0002:00014210       ??_R4IProvideClassInfo@@6B@ 5f59f210   ctlcore.obj
 0002:00014228       ??_R3IProvideClassInfo@@8  5f59f228   ctlcore.obj
 0002:00014238       ??_R2IProvideClassInfo@@8  5f59f238   ctlcore.obj
 0002:00014248       ??_R4IViewObject@@6B@      5f59f248   ctlcore.obj
 0002:00014260       ??_R3IViewObject@@8        5f59f260   ctlcore.obj
 0002:00014270       ??_R2IViewObject@@8        5f59f270   ctlcore.obj
 0002:00014280       ??_R4XEventConnPt@COleControl@@6B@ 5f59f280   ctlcore.obj
 0002:00014298       ??_R3XEventConnPt@COleControl@@8 5f59f298   ctlcore.obj
 0002:000142a8       ??_R2XEventConnPt@COleControl@@8 5f59f2a8   ctlcore.obj
 0002:000142c0       ??_R1A@?0A@A@CConnectionPoint@@8 5f59f2c0   ctlcore.obj
 0002:000142d8       ??_R1A@?0A@A@XEventConnPt@COleControl@@8 5f59f2d8   ctlcore.obj
 0002:000142f0       ??_R4XPropConnPt@COleControl@@6B@ 5f59f2f0   ctlcore.obj
 0002:00014308       ??_R3XPropConnPt@COleControl@@8 5f59f308   ctlcore.obj
 0002:00014318       ??_R2XPropConnPt@COleControl@@8 5f59f318   ctlcore.obj
 0002:00014330       ??_R1A@?0A@A@XPropConnPt@COleControl@@8 5f59f330   ctlcore.obj
 0002:00014348       ??_R4CReflectorWnd@@6B@    5f59f348   ctlcore.obj
 0002:00014360       ??_R3CReflectorWnd@@8      5f59f360   ctlcore.obj
 0002:00014370       ??_R2CReflectorWnd@@8      5f59f370   ctlcore.obj
 0002:00014388       ??_R1A@?0A@A@CReflectorWnd@@8 5f59f388   ctlcore.obj
 0002:000143a0       ??_R4CParkingWnd@@6B@      5f59f3a0   ctlcore.obj
 0002:000143b8       ??_R3CParkingWnd@@8        5f59f3b8   ctlcore.obj
 0002:000143c8       ??_R2CParkingWnd@@8        5f59f3c8   ctlcore.obj
 0002:000143e0       ??_R1A@?0A@A@CParkingWnd@@8 5f59f3e0   ctlcore.obj
 0002:000143f8       ??_R4CControlDataSource@COleControl@@6B@ 5f59f3f8   ctldata.obj
 0002:00014410       ??_R3CControlDataSource@COleControl@@8 5f59f410   ctldata.obj
 0002:00014420       ??_R2CControlDataSource@COleControl@@8 5f59f420   ctldata.obj
 0002:00014438       ??_R1A@?0A@A@CControlDataSource@COleControl@@8 5f59f438   ctldata.obj
 0002:00014450       ??_R4CControlFrameWnd@@6B@ 5f59f450   ctlframe.obj
 0002:00014468       ??_R3CControlFrameWnd@@8   5f59f468   ctlframe.obj
 0002:00014478       ??_R2CControlFrameWnd@@8   5f59f478   ctlframe.obj
 0002:00014490       ??_R1A@?0A@A@CControlFrameWnd@@8 5f59f490   ctlframe.obj
 0002:000144a8       ??_R4CConnectionPoint@@6B@ 5f59f4a8   oleconn.obj
 0002:000144c0       ??_R3CConnectionPoint@@8   5f59f4c0   oleconn.obj
 0002:000144d0       ??_R2CConnectionPoint@@8   5f59f4d0   oleconn.obj
 0002:000144e0       ??_R4XConnPt@CConnectionPoint@@6B@ 5f59f4e0   oleconn.obj
 0002:000144f8       ??_R3XConnPt@CConnectionPoint@@8 5f59f4f8   oleconn.obj
 0002:00014508       ??_R2XConnPt@CConnectionPoint@@8 5f59f508   oleconn.obj
 0002:00014518       ??_R1A@?0A@A@IConnectionPoint@@8 5f59f518   oleconn.obj
 0002:00014530       ??_R1A@?0A@A@XConnPt@CConnectionPoint@@8 5f59f530   oleconn.obj
 0002:00014548       ??_R4IConnectionPoint@@6B@ 5f59f548   oleconn.obj
 0002:00014560       ??_R3IConnectionPoint@@8   5f59f560   oleconn.obj
 0002:00014570       ??_R2IConnectionPoint@@8   5f59f570   oleconn.obj
 0002:00014580       ??_R4CEnumConnPoints@@6B@  5f59f580   oleconn.obj
 0002:00014598       ??_R3CEnumConnPoints@@8    5f59f598   oleconn.obj
 0002:000145a8       ??_R2CEnumConnPoints@@8    5f59f5a8   oleconn.obj
 0002:000145c0       ??_R1A@?0A@A@CEnumConnPoints@@8 5f59f5c0   oleconn.obj
 0002:000145d8       ??_R4COleConnPtContainer@@6B@ 5f59f5d8   oleconn.obj
 0002:000145f0       ??_R3COleConnPtContainer@@8 5f59f5f0   oleconn.obj
 0002:00014600       ??_R2COleConnPtContainer@@8 5f59f600   oleconn.obj
 0002:00014610       ??_R1A@?0A@A@IConnectionPointContainer@@8 5f59f610   oleconn.obj
 0002:00014628       ??_R1A@?0A@A@COleConnPtContainer@@8 5f59f628   oleconn.obj
 0002:00014640       ??_R4IConnectionPointContainer@@6B@ 5f59f640   oleconn.obj
 0002:00014658       ??_R3IConnectionPointContainer@@8 5f59f658   oleconn.obj
 0002:00014668       ??_R2IConnectionPointContainer@@8 5f59f668   oleconn.obj
 0002:00014678       ??_R4CArchivePropExchange@@6B@ 5f59f678   ctlpropx.obj
 0002:00014690       ??_R3CArchivePropExchange@@8 5f59f690   ctlpropx.obj
 0002:000146a0       ??_R2CArchivePropExchange@@8 5f59f6a0   ctlpropx.obj
 0002:000146b0       ??_R1A@?0A@A@CPropExchange@@8 5f59f6b0   ctlpropx.obj
 0002:000146c8       ??_R1A@?0A@A@CArchivePropExchange@@8 5f59f6c8   ctlpropx.obj
 0002:000146e0       ??_R4CResetPropExchange@@6B@ 5f59f6e0   ctlpropx.obj
 0002:000146f8       ??_R3CResetPropExchange@@8 5f59f6f8   ctlpropx.obj
 0002:00014708       ??_R2CResetPropExchange@@8 5f59f708   ctlpropx.obj
 0002:00014718       ??_R1A@?0A@A@CResetPropExchange@@8 5f59f718   ctlpropx.obj
 0002:00014730       ??_R4CAsyncPropExchange@@6B@ 5f59f730   ctlpropx.obj
 0002:00014748       ??_R3CAsyncPropExchange@@8 5f59f748   ctlpropx.obj
 0002:00014758       ??_R2CAsyncPropExchange@@8 5f59f758   ctlpropx.obj
 0002:00014768       ??_R1A@?0A@A@CAsyncPropExchange@@8 5f59f768   ctlpropx.obj
 0002:00014780       ??_R4AFX_DDPDATA@@6B@      5f59f780   ctlppg.obj
 0002:00014798       ??_R3AFX_DDPDATA@@8        5f59f798   ctlppg.obj
 0002:000147a8       ??_R2AFX_DDPDATA@@8        5f59f7a8   ctlppg.obj
 0002:000147b8       ??_R1A@?0A@A@AFX_DDPDATA@@8 5f59f7b8   ctlppg.obj
 0002:000147d0       ??_R4COlePropertyPage@@6B@ 5f59f7d0   ctlppg.obj
 0002:000147e8       ??_R3COlePropertyPage@@8   5f59f7e8   ctlppg.obj
 0002:000147f8       ??_R2COlePropertyPage@@8   5f59f7f8   ctlppg.obj
 0002:00014810       ??_R1A@?0A@A@COlePropertyPage@@8 5f59f810   ctlppg.obj
 0002:00014828       ??_R4XPropertyPage@COlePropertyPage@@6B@ 5f59f828   ctlppg.obj
 0002:00014840       ??_R3XPropertyPage@COlePropertyPage@@8 5f59f840   ctlppg.obj
 0002:00014850       ??_R2XPropertyPage@COlePropertyPage@@8 5f59f850   ctlppg.obj
 0002:00014868       ??_R1A@?0A@A@XPropertyPage@COlePropertyPage@@8 5f59f868   ctlppg.obj
 0002:00014880       ??_R1A@?0A@A@IPropertyPage2@@8 5f59f880   ctlppg.obj
 0002:00014898       ??_R1A@?0A@A@IPropertyPage@@8 5f59f898   ctlppg.obj
 0002:000148b0       ??_R4XPropNotifySink@COlePropertyPage@@6B@ 5f59f8b0   ctlppg.obj
 0002:000148c8       ??_R3XPropNotifySink@COlePropertyPage@@8 5f59f8c8   ctlppg.obj
 0002:000148d8       ??_R2XPropNotifySink@COlePropertyPage@@8 5f59f8d8   ctlppg.obj
 0002:000148e8       ??_R1A@?0A@A@XPropNotifySink@COlePropertyPage@@8 5f59f8e8   ctlppg.obj
 0002:00014900       ??_R4IPropertyPage2@@6B@   5f59f900   ctlppg.obj
 0002:00014918       ??_R3IPropertyPage2@@8     5f59f918   ctlppg.obj
 0002:00014928       ??_R2IPropertyPage2@@8     5f59f928   ctlppg.obj
 0002:00014938       ??_R4IPropertyPage@@6B@    5f59f938   ctlppg.obj
 0002:00014950       ??_R3IPropertyPage@@8      5f59f950   ctlppg.obj
 0002:00014960       ??_R2IPropertyPage@@8      5f59f960   ctlppg.obj
 0002:00014970       ??_R4CPropsetPropExchange@@6B@ 5f59f970   ctlpset.obj
 0002:00014988       ??_R3CPropsetPropExchange@@8 5f59f988   ctlpset.obj
 0002:00014998       ??_R2CPropsetPropExchange@@8 5f59f998   ctlpset.obj
 0002:000149a8       ??_R1A@?0A@A@CPropsetPropExchange@@8 5f59f9a8   ctlpset.obj
 0002:000149c0       ??_R4CBlobProperty@@6B@    5f59f9c0   ctlpbag.obj
 0002:000149d8       ??_R3CBlobProperty@@8      5f59f9d8   ctlpbag.obj
 0002:000149e8       ??_R2CBlobProperty@@8      5f59f9e8   ctlpbag.obj
 0002:00014a00       ??_R1A@?0A@A@CBlobProperty@@8 5f59fa00   ctlpbag.obj
 0002:00014a18       ??_R1A@?0A@A@IPersistStream@@8 5f59fa18   ctlpbag.obj
 0002:00014a30       ??_R4IPersistStream@@6B@   5f59fa30   ctlpbag.obj
 0002:00014a48       ??_R3IPersistStream@@8     5f59fa48   ctlpbag.obj
 0002:00014a58       ??_R2IPersistStream@@8     5f59fa58   ctlpbag.obj
 0002:00014a68       ??_R4CPropbagPropExchange@@6B@ 5f59fa68   ctlpbag.obj
 0002:00014a80       ??_R3CPropbagPropExchange@@8 5f59fa80   ctlpbag.obj
 0002:00014a90       ??_R2CPropbagPropExchange@@8 5f59fa90   ctlpbag.obj
 0002:00014aa0       ??_R1A@?0A@A@CPropbagPropExchange@@8 5f59faa0   ctlpbag.obj
 0002:00014ab8       ??_R4_AFXCTL_AMBIENT_CACHE@@6B@ 5f59fab8   ctlquick.obj
 0002:00014ad0       ??_R3_AFXCTL_AMBIENT_CACHE@@8 5f59fad0   ctlquick.obj
 0002:00014ae0       ??_R2_AFXCTL_AMBIENT_CACHE@@8 5f59fae0   ctlquick.obj
 0002:00014af0       ??_R1A@?0A@A@_AFXCTL_AMBIENT_CACHE@@8 5f59faf0   ctlquick.obj
 0002:00014b08       ??_R4CWindowlessDC@@6B@    5f59fb08   ctlnownd.obj
 0002:00014b20       ??_R3CWindowlessDC@@8      5f59fb20   ctlnownd.obj
 0002:00014b30       ??_R2CWindowlessDC@@8      5f59fb30   ctlnownd.obj
 0002:00014b40       ??_R1A@?0A@A@CDC@@8        5f59fb40   ctlnownd.obj
 0002:00014b58       ??_R1A@?0A@A@CWindowlessDC@@8 5f59fb58   ctlnownd.obj
 0002:00014b70       ??_R4CColorButton@@6B@     5f59fb70   ppgcolor.obj
 0002:00014b88       ??_R3CColorButton@@8       5f59fb88   ppgcolor.obj
 0002:00014b98       ??_R2CColorButton@@8       5f59fb98   ppgcolor.obj
 0002:00014bb0       ??_R1A@?0A@A@CButton@@8    5f59fbb0   ppgcolor.obj
 0002:00014bc8       ??_R1A@?0A@A@CColorButton@@8 5f59fbc8   ppgcolor.obj
 0002:00014be0       ??_R4CColorPropPage@@6B@   5f59fbe0   ppgcolor.obj
 0002:00014bf8       ??_R3CColorPropPage@@8     5f59fbf8   ppgcolor.obj
 0002:00014c08       ??_R2CColorPropPage@@8     5f59fc08   ppgcolor.obj
 0002:00014c28       ??_R1A@?0A@A@CStockPropPage@@8 5f59fc28   ppgcolor.obj
 0002:00014c40       ??_R1A@?0A@A@CColorPropPage@@8 5f59fc40   ppgcolor.obj
 0002:00014c58       ??_R4CColorPropPageFactory@CColorPropPage@@6B@ 5f59fc58   ppgcolor.obj
 0002:00014c70       ??_R3CColorPropPageFactory@CColorPropPage@@8 5f59fc70   ppgcolor.obj
 0002:00014c80       ??_R2CColorPropPageFactory@CColorPropPage@@8 5f59fc80   ppgcolor.obj
 0002:00014c98       ??_R1A@?0A@A@CColorPropPageFactory@CColorPropPage@@8 5f59fc98   ppgcolor.obj
 0002:00014cb0       ??_R4CFontPropPage@@6B@    5f59fcb0   ppgfont.obj
 0002:00014cc8       ??_R3CFontPropPage@@8      5f59fcc8   ppgfont.obj
 0002:00014cd8       ??_R2CFontPropPage@@8      5f59fcd8   ppgfont.obj
 0002:00014cf8       ??_R1A@?0A@A@CFontPropPage@@8 5f59fcf8   ppgfont.obj
 0002:00014d10       ??_R4CSizeComboBox@@6B@    5f59fd10   ppgfont.obj
 0002:00014d28       ??_R3CSizeComboBox@@8      5f59fd28   ppgfont.obj
 0002:00014d38       ??_R2CSizeComboBox@@8      5f59fd38   ppgfont.obj
 0002:00014d50       ??_R1A@?0A@A@CComboBox@@8  5f59fd50   ppgfont.obj
 0002:00014d68       ??_R1A@?0A@A@CSizeComboBox@@8 5f59fd68   ppgfont.obj
 0002:00014d80       ??_R4CFontComboBox@@6B@    5f59fd80   ppgfont.obj
 0002:00014d98       ??_R3CFontComboBox@@8      5f59fd98   ppgfont.obj
 0002:00014da8       ??_R2CFontComboBox@@8      5f59fda8   ppgfont.obj
 0002:00014dc0       ??_R1A@?0A@A@CFontComboBox@@8 5f59fdc0   ppgfont.obj
 0002:00014dd8       ??_R4CFontPropPageFactory@CFontPropPage@@6B@ 5f59fdd8   ppgfont.obj
 0002:00014df0       ??_R3CFontPropPageFactory@CFontPropPage@@8 5f59fdf0   ppgfont.obj
 0002:00014e00       ??_R2CFontPropPageFactory@CFontPropPage@@8 5f59fe00   ppgfont.obj
 0002:00014e18       ??_R1A@?0A@A@CFontPropPageFactory@CFontPropPage@@8 5f59fe18   ppgfont.obj
 0002:00014e30       ??_R4CPicturePropPage@@6B@ 5f59fe30   ppgpict.obj
 0002:00014e48       ??_R3CPicturePropPage@@8   5f59fe48   ppgpict.obj
 0002:00014e58       ??_R2CPicturePropPage@@8   5f59fe58   ppgpict.obj
 0002:00014e78       ??_R1A@?0A@A@CPicturePropPage@@8 5f59fe78   ppgpict.obj
 0002:00014e90       ??_R4CPicturePropPageFactory@CPicturePropPage@@6B@ 5f59fe90   ppgpict.obj
 0002:00014ea8       ??_R3CPicturePropPageFactory@CPicturePropPage@@8 5f59fea8   ppgpict.obj
 0002:00014eb8       ??_R2CPicturePropPageFactory@CPicturePropPage@@8 5f59feb8   ppgpict.obj
 0002:00014ed0       ??_R1A@?0A@A@CPicturePropPageFactory@CPicturePropPage@@8 5f59fed0   ppgpict.obj
 0002:00014ee8       ??_R4CStockPropPage@@6B@   5f59fee8   ppgstock.obj
 0002:00014f00       ??_R3CStockPropPage@@8     5f59ff00   ppgstock.obj
 0002:00014f10       ??_R2CStockPropPage@@8     5f59ff10   ppgstock.obj
 0002:00014f30       ??_R4CPropExchange@@6B@    5f59ff30   ctlinl.obj
 0002:00014f48       ??_R3CPropExchange@@8      5f59ff48   ctlinl.obj
 0002:00014f58       ??_R2CPropExchange@@8      5f59ff58   ctlinl.obj
 0002:00014f60       ??_R4CDataPathProperty@@6B@ 5f59ff60   ctlinl.obj
 0002:00014f78       ??_R3CDataPathProperty@@8  5f59ff78   ctlinl.obj
 0002:00014f88       ??_R2CDataPathProperty@@8  5f59ff88   ctlinl.obj
 0002:00014fa8       ??_R1A@?0A@A@CDataPathProperty@@8 5f59ffa8   ctlinl.obj
 0002:00014fc0       ??_R4CCachedDataPathProperty@@6B@ 5f59ffc0   ctlinl.obj
 0002:00014fd8       ??_R3CCachedDataPathProperty@@8 5f59ffd8   ctlinl.obj
 0002:00014fe8       ??_R2CCachedDataPathProperty@@8 5f59ffe8   ctlinl.obj
 0002:00015008       ??_R1A@?0A@A@CCachedDataPathProperty@@8 5f5a0008   ctlinl.obj
 0002:00015020       ??_R4type_info@@6B@        5f5a0020   msvcrtd:ti_inst.obj
 0002:00015038       ??_R3type_info@@8          5f5a0038   msvcrtd:ti_inst.obj
 0002:00015048       ??_R2type_info@@8          5f5a0048   msvcrtd:ti_inst.obj
 0002:00015050       ??_R1A@?0A@A@type_info@@8  5f5a0050   msvcrtd:ti_inst.obj
 0002:00016278       __CT??_R0PAX@84            5f5a1278   oledisp1.obj
 0002:00016298       __CT??_R0PAVCObject@@@84   5f5a1298   oledisp1.obj
 0002:000162b8       __CT??_R0PAVCException@@@84 5f5a12b8   oledisp1.obj
 0002:000162d8       __CT??_R0PAVCOleDispatchException@@@84 5f5a12d8   oledisp1.obj
 0002:000162f8       __CTA4PAVCOleDispatchException@@ 5f5a12f8   oledisp1.obj
 0002:00016310       __TI4PAVCOleDispatchException@@ 5f5a1310   oledisp1.obj
 0002:00017798       __CT??_R0PAVCOleException@@@84 5f5a2798   olemisc.obj
 0002:000177b8       __CTA4PAVCOleException@@   5f5a27b8   olemisc.obj
 0002:000177d0       __TI4PAVCOleException@@    5f5a27d0   olemisc.obj
 0002:00019058       __CTA3PAVCException@@      5f5a4058   oleverb.obj
 0002:00019068       __TI3PAVCException@@       5f5a4068   oleverb.obj
 0003:00000000       ___xc_a                    5f5ad000   msvcrtd:cinitexe.obj
 0003:00000038       ___xc_z                    5f5ad038   msvcrtd:cinitexe.obj
 0003:0000003c       ___xi_a                    5f5ad03c   msvcrtd:cinitexe.obj
 0003:00000040       ___xi_z                    5f5ad040   msvcrtd:cinitexe.obj
 0003:0000005c       __pRawDllMain              5f5ad05c   dllole.obj
 0003:00000060       ?_afxForceVectorDelete_mfco@@3P6AXXZA 5f5ad060   dllole.obj
 0003:00000098       ??_R0?AVCDocItem@@@8       5f5ad098   olecli1.obj
 0003:000000b0       ??_R0?AVCOleClientItem@@@8 5f5ad0b0   olecli1.obj
 0003:000000d0       ??_R0?AVCObject@@@8        5f5ad0d0   olecli1.obj
 0003:000000e8       ??_R0?AVCCmdTarget@@@8     5f5ad0e8   olecli1.obj
 0003:00000108       ??_R0?AVXOleClientSite@COleClientItem@@@8 5f5ad108   olecli1.obj
 0003:00000138       ??_R0?AUIUnknown@@@8       5f5ad138   olecli1.obj
 0003:00000150       ??_R0?AUIOleClientSite@@@8 5f5ad150   olecli1.obj
 0003:00000170       ??_R0?AVXAdviseSink@COleClientItem@@@8 5f5ad170   olecli1.obj
 0003:000001a0       ??_R0?AUIAdviseSink@@@8    5f5ad1a0   olecli1.obj
 0003:000001c0       ??_R0?AVXOleIPSite@COleClientItem@@@8 5f5ad1c0   olecli1.obj
 0003:000001e8       ??_R0?AUIOleInPlaceSite@@@8 5f5ad1e8   olecli1.obj
 0003:00000208       ??_R0?AUIOleWindow@@@8     5f5ad208   olecli1.obj
 0003:00000228       ??_R0PAVCException@@@8     5f5ad228   olecli1.obj
 0003:00000258       ??_R0?AVCOleFrameHook@@@8  5f5ad258   olecli2.obj
 0003:00000278       ??_R0?AUIOleInPlaceFrame@@@8 5f5ad278   olecli2.obj
 0003:00000298       ??_R0?AVXOleInPlaceFrame@COleFrameHook@@@8 5f5ad298   olecli2.obj
 0003:000002c8       ??_R0?AUIOleInPlaceUIWindow@@@8 5f5ad2c8   olecli2.obj
 0003:00000330       ??_R0?AVCOleDataSource@@@8 5f5ad330   oledobj2.obj
 0003:00000350       ??_R0?AVXDataObject@COleDataSource@@@8 5f5ad350   oledobj2.obj
 0003:00000380       ??_R0?AUIDataObject@@@8    5f5ad380   oledobj2.obj
 0003:000003a0       ??_R0?AVCEnumArray@@@8     5f5ad3a0   oledobj2.obj
 0003:000003c0       ??_R0?AVCEnumFormatEtc@@@8 5f5ad3c0   oledobj2.obj
 0003:000003f0       ??_R0?AUIDispatch@@@8      5f5ad3f0   oledisp1.obj
 0003:00000408       ??_R0?AVCOleDispatchImpl@@@8 5f5ad408   oledisp1.obj
 0003:00000428       ??_R0PAVCOleException@@@8  5f5ad428   oledisp1.obj
 0003:00000448       ??_R0?AVCException@@@8     5f5ad448   oledisp1.obj
 0003:00000468       ??_R0?AVCOleDispatchException@@@8 5f5ad468   oledisp1.obj
 0003:00000490       ??_R0PAX@8                 5f5ad490   oledisp1.obj
 0003:000004a0       ??_R0PAVCObject@@@8        5f5ad4a0   oledisp1.obj
 0003:000004b8       ??_R0PAVCOleDispatchException@@@8 5f5ad4b8   oledisp1.obj
 0003:00000510       ??_R0?AUIOleUILinkContainerW@@@8 5f5ad510   oledlgs1.obj
 0003:00000538       ??_R0?AUIOleUILinkInfoW@@@8 5f5ad538   oledlgs1.obj
 0003:00000558       ??_R0?AVCOleUILinkInfo@@@8 5f5ad558   oledlgs1.obj
 0003:00000578       ??_R0?AVCDialog@@@8        5f5ad578   oledlgs1.obj
 0003:00000590       ??_R0?AVCCommonDialog@@@8  5f5ad590   oledlgs1.obj
 0003:000005b0       ??_R0?AVCOleDialog@@@8     5f5ad5b0   oledlgs1.obj
 0003:000005d0       ??_R0?AVCOleInsertDialog@@@8 5f5ad5d0   oledlgs1.obj
 0003:000005f0       ??_R0?AVCWnd@@@8           5f5ad5f0   oledlgs1.obj
 0003:00000608       ??_R0?AVCOleConvertDialog@@@8 5f5ad608   oledlgs1.obj
 0003:00000628       ??_R0?AVCOleChangeIconDialog@@@8 5f5ad628   oledlgs1.obj
 0003:00000650       ??_R0?AVCOleLinksDialog@@@8 5f5ad650   oledlgs1.obj
 0003:00000670       ??_R0?AVCOleUpdateDialog@@@8 5f5ad670   oledlgs1.obj
 0003:00000690       ??_R0?AVCOlePasteSpecialDialog@@@8 5f5ad690   oledlgs1.obj
 0003:000006c8       ??_R0?AVCOleBusyDialog@@@8 5f5ad6c8   oledlgs2.obj
 0003:000006f8       ??_R0?AVCOlePropertiesDialog@@@8 5f5ad6f8   oledlgs3.obj
 0003:00000720       ??_R0?AVXOleUIObjInfo@COlePropertiesDialog@@@8 5f5ad720   oledlgs3.obj
 0003:00000758       ??_R0?AUIOleUIObjInfoW@@@8 5f5ad758   oledlgs3.obj
 0003:00000778       ??_R0?AVCOleChangeSourceDialog@@@8 5f5ad778   oledlgs3.obj
 0003:000007a0       ?_afxOLE@@3UAFX_OLE_CALL@@A 5f5ad7a0   oledata.obj
 0003:000009a0       ?_afxUrlMon@@3UAFX_URLMON_CALL@@A 5f5ad9a0   oledata.obj
 0003:000009b8       ??_R0?AV_AFX_OLE_STATE@@@8 5f5ad9b8   oledata.obj
 0003:000009d8       ??_R0?AVCNoTrackObject@@@8 5f5ad9d8   oledata.obj
 0003:00000a18       ?classCDocItem@CDocItem@@2UCRuntimeClass@@A 5f5ada18   oledoc1.obj
 0003:00000a30       ??_R0?AVCDocument@@@8      5f5ada30   oledoc1.obj
 0003:00000a48       ??_R0?AVCOleDocument@@@8   5f5ada48   oledoc1.obj
 0003:00000a68       ??_R0?AVCFile@@@8          5f5ada68   oledoc1.obj
 0003:00000a80       ??_R0?AVCOleStreamFile@@@8 5f5ada80   oledoc1.obj
 0003:00000aa0       ??_R0?AVCMonikerFile@@@8   5f5adaa0   oledoc1.obj
 0003:00000ae0       ??_R0?AVCOleDropSource@@@8 5f5adae0   oledrop1.obj
 0003:00000b00       ??_R0?AVXDropSource@COleDropSource@@@8 5f5adb00   oledrop1.obj
 0003:00000b30       ??_R0?AUIDropSource@@@8    5f5adb30   oledrop1.obj
 0003:00000b60       ??_R0?AVCOleDropTarget@@@8 5f5adb60   oledrop2.obj
 0003:00000b80       ??_R0?AVXDropTarget@COleDropTarget@@@8 5f5adb80   oledrop2.obj
 0003:00000bb0       ??_R0?AUIDropTarget@@@8    5f5adbb0   oledrop2.obj
 0003:00000be0       ??_R0?AVCOleMessageFilter@@@8 5f5adbe0   olemsgf.obj
 0003:00000c00       ??_R0?AVXMessageFilter@COleMessageFilter@@@8 5f5adc00   olemsgf.obj
 0003:00000c30       ??_R0?AUIMessageFilter@@@8 5f5adc30   olemsgf.obj
 0003:00000c60       ??_R0?AVXEnumVOID@CEnumArray@@@8 5f5adc60   oleenum.obj
 0003:00000c88       ??_R0?AUIEnumVOID@@@8      5f5adc88   oleenum.obj
 0003:00000cb0       ??_R0?AVCOleObjectFactory@@@8 5f5adcb0   olefact.obj
 0003:00000cd0       ??_R0?AVXClassFactory@COleObjectFactory@@@8 5f5adcd0   olefact.obj
 0003:00000d00       ??_R0?AUIClassFactory2@@@8 5f5add00   olefact.obj
 0003:00000d20       ??_R0?AUIClassFactory@@@8  5f5add20   olefact.obj
 0003:00000d50       ??_R0?AVCOleCntrFrameWnd@@@8 5f5add50   oleipfrm.obj
 0003:00000d70       ??_R0?AVCFrameWnd@@@8      5f5add70   oleipfrm.obj
 0003:00000d88       ??_R0?AVCOleIPFrameWnd@@@8 5f5add88   oleipfrm.obj
 0003:00000db8       ??_R0?AVCOleLinkingDoc@@@8 5f5addb8   olelink.obj
 0003:00000dd8       ??_R0?AUIPersist@@@8       5f5addd8   olelink.obj
 0003:00000df0       ??_R0?AUIPersistFile@@@8   5f5addf0   olelink.obj
 0003:00000e10       ??_R0?AVXPersistFile@COleLinkingDoc@@@8 5f5ade10   olelink.obj
 0003:00000e40       ??_R0?AVXOleItemContainer@COleLinkingDoc@@@8 5f5ade40   olelink.obj
 0003:00000e70       ??_R0?AUIOleItemContainer@@@8 5f5ade70   olelink.obj
 0003:00000e90       ??_R0?AUIOleContainer@@@8  5f5ade90   olelink.obj
 0003:00000eb0       ??_R0?AUIParseDisplayName@@@8 5f5adeb0   olelink.obj
 0003:00000f40       ??_R0?AVCOleServerDoc@@@8  5f5adf40   olesvr1.obj
 0003:00000f60       ??_R0?AUIPersistStorage@@@8 5f5adf60   olesvr1.obj
 0003:00000f80       ??_R0?AVXPersistStorage@COleServerDoc@@@8 5f5adf80   olesvr1.obj
 0003:00000fb0       ??_R0?AVXOleObject@COleServerDoc@@@8 5f5adfb0   olesvr1.obj
 0003:00000fd8       ??_R0?AUIOleObject@@@8     5f5adfd8   olesvr1.obj
 0003:00000ff8       ??_R0?AVXDataObject@COleServerDoc@@@8 5f5adff8   olesvr1.obj
 0003:00001020       ??_R0?AVXOleInPlaceObject@COleServerDoc@@@8 5f5ae020   olesvr1.obj
 0003:00001050       ??_R0?AUIOleInPlaceObject@@@8 5f5ae050   olesvr1.obj
 0003:00001070       ??_R0?AVXOleInPlaceActiveObject@COleServerDoc@@@8 5f5ae070   olesvr1.obj
 0003:000010a8       ??_R0?AUIOleInPlaceActiveObject@@@8 5f5ae0a8   olesvr1.obj
 0003:000010e0       ??_R0?AVCOleServerItem@@@8 5f5ae0e0   olesvr2.obj
 0003:00001100       ??_R0?AVCItemDataSource@COleServerItem@@@8 5f5ae100   olesvr2.obj
 0003:00001130       ??_R0?AVXOleObject@COleServerItem@@@8 5f5ae130   olesvr2.obj
 0003:00001158       ??_R0?AVXDataObject@COleServerItem@@@8 5f5ae158   olesvr2.obj
 0003:000011a8       ??_R0?AVCOleTemplateServer@@@8 5f5ae1a8   oletsvr.obj
 0003:00001210       ??_R0?AVCInnerUnknown@@@8  5f5ae210   oleunk.obj
 0003:00001230       ??_R0?AVCOleException@@@8  5f5ae230   oleunk.obj
 0003:00001260       ??_R0?AVCEnumOleVerb@@@8   5f5ae260   oleverb.obj
 0003:000012e8       ?lMaxSize@CRichEditView@@2KA 5f5ae2e8   viewrich.obj
 0003:000012f0       ?classCRichEditCntrItem@CRichEditCntrItem@@2UCRuntimeClass@@A 5f5ae2f0   viewrich.obj
 0003:00001308       ??_R0?AVCView@@@8          5f5ae308   viewrich.obj
 0003:00001320       ??_R0?AVCCtrlView@@@8      5f5ae320   viewrich.obj
 0003:00001338       ??_R0?AVCRichEditView@@@8  5f5ae338   viewrich.obj
 0003:00001358       ??_R0?AUIRichEditOleCallback@@@8 5f5ae358   viewrich.obj
 0003:00001380       ??_R0?AVXRichEditOleCallback@CRichEditView@@@8 5f5ae380   viewrich.obj
 0003:000013b8       ??_R0PAVCFileException@@@8 5f5ae3b8   viewrich.obj
 0003:000013d8       ??_R0?AV_AFX_EDIT_STATE@@@8 5f5ae3d8   viewrich.obj
 0003:000013f8       ??_R0?AV_AFX_RICHEDIT_STATE@@@8 5f5ae3f8   viewrich.obj
 0003:00001420       ??_R0?AVCRichEditDoc@@@8   5f5ae420   viewrich.obj
 0003:00001440       ??_R0?AVCRichEditCntrItem@@@8 5f5ae440   viewrich.obj
 0003:00001490       ??_R0?AV_AfxBindHost@@@8   5f5ae490   olemon.obj
 0003:000014b0       ??_R0?AUIBindHost@@@8      5f5ae4b0   olemon.obj
 0003:000014d8       ??_R0?AVCOccManager@@@8    5f5ae4d8   occmgr.obj
 0003:00001514       ?_dispatchEntryCount@COleControlContainer@@0IA 5f5ae514   occcont.obj
 0003:00001518       ?_dwStockPropMask@COleControlContainer@@0KA 5f5ae518   occcont.obj
 0003:00001520       ??_R0?AVCOleControlContainer@@@8 5f5ae520   occcont.obj
 0003:00001548       ??_R0?AVXOleIPFrame@COleControlContainer@@@8 5f5ae548   occcont.obj
 0003:00001578       ??_R0?AVXOleContainer@COleControlContainer@@@8 5f5ae578   occcont.obj
 0003:000015b0       ??_R0?AVCEnumUnknown@@@8   5f5ae5b0   occcont.obj
 0003:000015e0       ??_R0?AVCOleControlSite@@@8 5f5ae5e0   occsite.obj
 0003:00001600       ??_R0?AVXOleClientSite@COleControlSite@@@8 5f5ae600   occsite.obj
 0003:00001630       ??_R0?AVXOleIPSite@COleControlSite@@@8 5f5ae630   occsite.obj
 0003:00001660       ??_R0?AUIOleControlSite@@@8 5f5ae660   occsite.obj
 0003:00001680       ??_R0?AVXOleControlSite@COleControlSite@@@8 5f5ae680   occsite.obj
 0003:000016b0       ??_R0?AVXAmbientProps@COleControlSite@@@8 5f5ae6b0   occsite.obj
 0003:000016e0       ??_R0?AUIPropertyNotifySink@@@8 5f5ae6e0   occsite.obj
 0003:00001708       ??_R0?AVXPropertyNotifySink@COleControlSite@@@8 5f5ae708   occsite.obj
 0003:00001740       ??_R0?AVXEventSink@COleControlSite@@@8 5f5ae740   occsite.obj
 0003:00001770       ??_R0?AVXBoundObjectSite@COleControlSite@@@8 5f5ae770   occsite.obj
 0003:000017a0       ??_R0?AUIBoundObjectSite@@@8 5f5ae7a0   occsite.obj
 0003:000017c0       ??_R0?AUINotifyDBEvents@@@8 5f5ae7c0   occsite.obj
 0003:000017e0       ??_R0?AVXNotifyDBEvents@COleControlSite@@@8 5f5ae7e0   occsite.obj
 0003:00001810       ??_R0?AVCDataSourceControl@@@8 5f5ae810   occsite.obj
 0003:00001848       ??_R0?AVCOleControlLock@@@8 5f5ae848   occlock.obj
 0003:000018b8       ??_R0?AVCDocObjectServer@@@8 5f5ae8b8   oledocob.obj
 0003:000018d8       ??_R0?AVXOleObject@CDocObjectServer@@@8 5f5ae8d8   oledocob.obj
 0003:00001908       ??_R0?AVXOleDocument@CDocObjectServer@@@8 5f5ae908   oledocob.obj
 0003:00001938       ??_R0?AUIOleDocument@@@8   5f5ae938   oledocob.obj
 0003:00001958       ??_R0?AVXOleDocumentView@CDocObjectServer@@@8 5f5ae958   oledocob.obj
 0003:00001988       ??_R0?AUIOleDocumentView@@@8 5f5ae988   oledocob.obj
 0003:000019a8       ??_R0?AUIOleCommandTarget@@@8 5f5ae9a8   oledocob.obj
 0003:000019c8       ??_R0?AVXOleCommandTarget@CDocObjectServer@@@8 5f5ae9c8   oledocob.obj
 0003:00001a00       ??_R0?AUIPrint@@@8         5f5aea00   oledocob.obj
 0003:00001a18       ??_R0?AVXPrint@CDocObjectServer@@@8 5f5aea18   oledocob.obj
 0003:00001a40       ??_R0?AVCDocObjectServerItem@@@8 5f5aea40   oledocob.obj
 0003:00001a78       ??_R0?AVCCmdUI@@@8         5f5aea78   oledoctg.obj
 0003:00001a90       ??_R0?AVCOleCmdUI@@@8      5f5aea90   oledoctg.obj
 0003:00001ab8       ??_R0?AVCOleDocIPFrameWnd@@@8 5f5aeab8   oledocip.obj
 0003:00001ae8       ??_R0?AVCAsyncMonikerFile@@@8 5f5aeae8   oleasmon.obj
 0003:00001b08       ??_R0?AV_AfxBindStatusCallback@@@8 5f5aeb08   oleasmon.obj
 0003:00001b30       ??_R0?AUIBindStatusCallback@@@8 5f5aeb30   oleasmon.obj
 0003:00001b68       ??_R0?AVCControlBar@@@8    5f5aeb68   olebar.obj
 0003:00001b88       ??_R0?AVCOleResizeBar@@@8  5f5aeb88   olebar.obj
 0003:00001bc8       ??_R0?AVCOleControl@@@8    5f5aebc8   ctlcore.obj
 0003:00001be8       ??_R0?AVXPersistStorage@COleControl@@@8 5f5aebe8   ctlcore.obj
 0003:00001c18       ??_R0?AVXPersistStreamInit@COleControl@@@8 5f5aec18   ctlcore.obj
 0003:00001c48       ??_R0?AUIPersistStreamInit@@@8 5f5aec48   ctlcore.obj
 0003:00001c70       ??_R0?AVXPersistMemory@COleControl@@@8 5f5aec70   ctlcore.obj
 0003:00001ca0       ??_R0?AUIPersistMemory@@@8 5f5aeca0   ctlcore.obj
 0003:00001cc0       ??_R0?AVXPersistPropertyBag@COleControl@@@8 5f5aecc0   ctlcore.obj
 0003:00001cf0       ??_R0?AUIPersistPropertyBag@@@8 5f5aecf0   ctlcore.obj
 0003:00001d18       ??_R0?AVXOleObject@COleControl@@@8 5f5aed18   ctlcore.obj
 0003:00001d40       ??_R0?AUIViewObjectEx@@@8  5f5aed40   ctlcore.obj
 0003:00001d60       ??_R0?AVXViewObject@COleControl@@@8 5f5aed60   ctlcore.obj
 0003:00001d88       ??_R0?AUIViewObject2@@@8   5f5aed88   ctlcore.obj
 0003:00001da8       ??_R0?AUIViewObject@@@8    5f5aeda8   ctlcore.obj
 0003:00001dc8       ??_R0?AVXDataObject@COleControl@@@8 5f5aedc8   ctlcore.obj
 0003:00001df0       ??_R0?AVXOleInPlaceObject@COleControl@@@8 5f5aedf0   ctlcore.obj
 0003:00001e20       ??_R0?AUIOleInPlaceObjectWindowless@@@8 5f5aee20   ctlcore.obj
 0003:00001e50       ??_R0?AVXOleInPlaceActiveObject@COleControl@@@8 5f5aee50   ctlcore.obj
 0003:00001e88       ??_R0?AVXOleCache@COleControl@@@8 5f5aee88   ctlcore.obj
 0003:00001eb0       ??_R0?AUIOleCache@@@8      5f5aeeb0   ctlcore.obj
 0003:00001ec8       ??_R0?AUIOleControl@@@8    5f5aeec8   ctlcore.obj
 0003:00001ee8       ??_R0?AVXOleControl@COleControl@@@8 5f5aeee8   ctlcore.obj
 0003:00001f10       ??_R0?AUIProvideClassInfo@@@8 5f5aef10   ctlcore.obj
 0003:00001f30       ??_R0?AUIProvideClassInfo2@@@8 5f5aef30   ctlcore.obj
 0003:00001f58       ??_R0?AVXProvideClassInfo@COleControl@@@8 5f5aef58   ctlcore.obj
 0003:00001f88       ??_R0?AVXSpecifyPropertyPages@COleControl@@@8 5f5aef88   ctlcore.obj
 0003:00001fb8       ??_R0?AUISpecifyPropertyPages@@@8 5f5aefb8   ctlcore.obj
 0003:00001fe0       ??_R0?AUIPerPropertyBrowsing@@@8 5f5aefe0   ctlcore.obj
 0003:00002008       ??_R0?AVXPerPropertyBrowsing@COleControl@@@8 5f5af008   ctlcore.obj
 0003:00002038       ??_R0?AVXFontNotification@COleControl@@@8 5f5af038   ctlcore.obj
 0003:00002068       ??_R0?AVXQuickActivate@COleControl@@@8 5f5af068   ctlcore.obj
 0003:00002098       ??_R0?AUIQuickActivate@@@8 5f5af098   ctlcore.obj
 0003:000020b8       ??_R0?AVXPointerInactive@COleControl@@@8 5f5af0b8   ctlcore.obj
 0003:000020e8       ??_R0?AUIPointerInactive@@@8 5f5af0e8   ctlcore.obj
 0003:00002108       ??_R0?AVCConnectionPoint@@@8 5f5af108   ctlcore.obj
 0003:00002128       ??_R0?AVXEventConnPt@COleControl@@@8 5f5af128   ctlcore.obj
 0003:00002150       ??_R0?AVXPropConnPt@COleControl@@@8 5f5af150   ctlcore.obj
 0003:00002178       ??_R0?AVCReflectorWnd@@@8  5f5af178   ctlcore.obj
 0003:00002198       ??_R0?AVCParkingWnd@@@8    5f5af198   ctlcore.obj
 0003:000021e0       ??_R0?AVCControlDataSource@COleControl@@@8 5f5af1e0   ctldata.obj
 0003:00002240       ??_R0?AVCControlFrameWnd@@@8 5f5af240   ctlframe.obj
 0003:000022a0       ??_R0?AUIConnectionPoint@@@8 5f5af2a0   oleconn.obj
 0003:000022c0       ??_R0?AVXConnPt@CConnectionPoint@@@8 5f5af2c0   oleconn.obj
 0003:000022e8       ??_R0?AVCEnumConnPoints@@@8 5f5af2e8   oleconn.obj
 0003:00002308       ??_R0?AUIConnectionPointContainer@@@8 5f5af308   oleconn.obj
 0003:00002330       ??_R0?AVCOleConnPtContainer@@@8 5f5af330   oleconn.obj
 0003:00002388       ??_R0?AVCPropExchange@@@8  5f5af388   ctlpropx.obj
 0003:000023a8       ??_R0?AVCArchivePropExchange@@@8 5f5af3a8   ctlpropx.obj
 0003:000023d0       ??_R0?AVCResetPropExchange@@@8 5f5af3d0   ctlpropx.obj
 0003:000023f8       ??_R0?AVCAsyncPropExchange@@@8 5f5af3f8   ctlpropx.obj
 0003:00002430       ??_R0?AUAFX_DDPDATA@@@8    5f5af430   ctlppg.obj
 0003:00002450       ??_R0?AVCOlePropertyPage@@@8 5f5af450   ctlppg.obj
 0003:00002470       ??_R0?AVXPropertyPage@COlePropertyPage@@@8 5f5af470   ctlppg.obj
 0003:000024a0       ??_R0?AUIPropertyPage2@@@8 5f5af4a0   ctlppg.obj
 0003:000024c0       ??_R0?AUIPropertyPage@@@8  5f5af4c0   ctlppg.obj
 0003:000024e0       ??_R0?AVXPropNotifySink@COlePropertyPage@@@8 5f5af4e0   ctlppg.obj
 0003:00002538       ??_R0?AVCPropsetPropExchange@@@8 5f5af538   ctlpset.obj
 0003:00002610       ??_R0?AVCBlobProperty@@@8  5f5af610   ctlpbag.obj
 0003:00002630       ??_R0?AUIPersistStream@@@8 5f5af630   ctlpbag.obj
 0003:00002650       ??_R0?AVCPropbagPropExchange@@@8 5f5af650   ctlpbag.obj
 0003:00002674       ?_hOlePropLib@@3RAUHINSTANCE__@@A 5f5af674   olepro32.obj
 0003:00002678       ?_pfnOleCreatePropertyFrame@@3P6GJPAUHWND__@@IIPBGKPAPAUIUnknown@@KPAU_GUID@@KKPAX@ZA 5f5af678   olepro32.obj
 0003:0000267c       ?_pfnOleCreatePropertyFrameIndirect@@3P6GJPAUtagOCPFIPARAMS@@@ZA 5f5af67c   olepro32.obj
 0003:00002680       ?_pfnOleTranslateColor@@3P6GJKPAUHPALETTE__@@PAK@ZA 5f5af680   olepro32.obj
 0003:00002684       ?_pfnOleCreateFontIndirect@@3P6GJPAUtagFONTDESC@@ABU_GUID@@PAPAX@ZA 5f5af684   olepro32.obj
 0003:00002688       ?_pfnOleCreatePictureIndirect@@3P6GJPAUtagPICTDESC@@ABU_GUID@@HPAPAX@ZA 5f5af688   olepro32.obj
 0003:0000268c       ?_pfnOleLoadPicture@@3P6GJPAUIStream@@JHABU_GUID@@PAPAX@ZA 5f5af68c   olepro32.obj
 0003:000026a0       ??_R0?AV_AFXCTL_AMBIENT_CACHE@@@8 5f5af6a0   ctlquick.obj
 0003:000026d8       ??_R0?AVCDC@@@8            5f5af6d8   ctlnownd.obj
 0003:000026f0       ??_R0?AVCWindowlessDC@@@8  5f5af6f0   ctlnownd.obj
 0003:00002720       ?idClicked@CColorButton@@2IA 5f5af720   ppgcolor.obj
 0003:00002728       ??_R0?AVCButton@@@8        5f5af728   ppgcolor.obj
 0003:00002740       ??_R0?AVCColorButton@@@8   5f5af740   ppgcolor.obj
 0003:00002760       ??_R0?AVCStockPropPage@@@8 5f5af760   ppgcolor.obj
 0003:00002780       ??_R0?AVCColorPropPage@@@8 5f5af780   ppgcolor.obj
 0003:000027a0       ??_R0?AVCColorPropPageFactory@CColorPropPage@@@8 5f5af7a0   ppgcolor.obj
 0003:00002828       ??_R0?AVCFontPropPage@@@8  5f5af828   ppgfont.obj
 0003:00002848       ??_R0?AVCComboBox@@@8      5f5af848   ppgfont.obj
 0003:00002860       ??_R0?AVCSizeComboBox@@@8  5f5af860   ppgfont.obj
 0003:00002880       ??_R0?AVCFontComboBox@@@8  5f5af880   ppgfont.obj
 0003:000028a0       ??_R0PAVCMemoryException@@@8 5f5af8a0   ppgfont.obj
 0003:000028c0       ??_R0?AVCFontPropPageFactory@CFontPropPage@@@8 5f5af8c0   ppgfont.obj
 0003:00002920       ??_R0?AVCPicturePropPage@@@8 5f5af920   ppgpict.obj
 0003:00002940       ??_R0?AVCPicturePropPageFactory@CPicturePropPage@@@8 5f5af940   ppgpict.obj
 0003:00002998       ??_R0?AVCDataPathProperty@@@8 5f5af998   ctlinl.obj
 0003:000029b8       ??_R0?AVCCachedDataPathProperty@@@8 5f5af9b8   ctlinl.obj
 0003:000029e0       ___win32sflag              5f5af9e0   msvcrtd:atonexit.obj
 0003:000029e8       ??_R0?AVtype_info@@@8      5f5af9e8   msvcrtd:ti_inst.obj
 0003:00004ab0       ?_afxOleWinApp@@3VCWinApp@@A 5f5b1ab0   dllole.obj
 0003:00004b78       ?_afxInitOleDllState@@3V_AFX_INIT_OLE_DLL_STATE@@A 5f5b1b78   dllole.obj
 0003:00004b80       ?_oleData@@3UOLE_DATA@@A   5f5b1b80   oleinit.obj
 0003:00004bc8       ?_afxOleState@@3V?$CProcessLocal@V_AFX_OLE_STATE@@@@A 5f5b1bc8   oledata.obj
 0003:00004bd0       ?nDragMinDist@COleDropSource@@1IA 5f5b1bd0   oledrop1.obj
 0003:00004bd4       ?nDragDelay@COleDropSource@@1IA 5f5b1bd4   oledrop1.obj
 0003:00004bdc       ?nScrollInterval@COleDropTarget@@1IA 5f5b1bdc   oledrop2.obj
 0003:00004be0       ?nScrollInset@COleDropTarget@@1HA 5f5b1be0   oledrop2.obj
 0003:00004be4       ?nScrollDelay@COleDropTarget@@1IA 5f5b1be4   oledrop2.obj
 0003:00004d98       ?_afxOccManager@@3V?$CProcessLocal@VCOccManager@@@@A 5f5b1d98   occmgr.obj
 0003:00004df0       ?_afxAmbientCache@@3V?$CThreadLocal@V_AFXCTL_AMBIENT_CACHE@@@@A 5f5b1df0   ctlquick.obj
 0003:00004dfc       ?hPal@@3PAUHPALETTE__@@A   5f5b1dfc   ppgcolor.obj
 0003:00004e00       ?factory@CColorPropPage@@1VCColorPropPageFactory@1@A 5f5b1e00   ppgcolor.obj
 0003:00004e58       ?factory@CFontPropPage@@1VCFontPropPageFactory@1@A 5f5b1e58   ppgfont.obj
 0003:00004eb0       ?factory@CPicturePropPage@@1VCPicturePropPageFactory@1@A 5f5b1eb0   ppgpict.obj
 0003:00004efc       __adjust_fdiv              5f5b1efc   <common>
 0003:00004f00       ___onexitend               5f5b1f00   <common>
 0003:00004f04       ___onexitbegin             5f5b1f04   <common>
 0004:00000000       __IMPORT_DESCRIPTOR_MFC42uD 5f5b2000   MFC42UD:MFC42uD.DLL
 0004:00000014       __IMPORT_DESCRIPTOR_MSVCRTD 5f5b2014   msvcrtd:MSVCRTD.dll
 0004:00000028       __IMPORT_DESCRIPTOR_KERNEL32 5f5b2028   kernel32:KERNEL32.dll
 0004:0000003c       __IMPORT_DESCRIPTOR_GDI32  5f5b203c   gdi32:GDI32.dll
 0004:00000050       __IMPORT_DESCRIPTOR_USER32 5f5b2050   user32:USER32.dll
 0004:00000064       __NULL_IMPORT_DESCRIPTOR   5f5b2064   MFC42UD:MFC42uD.DLL
 0004:00001138       __imp__SetMapMode@8        5f5b3138   gdi32:GDI32.dll
 0004:0000113c       __imp__CopyMetaFileW@8     5f5b313c   gdi32:GDI32.dll
 0004:00001140       __imp__CreateDCW@16        5f5b3140   gdi32:GDI32.dll
 0004:00001144       __imp__GetDeviceCaps@8     5f5b3144   gdi32:GDI32.dll
 0004:00001148       __imp__DeleteMetaFile@4    5f5b3148   gdi32:GDI32.dll
 0004:0000114c       __imp__DeleteDC@4          5f5b314c   gdi32:GDI32.dll
 0004:00001150       __imp__ScaleWindowExtEx@24 5f5b3150   gdi32:GDI32.dll
 0004:00001154       __imp__DPtoLP@12           5f5b3154   gdi32:GDI32.dll
 0004:00001158       __imp__LPtoDP@12           5f5b3158   gdi32:GDI32.dll
 0004:0000115c       __imp__GetClipBox@8        5f5b315c   gdi32:GDI32.dll
 0004:00001160       __imp__DeleteObject@4      5f5b3160   gdi32:GDI32.dll
 0004:00001164       __imp__SelectClipRgn@8     5f5b3164   gdi32:GDI32.dll
 0004:00001168       __imp__CreateRectRgn@16    5f5b3168   gdi32:GDI32.dll
 0004:0000116c       __imp__SelectObject@8      5f5b316c   gdi32:GDI32.dll
 0004:00001170       __imp__GetPaletteEntries@16 5f5b3170   gdi32:GDI32.dll
 0004:00001174       __imp__CreatePalette@4     5f5b3174   gdi32:GDI32.dll
 0004:00001178       __imp__EnumFontFamiliesW@16 5f5b3178   gdi32:GDI32.dll
 0004:0000117c       \177GDI32_NULL_THUNK_DATA  5f5b317c   gdi32:GDI32.dll
 0004:00001180       __imp__InterlockedDecrement@4 5f5b3180   kernel32:KERNEL32.dll
 0004:00001184       __imp__GlobalUnlock@4      5f5b3184   kernel32:KERNEL32.dll
 0004:00001188       __imp__GlobalFree@4        5f5b3188   kernel32:KERNEL32.dll
 0004:0000118c       __imp__GlobalLock@4        5f5b318c   kernel32:KERNEL32.dll
 0004:00001190       __imp__GetTickCount@0      5f5b3190   kernel32:KERNEL32.dll
 0004:00001194       __imp__LoadLibraryA@4      5f5b3194   kernel32:KERNEL32.dll
 0004:00001198       __imp__lstrlenW@4          5f5b3198   kernel32:KERNEL32.dll
 0004:0000119c       __imp__LocalFree@4         5f5b319c   kernel32:KERNEL32.dll
 0004:000011a0       __imp__GetModuleHandleA@4  5f5b31a0   kernel32:KERNEL32.dll
 0004:000011a4       __imp__LocalAlloc@8        5f5b31a4   kernel32:KERNEL32.dll
 0004:000011a8       __imp__MultiByteToWideChar@24 5f5b31a8   kernel32:KERNEL32.dll
 0004:000011ac       __imp__WideCharToMultiByte@32 5f5b31ac   kernel32:KERNEL32.dll
 0004:000011b0       __imp__FreeLibrary@4       5f5b31b0   kernel32:KERNEL32.dll
 0004:000011b4       __imp__lstrlenA@4          5f5b31b4   kernel32:KERNEL32.dll
 0004:000011b8       __imp__lstrcpynW@12        5f5b31b8   kernel32:KERNEL32.dll
 0004:000011bc       __imp__lstrcmpiW@8         5f5b31bc   kernel32:KERNEL32.dll
 0004:000011c0       __imp__GetCurrentThreadId@0 5f5b31c0   kernel32:KERNEL32.dll
 0004:000011c4       __imp__lstrcmpW@8          5f5b31c4   kernel32:KERNEL32.dll
 0004:000011c8       __imp__GetProfileIntW@12   5f5b31c8   kernel32:KERNEL32.dll
 0004:000011cc       __imp__GlobalSize@4        5f5b31cc   kernel32:KERNEL32.dll
 0004:000011d0       __imp__MulDiv@12           5f5b31d0   kernel32:KERNEL32.dll
 0004:000011d4       __imp__FormatMessageW@28   5f5b31d4   kernel32:KERNEL32.dll
 0004:000011d8       __imp__GetLastError@0      5f5b31d8   kernel32:KERNEL32.dll
 0004:000011dc       __imp__FileTimeToLocalFileTime@8 5f5b31dc   kernel32:KERNEL32.dll
 0004:000011e0       __imp__FileTimeToSystemTime@8 5f5b31e0   kernel32:KERNEL32.dll
 0004:000011e4       __imp__lstrcpyW@8          5f5b31e4   kernel32:KERNEL32.dll
 0004:000011e8       __imp__FreeResource@4      5f5b31e8   kernel32:KERNEL32.dll
 0004:000011ec       __imp__GetModuleFileNameW@12 5f5b31ec   kernel32:KERNEL32.dll
 0004:000011f0       __imp__LoadResource@8      5f5b31f0   kernel32:KERNEL32.dll
 0004:000011f4       __imp__FindResourceW@12    5f5b31f4   kernel32:KERNEL32.dll
 0004:000011f8       __imp__LockResource@4      5f5b31f8   kernel32:KERNEL32.dll
 0004:000011fc       __imp__GetUserDefaultLCID@0 5f5b31fc   kernel32:KERNEL32.dll
 0004:00001200       __imp__IsDBCSLeadByte@4    5f5b3200   kernel32:KERNEL32.dll
 0004:00001204       __imp__GetThreadLocale@0   5f5b3204   kernel32:KERNEL32.dll
 0004:00001208       __imp__GetVersion@0        5f5b3208   kernel32:KERNEL32.dll
 0004:0000120c       __imp__lstrcpyA@8          5f5b320c   kernel32:KERNEL32.dll
 0004:00001210       __imp__lstrcatW@8          5f5b3210   kernel32:KERNEL32.dll
 0004:00001214       __imp__Sleep@4             5f5b3214   kernel32:KERNEL32.dll
 0004:00001218       __imp__GetProcAddress@8    5f5b3218   kernel32:KERNEL32.dll
 0004:0000121c       __imp__InterlockedIncrement@4 5f5b321c   kernel32:KERNEL32.dll
 0004:00001220       __imp__GlobalAlloc@8       5f5b3220   kernel32:KERNEL32.dll
 0004:00001224       \177KERNEL32_NULL_THUNK_DATA 5f5b3224   kernel32:KERNEL32.dll
 0004:00001228       __imp_?Open@CFile@@UAEHPBGIPAVCFileException@@@Z 5f5b3228   MFC42UD:MFC42uD.DLL
 0004:0000122c       __imp_?Read@CArchive@@QAEIPAXI@Z 5f5b322c   MFC42UD:MFC42uD.DLL
 0004:00001230       __imp_?AfxThrowMemoryException@@YGXXZ 5f5b3230   MFC42UD:MFC42uD.DLL
 0004:00001234       __imp_??5CArchive@@QAEAAV0@AAK@Z 5f5b3234   MFC42UD:MFC42uD.DLL
 0004:00001238       __imp_?Write@CArchive@@QAEXPBXI@Z 5f5b3238   MFC42UD:MFC42uD.DLL
 0004:0000123c       __imp_??6CArchive@@QAEAAV0@K@Z 5f5b323c   MFC42UD:MFC42uD.DLL
 0004:00001240       __imp_??5CArchive@@QAEAAV0@AAG@Z 5f5b3240   MFC42UD:MFC42uD.DLL
 0004:00001244       __imp_??6CArchive@@QAEAAV0@G@Z 5f5b3244   MFC42UD:MFC42uD.DLL
 0004:00001248       __imp_?IsStoring@CArchive@@QBEHXZ 5f5b3248   MFC42UD:MFC42uD.DLL
 0004:0000124c       __imp_?GetClientRect@CWnd@@QBEXPAUtagRECT@@@Z 5f5b324c   MFC42UD:MFC42uD.DLL
 0004:00001250       __imp_?IsEmpty@CString@@QBEHXZ 5f5b3250   MFC42UD:MFC42uD.DLL
 0004:00001254       __imp_?GetPathName@CDocument@@QBEABVCString@@XZ 5f5b3254   MFC42UD:MFC42uD.DLL
 0004:00001258       __imp_?classCFrameWnd@CFrameWnd@@2UCRuntimeClass@@B 5f5b3258   MFC42UD:MFC42uD.DLL
 0004:0000125c       __imp_?GetParentFrame@CWnd@@QBEPAVCFrameWnd@@XZ 5f5b325c   MFC42UD:MFC42uD.DLL
 0004:00001260       __imp_?AfxGetFileTitle@@YGIPBGPAGI@Z 5f5b3260   MFC42UD:MFC42uD.DLL
 0004:00001264       __imp_?IsPrinting@CDC@@QBEHXZ 5f5b3264   MFC42UD:MFC42uD.DLL
 0004:00001268       __imp_?GetWindowExt@CDC@@QBE?AVCSize@@XZ 5f5b3268   MFC42UD:MFC42uD.DLL
 0004:0000126c       __imp_?GetWindowOrg@CDC@@QBE?AVCPoint@@XZ 5f5b326c   MFC42UD:MFC42uD.DLL
 0004:00001270       __imp_?DPtoHIMETRIC@CDC@@QBEXPAUtagSIZE@@@Z 5f5b3270   MFC42UD:MFC42uD.DLL
 0004:00001274       __imp_?AfxIsValidString@@YGHPBGH@Z 5f5b3274   MFC42UD:MFC42uD.DLL
 0004:00001278       __imp_?interfaceMap@CCmdTarget@@1UAFX_INTERFACEMAP@@B 5f5b3278   MFC42UD:MFC42uD.DLL
 0004:0000127c       __imp_??6CDumpContext@@QAEAAV0@PBX@Z 5f5b327c   MFC42UD:MFC42uD.DLL
 0004:00001280       __imp_??6CDumpContext@@QAEAAV0@PBD@Z 5f5b3280   MFC42UD:MFC42uD.DLL
 0004:00001284       __imp_??6CDumpContext@@QAEAAV0@K@Z 5f5b3284   MFC42UD:MFC42uD.DLL
 0004:00001288       __imp_??6CDumpContext@@QAEAAV0@H@Z 5f5b3288   MFC42UD:MFC42uD.DLL
 0004:0000128c       __imp_??6CDumpContext@@QAEAAV0@E@Z 5f5b328c   MFC42UD:MFC42uD.DLL
 0004:00001290       __imp_??6CDumpContext@@QAEAAV0@J@Z 5f5b3290   MFC42UD:MFC42uD.DLL
 0004:00001294       __imp_?Dump@CCmdTarget@@UBEXAAVCDumpContext@@@Z 5f5b3294   MFC42UD:MFC42uD.DLL
 0004:00001298       __imp_?AssertValid@CCmdTarget@@UBEXXZ 5f5b3298   MFC42UD:MFC42uD.DLL
 0004:0000129c       __imp_?Serialize@CObject@@UAEXAAVCArchive@@@Z 5f5b329c   MFC42UD:MFC42uD.DLL
 0004:000012a0       __imp_?GetRuntimeClass@CCmdTarget@@UBEPAUCRuntimeClass@@XZ 5f5b32a0   MFC42UD:MFC42uD.DLL
 0004:000012a4       __imp_??0CString@@QAE@XZ   5f5b32a4   MFC42UD:MFC42uD.DLL
 0004:000012a8       __imp_??0CCmdTarget@@QAE@XZ 5f5b32a8   MFC42UD:MFC42uD.DLL
 0004:000012ac       __imp_?DelayUpdateFrameTitle@CFrameWnd@@QAEXXZ 5f5b32ac   MFC42UD:MFC42uD.DLL
 0004:000012b0       __imp_?IsWindowEnabled@CWnd@@QBEHXZ 5f5b32b0   MFC42UD:MFC42uD.DLL
 0004:000012b4       __imp_?SendMessageW@CWnd@@QAEJIIJ@Z 5f5b32b4   MFC42UD:MFC42uD.DLL
 0004:000012b8       __imp_?GetSafeHwnd@CWnd@@QBEPAUHWND__@@XZ 5f5b32b8   MFC42UD:MFC42uD.DLL
 0004:000012bc       __imp_?AfxIsDescendant@@YGHPAUHWND__@@0@Z 5f5b32bc   MFC42UD:MFC42uD.DLL
 0004:000012c0       __imp_?classCDocTemplate@CDocTemplate@@2UCRuntimeClass@@B 5f5b32c0   MFC42UD:MFC42uD.DLL
 0004:000012c4       __imp_?AfxGetApp@@YGPAVCWinApp@@XZ 5f5b32c4   MFC42UD:MFC42uD.DLL
 0004:000012c8       __imp_?GetDocument@CView@@QBEPAVCDocument@@XZ 5f5b32c8   MFC42UD:MFC42uD.DLL
 0004:000012cc       __imp_?ModifyStyle@CWnd@@QAEHKKI@Z 5f5b32cc   MFC42UD:MFC42uD.DLL
 0004:000012d0       __imp_?GetStyle@CWnd@@QBEKXZ 5f5b32d0   MFC42UD:MFC42uD.DLL
 0004:000012d4       __imp_?ShowControlBar@CFrameWnd@@QAEXPAVCControlBar@@HH@Z 5f5b32d4   MFC42UD:MFC42uD.DLL
 0004:000012d8       __imp_?GetBarStyle@CControlBar@@QAEKXZ 5f5b32d8   MFC42UD:MFC42uD.DLL
 0004:000012dc       __imp_?GetNext@CPtrList@@QAEAAPAXAAPAU__POSITION@@@Z 5f5b32dc   MFC42UD:MFC42uD.DLL
 0004:000012e0       __imp_?GetHeadPosition@CPtrList@@QBEPAU__POSITION@@XZ 5f5b32e0   MFC42UD:MFC42uD.DLL
 0004:000012e4       __imp_?GetDocTemplate@CDocument@@QBEPAVCDocTemplate@@XZ 5f5b32e4   MFC42UD:MFC42uD.DLL
 0004:000012e8       __imp_?GetTopLevelFrame@CWnd@@QBEPAVCFrameWnd@@XZ 5f5b32e8   MFC42UD:MFC42uD.DLL
 0004:000012ec       __imp_?GetParentSplitter@CView@@SGPAVCSplitterWnd@@PBVCWnd@@H@Z 5f5b32ec   MFC42UD:MFC42uD.DLL
 0004:000012f0       __imp_?SetFocus@CWnd@@QAEPAV1@XZ 5f5b32f0   MFC42UD:MFC42uD.DLL
 0004:000012f4       __imp_?GetTopLevelParent@CWnd@@QBEPAV1@XZ 5f5b32f4   MFC42UD:MFC42uD.DLL
 0004:000012f8       __imp_?AfxGetMainWnd@@YGPAVCWnd@@XZ 5f5b32f8   MFC42UD:MFC42uD.DLL
 0004:000012fc       __imp_?DelayRecalcLayout@CFrameWnd@@QAEXH@Z 5f5b32fc   MFC42UD:MFC42uD.DLL
 0004:00001300       __imp_?IsRectEmpty@CRect@@QBEHXZ 5f5b3300   MFC42UD:MFC42uD.DLL
 0004:00001304       __imp_?IntersectRect@CRect@@QAEHPBUtagRECT@@0@Z 5f5b3304   MFC42UD:MFC42uD.DLL
 0004:00001308       __imp_??BCRect@@QAEPAUtagRECT@@XZ 5f5b3308   MFC42UD:MFC42uD.DLL
 0004:0000130c       __imp_??BCRect@@QBEPBUtagRECT@@XZ 5f5b330c   MFC42UD:MFC42uD.DLL
 0004:00001310       __imp_??0CRect@@QAE@XZ     5f5b3310   MFC42UD:MFC42uD.DLL
 0004:00001314       __imp_?GetSafeHmenu@CMenu@@QBEPAUHMENU__@@XZ 5f5b3314   MFC42UD:MFC42uD.DLL
 0004:00001318       __imp_?FromHandle@CWnd@@SGPAV1@PAUHWND__@@@Z 5f5b3318   MFC42UD:MFC42uD.DLL
 0004:0000131c       __imp_?PostMessageW@CWnd@@QAEHIIJ@Z 5f5b331c   MFC42UD:MFC42uD.DLL
 0004:00001320       __imp_?CanEnterHelpMode@CFrameWnd@@QAEHXZ 5f5b3320   MFC42UD:MFC42uD.DLL
 0004:00001324       __imp_??4CString@@QAEABV0@PBG@Z 5f5b3324   MFC42UD:MFC42uD.DLL
 0004:00001328       __imp_?Empty@CString@@QAEXXZ 5f5b3328   MFC42UD:MFC42uD.DLL
 0004:0000132c       __imp_?FromHandle@CMenu@@SGPAV1@PAUHMENU__@@@Z 5f5b332c   MFC42UD:MFC42uD.DLL
 0004:00001330       __imp_??0CSize@@QAE@UtagSIZE@@@Z 5f5b3330   MFC42UD:MFC42uD.DLL
 0004:00001334       __imp_?CopyRect@CRect@@QAEXPBUtagRECT@@@Z 5f5b3334   MFC42UD:MFC42uD.DLL
 0004:00001338       __imp_?GetData@CProcessLocalObject@@QAEPAVCNoTrackObject@@P6GPAV2@XZ@Z 5f5b3338   MFC42UD:MFC42uD.DLL
 0004:0000133c       __imp_??3CNoTrackObject@@SGXPAX@Z 5f5b333c   MFC42UD:MFC42uD.DLL
 0004:00001340       __imp_??2CNoTrackObject@@SGPAXI@Z 5f5b3340   MFC42UD:MFC42uD.DLL
 0004:00001344       __imp_?SetRectEmpty@CRect@@QAEXXZ 5f5b3344   MFC42UD:MFC42uD.DLL
 0004:00001348       __imp_?SetRect@CRect@@QAEXHHHH@Z 5f5b3348   MFC42UD:MFC42uD.DLL
 0004:0000134c       __imp_??0CSize@@QAE@HH@Z   5f5b334c   MFC42UD:MFC42uD.DLL
 0004:00001350       __imp_?GetBufferSetLength@CString@@QAEPAGH@Z 5f5b3350   MFC42UD:MFC42uD.DLL
 0004:00001354       __imp_?SetHandle@CSharedFile@@QAEXPAXH@Z 5f5b3354   MFC42UD:MFC42uD.DLL
 0004:00001358       __imp_??0CSharedFile@@QAE@II@Z 5f5b3358   MFC42UD:MFC42uD.DLL
 0004:0000135c       __imp_??0CFile@@QAE@XZ     5f5b335c   MFC42UD:MFC42uD.DLL
 0004:00001360       __imp_??2@YAPAXIPBDH@Z     5f5b3360   MFC42UD:MFC42uD.DLL
 0004:00001364       __imp_??1CSharedFile@@UAE@XZ 5f5b3364   MFC42UD:MFC42uD.DLL
 0004:00001368       __imp_?Detach@CSharedFile@@QAEPAXXZ 5f5b3368   MFC42UD:MFC42uD.DLL
 0004:0000136c       __imp_??6CDumpContext@@QAEAAV0@I@Z 5f5b336c   MFC42UD:MFC42uD.DLL
 0004:00001370       __imp_??6CDumpContext@@QAEAAV0@G@Z 5f5b3370   MFC42UD:MFC42uD.DLL
 0004:00001374       __imp_?GetData@CString@@IBEPAUCStringData@@XZ 5f5b3374   MFC42UD:MFC42uD.DLL
 0004:00001378       __imp_?ReportError@CException@@UAEHII@Z 5f5b3378   MFC42UD:MFC42uD.DLL
 0004:0000137c       __imp_?Dump@CObject@@UBEXAAVCDumpContext@@@Z 5f5b337c   MFC42UD:MFC42uD.DLL
 0004:00001380       __imp_?AssertValid@CObject@@UBEXXZ 5f5b3380   MFC42UD:MFC42uD.DLL
 0004:00001384       __imp_??1CException@@UAE@XZ 5f5b3384   MFC42UD:MFC42uD.DLL
 0004:00001388       __imp_??3CException@@SGXPAX@Z 5f5b3388   MFC42UD:MFC42uD.DLL
 0004:0000138c       __imp_?AfxLoadString@@YGHIPAGI@Z 5f5b338c   MFC42UD:MFC42uD.DLL
 0004:00001390       __imp_?classCMemoryException@CMemoryException@@2UCRuntimeClass@@B 5f5b3390   MFC42UD:MFC42uD.DLL
 0004:00001394       __imp_??0CException@@QAE@XZ 5f5b3394   MFC42UD:MFC42uD.DLL
 0004:00001398       __imp_?PreInitDialog@CDialog@@MAEXXZ 5f5b3398   MFC42UD:MFC42uD.DLL
 0004:0000139c       __imp_?OnCancel@CCommonDialog@@MAEXXZ 5f5b339c   MFC42UD:MFC42uD.DLL
 0004:000013a0       __imp_?OnOK@CCommonDialog@@MAEXXZ 5f5b33a0   MFC42UD:MFC42uD.DLL
 0004:000013a4       __imp_?OnSetFont@CDialog@@UAEXPAVCFont@@@Z 5f5b33a4   MFC42UD:MFC42uD.DLL
 0004:000013a8       __imp_?OnInitDialog@CDialog@@UAEHXZ 5f5b33a8   MFC42UD:MFC42uD.DLL
 0004:000013ac       __imp_?SetOccDialogInfo@CDialog@@MAEHPAU_AFX_OCC_DIALOG_INFO@@@Z 5f5b33ac   MFC42UD:MFC42uD.DLL
 0004:000013b0       __imp_?IsFrameWnd@CWnd@@UBEHXZ 5f5b33b0   MFC42UD:MFC42uD.DLL
 0004:000013b4       __imp_?CheckAutoCenter@CDialog@@UAEHXZ 5f5b33b4   MFC42UD:MFC42uD.DLL
 0004:000013b8       __imp_?OnChildNotify@CWnd@@MAEHIIJPAJ@Z 5f5b33b8   MFC42UD:MFC42uD.DLL
 0004:000013bc       __imp_?PostNcDestroy@CWnd@@MAEXXZ 5f5b33bc   MFC42UD:MFC42uD.DLL
 0004:000013c0       __imp_?DefWindowProcW@CWnd@@MAEJIIJ@Z 5f5b33c0   MFC42UD:MFC42uD.DLL
 0004:000013c4       __imp_?OnWndMsg@CWnd@@MAEHIIJPAJ@Z 5f5b33c4   MFC42UD:MFC42uD.DLL
 0004:000013c8       __imp_?WindowProc@CWnd@@MAEJIIJ@Z 5f5b33c8   MFC42UD:MFC42uD.DLL
 0004:000013cc       __imp_?OnAmbientProperty@CWnd@@UAEHPAVCOleControlSite@@JPAUtagVARIANT@@@Z 5f5b33cc   MFC42UD:MFC42uD.DLL
 0004:000013d0       __imp_?PreTranslateMessage@CDialog@@UAEHPAUtagMSG@@@Z 5f5b33d0   MFC42UD:MFC42uD.DLL
 0004:000013d4       __imp_?EndModalState@CWnd@@UAEXXZ 5f5b33d4   MFC42UD:MFC42uD.DLL
 0004:000013d8       __imp_?BeginModalState@CWnd@@UAEXXZ 5f5b33d8   MFC42UD:MFC42uD.DLL
 0004:000013dc       __imp_?DoDataExchange@CWnd@@MAEXPAVCDataExchange@@@Z 5f5b33dc   MFC42UD:MFC42uD.DLL
 0004:000013e0       __imp_?GetSuperWndProcAddr@CWnd@@MAEPAP6GJPAUHWND__@@IIJ@ZXZ 5f5b33e0   MFC42UD:MFC42uD.DLL
 0004:000013e4       __imp_?OnNotify@CWnd@@MAEHIJPAJ@Z 5f5b33e4   MFC42UD:MFC42uD.DLL
 0004:000013e8       __imp_?OnCommand@CWnd@@MAEHIJ@Z 5f5b33e8   MFC42UD:MFC42uD.DLL
 0004:000013ec       __imp_?EndModalLoop@CWnd@@UAEXH@Z 5f5b33ec   MFC42UD:MFC42uD.DLL
 0004:000013f0       __imp_?ContinueModal@CWnd@@UAEHXZ 5f5b33f0   MFC42UD:MFC42uD.DLL
 0004:000013f4       __imp_?WinHelpW@CWnd@@UAEXKI@Z 5f5b33f4   MFC42UD:MFC42uD.DLL
 0004:000013f8       __imp_?GetScrollBarCtrl@CWnd@@UBEPAVCScrollBar@@H@Z 5f5b33f8   MFC42UD:MFC42uD.DLL
 0004:000013fc       __imp_?OnToolHitTest@CWnd@@UBEHVCPoint@@PAUtagTOOLINFOW@@@Z 5f5b33fc   MFC42UD:MFC42uD.DLL
 0004:00001400       __imp_?CalcWindowRect@CWnd@@UAEXPAUtagRECT@@I@Z 5f5b3400   MFC42UD:MFC42uD.DLL
 0004:00001404       __imp_?PreCreateWindow@CWnd@@UAEHAAUtagCREATESTRUCTW@@@Z 5f5b3404   MFC42UD:MFC42uD.DLL
 0004:00001408       __imp_?DestroyWindow@CWnd@@UAEHXZ 5f5b3408   MFC42UD:MFC42uD.DLL
 0004:0000140c       __imp_?Create@CWnd@@UAEHPBG0KABUtagRECT@@PAV1@IPAUCCreateContext@@@Z 5f5b340c   MFC42UD:MFC42uD.DLL
 0004:00001410       __imp_?PreSubclassWindow@CWnd@@UAEXXZ 5f5b3410   MFC42UD:MFC42uD.DLL
 0004:00001414       __imp_?GetInterfaceMap@CCmdTarget@@MBEPBUAFX_INTERFACEMAP@@XZ 5f5b3414   MFC42UD:MFC42uD.DLL
 0004:00001418       __imp_?GetMessageMap@CCommonDialog@@MBEPBUAFX_MSGMAP@@XZ 5f5b3418   MFC42UD:MFC42uD.DLL
 0004:0000141c       __imp_?OnFinalRelease@CWnd@@UAEXXZ 5f5b341c   MFC42UD:MFC42uD.DLL
 0004:00001420       __imp_?OnCmdMsg@CDialog@@UAEHIHPAXPAUAFX_CMDHANDLERINFO@@@Z 5f5b3420   MFC42UD:MFC42uD.DLL
 0004:00001424       __imp_?AssertValid@CDialog@@UBEXXZ 5f5b3424   MFC42UD:MFC42uD.DLL
 0004:00001428       __imp_?AfxHelpEnabled@@YGHXZ 5f5b3428   MFC42UD:MFC42uD.DLL
 0004:0000142c       __imp_?afxData@@3UAUX_DATA@@A 5f5b342c   MFC42UD:MFC42uD.DLL
 0004:00001430       __imp_??1CDialog@@UAE@XZ   5f5b3430   MFC42UD:MFC42uD.DLL
 0004:00001434       __imp_?PostModal@CDialog@@IAEXXZ 5f5b3434   MFC42UD:MFC42uD.DLL
 0004:00001438       __imp_?PreModal@CDialog@@IAEPAUHWND__@@XZ 5f5b3438   MFC42UD:MFC42uD.DLL
 0004:0000143c       __imp_??6CDumpContext@@QAEAAV0@PBG@Z 5f5b343c   MFC42UD:MFC42uD.DLL
 0004:00001440       __imp_??1CWaitCursor@@QAE@XZ 5f5b3440   MFC42UD:MFC42uD.DLL
 0004:00001444       __imp_?AfxMessageBox@@YGHIII@Z 5f5b3444   MFC42UD:MFC42uD.DLL
 0004:00001448       __imp_??0CWaitCursor@@QAE@XZ 5f5b3448   MFC42UD:MFC42uD.DLL
 0004:0000144c       __imp_?LoadStringW@CString@@QAEHI@Z 5f5b344c   MFC42UD:MFC42uD.DLL
 0004:00001450       __imp_??6@YGAAVCDumpContext@@AAV0@ABVCString@@@Z 5f5b3450   MFC42UD:MFC42uD.DLL
 0004:00001454       __imp_?AfxThrowResourceException@@YGXXZ 5f5b3454   MFC42UD:MFC42uD.DLL
 0004:00001458       __imp_??0CString@@QAE@PBG@Z 5f5b3458   MFC42UD:MFC42uD.DLL
 0004:0000145c       __imp_??0CString@@QAE@PBGH@Z 5f5b345c   MFC42UD:MFC42uD.DLL
 0004:00001460       __imp_?AfxDlgProc@@YGHPAUHWND__@@IIJ@Z 5f5b3460   MFC42UD:MFC42uD.DLL
 0004:00001464       __imp_?DoModal@CDialog@@UAEHXZ 5f5b3464   MFC42UD:MFC42uD.DLL
 0004:00001468       __imp_??0CCommonDialog@@QAE@PAVCWnd@@@Z 5f5b3468   MFC42UD:MFC42uD.DLL
 0004:0000146c       __imp_?Dump@CDialog@@UBEXAAVCDumpContext@@@Z 5f5b346c   MFC42UD:MFC42uD.DLL
 0004:00001470       __imp_?Detach@CWnd@@QAEPAUHWND__@@XZ 5f5b3470   MFC42UD:MFC42uD.DLL
 0004:00001474       __imp_?AfxUnhookWindowCreate@@YGHXZ 5f5b3474   MFC42UD:MFC42uD.DLL
 0004:00001478       __imp_?AfxHookWindowCreate@@YGXPAVCWnd@@@Z 5f5b3478   MFC42UD:MFC42uD.DLL
 0004:0000147c       __imp_?GetSafeOwner@CWnd@@SGPAV1@PAV1@PAPAUHWND__@@@Z 5f5b347c   MFC42UD:MFC42uD.DLL
 0004:00001480       __imp_?classCDialog@CDialog@@2UCRuntimeClass@@B 5f5b3480   MFC42UD:MFC42uD.DLL
 0004:00001484       __imp_?CenterWindow@CWnd@@QAEXPAV1@@Z 5f5b3484   MFC42UD:MFC42uD.DLL
 0004:00001488       __imp_??4CString@@QAEABV0@ABV0@@Z 5f5b3488   MFC42UD:MFC42uD.DLL
 0004:0000148c       __imp_??0CString@@QAE@ABV0@@Z 5f5b348c   MFC42UD:MFC42uD.DLL
 0004:00001490       __imp_?Format@CString@@QAAXPBGZZ 5f5b3490   MFC42UD:MFC42uD.DLL
 0004:00001494       __imp_?AfxLoadDll@@YGPAUHINSTANCE__@@RAPAU1@PBDPAP6GHXZ1@Z 5f5b3494   MFC42UD:MFC42uD.DLL
 0004:00001498       __imp_??1CProcessLocalObject@@QAE@XZ 5f5b3498   MFC42UD:MFC42uD.DLL
 0004:0000149c       __imp_?GetDefaultAccelerator@CDocument@@UAEPAUHACCEL__@@XZ 5f5b349c   MFC42UD:MFC42uD.DLL
 0004:000014a0       __imp_?GetDefaultMenu@CDocument@@UAEPAUHMENU__@@XZ 5f5b34a0   MFC42UD:MFC42uD.DLL
 0004:000014a4       __imp_?UpdateFrameCounts@CDocument@@UAEXXZ 5f5b34a4   MFC42UD:MFC42uD.DLL
 0004:000014a8       __imp_?DoFileSave@CDocument@@UAEHXZ 5f5b34a8   MFC42UD:MFC42uD.DLL
 0004:000014ac       __imp_?DoSave@CDocument@@UAEHPBGH@Z 5f5b34ac   MFC42UD:MFC42uD.DLL
 0004:000014b0       __imp_?CanCloseFrame@CDocument@@UAEHPAVCFrameWnd@@@Z 5f5b34b0   MFC42UD:MFC42uD.DLL
 0004:000014b4       __imp_?ReleaseFile@CDocument@@UAEXPAVCFile@@H@Z 5f5b34b4   MFC42UD:MFC42uD.DLL
 0004:000014b8       __imp_?GetFile@CDocument@@UAEPAVCFile@@PBGIPAVCFileException@@@Z 5f5b34b8   MFC42UD:MFC42uD.DLL
 0004:000014bc       __imp_?ReportSaveLoadException@CDocument@@UAEXPBGPAVCException@@HI@Z 5f5b34bc   MFC42UD:MFC42uD.DLL
 0004:000014c0       __imp_?OnChangedViewList@CDocument@@UAEXXZ 5f5b34c0   MFC42UD:MFC42uD.DLL
 0004:000014c4       __imp_?GetNextView@CDocument@@UBEPAVCView@@AAPAU__POSITION@@@Z 5f5b34c4   MFC42UD:MFC42uD.DLL
 0004:000014c8       __imp_?GetFirstViewPosition@CDocument@@UBEPAU__POSITION@@XZ 5f5b34c8   MFC42UD:MFC42uD.DLL
 0004:000014cc       __imp_?SetModifiedFlag@CDocument@@UAEXH@Z 5f5b34cc   MFC42UD:MFC42uD.DLL
 0004:000014d0       __imp_?IsModified@CDocument@@UAEHXZ 5f5b34d0   MFC42UD:MFC42uD.DLL
 0004:000014d4       __imp_?SetTitle@CDocument@@UAEXPBG@Z 5f5b34d4   MFC42UD:MFC42uD.DLL
 0004:000014d8       __imp_?GetMessageMap@CDocument@@MBEPBUAFX_MSGMAP@@XZ 5f5b34d8   MFC42UD:MFC42uD.DLL
 0004:000014dc       __imp_?OnFinalRelease@CDocument@@UAEXXZ 5f5b34dc   MFC42UD:MFC42uD.DLL
 0004:000014e0       __imp_??1CDocument@@UAE@XZ 5f5b34e0   MFC42UD:MFC42uD.DLL
 0004:000014e4       __imp_??1CObList@@UAE@XZ   5f5b34e4   MFC42UD:MFC42uD.DLL
 0004:000014e8       __imp_?IsEmpty@CObList@@QBEHXZ 5f5b34e8   MFC42UD:MFC42uD.DLL
 0004:000014ec       __imp_?IsEmpty@CPtrList@@QBEHXZ 5f5b34ec   MFC42UD:MFC42uD.DLL
 0004:000014f0       __imp_??0CObList@@QAE@H@Z  5f5b34f0   MFC42UD:MFC42uD.DLL
 0004:000014f4       __imp_??0CDocument@@QAE@XZ 5f5b34f4   MFC42UD:MFC42uD.DLL
 0004:000014f8       __imp_?GetCount@CObList@@QBEHXZ 5f5b34f8   MFC42UD:MFC42uD.DLL
 0004:000014fc       __imp_?AddTail@CObList@@QAEPAU__POSITION@@PAVCObject@@@Z 5f5b34fc   MFC42UD:MFC42uD.DLL
 0004:00001500       __imp_?Find@CObList@@QBEPAU__POSITION@@PAVCObject@@PAU2@@Z 5f5b3500   MFC42UD:MFC42uD.DLL
 0004:00001504       __imp_?RemoveAt@CObList@@QAEXPAU__POSITION@@@Z 5f5b3504   MFC42UD:MFC42uD.DLL
 0004:00001508       __imp_?GetHeadPosition@CObList@@QBEPAU__POSITION@@XZ 5f5b3508   MFC42UD:MFC42uD.DLL
 0004:0000150c       __imp_?GetNext@CObList@@QBEPAVCObject@@AAPAU__POSITION@@@Z 5f5b350c   MFC42UD:MFC42uD.DLL
 0004:00001510       __imp_?SetPathName@CDocument@@UAEXPBGH@Z 5f5b3510   MFC42UD:MFC42uD.DLL
 0004:00001514       __imp_??6@YGAAVCArchive@@AAV0@PBVCObject@@@Z 5f5b3514   MFC42UD:MFC42uD.DLL
 0004:00001518       __imp_?SaveModified@CDocument@@UAEHXZ 5f5b3518   MFC42UD:MFC42uD.DLL
 0004:0000151c       __imp_?AfxMessageBox@@YGHPBGII@Z 5f5b351c   MFC42UD:MFC42uD.DLL
 0004:00001520       __imp_?AfxFormatString1@@YGXAAVCString@@IPBG@Z 5f5b3520   MFC42UD:MFC42uD.DLL
 0004:00001524       __imp_?OnNewDocument@CDocument@@UAEHXZ 5f5b3524   MFC42UD:MFC42uD.DLL
 0004:00001528       __imp_?OnOpenDocument@CDocument@@UAEHPBG@Z 5f5b3528   MFC42UD:MFC42uD.DLL
 0004:0000152c       __imp_?AfxComparePath@@YGHPBG0@Z 5f5b352c   MFC42UD:MFC42uD.DLL
 0004:00001530       __imp_?OnSaveDocument@CDocument@@UAEHPBG@Z 5f5b3530   MFC42UD:MFC42uD.DLL
 0004:00001534       __imp_?OnCloseDocument@CDocument@@UAEXXZ 5f5b3534   MFC42UD:MFC42uD.DLL
 0004:00001538       __imp_??1CFileException@@UAE@XZ 5f5b3538   MFC42UD:MFC42uD.DLL
 0004:0000153c       __imp_??1CArchive@@QAE@XZ  5f5b353c   MFC42UD:MFC42uD.DLL
 0004:00001540       __imp_?Close@CArchive@@QAEXXZ 5f5b3540   MFC42UD:MFC42uD.DLL
 0004:00001544       __imp_??0CArchive@@QAE@PAVCFile@@IHPAX@Z 5f5b3544   MFC42UD:MFC42uD.DLL
 0004:00001548       __imp_?AfxThrowFileException@@YGXHJPBG@Z 5f5b3548   MFC42UD:MFC42uD.DLL
 0004:0000154c       __imp_??0CFileException@@QAE@HJPBG@Z 5f5b354c   MFC42UD:MFC42uD.DLL
 0004:00001550       __imp_?AssertValid@CDocument@@UBEXXZ 5f5b3550   MFC42UD:MFC42uD.DLL
 0004:00001554       __imp_?Dump@CDocument@@UBEXAAVCDumpContext@@@Z 5f5b3554   MFC42UD:MFC42uD.DLL
 0004:00001558       __imp_?AfxIsValidAddress@@YGHPBXIH@Z 5f5b3558   MFC42UD:MFC42uD.DLL
 0004:0000155c       __imp_?AfxThrowArchiveException@@YGXHPBG@Z 5f5b355c   MFC42UD:MFC42uD.DLL
 0004:00001560       __imp_?SetFilePath@CFile@@UAEXPBG@Z 5f5b3560   MFC42UD:MFC42uD.DLL
 0004:00001564       __imp_?GetFilePath@CFile@@UBE?AVCString@@XZ 5f5b3564   MFC42UD:MFC42uD.DLL
 0004:00001568       __imp_?GetFileTitle@CFile@@UBE?AVCString@@XZ 5f5b3568   MFC42UD:MFC42uD.DLL
 0004:0000156c       __imp_?GetFileName@CFile@@UBE?AVCString@@XZ 5f5b356c   MFC42UD:MFC42uD.DLL
 0004:00001570       __imp_?classCCmdTarget@CCmdTarget@@2UCRuntimeClass@@B 5f5b3570   MFC42UD:MFC42uD.DLL
 0004:00001574       __imp_??0AFX_CLASSINIT@@QAE@PAUCRuntimeClass@@@Z 5f5b3574   MFC42UD:MFC42uD.DLL
 0004:00001578       __imp_?ReadObject@CArchive@@QAEPAVCObject@@PBUCRuntimeClass@@@Z 5f5b3578   MFC42UD:MFC42uD.DLL
 0004:0000157c       __imp_?classCDocument@CDocument@@2UCRuntimeClass@@B 5f5b357c   MFC42UD:MFC42uD.DLL
 0004:00001580       __imp_?AfxUnlockGlobals@@YGXH@Z 5f5b3580   MFC42UD:MFC42uD.DLL
 0004:00001584       __imp_?AfxLockGlobals@@YGXH@Z 5f5b3584   MFC42UD:MFC42uD.DLL
 0004:00001588       __imp_?PtInRect@CRect@@QBEHUtagPOINT@@@Z 5f5b3588   MFC42UD:MFC42uD.DLL
 0004:0000158c       __imp_?GetCapture@CWnd@@SGPAV1@XZ 5f5b358c   MFC42UD:MFC42uD.DLL
 0004:00001590       __imp_?SetCapture@CWnd@@QAEPAV1@XZ 5f5b3590   MFC42UD:MFC42uD.DLL
 0004:00001594       __imp_?InflateRect@CRect@@QAEXHH@Z 5f5b3594   MFC42UD:MFC42uD.DLL
 0004:00001598       __imp_?IsRectNull@CRect@@QBEHXZ 5f5b3598   MFC42UD:MFC42uD.DLL
 0004:0000159c       __imp_??0CPoint@@QAE@XZ    5f5b359c   MFC42UD:MFC42uD.DLL
 0004:000015a0       __imp_?classCView@CView@@2UCRuntimeClass@@B 5f5b35a0   MFC42UD:MFC42uD.DLL
 0004:000015a4       __imp_?ScreenToClient@CWnd@@QBEXPAUtagPOINT@@@Z 5f5b35a4   MFC42UD:MFC42uD.DLL
 0004:000015a8       __imp_??0CPoint@@QAE@HH@Z  5f5b35a8   MFC42UD:MFC42uD.DLL
 0004:000015ac       __imp_?IsDerivedFrom@CRuntimeClass@@QBEHPBU1@@Z 5f5b35ac   MFC42UD:MFC42uD.DLL
 0004:000015b0       __imp_?CreateObject@CRuntimeClass@@QAEPAVCObject@@XZ 5f5b35b0   MFC42UD:MFC42uD.DLL
 0004:000015b4       __imp_?AddHead@CSimpleList@@QAEXPAX@Z 5f5b35b4   MFC42UD:MFC42uD.DLL
 0004:000015b8       __imp_?Remove@CSimpleList@@QAEHPAX@Z 5f5b35b8   MFC42UD:MFC42uD.DLL
 0004:000015bc       __imp_?ExitHelpMode@CFrameWnd@@UAEXXZ 5f5b35bc   MFC42UD:MFC42uD.DLL
 0004:000015c0       __imp_?DelayUpdateFrameMenu@CFrameWnd@@UAEXPAUHMENU__@@@Z 5f5b35c0   MFC42UD:MFC42uD.DLL
 0004:000015c4       __imp_?GetDefaultAccelerator@CFrameWnd@@UAEPAUHACCEL__@@XZ 5f5b35c4   MFC42UD:MFC42uD.DLL
 0004:000015c8       __imp_?OnUpdateFrameMenu@CFrameWnd@@UAEXPAUHMENU__@@@Z 5f5b35c8   MFC42UD:MFC42uD.DLL
 0004:000015cc       __imp_?OnUpdateFrameTitle@CFrameWnd@@UAEXH@Z 5f5b35cc   MFC42UD:MFC42uD.DLL
 0004:000015d0       __imp_?OnCreateClient@CFrameWnd@@MAEHPAUtagCREATESTRUCTW@@PAUCCreateContext@@@Z 5f5b35d0   MFC42UD:MFC42uD.DLL
 0004:000015d4       __imp_?NegotiateBorderSpace@CFrameWnd@@UAEHIPAUtagRECT@@@Z 5f5b35d4   MFC42UD:MFC42uD.DLL
 0004:000015d8       __imp_?GetMessageBar@CFrameWnd@@UAEPAVCWnd@@XZ 5f5b35d8   MFC42UD:MFC42uD.DLL
 0004:000015dc       __imp_?OnSetPreviewMode@CFrameWnd@@UAEXHPAUCPrintPreviewState@@@Z 5f5b35dc   MFC42UD:MFC42uD.DLL
 0004:000015e0       __imp_?ActivateFrame@CFrameWnd@@UAEXH@Z 5f5b35e0   MFC42UD:MFC42uD.DLL
 0004:000015e4       __imp_?GetMessageString@CFrameWnd@@UBEXIAAVCString@@@Z 5f5b35e4   MFC42UD:MFC42uD.DLL
 0004:000015e8       __imp_?GetActiveFrame@CFrameWnd@@UAEPAV1@XZ 5f5b35e8   MFC42UD:MFC42uD.DLL
 0004:000015ec       __imp_?GetActiveDocument@CFrameWnd@@UAEPAVCDocument@@XZ 5f5b35ec   MFC42UD:MFC42uD.DLL
 0004:000015f0       __imp_?LoadFrame@CFrameWnd@@UAEHIKPAVCWnd@@PAUCCreateContext@@@Z 5f5b35f0   MFC42UD:MFC42uD.DLL
 0004:000015f4       __imp_?SetOccDialogInfo@CWnd@@MAEHPAU_AFX_OCC_DIALOG_INFO@@@Z 5f5b35f4   MFC42UD:MFC42uD.DLL
 0004:000015f8       __imp_?IsFrameWnd@CFrameWnd@@UBEHXZ 5f5b35f8   MFC42UD:MFC42uD.DLL
 0004:000015fc       __imp_?CheckAutoCenter@CWnd@@UAEHXZ 5f5b35fc   MFC42UD:MFC42uD.DLL
 0004:00001600       __imp_?PreTranslateMessage@CFrameWnd@@UAEHPAUtagMSG@@@Z 5f5b3600   MFC42UD:MFC42uD.DLL
 0004:00001604       __imp_?EndModalState@CFrameWnd@@UAEXXZ 5f5b3604   MFC42UD:MFC42uD.DLL
 0004:00001608       __imp_?BeginModalState@CFrameWnd@@UAEXXZ 5f5b3608   MFC42UD:MFC42uD.DLL
 0004:0000160c       __imp_?OnCommand@CFrameWnd@@MAEHIJ@Z 5f5b360c   MFC42UD:MFC42uD.DLL
 0004:00001610       __imp_?PreCreateWindow@CFrameWnd@@MAEHAAUtagCREATESTRUCTW@@@Z 5f5b3610   MFC42UD:MFC42uD.DLL
 0004:00001614       __imp_?GetMessageMap@CFrameWnd@@MBEPBUAFX_MSGMAP@@XZ 5f5b3614   MFC42UD:MFC42uD.DLL
 0004:00001618       __imp_?Dump@CFrameWnd@@UBEXAAVCDumpContext@@@Z 5f5b3618   MFC42UD:MFC42uD.DLL
 0004:0000161c       __imp_?GetRuntimeClass@CFrameWnd@@UBEPAUCRuntimeClass@@XZ 5f5b361c   MFC42UD:MFC42uD.DLL
 0004:00001620       __imp_??1CFrameWnd@@UAE@XZ 5f5b3620   MFC42UD:MFC42uD.DLL
 0004:00001624       __imp_?RemoveFrameWnd@CFrameWnd@@IAEXXZ 5f5b3624   MFC42UD:MFC42uD.DLL
 0004:00001628       __imp_??0CFrameWnd@@QAE@XZ 5f5b3628   MFC42UD:MFC42uD.DLL
 0004:0000162c       __imp_?AddFrameWnd@CFrameWnd@@IAEXXZ 5f5b362c   MFC42UD:MFC42uD.DLL
 0004:00001630       __imp_?AfxCallWndProc@@YGJPAVCWnd@@PAUHWND__@@IIJ@Z 5f5b3630   MFC42UD:MFC42uD.DLL
 0004:00001634       __imp_?messageMap@CFrameWnd@@1UAFX_MSGMAP@@B 5f5b3634   MFC42UD:MFC42uD.DLL
 0004:00001638       __imp_?PostNcDestroy@CFrameWnd@@MAEXXZ 5f5b3638   MFC42UD:MFC42uD.DLL
 0004:0000163c       __imp_?OnCmdMsg@CFrameWnd@@UAEHIHPAXPAUAFX_CMDHANDLERINFO@@@Z 5f5b363c   MFC42UD:MFC42uD.DLL
 0004:00001640       __imp_?ModifyStyleEx@CWnd@@QAEHKKI@Z 5f5b3640   MFC42UD:MFC42uD.DLL
 0004:00001644       __imp_?OnCreate@CFrameWnd@@IAEHPAUtagCREATESTRUCTW@@@Z 5f5b3644   MFC42UD:MFC42uD.DLL
 0004:00001648       __imp_?OnDestroy@CFrameWnd@@IAEXXZ 5f5b3648   MFC42UD:MFC42uD.DLL
 0004:0000164c       __imp_?DestroyDockBars@CFrameWnd@@QAEXXZ 5f5b364c   MFC42UD:MFC42uD.DLL
 0004:00001650       __imp_?DisconnectViews@CDocument@@QAEXXZ 5f5b3650   MFC42UD:MFC42uD.DLL
 0004:00001654       __imp_?OnWindowPosChanging@CWnd@@IAEXPAUtagWINDOWPOS@@@Z 5f5b3654   MFC42UD:MFC42uD.DLL
 0004:00001658       __imp_?LoadAccelTable@CFrameWnd@@QAEHPBG@Z 5f5b3658   MFC42UD:MFC42uD.DLL
 0004:0000165c       __imp_??0CRect@@QAE@HHHH@Z 5f5b365c   MFC42UD:MFC42uD.DLL
 0004:00001660       __imp_?GetDlgItem@CWnd@@QBEPAV1@H@Z 5f5b3660   MFC42UD:MFC42uD.DLL
 0004:00001664       __imp_?ScreenToClient@CWnd@@QBEXPAUtagRECT@@@Z 5f5b3664   MFC42UD:MFC42uD.DLL
 0004:00001668       __imp_?ClientToScreen@CWnd@@QBEXPAUtagRECT@@@Z 5f5b3668   MFC42UD:MFC42uD.DLL
 0004:0000166c       __imp_?GetParent@CWnd@@QBEPAV1@XZ 5f5b366c   MFC42UD:MFC42uD.DLL
 0004:00001670       __imp_?RepositionBars@CWnd@@QAEXIIIIPAUtagRECT@@PBU2@H@Z 5f5b3670   MFC42UD:MFC42uD.DLL
 0004:00001674       __imp_?AfxRepositionWindow@@YGXPAUAFX_SIZEPARENTPARAMS@@PAUHWND__@@PBUtagRECT@@@Z 5f5b3674   MFC42UD:MFC42uD.DLL
 0004:00001678       __imp_?ContinueRouting@CCmdUI@@QAEXXZ 5f5b3678   MFC42UD:MFC42uD.DLL
 0004:0000167c       __imp_?OnUpdateControlBarMenu@CFrameWnd@@QAEXPAVCCmdUI@@@Z 5f5b367c   MFC42UD:MFC42uD.DLL
 0004:00001680       __imp_?GetControlBar@CFrameWnd@@QAEPAVCControlBar@@I@Z 5f5b3680   MFC42UD:MFC42uD.DLL
 0004:00001684       __imp_?OnBarCheck@CFrameWnd@@QAEHI@Z 5f5b3684   MFC42UD:MFC42uD.DLL
 0004:00001688       __imp_?OnContextHelp@CFrameWnd@@QAEXXZ 5f5b3688   MFC42UD:MFC42uD.DLL
 0004:0000168c       __imp_?AssertValid@CFrameWnd@@UBEXXZ 5f5b368c   MFC42UD:MFC42uD.DLL
 0004:00001690       __imp_??6@YGAAVCDumpContext@@AAV0@ABUtagRECT@@@Z 5f5b3690   MFC42UD:MFC42uD.DLL
 0004:00001694       __imp_??9@YGHABVCString@@PBG@Z 5f5b3694   MFC42UD:MFC42uD.DLL
 0004:00001698       __imp_?afxTraceFlags@@3IA  5f5b3698   MFC42UD:MFC42uD.DLL
 0004:0000169c       __imp_?SendInitialUpdate@CDocument@@QAEXXZ 5f5b369c   MFC42UD:MFC42uD.DLL
 0004:000016a0       __imp_?AfxOleGetUserCtrl@@YGHXZ 5f5b36a0   MFC42UD:MFC42uD.DLL
 0004:000016a4       __imp_??6CDumpContext@@QAEAAV0@PBVCObject@@@Z 5f5b36a4   MFC42UD:MFC42uD.DLL
 0004:000016a8       __imp_?classCNotSupportedException@CNotSupportedException@@2UCRuntimeClass@@B 5f5b36a8   MFC42UD:MFC42uD.DLL
 0004:000016ac       __imp_?_afxAdvApi@@3UAFX_ADVAPI_CALL@@A 5f5b36ac   MFC42UD:MFC42uD.DLL
 0004:000016b0       __imp_??1CFile@@UAE@XZ     5f5b36b0   MFC42UD:MFC42uD.DLL
 0004:000016b4       __imp_?AfxFullPath@@YGHPAGPBG@Z 5f5b36b4   MFC42UD:MFC42uD.DLL
 0004:000016b8       __imp_?OsErrorToException@CFileException@@SGHJ@Z 5f5b36b8   MFC42UD:MFC42uD.DLL
 0004:000016bc       __imp_??4CTime@@QAEABV0@ABV0@@Z 5f5b36bc   MFC42UD:MFC42uD.DLL
 0004:000016c0       __imp_??0CTime@@QAE@ABU_FILETIME@@H@Z 5f5b36c0   MFC42UD:MFC42uD.DLL
 0004:000016c4       __imp_?AssertValid@CFile@@UBEXXZ 5f5b36c4   MFC42UD:MFC42uD.DLL
 0004:000016c8       __imp_?Dump@CFile@@UBEXAAVCDumpContext@@@Z 5f5b36c8   MFC42UD:MFC42uD.DLL
 0004:000016cc       __imp_?classCFile@CFile@@2UCRuntimeClass@@B 5f5b36cc   MFC42UD:MFC42uD.DLL
 0004:000016d0       __imp_??9CSize@@QBEHUtagSIZE@@@Z 5f5b36d0   MFC42UD:MFC42uD.DLL
 0004:000016d4       __imp_?HIMETRICtoDP@CDC@@QBEXPAUtagSIZE@@@Z 5f5b36d4   MFC42UD:MFC42uD.DLL
 0004:000016d8       __imp_?Size@CRect@@QBE?AVCSize@@XZ 5f5b36d8   MFC42UD:MFC42uD.DLL
 0004:000016dc       __imp_??0CSize@@QAE@XZ     5f5b36dc   MFC42UD:MFC42uD.DLL
 0004:000016e0       __imp_?IsWindowVisible@CWnd@@QBEHXZ 5f5b36e0   MFC42UD:MFC42uD.DLL
 0004:000016e4       __imp_?AfxFormatString2@@YGXAAVCString@@IPBG1@Z 5f5b36e4   MFC42UD:MFC42uD.DLL
 0004:000016e8       __imp_?messageMap@CDocument@@1UAFX_MSGMAP@@B 5f5b36e8   MFC42UD:MFC42uD.DLL
 0004:000016ec       __imp_?HideApplication@CWinApp@@QAEXXZ 5f5b36ec   MFC42UD:MFC42uD.DLL
 0004:000016f0       __imp_?SetForegroundWindow@CWnd@@QAEHXZ 5f5b36f0   MFC42UD:MFC42uD.DLL
 0004:000016f4       __imp_?SetActiveWindow@CWnd@@QAEPAV1@XZ 5f5b36f4   MFC42UD:MFC42uD.DLL
 0004:000016f8       __imp_?ShowWindow@CWnd@@QAEHH@Z 5f5b36f8   MFC42UD:MFC42uD.DLL
 0004:000016fc       __imp_?GetLastActivePopup@CWnd@@QBEPAV1@XZ 5f5b36fc   MFC42UD:MFC42uD.DLL
 0004:00001700       __imp_?UpdateWindow@CWnd@@QAEXXZ 5f5b3700   MFC42UD:MFC42uD.DLL
 0004:00001704       __imp_?ShowOwnedWindows@CFrameWnd@@QAEXH@Z 5f5b3704   MFC42UD:MFC42uD.DLL
 0004:00001708       __imp_?Attach@CWnd@@QAEHPAUHWND__@@@Z 5f5b3708   MFC42UD:MFC42uD.DLL
 0004:0000170c       __imp_?CreateOleFrame@CDocTemplate@@QAEPAVCFrameWnd@@PAVCWnd@@PAVCDocument@@H@Z 5f5b370c   MFC42UD:MFC42uD.DLL
 0004:00001710       __imp_?GetExStyle@CWnd@@QBEKXZ 5f5b3710   MFC42UD:MFC42uD.DLL
 0004:00001714       __imp_?GetDescendantWindow@CWnd@@QBEPAV1@HH@Z 5f5b3714   MFC42UD:MFC42uD.DLL
 0004:00001718       __imp_?SetActiveView@CFrameWnd@@QAEXPAVCView@@H@Z 5f5b3718   MFC42UD:MFC42uD.DLL
 0004:0000171c       __imp_?SetParent@CWnd@@QAEPAV1@PAV1@@Z 5f5b371c   MFC42UD:MFC42uD.DLL
 0004:00001720       __imp_?GetActiveView@CFrameWnd@@QBEPAVCView@@XZ 5f5b3720   MFC42UD:MFC42uD.DLL
 0004:00001724       __imp_?IsFloating@CControlBar@@QBEHXZ 5f5b3724   MFC42UD:MFC42uD.DLL
 0004:00001728       __imp_?InModalState@CFrameWnd@@QBEHXZ 5f5b3728   MFC42UD:MFC42uD.DLL
 0004:0000172c       __imp_?EnableWindow@CWnd@@QAEHH@Z 5f5b372c   MFC42UD:MFC42uD.DLL
 0004:00001730       __imp_?GetDepth@CDumpContext@@QBEHXZ 5f5b3730   MFC42UD:MFC42uD.DLL
 0004:00001734       __imp_??1CMetaFileDC@@UAE@XZ 5f5b3734   MFC42UD:MFC42uD.DLL
 0004:00001738       __imp_?Close@CMetaFileDC@@QAEPAUHMETAFILE__@@XZ 5f5b3738   MFC42UD:MFC42uD.DLL
 0004:0000173c       __imp_?SetAttribDC@CMetaFileDC@@UAEXPAUHDC__@@@Z 5f5b373c   MFC42UD:MFC42uD.DLL
 0004:00001740       __imp_?Create@CMetaFileDC@@QAEHPBG@Z 5f5b3740   MFC42UD:MFC42uD.DLL
 0004:00001744       __imp_??0CMetaFileDC@@QAE@XZ 5f5b3744   MFC42UD:MFC42uD.DLL
 0004:00001748       __imp_?_afxShell@@3UAFX_SHELL_CALL@@A 5f5b3748   MFC42UD:MFC42uD.DLL
 0004:0000174c       __imp_?AfxGetInstanceHandle@@YGPAUHINSTANCE__@@XZ 5f5b374c   MFC42UD:MFC42uD.DLL
 0004:00001750       __imp_?AfxGetModuleShortFileName@@YGXPAUHINSTANCE__@@AAVCString@@@Z 5f5b3750   MFC42UD:MFC42uD.DLL
 0004:00001754       __imp_?AfxFormatStrings@@YGXAAVCString@@PBGPBQBGH@Z 5f5b3754   MFC42UD:MFC42uD.DLL
 0004:00001758       __imp_?GetNextDocTemplate@CWinApp@@QBEPAVCDocTemplate@@AAPAU__POSITION@@@Z 5f5b3758   MFC42UD:MFC42uD.DLL
 0004:0000175c       __imp_?GetFirstDocTemplatePosition@CWinApp@@QBEPAU__POSITION@@XZ 5f5b375c   MFC42UD:MFC42uD.DLL
 0004:00001760       __imp_?Find@CString@@QBEHG@Z 5f5b3760   MFC42UD:MFC42uD.DLL
 0004:00001764       __imp_?OnCmdMsg@CDocument@@UAEHIHPAXPAUAFX_CMDHANDLERINFO@@@Z 5f5b3764   MFC42UD:MFC42uD.DLL
 0004:00001768       __imp_?GetRoutingView@CCmdTarget@@IAEPAVCView@@XZ 5f5b3768   MFC42UD:MFC42uD.DLL
 0004:0000176c       __imp_?InsertMenuW@CMenu@@QAEHIIIPBG@Z 5f5b376c   MFC42UD:MFC42uD.DLL
 0004:00001770       __imp_?DeleteMenu@CMenu@@QAEHII@Z 5f5b3770   MFC42UD:MFC42uD.DLL
 0004:00001774       __imp_?GetMenuStringW@CMenu@@QBEHIPAGHI@Z 5f5b3774   MFC42UD:MFC42uD.DLL
 0004:00001778       __imp_?GetLength@CString@@QBEHXZ 5f5b3778   MFC42UD:MFC42uD.DLL
 0004:0000177c       __imp_?AfxFindMessageEntry@@YGPBUAFX_MSGMAP_ENTRY@@PBU1@III@Z 5f5b377c   MFC42UD:MFC42uD.DLL
 0004:00001780       __imp_?GetData@CByteArray@@QBEPBEXZ 5f5b3780   MFC42UD:MFC42uD.DLL
 0004:00001784       __imp_?GetSize@CByteArray@@QBEHXZ 5f5b3784   MFC42UD:MFC42uD.DLL
 0004:00001788       __imp_??6CDumpContext@@QAEAAV0@N@Z 5f5b3788   MFC42UD:MFC42uD.DLL
 0004:0000178c       __imp_??6CDumpContext@@QAEAAV0@M@Z 5f5b378c   MFC42UD:MFC42uD.DLL
 0004:00001790       __imp_??0CArchiveStream@@QAE@PAVCArchive@@@Z 5f5b3790   MFC42UD:MFC42uD.DLL
 0004:00001794       __imp_??6CArchive@@QAEAAV0@J@Z 5f5b3794   MFC42UD:MFC42uD.DLL
 0004:00001798       __imp_??6CArchive@@QAEAAV0@N@Z 5f5b3798   MFC42UD:MFC42uD.DLL
 0004:0000179c       __imp_??6CArchive@@QAEAAV0@M@Z 5f5b379c   MFC42UD:MFC42uD.DLL
 0004:000017a0       __imp_??6CArchive@@QAEAAV0@E@Z 5f5b37a0   MFC42UD:MFC42uD.DLL
 0004:000017a4       __imp_??5CArchive@@QAEAAV0@AAJ@Z 5f5b37a4   MFC42UD:MFC42uD.DLL
 0004:000017a8       __imp_??5CArchive@@QAEAAV0@AAN@Z 5f5b37a8   MFC42UD:MFC42uD.DLL
 0004:000017ac       __imp_??5CArchive@@QAEAAV0@AAM@Z 5f5b37ac   MFC42UD:MFC42uD.DLL
 0004:000017b0       __imp_??5CArchive@@QAEAAV0@AAE@Z 5f5b37b0   MFC42UD:MFC42uD.DLL
 0004:000017b4       __imp_?ReleaseBuffer@CString@@QAEXH@Z 5f5b37b4   MFC42UD:MFC42uD.DLL
 0004:000017b8       __imp_?AfxSetWindowText@@YGXPAUHWND__@@PBG@Z 5f5b37b8   MFC42UD:MFC42uD.DLL
 0004:000017bc       __imp_?Fail@CDataExchange@@QAEXXZ 5f5b37bc   MFC42UD:MFC42uD.DLL
 0004:000017c0       __imp_?PrepareEditCtrl@CDataExchange@@QAEPAUHWND__@@H@Z 5f5b37c0   MFC42UD:MFC42uD.DLL
 0004:000017c4       __imp_?OnSize@CWnd@@IAEXIHH@Z 5f5b37c4   MFC42UD:MFC42uD.DLL
 0004:000017c8       __imp_?messageMap@CCtrlView@@1UAFX_MSGMAP@@B 5f5b37c8   MFC42UD:MFC42uD.DLL
 0004:000017cc       __imp_?OnEndPrintPreview@CView@@MAEXPAVCDC@@PAUCPrintInfo@@UtagPOINT@@PAVCPreviewView@@@Z 5f5b37cc   MFC42UD:MFC42uD.DLL
 0004:000017d0       __imp_?OnPreparePrinting@CView@@MAEHPAUCPrintInfo@@@Z 5f5b37d0   MFC42UD:MFC42uD.DLL
 0004:000017d4       __imp_?OnDraw@CCtrlView@@MAEXPAVCDC@@@Z 5f5b37d4   MFC42UD:MFC42uD.DLL
 0004:000017d8       __imp_?OnUpdate@CView@@MAEXPAV1@JPAVCObject@@@Z 5f5b37d8   MFC42UD:MFC42uD.DLL
 0004:000017dc       __imp_?OnActivateFrame@CView@@MAEXIPAVCFrameWnd@@@Z 5f5b37dc   MFC42UD:MFC42uD.DLL
 0004:000017e0       __imp_?OnActivateView@CView@@MAEXHPAV1@0@Z 5f5b37e0   MFC42UD:MFC42uD.DLL
 0004:000017e4       __imp_?OnDragScroll@CView@@UAEKKVCPoint@@@Z 5f5b37e4   MFC42UD:MFC42uD.DLL
 0004:000017e8       __imp_?OnDropEx@CView@@UAEKPAVCOleDataObject@@KKVCPoint@@@Z 5f5b37e8   MFC42UD:MFC42uD.DLL
 0004:000017ec       __imp_?OnDrop@CView@@UAEHPAVCOleDataObject@@KVCPoint@@@Z 5f5b37ec   MFC42UD:MFC42uD.DLL
 0004:000017f0       __imp_?OnDragLeave@CView@@UAEXXZ 5f5b37f0   MFC42UD:MFC42uD.DLL
 0004:000017f4       __imp_?OnDragOver@CView@@UAEKPAVCOleDataObject@@KVCPoint@@@Z 5f5b37f4   MFC42UD:MFC42uD.DLL
 0004:000017f8       __imp_?OnDragEnter@CView@@UAEKPAVCOleDataObject@@KVCPoint@@@Z 5f5b37f8   MFC42UD:MFC42uD.DLL
 0004:000017fc       __imp_?OnScrollBy@CView@@UAEHVCSize@@H@Z 5f5b37fc   MFC42UD:MFC42uD.DLL
 0004:00001800       __imp_?OnScroll@CView@@UAEHIIH@Z 5f5b3800   MFC42UD:MFC42uD.DLL
 0004:00001804       __imp_?PostNcDestroy@CView@@MAEXXZ 5f5b3804   MFC42UD:MFC42uD.DLL
 0004:00001808       __imp_?PreTranslateMessage@CWnd@@UAEHPAUtagMSG@@@Z 5f5b3808   MFC42UD:MFC42uD.DLL
 0004:0000180c       __imp_?GetScrollBarCtrl@CView@@UBEPAVCScrollBar@@H@Z 5f5b380c   MFC42UD:MFC42uD.DLL
 0004:00001810       __imp_?CalcWindowRect@CView@@UAEXPAUtagRECT@@I@Z 5f5b3810   MFC42UD:MFC42uD.DLL
 0004:00001814       __imp_?OnCmdMsg@CView@@MAEHIHPAXPAUAFX_CMDHANDLERINFO@@@Z 5f5b3814   MFC42UD:MFC42uD.DLL
 0004:00001818       __imp_??0CDWordArray@@QAE@XZ 5f5b3818   MFC42UD:MFC42uD.DLL
 0004:0000181c       __imp_??0CDC@@QAE@XZ       5f5b381c   MFC42UD:MFC42uD.DLL
 0004:00001820       __imp_??0CCtrlView@@QAE@PBGK@Z 5f5b3820   MFC42UD:MFC42uD.DLL
 0004:00001824       __imp_?PreCreateWindow@CCtrlView@@MAEHAAUtagCREATESTRUCTW@@@Z 5f5b3824   MFC42UD:MFC42uD.DLL
 0004:00001828       __imp_?AfxGetRichEditState@@YAPAV_AFX_RICHEDIT_STATE@@XZ 5f5b3828   MFC42UD:MFC42uD.DLL
 0004:0000182c       __imp_?SetOptions@CRichEditCtrl@@QAEXGK@Z 5f5b382c   MFC42UD:MFC42uD.DLL
 0004:00001830       __imp_?DragAcceptFiles@CWnd@@QAEXH@Z 5f5b3830   MFC42UD:MFC42uD.DLL
 0004:00001834       __imp_?GetIRichEditOle@CRichEditCtrl@@QBEPAUIRichEditOle@@XZ 5f5b3834   MFC42UD:MFC42uD.DLL
 0004:00001838       __imp_?SetOLECallback@CRichEditCtrl@@QAEHPAUIRichEditOleCallback@@@Z 5f5b3838   MFC42UD:MFC42uD.DLL
 0004:0000183c       __imp_?SetEventMask@CRichEditCtrl@@QAEKK@Z 5f5b383c   MFC42UD:MFC42uD.DLL
 0004:00001840       __imp_?LimitText@CRichEditCtrl@@QAEXJ@Z 5f5b3840   MFC42UD:MFC42uD.DLL
 0004:00001844       __imp_?OnCreate@CView@@IAEHPAUtagCREATESTRUCTW@@@Z 5f5b3844   MFC42UD:MFC42uD.DLL
 0004:00001848       __imp_?OnInitialUpdate@CView@@UAEXXZ 5f5b3848   MFC42UD:MFC42uD.DLL
 0004:0000184c       __imp_?EmptyUndoBuffer@CRichEditCtrl@@QAEXXZ 5f5b384c   MFC42UD:MFC42uD.DLL
 0004:00001850       __imp_?SetWindowTextW@CWnd@@QAEXPBG@Z 5f5b3850   MFC42UD:MFC42uD.DLL
 0004:00001854       __imp_?SetTargetDevice@CRichEditCtrl@@QAEHAAVCDC@@J@Z 5f5b3854   MFC42UD:MFC42uD.DLL
 0004:00001858       __imp_?CreateDCW@CDC@@QAEHPBG00PBX@Z 5f5b3858   MFC42UD:MFC42uD.DLL
 0004:0000185c       __imp_?CreatePrinterDC@CWinApp@@QAEHAAVCDC@@@Z 5f5b385c   MFC42UD:MFC42uD.DLL
 0004:00001860       __imp_?SetTargetDevice@CRichEditCtrl@@QAEHPAUHDC__@@J@Z 5f5b3860   MFC42UD:MFC42uD.DLL
 0004:00001864       __imp_?Invalidate@CWnd@@QAEXH@Z 5f5b3864   MFC42UD:MFC42uD.DLL
 0004:00001868       __imp_?StreamIn@CRichEditCtrl@@QAEJHAAU_editstream@@@Z 5f5b3868   MFC42UD:MFC42uD.DLL
 0004:0000186c       __imp_?StreamOut@CRichEditCtrl@@QAEJHAAU_editstream@@@Z 5f5b386c   MFC42UD:MFC42uD.DLL
 0004:00001870       __imp_?classCFileException@CFileException@@2UCRuntimeClass@@B 5f5b3870   MFC42UD:MFC42uD.DLL
 0004:00001874       __imp_?ReadHuge@CFile@@QAEKPAXK@Z 5f5b3874   MFC42UD:MFC42uD.DLL
 0004:00001878       __imp_?GetFile@CArchive@@QBEPAVCFile@@XZ 5f5b3878   MFC42UD:MFC42uD.DLL
 0004:0000187c       __imp_?WriteHuge@CFile@@QAEXPBXK@Z 5f5b387c   MFC42UD:MFC42uD.DLL
 0004:00001880       __imp_?Flush@CArchive@@QAEXXZ 5f5b3880   MFC42UD:MFC42uD.DLL
 0004:00001884       __imp_?FormatRange@CRichEditCtrl@@QAEJPAU_formatrange@@H@Z 5f5b3884   MFC42UD:MFC42uD.DLL
 0004:00001888       __imp_?GetSize@CDWordArray@@QBEHXZ 5f5b3888   MFC42UD:MFC42uD.DLL
 0004:0000188c       __imp_?Add@CDWordArray@@QAEHK@Z 5f5b388c   MFC42UD:MFC42uD.DLL
 0004:00001890       __imp_?GetBufferPtr@CFile@@UAEIIIPAPAX0@Z 5f5b3890   MFC42UD:MFC42uD.DLL
 0004:00001894       __imp_??BCString@@QBEPBGXZ 5f5b3894   MFC42UD:MFC42uD.DLL
 0004:00001898       __imp_?IntersectClipRect@CDC@@QAEHHHHH@Z 5f5b3898   MFC42UD:MFC42uD.DLL
 0004:0000189c       __imp_??ACDWordArray@@QAEAAKH@Z 5f5b389c   MFC42UD:MFC42uD.DLL
 0004:000018a0       __imp_?SetMaxPage@CPrintInfo@@QAEXI@Z 5f5b38a0   MFC42UD:MFC42uD.DLL
 0004:000018a4       __imp_?RemoveAll@CDWordArray@@QAEXXZ 5f5b38a4   MFC42UD:MFC42uD.DLL
 0004:000018a8       __imp_?GetSel@CRichEditCtrl@@QBEXAAJ0@Z 5f5b38a8   MFC42UD:MFC42uD.DLL
 0004:000018ac       __imp_?_afxRichEditState@@3V?$CProcessLocal@V_AFX_RICHEDIT_STATE@@@@A 5f5b38ac   MFC42UD:MFC42uD.DLL
 0004:000018b0       __imp_?AfxGetAppName@@YGPBGXZ 5f5b38b0   MFC42UD:MFC42uD.DLL
 0004:000018b4       __imp_?GetTitle@CDocument@@QBEABVCString@@XZ 5f5b38b4   MFC42UD:MFC42uD.DLL
 0004:000018b8       __imp_?Copy@CRichEditCtrl@@QAEXXZ 5f5b38b8   MFC42UD:MFC42uD.DLL
 0004:000018bc       __imp_?Paste@CRichEditCtrl@@QAEXXZ 5f5b38bc   MFC42UD:MFC42uD.DLL
 0004:000018c0       __imp_?Clear@CRichEditCtrl@@QAEXXZ 5f5b38c0   MFC42UD:MFC42uD.DLL
 0004:000018c4       __imp_?Undo@CRichEditCtrl@@QAEHXZ 5f5b38c4   MFC42UD:MFC42uD.DLL
 0004:000018c8       __imp_?SetSel@CRichEditCtrl@@QAEXJJ@Z 5f5b38c8   MFC42UD:MFC42uD.DLL
 0004:000018cc       __imp_?OnDestroy@CView@@IAEXXZ 5f5b38cc   MFC42UD:MFC42uD.DLL
 0004:000018d0       __imp_?GetCharFormat@CFontDialog@@QBEXAAU_charformatw@@@Z 5f5b38d0   MFC42UD:MFC42uD.DLL
 0004:000018d4       __imp_?DoModal@CFontDialog@@UAEHXZ 5f5b38d4   MFC42UD:MFC42uD.DLL
 0004:000018d8       __imp_??0CFontDialog@@QAE@ABU_charformatw@@KPAVCDC@@PAVCWnd@@@Z 5f5b38d8   MFC42UD:MFC42uD.DLL
 0004:000018dc       __imp_?PasteSpecial@CRichEditCtrl@@QAEXIKPAUHMETAFILE__@@@Z 5f5b38dc   MFC42UD:MFC42uD.DLL
 0004:000018e0       __imp_?OnKeyDown@CWnd@@IAEXIII@Z 5f5b38e0   MFC42UD:MFC42uD.DLL
 0004:000018e4       __imp_?CenterPoint@CRect@@QBE?AVCPoint@@XZ 5f5b38e4   MFC42UD:MFC42uD.DLL
 0004:000018e8       __imp_?SetSel@CRichEditCtrl@@QAEXAAU_charrange@@@Z 5f5b38e8   MFC42UD:MFC42uD.DLL
 0004:000018ec       __imp_?GetSel@CRichEditCtrl@@QBEXAAU_charrange@@@Z 5f5b38ec   MFC42UD:MFC42uD.DLL
 0004:000018f0       __imp_?CanPaste@CRichEditCtrl@@QBEHI@Z 5f5b38f0   MFC42UD:MFC42uD.DLL
 0004:000018f4       __imp_?GetSelectionCharFormat@CRichEditCtrl@@QBEKAAU_charformatw@@@Z 5f5b38f4   MFC42UD:MFC42uD.DLL
 0004:000018f8       __imp_?GetParaFormat@CRichEditCtrl@@QBEKAAU_paraformat@@@Z 5f5b38f8   MFC42UD:MFC42uD.DLL
 0004:000018fc       __imp_?SetSelectionCharFormat@CRichEditCtrl@@QAEHAAU_charformatw@@@Z 5f5b38fc   MFC42UD:MFC42uD.DLL
 0004:00001900       __imp_?SetParaFormat@CRichEditCtrl@@QAEHAAU_paraformat@@@Z 5f5b3900   MFC42UD:MFC42uD.DLL
 0004:00001904       __imp_?MoveWindow@CWnd@@QAEXPBUtagRECT@@H@Z 5f5b3904   MFC42UD:MFC42uD.DLL
 0004:00001908       __imp_?OffsetRect@CRect@@QAEXHH@Z 5f5b3908   MFC42UD:MFC42uD.DLL
 0004:0000190c       __imp_?Height@CRect@@QBEHXZ 5f5b390c   MFC42UD:MFC42uD.DLL
 0004:00001910       __imp_?GetWindowRect@CWnd@@QBEXPAUtagRECT@@@Z 5f5b3910   MFC42UD:MFC42uD.DLL
 0004:00001914       __imp_?ClientToScreen@CWnd@@QBEXPAUtagPOINT@@@Z 5f5b3914   MFC42UD:MFC42uD.DLL
 0004:00001918       __imp_?GetCharPos@CRichEditCtrl@@QBE?AVCPoint@@J@Z 5f5b3918   MFC42UD:MFC42uD.DLL
 0004:0000191c       __imp_?Create@CFindReplaceDialog@@QAEHHPBG0KPAVCWnd@@@Z 5f5b391c   MFC42UD:MFC42uD.DLL
 0004:00001920       __imp_??0CFindReplaceDialog@@QAE@XZ 5f5b3920   MFC42UD:MFC42uD.DLL
 0004:00001924       __imp_?FindOneOf@CString@@QBEHPBG@Z 5f5b3924   MFC42UD:MFC42uD.DLL
 0004:00001928       __imp_?GetSelText@CRichEditCtrl@@QBE?AVCString@@XZ 5f5b3928   MFC42UD:MFC42uD.DLL
 0004:0000192c       __imp_?ReplaceSel@CRichEditCtrl@@QAEXPBGH@Z 5f5b392c   MFC42UD:MFC42uD.DLL
 0004:00001930       __imp_?HideSelection@CRichEditCtrl@@QAEXHH@Z 5f5b3930   MFC42UD:MFC42uD.DLL
 0004:00001934       __imp_?GetFindString@CFindReplaceDialog@@QBE?AVCString@@XZ 5f5b3934   MFC42UD:MFC42uD.DLL
 0004:00001938       __imp_?GetReplaceString@CFindReplaceDialog@@QBE?AVCString@@XZ 5f5b3938   MFC42UD:MFC42uD.DLL
 0004:0000193c       __imp_?MatchCase@CFindReplaceDialog@@QBEHXZ 5f5b393c   MFC42UD:MFC42uD.DLL
 0004:00001940       __imp_?MatchWholeWord@CFindReplaceDialog@@QBEHXZ 5f5b3940   MFC42UD:MFC42uD.DLL
 0004:00001944       __imp_?ReplaceAll@CFindReplaceDialog@@QBEHXZ 5f5b3944   MFC42UD:MFC42uD.DLL
 0004:00001948       __imp_?SearchDown@CFindReplaceDialog@@QBEHXZ 5f5b3948   MFC42UD:MFC42uD.DLL
 0004:0000194c       __imp_?ReplaceCurrent@CFindReplaceDialog@@QBEHXZ 5f5b394c   MFC42UD:MFC42uD.DLL
 0004:00001950       __imp_?FindNext@CFindReplaceDialog@@QBEHXZ 5f5b3950   MFC42UD:MFC42uD.DLL
 0004:00001954       __imp_?IsTerminating@CFindReplaceDialog@@QBEHXZ 5f5b3954   MFC42UD:MFC42uD.DLL
 0004:00001958       __imp_?GetNotifier@CFindReplaceDialog@@SGPAV1@J@Z 5f5b3958   MFC42UD:MFC42uD.DLL
 0004:0000195c       __imp_?FindTextW@CRichEditCtrl@@QBEJKPAU_findtextexw@@@Z 5f5b395c   MFC42UD:MFC42uD.DLL
 0004:00001960       __imp_?AssertValid@CCtrlView@@UBEXXZ 5f5b3960   MFC42UD:MFC42uD.DLL
 0004:00001964       __imp_??1_AFX_EDIT_STATE@@UAE@XZ 5f5b3964   MFC42UD:MFC42uD.DLL
 0004:00001968       __imp_??0_AFX_EDIT_STATE@@QAE@XZ 5f5b3968   MFC42UD:MFC42uD.DLL
 0004:0000196c       __imp_?Dump@CCtrlView@@UBEXAAVCDumpContext@@@Z 5f5b396c   MFC42UD:MFC42uD.DLL
 0004:00001970       __imp_??1_AFX_RICHEDIT_STATE@@UAE@XZ 5f5b3970   MFC42UD:MFC42uD.DLL
 0004:00001974       __imp_?GetModify@CRichEditCtrl@@QBEHXZ 5f5b3974   MFC42UD:MFC42uD.DLL
 0004:00001978       __imp_?SetModify@CRichEditCtrl@@QAEXH@Z 5f5b3978   MFC42UD:MFC42uD.DLL
 0004:0000197c       __imp_?AfxW2AHelper@@YGPADPADPBGH@Z 5f5b397c   MFC42UD:MFC42uD.DLL
 0004:00001980       __imp_?AfxDynamicDownCast@@YAPAVCObject@@PAUCRuntimeClass@@PAV1@@Z 5f5b3980   MFC42UD:MFC42uD.DLL
 0004:00001984       __imp_??0CRect@@QAE@UtagPOINT@@UtagSIZE@@@Z 5f5b3984   MFC42UD:MFC42uD.DLL
 0004:00001988       __imp_?GetTextLength@CRichEditCtrl@@QBEJXZ 5f5b3988   MFC42UD:MFC42uD.DLL
 0004:0000198c       __imp_?classCCtrlView@CCtrlView@@2UCRuntimeClass@@B 5f5b398c   MFC42UD:MFC42uD.DLL
 0004:00001990       __imp_?AfxOleCanExitApp@@YGHXZ 5f5b3990   MFC42UD:MFC42uD.DLL
 0004:00001994       __imp_?SetAt@CMapPtrToPtr@@QAEXPAX0@Z 5f5b3994   MFC42UD:MFC42uD.DLL
 0004:00001998       __imp_?AfxGetThreadState@@YGPAV_AFX_THREAD_STATE@@XZ 5f5b3998   MFC42UD:MFC42uD.DLL
 0004:0000199c       __imp_??0CMapPtrToPtr@@QAE@H@Z 5f5b399c   MFC42UD:MFC42uD.DLL
 0004:000019a0       __imp_?AfxFindResourceHandle@@YGPAUHINSTANCE__@@PBG0@Z 5f5b39a0   MFC42UD:MFC42uD.DLL
 0004:000019a4       __imp_?GetNextAssoc@CMapPtrToPtr@@QBEXAAPAU__POSITION@@AAPAX1@Z 5f5b39a4   MFC42UD:MFC42uD.DLL
 0004:000019a8       __imp_?GetStartPosition@CMapPtrToPtr@@QBEPAU__POSITION@@XZ 5f5b39a8   MFC42UD:MFC42uD.DLL
 0004:000019ac       __imp_??0CMemFile@@QAE@PAEII@Z 5f5b39ac   MFC42UD:MFC42uD.DLL
 0004:000019b0       __imp_??4CString@@QAEABV0@PBD@Z 5f5b39b0   MFC42UD:MFC42uD.DLL
 0004:000019b4       __imp_?AfxThrowNotSupportedException@@YGXXZ 5f5b39b4   MFC42UD:MFC42uD.DLL
 0004:000019b8       __imp_?dispatchMap@CCmdTarget@@1UAFX_DISPMAP@@B 5f5b39b8   MFC42UD:MFC42uD.DLL
 0004:000019bc       __imp_??1CMapPtrToPtr@@UAE@XZ 5f5b39bc   MFC42UD:MFC42uD.DLL
 0004:000019c0       __imp_?RemoveAll@CMapPtrToPtr@@QAEXXZ 5f5b39c0   MFC42UD:MFC42uD.DLL
 0004:000019c4       __imp_??1CWindowDC@@UAE@XZ 5f5b39c4   MFC42UD:MFC42uD.DLL
 0004:000019c8       __imp_?GetFont@CWnd@@QBEPAVCFont@@XZ 5f5b39c8   MFC42UD:MFC42uD.DLL
 0004:000019cc       __imp_?GetTextColor@CDC@@QBEKXZ 5f5b39cc   MFC42UD:MFC42uD.DLL
 0004:000019d0       __imp_?GetBkColor@CDC@@QBEKXZ 5f5b39d0   MFC42UD:MFC42uD.DLL
 0004:000019d4       __imp_??0CWindowDC@@QAE@PAVCWnd@@@Z 5f5b39d4   MFC42UD:MFC42uD.DLL
 0004:000019d8       __imp_?AfxGetCtl3dState@@YGPAV_AFX_CTL3D_STATE@@XZ 5f5b39d8   MFC42UD:MFC42uD.DLL
 0004:000019dc       __imp_??1CFont@@UAE@XZ     5f5b39dc   MFC42UD:MFC42uD.DLL
 0004:000019e0       __imp_?GetLogFont@CFont@@QAEHPAUtagLOGFONTW@@@Z 5f5b39e0   MFC42UD:MFC42uD.DLL
 0004:000019e4       __imp_?CreateStockObject@CGdiObject@@QAEHH@Z 5f5b39e4   MFC42UD:MFC42uD.DLL
 0004:000019e8       __imp_??0CFont@@QAE@XZ     5f5b39e8   MFC42UD:MFC42uD.DLL
 0004:000019ec       __imp_?GetWindowTextW@CWnd@@QBEHPAGH@Z 5f5b39ec   MFC42UD:MFC42uD.DLL
 0004:000019f0       __imp_?GetProperty@CWnd@@QBEXJGPAX@Z 5f5b39f0   MFC42UD:MFC42uD.DLL
 0004:000019f4       __imp_?GetCount@CMapPtrToPtr@@QBEHXZ 5f5b39f4   MFC42UD:MFC42uD.DLL
 0004:000019f8       __imp_??1CClientDC@@UAE@XZ 5f5b39f8   MFC42UD:MFC42uD.DLL
 0004:000019fc       __imp_??0CClientDC@@QAE@PAVCWnd@@@Z 5f5b39fc   MFC42UD:MFC42uD.DLL
 0004:00001a00       __imp_??4CRect@@QAEXABUtagRECT@@@Z 5f5b3a00   MFC42UD:MFC42uD.DLL
 0004:00001a04       __imp_?RemoveKey@CMapPtrToPtr@@QAEHPAX@Z 5f5b3a04   MFC42UD:MFC42uD.DLL
 0004:00001a08       __imp_?UnsubclassWindow@CWnd@@QAEPAUHWND__@@XZ 5f5b3a08   MFC42UD:MFC42uD.DLL
 0004:00001a0c       __imp_?ModifyStyle@CWnd@@SGHPAUHWND__@@KKI@Z 5f5b3a0c   MFC42UD:MFC42uD.DLL
 0004:00001a10       __imp_?ModifyStyleEx@CWnd@@SGHPAUHWND__@@KKI@Z 5f5b3a10   MFC42UD:MFC42uD.DLL
 0004:00001a14       __imp_?Width@CRect@@QBEHXZ 5f5b3a14   MFC42UD:MFC42uD.DLL
 0004:00001a18       __imp_?GetFocus@CWnd@@SGPAV1@XZ 5f5b3a18   MFC42UD:MFC42uD.DLL
 0004:00001a1c       __imp_??0CRect@@QAE@PBUtagRECT@@@Z 5f5b3a1c   MFC42UD:MFC42uD.DLL
 0004:00001a20       __imp_??1CPtrList@@UAE@XZ  5f5b3a20   MFC42UD:MFC42uD.DLL
 0004:00001a24       __imp_??0CPtrList@@QAE@H@Z 5f5b3a24   MFC42UD:MFC42uD.DLL
 0004:00001a28       __imp_?RemoveAll@CPtrList@@QAEXXZ 5f5b3a28   MFC42UD:MFC42uD.DLL
 0004:00001a2c       __imp_?GetHead@CPtrList@@QAEAAPAXXZ 5f5b3a2c   MFC42UD:MFC42uD.DLL
 0004:00001a30       __imp_?MoveWindow@CWnd@@QAEXHHHHH@Z 5f5b3a30   MFC42UD:MFC42uD.DLL
 0004:00001a34       __imp_?GetDesktopWindow@CWnd@@SGPAV1@XZ 5f5b3a34   MFC42UD:MFC42uD.DLL
 0004:00001a38       __imp_?RemoveAt@CPtrList@@QAEXPAU__POSITION@@@Z 5f5b3a38   MFC42UD:MFC42uD.DLL
 0004:00001a3c       __imp_?AddTail@CPtrList@@QAEPAU__POSITION@@PAX@Z 5f5b3a3c   MFC42UD:MFC42uD.DLL
 0004:00001a40       __imp_??8@YGHABVCString@@0@Z 5f5b3a40   MFC42UD:MFC42uD.DLL
 0004:00001a44       __imp_??0CString@@QAE@PBD@Z 5f5b3a44   MFC42UD:MFC42uD.DLL
 0004:00001a48       __imp_?Find@CPtrList@@QBEPAU__POSITION@@PAXPAU2@@Z 5f5b3a48   MFC42UD:MFC42uD.DLL
 0004:00001a4c       __imp_?GetCount@CPtrList@@QBEHXZ 5f5b3a4c   MFC42UD:MFC42uD.DLL
 0004:00001a50       __imp_?SetProperty@CWnd@@QAAXJGZZ 5f5b3a50   MFC42UD:MFC42uD.DLL
 0004:00001a54       __imp_?IsChild@CWnd@@QBEHPBV1@@Z 5f5b3a54   MFC42UD:MFC42uD.DLL
 0004:00001a58       __imp_?GetDlgCtrlID@CWnd@@QBEHXZ 5f5b3a58   MFC42UD:MFC42uD.DLL
 0004:00001a5c       __imp_?GetNextWindow@CWnd@@QBEPAV1@I@Z 5f5b3a5c   MFC42UD:MFC42uD.DLL
 0004:00001a60       __imp_?GetTopWindow@CWnd@@QBEPAV1@XZ 5f5b3a60   MFC42UD:MFC42uD.DLL
 0004:00001a64       __imp_?InvokeHelper@CWnd@@QAAXJGGPAXPBEZZ 5f5b3a64   MFC42UD:MFC42uD.DLL
 0004:00001a68       __imp_?GetNextDlgGroupItem@CWnd@@QBEPAV1@PAV1@H@Z 5f5b3a68   MFC42UD:MFC42uD.DLL
 0004:00001a6c       __imp_?GetNextDlgTabItem@CWnd@@QBEPAV1@PAV1@H@Z 5f5b3a6c   MFC42UD:MFC42uD.DLL
 0004:00001a70       __imp_?messageMap@CCmdTarget@@1UAFX_MSGMAP@@B 5f5b3a70   MFC42UD:MFC42uD.DLL
 0004:00001a74       __imp_??1CPrintInfo@@QAE@XZ 5f5b3a74   MFC42UD:MFC42uD.DLL
 0004:00001a78       __imp_?GetFromPage@CPrintInfo@@QBEIXZ 5f5b3a78   MFC42UD:MFC42uD.DLL
 0004:00001a7c       __imp_?GetToPage@CPrintInfo@@QBEIXZ 5f5b3a7c   MFC42UD:MFC42uD.DLL
 0004:00001a80       __imp_?GetMinPage@CPrintInfo@@QBEIXZ 5f5b3a80   MFC42UD:MFC42uD.DLL
 0004:00001a84       __imp_??0CPrintInfo@@QAE@XZ 5f5b3a84   MFC42UD:MFC42uD.DLL
 0004:00001a88       __imp_?Detach@CDC@@QAEPAUHDC__@@XZ 5f5b3a88   MFC42UD:MFC42uD.DLL
 0004:00001a8c       __imp_?AbortDoc@CDC@@QAEHXZ 5f5b3a8c   MFC42UD:MFC42uD.DLL
 0004:00001a90       __imp_?EndDoc@CDC@@QAEHXZ  5f5b3a90   MFC42UD:MFC42uD.DLL
 0004:00001a94       __imp_?_AfxAbortProc@@YGHPAUHDC__@@H@Z 5f5b3a94   MFC42UD:MFC42uD.DLL
 0004:00001a98       __imp_?EndPage@CDC@@QAEHXZ 5f5b3a98   MFC42UD:MFC42uD.DLL
 0004:00001a9c       __imp_?StartPage@CDC@@QAEHXZ 5f5b3a9c   MFC42UD:MFC42uD.DLL
 0004:00001aa0       __imp_?GetMaxPage@CPrintInfo@@QBEIXZ 5f5b3aa0   MFC42UD:MFC42uD.DLL
 0004:00001aa4       __imp_?StartDocW@CDC@@QAEHPAU_DOCINFOW@@@Z 5f5b3aa4   MFC42UD:MFC42uD.DLL
 0004:00001aa8       __imp_?SetAbortProc@CDC@@QAEHP6GHPAUHDC__@@H@Z@Z 5f5b3aa8   MFC42UD:MFC42uD.DLL
 0004:00001aac       __imp_?Attach@CDC@@QAEHPAUHDC__@@@Z 5f5b3aac   MFC42UD:MFC42uD.DLL
 0004:00001ab0       __imp_?GetBuffer@CString@@QAEPAGH@Z 5f5b3ab0   MFC42UD:MFC42uD.DLL
 0004:00001ab4       __imp_?GetWindowTextW@CWnd@@QBEXAAVCString@@@Z 5f5b3ab4   MFC42UD:MFC42uD.DLL
 0004:00001ab8       __imp_?SetRadio@CCmdUI@@UAEXH@Z 5f5b3ab8   MFC42UD:MFC42uD.DLL
 0004:00001abc       __imp_??0CCmdUI@@QAE@XZ    5f5b3abc   MFC42UD:MFC42uD.DLL
 0004:00001ac0       __imp_?Right@CString@@QBE?AV1@H@Z 5f5b3ac0   MFC42UD:MFC42uD.DLL
 0004:00001ac4       __imp_?SetStatusText@CControlBar@@UAEHH@Z 5f5b3ac4   MFC42UD:MFC42uD.DLL
 0004:00001ac8       __imp_?DoPaint@CControlBar@@UAEXPAVCDC@@@Z 5f5b3ac8   MFC42UD:MFC42uD.DLL
 0004:00001acc       __imp_?OnBarStyleChange@CControlBar@@UAEXKK@Z 5f5b3acc   MFC42UD:MFC42uD.DLL
 0004:00001ad0       __imp_?IsDockBar@CControlBar@@UBEHXZ 5f5b3ad0   MFC42UD:MFC42uD.DLL
 0004:00001ad4       __imp_?RecalcDelayShow@CControlBar@@UAEKPAUAFX_SIZEPARENTPARAMS@@@Z 5f5b3ad4   MFC42UD:MFC42uD.DLL
 0004:00001ad8       __imp_?IsVisible@CControlBar@@UBEHXZ 5f5b3ad8   MFC42UD:MFC42uD.DLL
 0004:00001adc       __imp_?DelayShow@CControlBar@@UAEXH@Z 5f5b3adc   MFC42UD:MFC42uD.DLL
 0004:00001ae0       __imp_?CalcDynamicLayout@CControlBar@@UAE?AVCSize@@HK@Z 5f5b3ae0   MFC42UD:MFC42uD.DLL
 0004:00001ae4       __imp_?CalcFixedLayout@CControlBar@@UAE?AVCSize@@HH@Z 5f5b3ae4   MFC42UD:MFC42uD.DLL
 0004:00001ae8       __imp_?PostNcDestroy@CControlBar@@UAEXXZ 5f5b3ae8   MFC42UD:MFC42uD.DLL
 0004:00001aec       __imp_?WindowProc@CControlBar@@UAEJIIJ@Z 5f5b3aec   MFC42UD:MFC42uD.DLL
 0004:00001af0       __imp_?PreTranslateMessage@CControlBar@@UAEHPAUtagMSG@@@Z 5f5b3af0   MFC42UD:MFC42uD.DLL
 0004:00001af4       __imp_?PreCreateWindow@CControlBar@@UAEHAAUtagCREATESTRUCTW@@@Z 5f5b3af4   MFC42UD:MFC42uD.DLL
 0004:00001af8       __imp_?DestroyWindow@CControlBar@@UAEHXZ 5f5b3af8   MFC42UD:MFC42uD.DLL
 0004:00001afc       __imp_?Dump@CControlBar@@UBEXAAVCDumpContext@@@Z 5f5b3afc   MFC42UD:MFC42uD.DLL
 0004:00001b00       __imp_?AssertValid@CControlBar@@UBEXXZ 5f5b3b00   MFC42UD:MFC42uD.DLL
 0004:00001b04       __imp_??1CControlBar@@UAE@XZ 5f5b3b04   MFC42UD:MFC42uD.DLL
 0004:00001b08       __imp_??1CRectTracker@@UAE@XZ 5f5b3b08   MFC42UD:MFC42uD.DLL
 0004:00001b0c       __imp_??0CRectTracker@@QAE@XZ 5f5b3b0c   MFC42UD:MFC42uD.DLL
 0004:00001b10       __imp_??0CControlBar@@IAE@XZ 5f5b3b10   MFC42UD:MFC42uD.DLL
 0004:00001b14       __imp_?AfxEndDeferRegisterClass@@YGHF@Z 5f5b3b14   MFC42UD:MFC42uD.DLL
 0004:00001b18       __imp_?messageMap@CControlBar@@1UAFX_MSGMAP@@B 5f5b3b18   MFC42UD:MFC42uD.DLL
 0004:00001b1c       __imp_??1CPaintDC@@UAE@XZ  5f5b3b1c   MFC42UD:MFC42uD.DLL
 0004:00001b20       __imp_?Draw@CRectTracker@@QBEXPAVCDC@@@Z 5f5b3b20   MFC42UD:MFC42uD.DLL
 0004:00001b24       __imp_?SetBrushOrg@CDC@@QAE?AVCPoint@@HH@Z 5f5b3b24   MFC42UD:MFC42uD.DLL
 0004:00001b28       __imp_??0CPaintDC@@QAE@PAVCWnd@@@Z 5f5b3b28   MFC42UD:MFC42uD.DLL
 0004:00001b2c       __imp_?SetCursor@CRectTracker@@QBEHPAVCWnd@@I@Z 5f5b3b2c   MFC42UD:MFC42uD.DLL
 0004:00001b30       __imp_?OnSetCursor@CWnd@@IAEHPAV1@II@Z 5f5b3b30   MFC42UD:MFC42uD.DLL
 0004:00001b34       __imp_?HitTest@CRectTracker@@QBEHVCPoint@@@Z 5f5b3b34   MFC42UD:MFC42uD.DLL
 0004:00001b38       __imp_?GetOwner@CWnd@@QBEPAV1@XZ 5f5b3b38   MFC42UD:MFC42uD.DLL
 0004:00001b3c       __imp_?Track@CRectTracker@@QAEHPAVCWnd@@VCPoint@@H0@Z 5f5b3b3c   MFC42UD:MFC42uD.DLL
 0004:00001b40       __imp_?classCControlBar@CControlBar@@2UCRuntimeClass@@B 5f5b3b40   MFC42UD:MFC42uD.DLL
 0004:00001b44       __imp_?messageMap@CWnd@@1UAFX_MSGMAP@@B 5f5b3b44   MFC42UD:MFC42uD.DLL
 0004:00001b48       __imp_??1CWnd@@UAE@XZ      5f5b3b48   MFC42UD:MFC42uD.DLL
 0004:00001b4c       __imp_??0CWnd@@QAE@XZ      5f5b3b4c   MFC42UD:MFC42uD.DLL
 0004:00001b50       __imp_?AssertValid@CWnd@@UBEXXZ 5f5b3b50   MFC42UD:MFC42uD.DLL
 0004:00001b54       __imp_?Dump@CWnd@@UBEXAAVCDumpContext@@@Z 5f5b3b54   MFC42UD:MFC42uD.DLL
 0004:00001b58       __imp_?SetWindowOrg@CDC@@QAE?AVCPoint@@HH@Z 5f5b3b58   MFC42UD:MFC42uD.DLL
 0004:00001b5c       __imp_?SetViewportExt@CDC@@QAE?AVCSize@@UtagSIZE@@@Z 5f5b3b5c   MFC42UD:MFC42uD.DLL
 0004:00001b60       __imp_?CreateEx@CWnd@@QAEHKPBG0KHHHHPAUHWND__@@PAUHMENU__@@PAX@Z 5f5b3b60   MFC42UD:MFC42uD.DLL
 0004:00001b64       __imp_?LPtoDP@CDC@@QBEXPAUtagRECT@@@Z 5f5b3b64   MFC42UD:MFC42uD.DLL
 0004:00001b68       __imp_?SetWindowExt@CDC@@UAE?AVCSize@@HH@Z 5f5b3b68   MFC42UD:MFC42uD.DLL
 0004:00001b6c       __imp_?SetMapMode@CDC@@UAEHH@Z 5f5b3b6c   MFC42UD:MFC42uD.DLL
 0004:00001b70       __imp_?InvalidateRect@CWnd@@QAEXPBUtagRECT@@H@Z 5f5b3b70   MFC42UD:MFC42uD.DLL
 0004:00001b74       __imp_?OffsetRect@CRect@@QAEXUtagPOINT@@@Z 5f5b3b74   MFC42UD:MFC42uD.DLL
 0004:00001b78       __imp_?SetWindowPos@CWnd@@QAEHPBV1@HHHHI@Z 5f5b3b78   MFC42UD:MFC42uD.DLL
 0004:00001b7c       __imp_?AfxUnlockTempMaps@@YGHH@Z 5f5b3b7c   MFC42UD:MFC42uD.DLL
 0004:00001b80       __imp_?IntersectClipRect@CDC@@QAEHPBUtagRECT@@@Z 5f5b3b80   MFC42UD:MFC42uD.DLL
 0004:00001b84       __imp_?AfxLockTempMaps@@YGXXZ 5f5b3b84   MFC42UD:MFC42uD.DLL
 0004:00001b88       __imp_?ValidateRect@CWnd@@QAEXPBUtagRECT@@@Z 5f5b3b88   MFC42UD:MFC42uD.DLL
 0004:00001b8c       __imp_?IsLoading@CArchive@@QBEHXZ 5f5b3b8c   MFC42UD:MFC42uD.DLL
 0004:00001b90       __imp_?OnNcCreate@CWnd@@IAEHPAUtagCREATESTRUCTW@@@Z 5f5b3b90   MFC42UD:MFC42uD.DLL
 0004:00001b94       __imp_?OnMouseActivate@CWnd@@IAEHPAV1@II@Z 5f5b3b94   MFC42UD:MFC42uD.DLL
 0004:00001b98       __imp_?ReflectChildNotify@CWnd@@IAEHIIJPAJ@Z 5f5b3b98   MFC42UD:MFC42uD.DLL
 0004:00001b9c       __imp_?OnCreate@CWnd@@IAEHPAUtagCREATESTRUCTW@@@Z 5f5b3b9c   MFC42UD:MFC42uD.DLL
 0004:00001ba0       __imp_?OnMove@CWnd@@IAEXHH@Z 5f5b3ba0   MFC42UD:MFC42uD.DLL
 0004:00001ba4       __imp_?OnShowWindow@CWnd@@IAEXHI@Z 5f5b3ba4   MFC42UD:MFC42uD.DLL
 0004:00001ba8       __imp_?DoUpdate@CCmdUI@@QAEHPAVCCmdTarget@@H@Z 5f5b3ba8   MFC42UD:MFC42uD.DLL
 0004:00001bac       __imp_?GetMenuItemID@CMenu@@QBEIH@Z 5f5b3bac   MFC42UD:MFC42uD.DLL
 0004:00001bb0       __imp_?GetSubMenu@CMenu@@QBEPAV1@H@Z 5f5b3bb0   MFC42UD:MFC42uD.DLL
 0004:00001bb4       __imp_?GetMenuItemCount@CMenu@@QBEIXZ 5f5b3bb4   MFC42UD:MFC42uD.DLL
 0004:00001bb8       __imp_?AfxCancelModes@@YGXPAUHWND__@@@Z 5f5b3bb8   MFC42UD:MFC42uD.DLL
 0004:00001bbc       __imp_?GetData@CThreadLocalObject@@QAEPAVCNoTrackObject@@P6GPAV2@XZ@Z 5f5b3bbc   MFC42UD:MFC42uD.DLL
 0004:00001bc0       __imp_?GetMessageMap@CWnd@@MBEPBUAFX_MSGMAP@@XZ 5f5b3bc0   MFC42UD:MFC42uD.DLL
 0004:00001bc4       __imp_?GetRuntimeClass@CWnd@@UBEPAUCRuntimeClass@@XZ 5f5b3bc4   MFC42UD:MFC42uD.DLL
 0004:00001bc8       __imp_?OnDestroy@CWnd@@IAEXXZ 5f5b3bc8   MFC42UD:MFC42uD.DLL
 0004:00001bcc       __imp_?OnKillFocus@CWnd@@IAEXPAV1@@Z 5f5b3bcc   MFC42UD:MFC42uD.DLL
 0004:00001bd0       __imp_?OnSetFocus@CWnd@@IAEXPAV1@@Z 5f5b3bd0   MFC42UD:MFC42uD.DLL
 0004:00001bd4       __imp_?classCWnd@CWnd@@2UCRuntimeClass@@B 5f5b3bd4   MFC42UD:MFC42uD.DLL
 0004:00001bd8       __imp_?connectionMap@CCmdTarget@@1UAFX_CONNECTIONMAP@@B 5f5b3bd8   MFC42UD:MFC42uD.DLL
 0004:00001bdc       __imp_?Add@CPtrArray@@QAEHPAX@Z 5f5b3bdc   MFC42UD:MFC42uD.DLL
 0004:00001be0       __imp_?OnGetDlgCode@CWnd@@IAEIXZ 5f5b3be0   MFC42UD:MFC42uD.DLL
 0004:00001be4       __imp_?OnMouseMove@CWnd@@IAEXIVCPoint@@@Z 5f5b3be4   MFC42UD:MFC42uD.DLL
 0004:00001be8       __imp_?OnLButtonDown@CWnd@@IAEXIVCPoint@@@Z 5f5b3be8   MFC42UD:MFC42uD.DLL
 0004:00001bec       __imp_?OnLButtonUp@CWnd@@IAEXIVCPoint@@@Z 5f5b3bec   MFC42UD:MFC42uD.DLL
 0004:00001bf0       __imp_?OnLButtonDblClk@CWnd@@IAEXIVCPoint@@@Z 5f5b3bf0   MFC42UD:MFC42uD.DLL
 0004:00001bf4       __imp_?OnMButtonDown@CWnd@@IAEXIVCPoint@@@Z 5f5b3bf4   MFC42UD:MFC42uD.DLL
 0004:00001bf8       __imp_?OnMButtonUp@CWnd@@IAEXIVCPoint@@@Z 5f5b3bf8   MFC42UD:MFC42uD.DLL
 0004:00001bfc       __imp_?OnMButtonDblClk@CWnd@@IAEXIVCPoint@@@Z 5f5b3bfc   MFC42UD:MFC42uD.DLL
 0004:00001c00       __imp_?OnRButtonDown@CWnd@@IAEXIVCPoint@@@Z 5f5b3c00   MFC42UD:MFC42uD.DLL
 0004:00001c04       __imp_?OnRButtonUp@CWnd@@IAEXIVCPoint@@@Z 5f5b3c04   MFC42UD:MFC42uD.DLL
 0004:00001c08       __imp_?OnRButtonDblClk@CWnd@@IAEXIVCPoint@@@Z 5f5b3c08   MFC42UD:MFC42uD.DLL
 0004:00001c0c       __imp_?OnCancelMode@CWnd@@IAEXXZ 5f5b3c0c   MFC42UD:MFC42uD.DLL
 0004:00001c10       __imp_?MessageBoxW@CWnd@@QAEHPBG0I@Z 5f5b3c10   MFC42UD:MFC42uD.DLL
 0004:00001c14       __imp_?classCWinApp@CWinApp@@2UCRuntimeClass@@B 5f5b3c14   MFC42UD:MFC42uD.DLL
 0004:00001c18       __imp_?ExitInstance@CWinApp@@UAEHXZ 5f5b3c18   MFC42UD:MFC42uD.DLL
 0004:00001c1c       __imp_?OnActivate@CWnd@@IAEXIPAV1@H@Z 5f5b3c1c   MFC42UD:MFC42uD.DLL
 0004:00001c20       __imp_?FromHandle@CFont@@SGPAV1@PAUHFONT__@@@Z 5f5b3c20   MFC42UD:MFC42uD.DLL
 0004:00001c24       __imp_?Read@CFile@@UAEIPAXI@Z 5f5b3c24   MFC42UD:MFC42uD.DLL
 0004:00001c28       __imp_?_wcstombsz@@YAHPADPBGI@Z 5f5b3c28   MFC42UD:MFC42uD.DLL
 0004:00001c2c       __imp_??0CFile@@QAE@PBGI@Z 5f5b3c2c   MFC42UD:MFC42uD.DLL
 0004:00001c30       __imp_?GetSize@CPtrArray@@QBEHXZ 5f5b3c30   MFC42UD:MFC42uD.DLL
 0004:00001c34       __imp_?GetAt@CPtrArray@@QBEPAXH@Z 5f5b3c34   MFC42UD:MFC42uD.DLL
 0004:00001c38       __imp_??0CPtrArray@@QAE@XZ 5f5b3c38   MFC42UD:MFC42uD.DLL
 0004:00001c3c       __imp_?RemoveAt@CPtrArray@@QAEXHH@Z 5f5b3c3c   MFC42UD:MFC42uD.DLL
 0004:00001c40       __imp_??1CPtrArray@@UAE@XZ 5f5b3c40   MFC42UD:MFC42uD.DLL
 0004:00001c44       __imp_??1CBitmap@@UAE@XZ   5f5b3c44   MFC42UD:MFC42uD.DLL
 0004:00001c48       __imp_?Detach@CGdiObject@@QAEPAXXZ 5f5b3c48   MFC42UD:MFC42uD.DLL
 0004:00001c4c       __imp_?LoadBitmapW@CBitmap@@QAEHI@Z 5f5b3c4c   MFC42UD:MFC42uD.DLL
 0004:00001c50       __imp_??0CBitmap@@QAE@XZ   5f5b3c50   MFC42UD:MFC42uD.DLL
 0004:00001c54       __imp_?GetSafeHandle@CGdiObject@@QBEPAXXZ 5f5b3c54   MFC42UD:MFC42uD.DLL
 0004:00001c58       __imp_?LoadIconW@CWinApp@@QBEPAUHICON__@@I@Z 5f5b3c58   MFC42UD:MFC42uD.DLL
 0004:00001c5c       __imp_??6@YGAAVCArchive@@AAV0@ABVCString@@@Z 5f5b3c5c   MFC42UD:MFC42uD.DLL
 0004:00001c60       __imp_??5@YGAAVCArchive@@AAV0@AAVCString@@@Z 5f5b3c60   MFC42UD:MFC42uD.DLL
 0004:00001c64       __imp_?OnQuery3dControls@CWnd@@IAEJIJ@Z 5f5b3c64   MFC42UD:MFC42uD.DLL
 0004:00001c68       __imp_?messageMap@CDialog@@1UAFX_MSGMAP@@B 5f5b3c68   MFC42UD:MFC42uD.DLL
 0004:00001c6c       __imp_?GetRuntimeClass@CObject@@UBEPAUCRuntimeClass@@XZ 5f5b3c6c   MFC42UD:MFC42uD.DLL
 0004:00001c70       __imp_??1CObject@@UAE@XZ   5f5b3c70   MFC42UD:MFC42uD.DLL
 0004:00001c74       __imp_??0CObject@@IAE@XZ   5f5b3c74   MFC42UD:MFC42uD.DLL
 0004:00001c78       __imp_?GetFont@CDialogTemplate@@QBEHAAVCString@@AAG@Z 5f5b3c78   MFC42UD:MFC42uD.DLL
 0004:00001c7c       __imp_?GetSizeInDialogUnits@CDialogTemplate@@QBEXPAUtagSIZE@@@Z 5f5b3c7c   MFC42UD:MFC42uD.DLL
 0004:00001c80       __imp_?AfxEnableMemoryTracking@@YGHH@Z 5f5b3c80   MFC42UD:MFC42uD.DLL
 0004:00001c84       __imp_?AddHead@CPtrList@@QAEPAU__POSITION@@PAX@Z 5f5b3c84   MFC42UD:MFC42uD.DLL
 0004:00001c88       __imp_?OnCancel@CDialog@@MAEXXZ 5f5b3c88   MFC42UD:MFC42uD.DLL
 0004:00001c8c       __imp_?OnOK@CDialog@@MAEXXZ 5f5b3c8c   MFC42UD:MFC42uD.DLL
 0004:00001c90       __imp_??0CDialog@@QAE@XZ   5f5b3c90   MFC42UD:MFC42uD.DLL
 0004:00001c94       __imp_??1CDialogTemplate@@QAE@XZ 5f5b3c94   MFC42UD:MFC42uD.DLL
 0004:00001c98       __imp_?Detach@CDialogTemplate@@QAEPAXXZ 5f5b3c98   MFC42UD:MFC42uD.DLL
 0004:00001c9c       __imp_?GetSizeInPixels@CDialogTemplate@@QBEXPAUtagSIZE@@@Z 5f5b3c9c   MFC42UD:MFC42uD.DLL
 0004:00001ca0       __imp_?SetFont@CDialogTemplate@@QAEHPBGG@Z 5f5b3ca0   MFC42UD:MFC42uD.DLL
 0004:00001ca4       __imp_?AfxGetPropSheetFont@@YGHAAVCString@@AAGH@Z 5f5b3ca4   MFC42UD:MFC42uD.DLL
 0004:00001ca8       __imp_??8@YGHABVCString@@PBG@Z 5f5b3ca8   MFC42UD:MFC42uD.DLL
 0004:00001cac       __imp_?HasFont@CDialogTemplate@@QBEHXZ 5f5b3cac   MFC42UD:MFC42uD.DLL
 0004:00001cb0       __imp_?Load@CDialogTemplate@@QAEHPBG@Z 5f5b3cb0   MFC42UD:MFC42uD.DLL
 0004:00001cb4       __imp_??0CDialogTemplate@@QAE@PBUDLGTEMPLATE@@@Z 5f5b3cb4   MFC42UD:MFC42uD.DLL
 0004:00001cb8       __imp_?RemoveAll@CPtrArray@@QAEXXZ 5f5b3cb8   MFC42UD:MFC42uD.DLL
 0004:00001cbc       __imp_??ACPtrArray@@QAEAAPAXH@Z 5f5b3cbc   MFC42UD:MFC42uD.DLL
 0004:00001cc0       __imp_?GetCurrentMessage@CWnd@@KGPBUtagMSG@@XZ 5f5b3cc0   MFC42UD:MFC42uD.DLL
 0004:00001cc4       __imp_?Default@CWnd@@IAEJXZ 5f5b3cc4   MFC42UD:MFC42uD.DLL
 0004:00001cc8       __imp_?SendChildNotifyLastMsg@CWnd@@QAEHPAJ@Z 5f5b3cc8   MFC42UD:MFC42uD.DLL
 0004:00001ccc       __imp_??0CDialogTemplate@@QAE@PAX@Z 5f5b3ccc   MFC42UD:MFC42uD.DLL
 0004:00001cd0       __imp_?UpdateData@CWnd@@QAEHH@Z 5f5b3cd0   MFC42UD:MFC42uD.DLL
 0004:00001cd4       __imp_?Create@CDialog@@QAEHIPAVCWnd@@@Z 5f5b3cd4   MFC42UD:MFC42uD.DLL
 0004:00001cd8       __imp_?CreateIndirect@CDialog@@QAEHPAXPAVCWnd@@@Z 5f5b3cd8   MFC42UD:MFC42uD.DLL
 0004:00001cdc       __imp_?GetWindow@CWnd@@QBEPAV1@I@Z 5f5b3cdc   MFC42UD:MFC42uD.DLL
 0004:00001ce0       __imp_?GotoDlgCtrl@CDialog@@QAEXPAVCWnd@@@Z 5f5b3ce0   MFC42UD:MFC42uD.DLL
 0004:00001ce4       __imp_?GetDefID@CDialog@@QBEKXZ 5f5b3ce4   MFC42UD:MFC42uD.DLL
 0004:00001ce8       __imp_?GetAt@CDWordArray@@QBEKH@Z 5f5b3ce8   MFC42UD:MFC42uD.DLL
 0004:00001cec       __imp_??9@YGHABVCString@@0@Z 5f5b3cec   MFC42UD:MFC42uD.DLL
 0004:00001cf0       __imp_?AfxStaticDownCast@@YAPAVCObject@@PAUCRuntimeClass@@PAV1@@Z 5f5b3cf0   MFC42UD:MFC42uD.DLL
 0004:00001cf4       __imp_?PrepareCtrl@CDataExchange@@QAEPAUHWND__@@H@Z 5f5b3cf4   MFC42UD:MFC42uD.DLL
 0004:00001cf8       __imp_??6CArchive@@QAEAAV0@F@Z 5f5b3cf8   MFC42UD:MFC42uD.DLL
 0004:00001cfc       __imp_??6CArchive@@QAEAAV0@H@Z 5f5b3cfc   MFC42UD:MFC42uD.DLL
 0004:00001d00       __imp_??5CArchive@@QAEAAV0@AAF@Z 5f5b3d00   MFC42UD:MFC42uD.DLL
 0004:00001d04       __imp_??5CArchive@@QAEAAV0@AAH@Z 5f5b3d04   MFC42UD:MFC42uD.DLL
 0004:00001d08       __imp_??1CStringArray@@UAE@XZ 5f5b3d08   MFC42UD:MFC42uD.DLL
 0004:00001d0c       __imp_?GetAt@CStringArray@@QBE?AVCString@@H@Z 5f5b3d0c   MFC42UD:MFC42uD.DLL
 0004:00001d10       __imp_?GetSize@CStringArray@@QBEHXZ 5f5b3d10   MFC42UD:MFC42uD.DLL
 0004:00001d14       __imp_??0CStringArray@@QAE@XZ 5f5b3d14   MFC42UD:MFC42uD.DLL
 0004:00001d18       __imp_?RemoveAll@CStringArray@@QAEXXZ 5f5b3d18   MFC42UD:MFC42uD.DLL
 0004:00001d1c       __imp_?Add@CStringArray@@QAEHPBG@Z 5f5b3d1c   MFC42UD:MFC42uD.DLL
 0004:00001d20       __imp_?SeekToEnd@CFile@@QAEKXZ 5f5b3d20   MFC42UD:MFC42uD.DLL
 0004:00001d24       __imp_?Compare@CString@@QBEHPBG@Z 5f5b3d24   MFC42UD:MFC42uD.DLL
 0004:00001d28       __imp_??YCString@@QAEABV0@PBG@Z 5f5b3d28   MFC42UD:MFC42uD.DLL
 0004:00001d2c       __imp_?Left@CString@@QBE?AV1@H@Z 5f5b3d2c   MFC42UD:MFC42uD.DLL
 0004:00001d30       __imp_?ReverseFind@CString@@QBEHG@Z 5f5b3d30   MFC42UD:MFC42uD.DLL
 0004:00001d34       __imp_??0CRectTracker@@QAE@PBUtagRECT@@I@Z 5f5b3d34   MFC42UD:MFC42uD.DLL
 0004:00001d38       __imp_??1CBrush@@UAE@XZ    5f5b3d38   MFC42UD:MFC42uD.DLL
 0004:00001d3c       __imp_?FillRect@CDC@@QAEXPBUtagRECT@@PAVCBrush@@@Z 5f5b3d3c   MFC42UD:MFC42uD.DLL
 0004:00001d40       __imp_??0CBrush@@QAE@K@Z   5f5b3d40   MFC42UD:MFC42uD.DLL
 0004:00001d44       __imp_??9CRect@@QBEHABUtagRECT@@@Z 5f5b3d44   MFC42UD:MFC42uD.DLL
 0004:00001d48       __imp_?FromHandle@CDC@@SGPAV1@PAUHDC__@@@Z 5f5b3d48   MFC42UD:MFC42uD.DLL
 0004:00001d4c       __imp_?_mbstowcsz@@YAHPAGPBDI@Z 5f5b3d4c   MFC42UD:MFC42uD.DLL
 0004:00001d50       __imp_??1CMapStringToPtr@@UAE@XZ 5f5b3d50   MFC42UD:MFC42uD.DLL
 0004:00001d54       __imp_??0CMapStringToPtr@@QAE@H@Z 5f5b3d54   MFC42UD:MFC42uD.DLL
 0004:00001d58       __imp_?Lookup@CMapStringToPtr@@QBEHPBGAAPAX@Z 5f5b3d58   MFC42UD:MFC42uD.DLL
 0004:00001d5c       __imp_?MakeLower@CString@@QAEXXZ 5f5b3d5c   MFC42UD:MFC42uD.DLL
 0004:00001d60       __imp_?SetAt@CMapStringToPtr@@QAEXPBGPAX@Z 5f5b3d60   MFC42UD:MFC42uD.DLL
 0004:00001d64       __imp_?GetNextAssoc@CMapStringToPtr@@QBEXAAPAU__POSITION@@AAVCString@@AAPAX@Z 5f5b3d64   MFC42UD:MFC42uD.DLL
 0004:00001d68       __imp_?GetStartPosition@CMapStringToPtr@@QBEPAU__POSITION@@XZ 5f5b3d68   MFC42UD:MFC42uD.DLL
 0004:00001d6c       __imp_?GetCount@CMapStringToPtr@@QBEHXZ 5f5b3d6c   MFC42UD:MFC42uD.DLL
 0004:00001d70       __imp_??1CThreadLocalObject@@QAE@XZ 5f5b3d70   MFC42UD:MFC42uD.DLL
 0004:00001d74       __imp_?classCDC@CDC@@2UCRuntimeClass@@B 5f5b3d74   MFC42UD:MFC42uD.DLL
 0004:00001d78       __imp_?Escape@CDC@@UAEHHHPBDPAX@Z 5f5b3d78   MFC42UD:MFC42uD.DLL
 0004:00001d7c       __imp_?GrayStringW@CDC@@UAEHPAVCBrush@@P6GHPAUHDC__@@JH@ZJHHHHH@Z 5f5b3d7c   MFC42UD:MFC42uD.DLL
 0004:00001d80       __imp_?DrawTextW@CDC@@UAEHPBGHPAUtagRECT@@I@Z 5f5b3d80   MFC42UD:MFC42uD.DLL
 0004:00001d84       __imp_?TabbedTextOutW@CDC@@UAE?AVCSize@@HHPBGHHPAHH@Z 5f5b3d84   MFC42UD:MFC42uD.DLL
 0004:00001d88       __imp_?ExtTextOutW@CDC@@UAEHHHIPBUtagRECT@@PBGIPAH@Z 5f5b3d88   MFC42UD:MFC42uD.DLL
 0004:00001d8c       __imp_?TextOutW@CDC@@UAEHHHPBGH@Z 5f5b3d8c   MFC42UD:MFC42uD.DLL
 0004:00001d90       __imp_?RectVisible@CDC@@UBEHPBUtagRECT@@@Z 5f5b3d90   MFC42UD:MFC42uD.DLL
 0004:00001d94       __imp_?PtVisible@CDC@@UBEHHH@Z 5f5b3d94   MFC42UD:MFC42uD.DLL
 0004:00001d98       __imp_?GetClipBox@CDC@@UBEHPAUtagRECT@@@Z 5f5b3d98   MFC42UD:MFC42uD.DLL
 0004:00001d9c       __imp_?ScaleWindowExt@CDC@@UAE?AVCSize@@HHHH@Z 5f5b3d9c   MFC42UD:MFC42uD.DLL
 0004:00001da0       __imp_?ScaleViewportExt@CDC@@UAE?AVCSize@@HHHH@Z 5f5b3da0   MFC42UD:MFC42uD.DLL
 0004:00001da4       __imp_?SetViewportExt@CDC@@UAE?AVCSize@@HH@Z 5f5b3da4   MFC42UD:MFC42uD.DLL
 0004:00001da8       __imp_?OffsetViewportOrg@CDC@@UAE?AVCPoint@@HH@Z 5f5b3da8   MFC42UD:MFC42uD.DLL
 0004:00001dac       __imp_?SetViewportOrg@CDC@@UAE?AVCPoint@@HH@Z 5f5b3dac   MFC42UD:MFC42uD.DLL
 0004:00001db0       __imp_?SetTextColor@CDC@@UAEKK@Z 5f5b3db0   MFC42UD:MFC42uD.DLL
 0004:00001db4       __imp_?SetBkColor@CDC@@UAEKK@Z 5f5b3db4   MFC42UD:MFC42uD.DLL
 0004:00001db8       __imp_?SelectObject@CDC@@UAEPAVCFont@@PAV2@@Z 5f5b3db8   MFC42UD:MFC42uD.DLL
 0004:00001dbc       __imp_?SelectStockObject@CDC@@UAEPAVCGdiObject@@H@Z 5f5b3dbc   MFC42UD:MFC42uD.DLL
 0004:00001dc0       __imp_?RestoreDC@CDC@@UAEHH@Z 5f5b3dc0   MFC42UD:MFC42uD.DLL
 0004:00001dc4       __imp_?SaveDC@CDC@@UAEHXZ  5f5b3dc4   MFC42UD:MFC42uD.DLL
 0004:00001dc8       __imp_?ReleaseOutputDC@CDC@@UAEXXZ 5f5b3dc8   MFC42UD:MFC42uD.DLL
 0004:00001dcc       __imp_?ReleaseAttribDC@CDC@@UAEXXZ 5f5b3dcc   MFC42UD:MFC42uD.DLL
 0004:00001dd0       __imp_?SetOutputDC@CDC@@UAEXPAUHDC__@@@Z 5f5b3dd0   MFC42UD:MFC42uD.DLL
 0004:00001dd4       __imp_?SetAttribDC@CDC@@UAEXPAUHDC__@@@Z 5f5b3dd4   MFC42UD:MFC42uD.DLL
 0004:00001dd8       __imp_?Dump@CDC@@UBEXAAVCDumpContext@@@Z 5f5b3dd8   MFC42UD:MFC42uD.DLL
 0004:00001ddc       __imp_?AssertValid@CDC@@UBEXXZ 5f5b3ddc   MFC42UD:MFC42uD.DLL
 0004:00001de0       __imp_?SetViewportOrg@CDC@@QAE?AVCPoint@@UtagPOINT@@@Z 5f5b3de0   MFC42UD:MFC42uD.DLL
 0004:00001de4       __imp_??HCPoint@@QBE?AV0@UtagPOINT@@@Z 5f5b3de4   MFC42UD:MFC42uD.DLL
 0004:00001de8       __imp_?GetViewportOrg@CDC@@QBE?AVCPoint@@XZ 5f5b3de8   MFC42UD:MFC42uD.DLL
 0004:00001dec       __imp_?GetDC@CWnd@@QAEPAVCDC@@XZ 5f5b3dec   MFC42UD:MFC42uD.DLL
 0004:00001df0       __imp_?ReleaseDC@CWnd@@QAEHPAVCDC@@@Z 5f5b3df0   MFC42UD:MFC42uD.DLL
 0004:00001df4       __imp_??1CRgn@@UAE@XZ      5f5b3df4   MFC42UD:MFC42uD.DLL
 0004:00001df8       __imp_?InvalidateRgn@CWnd@@QAEXPAVCRgn@@H@Z 5f5b3df8   MFC42UD:MFC42uD.DLL
 0004:00001dfc       __imp_??BCRgn@@QBEPAUHRGN__@@XZ 5f5b3dfc   MFC42UD:MFC42uD.DLL
 0004:00001e00       __imp_?OffsetRgn@CRgn@@QAEHUtagPOINT@@@Z 5f5b3e00   MFC42UD:MFC42uD.DLL
 0004:00001e04       __imp_?CopyRgn@CRgn@@QAEHPAV1@@Z 5f5b3e04   MFC42UD:MFC42uD.DLL
 0004:00001e08       __imp_??0CRgn@@QAE@XZ      5f5b3e08   MFC42UD:MFC42uD.DLL
 0004:00001e0c       __imp_?ScrollWindow@CWnd@@QAEXHHPBUtagRECT@@0@Z 5f5b3e0c   MFC42UD:MFC42uD.DLL
 0004:00001e10       __imp_?OnChildNotify@CButton@@MAEHIIJPAJ@Z 5f5b3e10   MFC42UD:MFC42uD.DLL
 0004:00001e14       __imp_?GetRuntimeClass@CButton@@UBEPAUCRuntimeClass@@XZ 5f5b3e14   MFC42UD:MFC42uD.DLL
 0004:00001e18       __imp_??1CButton@@UAE@XZ   5f5b3e18   MFC42UD:MFC42uD.DLL
 0004:00001e1c       __imp_??0CButton@@QAE@XZ   5f5b3e1c   MFC42UD:MFC42uD.DLL
 0004:00001e20       __imp_?GetState@CButton@@QBEIXZ 5f5b3e20   MFC42UD:MFC42uD.DLL
 0004:00001e24       __imp_?GetNearestColor@CDC@@QBEKK@Z 5f5b3e24   MFC42UD:MFC42uD.DLL
 0004:00001e28       __imp_?RealizePalette@CDC@@QAEIXZ 5f5b3e28   MFC42UD:MFC42uD.DLL
 0004:00001e2c       __imp_?SelectPalette@CDC@@QAEPAVCPalette@@PAV2@H@Z 5f5b3e2c   MFC42UD:MFC42uD.DLL
 0004:00001e30       __imp_?FromHandle@CPalette@@SGPAV1@PAUHPALETTE__@@@Z 5f5b3e30   MFC42UD:MFC42uD.DLL
 0004:00001e34       __imp_??1CComboBox@@UAE@XZ 5f5b3e34   MFC42UD:MFC42uD.DLL
 0004:00001e38       __imp_??0CComboBox@@QAE@XZ 5f5b3e38   MFC42UD:MFC42uD.DLL
 0004:00001e3c       __imp_?SubclassDlgItem@CWnd@@QAEHIPAV1@@Z 5f5b3e3c   MFC42UD:MFC42uD.DLL
 0004:00001e40       __imp_?SetCurSel@CComboBox@@QAEHH@Z 5f5b3e40   MFC42UD:MFC42uD.DLL
 0004:00001e44       __imp_?SetItemData@CComboBox@@QAEHHK@Z 5f5b3e44   MFC42UD:MFC42uD.DLL
 0004:00001e48       __imp_?AddString@CComboBox@@QAEHPBG@Z 5f5b3e48   MFC42UD:MFC42uD.DLL
 0004:00001e4c       __imp_?GetItemData@CComboBox@@QBEKH@Z 5f5b3e4c   MFC42UD:MFC42uD.DLL
 0004:00001e50       __imp_?GetCount@CComboBox@@QBEHXZ 5f5b3e50   MFC42UD:MFC42uD.DLL
 0004:00001e54       __imp_?GetCurSel@CComboBox@@QBEHXZ 5f5b3e54   MFC42UD:MFC42uD.DLL
 0004:00001e58       __imp_?DDX_Control@@YGXPAVCDataExchange@@HAAVCWnd@@@Z 5f5b3e58   MFC42UD:MFC42uD.DLL
 0004:00001e5c       __imp_?SelectObject@CDC@@QAEPAVCPen@@PAV2@@Z 5f5b3e5c   MFC42UD:MFC42uD.DLL
 0004:00001e60       __imp_?LineTo@CDC@@QAEHHH@Z 5f5b3e60   MFC42UD:MFC42uD.DLL
 0004:00001e64       __imp_?MoveTo@CDC@@QAE?AVCPoint@@HH@Z 5f5b3e64   MFC42UD:MFC42uD.DLL
 0004:00001e68       __imp_??0CPen@@QAE@HHK@Z   5f5b3e68   MFC42UD:MFC42uD.DLL
 0004:00001e6c       __imp_?FrameRect@CDC@@QAEXPBUtagRECT@@PAVCBrush@@@Z 5f5b3e6c   MFC42UD:MFC42uD.DLL
 0004:00001e70       __imp_??1CStatic@@UAE@XZ   5f5b3e70   MFC42UD:MFC42uD.DLL
 0004:00001e74       __imp_??0CStatic@@QAE@XZ   5f5b3e74   MFC42UD:MFC42uD.DLL
 0004:00001e78       __imp_?DeleteItem@CComboBox@@UAEXPAUtagDELETEITEMSTRUCT@@@Z 5f5b3e78   MFC42UD:MFC42uD.DLL
 0004:00001e7c       __imp_?CompareItem@CComboBox@@UAEHPAUtagCOMPAREITEMSTRUCT@@@Z 5f5b3e7c   MFC42UD:MFC42uD.DLL
 0004:00001e80       __imp_?MeasureItem@CComboBox@@UAEXPAUtagMEASUREITEMSTRUCT@@@Z 5f5b3e80   MFC42UD:MFC42uD.DLL
 0004:00001e84       __imp_?DrawItem@CComboBox@@UAEXPAUtagDRAWITEMSTRUCT@@@Z 5f5b3e84   MFC42UD:MFC42uD.DLL
 0004:00001e88       __imp_?OnChildNotify@CComboBox@@MAEHIIJPAJ@Z 5f5b3e88   MFC42UD:MFC42uD.DLL
 0004:00001e8c       __imp_?GetRuntimeClass@CComboBox@@UBEPAUCRuntimeClass@@XZ 5f5b3e8c   MFC42UD:MFC42uD.DLL
 0004:00001e90       __imp_?SelectObject@CDC@@QAEPAVCBitmap@@PAV2@@Z 5f5b3e90   MFC42UD:MFC42uD.DLL
 0004:00001e94       __imp_?BitBlt@CDC@@QAEHHHHHPAV1@HHK@Z 5f5b3e94   MFC42UD:MFC42uD.DLL
 0004:00001e98       __imp_?CreateCompatibleDC@CDC@@QAEHPAV1@@Z 5f5b3e98   MFC42UD:MFC42uD.DLL
 0004:00001e9c       __imp_?GetPixel@CDC@@QBEKHH@Z 5f5b3e9c   MFC42UD:MFC42uD.DLL
 0004:00001ea0       __imp_?CreateBitmap@CBitmap@@QAEHHHIIPBX@Z 5f5b3ea0   MFC42UD:MFC42uD.DLL
 0004:00001ea4       __imp_?GetObjectW@CGdiObject@@QBEHHPAX@Z 5f5b3ea4   MFC42UD:MFC42uD.DLL
 0004:00001ea8       __imp_?GetSafeHdc@CDC@@QBEPAUHDC__@@XZ 5f5b3ea8   MFC42UD:MFC42uD.DLL
 0004:00001eac       __imp_?ResetContent@CComboBox@@QAEXXZ 5f5b3eac   MFC42UD:MFC42uD.DLL
 0004:00001eb0       __imp_?SelectString@CComboBox@@QAEHHPBG@Z 5f5b3eb0   MFC42UD:MFC42uD.DLL
 0004:00001eb4       __imp_?FindString@CComboBox@@QBEHHPBG@Z 5f5b3eb4   MFC42UD:MFC42uD.DLL
 0004:00001eb8       __imp_?GetLBText@CComboBox@@QBEXHAAVCString@@@Z 5f5b3eb8   MFC42UD:MFC42uD.DLL
 0004:00001ebc       __imp_?DrawFocusRect@CDC@@QAEXPBUtagRECT@@@Z 5f5b3ebc   MFC42UD:MFC42uD.DLL
 0004:00001ec0       __imp_?GetTextMetricsW@CDC@@QBEHPAUtagTEXTMETRICW@@@Z 5f5b3ec0   MFC42UD:MFC42uD.DLL
 0004:00001ec4       __imp_?InsertString@CComboBox@@QAEHHPBG@Z 5f5b3ec4   MFC42UD:MFC42uD.DLL
 0004:00001ec8       __imp_?SetEditSel@CComboBox@@QAEHHH@Z 5f5b3ec8   MFC42UD:MFC42uD.DLL
 0004:00001ecc       __imp_?FindStringExact@CComboBox@@QBEHHPBG@Z 5f5b3ecc   MFC42UD:MFC42uD.DLL
 0004:00001ed0       __imp_?CreateFontIndirectW@CFont@@QAEHPBUtagLOGFONTW@@@Z 5f5b3ed0   MFC42UD:MFC42uD.DLL
 0004:00001ed4       __imp_?DeleteObject@CGdiObject@@QAEHXZ 5f5b3ed4   MFC42UD:MFC42uD.DLL
 0004:00001ed8       __imp_?SetBkMode@CDC@@QAEHH@Z 5f5b3ed8   MFC42UD:MFC42uD.DLL
 0004:00001edc       __imp_?GetTextExtent@CDC@@QBE?AVCSize@@PBGH@Z 5f5b3edc   MFC42UD:MFC42uD.DLL
 0004:00001ee0       __imp_?SetCheck@CButton@@QAEXH@Z 5f5b3ee0   MFC42UD:MFC42uD.DLL
 0004:00001ee4       __imp_?GetCheck@CButton@@QBEHXZ 5f5b3ee4   MFC42UD:MFC42uD.DLL
 0004:00001ee8       __imp_?GetStatus@CFile@@SGHPBGAAUCFileStatus@@@Z 5f5b3ee8   MFC42UD:MFC42uD.DLL
 0004:00001eec       __imp_??0CTime@@QAE@XZ     5f5b3eec   MFC42UD:MFC42uD.DLL
 0004:00001ef0       __imp_?GetPathName@CFileDialog@@QBE?AVCString@@XZ 5f5b3ef0   MFC42UD:MFC42uD.DLL
 0004:00001ef4       __imp_?DoModal@CFileDialog@@UAEHXZ 5f5b3ef4   MFC42UD:MFC42uD.DLL
 0004:00001ef8       __imp_??0CFileDialog@@QAE@HPBG0K0PAVCWnd@@@Z 5f5b3ef8   MFC42UD:MFC42uD.DLL
 0004:00001efc       __imp_??0CMemFile@@QAE@I@Z 5f5b3efc   MFC42UD:MFC42uD.DLL
 0004:00001f00       __imp_?AfxWndProc@@YGJPAUHWND__@@IIJ@Z 5f5b3f00   MFC42UD:MFC42uD.DLL
 0004:00001f04       __imp_??1CWinApp@@UAE@XZ   5f5b3f04   MFC42UD:MFC42uD.DLL
 0004:00001f08       __imp_??0CWinApp@@QAE@PBG@Z 5f5b3f08   MFC42UD:MFC42uD.DLL
 0004:00001f0c       __imp_??0AFX_MAINTAIN_STATE@@QAE@PAVAFX_MODULE_STATE@@@Z 5f5b3f0c   MFC42UD:MFC42uD.DLL
 0004:00001f10       __imp_??1AFX_MAINTAIN_STATE@@QAE@XZ 5f5b3f10   MFC42UD:MFC42uD.DLL
 0004:00001f14       __imp_?AfxGetAppModuleState@@YGPAVAFX_MODULE_STATE@@XZ 5f5b3f14   MFC42UD:MFC42uD.DLL
 0004:00001f18       __imp_?AfxInitExtensionModule@@YGHAAUAFX_EXTENSION_MODULE@@PAUHINSTANCE__@@@Z 5f5b3f18   MFC42UD:MFC42uD.DLL
 0004:00001f1c       __imp_?AfxCoreInitModule@@YGXXZ 5f5b3f1c   MFC42UD:MFC42uD.DLL
 0004:00001f20       __imp_?afxChNil@@3GA       5f5b3f20   MFC42UD:MFC42uD.DLL
 0004:00001f24       __imp_?AfxWinInit@@YGHPAUHINSTANCE__@@0PAGH@Z 5f5b3f24   MFC42UD:MFC42uD.DLL
 0004:00001f28       __imp_??2CObject@@SGPAXI@Z 5f5b3f28   MFC42UD:MFC42uD.DLL
 0004:00001f2c       __imp_??0CDynLinkLibrary@@QAE@AAUAFX_EXTENSION_MODULE@@H@Z 5f5b3f2c   MFC42UD:MFC42uD.DLL
 0004:00001f30       __imp_?AfxTermExtensionModule@@YGXAAUAFX_EXTENSION_MODULE@@H@Z 5f5b3f30   MFC42UD:MFC42uD.DLL
 0004:00001f34       __imp_?AfxTermThread@@YGXPAUHINSTANCE__@@@Z 5f5b3f34   MFC42UD:MFC42uD.DLL
 0004:00001f38       __imp_??3CObject@@SGXPAX@Z 5f5b3f38   MFC42UD:MFC42uD.DLL
 0004:00001f3c       __imp_?AfxGetModuleState@@YGPAVAFX_MODULE_STATE@@XZ 5f5b3f3c   MFC42UD:MFC42uD.DLL
 0004:00001f40       __imp_?AfxSetModuleState@@YGPAVAFX_MODULE_STATE@@PAV1@@Z 5f5b3f40   MFC42UD:MFC42uD.DLL
 0004:00001f44       __imp_?AfxAssertFailedLine@@YGHPBDH@Z 5f5b3f44   MFC42UD:MFC42uD.DLL
 0004:00001f48       __imp_?Delete@CException@@QAEXXZ 5f5b3f48   MFC42UD:MFC42uD.DLL
 0004:00001f4c       __imp_?classCException@CException@@2UCRuntimeClass@@B 5f5b3f4c   MFC42UD:MFC42uD.DLL
 0004:00001f50       __imp_?IsKindOf@CObject@@QBEHPBUCRuntimeClass@@@Z 5f5b3f50   MFC42UD:MFC42uD.DLL
 0004:00001f54       __imp_?AfxOleLockApp@@YGXXZ 5f5b3f54   MFC42UD:MFC42uD.DLL
 0004:00001f58       __imp_?AfxOleUnlockApp@@YGXXZ 5f5b3f58   MFC42UD:MFC42uD.DLL
 0004:00001f5c       __imp_?AfxAssertValidObject@@YGXPBVCObject@@PBDH@Z 5f5b3f5c   MFC42UD:MFC42uD.DLL
 0004:00001f60       __imp_?IsInvokeAllowed@CCmdTarget@@UAEHJ@Z 5f5b3f60   MFC42UD:MFC42uD.DLL
 0004:00001f64       __imp_?OnCmdMsg@CCmdTarget@@UAEHIHPAXPAUAFX_CMDHANDLERINFO@@@Z 5f5b3f64   MFC42UD:MFC42uD.DLL
 0004:00001f68       __imp_?OnFinalRelease@CCmdTarget@@UAEXXZ 5f5b3f68   MFC42UD:MFC42uD.DLL
 0004:00001f6c       __imp_?GetTypeLibCache@CCmdTarget@@UAEPAVCTypeLibCache@@XZ 5f5b3f6c   MFC42UD:MFC42uD.DLL
 0004:00001f70       __imp_?GetDispatchIID@CCmdTarget@@UAEHPAU_GUID@@@Z 5f5b3f70   MFC42UD:MFC42uD.DLL
 0004:00001f74       __imp_?GetTypeInfoCount@CCmdTarget@@UAEIXZ 5f5b3f74   MFC42UD:MFC42uD.DLL
 0004:00001f78       __imp_?GetCommandMap@CCmdTarget@@MBEPBUAFX_OLECMDMAP@@XZ 5f5b3f78   MFC42UD:MFC42uD.DLL
 0004:00001f7c       __imp_?GetTypeLib@CCmdTarget@@UAEJKPAPAUITypeLib@@@Z 5f5b3f7c   MFC42UD:MFC42uD.DLL
 0004:00001f80       __imp_?GetMessageMap@CCmdTarget@@MBEPBUAFX_MSGMAP@@XZ 5f5b3f80   MFC42UD:MFC42uD.DLL
 0004:00001f84       __imp_?GetEventSinkMap@CCmdTarget@@MBEPBUAFX_EVENTSINKMAP@@XZ 5f5b3f84   MFC42UD:MFC42uD.DLL
 0004:00001f88       __imp_?GetDispatchMap@CCmdTarget@@MBEPBUAFX_DISPMAP@@XZ 5f5b3f88   MFC42UD:MFC42uD.DLL
 0004:00001f8c       __imp_?GetConnectionMap@CCmdTarget@@MBEPBUAFX_CONNECTIONMAP@@XZ 5f5b3f8c   MFC42UD:MFC42uD.DLL
 0004:00001f90       __imp_?GetExtraConnectionPoints@CCmdTarget@@MAEHPAVCPtrArray@@@Z 5f5b3f90   MFC42UD:MFC42uD.DLL
 0004:00001f94       __imp_?OnCreateAggregates@CCmdTarget@@UAEHXZ 5f5b3f94   MFC42UD:MFC42uD.DLL
 0004:00001f98       __imp_?GetInterfaceHook@CCmdTarget@@UAEPAUIUnknown@@PBX@Z 5f5b3f98   MFC42UD:MFC42uD.DLL
 0004:00001f9c       __imp_?AfxTrace@@YAXPBGZZ  5f5b3f9c   MFC42UD:MFC42uD.DLL
 0004:00001fa0       __imp_?GetConnectionHook@CCmdTarget@@MAEPAUIConnectionPoint@@ABU_GUID@@@Z 5f5b3fa0   MFC42UD:MFC42uD.DLL
 0004:00001fa4       __imp_?AfxOleSetUserCtrl@@YGXH@Z 5f5b3fa4   MFC42UD:MFC42uD.DLL
 0004:00001fa8       __imp_?AfxOleGetMessageFilter@@YGPAVCOleMessageFilter@@XZ 5f5b3fa8   MFC42UD:MFC42uD.DLL
 0004:00001fac       __imp_?AfxGetThread@@YGPAVCWinThread@@XZ 5f5b3fac   MFC42UD:MFC42uD.DLL
 0004:00001fb0       __imp_??2CObject@@SGPAXIPBDH@Z 5f5b3fb0   MFC42UD:MFC42uD.DLL
 0004:00001fb4       __imp_??1CDC@@UAE@XZ       5f5b3fb4   MFC42UD:MFC42uD.DLL
 0004:00001fb8       __imp_??1CView@@UAE@XZ     5f5b3fb8   MFC42UD:MFC42uD.DLL
 0004:00001fbc       __imp_??1CDWordArray@@UAE@XZ 5f5b3fbc   MFC42UD:MFC42uD.DLL
 0004:00001fc0       __imp_??1CCmdTarget@@UAE@XZ 5f5b3fc0   MFC42UD:MFC42uD.DLL
 0004:00001fc4       __imp_??1CString@@QAE@XZ   5f5b3fc4   MFC42UD:MFC42uD.DLL
 0004:00001fc8       __imp_??1CMemFile@@UAE@XZ  5f5b3fc8   MFC42UD:MFC42uD.DLL
 0004:00001fcc       __imp_??1AFX_MODULE_STATE@@UAE@XZ 5f5b3fcc   MFC42UD:MFC42uD.DLL
 0004:00001fd0       __imp_??2@YAPAXI@Z         5f5b3fd0   MFC42UD:MFC42uD.DLL
 0004:00001fd4       __imp_??3@YAXPAX@Z         5f5b3fd4   MFC42UD:MFC42uD.DLL
 0004:00001fd8       __imp_?CanUndo@CRichEditCtrl@@QBEHXZ 5f5b3fd8   MFC42UD:MFC42uD.DLL
 0004:00001fdc       __imp_??0AFX_MODULE_STATE@@QAE@HP6GJPAUHWND__@@IIJ@ZKH@Z 5f5b3fdc   MFC42UD:MFC42uD.DLL
 0004:00001fe0       __imp_?Cut@CRichEditCtrl@@QAEXXZ 5f5b3fe0   MFC42UD:MFC42uD.DLL
 0004:00001fe4       __imp_?DPtoLP@CDC@@QBEXPAUtagRECT@@@Z 5f5b3fe4   MFC42UD:MFC42uD.DLL
 0004:00001fe8       __imp_?GetDeviceCaps@CDC@@QBEHH@Z 5f5b3fe8   MFC42UD:MFC42uD.DLL
 0004:00001fec       __imp_?Lookup@CMapPtrToPtr@@QBEHPAXAAPAX@Z 5f5b3fec   MFC42UD:MFC42uD.DLL
 0004:00001ff0       \177MFC42uD_NULL_THUNK_DATA 5f5b3ff0   MFC42UD:MFC42uD.DLL
 0004:00001ff4       __imp__swprintf            5f5b3ff4   msvcrtd:MSVCRTD.dll
 0004:00001ff8       __imp___adjust_fdiv        5f5b3ff8   msvcrtd:MSVCRTD.dll
 0004:00001ffc       __imp___malloc_dbg         5f5b3ffc   msvcrtd:MSVCRTD.dll
 0004:00002000       __imp___initterm           5f5b4000   msvcrtd:MSVCRTD.dll
 0004:00002004       __imp___free_dbg           5f5b4004   msvcrtd:MSVCRTD.dll
 0004:00002008       __imp_??1type_info@@UAE@XZ 5f5b4008   msvcrtd:MSVCRTD.dll
 0004:0000200c       __imp_?terminate@@YAXXZ    5f5b400c   msvcrtd:MSVCRTD.dll
 0004:00002010       __imp___except_handler3    5f5b4010   msvcrtd:MSVCRTD.dll
 0004:00002014       __imp___onexit             5f5b4014   msvcrtd:MSVCRTD.dll
 0004:00002018       __imp____dllonexit         5f5b4018   msvcrtd:MSVCRTD.dll
 0004:0000201c       __imp___itow               5f5b401c   msvcrtd:MSVCRTD.dll
 0004:00002020       __imp__wcsrchr             5f5b4020   msvcrtd:MSVCRTD.dll
 0004:00002024       __imp___wcsicmp            5f5b4024   msvcrtd:MSVCRTD.dll
 0004:00002028       __imp__wcscmp              5f5b4028   msvcrtd:MSVCRTD.dll
 0004:0000202c       __imp___ltow               5f5b402c   msvcrtd:MSVCRTD.dll
 0004:00002030       __imp___ultow              5f5b4030   msvcrtd:MSVCRTD.dll
 0004:00002034       __imp__iswspace            5f5b4034   msvcrtd:MSVCRTD.dll
 0004:00002038       __imp__iswdigit            5f5b4038   msvcrtd:MSVCRTD.dll
 0004:0000203c       __imp__wcstol              5f5b403c   msvcrtd:MSVCRTD.dll
 0004:00002040       __imp__wcstoul             5f5b4040   msvcrtd:MSVCRTD.dll
 0004:00002044       __imp__malloc              5f5b4044   msvcrtd:MSVCRTD.dll
 0004:00002048       __imp__ceil                5f5b4048   msvcrtd:MSVCRTD.dll
 0004:0000204c       __imp__fabs                5f5b404c   msvcrtd:MSVCRTD.dll
 0004:00002050       __imp__floor               5f5b4050   msvcrtd:MSVCRTD.dll
 0004:00002054       __imp__modf                5f5b4054   msvcrtd:MSVCRTD.dll
 0004:00002058       __imp__wcsftime            5f5b4058   msvcrtd:MSVCRTD.dll
 0004:0000205c       __imp__localtime           5f5b405c   msvcrtd:MSVCRTD.dll
 0004:00002060       __imp__time                5f5b4060   msvcrtd:MSVCRTD.dll
 0004:00002064       __imp__labs                5f5b4064   msvcrtd:MSVCRTD.dll
 0004:00002068       __imp___ftol               5f5b4068   msvcrtd:MSVCRTD.dll
 0004:0000206c       __imp__wcscat              5f5b406c   msvcrtd:MSVCRTD.dll
 0004:00002070       __imp__wcscpy              5f5b4070   msvcrtd:MSVCRTD.dll
 0004:00002074       __imp__wcschr              5f5b4074   msvcrtd:MSVCRTD.dll
 0004:00002078       __imp__realloc             5f5b4078   msvcrtd:MSVCRTD.dll
 0004:0000207c       __imp___wcsdup             5f5b407c   msvcrtd:MSVCRTD.dll
 0004:00002080       __imp__free                5f5b4080   msvcrtd:MSVCRTD.dll
 0004:00002084       __imp__memset              5f5b4084   msvcrtd:MSVCRTD.dll
 0004:00002088       __imp__strlen              5f5b4088   msvcrtd:MSVCRTD.dll
 0004:0000208c       __imp__wcslen              5f5b408c   msvcrtd:MSVCRTD.dll
 0004:00002090       __imp__memcpy              5f5b4090   msvcrtd:MSVCRTD.dll
 0004:00002094       __imp__memcmp              5f5b4094   msvcrtd:MSVCRTD.dll
 0004:00002098       __imp___CxxThrowException@8 5f5b4098   msvcrtd:MSVCRTD.dll
 0004:0000209c       __imp___purecall           5f5b409c   msvcrtd:MSVCRTD.dll
 0004:000020a0       __imp__wcsncmp             5f5b40a0   msvcrtd:MSVCRTD.dll
 0004:000020a4       __imp__memmove             5f5b40a4   msvcrtd:MSVCRTD.dll
 0004:000020a8       __imp____CxxFrameHandler   5f5b40a8   msvcrtd:MSVCRTD.dll
 0004:000020ac       \177MSVCRTD_NULL_THUNK_DATA 5f5b40ac   msvcrtd:MSVCRTD.dll
 0004:000020b0       __imp__EnableWindow@8      5f5b40b0   user32:USER32.dll
 0004:000020b4       __imp__wsprintfW           5f5b40b4   user32:USER32.dll
 0004:000020b8       __imp__CopyAcceleratorTableW@12 5f5b40b8   user32:USER32.dll
 0004:000020bc       __imp__GetActiveWindow@0   5f5b40bc   user32:USER32.dll
 0004:000020c0       __imp__IsWindow@4          5f5b40c0   user32:USER32.dll
 0004:000020c4       __imp__CopyRect@8          5f5b40c4   user32:USER32.dll
 0004:000020c8       __imp__IsClipboardFormatAvailable@4 5f5b40c8   user32:USER32.dll
 0004:000020cc       __imp__SendMessageW@16     5f5b40cc   user32:USER32.dll
 0004:000020d0       __imp__RegisterClipboardFormatW@4 5f5b40d0   user32:USER32.dll
 0004:000020d4       __imp__InSendMessage@0     5f5b40d4   user32:USER32.dll
 0004:000020d8       __imp__ReleaseCapture@0    5f5b40d8   user32:USER32.dll
 0004:000020dc       __imp__PeekMessageW@20     5f5b40dc   user32:USER32.dll
 0004:000020e0       __imp__GetKeyState@4       5f5b40e0   user32:USER32.dll
 0004:000020e4       __imp__GetCursorPos@4      5f5b40e4   user32:USER32.dll
 0004:000020e8       __imp__DispatchMessageW@4  5f5b40e8   user32:USER32.dll
 0004:000020ec       __imp__PostThreadMessageW@16 5f5b40ec   user32:USER32.dll
 0004:000020f0       __imp__DestroyMenu@4       5f5b40f0   user32:USER32.dll
 0004:000020f4       __imp__CreateMenu@0        5f5b40f4   user32:USER32.dll
 0004:000020f8       __imp__IsMenu@4            5f5b40f8   user32:USER32.dll
 0004:000020fc       __imp__InsertMenuW@20      5f5b40fc   user32:USER32.dll
 0004:00002100       __imp__GetMenuItemID@8     5f5b4100   user32:USER32.dll
 0004:00002104       __imp__AppendMenuW@16      5f5b4104   user32:USER32.dll
 0004:00002108       __imp__GetMenuItemCount@4  5f5b4108   user32:USER32.dll
 0004:0000210c       __imp__GetMenuStringW@20   5f5b410c   user32:USER32.dll
 0004:00002110       __imp__GetSubMenu@8        5f5b4110   user32:USER32.dll
 0004:00002114       __imp__GetMenuState@12     5f5b4114   user32:USER32.dll
 0004:00002118       __imp__RemoveMenu@12       5f5b4118   user32:USER32.dll
 0004:0000211c       __imp__IsRectEmpty@4       5f5b411c   user32:USER32.dll
 0004:00002120       __imp__SetScrollRange@20   5f5b4120   user32:USER32.dll
 0004:00002124       __imp__SetFocus@4          5f5b4124   user32:USER32.dll
 0004:00002128       __imp__GetFocus@0          5f5b4128   user32:USER32.dll
 0004:0000212c       __imp__GetParent@4         5f5b412c   user32:USER32.dll
 0004:00002130       __imp__DestroyIcon@4       5f5b4130   user32:USER32.dll
 0004:00002134       __imp__GetWindowTextW@12   5f5b4134   user32:USER32.dll
 0004:00002138       __imp__GetWindowTextLengthW@4 5f5b4138   user32:USER32.dll
 0004:0000213c       __imp__RegisterWindowMessageW@4 5f5b413c   user32:USER32.dll
 0004:00002140       __imp__CountClipboardFormats@0 5f5b4140   user32:USER32.dll
 0004:00002144       __imp__GetSystemMetrics@4  5f5b4144   user32:USER32.dll
 0004:00002148       __imp__MessageBeep@4       5f5b4148   user32:USER32.dll
 0004:0000214c       __imp__GetWindow@8         5f5b414c   user32:USER32.dll
 0004:00002150       __imp__SetWindowPos@28     5f5b4150   user32:USER32.dll
 0004:00002154       __imp__MapDialogRect@8     5f5b4154   user32:USER32.dll
 0004:00002158       __imp__GetWindowLongW@8    5f5b4158   user32:USER32.dll
 0004:0000215c       __imp__GetDlgItem@8        5f5b415c   user32:USER32.dll
 0004:00002160       __imp__CharNextW@4         5f5b4160   user32:USER32.dll
 0004:00002164       __imp__IsWindowVisible@4   5f5b4164   user32:USER32.dll
 0004:00002168       __imp__ReleaseDC@8         5f5b4168   user32:USER32.dll
 0004:0000216c       __imp__GetDC@4             5f5b416c   user32:USER32.dll
 0004:00002170       __imp__IsDialogMessageW@8  5f5b4170   user32:USER32.dll
 0004:00002174       __imp__GetDlgCtrlID@4      5f5b4174   user32:USER32.dll
 0004:00002178       __imp__ClipCursor@4        5f5b4178   user32:USER32.dll
 0004:0000217c       __imp__InflateRect@12      5f5b417c   user32:USER32.dll
 0004:00002180       __imp__DestroyWindow@4     5f5b4180   user32:USER32.dll
 0004:00002184       __imp__SetWindowLongW@12   5f5b4184   user32:USER32.dll
 0004:00002188       __imp__DefWindowProcW@16   5f5b4188   user32:USER32.dll
 0004:0000218c       __imp__CallWindowProcW@20  5f5b418c   user32:USER32.dll
 0004:00002190       __imp__MoveWindow@24       5f5b4190   user32:USER32.dll
 0004:00002194       __imp__SetParent@8         5f5b4194   user32:USER32.dll
 0004:00002198       __imp__DrawEdge@16         5f5b4198   user32:USER32.dll
 0004:0000219c       __imp__ShowWindow@8        5f5b419c   user32:USER32.dll
 0004:000021a0       __imp__GetWindowRect@8     5f5b41a0   user32:USER32.dll
 0004:000021a4       __imp__ValidateRect@8      5f5b41a4   user32:USER32.dll
 0004:000021a8       __imp__GetUpdateRgn@12     5f5b41a8   user32:USER32.dll
 0004:000021ac       __imp__HideCaret@4         5f5b41ac   user32:USER32.dll
 0004:000021b0       __imp__ShowCaret@4         5f5b41b0   user32:USER32.dll
 0004:000021b4       __imp__GetMenu@4           5f5b41b4   user32:USER32.dll
 0004:000021b8       __imp__GetDesktopWindow@0  5f5b41b8   user32:USER32.dll
 0004:000021bc       __imp__GetClassNameW@12    5f5b41bc   user32:USER32.dll
 0004:000021c0       __imp__PostMessageW@16     5f5b41c0   user32:USER32.dll
 0004:000021c4       __imp__IntersectRect@12    5f5b41c4   user32:USER32.dll
 0004:000021c8       __imp__ScreenToClient@8    5f5b41c8   user32:USER32.dll
 0004:000021cc       __imp__IsChild@8           5f5b41cc   user32:USER32.dll
 0004:000021d0       __imp__EnumChildWindows@12 5f5b41d0   user32:USER32.dll
 0004:000021d4       __imp__LockWindowUpdate@4  5f5b41d4   user32:USER32.dll
 0004:000021d8       __imp__GetSysColor@4       5f5b41d8   user32:USER32.dll
 0004:000021dc       __imp__SetCursor@4         5f5b41dc   user32:USER32.dll
 0004:000021e0       __imp__LoadCursorW@8       5f5b41e0   user32:USER32.dll
 0004:000021e4       __imp__PtInRect@12         5f5b41e4   user32:USER32.dll
 0004:000021e8       __imp__SetRectEmpty@4      5f5b41e8   user32:USER32.dll
 0004:000021ec       __imp__OffsetRect@12       5f5b41ec   user32:USER32.dll
 0004:000021f0       __imp__GetDialogBaseUnits@0 5f5b41f0   user32:USER32.dll
 0004:000021f4       \177USER32_NULL_THUNK_DATA 5f5b41f4   user32:USER32.dll

 entry point at        0001:0004a050

 Static symbols

 0001:00047324       _$E355                     5f548324 f ppgpict.obj
 0001:0004733e       _$E351                     5f54833e f ppgpict.obj
 0001:00047369       _$E354                     5f548369 f ppgpict.obj
 0001:00047386       _$E352                     5f548386 f ppgpict.obj
 0001:000459e2       _$E355                     5f5469e2 f ppgfont.obj
 0001:000459fc       _$E351                     5f5469fc f ppgfont.obj
 0001:00045a27       _$E354                     5f546a27 f ppgfont.obj
 0001:00045a44       _$E352                     5f546a44 f ppgfont.obj
 0001:0004299d       _$E355                     5f54399d f ppgcolor.obj
 0001:000429b7       _$E351                     5f5439b7 f ppgcolor.obj
 0001:000429e2       _$E354                     5f5439e2 f ppgcolor.obj
 0001:000429ff       _$E352                     5f5439ff f ppgcolor.obj
 0001:0003fc50       _$E354                     5f540c50 f ctlquick.obj
 0001:0003fc6a       _$E351                     5f540c6a f ctlquick.obj
 0001:0003fc7a       _$E353                     5f540c7a f ctlquick.obj
 0001:0003fc97       _$E352                     5f540c97 f ctlquick.obj
 0001:0003bb31       ?CountPrefixedStringA@@YAPAXPBD@Z 5f53cb31 f olepset.obj
 0001:0003bb8b       ?CountPrefixedStringW@@YAPAXPBG@Z 5f53cb8b f olepset.obj
 0001:0003c15b       ?ConvertStringProp@@YAPAEPAEKKI@Z 5f53d15b f olepset.obj
 0001:0003d7f7       ?WriteNameDictEntry@@YAHPAUIStream@@KAAVCString@@@Z 5f53e7f7 f olepset.obj
 0001:0003a38a       ?_OffsetTrackerRect@@YGXAAVCRect@@PAVCWnd@@@Z 5f53b38a f ctltrack.obj
 0001:000361a7       ?_AfxGetSizeOfVarType@@YGIG@Z 5f5371a7 f ctlpset.obj
 0001:000325ed       ?ToggleBorderStyle@@YAXPAVCWnd@@@Z 5f5335ed f ctlprop.obj
 0001:00032640       ?ToggleAppearance@@YAXPAVCWnd@@@Z 5f533640 f ctlprop.obj
 0001:000352fb       ?AfxTransferFileContent@@YAKPAVCFile@@0K@Z 5f5362fb f ctlprop.obj
 0001:0002cba6       _$E352                     5f52dba6 f ctlppg.obj
 0001:0002d44d       ?_CleanupDDPs@@YAXAAVCPtrArray@@@Z 5f52e44d f ctlppg.obj
 0001:00030801       _$E354                     5f531801 f ctlppg.obj
 0001:0002c53d       ?_afxPX_DataPath@@YAHPAVCPropExchange@@PBGAAVCDataPathProperty@@GPBX@Z 5f52d53d f ctlpropx.obj
 0001:00023592       ?PostTrailByte@@YAXPAVCWnd@@E@Z 5f524592 f ctlevent.obj
 0001:0001c444       ?ReleaseParkingWindow@@YGXXZ 5f51d444 f ctlcore.obj
 0001:0001eb8c       ?_AfxFastBeginPaint@@YGPAUHDC__@@PAUHWND__@@PAUtagPAINTSTRUCT@@@Z 5f51fb8c f ctlcore.obj
 0001:0001ec3d       ?_AfxFastEndPaint@@YGHPAUHWND__@@PBUtagPAINTSTRUCT@@@Z 5f51fc3d f ctlcore.obj
 0001:0001f528       ?GetParkingWindow@@YGPAUHWND__@@XZ 5f520528 f ctlcore.obj
 0001:0006397c       ?_AfxTrySPForBindHost@@YAPAUIBindHost@@PAUIServiceProvider@@@Z 5f56497c f oleasmon.obj
 0001:000639e7       ?_AfxTryQIForBindHost@@YAPAUIBindHost@@PAUIUnknown@@@Z 5f5649e7 f oleasmon.obj
 0001:00014027       ?NextControl@@YAPAVCWnd@@PAV1@0I@Z 5f515027 f occdlg.obj
 0001:00014185       ?GetChildControl@@YAPAVCWnd@@PAV1@0@Z 5f515185 f occdlg.obj
 0001:0001426c       ?GetDlgCode@@YAKPAVCWnd@@PAUtagMSG@@@Z 5f51526c f occdlg.obj
 0001:00014898       ?DlgSetFocus@@YAXPAVCWnd@@@Z 5f515898 f occdlg.obj
 0001:000148da       ?GetNextMnem@@YAPAVCWnd@@PAV1@0PAUtagMSG@@@Z 5f5158da f occdlg.obj
 0001:000149b0       ?FindNextMnem@@YAPAVCWnd@@PAV1@0PAUtagMSG@@@Z 5f5159b0 f occdlg.obj
 0001:00014aa7       ?OriginalDefButton@@YAHPAVCWnd@@@Z 5f515aa7 f occdlg.obj
 0001:00014af9       ?CheckDefPushButton@@YAXPAVCWnd@@00@Z 5f515af9 f occdlg.obj
 0001:00014ca3       ?RemoveDefaultButton@@YAXPAVCWnd@@0@Z 5f515ca3 f occdlg.obj
 0001:000138fe       ?DDX_OCPropertyRO@@YAXPAVCDataExchange@@HJGPAX@Z 5f5148fe f occddx.obj
 0001:0000d8a0       ?CoCreateInstanceLic@@YAJABU_GUID@@PAUIUnknown@@K0PAPAXPAG@Z 5f50e8a0 f occsite.obj
 0001:00008af0       _$E362                     5f509af0 f occmgr.obj
 0001:00008b0a       _$E359                     5f509b0a f occmgr.obj
 0001:00008b1a       _$E361                     5f509b1a f occmgr.obj
 0001:00008b37       _$E360                     5f509b37 f occmgr.obj
 0001:00008d0f       ?DlgTemplateItemCount@@YAABGPBUDLGTEMPLATE@@@Z 5f509d0f f occmgr.obj
 0001:00008d49       ?IsDialogEx@@YAHPBUDLGTEMPLATE@@@Z 5f509d49 f occmgr.obj
 0001:0000901d       ?DlgTemplateItemCount@@YAAAGPAUDLGTEMPLATE@@@Z 5f50a01d f occmgr.obj
 0001:00009057       ?FindFirstDlgItem@@YAPAUDLGITEMTEMPLATE@@PBUDLGTEMPLATE@@@Z 5f50a057 f occmgr.obj
 0001:00009187       ?FindNextDlgItem@@YAPAUDLGITEMTEMPLATE@@PAU1@H@Z 5f50a187 f occmgr.obj
 0001:0004a42d       _$E352                     5f54b42d f viewrich.obj
 0001:0004a442       _$E351                     5f54b442 f viewrich.obj
 0001:00053fc7       _$E355                     5f554fc7 f viewrich.obj
 0001:00053fdc       _$E354                     5f554fdc f viewrich.obj
 0001:00002af0       ?CheckError@@YGXJ@Z        5f503af0 f olevar.obj
 0001:00002b2c       ?CompareSafeArrays@@YGHPAUtagSAFEARRAY@@0@Z 5f503b2c f olevar.obj
 0001:00002ff5       ?CreateOneDimArray@@YGXAAUtagVARIANT@@K@Z 5f503ff5 f olevar.obj
 0001:00003135       ?CopyBinaryData@@YGXPAUtagSAFEARRAY@@PBXK@Z 5f504135 f olevar.obj
 0001:00005e40       ?OleDateFromTm@@YAHGGGGGGAAN@Z 5f506e40 f olevar.obj
 0001:0000609d       ?TmFromOleDate@@YAHNAAUtm@@@Z 5f50709d f olevar.obj
 0001:000063c5       ?TmConvertToStandardFormat@@YAXAAUtm@@@Z 5f5073c5 f olevar.obj
 0001:000063f1       ?DoubleFromDate@@YANN@Z    5f5073f1 f olevar.obj
 0001:0000643a       ?DateFromDouble@@YANN@Z    5f50743a f olevar.obj
 0001:0005e6cf       ?CopyGlobalMemory@@YGPAXPAX0@Z 5f55f6cf f olemisc.obj
 0001:00076f3b       ?FilterDropEffect@@YGKKK@Z 5f577f3b f oledrop2.obj
 0001:00053650       _$E352                     5f554650 f oledoc1.obj
 0001:00053665       _$E351                     5f554665 f oledoc1.obj
 0001:00053419       _$E354                     5f554419 f oledata.obj
 0001:00053433       _$E351                     5f554433 f oledata.obj
 0001:00053443       _$E353                     5f554443 f oledata.obj
 0001:00053460       _$E352                     5f554460 f oledata.obj
 0001:00050b80       _$E352                     5f551b80 f oleinit.obj
 0001:00050b95       _$E351                     5f551b95 f oleinit.obj
 0001:00050f60       ?ParseOption@@YAHPAGPBG@Z  5f551f60 f oleinit.obj
 0001:0005096a       _$E354                     5f55196a f dllole.obj
 0001:00050984       _$E351                     5f551984 f dllole.obj
 0001:000509a0       _$E353                     5f5519a0 f dllole.obj
 0001:000509bd       _$E352                     5f5519bd f dllole.obj
 0001:00050a85       _$E359                     5f551a85 f dllole.obj
 0001:00050a9f       _$E356                     5f551a9f f dllole.obj
 0001:00050ac7       _$E358                     5f551ac7 f dllole.obj
 0001:00050ae4       _$E357                     5f551ae4 f dllole.obj
 0001:00050afe       _$E364                     5f551afe f dllole.obj
 0001:00050b18       _$E361                     5f551b18 f dllole.obj
 0001:00050b28       _$E363                     5f551b28 f dllole.obj
 0001:00050b45       _$E362                     5f551b45 f dllole.obj
 0001:00087ef0       ?_AfxForceVectorDelete@@YAXXZ 5f588ef0 f dllole.obj
 0001:00049e00       _$$$00001                  5f54ae00 f msvcrtd:chkstk.obj
 0001:00049d50       ?ArrayUnwindFilter@@YAHPAU_EXCEPTION_POINTERS@@@Z 5f54ad50 f msvcrtd:ehvecdtr.obj

FIXUPS: 89e32 9 b 46 c 10 13 77 c 9 b 4a c 10 13 29 6e 9 b fffc0f16 13f
FIXUPS: 4b0f0 26 25 fffffc75 13 fffffedc 7d 53 fffffe74 ffffff13 35 3ef7e
FIXUPS: 89ab5 10 13 44 c 10 13 fff77505 88b3c c 10 13 fff774b5 88b89 c
FIXUPS: 89c15 13 fff77468 88bd9 c 10 13 2a 60 9 b 43 c 10 13 2a fffff905
FIXUPS: 896e5 44 c 10 13 41 c 10 13 5a b 3f c 10 13 3e c 10 13 2a 37 c
FIXUPS: 89985 13 41 c 10 13 5a b fff775a3 88294 41 26 41 23 3e 26 3e 23
FIXUPS: 89472 23 3e 2c 50 2f 50 36 10 d d d d d d d d d d d d d d fffc8351
FIXUPS: 51a3a b 22 25 5 28 1a 1d 15 5 2a 1d 373cb 10 3e 23 3e 26 3e 26
FIXUPS: 89096 23 3e 23 3e 26 3e 23 3e 23 3e fffc8432 23 35 21 b 31 9 18
FIXUPS: 517a5 b 34 9 c 1f b 32 9 e 46 b 32 9 e 46 b 1a 5 1c 1a 1d 2d 9
FIXUPS: 513d6 14 e 7d 20 11 14 14 e 13 f 5 9 7 14 e 14 23 32 2e 5 19 e
FIXUPS: 51600 6 12 18 13 b 34 7 17 61c e 42 b 1f 28 15 1a 14 e 7 11 1f
FIXUPS: 51deb 5 f 47 4b 89 1a 12 f4 1a 12 fffff2f4 e 11 1f 8 c 1a 9 92b8
FIXUPS: 5a69b 7 14 7 14 7 2b 2f 2f 2f 2f 1c 3f 2f 4f 42 1c 80 30 2a 13
FIXUPS: 5aa10 30 30 30 30 30 60 ffff7027 1a fc 8769 1a 28 b 24 2c 85 14
FIXUPS: 5a543 14 7 14 7 14 7 14 7 14 7 14 7 14 7 14 7 14 7 14 7 14 7 14
FIXUPS: 59f0e b 4d 1a 25 17 11 30 b 4d 1a 8 80 17 11 30 b 42 26 2e 42 1a
FIXUPS: 5a27b b 46 1a 2a b 58 1a 28 b fffff486 17 14 17 12 d 50 1c 88 26
FIXUPS: 599ef 42 1a 11 1c 96 b 47 1a f 16 19 46 69 d 6d 1f 149 b 47 f 16
FIXUPS: 592fe 3e 69 54 d 17 21 37 39 23 46 23 30 19 45 38 30 53 d 17 20
FIXUPS: 596de 2f 39 1b 2b 7 6 10 1f 4e 1c fffff500 95 1c 1a 1c 17 2b d
FIXUPS: 58e7f 1c 63 c 20 19 110 d 17 2d 19 4e 12 19 26 1c 63 12 47 13 11
FIXUPS: 59274 21 4d fffff382 80 1c 16 17 24 16 70 1c 1a 1c 23 101 1f 1d
FIXUPS: 589a5 96 1d 64 9 53 2d 4f 22 35 14 8 c 1f 4e 1c 23 fffff4cc 59
FIXUPS: 58218 11 17 3b 2c 35 4d 27 4c d 17 1f f 2b 8 16 54 35 1b 17 31
FIXUPS: 5852a f 29 1c 16 17 70 1c 16 fffff74a d 1e 16 11 20 16 11 2b 1c
FIXUPS: 57ea6 1c 73 7c c 1c 11 24 16 f 1c 3a 15 11 f 33 15 16 f c c c fffff6d0
FIXUPS: 57879 e 11 1c 71 26 18 31 c 19 2e 63 17 29 27 16 1c 25 25 44 c
FIXUPS: 57bf2 1c 38 31 c 29 1a 1c 6e 35 fffff63a 25 1a 1c 11 26 6f 30 2e
FIXUPS: 57537 1b 26 19 31 16 1c 32 35 8 1c 15 16 31 c 19 2e 2e 16 1c 25
FIXUPS: 577d8 25 fffff6ac 2e 1c 1a 1c 69 1c 25 30 1c 5a 1c 1c 1c 29 1c
FIXUPS: 57137 15 21 26 19 2c 33 1c 2d 5b 1c 5a 17 29 13 2b fffff5ab 3c
FIXUPS: 569c3 35 1c 25 20 17 11 30 1a 3c 35 2e 1c 25 20 17 11 30 1a 68
FIXUPS: 56cd3 1c 1c 1c 11 30 1a 1c 6f 3a fffff654 30 1a 1e 57 2e 1c 25
FIXUPS: 565e9 17 11 30 1a 1e 57 2e 1c 25 20 17 11 30 1a 1e 57 35 1c 25
FIXUPS: 568dc 17 11 30 fffff77a 3b 16 22 b 45 1c 25 20 17 11 f 3b 16 22
FIXUPS: 56287 45 1c 25 20 17 11 f 3b 16 22 b 30 1c 25 20 17 fffff79b 1a
FIXUPS: 55cf5 1c 34 29 1a 11 42 11 16 1c 51 3a 14 7 6 9 6 42 17 29 8 3e
FIXUPS: 55fbd 14 45 1c 25 20 17 11 fffff55f 5 1e b 31 15 22 13 19 9 44
FIXUPS: 55735 45 3a 7c c2 22 26 25 34 1c 71 11 21 6f 8 16 26 73 19 44 34
FIXUPS: 6892e 13 c 2c 17 11 2f b 25 13 2d 30 30 fff98670 25 1c 40 1c 2d
FIXUPS: 11e5 54210 12 b b 23 f0 19 5 1c b 52 a 12ec8 2f b 4d 1a 37 17 11
FIXUPS: 685c8 b 4d 1a 33 17 11 2f b 4d 1a 33 17 11 2f b 4d 1a 33 17 11
FIXUPS: 688bc b 4d fffff6e8 b 4d 1a 33 17 11 2f b 4d 1a 33 7d 1d 20 10
FIXUPS: 682a3 1d 20 10 1f 17 20 1e 11 2f b 4d 1a 1b 40 17 fffff5d3 b 33
FIXUPS: 67aaf 4a 1a 16 5c 17 11 2f b 4d 1a 42 6c 17 11 2f b 2b 26 2e 29
FIXUPS: 67eb4 4c b 4d 1a 33 17 11 fffff674 23 2e 17 11 2f b 4d 1a 1c 18
FIXUPS: 677b8 17 11 2f b 4d 1a 1c 1c 29 17 11 2f b 4d 1a 1c 14 29 17 11
FIXUPS: 66fe4 38 15 54 26 2e 83 1a b 16 1f 4c 59 b 47 1a 1c 1c b1 b 47
FIXUPS: 6741c 1c 5a b 47 1a 2f 44 b 4d 1a fffff591 38 1c 11 18 1a 17 3a
FIXUPS: 66c94 1c 11 17 20 17 20 17 1a 1c 23 26 3b 22 73 1c 11 17 1a 17
FIXUPS: 66f46 35 1c 11 fffff80b 9 9 8 18 32 13 d 17 2e 7 2f 6 2b 1c 28
FIXUPS: 6694f 37 54 44 13 8 7 29 6 2b 2b 1c 11 17 1a 17 fffff647 7 d7 16
FIXUPS: 66283 83 62 1e 3a 8 24 12 24 10c 15 16 1a 2b 66 4a 26 25 3c 29
FIXUPS: 66706 1e 22 d 17 1f 8 1a fffff60f 1c 63 38 3b 13 1c 1c 18 8 2c
FIXUPS: 65f5f 1c 18 1e 1f 34 17 16 17 20 17 1c 16 b 1a 10 17 14 2e 10 17
FIXUPS: 6577d 35 2b 16 5b 17 e 23 1e 30 e 72 e 17 46 d 25 4a 69 1c 5e 1c
FIXUPS: 65c0b 1b a 2d 37 3d 77 3c b 1a ffff63d9 2e 1c 1a 1c 66 1c 1a 1c
FIXUPS: 65275 12 f 19 10 69 1f 9 b 66 2f 2a 9 b 2a 83 44 8a 55 3a 2b a2
FIXUPS: 65734 ffff6545 35 1c 69 32 1c 1b 36 6a 1c 25 11 18 13 11 1c 11
FIXUPS: 5bf0c 7a 58 8 18 7d 8 18 13 3e 8 18 11 24 36 fffff587 25 92 2c
FIXUPS: 5b7f6 17 25 1a 22 16 1d 15 18 34 17 24 19 2d 62 17 1a 17 2c f5
FIXUPS: 5bb65 23 f 3b 1c 4b 14 17 fffff4d5 1c 52 2c 18 b 13 17 1b 9 1f
FIXUPS: 5b293 1c 1c c 14 14 14 c 16 1c 14 14 157 d 69 d 6d 1c 13 10 ec
FIXUPS: 5ac80 25 1a 8 17 30 3f 69 2f b 11 43 19 2e 13 17 3a 1c 4a 11 15
FIXUPS: 5afa9 13 17 3a 20 12 45 17 1c 1c 3f 14439 17 1a 8d 20 17 1a 50
FIXUPS: 6f6c1 24 25 3b 17 47 fffe2928 22 19 1c 68 35 4f 93 3b 2f 888d d
FIXUPS: 5abbe 32 19 23 17 14 1426c 14 b4 25 33 14 1a 62 41 29 11 15 1b
FIXUPS: 6f186 1f 1d 16 19 8e 17 40 2f b 25 28 33 17 37 33 74 75 28 1c37
FIXUPS: 71160 7 28 7 14 7 14 7 14 7 14 7 14 7 14 7 d 12 29 30 30 13 fff8ff1d
FIXUPS: 6ec7e 11 ac 3c 4b 25 82 44 1dcf b 31 78 1a 20 17 44 4d 17 12 b
FIXUPS: 70e75 b 6d 15 5b c 2a 17 11 1f 7c 21 32 2b 14 7 14 7 14 7 fffff565
FIXUPS: 706b8 18 3e 3b 2a 1b 2d b6 26 2e 48 1a e 35 27 7e 17 12 b 2f b
FIXUPS: 70aca 1a 20 22 55 20 7e 17 12 b fffff3c6 17 24 32 13 32 17 1a 11
FIXUPS: 702a0 22 37 2f 1a 2c 22 38 23 2f 18 f d 2c 35 1b 9 b 8c 36 b ae
FIXUPS: 70664 fffff46e 11 15 13 14 26 2a 10 52 67 2b 3c 1b 28 25 6e 20
FIXUPS: 6fdac 1a 1b 5d 16 17 20 17 1a 51 22 4b 17 1a 18 17ae1 2d 17 2a
FIXUPS: 87b3f 26 2b 34 2c 34 fff7960b 42 869ff 13 fffe7b62 12 4d b 4a 24
FIXUPS: 6f8db b 40 22 79 3a 22 22 2f d 23 a 17c3c 3f 16 6 1e 16 6 23 1e
FIXUPS: 877dd 11 22 6 2f c 45 12 f f 58 45 c c 9 b 34 17 2b 30 17 1a 21
FIXUPS: 86ea3 d 59 a2 e2 c0 1bc 19 24 15 17 1a 14 17 18 1b 8 58 22 5f af
FIXUPS: 87585 8a c c 9 b 31 17 1c d 19 ffffed97 1c 42 bf 17 45 26b b 31
FIXUPS: 868a2 2e 65 17 52 35 17 20 17 1e 62 62 d a4 17 20 17 20 17 1c e
FIXUPS: 86cfb 13a ffffebf0 22 26 17 11 21 1b 4a 34 70 58 22 22 22 7d e6
FIXUPS: 85e39 3a 281 139 20 25 62 1c 2a 1a 56 2c 1c 33 10 1c ffffec07 12f
FIXUPS: 85188 19 67 39 b2 8c 9d 2c b 36 69 49 84 d5 8f 59 94 27 38 11 2b
FIXUPS: 858d2 29 1c 1b d 1d 19 3a 58 266f c6 15 44 36 1f 21 3d 148 1cd
FIXUPS: 88643 20 cf 2d 22 1d 37 22 23 23 30 f 57 16 28 91 8e 9a 36 8b ffffc3c3
FIXUPS: 84f6f fffe792b b 2b 30 30 13 5f b 55 b 23 13 2d 13 2d 13 2d 13
FIXUPS: 6cb30 13 1b187 1f 98 ee 9e 3f 4c b 44 16 37 31 fffe42a9 b 68 8
FIXUPS: 6c3a0 1a 1e b 30 31 32 45 32 32 31 32 32 45 32 6c 1e b 55 1e b
FIXUPS: 6c794 1e b 4b 1e b 4b fffff42f c7 d e 25 126 6d ce 22 26 22 15
FIXUPS: 6c0a7 15 40 19 28 11 f 18 8 27 17 21 17 28 1b 17 3f 1b 17 47 fffff735
FIXUPS: 6ba41 14 7 14 7 14 7 14 7 17 7 17 7 1d 12 17 7 17 7 17 7 17 7 17
FIXUPS: 6bbae d 20 2f 28 28 32 fffff867 15 20 3b 16 6 d 39 20 2d 14 2b
FIXUPS: 6b667 17 28 13 66 9 b 51 cc b 2d 1c 2b 1c b 2c 1c cd 14 7 fffff797
FIXUPS: 6b1c4 14 7 14 7 14 7 14 7 14 7 17 7 17 7 1d 12 d 20 3f 15 20 23
FIXUPS: 6b3ae 22 9 b 73 9 b 2d fffff9b5 14 7 14 7 14 7 17 7 17 7 1d 12
FIXUPS: 6af20 7 d 39 19 1c 1d 10 2a 87 b 60 b 2d 1c 1e 1c b 25 fffff965
FIXUPS: 6ab15 17 7 d 39 2d 13 2a 3e 8 25 b 51 1e b 2d 1c 11 1c b 2c 13
FIXUPS: 6ad9b 9 17 41 14 7 14 7 14 fffffa3a 3b b 30 17 62 14 7 14 7 14
FIXUPS: 6a9c0 14 7 14 7 14 7 17 7 17 7 1d 12 17 7 1a 7 17 7 17 7 fffff810
FIXUPS: 6a334 17 17 1c 56 2b 30 77 35 44 47 17 1d 25 b 51 1e b 2d 1c 11
FIXUPS: 6a6ba b 41 8 f 1d 7a 44 23 5d fffff7c5 2b 25 21 20 38 1b 17 41
FIXUPS: 6a18f 7 14 7 14 7 14 7 14 7 14 7 14 7 17 7 17 7 1d 12 17 7 d fffff8ba
FIXUPS: 69ba7 4e d 17 11 18 47 17 12 b 3a 33 3b 20 2a 14 6c b 51 1e b 2d
FIXUPS: 69efd 11 1c b 2c 4f 34 8 31 fffff6ad 8d 1c 34 43 2a 17 15 40 2a
FIXUPS: 698c1 15 28 a1 d 17 11 18 3b 17 12 b 1f 4e d 17 18 10 6 21 17 19
FIXUPS: 68fac 1c 1a 17 12 b 1f 4e d 17 18 11 2d 17 12 b 1f 46 10 17 14
FIXUPS: 691e9 46 e7 1e8 40 22 fb d 17 11 18 3946 7 17 7 1d 12 17 7 d 23
FIXUPS: 6d0a3 2d 13 ffffb9e7 3c 54 14 14 1f 1f 24 182 33 20 14 ad 3f 15
FIXUPS: 68f5f d 17 11 3ca4 b 77 14 7 d 39 20 4d 1c b 60 b 2a b f 15 8 8a
FIXUPS: 6cf35 14 7 14 7 14 7 14 7 14 7 14 7 eb5 7 14 7 14 7 14 7 14 7 14
FIXUPS: 6df1a 17 7 17 7 1d 12 d 20 1c 25 2d 13 2d 62 b 23 30 13 ffffea51
FIXUPS: 6cc02 d0d 67 25 3a 12 17 53 75 8 7c 20 1c 28 28 28 40 17 1c 10
FIXUPS: 6dc9d 5c b 30 1c 11 1c b 21 15 89 b 26 fffff5f3 15 86 8 42 7d 61
FIXUPS: 6d671 18 8 f 11 b 6 4b 39 5f 2e 27 11 c 12 13 c b 6 23 9 c b 33
FIXUPS: 6d8e1 fffe6bf1 27 9 27 9 fffacdee 13 5321d 13 5f b 18b5c 15 10
FIXUPS: 6d167 10 1c 2b 3c 54 82 33 3a b 2d 1c 25 25 3a 1f b 21 fffe69a7
FIXUPS: 53e43 40 3c 40 4c 4c 50 4c 4c 38 3c 3c 3c 38 2e 3e 36 32 3a 4e
FIXUPS: 5432b b c6 b 19 5 2a 1d 2d 9 27 fffff23c 38 3c 3c 2e 34 34 2e 4c
FIXUPS: 538fd 3c 34 38 38 34 2e 34 34 34 34 38 34 44 3c 3c 3c 38 38 34
FIXUPS: 53d53 34 38 fffff240 36 36 32 46 3e 3a 36 3a 3e 32 42 32 3a 3e
FIXUPS: 5335d 32 36 36 32 36 42 36 36 36 36 2c 32 32 36 42 40 fffff23e
FIXUPS: 5293f 3c 3c 38 38 34 3c 3c 34 34 38 34 38 3c 3c 34 34 34 34 34
FIXUPS: 52d97 54 34 34 34 34 34 34 34 34 3a b64e 2d 13 5f b ffff5f39 15
FIXUPS: 54657 1f 1d fffaccfd 95 23 b 81 4a 51039 34 38 38 34 40 38 34 3c
FIXUPS: 5274b 34 40 44 40 44 38 b8e3 22 1e 2d d 17 39 1c 38 40 14 7 d 65
FIXUPS: 5e3be 31 31 31 40 12 2c 9 b 2b b 26 b 26 f 28 31 28 fffff8c0 22
FIXUPS: 5df0f 17 1f 18 17 2b 10 e 7 7 14 7 14 7 14 7 14 7 17 7 17 7 17
FIXUPS: 5e091 d 35 36 b 5c 27 fffff9ab 18 53 b 39 16 17 14 d 9 38 9 c b
FIXUPS: 5dcf9 16 15 24 2b 1b 14 18 23 25 b 16 17 14 1a 38 9 c fffff6cb
FIXUPS: 5d5bd 17 11 15 1f 54 17 3c 15 25 6 58 20 19 2e 62 86 17 58 f 3d
FIXUPS: 5d979 11 15 39 38 b1 16 15 27 1b fffff443 d 9 b 46 44 8 16 8 6f
FIXUPS: 5d0f5 8 16 e 17 3c b 1e 6 45 92 64 17 3c 15 27 72 c8 19 4a 17 50
FIXUPS: 5ca77 52 27 43 20 16 20 3a 4f 43 4d 1d 15 48 13 f 19 2e a 18 29
FIXUPS: 5ce31 29 44 f 15 17 11 c f 12 6 fffff766 28 d 14 24 1a 14 1a c
FIXUPS: 5c755 14 3b b 39 f 19 16 14 24 58 c 40 2f 3b 41 32 1d 18 6 9 6
FIXUPS: 5ca6f 1d62 17 14 23 f ffffdb07 14 18 14 14 14 33 12 74 1f 9 b 54
FIXUPS: 5c4e8 13 b b 19 19 74 2a 9 b 27 14 22 18 1a9bd b 22 1f 13 f 6 5
FIXUPS: 770dc 10 42 b 29 14 7 14 7 14 7 14 7 14 7 d 2a 30 fffe7498 1b 14
FIXUPS: 5e733 53 19 19ed4 d 20 30 ffffe385 12 b 2e 4f 10 1c b 2b 87 41
FIXUPS: 76c8f 12 b8 a7 26 2e 73 1a 2e b 45 1d 17 17 11 3a d 1276 15 64
FIXUPS: 782fa b 4d 1a 19 22 2a 16 8 12 10 c 2b e0 17 11 2f 9 b 25 19 36
FIXUPS: 7861b 7 14 7 14 7 14 fffff7a8 c 30 12 3a 1f 17 11 2f 9 b 10a 1a
FIXUPS: 78063 25 20 16 10 c 30 15 3a 1f 17 11 2f 9 b 47 1a c 16 fffff4ac
FIXUPS: 7772a 94 14 83 18 15c b 30 e 28 49 e 28 49 e 28 49 e 2b 4d e 26
FIXUPS: 77c9f 26 2e 48 1a 19 22 5e 16 121d ffffe274 12 2e 63 10 1c b 50
FIXUPS: 773db 12 b 1e b 2a 19 19 d 19 33 50 3f 19 32 2c 13 55 13 e 4f c
FIXUPS: 776fb 136a 38 b 5b 26 2e df 1a f2 b 47 1a 13c b 25 22 14 7 14 7
FIXUPS: 78f86 7 14 7 14 7 14 7 14 7 14 7 ffff8c8c fffe2ac5 12 69 1c b 2b
FIXUPS: 5484b 55 13 2d 30 342ed 8 1e b 2a fffefab0 2c 1b1 1d 14 19 17 14
FIXUPS: 78992 b 53 1d 14 19 17 ffff8d06 1a 2c 2c 9e 17 11 2f b 4d 1a 66
FIXUPS: 719ad 11 46 b 47 1a 2e b 4d 1a 35 32 25 17 11 2f b 32 13 2d 17210
FIXUPS: 88ea6 23 11 fff786ca 30 2c 6fd35 12 51 1c b 52 18 19 2f 21 21 b
FIXUPS: 714e8 3d 36 63 30 e 2c 25 22 25 27 26 2e fffe34ff 3f 31 7 e 26
FIXUPS: 54cf8 36 52 13 2d 30 30 33ead 1a 10 f a 16 e 2a f 11 1e b 2d 53
FIXUPS: 88e31 b 23 c 7 fffe9a6f 14 7 14 7 14 7 d fffe2016 12 21 14 16 14
FIXUPS: 549e4 14 7c f 7 10 1c b 2d 1c 1a 17 e 4c b 26 33 a 1d902 3b 1a
FIXUPS: 725e8 17 11 48 15 1c 21 57 b 25 1b 17 26 17 26 17 32 14 7 14 7
FIXUPS: 72859 7 29 11 7 1e 7 14 fffff62e e 17 1c 75 9c 3a 45 26 2e 76 1a
FIXUPS: 721d7 a 1a 17 11 2f b 47 1a f 54 b 47 1a 19 1a 97 b 4d 1a 1d82
FIXUPS: 74261 6 16 6 17 7 17 7 d 24 13 fffe0b56 15 1ce9d 15 17 4d 1a a
FIXUPS: 71db3 39 13 7 e 26 39 18 30 10 17 14 1cdc 14 2c 1a 2c 1a 34 3f
FIXUPS: 73d62 21 a3 8 16 4c 41 79 28 28 3d 83 43 1f 42 5d 34 37 2b 17 7
FIXUPS: 74226 7 17 fffff428 11 19 93 8 16 35 8 25 8 20 58 a2 15 12 c c
FIXUPS: 73928 25 17 16 17 3d 12 41 e4 14 2a 1a 2a 1a d fffff551 1e 8 2f
FIXUPS: 731c6 1e 58 53 2a 3c 1e 5c b 3a 26 3a 25 20 20 64 17 11 c 8 16
FIXUPS: 7353b c d 1c 8b 4d d fffff3e6 57 2c 22 d 14 d8 1c 1b 19 19 31 83
FIXUPS: 72d62 15 e 1b 52 e 54 1c b 53 104 b 2d c 23 30 42 17 11 2e01 8f
FIXUPS: 75f7a 11 2f b 25 49 17 7 17 7 27 7 12 d 24 13 2d 30 30 30 30 30
FIXUPS: 76240 ffffc735 24 1c b 4a 8 1e 2d6d 1c 12 2e 2a 28 30 6e 16e 41
FIXUPS: 75ad5 4c 1a 24 38 a5 1a 16 17 11 2f b 49 1a 1e 2f 32 68 b 4f 1a
FIXUPS: 75e9c fffff57e 11 19 16 2b 9 b 4f 1a f 13 23 1e 2c 17 11 19 16
FIXUPS: 75613 9 b 4f 1a 16 22 17 11 20 23 b 39 13 fffff758 26 19 40 11
FIXUPS: 74fa4 1c 10 d 66 37 3b 19 1d 68 28 30 71 e 5f 49 b 4f 1a f 13 9
FIXUPS: 75380 23 2c 1a 1a fffff6bb 2b 10 39 c 8 29 1b 13 68 1a 1c 8 30
FIXUPS: 74c9e 1d 2c 17 1a 2b 15 17 11 16 20 17 25 64 11 2c 2d b fffff685
FIXUPS: 74564 17 6 3c 17 14 1e 14 25 37 5f 1c 50 1f 93 30 2e 39 5a a4 29
FIXUPS: 749b9 1a 16 2e 8 2a f 10 e 30 fffeb819 7e ae 98 78 c7 31 22 21
FIXUPS: 606fe d d d 13c20 15 12 e 67 22 9 b 54 1c 11 b 14 11 8 2d 9 b 31
FIXUPS: 5f456 49 eb 25 13e 95 22 1a 49 36 7d 3d f2 3a 98 17 15 f 11 234
FIXUPS: 5fe76 17b 116 f f 25 2c 2c 16 73 2c 2c 19cb d ffffcd34 36 3a a
FIXUPS: 5ea40 b 14 15 2c 2f 17 9c 24 22 61 34 55 8a 17d 64 58 34 34 148
FIXUPS: 5f1bc a5 3a 12a 29 43 22d2 37 19 35 1c 29 17 3d 2e 1c 27 17 3d
FIXUPS: 61901 34 1c 5d 2b 1c 5d 2b 53 29 1c 33 29 4c 3a 22 14 7 14 fffff585
FIXUPS: 611e4 36 10 1f 1b 34 29 4a 17 17 3e 26 65 1c 35 19 21 19 2e 17
FIXUPS: 61509 26 1b 2e 1c 76 19 37 1c 46 2b fffff68a 3e c e 9 e c 19 3a
FIXUPS: 60ea6 f 1e b 30 1c 4d 19 3c 1c 22 14 17 20 17 21 34 26 5a 1f 22
FIXUPS: 61196 17 1fd83 30 30 30 30 30 fffdf8ce 15 2a 50 10 1f 25 c b 68
FIXUPS: 60a69 33 9 b 5f 1f 47 1f 57 17 d6 14 f 19 b 36 1fdae 17 7 17 7
FIXUPS: 80b4c 2b 2f e 2b 2f 19 14 17 18 2b 8 44 2f c 29 c 29 c 29 2f 45
FIXUPS: 80e60 13 2d 30 30 fffff813 4f 1a 3f 17 11 2f b 4f 1a 23 16 b 29
FIXUPS: 80906 3c 17 11 2f b 25 70 8 2f 7 12 27 7 12 17 7 16 fffff702 30
FIXUPS: 8025d 61 1a 2b 3d 65 b 4f 1a 8 2a 5a 17 11 15 22 b 4f 1a 37 17
FIXUPS: 805d7 2f b 4f 1a 37 17 11 2f fffff689 23 17 11 15 22 b 4f 1a 8
FIXUPS: 7ff05 23 17 11 15 22 b 4f 1a 3b 17 11 2f b 4f 1a 47 17 11 2f b
FIXUPS: 801d7 fffff722 b 4f 1a 16 d 17 23 17 11 39 38 b 4f 1a 16 d 17 23
FIXUPS: 7fb4b 11 39 38 b 2d 28 30 2d 40 5d 1a 8 fffff74e 66 1a 16 d 17
FIXUPS: 7f574 17 11 39 40 b 4f 1a 16 d 17 23 17 11 39 3c b 4f 1a 16 d 17
FIXUPS: 7f854 17 11 39 fffff7eb 1a 16 d 17 23 17 11 39 3c b 4f 1a 16 d
FIXUPS: 7f262 23 17 11 39 3c b 4f 1a 16 d 17 23 17 11 39 38 fffff77f 11
FIXUPS: 7ec55 38 b 4f 1a 16 d 17 23 17 11 39 38 b 3b 1c 75 1a 13 16 d 17
FIXUPS: 7ef6f 17 11 2f b 2d 28 30 fffff7d2 b 4f 1a 13 16 d 17 11 58 17
FIXUPS: 7e97b b 2f b 4f 1a 16 d 17 23 17 11 39 3c b 4f 1a 16 d 17 23 fffff83e
FIXUPS: 7e449 12 b 2f b 4f 1a c 16 d 17 42 17 12 b 2f b 32 49 1c 75 1a
FIXUPS: 7e738 16 d 17 1e 35 17 12 b fffff88b 36 16 20 1c 17 12 b 2f b 4f
FIXUPS: 7e1e3 8 13 16 d 17 2b 17 12 b 15 22 b 3b 1c 71 1a 13 16 d 17 fffff81c
FIXUPS: 7dc3e 8 30 17 12 b 15 22 b 92 48 b8 1a c 16 d 17 11 12 4d 17 12
FIXUPS: 7df82 2f 9 b 4f 1a 1c 16 d fffff5de 22 b 49 1a 10 53 1f 13 23 b
FIXUPS: 7d7ed 29 1a 1c 62 2a 28 30 95 48 16 1d d2 1a 14 d 25 17 11 30 b
FIXUPS: 7d20d 40 59 1a 30 17 12 b 20 22 b 4f 1a f 29 17 12 b 19 16 22 b
FIXUPS: 7d4f1 1a 47 23 53 13 17 12 b 19 fffff57f 70 57 a 2e 2a 1e 3b 1d
FIXUPS: 7cd9a d 17 16 17 37 65 d 17 28 1d 54 1f 1d 7d 1f 1d 73 1f 1d a0
FIXUPS: 7d1b0 30 fffff3d9 18 30 23 21 30 17 17 22 11 16 68 5f 24 8 24 13
FIXUPS: 7c85d 24 b 1c 18 8 10 2e 3b 1f 63 2e 101 1d 4e fffff61b 36 13 13
FIXUPS: 7c1e0 29 11 3b 1f 5 24 e 22 e 8 5a 5 27 f 1e f 2d 5d 28 3e 33 e
FIXUPS: 7c500 37 3f 1c b fffff798 40 41 2e 41 9 b 2e 13 8 16 16 1c 1b 17
FIXUPS: 7bf0d b 11 22 2e 11 3e d 17 37 13 1f 16 66 25 50 b fffff4f3 4a
FIXUPS: 7b694 f 14 94 12 3b 27 18 93 5c 1d 19 2d 43 29 19 2d 6b 17 12 96
FIXUPS: 7bb1b b 6 7b 6f 9d 8 8 c fffff574 9 16 15 f 4a 19 e 6d b 1d 17
FIXUPS: 7b3b5 9 16 15 f 4a 19 e 35 36 13 17 12 12 16 18 44 83 7 17 fffff6fa
FIXUPS: 7ad55 e 17 21 7 37 b 3a 8 8 14 8c 36 8 16 24 1b d2 12 6 e 1a 3d
FIXUPS: 7b11a 46 19 e 5e 22 13 17 fffff672 10 25 b 2f 19 1a 2b 19 1a 2b
FIXUPS: 7a9e3 17 2f 48 7 6 10 30 3d c 4f 1b 13 42 1c 7d 5 4a 11 15 43 fffff5fc
FIXUPS: 7a357 2c 13 17 17 8 36 2e 4d 2b 4e 29 8 27 66 8 27 96 1f 69 1f
FIXUPS: 7a748 55 17 11 32 42 19 26 15 e fffff611 44 56 12 f f 6 48 49 b
FIXUPS: 7a04c 4c 8 2d 54 15 17 1e 17 36 17 8 3a 12 9 f 8 2e 9 b 2f 4c fffff758
FIXUPS: 79a8d 2b d 17 11 17 22 52 d 17 11 17 22 52 b 17 26 19 7 39 11 4b
FIXUPS: 79d52 15 3c 12 d 36 17 11 4a fffff797 17 21 16 1d 17 11 4d 1d 1d
FIXUPS: 7974b 1d 5d 2b 17 17 20 17 20 17 11 2b 4c 8 22 39 8 16 d 17 4a
FIXUPS: 79a26 a8cd ffff4d72 15 12 e e e e a0 9 b 4c 1e 15 f 19 6c 94 9
FIXUPS: 79333 22 1d 15 22 64 15 50 16 f0 19 3c 29 a854 79 4a 4a 4a 41 2b
FIXUPS: 84050 1c 3a 14 7 14 7 14 6 14 7 14 7 14 7 29 13 42 2c b 56 b 23
FIXUPS: 842b0 30 fffff30d 12 b 2f b 2b 4b 8a 1a 13 58 17 12 b 2f b 74 74
FIXUPS: 83998 4e 73 1a 3c 17 11 2f b 2b 26 2e 1c7 73 fffff3fe 3a 16 20
FIXUPS: 8325b 17 12 b 2f b 4d 1a 8 2d 17 12 b 15 22 b 34 6f 1a 2c 17 12
FIXUPS: 834f8 2f b 4d 1a 3d fffff566 2f 2d 2d d 17 16 17 76 58 26 2e 2b
FIXUPS: 82d6b 16 8 19 47 c3 1a 8 16 d 17 22 44 57 6 23 151 b 64 fffff510
FIXUPS: 826cb 17 11 1c 39 23 30 19 45 8 22 17 2d 4c d 17 20 17 11 1c 36
FIXUPS: 8297c 32 39 1f 68 11 38 2e 17 1b fffff6d4 14 14 14 c 16 1c 14 14
FIXUPS: 822d3 d 17 2d 19 4e 12 19 11 40 13 17 2c 2c 2c 5e 2f 13 8 3b 85
FIXUPS: 8264e 1c fffff76e 2d 1e 46 11 15 2e 13 17 3a 20 12 45 17 1c 13
FIXUPS: 82014 27 1c 52 2c 18 b 13 17 1b 9 1f 30 13 17 17 fffff6d9 b 3f
FIXUPS: 81901 1c 42 8 16 4e d 17 16 17 24 25 32 11 2f 34 c 27 31 26 100
FIXUPS: 81ca7 31 3a 12 42 b 30 2d fffff4be 8 26 40 33 c 9 b 54 10 55 9d
FIXUPS: 814fa 1c 2f 1c 2a 16 1d 56 16 1d 67 54 d 17 8e 17 60 d 17 58 2f5e
FIXUPS: 8481a 16 2c 25 10 12 b b 10 12 b 1d 9 b 5b 9 b ffffc6df 12 b f
FIXUPS: 810a0 b 23 82 41 e 1f c 9 b 31d0 28 14 17 28 4a 2c 2f 43 1f 12
FIXUPS: 84560 10 6 8 14 b 1a 6 3e b 1f 2d 1c 3e 9 b 4b 2c 11 f 99 ffff1c7b
FIXUPS: 764c5 2b 35 13 15 15 7 25 7 2c 19 9 9 d 16 34 9 9 9 b 2c 13 5 27
FIXUPS: 766ee e 14 dc27 35 17 14 fffea077 2c 40 11 48 d b 2d 16 19 24 71
FIXUPS: 6e5f5 1c 1e 30 22 22 7bed 36 b 23 26 10 19 41 6d 11 f c c 2b ffff859f
FIXUPS: 6ea1d 8 66 b 3a 12 18 1c b 3c d 24 67 15 fffff55e a9 16 48 1a 17
FIXUPS: 6e2b4 24 12 14 34 8 29 14 17 8 36 ffff5135 2b 9 30 3f 29 37 ac
FIXUPS: 636e0 13 aff5 1a 49 35 11 1c 1d 28 40 15 71 f 13 12 1c b 48 b 3c
FIXUPS: 6e9b4 18 1c ffff45bb 32 31 6a 60 17 2c 17 32 17 32 17 32 17 13
FIXUPS: 632cc 17 11 17 4a 17 11 17 4a 17 11 17 4a 17 11 17 52 fffff182
FIXUPS: 626b9 24 3a 4d 2f 123 2f 27 67 31 5e 68 9 2b 9 2b 9 2b 9 110 5c
FIXUPS: 62cae 27 27 27 3b 183 9 2b 9 50 ffffef11 4d 46 2e b 47 61 95 79
FIXUPS: 621de 2b bf 19 13 70 26 42 f 1f b 31 13 1f 37 1c 67 39 36 b 5e
FIXUPS: 62605 39 fff9f220 47 23 2b 1e 18 18 15 8 14 24 25 6 46 1d 61 b
FIXUPS: 1b0b 23 4a 53 15 1d 33 13 4e 2c b 5ffda ce 63 5b fffa633b f 9 16
FIXUPS: 819f 24 f a 19 9 b 3a 24 18 15 f 9 16 8 24 f a 19 9 b 2c 13 ffff9425
FIXUPS: 17a3 26 2e 18 6455 12 35 22 22 22 22 25 29 11 2a 24 35 2b 29 2d
FIXUPS: 7ec5 33 33 33 33 33 2f 2b 29 29 29 29 1d 39 24 18 fffff641 1d 3b
FIXUPS: 780a 3b 1d 2b 28 4a 4a 4a 4a 31 27 16 8 12 b 20 18 17 e 25 18 22
FIXUPS: 7b78 15 61 13 17 1e c fffff1c1 21 c 2bc 46 15 25 328 2a 8 e 2a
FIXUPS: 7528 8 e 2a c 8 e 2a c 8 e 2a c 8 e 41 11 f ba 1d fffff3ad 1c 18
FIXUPS: 6b52 15 1e 10 13 18 c 27 9 b 41 13 17 11 d 27 9 b 53 35 11 7 10
FIXUPS: 6d8e 11 7 1f b 23 fffff9a7 35 1e 17 35 2e 5a 8 11 13 c 10 11 13
FIXUPS: 6939 1d c 23 8 11 13 c 10 11 13 c 1d c 64 3c f 15 fffff992 18 c
FIXUPS: 64c7 9 b 41 13 17 11 d 27 9 b 53 35 11 7 c 13 11 7 1f b 23 10 21
FIXUPS: 6700 20 17 2e 1e fffff9d6 2f 15 e a 23 b 48 f 15 1d 16 17 15 1d
FIXUPS: 62f1 f c 26 13 9 b 41 f 15 1d 1c 18 17 15 1e 10 fffff9df 23 8 11
FIXUPS: 5e97 c 10 11 13 c 17 13 11 8 c 23 8 11 13 c 10 11 13 c 17 15 14
FIXUPS: 6049 6a 1b 6 3e fffffa27 41 17 11 17 18 15 41 17 11 17 18 15 41
FIXUPS: 5ceb 11 17 18 15 41 8 11 13 c 10 11 13 c 17 13 11 8 fffff791 3b
FIXUPS: 5623 3b 1b 3b 1b 3b 1b 72 10 18 1b 17 11 1a 2d 10 b 35 71 33 f
FIXUPS: 59a8 6c 49 29 47 17 11 17 18 fffff76c 1d 26 f c 26 13 9 b 3c 11
FIXUPS: 538f c 13 11 7 1f b 23 c c 21 f c 26 23 1b 3b 1b 3b 1b 3b fffff9cd
FIXUPS: 4f8b 23 8 9 17 9 16 9 9 1c 9 10 9 a 40 1b 6 41 4a 2f 15 e a 23
FIXUPS: 51c5 48 f 15 1d 16 17 fffff687 14 1a 3d 3a 21 9 9 bd 1a 17a 9 c
FIXUPS: 4c66 14 1a 14 1a 1e 9 9 3d 9 c 10 8 8 12 1c2 10 9 25 fffff59c 7a
FIXUPS: 45a3 11 17 7a 8 11 13 c 10 11 13 c 6a c 23 8 11 13 c 10 11 13 c
FIXUPS: 4838 c 23 14 10 26 2e fffff7ae 1e 19 22 3f 29 11 13 28 a 33 91
FIXUPS: 4278 1a 1b 17 26 8 2f 10 b 25 17 11 17 7a 17 11 17 7a 17 11 fffff73c
FIXUPS: 3c49 12 12 47 1f 1f 1f 47 1e 1e 1e 3d 14 1b 33 10 13 17 24 1e 1e
FIXUPS: 3f09 1d 1a 9 28 1e 1e 1e 15 69 fffff6ae 17 2f 36 17 25 17 35 4b
FIXUPS: 385d 11 36 17 33 12 b 5c 17 12 b 3d 11 16 16 12 11 16 11 11 14
FIXUPS: 3b0e e fffff6d6 61 49 14 14 14 14 f 14 14 14 11 2e 13 2b 18 c c
FIXUPS: 33f0 e a2 54 16 13 17 3a 38 81 36 17 30 18 fffff60f 9d 9 9 b 44
FIXUPS: 2ddb 5c 26 27 26 26 f 26 2a 2a 33 1d 29 23 4d 1a c c c e 18 13
FIXUPS: 30d0 1e 5c 9d fffff769 2f 3c 10 14 7 61 7 2b 7 2c 7 2b 7 23 10
FIXUPS: 2b29 7 34 7 2f 7 23 10 11 7 34 7 2b 7 2b 7 fffff232 46 ba bc 6d
FIXUPS: 2106 f 275 97 19 98 2f 2f 2a 2a 22 2a 10 6 22 34 8e ab 45 4f 45
FIXUPS: 2899 3c 10 c d 2b 5b88 1c 2d b 40 2c b 24 13 48ccd 13 5f b 3c6c
FIXUPS: 54f82 4c 1f 1d 61 15 fffacc71 14 24 14 24 14 50 2e 22 50 11 25
FIXUPS: 50bd0 41 14 5f 6a 3b 27 20 22 2d b 1f 22 38 1c a2 36 f f0 7 2f
FIXUPS: 51085 14 e5 1e 24 30 62 b fffb71d3 25 1c 481ce 13 f 19 54 1f 17
FIXUPS: 50717 1d 3d 42 4d 25 25 a2 b 7f b 22 15 17 1d 7 c ae 22 b 18 17
FIXUPS: 50b27 8 6b fffff670 23 19 10 10 63 8 62 11 38 3f 1f 2a 19 13 19
FIXUPS: 50463 b 27 17 11 35 8 3a 7 8 7 17 22 b 64 22 fffff7d6 b 63 42 7
FIXUPS: 4fed0 7 15 7 24 2e 17 17 28 2b 2a 25 44 14 8 19 22 c a 40 19 10
FIXUPS: 50181 1d 27 19 10 fffff8d1 49 7 1c 7 2e 5c 18 b 26 22 16 7 d b
FIXUPS: 4fc80 7 14 7 14 6 14 6 14 7 14 7 14 7 20 4a 3d fffff917 9 9 9 9
FIXUPS: 4f714 4f 7 22 7 19 25 42 b 36 22 9 40 8 1b 1f b 36 22 9 38 15 7
FIXUPS: 4fa0b 10 4b 3f fffff9a0 b 44 9 1c 14 21 11 1f 10 9 9 d e 28 24
FIXUPS: 4f5bc e 9 9 9 d b 31 24 11 9 d e d b 37 fffffb50 9 14 12 9 7 c
FIXUPS: 4f284 9 14 13 40 b 12 f 24 20 9 14 13 9 1d 7 d 9 7 c 13 9 c 7 13
FIXUPS: 4eeef 18 f 18 15 31 5a 9 10 25 36 1d d 13 22 9 b 2f b 12 27 13
FIXUPS: 4f144 14 13 2b b 12 f 34 9 14 fffff981 23 b 25 34 30 36 55 19 7
FIXUPS: 4ed06 7 c 8 c 10 10 1d 18 22 e 40 15 2a d 28 1a 1c 1c c 7 f fffff822
FIXUPS: 4e715 d 2a 26 2f 4a 2b b 20 13 17 33 a 26 b 24 17 10 14 10 21 1f
FIXUPS: 4e98f 18 b2 26 1a 15 2d 38 3f fffff84a 7 13 7 22 b 44 f 17 3c 9
FIXUPS: 4e4a6 8 c 20 17 33 a 2f 9 b 3f 1a 48 d 24 d 24 d 17 1a d fffff847
FIXUPS: 4df0d 4b 7 4c 7 48 13 7 26 b 39 13 7 26 b 4d 11 12 3a 3b 2b b 4c
FIXUPS: 4e241 12 44 3b 2b b 4c 15 fffff71e 1f f b 25 7 35 c b 22 48 8 9
FIXUPS: 4dbbf 28 19 52 1b 7 64 12 7 1e 7 b 23 7 41 10 7 2b b fffff780 26
FIXUPS: 4d5a3 26 24 26 22 24 22 24 22 24 20 b3 1e 91 20 12 20 23 1c b 22
FIXUPS: 4d968 20 37 42 14 1c 18 b 25 fffff698 9 6e 12 22 1a 47 1a f e 26
FIXUPS: 4d285 34 17 26 a e 2f c b 39 70 50 14 b 36 18 f 25 9 b 22 fffff91b
FIXUPS: 4ce4a b 13 54 8 7 36 8 7 29 8 7 29 12 7 29 8 7 29 8 7 48 c 7 29
FIXUPS: 4d088 29 a 29 b f fffff658 b 49 f 7 23 b 2d 7 46 48 b 60 eb b cc
FIXUPS: 4cb51 b 25 58 20 72 2c 20 9a 10 7 2a 2b 8 36 8 fffff571 1c 17 b
FIXUPS: 4c3ca f e 11 1b 13 1b 1b 1a 34 c 7 e 58 28 30 48 12 38 7 2e b 49
FIXUPS: 4c6b1 1f b 49 13 fffff73c 10 f 24 86 2e 13 19 24 1c 25 2b 13 a
FIXUPS: 4c050 a4 25 33 7 31 13 d6 7 10 7 f 7 4a 13 19 25 20 fffff7ca 7
FIXUPS: 4bb42 7 18 17 2d 14 17 2b 1f 30 e 17 19 e 17 15 7 13 2b 13 41 17
FIXUPS: 4bd8a 2b 19 e 23 1b 3b 13 fffff9b2 16 8 7 32 33 f 1c 1e 1e 7 23
FIXUPS: 4b93d 10 19 b 2d 1c 17 13 39 e 7 1c 18 7 15 7 a 17 46 1e fffff9c5
FIXUPS: 4b4e2 e e 12 62 f 10 9 3c c 9 b 20 3d 15 54 20 7 d 7 11 7 17 11
FIXUPS: 4b73e 10 c 7 2a 2b 48 2af5d a b 80 a 14 7 e 26 80 a 19 1f 17 a
FIXUPS: 76937 2f 16 7 e 26 2f 1b f fffd487e 21 3d 22 22 5d a7 8d fffbd142
FIXUPS: 861e 7 3f 36 24 3e 18 17 35 43 7 13 b 1f 19 79 17 3c 1f 1f 19 18
FIXUPS: 8968 19 26 40 7b 14a 27 25 149 8bc 12 e d 12 14 56 1f 1e 45 2c
FIXUPS: 975d b 29 2f 75 23 b 61 4a 42 b5 23 b 5d 5a770 30 13 fffa5887 5a7d8
FIXUPS: 642ad fffa4332 801 b 45 11 2f 5b2a2 b fffa4e13 7d 23 b 45 11 2f
FIXUPS: 64172 b fffa4f87 4a a2 a5 23 b 5d 5aeb2 b fffa5176 6d 8f 39 17
FIXUPS: 94b8 128 5a741 23 10 9 2e b 28 13 8 44 b 17 2e 17 3d 8 36 2b 18
FIXUPS: 63fb3 20 25 17 11 28 25 22 b e 7 d fffa4d01 5ac43 1f b 39 9 15
FIXUPS: 63a8a 10 b 38 9 b 44 9 15 9 10 b d 28 9 b 44 40 19 14 17 11 17
FIXUPS: 63cc8 8 f fffa7522 1c 2d b 40 2c b 24 13 5f b 583e7 8 2a 9 b 2d
FIXUPS: 637ee 38 17 11 17 25 17 20 17 22 46 f 3c 39 33 fffa6fb6 124 9e
FIXUPS: ab87 97 b1 2b 8 e 2f 33 80 11 23 15 55 56 24 4b d9 9 b 36 22 18
FIXUPS: b0da 12 e 78 b 28 1c ffffee67 45 213 4d 30 30 30 59 54 11 e 30
FIXUPS: a47e 122 d1 27 66 2d 53 36 27 22 23 1c 25 18 e 31 1c 25 3f 4e c5a
FIXUPS: b726 4b 17 26 8 5b ffffe2e6 5 2a 1d 22 d 13 39 29 19 33 19 38 12
FIXUPS: 9d1a be 1e f 46 98 12 42 76 1a 12 30b8 19 18 24 1c 4d 1a 1d 22
FIXUPS: d1bf 40 39 24 4d 38 3f 13 2d 30 30 13 4e 2c b ffffdf8a 61 96 1c
FIXUPS: b50e 20 59 2a ffe 25 1c b c 71 48 6c 55 24 79 27 1c4 4f a8 74 1c
FIXUPS: cba3 17 11 3a 33 26 26 245 44 b 26 2a 4c 26 26 ffffefd6 a2 47 25
FIXUPS: c0ec e 66 9 1c 5d 4f 17 24 14 10 8b 9 9 b 4a 28 12 40 13 6a e 76
FIXUPS: c534 9 b 27 24 fffff480 40 4c 37 14 11 49 d 4b 98 1d 37 b 28 9
FIXUPS: bccf 51 24 38 53 9 b 48 34 17 11 4a 41 1f 51 28 24 7cca 6a 8 2e
FIXUPS: 13d43 15c 18 39 13 2d 30 30 30 30 30 30 30 30 30 30 30 30 13 2d
FIXUPS: 141c3 ffff777b 16 40 2e e 1c 12 7ab8 1b 1f b 5e 19 74 1d 135 b
FIXUPS: 1378c 1d 4a b 49 1d d1 b 49 1d 4a b 49 1d 4a b 49 1d dd 2e b 49
FIXUPS: 12933 f3 3f 22 ff 26 137 26 a9 ea 1c cd 6c cd 46 96 4f 3f 9e 14
FIXUPS: 13328 f 1f b 49 f 1f b 49 17 1f b ffffeae8 b 37 48 bc 3e 12e 71
FIXUPS: 12298 7a 35 3c 19c 48 5c 16 38 4d 2c 2a 1c b 35 33 21 1c 82 1b
FIXUPS: 12867 34 43 26 fffff024 23 c 36 b 70 5b 28 b 4d 13 30 6a 1b 81
FIXUPS: 11cae b af 2a 2a b 23 12 9 7 c 28 a 45 37 a 72 fffff090 12a e ea
FIXUPS: 1121c 30 89 20 25 25 28 66 b 33 19 9f 56 c 9b a1 b 49 56 c 47 b
FIXUPS: 117c7 19 1b b9 23 28 fffff285 1d 19 d 17 20 17 16 17 16 17 1a 17
FIXUPS: 10cd0 3a 17 12 3d b 97 f 23 b 75 8 f c 24 c 3b 28 30 fffff36e 11
FIXUPS: 10348 80 17 11 39 3d a 4c 1c 29 a5 5b 8a 2e 28 ba ac 17 36 28 30
FIXUPS: 1094e 44 f 23 b 58 28 30 2e fffff1ac 3c 9c 3c 17 11 2d 17 11 29
FIXUPS: fe5d 11 25 34 b 3a 21 1f b 80 25 49 8 13 11 19 b c b8 e 81 119
FIXUPS: f193 87 4b b8 7b 7b 4d 1b 31 82 38 b f5 1a 1c 2b 1a7 17 11 2d 9b
FIXUPS: f975 11 57 17 11 1f 92 17 11 1f e3 ffffeb68 20 11 66 11 90 b 6a
FIXUPS: e970 76 14b 5a 51 4c 82 51 45 83 4b 31 1a 1c 1a 2a 46 41 3a 25
FIXUPS: f04a 3a 81 3f ffffeb4a 14 17 4f 1c 80 1e a1 55 1a6 b 55 39 1e 11
FIXUPS: e138 b4 11 30 79 48 97 3f 19 46 11 53 57 57 137 58 73 fffff015
FIXUPS: d763 9e 36 c 9 b 3e a 13 51 57 b 4f 20 18 28 29 21 5a 18 1c 1c
FIXUPS: db19 16 63 4d b c 29 11 15 6a88 a e 1f 3a 17 10 2b 13 61 30 2c
FIXUPS: d4c5 2f 29 7e 2c e e e e e e e 1b 31 c 9 b 80 d 16 736a 2c 24 21
FIXUPS: 14b2e 2c 24 21 1a 2c fffff744 18 48 ec 1c 54 a 12 7 13 14 42 27
FIXUPS: 145b5 22 1d 1a a e 2d 1d 40 163b 26 12 4d 60 ffffee41 21 1f 30
FIXUPS: 14c96 21 21 1e 30 15 fffffb46 21 d 10 2c 30 17 1f 21 1a 2c 24 21
FIXUPS: 14a17 2c 24 21 e1d 1f 8 47 20 19 1c 61 14 3e 25 1b 13 4f 54 20
FIXUPS: 15b4a 2f d 25 18 18 1b 2c 18 11 d f 13 13 2e 18 fffff66d b 65 11
FIXUPS: 15430 7f 73 2c 19 45 16 10 23 20 23 18 19 11 1d 18 49 16 17 11
FIXUPS: 15820 e 6 1a a 8 e 15 fffff517 9f 34 11 2a 2f 4e 34 39 22 27 20
FIXUPS: 15041 1b 2e 10 a 3c 13 c 1d 1a 19 1a 3b 25 c 47 10 32 96 10 1e14
FIXUPS: 1712d 17 2c 17 60 9 c 9 b 56 1d 14 13 e 1c 25 b 15 17 2c 17 60
FIXUPS: 173dc c 9 b 47 1a 23 b ffffd8e3 1f05 18 23 b 47 1a 23 b 47 1a 1c
FIXUPS: 16e0d b 47 1a 64 b 47 1a 23 b 47 1a 41 b 56 1d 14 13 e 1c 25 fffff63f
FIXUPS: 16793 1a 1f b 47 1a b 8d b 47 1a 19 56 b 47 1a 19 3f 2b b 81 1a
FIXUPS: 16b59 24 1a 17 11 2f b 47 1a fffff5e3 31 12 12 50 19 b 6 38 6 44
FIXUPS: 163b6 63 91 8 8 6b 43 4a 2e 41 a 9 9 b 45 12 1f b 47 12 1f 3982
FIXUPS: 1a0f0 30 30 30 30 30 30 30 30 30 13 2d ffffbbb4 40 11 f 50 6 f
FIXUPS: 15fea 12 3e 27 15 7a 7c 13 1d 31 40 13 3b6d 7 19 7 7 6d 2c b 60
FIXUPS: 19eca 22 16 8 31 20 16 8 12 d 1e 16 8 10 d 1e 16 8 10 d 1e 22 26
FIXUPS: 1987e b 65 b 47 1a 42 b 47 1a 42 b 47 1a 3e b 47 1a 3e b 47 1a
FIXUPS: 19c4c b 47 1a 3e b 39 11 22 19 fffff58c 46 b 47 1a 42 b 47 1a 52
FIXUPS: 194cf 47 1a 3e b 47 1a 3a b 47 1a 3a b 47 1a 3e b 47 1a 42 b 47
FIXUPS: 18dbd b 47 1a 1f b 47 1a 55 46 b 47 1a 33 b 47 1a 42 b 47 1a 3e
FIXUPS: 19151 47 1a 42 b 47 1a 46 b 47 fffff601 12 1f b 47 17 1f b 47 1a
FIXUPS: 18a5f 1c 6b 25 b 47 1a 19 35 b 47 1a 19 22 4b b 47 12 1f b 47 12
FIXUPS: 184ac 17 87 1e 1b b d c 8 37 19 39 8 13 35 d 7 7 14 8 129 9 c c
FIXUPS: 18812 9 9 b 47 12 1f b fffff969 18 11 c 2a 17 1b 9 6 12 16 1b d
FIXUPS: 18312 7 b 13 10 7 14 8 e 5f b b 11 b 11 b 11 b 11 fffff776 47 1a
FIXUPS: 17c31 1d 66 1d 21 a 34 9 b 4a 1a b8 1d 27 31 3a 27 11 23 dc 81
FIXUPS: 180d7 c4 28 c 14 7 b 16 fffff388 3e 20 26 b 4a 1e b 61 29 43 14
FIXUPS: 17797 46 b4 11 1f 128 12 1f b 47 12 1f b 47 17 1f b 47 1a 2c 2b76
FIXUPS: 1a73e 47 17 2c 54 39 34 1d d 11 e 39 9 9 b 47 1a 1d 4d 31 29 a6
FIXUPS: 1aafc b 5e b ffffc9e5 12 b b b 3bc0 17 11 27 3d 8c 28 4b 1f 42
FIXUPS: 1b391 41 22 ffffef21 b 4a b 48 87 7c 2f 4a bb 12 1f b 47 12 1f
FIXUPS: 1a6b3 47 1a 541 39 b 5e b 3b d 14 11 19 28 2b d 14 1b 23 13 16
FIXUPS: 1ae6b 20 58 a4 15 12 c c 1e 48 41 79 28 2d 4a0a2 fffb6f5f 13 23
FIXUPS: 1c186 35 53 42 45 23 b 61 4c 4c 13 23 14 35 53 42 c5 23 b 5d 75
FIXUPS: 1c6b8 b 48b6f b fffb7516 ffffe453 15 1120 9 b 3a 23 b 55 2f 32
FIXUPS: 1be24 12 b 50 b 71 12 17 16 29 13 17 12 b 50 b 42 16 25 2c b 490a5
FIXUPS: 651d2 fffb65e4 27 14 12 b 50 b 53 43 37 17 12 b 50 b 57 36 14 37
FIXUPS: 1bab4 12 b 50 b 60 2f 1a 78 17 1b 2f 17 493d8 e 7 14 7 14 7 17
FIXUPS: 65106 17 7 17 7 d fffb62d1 32 e 1f 75 34 17 19 81 63 37 14 12 b
FIXUPS: 1b6fe b 50 43 49510 c 8 14 5c b 5c f 10 15 10 6 c 8 10 6 c 8 14
FIXUPS: 64ea1 9 b e0 2a 13 b 13 1d 1e 25 20 22 fffff871 3a 1f b 33 80 11
FIXUPS: 64a3e 15 50 b 4a d f 10 15 10 6 c 8 11 c 8 14 43 28 9 b 5c 10 c
FIXUPS: 64c9b fffff88e 39 9 13 32 b 4c 1e 9 55 2a 15 18 1f b 4c 1e 9 55
FIXUPS: 647f6 15 18 1f b 4c d 10 c 8 11 c 8 20460 13 8 b 12 8 c c 48 60
FIXUPS: 84e65 c c 22 41 fffdf405 12 28 1c 46 9 b 60 2a 21 46 9 b 36 9 13
FIXUPS: 6451e fffb83eb 62 62 67ff8 12 39 9 b 6e 9 b 2a 1a c 1f 1c 8 21
FIXUPS: 84bf4 f c 1a f 19 b 2b 26 20 16 13 21 18 fff9d601 25 1c 40 1c 2d
FIXUPS: 22405 40 36 b 2a 13 5f b 38 14 12 18 32 1f 9 b 28 13 6f 9 b ffffa0e2
FIXUPS: 1c7d0 30 3d 6a 5459 30 30 30 30 30 30 30 30 30 30 30 30 30 30 30
FIXUPS: 22000 30 45 36 b 3f 36 b 4a 13 2d 13 5f b 55 b fffff2dd 20 99 28
FIXUPS: 21687 b 3b 8 36 22 4e 1bb 2a 29 1f 2c 4c 13 2d 30 30 30 30 30 30
FIXUPS: 21bb0 30 30 30 30 30 30 fffff257 22 72 15 2a 2b 22 1f 17 2a 4c
FIXUPS: 21143 27 9f 59 16 25 15 13 2b d 53 2a 3c c 5c b 5d 27 31 28 30
FIXUPS: 205c4 28 24 1c 14 75 d b 43 34 14 81 50 69 1ba 28 10 205 1c 63
FIXUPS: 20d24 b 3c 46 4e 3e 3e 24 28 11 1f 22 ffffefe6 30 44 3c b 49 3c
FIXUPS: 2004a 49 26 5d b 49 44 6a b bc 6c 27 15 5e c 9e f 28 28 14 4b 19
FIXUPS: 20584 9 22 fffff380 e c 26 51 8 8 95 b 13 12 9 f 25 13 23 19 33
FIXUPS: 1fb64 9 b 10a 1a 12 c 2f 17 15 c 151 10 55 fffff472 8 d d d 20
FIXUPS: 1f479 1e f 4c 16 b a 32 11 25 54 33 38 a 94 d4 e 6 b e 4c f 22
FIXUPS: 1f87b 12 88 fffff30d f 1b 10 63 f a a7 19 38 17 18 1d 9 b 52 19
FIXUPS: 1eed3 17 3d 4f 7 10 9 b 25b 68 88 2f 8 f 8 fffff1bc 2c 1e 94 45
FIXUPS: 1e64f 3c c9 c3 d 17 16 17 24 25 32 11 2f f 10 14 a 10 14 10 a 12
FIXUPS: 1eacc b 40 95 60 fffff1cb 2c 83 e1 1f 1d 9 20 12 26 15 2b f 9f
FIXUPS: 1e0fb 24 f 4c 1c 6b 9 2e a 9 3b 77 17 20 17 30 43 4f fffff6c9 1d
FIXUPS: 1dafa 1d 7 1d 7 1d 7 1d 7 1d 7 1d 7 1d 7 1d 7 1d 7 1d 7 1d 7 a9
FIXUPS: 1dd44 1e 13 7 38 13 fffff9f0 8 8 24 43 1e 43 1e 43 29 31 1e c 37
FIXUPS: 1d9cf 14 7 d 10 d 10 d 10 14 7 14 6 17 7 17 7 1d fffff46f 287 118
FIXUPS: 1d337 5 1c 37 5 51 f f f c 9 b 31 19 25 1e 9 26 32 17 73 b 63 2d
FIXUPS: 1d65c 26 18 13 63 fffff3f7 e e e e e e e e e e e e e e e e e 12
FIXUPS: 1cc19 1c 270 8 8 8 12 22 f f f c 9 5913 30 1f b c4 32 b ea 17 20
FIXUPS: 22ad9 20 17 43 17 3c 17 93 17 20 17 59 17 3c 17 ffff9d34 12 f b
FIXUPS: 1cacc e 1b 6c6b 15 1c 32 d 17 16 17 20 1c 7f 19 3a 2a 17 11 25
FIXUPS: 239ea 5 34 14 5 18 2c 13 5f b ffffec38 48 2d 28 30 82d 28 57 57
FIXUPS: 23158 57 5b a8 8e 87 5a 3f b 30 47 47 3e 2b 4b d 17 16 17 36 d
FIXUPS: 23688 1c 2d d 17 16 17 15a7 5e 28 37 28 37 28 44 11 9 5e 28 20
FIXUPS: 24f41 35 10 27 9 12 19 58 22 28 2a ffffdde2 22 39 22 24 41 66 28
FIXUPS: 246ee 4b d b7 8 1a d 31 22 73 15 46 57 1e 19 28 29 16 28 37 28
FIXUPS: 24b0d 11 9 5e 28 37 28 37 28 44 11 fffff157 17 11 15 1e b 33 cc
FIXUPS: 23fff 83 83 6f d 14 49 d 14 5f 17 52 4b 42 c6 16 44 25 e0 2f 15
FIXUPS: 2461b 27 6f 1522 1d 35 25 fffff4cb 35 b 22 1f 77 17 ae b 23 13
FIXUPS: 25372 b 25e70 5 20 8 fffd8925 24 b9 47 1f fd 15 1f 1c 17 1e 1607
FIXUPS: 2545a 52 14 20 14 2b 11 44 14 4d 25 81 14 1cd 48 16 11 32 9 b 33
FIXUPS: 259c2 3b 17 2c 54 38 3b 65 17 39 134f ae b 49 54 b 25 f e 19 6e
FIXUPS: 27193 a 9 25 9 3c c 63 28 30 94 58 45 b 5d 69 b 5c 13 ffffde78
FIXUPS: 253df 1177 9 10 37 a 18c 30 7d 5c 26 2e 17 11 4b 3a 6b 1f 45 2f
FIXUPS: 26a8b 9a 4b 58 75 28 30 3c 89 a9 76 b 49 1b43 34 ffffeb7d 4c 33
FIXUPS: 2765d 21 1c 17 34 14 14 23 b ffffe53a 93 22 22 2b 7a df a 17b 43
FIXUPS: 26345 25 f 11 8 16f b 27 1ebb 34 1b 2d 53 26 2e 58 19 17 32 15
FIXUPS: 285e9 47 32 17 8b b 3c 7c 88 11 2b 27 1e 13 2d 30 30 13 2d 34 fffff263
FIXUPS: 27c7b 26 25 55 61 26 2b 17 17 19 56 17 5a 17 5c 17 20 17 3d 6c
FIXUPS: 28054 c6 2d 2c a6 36 b ce b 26 5d 1464 1ed 17 ffffdd97 26 25 b
FIXUPS: 27853 19 19 70 b 40 38 42 2e 22 36 20 17 28 23 28 15 19 35 28 2f
FIXUPS: 27bbc 1e 3e 1a 12f0 78 a a6 5f 17 106 191 b 35 44 50 b 29 a7 1e
FIXUPS: 2953b 1b c 2e b 51 35 13 17 11 1c d4 c f 9a d 5d4 75 84 73 1a 9
FIXUPS: 2a014 4d 12 16 10 b c 20 35 c b ffffe95c 28 30 44 1e 14 7d 4f 45
FIXUPS: 28ddf b 3c 14 a1 3c 4725 1d d 8c 9 8 1f 9 14 2b 34 9 b 1d 14 ffffc349
FIXUPS: 29b73 13 c 9 1f b 25 b 1f 12 14 6d 87 35 7 11 34a5 17 20 17 11
FIXUPS: 2d2b3 49 17 20 17 11 26 19 13 6 3d 35 31 31 31 3d b 2c 42 17 14
FIXUPS: 2d5b0 11 b 1c 15 2f fffff843 17 14 17 20 17 20 17 20 17 11 54 17
FIXUPS: 2cfe6 17 20 17 24 17 20 17 11 57 17 14 17 20 17 11 30 2d 17 fffff85f
FIXUPS: 2ca8b 17 11 50 17 14 17 20 17 11 52 17 14 17 20 17 11 50 17 14
FIXUPS: 2ccfb 20 17 11 52 17 14 17 20 17 11 fffff84c 50 17 14 17 20 17
FIXUPS: 2c745 52 17 14 17 20 17 11 52 17 14 17 20 17 11 50 17 14 17 20
FIXUPS: 2c9c6 11 52 17 14 fffff84c 17 20 17 11 50 17 14 17 20 17 11 52
FIXUPS: 2c442 14 17 20 17 11 50 17 14 17 20 17 11 52 17 14 17 20 17 fffff84c
FIXUPS: 2beb7 52 17 14 17 20 17 11 50 17 14 17 20 17 11 52 17 14 17 20
FIXUPS: 2c138 11 50 17 14 17 20 17 11 52 17 fffff75b 25 c7 32 32 32 34
FIXUPS: 2bbb4 14 17 20 17 11 50 17 14 17 20 17 11 52 17 14 17 20 17 11
FIXUPS: 2be2d 17 14 17 20 fffff708 16 10 4b 1a 2a 37 17 16 17 20 17 1a
FIXUPS: 2b73b 17 20 17 48 29 17 20 17 20 17 93 17 20 17 20 17 20 17 fffff636
FIXUPS: 2b01d 20 5d b9 17 c0 17 1c 18 19 6a 17 19 4f 13 28 17 20 17 20
FIXUPS: 2b437 20 17 1f 1c 20 c 19 21 2f 42 fffff4d8 93 17 20 17 46 48 27
FIXUPS: 2ac00 45 23 17 1f 1e f7 17 3b 17 66 17 20 17 20 17 1f 4a 1f f f
FIXUPS: 2afbe e 27 fffff639 14 c 56 12 3e 4e 29 29 17 14 2c 17 16 17 20
FIXUPS: 2a864 35 14 1d 15 14 12 14 14 92 16 16 15 16 12 16 84d5 5f b 23
FIXUPS: 32fb3 2d 30 30 30 ffff70dd 8 19 16 27 36 5b 14 4e 1d 59 32 14 20
FIXUPS: 2a38e 54 11 103 1d 13 73 17 38 8407 1e 15 e 26 24 20 17 1a 1e 20
FIXUPS: 32b32 1e 15 e 57 2a 28 14 161 7f 17 12 1b 9 8 14 17 11 1b 12 32
FIXUPS: 32648 15 e 26 22 20 17 1a 1e 20 29 1e 15 e 26 22 20 17 1a 1e 20
FIXUPS: 328ac 1e 15 e 26 24 20 17 1a 1e 20 fffff8d4 e 26 22 20 17 1a 1e
FIXUPS: 3237f 29 1e 15 e 26 22 20 17 1a 1e 20 29 1e 15 e 26 22 20 17 1a
FIXUPS: 325e1 20 29 fffff8bb 26 22 20 17 1a 1e 20 29 1e 15 e 26 22 20 17
FIXUPS: 320bf 1e 20 29 1e 15 e 26 22 20 17 1a 1e 20 29 1e fffff744 64 12
FIXUPS: 31a47 74 b 41 38 64 14 b 2e b 41 38 5d 12 8 59 b 2d 28 26 22 20
FIXUPS: 31e23 1a 1e 20 29 1e 15 fffff630 41 38 5d 8 10 b 2e b 41 38 4b
FIXUPS: 31728 a 1d 12 8 16 d 15 37 9 b 21 3a 55 5d 13 b 2e b 41 fffff5d1
FIXUPS: 30f74 8 58 b 41 38 5d 1a b 2e b 41 38 5d 12 8 5e b 41 38 5d 19
FIXUPS: 31366 2e b 41 38 5d 12 8 6d fffff481 b 41 38 5d 12 8 58 b 41 38
FIXUPS: 30bb1 15 b 2e b 41 38 5d 12 8 58 b 41 38 5d 15 b 2e b 41 38 fffff4c0
FIXUPS: 30422 16 b 2e b 41 38 5d 12 8 60 b 41 38 5d 15 b 2e b 41 38 5d
FIXUPS: 307ee 8 58 b 41 38 5d 15 b fffff1cc 85 c 2f 35 b 7d 89 1e b7 56
FIXUPS: 2fe5e 17 40 98 3d 58 121 38 5d 17 b 2e b 41 38 5d 12 8 5e b 41
FIXUPS: 2f684 2b d f 10 11 16 11 1f 56 1a 17 17 45 9 27 10 2d 15 14 54
FIXUPS: 2f94c 15 1c 18 5b b 49 1a 49 b 50 fffff5c1 6 5b 1a 8 1c 17 1f 22
FIXUPS: 2f249 45 61 a 35 b 31 12 39 17 17 7f 1a 18 3a 8a b 49 1a 15 17
FIXUPS: 2f60b 6e fffff5da 17 46 d 12 e 10 11 10 1b 17 a 38 2e 33 2a 45
FIXUPS: 2ee5d 3a 17 4c 17 28 94 35 b 3c 17 17 6 2c 6 fffff5eb 7f 17 110
FIXUPS: 2e857 1b 66 1d 14 8 22 b 31 17 1e 17 1b 12 5b 1a 7 28 28 30 44
FIXUPS: 2eb42 17 17 5e b 49 1a fffff402 19 10 59 64 1c 84 20 ae aa 1c 40
FIXUPS: 2e39d 51 f f f c 9 b 1f 2a 15 15 34 90 29 50 1f b 29 25 fffff6f5
FIXUPS: 2dd67 f c 9 b 3a 16 15 8 9 24 16 21 b 23 26 14 e 16 3d 14 9 11
FIXUPS: 2df66 34 9 9 9 b 22 47 fffff98e 9 8 13 10 30 d e 21 2f 15 22 16
FIXUPS: 2daed d e 21 2f 15 1c b 1e 33 12 2e 12 12 87 2c e 1d 22 82c5 41
FIXUPS: 36071 30 36 36 c 48 22 14 7 14 6 d 57 3b 1b 31 17 11 1c c4 45 31
FIXUPS: 364d0 ffff73b5 62 b 4b 2c a 27 8163 17 18 e5 b 6 99 5c 9 9 9 b
FIXUPS: 35d96 11 8 9 a d 8 9 a 23 17 11 8 40 b 49 1e 17 5a b fffff55d 2a
FIXUPS: 35518 28 30 44 1e 17 11 39 55 9 b 5c 22 3c 17 11 1e 49 1e 17 e2
FIXUPS: 35907 101 4d 17 20 17 11 c 33 fffff49d 11 1f 30 3c 50 1a c 27 9
FIXUPS: 350dd 30 3b 3f 4c 1a c 27 9 b 30 3b 3b 3b 3b 36 1f 1c 44 1f 1c
FIXUPS: 3549e fffff2b2 31 3c 19 59 1c d 10 3c 24 be 17 19 63 37 23 b 46
FIXUPS: 34af1 d 2a 24 33 c d 142 1a 41 1c9 3a 27 1a fffff2e3 25 26 7 33
FIXUPS: 342f7 15 2d 17 1b 7 24 17 1a 29 2b 62 17 27 59 10 93 24 42 2d 17
FIXUPS: 3467e 30 2d 2c b 17 fffff5e0 17 11 1f 1b 1b 17 6a 19 67 28 10 15
FIXUPS: 33f06 35 1e 24 59 1c d 10 3c 24 63 28 10 15 37 35 1e 24 49 fffff685
FIXUPS: 338a8 c 1f 19 17 5e 1f 45 7b 1f 10 1b 1c 1c 1c 2f 17 42 17 13 c
FIXUPS: 33ba9 4b 34 1d 1c 1d d b 3f 21 fffff6a8 31 29 7a 3d 3c 90 1a 29
FIXUPS: 335ce b 2b 53 67 b 1f 1c 14 c 9 13 17 11 32 13 17 11 32 d 2e d
FIXUPS: 3387f 4f68 17 31 21 16 43 2d 22 30 21 ffffa773 24 a3 39 b 1b 15
FIXUPS: 3321a 9 21 24 19 9 13 17 11 35 18 1a 25 18 1a 4e32 22 1a 5b 17
FIXUPS: 38294 92 5d 17 e 5b 41 17 20 17 20 17 5f 25 16 19 36 5f 9f 30 21
FIXUPS: 38742 17 20 17 20 17 fffff215 20 146 42 bb 19 1e 43 17 3c 17 2a
FIXUPS: 37d64 96 17 20 17 4a 17 e 14c 16 19 1d 22 19 1c 50 4f 17 30 14
FIXUPS: 373ee 17 20 17 30 17 15 15 c 35 22 1f 4a 6 2c 49 46 80 19 2d a9
FIXUPS: 377d0 37 b 28 17 20 17 5f 17 2c 46 fffff459 13 17 38 1c 2c 49 3d
FIXUPS: 36f10 11 1a f 78 28 b 25 3c 17 20 17 33 3e 16 2d 37 10b 9 2c 29
FIXUPS: 37306 bb 17 fffff4e2 1e 1a 22 54 b c 1e 40 17 14 26 51 17 66 17
FIXUPS: 36b6c 17 54 9 b 54 d 17 16 17 47 17 3b 33 45 17 1fb6 47 b 49 20
FIXUPS: 38eb7 1f 40 4b b 42 76 ffffd509 2b 14 1d 57 d 14 16 14 44 72 27
FIXUPS: 3671c 38 45 14 41 45 37 17 2c2f 1c 3b 17 40 4f 7 28 c 9 b 77 4d
FIXUPS: 396c7 23 b fffff2a3 28 30 6f aa 24 6b 7 23 b 45 23 31 54 69 1f
FIXUPS: 3971d 1f 58 ab 22 42 c2 8f 4f 25 29 1fc fffff3eb 28 30 b6 13 1f
FIXUPS: 391c3 49 13 39 b 60 4d 7 23 b 2d 28 30 bf 13e1 2a 31 103 d5 c b
FIXUPS: 3aaf7 1f d0 75 53 1f 3c 1f 4f 46 36 1f 25 17 8 10 17 15 52 e 19
FIXUPS: 3af8f aa c b fffff047 16 14 c 6 47 b 25 9 b a2 3d 1aa 46 60 4f
FIXUPS: 3a4ee 53 38 69 25 52 28 17 8 10 17 18 f6 25 11 2e 12bf 8 9 8 9
FIXUPS: 3bb22 9 29 8 b 12 46 8 6a 35 32 ffffe072 17b 6e 19 15 14 1e d 15
FIXUPS: 39f88 6 29 17 56 17 42 1629 1f 5a 10 9 22 9 b 22 81 51 d 41 8 8
FIXUPS: 3b8df 27 9 14 10 25 7e 11 2a 10 20 2c 37 2e 8 b b fffff7cf a 9
FIXUPS: 3b2fb 14 67 21 b 78 38 29 65 b b 8 8 9 8 9 8 9 14 14 a 9 6a d b
FIXUPS: 3b60e 19 3e 2b ac0 9 b 49 6d b 9d 18 26 17 11 8b ffffed40 29 29
FIXUPS: 3b167 42 3c e 1c 9 32 b b 8 8 9 8 9 8 9 14 3ff3 ac 10 ea 18 27
FIXUPS: 3f49b f 36 13 2d 13 ffffc91e 28 30 44 16 29 9 48 4b 39 b 10 c 10
FIXUPS: 3c042 8 2b 13 22 77 2b6c 30 19 23 1c 12 1a 20 3e 1c 1f 15 2b 1c
FIXUPS: 3ee48 4a 26 28 25 2a 36 19 3c 19 12d 3d 35 15 17 6b 1c 11 fffff4d4
FIXUPS: 3e723 31 24 11 4e b 38 23 14 d 53 34 28 38 76 b 3d 74 b 41 21 b
FIXUPS: 3eb21 1e 28 25 14 35 1d 3c 1d fffff513 118 20 1b f 11 4f f c c
FIXUPS: 3e395 b 4b f 10 c 1c 2b c 13 17 18 39 b 66 62 51 22 3b 1e 42 33
FIXUPS: 3dad6 25 2f 29 31 37 24 19 2f 22 22 20 38 1c 1f 15 2b 1c 49 45
FIXUPS: 3de28 15 60 15 17 83 1c 1d 2c 5b c8 7a ffffe996 1e fd 299 389 2c
FIXUPS: 3d2ba 1a f3 29e 27 167 14 f 55 c c b 3d 14 f 53 c c b 49 33 c c
FIXUPS: 3da03 91 1e 2c08 b 4f 1f 39 17 18 17 c 2d 7 22 9 b 4f 1f 39 17
FIXUPS: 408fe 43 9 b 2b ffffbdad 23 33 2d 43 83 20 20 217 35e3 17 20 17
FIXUPS: 4011e 17 19 2e 6e 17 15 15 2c 36 70 17 14 17 20 17 20 17 19 55
FIXUPS: 404e3 36 5c 28 30 76 4d 7 fffff43a 40 2f 48 c 29 17 98 4a 6 36
FIXUPS: 3fd09 82 7a 17 14 17 20 17 19 45 1a 29 26 28 25 1e 22 7c 17 14
FIXUPS: 40090 e18 7 16 b1 12c b 23 13 5f b fffff86c 24 53 77 4f 57 57 5b
FIXUPS: 3f560 a4 25 19 19 29a 109 17 14 17 16 17 20 17 277d 10 4b 53 f
FIXUPS: 422f9 10 8 48 5f 52 2d f 3b 42 3d 13 5f b ffffe6da 5 2a 1d 33 2c
FIXUPS: 40d0d 60 56 2b 28 30 3f e92 10 58 1d 22 17 58 22 11 14 61 3f 1f
FIXUPS: 41f44 5d 71 39 1d f 1b 10 c 3a d b 60 51 f 17 8 16 10 ffffefc2
FIXUPS: 411f1 29 13 1c b 36 117 14 12 dc ae 70 28 30 127 11 157 39 32 5a
FIXUPS: 41a36 6a 5a 39 32 5a 6a 75 3d f 17 1ca3 5 2b 1a 3a 69 6 18 21 13
FIXUPS: 43b42 b 23 13 72 9 b 8f f f 9 b 1156f 15 fffeeac7 2c b 34 13 5f
FIXUPS: 43dfd ffffd3b8 2288 22 1b 13 c 1a c 15 15 11 16 12 15 11 16 12
FIXUPS: 4357c 4a 9 b 3d 200 2a 42 10 38 24 2d e 3b 15 15 fffff6cf 5a 16
FIXUPS: 430e1 17 11 15 56 b 2b 9 36 10 26 a 10 29 24 1d 1b 18 12 12 11
FIXUPS: 43328 1b 3f 10 11 c 61 18 fffff7d5 27 4f 16 11 13 11 14 e 3b 1b
FIXUPS: 42db0 47 17 17 1e 27 53 17 15 17 20 14 17 11 15 28 b 47 17 17 1e
FIXUPS: 42805 9 1f 37 8 1d 9a 15 12 20 12 30 f f 9 b 59 17 2f 1a 8 1b 4b
FIXUPS: 42b1a 8 f 26 25 d b 31 17 4324 b 25 13 e376 15 ffff1cd7 2c b 34
FIXUPS: 47023 5f b ffffb528 36 b 81 b 1c 15 1c 17 17 11 16 27 c 38 f 2b
FIXUPS: 427d8 11 4200 5 2b 1a 3a 69 6 18 2c 13 42 2c b 56 b b6 f f f f
FIXUPS: 46d0e f 9 b 2f 13 42 23 b 5f b 3c fffff80f f 14 11 26 15 30 21
FIXUPS: 4678b 2c 19 b 29 b 30 23 b 30 27 2b 24 2d e 10 15 10 10 f 7 f 7
FIXUPS: 469d4 fffff923 13 84 1d f 12 1f 22 c b 28 28 8 24 15 23 33 19 8
FIXUPS: 4653d 1f 12 12 23 19 b 43 1a 1f f d 1a fffff99c e 11 1f 12 8 1e
FIXUPS: 460b1 17 19 20 66 12 8 12 c a 9 8 43 f 8 8 11 11 37 f 17 1a 13
FIXUPS: 462da 8 fffff8ab 1c 1e 5c 1a 14 8 37 6d 59 d 1d 22 b 2b 20 2d 1b
FIXUPS: 45e4e 28 55 31 15 44 19 8 11 1f 12 8 19 b fffff6c1 19 17 44 30
FIXUPS: 4576b 18 12 44 15 13 8 b 2c 17 15 d b 29 27 3e 13 c 27 9 b 38 27
FIXUPS: 45a40 d1 1f 45 fffff66b 11 17 11 45 e f 15 30 21 26 2c 2b 9 9 b
FIXUPS: 453b1 9d b1 12 f 1d 13 22 c 9 b 7b c 9 b 4d fffff81e 19 b 36 1f
FIXUPS: 44f51 e 15 19 f a 15 9 1a 3d 9f 1b 8 f 17 17 8 f 17 17 8 f 17 17
FIXUPS: 451ac f 17 fffff6e1 45 25 89 9 b 48 17 17 1e 27 53 12 8 48 a 34
FIXUPS: 44d5f b 25 1b 3e a 1a 1a 11 15 10 10 f 7 f fffff58b 2b 88 13 14
FIXUPS: 4450a 15 1a 11 d2 19 10 19 9 9 9 9 b 54 14 17 1e 27 5a 16 13 17
FIXUPS: 447fc 15 3d 10 2a fffff8b7 28 c 25 c 25 c 37 b 3a 16 8 11 8 e c
FIXUPS: 442b1 f 9 24 c 22 9 b 46 17 17 17 17 14 19 d 417a 2c b 34 13 5f
FIXUPS: 4866d ffffb802 15 12 12 12 12 12 12 2f f f f f f f 9 b 21 9 57
FIXUPS: 4404a 9 f be 13 40e1 10 8 8 f 1e 8 9 a 9 2b 24 2d 15 15 5 2b 1a
FIXUPS: 483af 69 6 18 2a 13 2d b b 6f 9 b ce00 15 ffff2bb3 21 17 10 f f
FIXUPS: 47f79 10 d c c b 55 c c c c c c c b 2f 14 14 38 45 47 8 27 35 d
FIXUPS: 48209 fffff81b 48 22 30 b 21 18 7a 77 7f b 41 17 b 14 d 17 f 11
FIXUPS: 47d49 42 1e 6 21 f 77 14 10 d c c b fffff643 1b 14 11 15 27 b 6c
FIXUPS: 475f3 27 5a 16 13 17 11 15 7b 23 b 47 f 15 22 f 61 31 b b8 41 1d
FIXUPS: 479db 3e fffff6fb 12 3c f 9 b b3 f 9 b 31 8 1b d 8 32 17 14 16
FIXUPS: 4734e 16 16 13 16 a 42 13 38 53 17 15 14 1503 14 15 1f 5a 1c 14
FIXUPS: 48ab0 d a 20 1f 1f 18 16 a 20 2a 15 c 3f 22 22 5f 41 20 35 3f 21
FIXUPS: 48df0 13 ffffe2fc 23ad b 42 17 2c 9 b 2c 27 27 27 27 27 fffff086
FIXUPS: 486d6 14 b c a 1d f 3b 15 3c 9 b 2c 13 15 af 3e 83 4f3 37 32 40
FIXUPS: 48f77 40 2b 29 36 39 2f 170 1b 2c 9 b 3a 1f 2c 9 b 2d f 44 f 1e
FIXUPS: 493c5 2d 2c 42 17 2c
