 MFCO42UD

 Timestamp is 31c84159 (Wed Jun 19 11:05:13 1996)

 Preferred load address is 5f500000

 Start         Length     Name                   Class
 0001:00000000 0004a1a8H .text                   CODE
 0001:0004a1b0 00000078H .text$AFX_CORE1         CODE
 0001:0004a230 000060dfH .text$AFX_CORE4         CODE
 0001:00050310 000040c0H .text$AFX_INIT          CODE
 0001:000543d0 0000fe7fH .text$AFX_OLE1          CODE
 0001:00064250 000099caH .text$AFX_OLE2          CODE
 0001:0006dc20 00007e03H .text$AFX_OLE3          CODE
 0001:00075a30 0000e4ffH .text$AFX_OLE4          CODE
 0001:00083f30 00003c86H .text$AFX_OLE5          CODE
 0001:00087bc0 00000328H .text$AFX_TERM          CODE
 0001:00087ef0 00001198H .text$AFX_VDEL          CODE
 0002:00000000 00010c30H .rdata                  DATA
 0002:00010c30 00004438H .rdata$r                DATA
 0002:00015068 00009658H .xdata$x                DATA
 0002:0001e6c0 00003509H .edata                  DATA
 0003:00000000 00000004H .CRT$XCA                DATA
 0003:00000004 0000000cH .CRT$XCL                DATA
 0003:00000010 00000028H .CRT$XCU                DATA
 0003:00000038 00000004H .CRT$XCZ                DATA
 0003:0000003c 00000004H .CRT$XIA                DATA
 0003:00000040 00000004H .CRT$XIZ                DATA
 0003:00000050 000029b4H .data                   DATA
 0003:00002a08 00002500H .bss                    DATA
 0004:00000000 00000064H .idata$2                DATA
 0004:00000064 00000014H .idata$3                DATA
 0004:00000078 000010c0H .idata$4                DATA
 0004:00001138 000010c0H .idata$5                DATA
 0004:000021f8 00000b00H .idata$6                DATA
 0005:00000000 00000448H .rsrc$01                DATA
 0005:00000450 00002198H .rsrc$02                DATA

  Address         Publics by Value              Rva+Base   Lib:Object

 0001:00000000       ?GetHead@?$CTypedSimpleList@PAUCRuntimeClass@@@@QAEPAUCRuntimeClass@@XZ 5f501000 f dllole.obj
 0001:00000020       ?GetHead@CSimpleList@@QBEPAXXZ 5f501020 f dllole.obj
 0001:00000040       ??B?$CTypedSimpleList@PAUCRuntimeClass@@@@QAEPAUCRuntimeClass@@XZ 5f501040 f dllole.obj
 0001:00000060       ?GetHead@?$CTypedSimpleList@PAVCOleObjectFactory@@@@QAEPAVCOleObjectFactory@@XZ 5f501060 f dllole.obj
 0001:00000080       ??B?$CTypedSimpleList@PAVCOleObjectFactory@@@@QAEPAVCOleObjectFactory@@XZ 5f501080 f dllole.obj
 0001:000000a0       ?T2COLE@@YAPBGPBG@Z        5f5010a0 f olecli1.obj
 0001:000000c0       ?OLE2CT@@YAPBGPBG@Z        5f5010c0 f olecli1.obj
 0001:000000e0       ?T2OLE@@YAPAGPAG@Z         5f5010e0 f olecli1.obj
 0001:00000100       ??B?$CProcessLocal@V_AFX_OLE_STATE@@@@QAEPAV_AFX_OLE_STATE@@XZ 5f501100 f olecli2.obj
 0001:00000120       ?GetData@?$CProcessLocal@V_AFX_OLE_STATE@@@@QAEPAV_AFX_OLE_STATE@@XZ 5f501120 f olecli2.obj
 0001:00000170       ?CreateObject@?$CProcessLocal@V_AFX_OLE_STATE@@@@SGPAVCNoTrackObject@@XZ 5f501170 f olecli2.obj
 0001:00000200       ??C?$CProcessLocal@V_AFX_OLE_STATE@@@@QAEPAV_AFX_OLE_STATE@@XZ 5f501200 f oledobj2.obj
 0001:00000220       ??9@YAHABU_GUID@@0@Z       5f501220 f oledisp1.obj
 0001:00000260       ??8@YAHABU_GUID@@0@Z       5f501260 f oledisp1.obj
 0001:000002a0       ?wcschr@@YAPAGPAGG@Z       5f5012a0 f oledlgs1.obj
 0001:000002d0       ?TASKSTRINGOLE2T@@YAPAGPAG@Z 5f5012d0 f oledlgs1.obj
 0001:000002f0       ??1CNoTrackObject@@UAE@XZ  5f5012f0 f oledata.obj
 0001:00000310       ??_GCNoTrackObject@@UAEPAXI@Z 5f501310 f oledata.obj
 0001:00000310       ??_ECNoTrackObject@@UAEPAXI@Z 5f501310 f oledata.obj
 0001:00000350       ??0CNoTrackObject@@QAE@XZ  5f501350 f oledata.obj
 0001:00000380       ??1?$_CIP@UIMoniker@@$1IID_IMoniker@@QAE@XZ 5f501380 f oledoc1.obj
 0001:000003a0       ??B?$_CIP@UIMoniker@@$1IID_IMoniker@@QBEPAUIMoniker@@XZ 5f5013a0 f oledoc1.obj
 0001:000003c0       ?_Release@?$_CIP@UIMoniker@@$1IID_IMoniker@@AAEXXZ 5f5013c0 f oledoc1.obj
 0001:00000400       ??0?$CIP@UIMoniker@@$1IID_IMoniker@@QAE@XZ 5f501400 f oledoc1.obj
 0001:00000470       ??0?$_CIP@UIMoniker@@$1IID_IMoniker@@QAE@XZ 5f501470 f oledoc1.obj
 0001:000004a0       ??B?$_CIP@UIBinding@@$1IID_IBinding@@QBEPAUIBinding@@XZ 5f5014a0 f oledoc1.obj
 0001:000004c0       ??4?$CIP@UIBinding@@$1IID_IBinding@@QAEAAV0@PAUIBinding@@@Z 5f5014c0 f oledoc1.obj
 0001:000004f0       ??4?$_CIP@UIBinding@@$1IID_IBinding@@QAEAAV0@PAUIBinding@@@Z 5f5014f0 f oledoc1.obj
 0001:00000550       ?_AddRef@?$_CIP@UIBinding@@$1IID_IBinding@@AAEXXZ 5f501550 f oledoc1.obj
 0001:00000590       ?AddHead@?$CTypedSimpleList@PAVCOleObjectFactory@@@@QAEXPAVCOleObjectFactory@@@Z 5f501590 f olefact.obj
 0001:000005c0       ?Remove@?$CTypedSimpleList@PAVCOleObjectFactory@@@@QAEHPAVCOleObjectFactory@@@Z 5f5015c0 f olefact.obj
 0001:000005f0       ??B?$CTypedSimpleList@PAVCDynLinkLibrary@@@@QAEPAVCDynLinkLibrary@@XZ 5f5015f0 f olefact.obj
 0001:00000610       ??_9@$BBAI@AE              5f501610 f oleipfrm.obj
 0001:00000620       ?ocslen@@YAIPBG@Z          5f501620 f olemisc.obj
 0001:00000640       ?ocscpy@@YAPAGPAGPBG@Z     5f501640 f olemisc.obj
 0001:00000670       ?OLE2T@@YAPAGPAG@Z         5f501670 f olemisc.obj
 0001:00000690       ?DEVMODEOLE2T@@YAPAU_devicemodeW@@PAU1@@Z 5f501690 f olemisc.obj
 0001:000006b0       ?DEVMODET2OLE@@YAPAU_devicemodeW@@PAU1@@Z 5f5016b0 f olemisc.obj
 0001:000006d0       ?_GetBaseInterfaceMap@CEnumOleVerb@@KGPBUAFX_INTERFACEMAP@@XZ 5f5016d0 f oleverb.obj
 0001:000006e5       ?GetInterfaceMap@CEnumOleVerb@@MBEPBUAFX_INTERFACEMAP@@XZ 5f5016e5 f oleverb.obj
 0001:00000700       ??1CEnumOleVerb@@UAE@XZ    5f501700 f oleverb.obj
 0001:000007b5       ?OnNext@CEnumOleVerb@@MAEHPAX@Z 5f5017b5 f oleverb.obj
 0001:00000824       ?EnumOleVerbs@CCmdTarget@@QAEHPAPAUIEnumOLEVERB@@@Z 5f501824 f oleverb.obj
 0001:00000aa5       ?DoOleVerb@CCmdTarget@@QAEHJPAUtagMSG@@PAUHWND__@@PBUtagRECT@@@Z 5f501aa5 f oleverb.obj
 0001:00000c20       ??_ECEnumOleVerb@@UAEPAXI@Z 5f501c20 f oleverb.obj
 0001:00000c20       ??_GCEnumOleVerb@@UAEPAXI@Z 5f501c20 f oleverb.obj
 0001:00000c60       ??0CEnumOleVerb@@QAE@PBXI@Z 5f501c60 f oleverb.obj
 0001:00000ce0       ??0COleVariant@@QAE@ABUtagVARIANT@@@Z 5f501ce0 f olevar.obj
 0001:00000d18       ??0COleVariant@@QAE@PBUtagVARIANT@@@Z 5f501d18 f olevar.obj
 0001:00000d50       ??0COleVariant@@QAE@ABV0@@Z 5f501d50 f olevar.obj
 0001:00000d88       ??0COleVariant@@QAE@PBGG@Z 5f501d88 f olevar.obj
 0001:00000e28       ?SetString@COleVariant@@QAEXPBGG@Z 5f501e28 f olevar.obj
 0001:00000ecd       ??0COleVariant@@QAE@FG@Z   5f501ecd f olevar.obj
 0001:00000f73       ??0COleVariant@@QAE@JG@Z   5f501f73 f olevar.obj
 0001:00001050       ?Clear@COleVariant@@QAEXXZ 5f502050 f olevar.obj
 0001:00001090       ?ChangeType@COleVariant@@QAEXGPAUtagVARIANT@@@Z 5f502090 f olevar.obj
 0001:000010f6       ?Attach@COleVariant@@QAEXAAUtagVARIANT@@@Z 5f5020f6 f olevar.obj
 0001:00001130       ?Detach@COleVariant@@QAE?AUtagVARIANT@@XZ 5f502130 f olevar.obj
 0001:000011a7       ??8COleVariant@@QBEHABUtagVARIANT@@@Z 5f5021a7 f olevar.obj
 0001:000014b6       ??4COleVariant@@QAEABV0@ABUtagVARIANT@@@Z 5f5024b6 f olevar.obj
 0001:000014e5       ??4COleVariant@@QAEABV0@PBUtagVARIANT@@@Z 5f5024e5 f olevar.obj
 0001:00001514       ??4COleVariant@@QAEABV0@ABV0@@Z 5f502514 f olevar.obj
 0001:00001543       ??4COleVariant@@QAEABV0@QBG@Z 5f502543 f olevar.obj
 0001:000015b9       ??4COleVariant@@QAEABV0@ABVCString@@@Z 5f5025b9 f olevar.obj
 0001:0000161b       ??4COleVariant@@QAEABV0@E@Z 5f50261b f olevar.obj
 0001:00001660       ??4COleVariant@@QAEABV0@F@Z 5f502660 f olevar.obj
 0001:000016f0       ??4COleVariant@@QAEABV0@J@Z 5f5026f0 f olevar.obj
 0001:00001799       ??4COleVariant@@QAEABV0@ABVCOleCurrency@@@Z 5f502799 f olevar.obj
 0001:000017e8       ??4COleVariant@@QAEABV0@M@Z 5f5027e8 f olevar.obj
 0001:0000182d       ??4COleVariant@@QAEABV0@N@Z 5f50282d f olevar.obj
 0001:00001878       ??4COleVariant@@QAEABV0@ABVCOleDateTime@@@Z 5f502878 f olevar.obj
 0001:000018c5       ??4COleVariant@@QAEABV0@ABVCByteArray@@@Z 5f5028c5 f olevar.obj
 0001:00001911       ??4COleVariant@@QAEABV0@ABVCLongBinary@@@Z 5f502911 f olevar.obj
 0001:00001970       ?AfxVariantInit@@YGXPAUtagVARIANT@@@Z 5f502970 f olevar.obj
 0001:00001992       ??6@YGAAVCDumpContext@@AAV0@VCOleVariant@@@Z 5f502992 f olevar.obj
 0001:00001d9a       ??6@YGAAVCArchive@@AAV0@VCOleVariant@@@Z 5f502d9a f olevar.obj
 0001:00002207       ??5@YGAAVCArchive@@AAV0@AAVCOleVariant@@@Z 5f503207 f olevar.obj
 0001:0000263c       ?ConstructElements@@YGXPAVCOleVariant@@H@Z 5f50363c f olevar.obj
 0001:000026d6       ?DestructElements@@YGXPAVCOleVariant@@H@Z 5f5036d6 f olevar.obj
 0001:00002752       ?CopyElements@@YGXPAVCOleVariant@@PBV1@H@Z 5f503752 f olevar.obj
 0001:00002810       ?SerializeElements@@YGXAAVCArchive@@PAVCOleVariant@@H@Z 5f503810 f olevar.obj
 0001:0000291f       ?DumpElements@@YGXAAVCDumpContext@@PAVCOleVariant@@H@Z 5f50391f f olevar.obj
 0001:000029af       ?HashKey@@YGIABUtagVARIANT@@@Z 5f5039af f olevar.obj
 0001:00003182       ??0COleCurrency@@QAE@JJ@Z  5f504182 f olevar.obj
 0001:000031b7       ??4COleCurrency@@QAEABV0@TtagCY@@@Z 5f5041b7 f olevar.obj
 0001:000031ea       ??4COleCurrency@@QAEABV0@ABV0@@Z 5f5041ea f olevar.obj
 0001:00003221       ??4COleCurrency@@QAEABV0@ABUtagVARIANT@@@Z 5f504221 f olevar.obj
 0001:00003351       ??MCOleCurrency@@QBEHABV0@@Z 5f504351 f olevar.obj
 0001:0000340a       ??OCOleCurrency@@QBEHABV0@@Z 5f50440a f olevar.obj
 0001:000034c3       ??NCOleCurrency@@QBEHABV0@@Z 5f5044c3 f olevar.obj
 0001:0000357c       ??PCOleCurrency@@QBEHABV0@@Z 5f50457c f olevar.obj
 0001:00003635       ??HCOleCurrency@@QBE?AV0@ABV0@@Z 5f504635 f olevar.obj
 0001:00003746       ??GCOleCurrency@@QBE?AV0@ABV0@@Z 5f504746 f olevar.obj
 0001:00003857       ??GCOleCurrency@@QBE?AV0@XZ 5f504857 f olevar.obj
 0001:000038f2       ??DCOleCurrency@@QBE?AV0@J@Z 5f5048f2 f olevar.obj
 0001:00003c53       ??KCOleCurrency@@QBE?AV0@J@Z 5f504c53 f olevar.obj
 0001:00003f9e       ?SetCurrency@COleCurrency@@QAEXJJ@Z 5f504f9e f olevar.obj
 0001:0000405f       ?ParseCurrency@COleCurrency@@QAEHPBGKK@Z 5f50505f f olevar.obj
 0001:000041da       ?Format@COleCurrency@@QBE?AVCString@@KK@Z 5f5051da f olevar.obj
 0001:00004350       ??6@YGAAVCDumpContext@@AAV0@VCOleCurrency@@@Z 5f505350 f olevar.obj
 0001:00004405       ??6@YGAAVCArchive@@AAV0@VCOleCurrency@@@Z 5f505405 f olevar.obj
 0001:0000443b       ??5@YGAAVCArchive@@AAV0@AAVCOleCurrency@@@Z 5f50543b f olevar.obj
 0001:00004477       ?GetTickCount@COleDateTime@@SG?AV1@XZ 5f505477 f olevar.obj
 0001:000044a0       ?GetYear@COleDateTime@@QBEHXZ 5f5054a0 f olevar.obj
 0001:000044f6       ?GetMonth@COleDateTime@@QBEHXZ 5f5054f6 f olevar.obj
 0001:0000454c       ?GetDay@COleDateTime@@QBEHXZ 5f50554c f olevar.obj
 0001:000045a2       ?GetHour@COleDateTime@@QBEHXZ 5f5055a2 f olevar.obj
 0001:000045f8       ?GetMinute@COleDateTime@@QBEHXZ 5f5055f8 f olevar.obj
 0001:0000464e       ?GetSecond@COleDateTime@@QBEHXZ 5f50564e f olevar.obj
 0001:000046a4       ?GetDayOfWeek@COleDateTime@@QBEHXZ 5f5056a4 f olevar.obj
 0001:000046fa       ?GetDayOfYear@COleDateTime@@QBEHXZ 5f5056fa f olevar.obj
 0001:00004750       ??4COleDateTime@@QAEABV0@ABUtagVARIANT@@@Z 5f505750 f olevar.obj
 0001:00004879       ??4COleDateTime@@QAEABV0@N@Z 5f505879 f olevar.obj
 0001:000048ac       ??4COleDateTime@@QAEABV0@ABJ@Z 5f5058ac f olevar.obj
 0001:00004968       ??4COleDateTime@@QAEABV0@ABU_SYSTEMTIME@@@Z 5f505968 f olevar.obj
 0001:000049df       ??4COleDateTime@@QAEABV0@ABU_FILETIME@@@Z 5f5059df f olevar.obj
 0001:00004abd       ??MCOleDateTime@@QBEHABV0@@Z 5f505abd f olevar.obj
 0001:00004b6a       ??OCOleDateTime@@QBEHABV0@@Z 5f505b6a f olevar.obj
 0001:00004c17       ??NCOleDateTime@@QBEHABV0@@Z 5f505c17 f olevar.obj
 0001:00004cc4       ??PCOleDateTime@@QBEHABV0@@Z 5f505cc4 f olevar.obj
 0001:00004d71       ??HCOleDateTime@@QBE?AV0@ABVCOleDateTimeSpan@@@Z 5f505d71 f olevar.obj
 0001:00004e5b       ??GCOleDateTime@@QBE?AV0@ABVCOleDateTimeSpan@@@Z 5f505e5b f olevar.obj
 0001:00004f45       ??GCOleDateTime@@QBE?AVCOleDateTimeSpan@@ABV0@@Z 5f505f45 f olevar.obj
 0001:00005020       ?SetDateTime@COleDateTime@@QAEHHHHHHH@Z 5f506020 f olevar.obj
 0001:00005083       ?ParseDateTime@COleDateTime@@QAEHPBGKK@Z 5f506083 f olevar.obj
 0001:000051f8       ?Format@COleDateTime@@QBE?AVCString@@KK@Z 5f5061f8 f olevar.obj
 0001:0000536e       ?Format@COleDateTime@@QBE?AVCString@@PBG@Z 5f50636e f olevar.obj
 0001:000054f0       ?Format@COleDateTime@@QBE?AVCString@@I@Z 5f5064f0 f olevar.obj
 0001:000055b4       ?CheckRange@COleDateTime@@IAEXXZ 5f5065b4 f olevar.obj
 0001:00005600       ??6@YGAAVCDumpContext@@AAV0@VCOleDateTime@@@Z 5f506600 f olevar.obj
 0001:000056b5       ??6@YGAAVCArchive@@AAV0@VCOleDateTime@@@Z 5f5066b5 f olevar.obj
 0001:000056e3       ??5@YGAAVCArchive@@AAV0@AAVCOleDateTime@@@Z 5f5066e3 f olevar.obj
 0001:00005710       ?GetHours@COleDateTimeSpan@@QBEJXZ 5f506710 f olevar.obj
 0001:00005773       ?GetMinutes@COleDateTimeSpan@@QBEJXZ 5f506773 f olevar.obj
 0001:000057dd       ?GetSeconds@COleDateTimeSpan@@QBEJXZ 5f5067dd f olevar.obj
 0001:00005847       ??4COleDateTimeSpan@@QAEABV0@N@Z 5f506847 f olevar.obj
 0001:0000587a       ??4COleDateTimeSpan@@QAEABV0@ABV0@@Z 5f50687a f olevar.obj
 0001:000058b1       ??HCOleDateTimeSpan@@QBE?AV0@ABV0@@Z 5f5068b1 f olevar.obj
 0001:00005975       ??GCOleDateTimeSpan@@QBE?AV0@ABV0@@Z 5f506975 f olevar.obj
 0001:00005a39       ?SetDateTimeSpan@COleDateTimeSpan@@QAEXJHHH@Z 5f506a39 f olevar.obj
 0001:00005a9a       ?Format@COleDateTimeSpan@@QBE?AVCString@@PBG@Z 5f506a9a f olevar.obj
 0001:00005c1c       ?Format@COleDateTimeSpan@@QBE?AVCString@@I@Z 5f506c1c f olevar.obj
 0001:00005ce0       ?CheckRange@COleDateTimeSpan@@QAEXXZ 5f506ce0 f olevar.obj
 0001:00005d2c       ??6@YGAAVCDumpContext@@AAV0@VCOleDateTimeSpan@@@Z 5f506d2c f olevar.obj
 0001:00005de5       ??6@YGAAVCArchive@@AAV0@VCOleDateTimeSpan@@@Z 5f506de5 f olevar.obj
 0001:00005e13       ??5@YGAAVCArchive@@AAV0@AAVCOleDateTimeSpan@@@Z 5f506e13 f olevar.obj
 0001:00006483       ??0COleSafeArray@@QAE@ABUtagSAFEARRAY@@G@Z 5f507483 f olevar.obj
 0001:000064ed       ??0COleSafeArray@@QAE@PBUtagSAFEARRAY@@G@Z 5f5074ed f olevar.obj
 0001:00006557       ??0COleSafeArray@@QAE@ABV0@@Z 5f507557 f olevar.obj
 0001:000065a3       ??0COleSafeArray@@QAE@ABUtagVARIANT@@@Z 5f5075a3 f olevar.obj
 0001:000065ef       ??0COleSafeArray@@QAE@PBUtagVARIANT@@@Z 5f5075ef f olevar.obj
 0001:0000663b       ?Attach@COleSafeArray@@QAEXAAUtagVARIANT@@@Z 5f50763b f olevar.obj
 0001:0000669e       ?Detach@COleSafeArray@@QAE?AUtagVARIANT@@XZ 5f50769e f olevar.obj
 0001:00006715       ??4COleSafeArray@@QAEAAV0@ABV0@@Z 5f507715 f olevar.obj
 0001:0000676d       ??4COleSafeArray@@QAEAAV0@ABUtagVARIANT@@@Z 5f50776d f olevar.obj
 0001:000067c5       ??4COleSafeArray@@QAEAAV0@PBUtagVARIANT@@@Z 5f5077c5 f olevar.obj
 0001:0000681d       ??4COleSafeArray@@QAEAAV0@ABVCOleVariant@@@Z 5f50781d f olevar.obj
 0001:00006875       ??8COleSafeArray@@QBEHABUtagSAFEARRAY@@@Z 5f507875 f olevar.obj
 0001:0000689d       ??8COleSafeArray@@QBEHPBUtagSAFEARRAY@@@Z 5f50789d f olevar.obj
 0001:000068c5       ??8COleSafeArray@@QBEHABV0@@Z 5f5078c5 f olevar.obj
 0001:0000690f       ??8COleSafeArray@@QBEHABUtagVARIANT@@@Z 5f50790f f olevar.obj
 0001:00006959       ??8COleSafeArray@@QBEHPBUtagVARIANT@@@Z 5f507959 f olevar.obj
 0001:000069a3       ??8COleSafeArray@@QBEHABVCOleVariant@@@Z 5f5079a3 f olevar.obj
 0001:000069ed       ?CreateOneDim@COleSafeArray@@QAEXGKPAXJ@Z 5f5079ed f olevar.obj
 0001:00006a80       ?GetOneDimSize@COleSafeArray@@QAEKXZ 5f507a80 f olevar.obj
 0001:00006ae2       ?ResizeOneDim@COleSafeArray@@QAEXK@Z 5f507ae2 f olevar.obj
 0001:00006b3c       ?Create@COleSafeArray@@QAEXGKPAK@Z 5f507b3c f olevar.obj
 0001:00006c8a       ?Create@COleSafeArray@@QAEXGKPAUtagSAFEARRAYBOUND@@@Z 5f507c8a f olevar.obj
 0001:00006df6       ?AccessData@COleSafeArray@@QAEXPAPAX@Z 5f507df6 f olevar.obj
 0001:00006e25       ?UnaccessData@COleSafeArray@@QAEXXZ 5f507e25 f olevar.obj
 0001:00006e4e       ?AllocData@COleSafeArray@@QAEXXZ 5f507e4e f olevar.obj
 0001:00006e77       ?AllocDescriptor@COleSafeArray@@QAEXK@Z 5f507e77 f olevar.obj
 0001:00006ea6       ?Copy@COleSafeArray@@QAEXPAPAUtagSAFEARRAY@@@Z 5f507ea6 f olevar.obj
 0001:00006ed5       ?GetLBound@COleSafeArray@@QAEXKPAJ@Z 5f507ed5 f olevar.obj
 0001:00006f08       ?GetUBound@COleSafeArray@@QAEXKPAJ@Z 5f507f08 f olevar.obj
 0001:00006f3b       ?GetElement@COleSafeArray@@QAEXPAJPAX@Z 5f507f3b f olevar.obj
 0001:00006f6e       ?PtrOfIndex@COleSafeArray@@QAEXPAJPAPAX@Z 5f507f6e f olevar.obj
 0001:00006fa1       ?PutElement@COleSafeArray@@QAEXPAJPAX@Z 5f507fa1 f olevar.obj
 0001:00006fd4       ?Redim@COleSafeArray@@QAEXPAUtagSAFEARRAYBOUND@@@Z 5f507fd4 f olevar.obj
 0001:00007003       ?Lock@COleSafeArray@@QAEXXZ 5f508003 f olevar.obj
 0001:0000702c       ?Unlock@COleSafeArray@@QAEXXZ 5f50802c f olevar.obj
 0001:00007055       ?Destroy@COleSafeArray@@QAEXXZ 5f508055 f olevar.obj
 0001:0000707e       ?DestroyData@COleSafeArray@@QAEXXZ 5f50807e f olevar.obj
 0001:000070a7       ?DestroyDescriptor@COleSafeArray@@QAEXXZ 5f5080a7 f olevar.obj
 0001:000070d0       ?AfxSafeArrayInit@@YGXPAVCOleSafeArray@@@Z 5f5080d0 f olevar.obj
 0001:000070f2       ?DDX_Text@@YGXPAVCDataExchange@@HAAVCOleDateTime@@@Z 5f5080f2 f olevar.obj
 0001:0000721d       ?DDX_Text@@YGXPAVCDataExchange@@HAAVCOleCurrency@@@Z 5f50821d f olevar.obj
 0001:00007350       ??_GCOleVariant@@QAEPAXI@Z 5f508350 f olevar.obj
 0001:00007390       ??2@YAPAXIPAX@Z            5f508390 f olevar.obj
 0001:000073b0       ?HashKey@@YGIPAG@Z         5f5083b0 f olevar.obj
 0001:000073d0       ?HashKey@@YGIK@Z           5f5083d0 f olevar.obj
 0001:000073f0       ??0_afxRichEditCookie@@QAE@AAVCArchive@@@Z 5f5083f0 f viewrich.obj
 0001:00007420       ??B?$CProcessLocal@V_AFX_RICHEDIT_STATE@@@@QAEPAV_AFX_RICHEDIT_STATE@@XZ 5f508420 f viewrich.obj
 0001:00007440       ?GetData@?$CProcessLocal@V_AFX_RICHEDIT_STATE@@@@QAEPAV_AFX_RICHEDIT_STATE@@XZ 5f508440 f viewrich.obj
 0001:00007490       ?CreateObject@?$CProcessLocal@V_AFX_RICHEDIT_STATE@@@@SGPAVCNoTrackObject@@XZ 5f508490 f viewrich.obj
 0001:00007520       ??0_AFX_RICHEDIT_STATE@@QAE@XZ 5f508520 f viewrich.obj
 0001:00007590       ??_E_AFX_RICHEDIT_STATE@@UAEPAXI@Z 5f508590 f viewrich.obj
 0001:00007590       ??_G_AFX_RICHEDIT_STATE@@UAEPAXI@Z 5f508590 f viewrich.obj
 0001:000075d0       ?EnableTypeLib@CCmdTarget@@QAEXXZ 5f5085d0 f oletyplb.obj
 0001:00007633       ?GetTypeInfoOfGuid@CCmdTarget@@QAEJKABU_GUID@@PAPAUITypeInfo@@@Z 5f508633 f oletyplb.obj
 0001:000077dd       ?AfxGetTypeLibCache@@YGPAVCTypeLibCache@@PBU_GUID@@@Z 5f5087dd f oletyplb.obj
 0001:000079c3       ?Lock@CTypeLibCache@@QAEXXZ 5f5089c3 f oletyplb.obj
 0001:00007a22       ?Lookup@CTypeLibCache@@QAEHKPAPAUITypeLib@@@Z 5f508a22 f oletyplb.obj
 0001:00007ab2       ?Cache@CTypeLibCache@@QAEXKPAUITypeLib@@@Z 5f508ab2 f oletyplb.obj
 0001:00007b6b       ?LookupTypeInfo@CTypeLibCache@@QAEHKABU_GUID@@PAPAUITypeInfo@@@Z 5f508b6b f oletyplb.obj
 0001:00007c48       ?CacheTypeInfo@CTypeLibCache@@QAEXKABU_GUID@@PAUITypeInfo@@@Z 5f508c48 f oletyplb.obj
 0001:00007ce0       ??0CTypeLibCache@@QAE@XZ   5f508ce0 f oletyplb.obj
 0001:00007d30       ?IsEqualGUID@@YAHABU_GUID@@0@Z 5f508d30 f oletyplb.obj
 0001:00007d70       ??B?$_CIP@UIBindCtx@@$1IID_IBindCtx@@QBEPAUIBindCtx@@XZ 5f508d70 f olemon.obj
 0001:00007d90       ??0?$CIP@UIBindCtx@@$1IID_IBindCtx@@QAE@PAUIBindCtx@@H@Z 5f508d90 f olemon.obj
 0001:00007e00       ??0?$_CIP@UIBindCtx@@$1IID_IBindCtx@@QAE@PAUIBindCtx@@H@Z 5f508e00 f olemon.obj
 0001:00007e60       ??1?$_CIP@UIBindCtx@@$1IID_IBindCtx@@QAE@XZ 5f508e60 f olemon.obj
 0001:00007e80       ?_Release@?$_CIP@UIBindCtx@@$1IID_IBindCtx@@AAEXXZ 5f508e80 f olemon.obj
 0001:00007ec0       ?_AddRef@?$_CIP@UIBindCtx@@$1IID_IBindCtx@@AAEXXZ 5f508ec0 f olemon.obj
 0001:00007f00       ??B?$_CIP@UIBindHost@@$1IID_IBindHost@@QBEPAUIBindHost@@XZ 5f508f00 f olemon.obj
 0001:00007f20       ??I?$_CIP@UIMoniker@@$1IID_IMoniker@@QAEPAPAUIMoniker@@XZ 5f508f20 f olemon.obj
 0001:00007f50       ??7?$_CIP@UIMoniker@@$1IID_IMoniker@@QAEHXZ 5f508f50 f olemon.obj
 0001:00007f80       ??0?$CIP@UIBindHost@@$1IID_IBindHost@@QAE@PAUIBindHost@@H@Z 5f508f80 f olemon.obj
 0001:00007ff0       ??0?$_CIP@UIBindHost@@$1IID_IBindHost@@QAE@PAUIBindHost@@H@Z 5f508ff0 f olemon.obj
 0001:00008050       ??1?$_CIP@UIBindHost@@$1IID_IBindHost@@QAE@XZ 5f509050 f olemon.obj
 0001:00008070       ?_Release@?$_CIP@UIBindHost@@$1IID_IBindHost@@AAEXXZ 5f509070 f olemon.obj
 0001:000080b0       ?_AddRef@?$_CIP@UIBindHost@@$1IID_IBindHost@@AAEXXZ 5f5090b0 f olemon.obj
 0001:000080f0       ??4?$CIP@UIMoniker@@$1IID_IMoniker@@QAEAAV0@PAUIMoniker@@@Z 5f5090f0 f olemon.obj
 0001:00008120       ??4?$_CIP@UIMoniker@@$1IID_IMoniker@@QAEAAV0@PAUIMoniker@@@Z 5f509120 f olemon.obj
 0001:00008180       ?_AddRef@?$_CIP@UIMoniker@@$1IID_IMoniker@@AAEXXZ 5f509180 f olemon.obj
 0001:000081c0       ??B?$_CIP@UIStream@@$1IID_IStream@@QBEPAUIStream@@XZ 5f5091c0 f olemon.obj
 0001:000081e0       ??I?$_CIP@UIStream@@$1IID_IStream@@QAEPAPAUIStream@@XZ 5f5091e0 f olemon.obj
 0001:00008210       ?GetInterfacePtr@?$_CIP@UIStream@@$1IID_IStream@@QBEPAUIStream@@XZ 5f509210 f olemon.obj
 0001:00008230       ?_Release@?$_CIP@UIStream@@$1IID_IStream@@AAEXXZ 5f509230 f olemon.obj
 0001:00008270       ??0?$CIP@UIStream@@$1IID_IStream@@QAE@XZ 5f509270 f olemon.obj
 0001:000082e0       ??0?$_CIP@UIStream@@$1IID_IStream@@QAE@XZ 5f5092e0 f olemon.obj
 0001:00008310       ??1?$_CIP@UIStream@@$1IID_IStream@@QAE@XZ 5f509310 f olemon.obj
 0001:00008330       ?Release@?$_CIP@UIMoniker@@$1IID_IMoniker@@QAEXXZ 5f509330 f olemon.obj
 0001:00008390       ?GetInterfacePtr@?$_CIP@UIMoniker@@$1IID_IMoniker@@QBEPAUIMoniker@@XZ 5f509390 f olemon.obj
 0001:000083b0       ??0_AfxBindHost@@QAE@XZ    5f5093b0 f olemon.obj
 0001:000083f0       ?AddRef@_AfxBindHost@@UAGKXZ 5f5093f0 f olemon.obj
 0001:00008410       ?Release@_AfxBindHost@@UAGKXZ 5f509410 f olemon.obj
 0001:00008470       ?QueryInterface@_AfxBindHost@@UAGJABU_GUID@@PAPAX@Z 5f509470 f olemon.obj
 0001:00008500       ?CreateMoniker@_AfxBindHost@@UAGJPAGPAUIBindCtx@@PAPAUIMoniker@@K@Z 5f509500 f olemon.obj
 0001:00008590       ?MonikerBindToStorage@_AfxBindHost@@UAGJPAUIMoniker@@PAUIBindCtx@@PAUIBindStatusCallback@@ABU_GUID@@PAPAX@Z 5f509590 f olemon.obj
 0001:00008780       ?MonikerBindToObject@_AfxBindHost@@EAGJPAUIMoniker@@PAUIBindCtx@@PAUIBindStatusCallback@@ABU_GUID@@PAPAX@Z 5f509780 f olemon.obj
 0001:000087b0       ??I?$_CIP@UIBindCtx@@$1IID_IBindCtx@@QAEPAPAUIBindCtx@@XZ 5f5097b0 f olemon.obj
 0001:000087e0       ??7?$_CIP@UIBindCtx@@$1IID_IBindCtx@@QAEHXZ 5f5097e0 f olemon.obj
 0001:00008810       ??0?$CIP@UIBindCtx@@$1IID_IBindCtx@@QAE@XZ 5f509810 f olemon.obj
 0001:00008880       ??0?$_CIP@UIBindCtx@@$1IID_IBindCtx@@QAE@XZ 5f509880 f olemon.obj
 0001:000088b0       ??4?$CIP@UIBindCtx@@$1IID_IBindCtx@@QAEAAV0@PAUIBindCtx@@@Z 5f5098b0 f olemon.obj
 0001:000088e0       ??4?$_CIP@UIBindCtx@@$1IID_IBindCtx@@QAEAAV0@PAUIBindCtx@@@Z 5f5098e0 f olemon.obj
 0001:00008940       ??I?$_CIP@UIBindStatusCallback@@$1IID_IBindStatusCallback@@QAEPAPAUIBindStatusCallback@@XZ 5f509940 f olemon.obj
 0001:00008970       ??7?$_CIP@UIBindStatusCallback@@$1IID_IBindStatusCallback@@QAEHXZ 5f509970 f olemon.obj
 0001:000089a0       ?_Release@?$_CIP@UIBindStatusCallback@@$1IID_IBindStatusCallback@@AAEXXZ 5f5099a0 f olemon.obj
 0001:000089e0       ??0?$CIP@UIBindStatusCallback@@$1IID_IBindStatusCallback@@QAE@XZ 5f5099e0 f olemon.obj
 0001:00008a50       ??0?$_CIP@UIBindStatusCallback@@$1IID_IBindStatusCallback@@QAE@XZ 5f509a50 f olemon.obj
 0001:00008a80       ??1?$_CIP@UIBindStatusCallback@@$1IID_IBindStatusCallback@@QAE@XZ 5f509a80 f olemon.obj
 0001:00008aa0       ??1_AfxBindHost@@QAE@XZ    5f509aa0 f olemon.obj
 0001:00008b51       ?AfxEnableControlContainer@@YAXPAVCOccManager@@@Z 5f509b51 f occmgr.obj
 0001:00008ba2       ?OnEvent@COccManager@@UAEHPAVCCmdTarget@@IPAUAFX_EVENT@@PAUAFX_CMDHANDLERINFO@@@Z 5f509ba2 f occmgr.obj
 0001:00008bce       ?CreateContainer@COccManager@@UAEPAVCOleControlContainer@@PAVCWnd@@@Z 5f509bce f occmgr.obj
 0001:00008c17       ?CreateSite@COccManager@@UAEPAVCOleControlSite@@PAVCOleControlContainer@@@Z 5f509c17 f occmgr.obj
 0001:00008c63       ?PreCreateDialog@COccManager@@UAEPBUDLGTEMPLATE@@PAU_AFX_OCC_DIALOG_INFO@@PBU2@@Z 5f509c63 f occmgr.obj
 0001:00008d7a       ?PostCreateDialog@COccManager@@UAEXPAU_AFX_OCC_DIALOG_INFO@@@Z 5f509d7a f occmgr.obj
 0001:00008dc7       ?SplitDialogTemplate@COccManager@@UAEPAUDLGTEMPLATE@@PBU2@PAPAUDLGITEMTEMPLATE@@@Z 5f509dc7 f occmgr.obj
 0001:00009252       ?CreateDlgControls@COccManager@@UAEHPAVCWnd@@PBGPAU_AFX_OCC_DIALOG_INFO@@@Z 5f50a252 f occmgr.obj
 0001:000093d3       ?CreateDlgControls@COccManager@@UAEHPAVCWnd@@PAXPAU_AFX_OCC_DIALOG_INFO@@@Z 5f50a3d3 f occmgr.obj
 0001:00009791       ?BindControls@COccManager@@IAEXPAVCWnd@@@Z 5f50a791 f occmgr.obj
 0001:000099e9       ?CreateDlgControl@COccManager@@IAEPAUHWND__@@PAVCWnd@@PAU2@HPAUDLGITEMTEMPLATE@@GPAEK@Z 5f50a9e9 f occmgr.obj
 0001:0000a057       ?PrepareOleCtrl@CDataExchange@@QAEPAVCWnd@@H@Z 5f50b057 f occmgr.obj
 0001:0000a130       ??1?$CProcessLocal@VCOccManager@@@@QAE@XZ 5f50b130 f occmgr.obj
 0001:0000a190       ?GetData@?$CProcessLocal@VCOccManager@@@@QAEPAVCOccManager@@XZ 5f50b190 f occmgr.obj
 0001:0000a1e0       ?CreateObject@?$CProcessLocal@VCOccManager@@@@SGPAVCNoTrackObject@@XZ 5f50b1e0 f occmgr.obj
 0001:0000a270       ??0COccManager@@QAE@XZ     5f50b270 f occmgr.obj
 0001:0000a2e0       ??_GCOccManager@@UAEPAXI@Z 5f50b2e0 f occmgr.obj
 0001:0000a2e0       ??_ECOccManager@@UAEPAXI@Z 5f50b2e0 f occmgr.obj
 0001:0000a320       ??1COccManager@@UAE@XZ     5f50b320 f occmgr.obj
 0001:0000a380       ?UnlockResource@@YGHPAX@Z  5f50b380 f occmgr.obj
 0001:0000a3a0       ?OnEvent@CCmdTarget@@QAEHIPAUAFX_EVENT@@PAUAFX_CMDHANDLERINFO@@@Z 5f50b3a0 f occevent.obj
 0001:0000a826       ?GetEventSinkEntry@CCmdTarget@@IAGPBUAFX_EVENTSINKMAP_ENTRY@@IPAUAFX_EVENT@@@Z 5f50b826 f occevent.obj
 0001:0000a920       ?CreateControl@CWnd@@QAEHPBG0KABUtagRECT@@PAV1@IPAVCFile@@HPAG@Z 5f50b920 f occcont.obj
 0001:0000a9a4       ?CreateControl@CWnd@@QAEHABU_GUID@@PBGKABUtagRECT@@PAV1@IPAVCFile@@HPAG@Z 5f50b9a4 f occcont.obj
 0001:0000aa63       ?InitControlContainer@CWnd@@IAEHXZ 5f50ba63 f occcont.obj
 0001:0000abaf       ?_GetBaseInterfaceMap@COleControlContainer@@KGPBUAFX_INTERFACEMAP@@XZ 5f50bbaf f occcont.obj
 0001:0000abc4       ?GetInterfaceMap@COleControlContainer@@MBEPBUAFX_INTERFACEMAP@@XZ 5f50bbc4 f occcont.obj
 0001:0000abdf       ?_GetBaseDispatchMap@COleControlContainer@@KGPBUAFX_DISPMAP@@XZ 5f50bbdf f occcont.obj
 0001:0000abf4       ?GetDispatchMap@COleControlContainer@@MBEPBUAFX_DISPMAP@@XZ 5f50bbf4 f occcont.obj
 0001:0000ac0f       ??0COleControlContainer@@QAE@PAVCWnd@@@Z 5f50bc0f f occcont.obj
 0001:0000ace4       ??1COleControlContainer@@UAE@XZ 5f50bce4 f occcont.obj
 0001:0000adf5       ?CreateControl@COleControlContainer@@QAEHPAVCWnd@@ABU_GUID@@PBGKABUtagRECT@@IPAVCFile@@HPAGPAPAVCOleControlSite@@@Z 5f50bdf5 f occcont.obj
 0001:0000af97       ?FindItem@COleControlContainer@@UBEPAVCOleControlSite@@I@Z 5f50bf97 f occcont.obj
 0001:0000affe       ?GetAmbientProp@COleControlContainer@@UAEHPAVCOleControlSite@@JPAUtagVARIANT@@@Z 5f50bffe f occcont.obj
 0001:0000b34d       ?CreateOleFont@COleControlContainer@@QAEXPAVCFont@@@Z 5f50c34d f occcont.obj
 0001:0000b55c       ?ScrollChildren@COleControlContainer@@UAEXHH@Z 5f50c55c f occcont.obj
 0001:0000b62f       ?OnUIActivate@COleControlContainer@@UAEXPAVCOleControlSite@@@Z 5f50c62f f occcont.obj
 0001:0000b69a       ?OnUIDeactivate@COleControlContainer@@UAEXPAVCOleControlSite@@@Z 5f50c69a f occcont.obj
 0001:0000b6e3       ?CheckDlgButton@COleControlContainer@@UAEXHI@Z 5f50c6e3 f occcont.obj
 0001:0000b75e       ?CheckRadioButton@COleControlContainer@@UAEXHHH@Z 5f50c75e f occcont.obj
 0001:0000b7fa       ?GetDlgItem@COleControlContainer@@UBEPAVCWnd@@H@Z 5f50c7fa f occcont.obj
 0001:0000b82e       ?GetDlgItem@COleControlContainer@@UBEXHPAPAUHWND__@@@Z 5f50c82e f occcont.obj
 0001:0000b896       ?GetDlgItemInt@COleControlContainer@@UBEIHPAHH@Z 5f50c896 f occcont.obj
 0001:0000b9ce       ?GetDlgItemTextW@COleControlContainer@@UBEHHPAGH@Z 5f50c9ce f occcont.obj
 0001:0000ba19       ?SendDlgItemMessageW@COleControlContainer@@UAEJHIIJ@Z 5f50ca19 f occcont.obj
 0001:0000ba68       ?SetDlgItemInt@COleControlContainer@@UAEXHIH@Z 5f50ca68 f occcont.obj
 0001:0000bacb       ?SetDlgItemTextW@COleControlContainer@@UAEXHPBG@Z 5f50cacb f occcont.obj
 0001:0000bb10       ?IsDlgButtonChecked@COleControlContainer@@UBEIH@Z 5f50cb10 f occcont.obj
 0001:0000bc1a       ?QueryInterface@XOleIPFrame@COleControlContainer@@UAGJABU_GUID@@PAPAX@Z 5f50cc1a f occcont.obj
 0001:0000bc48       ?AddRef@XOleIPFrame@COleControlContainer@@UAGKXZ 5f50cc48 f occcont.obj
 0001:0000bc6e       ?Release@XOleIPFrame@COleControlContainer@@UAGKXZ 5f50cc6e f occcont.obj
 0001:0000bc94       ?GetWindow@XOleIPFrame@COleControlContainer@@UAGJPAPAUHWND__@@@Z 5f50cc94 f occcont.obj
 0001:0000bcc2       ?ContextSensitiveHelp@XOleIPFrame@COleControlContainer@@UAGJH@Z 5f50ccc2 f occcont.obj
 0001:0000bcd9       ?GetBorder@XOleIPFrame@COleControlContainer@@UAGJPAUtagRECT@@@Z 5f50ccd9 f occcont.obj
 0001:0000bcf0       ?RequestBorderSpace@XOleIPFrame@COleControlContainer@@UAGJPBUtagRECT@@@Z 5f50ccf0 f occcont.obj
 0001:0000bd07       ?SetBorderSpace@XOleIPFrame@COleControlContainer@@UAGJPBUtagRECT@@@Z 5f50cd07 f occcont.obj
 0001:0000bd1e       ?SetActiveObject@XOleIPFrame@COleControlContainer@@UAGJPAUIOleInPlaceActiveObject@@PBG@Z 5f50cd1e f occcont.obj
 0001:0000bd8f       ?InsertMenus@XOleIPFrame@COleControlContainer@@UAGJPAUHMENU__@@PAUtagOleMenuGroupWidths@@@Z 5f50cd8f f occcont.obj
 0001:0000bda6       ?SetMenu@XOleIPFrame@COleControlContainer@@UAGJPAUHMENU__@@PAXPAUHWND__@@@Z 5f50cda6 f occcont.obj
 0001:0000bdbd       ?RemoveMenus@XOleIPFrame@COleControlContainer@@UAGJPAUHMENU__@@@Z 5f50cdbd f occcont.obj
 0001:0000bdd4       ?SetStatusText@XOleIPFrame@COleControlContainer@@UAGJPBG@Z 5f50cdd4 f occcont.obj
 0001:0000bdeb       ?EnableModeless@XOleIPFrame@COleControlContainer@@UAGJH@Z 5f50cdeb f occcont.obj
 0001:0000be02       ?TranslateAcceleratorW@XOleIPFrame@COleControlContainer@@UAGJPAUtagMSG@@G@Z 5f50ce02 f occcont.obj
 0001:0000be19       ?_GetBaseInterfaceMap@CEnumUnknown@@KGPBUAFX_INTERFACEMAP@@XZ 5f50ce19 f occcont.obj
 0001:0000be2e       ?GetInterfaceMap@CEnumUnknown@@MBEPBUAFX_INTERFACEMAP@@XZ 5f50ce2e f occcont.obj
 0001:0000be49       ??1CEnumUnknown@@UAE@XZ    5f50ce49 f occcont.obj
 0001:0000bf2a       ?OnNext@CEnumUnknown@@MAEHPAX@Z 5f50cf2a f occcont.obj
 0001:0000bf96       ?QueryInterface@XOleContainer@COleControlContainer@@UAGJABU_GUID@@PAPAX@Z 5f50cf96 f occcont.obj
 0001:0000bfc4       ?Release@XOleContainer@COleControlContainer@@UAGKXZ 5f50cfc4 f occcont.obj
 0001:0000bfea       ?AddRef@XOleContainer@COleControlContainer@@UAGKXZ 5f50cfea f occcont.obj
 0001:0000c010       ?ParseDisplayName@XOleContainer@COleControlContainer@@UAGJPAUIBindCtx@@PAGPAKPAPAUIMoniker@@@Z 5f50d010 f occcont.obj
 0001:0000c027       ?EnumObjects@XOleContainer@COleControlContainer@@UAGJKPAPAUIEnumUnknown@@@Z 5f50d027 f occcont.obj
 0001:0000c2f6       ?LockContainer@XOleContainer@COleControlContainer@@UAGJH@Z 5f50d2f6 f occcont.obj
 0001:0000c310       ??_ECOleControlContainer@@UAEPAXI@Z 5f50d310 f occcont.obj
 0001:0000c310       ??_GCOleControlContainer@@UAEPAXI@Z 5f50d310 f occcont.obj
 0001:0000c350       ??0XOleIPFrame@COleControlContainer@@QAE@XZ 5f50d350 f occcont.obj
 0001:0000c380       ??0XOleContainer@COleControlContainer@@QAE@XZ 5f50d380 f occcont.obj
 0001:0000c3b0       ??_GCEnumUnknown@@UAEPAXI@Z 5f50d3b0 f occcont.obj
 0001:0000c3b0       ??_ECEnumUnknown@@UAEPAXI@Z 5f50d3b0 f occcont.obj
 0001:0000c3f0       ??0CEnumUnknown@@QAE@PBXI@Z 5f50d3f0 f occcont.obj
 0001:0000c470       ?_GetBaseInterfaceMap@COleControlSite@@KGPBUAFX_INTERFACEMAP@@XZ 5f50d470 f occsite.obj
 0001:0000c485       ?GetInterfaceMap@COleControlSite@@MBEPBUAFX_INTERFACEMAP@@XZ 5f50d485 f occsite.obj
 0001:0000c4a0       ??0COleControlSite@@QAE@PAVCOleControlContainer@@@Z 5f50d4a0 f occsite.obj
 0001:0000c6aa       ??1COleControlSite@@UAE@XZ 5f50d6aa f occsite.obj
 0001:0000c869       ?SetExtent@COleControlSite@@IAEHXZ 5f50d869 f occsite.obj
 0001:0000c978       ?CreateControl@COleControlSite@@QAEJPAVCWnd@@ABU_GUID@@PBGKABUtagRECT@@IPAVCFile@@HPAG@Z 5f50d978 f occsite.obj
 0001:0000cd80       ?DestroyControl@COleControlSite@@UAEHXZ 5f50dd80 f occsite.obj
 0001:0000cdfd       ?QuickActivate@COleControlSite@@UAEHXZ 5f50ddfd f occsite.obj
 0001:0000d07c       ?CreateOrLoad@COleControlSite@@IAEJABU_GUID@@PAVCFile@@HPAG@Z 5f50e07c f occsite.obj
 0001:0000d9b7       ?GetID@COleControlSite@@QAEIXZ 5f50e9b7 f occsite.obj
 0001:0000d9d3       ?DoVerb@COleControlSite@@UAEJJPAUtagMSG@@@Z 5f50e9d3 f occsite.obj
 0001:0000da29       ?IsDefaultButton@COleControlSite@@QAEHXZ 5f50ea29 f occsite.obj
 0001:0000da65       ?GetDefBtnCode@COleControlSite@@QAEKXZ 5f50ea65 f occsite.obj
 0001:0000dab0       ?SetDefaultButton@COleControlSite@@QAEXH@Z 5f50eab0 f occsite.obj
 0001:0000db67       ?ConnectSink@COleControlSite@@IAEKABU_GUID@@PAUIUnknown@@@Z 5f50eb67 f occsite.obj
 0001:0000dc77       ?DisconnectSink@COleControlSite@@IAEXABU_GUID@@K@Z 5f50ec77 f occsite.obj
 0001:0000dd81       ?GetEventIID@COleControlSite@@QAEHPAU_GUID@@@Z 5f50ed81 f occsite.obj
 0001:0000e12c       ?GetControlInfo@COleControlSite@@QAEXXZ 5f50f12c f occsite.obj
 0001:0000e1c9       ?IsMatchingMnemonic@COleControlSite@@QAEHPAUtagMSG@@@Z 5f50f1c9 f occsite.obj
 0001:0000e333       ?SendMnemonic@COleControlSite@@QAEXPAUtagMSG@@@Z 5f50f333 f occsite.obj
 0001:0000e3cd       ?AttachWindow@COleControlSite@@IAEXXZ 5f50f3cd f occsite.obj
 0001:0000e4cf       ?DetachWindow@COleControlSite@@IAEXXZ 5f50f4cf f occsite.obj
 0001:0000e58c       ?OnEvent@COleControlSite@@IAEHPAUAFX_EVENT@@@Z 5f50f58c f occsite.obj
 0001:0000e609       ?InvokeHelperV@COleControlSite@@UAEXJGGPAXPBEPAD@Z 5f50f609 f occsite.obj
 0001:0000e6d7       ?SetPropertyV@COleControlSite@@UAEXJGPAD@Z 5f50f6d7 f occsite.obj
 0001:0000e75f       ?InvokeHelper@COleControlSite@@UAAXJGGPAXPBEZZ 5f50f75f f occsite.obj
 0001:0000e7a2       ?GetProperty@COleControlSite@@UBEXJGPAX@Z 5f50f7a2 f occsite.obj
 0001:0000e7d9       ?SetProperty@COleControlSite@@UAAXJGZZ 5f50f7d9 f occsite.obj
 0001:0000e810       ?SafeSetProperty@COleControlSite@@UAAHJGZZ 5f50f810 f occsite.obj
 0001:0000e8d6       ?GetStyle@COleControlSite@@UBEKXZ 5f50f8d6 f occsite.obj
 0001:0000ea37       ?GetExStyle@COleControlSite@@UBEKXZ 5f50fa37 f occsite.obj
 0001:0000eb10       ?ModifyStyle@COleControlSite@@UAEHKKI@Z 5f50fb10 f occsite.obj
 0001:0000ebf0       ?ModifyStyleEx@COleControlSite@@UAEHKKI@Z 5f50fbf0 f occsite.obj
 0001:0000ec69       ?SetWindowTextW@COleControlSite@@UAEXPBG@Z 5f50fc69 f occsite.obj
 0001:0000ecea       ?GetWindowTextW@COleControlSite@@UBEXAAVCString@@@Z 5f50fcea f occsite.obj
 0001:0000ee27       ?GetWindowTextW@COleControlSite@@UBEHPAGH@Z 5f50fe27 f occsite.obj
 0001:0000eee7       ?GetWindowTextLengthW@COleControlSite@@UBEHXZ 5f50fee7 f occsite.obj
 0001:0000ef6a       ?GetDlgCtrlID@COleControlSite@@UBEHXZ 5f50ff6a f occsite.obj
 0001:0000ef86       ?SetDlgCtrlID@COleControlSite@@UAEHH@Z 5f50ff86 f occsite.obj
 0001:0000efb3       ?MoveWindow@COleControlSite@@UAEXHHHHH@Z 5f50ffb3 f occsite.obj
 0001:0000f0e8       ?SetWindowPos@COleControlSite@@UAEHPBVCWnd@@HHHHI@Z 5f5100e8 f occsite.obj
 0001:0000f206       ?ShowWindow@COleControlSite@@UAEHH@Z 5f510206 f occsite.obj
 0001:0000f2a7       ?IsWindowEnabled@COleControlSite@@UBEHXZ 5f5102a7 f occsite.obj
 0001:0000f35b       ?EnableWindow@COleControlSite@@UAEHH@Z 5f51035b f occsite.obj
 0001:0000f43e       ?SetFocus@COleControlSite@@UAEPAVCWnd@@XZ 5f51043e f occsite.obj
 0001:0000f493       ?EnableDSC@COleControlSite@@UAEXXZ 5f510493 f occsite.obj
 0001:0000f50f       ?BindDefaultProperty@COleControlSite@@UAEXJGPBGPAVCWnd@@@Z 5f51050f f occsite.obj
 0001:0000f65d       ?BindProperty@COleControlSite@@UAEXJPAVCWnd@@@Z 5f51065d f occsite.obj
 0001:0000f87c       ?AddRef@XOleClientSite@COleControlSite@@UAGKXZ 5f51087c f occsite.obj
 0001:0000f8a4       ?Release@XOleClientSite@COleControlSite@@UAGKXZ 5f5108a4 f occsite.obj
 0001:0000f8cc       ?QueryInterface@XOleClientSite@COleControlSite@@UAGJABU_GUID@@PAPAX@Z 5f5108cc f occsite.obj
 0001:0000f8fc       ?SaveObject@XOleClientSite@COleControlSite@@UAGJXZ 5f5108fc f occsite.obj
 0001:0000f913       ?GetMoniker@XOleClientSite@COleControlSite@@UAGJKKPAPAUIMoniker@@@Z 5f510913 f occsite.obj
 0001:0000f92a       ?GetContainer@XOleClientSite@COleControlSite@@UAGJPAPAUIOleContainer@@@Z 5f51092a f occsite.obj
 0001:0000f95e       ?ShowObject@XOleClientSite@COleControlSite@@UAGJXZ 5f51095e f occsite.obj
 0001:0000f9e4       ?OnShowWindow@XOleClientSite@COleControlSite@@UAGJH@Z 5f5109e4 f occsite.obj
 0001:0000f9f8       ?RequestNewObjectLayout@XOleClientSite@COleControlSite@@UAGJXZ 5f5109f8 f occsite.obj
 0001:0000fa0f       ?AddRef@XOleIPSite@COleControlSite@@UAGKXZ 5f510a0f f occsite.obj
 0001:0000fa37       ?Release@XOleIPSite@COleControlSite@@UAGKXZ 5f510a37 f occsite.obj
 0001:0000fa5f       ?QueryInterface@XOleIPSite@COleControlSite@@UAGJABU_GUID@@PAPAX@Z 5f510a5f f occsite.obj
 0001:0000fa8f       ?GetWindow@XOleIPSite@COleControlSite@@UAGJPAPAUHWND__@@@Z 5f510a8f f occsite.obj
 0001:0000fada       ?ContextSensitiveHelp@XOleIPSite@COleControlSite@@UAGJH@Z 5f510ada f occsite.obj
 0001:0000faf1       ?CanInPlaceActivate@XOleIPSite@COleControlSite@@UAGJXZ 5f510af1 f occsite.obj
 0001:0000fb05       ?OnInPlaceActivate@XOleIPSite@COleControlSite@@UAGJXZ 5f510b05 f occsite.obj
 0001:0000fb19       ?OnUIActivate@XOleIPSite@COleControlSite@@UAGJXZ 5f510b19 f occsite.obj
 0001:0000fb50       ?GetWindowContext@XOleIPSite@COleControlSite@@UAGJPAPAUIOleInPlaceFrame@@PAPAUIOleInPlaceUIWindow@@PAUtagRECT@@2PAUtagOIFI@@@Z 5f510b50 f occsite.obj
 0001:0000fd90       ?Scroll@XOleIPSite@COleControlSite@@UAGJUtagSIZE@@@Z 5f510d90 f occsite.obj
 0001:0000fda7       ?OnUIDeactivate@XOleIPSite@COleControlSite@@UAGJH@Z 5f510da7 f occsite.obj
 0001:0000fdde       ?OnInPlaceDeactivate@XOleIPSite@COleControlSite@@UAGJXZ 5f510dde f occsite.obj
 0001:0000fe64       ?DiscardUndoState@XOleIPSite@COleControlSite@@UAGJXZ 5f510e64 f occsite.obj
 0001:0000fe78       ?DeactivateAndUndo@XOleIPSite@COleControlSite@@UAGJXZ 5f510e78 f occsite.obj
 0001:0000feac       ?OnPosRectChange@XOleIPSite@COleControlSite@@UAGJPBUtagRECT@@@Z 5f510eac f occsite.obj
 0001:0000ff3a       ?AddRef@XOleControlSite@COleControlSite@@UAGKXZ 5f510f3a f occsite.obj
 0001:0000ff62       ?Release@XOleControlSite@COleControlSite@@UAGKXZ 5f510f62 f occsite.obj
 0001:0000ff8a       ?QueryInterface@XOleControlSite@COleControlSite@@UAGJABU_GUID@@PAPAX@Z 5f510f8a f occsite.obj
 0001:0000ffba       ?OnControlInfoChanged@XOleControlSite@COleControlSite@@UAGJXZ 5f510fba f occsite.obj
 0001:0000ffe4       ?LockInPlaceActive@XOleControlSite@COleControlSite@@UAGJH@Z 5f510fe4 f occsite.obj
 0001:0000fffb       ?GetExtendedControl@XOleControlSite@COleControlSite@@UAGJPAPAUIDispatch@@@Z 5f510ffb f occsite.obj
 0001:00010012       ?TransformCoords@XOleControlSite@COleControlSite@@UAGJPAU_POINTL@@PAUtagPOINTF@@K@Z 5f511012 f occsite.obj
 0001:0001019a       ?TranslateAcceleratorW@XOleControlSite@COleControlSite@@UAGJPAUtagMSG@@K@Z 5f51119a f occsite.obj
 0001:000101b1       ?OnFocus@XOleControlSite@COleControlSite@@UAGJH@Z 5f5111b1 f occsite.obj
 0001:000101c5       ?ShowPropertyFrame@XOleControlSite@COleControlSite@@UAGJXZ 5f5111c5 f occsite.obj
 0001:000101dc       ?AddRef@XAmbientProps@COleControlSite@@UAGKXZ 5f5111dc f occsite.obj
 0001:00010204       ?Release@XAmbientProps@COleControlSite@@UAGKXZ 5f511204 f occsite.obj
 0001:0001022c       ?QueryInterface@XAmbientProps@COleControlSite@@UAGJABU_GUID@@PAPAX@Z 5f51122c f occsite.obj
 0001:0001025c       ?GetTypeInfoCount@XAmbientProps@COleControlSite@@UAGJPAI@Z 5f51125c f occsite.obj
 0001:00010273       ?GetTypeInfo@XAmbientProps@COleControlSite@@UAGJIKPAPAUITypeInfo@@@Z 5f511273 f occsite.obj
 0001:0001028a       ?GetIDsOfNames@XAmbientProps@COleControlSite@@UAGJABU_GUID@@PAPAGIKPAJ@Z 5f51128a f occsite.obj
 0001:000102a1       ?Invoke@XAmbientProps@COleControlSite@@UAGJJABU_GUID@@KGPAUtagDISPPARAMS@@PAUtagVARIANT@@PAUtagEXCEPINFO@@PAI@Z 5f5112a1 f occsite.obj
 0001:000103ed       ?QueryInterface@XPropertyNotifySink@COleControlSite@@UAGJABU_GUID@@PAPAX@Z 5f5113ed f occsite.obj
 0001:00010464       ?AddRef@XPropertyNotifySink@COleControlSite@@UAGKXZ 5f511464 f occsite.obj
 0001:0001047b       ?Release@XPropertyNotifySink@COleControlSite@@UAGKXZ 5f51147b f occsite.obj
 0001:0001048f       ?OnChanged@XPropertyNotifySink@COleControlSite@@UAGJJ@Z 5f51148f f occsite.obj
 0001:00010681       ?OnRequestEdit@XPropertyNotifySink@COleControlSite@@UAGJJ@Z 5f511681 f occsite.obj
 0001:0001077e       ?AddRef@XEventSink@COleControlSite@@UAGKXZ 5f51177e f occsite.obj
 0001:00010795       ?Release@XEventSink@COleControlSite@@UAGKXZ 5f511795 f occsite.obj
 0001:000107a9       ?QueryInterface@XEventSink@COleControlSite@@UAGJABU_GUID@@PAPAX@Z 5f5117a9 f occsite.obj
 0001:0001083b       ?GetTypeInfoCount@XEventSink@COleControlSite@@UAGJPAI@Z 5f51183b f occsite.obj
 0001:00010852       ?GetTypeInfo@XEventSink@COleControlSite@@UAGJIKPAPAUITypeInfo@@@Z 5f511852 f occsite.obj
 0001:00010869       ?GetIDsOfNames@XEventSink@COleControlSite@@UAGJABU_GUID@@PAPAGIKPAJ@Z 5f511869 f occsite.obj
 0001:00010880       ?Invoke@XEventSink@COleControlSite@@UAGJJABU_GUID@@KGPAUtagDISPPARAMS@@PAUtagVARIANT@@PAUtagEXCEPINFO@@PAI@Z 5f511880 f occsite.obj
 0001:000109ad       ??0CDataSourceControl@@QAE@PAVCOleControlSite@@@Z 5f5119ad f occsite.obj
 0001:00010aab       ??1CDataSourceControl@@QAE@XZ 5f511aab f occsite.obj
 0001:00010ccb       ?Initialize@CDataSourceControl@@QAEJXZ 5f511ccb f occsite.obj
 0001:00010f73       ?GetCursor@CDataSourceControl@@UAEPAUICursor@@XZ 5f511f73 f occsite.obj
 0001:00010ff8       ?GetMetaData@CDataSourceControl@@QAEJXZ 5f511ff8 f occsite.obj
 0001:000113ed       ?CopyColumnID@CDataSourceControl@@QAEHPAUtagDBCOLUMNID@@PBU2@@Z 5f5123ed f occsite.obj
 0001:000114e9       ?BindProp@CDataSourceControl@@UAEXPAVCOleControlSite@@H@Z 5f5124e9 f occsite.obj
 0001:000116ef       ?BindProp@CDataSourceControl@@UAEXPAVCDataBoundProperty@@H@Z 5f5126ef f occsite.obj
 0001:00011790       ?BindColumns@CDataSourceControl@@UAEXXZ 5f512790 f occsite.obj
 0001:00011aa0       ?GetBoundClientRow@CDataSourceControl@@QAEJXZ 5f512aa0 f occsite.obj
 0001:00011b3a       ?UpdateControls@CDataSourceControl@@UAEJXZ 5f512b3a f occsite.obj
 0001:00011c86       ?UpdateCursor@CDataSourceControl@@UAEJXZ 5f512c86 f occsite.obj
 0001:0001201c       ??0CDataBoundProperty@@QAE@PAV0@JG@Z 5f51301c f occsite.obj
 0001:00012071       ?SetClientSite@CDataBoundProperty@@QAEXPAVCOleControlSite@@@Z 5f513071 f occsite.obj
 0001:00012091       ?SetDSCSite@CDataBoundProperty@@QAEXPAVCOleControlSite@@@Z 5f513091 f occsite.obj
 0001:000120ce       ?GetNext@CDataBoundProperty@@QAEPAV1@XZ 5f5130ce f occsite.obj
 0001:000120ea       ?RemoveSource@CDataBoundProperty@@QAEXXZ 5f5130ea f occsite.obj
 0001:00012112       ?Notify@CDataBoundProperty@@QAEXXZ 5f513112 f occsite.obj
 0001:000121c5       ?GetCursor@CDataBoundProperty@@QAEPAUICursor@@XZ 5f5131c5 f occsite.obj
 0001:0001227e       ?GetCursor@COleControlSite@@IAEJJPAPAUICursor@@PAPAX@Z 5f51327e f occsite.obj
 0001:000122f4       ?AddRef@XBoundObjectSite@COleControlSite@@UAGKXZ 5f5132f4 f occsite.obj
 0001:00012376       ?Release@XBoundObjectSite@COleControlSite@@UAGKXZ 5f513376 f occsite.obj
 0001:000123f8       ?QueryInterface@XBoundObjectSite@COleControlSite@@UAGJABU_GUID@@PAPAX@Z 5f5133f8 f occsite.obj
 0001:00012482       ?GetCursor@XBoundObjectSite@COleControlSite@@UAGJJPAPAUICursor@@PAPAX@Z 5f513482 f occsite.obj
 0001:00012510       ?AddRef@XNotifyDBEvents@COleControlSite@@UAGKXZ 5f513510 f occsite.obj
 0001:00012527       ?Release@XNotifyDBEvents@COleControlSite@@UAGKXZ 5f513527 f occsite.obj
 0001:0001253b       ?QueryInterface@XNotifyDBEvents@COleControlSite@@UAGJABU_GUID@@PAPAX@Z 5f51353b f occsite.obj
 0001:000125b2       ?OKToDo@XNotifyDBEvents@COleControlSite@@UAGJKKQAUtagDBNOTIFYREASON@@@Z 5f5135b2 f occsite.obj
 0001:00012758       ?Cancelled@XNotifyDBEvents@COleControlSite@@UAGJKKQAUtagDBNOTIFYREASON@@@Z 5f513758 f occsite.obj
 0001:00012813       ?SyncBefore@XNotifyDBEvents@COleControlSite@@UAGJKKQAUtagDBNOTIFYREASON@@@Z 5f513813 f occsite.obj
 0001:00012955       ?AboutToDo@XNotifyDBEvents@COleControlSite@@UAGJKKQAUtagDBNOTIFYREASON@@@Z 5f513955 f occsite.obj
 0001:00012a10       ?FailedToDo@XNotifyDBEvents@COleControlSite@@UAGJKKQAUtagDBNOTIFYREASON@@@Z 5f513a10 f occsite.obj
 0001:00012acb       ?SyncAfter@XNotifyDBEvents@COleControlSite@@UAGJKKQAUtagDBNOTIFYREASON@@@Z 5f513acb f occsite.obj
 0001:00012c47       ?DidEvent@XNotifyDBEvents@COleControlSite@@UAGJKKQAUtagDBNOTIFYREASON@@@Z 5f513c47 f occsite.obj
 0001:00012d58       ?FireEvent@XNotifyDBEvents@COleControlSite@@QAEJKKQAUtagDBNOTIFYREASON@@W4DSCSTATE@@@Z 5f513d58 f occsite.obj
 0001:00012ee0       ??_ECOleControlSite@@UAEPAXI@Z 5f513ee0 f occsite.obj
 0001:00012ee0       ??_GCOleControlSite@@UAEPAXI@Z 5f513ee0 f occsite.obj
 0001:00012f20       ??0XOleClientSite@COleControlSite@@QAE@XZ 5f513f20 f occsite.obj
 0001:00012f50       ??0XOleIPSite@COleControlSite@@QAE@XZ 5f513f50 f occsite.obj
 0001:00012f80       ??0XOleControlSite@COleControlSite@@QAE@XZ 5f513f80 f occsite.obj
 0001:00012fb0       ??0XAmbientProps@COleControlSite@@QAE@XZ 5f513fb0 f occsite.obj
 0001:00012fe0       ??0XPropertyNotifySink@COleControlSite@@QAE@XZ 5f513fe0 f occsite.obj
 0001:00013010       ??0XEventSink@COleControlSite@@QAE@XZ 5f514010 f occsite.obj
 0001:00013040       ??0XBoundObjectSite@COleControlSite@@QAE@XZ 5f514040 f occsite.obj
 0001:00013070       ??0XNotifyDBEvents@COleControlSite@@QAE@XZ 5f514070 f occsite.obj
 0001:000130a0       ??0IOleControlSite@@QAE@XZ 5f5140a0 f occsite.obj
 0001:000130d0       ??0IPropertyNotifySink@@QAE@XZ 5f5140d0 f occsite.obj
 0001:00013100       ??0IBoundObjectSite@@QAE@XZ 5f514100 f occsite.obj
 0001:00013130       ??0INotifyDBEvents@@QAE@XZ 5f514130 f occsite.obj
 0001:00013160       ??_GCDataSourceControl@@QAEPAXI@Z 5f514160 f occsite.obj
 0001:000131a0       ??_GCDataBoundProperty@@QAEPAXI@Z 5f5141a0 f occsite.obj
 0001:000131e0       ??1CDataBoundProperty@@QAE@XZ 5f5141e0 f occsite.obj
 0001:00013200       ??0AFX_EVENT@@QAE@HJPAUtagDISPPARAMS@@PAUtagEXCEPINFO@@PAI@Z 5f514200 f occsite.obj
 0001:00013270       ??0AFX_EVENT@@QAE@H@Z      5f514270 f occsite.obj
 0001:000132e0       ??0COleControlLock@@QAE@ABU_GUID@@@Z 5f5142e0 f occlock.obj
 0001:000133dd       ??1COleControlLock@@UAE@XZ 5f5143dd f occlock.obj
 0001:00013439       ?AfxOleLockControl@@YGHABU_GUID@@@Z 5f514439 f occlock.obj
 0001:00013586       ?AfxOleLockControl@@YGHPBG@Z 5f514586 f occlock.obj
 0001:000135c5       ?AfxOleUnlockControl@@YGHPBG@Z 5f5145c5 f occlock.obj
 0001:00013604       ?AfxOleUnlockControl@@YGHABU_GUID@@@Z 5f514604 f occlock.obj
 0001:000136c3       ?AfxOleUnlockAllControls@@YGXXZ 5f5146c3 f occlock.obj
 0001:00013780       ??_GCOleControlLock@@UAEPAXI@Z 5f514780 f occlock.obj
 0001:00013780       ??_ECOleControlLock@@UAEPAXI@Z 5f514780 f occlock.obj
 0001:000137c0       ?IsEmpty@CSimpleList@@QBEHXZ 5f5147c0 f occlock.obj
 0001:000137f0       ?AddHead@?$CTypedSimpleList@PAVCOleControlLock@@@@QAEXPAVCOleControlLock@@@Z 5f5147f0 f occlock.obj
 0001:00013820       ?Remove@?$CTypedSimpleList@PAVCOleControlLock@@@@QAEHPAVCOleControlLock@@@Z 5f514820 f occlock.obj
 0001:00013850       ??B?$CTypedSimpleList@PAVCOleControlLock@@@@QAEPAVCOleControlLock@@XZ 5f514850 f occlock.obj
 0001:00013870       ?DDX_OCText@@YGXPAVCDataExchange@@HJAAVCString@@@Z 5f514870 f occddx.obj
 0001:000138d2       ?DDX_OCTextRO@@YGXPAVCDataExchange@@HJAAVCString@@@Z 5f5148d2 f occddx.obj
 0001:00013940       ?DDX_OCBool@@YGXPAVCDataExchange@@HJAAH@Z 5f514940 f occddx.obj
 0001:0001399f       ?DDX_OCBoolRO@@YGXPAVCDataExchange@@HJAAH@Z 5f51499f f occddx.obj
 0001:000139cb       ?DDX_OCInt@@YGXPAVCDataExchange@@HJAAH@Z 5f5149cb f occddx.obj
 0001:00013a2a       ?DDX_OCIntRO@@YGXPAVCDataExchange@@HJAAH@Z 5f514a2a f occddx.obj
 0001:00013a56       ?DDX_OCInt@@YGXPAVCDataExchange@@HJAAJ@Z 5f514a56 f occddx.obj
 0001:00013ab5       ?DDX_OCIntRO@@YGXPAVCDataExchange@@HJAAJ@Z 5f514ab5 f occddx.obj
 0001:00013ae1       ?DDX_OCShort@@YGXPAVCDataExchange@@HJAAF@Z 5f514ae1 f occddx.obj
 0001:00013b41       ?DDX_OCShortRO@@YGXPAVCDataExchange@@HJAAF@Z 5f514b41 f occddx.obj
 0001:00013b6d       ?DDX_OCColor@@YGXPAVCDataExchange@@HJAAK@Z 5f514b6d f occddx.obj
 0001:00013bcc       ?DDX_OCColorRO@@YGXPAVCDataExchange@@HJAAK@Z 5f514bcc f occddx.obj
 0001:00013c00       ?DDX_OCFloat@@YGXPAVCDataExchange@@HJAAM@Z 5f514c00 f occddxf.obj
 0001:00013c64       ?DDX_OCFloatRO@@YGXPAVCDataExchange@@HJAAM@Z 5f514c64 f occddxf.obj
 0001:00013ca6       ?DDX_OCFloat@@YGXPAVCDataExchange@@HJAAN@Z 5f514ca6 f occddxf.obj
 0001:00013d09       ?DDX_OCFloatRO@@YGXPAVCDataExchange@@HJAAN@Z 5f514d09 f occddxf.obj
 0001:00013d50       ?IsMatchingMnemonic@COccManager@@SAHPAVCWnd@@PAUtagMSG@@@Z 5f514d50 f occdlg.obj
 0001:00013d90       ?IsLabelControl@COccManager@@SAHPAVCWnd@@@Z 5f514d90 f occdlg.obj
 0001:00013dd9       ?UIActivateControl@COccManager@@KAXPAVCWnd@@@Z 5f514dd9 f occdlg.obj
 0001:00013e8c       ?UIDeactivateIfNecessary@COccManager@@KAXPAVCWnd@@0@Z 5f514e8c f occdlg.obj
 0001:00013f81       ?FindDlgItem@@YAPAVCWnd@@PAV1@K@Z 5f514f81 f occdlg.obj
 0001:000141fb       ?SetDefaultButton@COccManager@@SAXPAVCWnd@@H@Z 5f5151fb f occdlg.obj
 0001:000142c9       ?GetDefBtnCode@COccManager@@SAKPAVCWnd@@@Z 5f5152c9 f occdlg.obj
 0001:00014318       ?IsDialogMessageW@COccManager@@UAEHPAVCWnd@@PAUtagMSG@@@Z 5f515318 f occdlg.obj
 0001:00014d60       ?IsControlParent@@YAHPAVCWnd@@@Z 5f515d60 f occdlg.obj
 0001:00014d90       ?TestExStyle@@YAKPAVCWnd@@K@Z 5f515d90 f occdlg.obj
 0001:00014dc0       ?HasChildStyle@@YAHPAVCWnd@@@Z 5f515dc0 f occdlg.obj
 0001:00014e00       ?TestStyle@@YAKPAVCWnd@@K@Z 5f515e00 f occdlg.obj
 0001:00014e30       ?OnSaveViewState@CDocObjectServer@@MAEXAAVCArchive@@@Z 5f515e30 f oledocvw.obj
 0001:00014e48       ?OnApplyViewState@CDocObjectServer@@MAEXAAVCArchive@@@Z 5f515e48 f oledocvw.obj
 0001:00014e60       ?OnActivateView@CDocObjectServer@@MAEJXZ 5f515e60 f oledocvw.obj
 0001:0001565b       ?AddRef@XOleDocumentView@CDocObjectServer@@UAGKXZ 5f51665b f oledocvw.obj
 0001:000156de       ?Release@XOleDocumentView@CDocObjectServer@@UAGKXZ 5f5166de f oledocvw.obj
 0001:00015761       ?QueryInterface@XOleDocumentView@CDocObjectServer@@UAGJABU_GUID@@PAPAX@Z 5f516761 f oledocvw.obj
 0001:000157ec       ?SetInPlaceSite@XOleDocumentView@CDocObjectServer@@UAGJPAUIOleInPlaceSite@@@Z 5f5167ec f oledocvw.obj
 0001:000158f0       ?GetInPlaceSite@XOleDocumentView@CDocObjectServer@@UAGJPAPAUIOleInPlaceSite@@@Z 5f5168f0 f oledocvw.obj
 0001:000159cb       ?GetDocument@XOleDocumentView@CDocObjectServer@@UAGJPAPAUIUnknown@@@Z 5f5169cb f oledocvw.obj
 0001:00015aba       ?OnSetItemRects@CDocObjectServer@@IAEXPAUtagRECT@@0@Z 5f516aba f oledocvw.obj
 0001:00015aee       ?SetRect@XOleDocumentView@CDocObjectServer@@UAGJPAUtagRECT@@@Z 5f516aee f oledocvw.obj
 0001:00015c0e       ?GetRect@XOleDocumentView@CDocObjectServer@@UAGJPAUtagRECT@@@Z 5f516c0e f oledocvw.obj
 0001:00015cce       ?SetRectComplex@XOleDocumentView@CDocObjectServer@@UAGJPAUtagRECT@@000@Z 5f516cce f oledocvw.obj
 0001:00015d5d       ?Show@XOleDocumentView@CDocObjectServer@@UAGJH@Z 5f516d5d f oledocvw.obj
 0001:00015e2d       ?UIActivate@XOleDocumentView@CDocObjectServer@@UAGJH@Z 5f516e2d f oledocvw.obj
 0001:00015efd       ?Open@XOleDocumentView@CDocObjectServer@@UAGJXZ 5f516efd f oledocvw.obj
 0001:00015f8c       ?CloseView@XOleDocumentView@CDocObjectServer@@UAGJK@Z 5f516f8c f oledocvw.obj
 0001:00016039       ?SaveViewState@XOleDocumentView@CDocObjectServer@@UAGJPAUIStream@@@Z 5f517039 f oledocvw.obj
 0001:00016225       ?ApplyViewState@XOleDocumentView@CDocObjectServer@@UAGJPAUIStream@@@Z 5f517225 f oledocvw.obj
 0001:00016411       ?Clone@XOleDocumentView@CDocObjectServer@@UAGJPAUIOleInPlaceSite@@PAPAUIOleDocumentView@@@Z 5f517411 f oledocvw.obj
 0001:000164a0       ?_GetBaseClass@CDocObjectServer@@KGPAUCRuntimeClass@@XZ 5f5174a0 f oledocob.obj
 0001:000164b5       ?GetRuntimeClass@CDocObjectServer@@UBEPAUCRuntimeClass@@XZ 5f5174b5 f oledocob.obj
 0001:000164d0       ?_GetBaseMessageMap@CDocObjectServer@@KGPBUAFX_MSGMAP@@XZ 5f5174d0 f oledocob.obj
 0001:000164e5       ?GetMessageMap@CDocObjectServer@@MBEPBUAFX_MSGMAP@@XZ 5f5174e5 f oledocob.obj
 0001:00016500       ?_GetBaseInterfaceMap@CDocObjectServer@@KGPBUAFX_INTERFACEMAP@@XZ 5f517500 f oledocob.obj
 0001:00016515       ?GetInterfaceMap@CDocObjectServer@@MBEPBUAFX_INTERFACEMAP@@XZ 5f517515 f oledocob.obj
 0001:00016530       ??0CDocObjectServer@@QAE@PAVCOleServerDoc@@PAUIOleDocumentSite@@@Z 5f517530 f oledocob.obj
 0001:00016637       ??1CDocObjectServer@@UAE@XZ 5f517637 f oledocob.obj
 0001:000166a7       ?ReleaseDocSite@CDocObjectServer@@QAEXXZ 5f5176a7 f oledocob.obj
 0001:000166e6       ?SetDocSite@CDocObjectServer@@QAEXPAUIOleDocumentSite@@@Z 5f5176e6 f oledocob.obj
 0001:0001670f       ?OnCloseDocument@CDocObjectServer@@UAEXXZ 5f51770f f oledocob.obj
 0001:00016741       ?ActivateDocObject@CDocObjectServer@@QAEXXZ 5f517741 f oledocob.obj
 0001:000167c2       ?OnExecOleCmd@CDocObjectServer@@IAGJPBU_GUID@@KKPAUtagVARIANT@@1@Z 5f5177c2 f oledocob.obj
 0001:0001683a       ?GetControllingFrame@CDocObjectServer@@QBEPAVCOleDocIPFrameWnd@@XZ 5f51783a f oledocob.obj
 0001:000168d5       ?DoPreparePrinting@CDocObjectServer@@IAEHPAVCView@@PAUCPrintInfo@@@Z 5f5178d5 f oledocob.obj
 0001:000168ff       ?DoPrepareDC@CDocObjectServer@@IAEXPAVCView@@PAVCDC@@PAUCPrintInfo@@@Z 5f5178ff f oledocob.obj
 0001:0001692d       ?DoPrint@CDocObjectServer@@IAEXPAVCView@@PAVCDC@@PAUCPrintInfo@@@Z 5f51792d f oledocob.obj
 0001:0001695b       ?DoBeginPrinting@CDocObjectServer@@IAEXPAVCView@@PAVCDC@@PAUCPrintInfo@@@Z 5f51795b f oledocob.obj
 0001:00016989       ?DoEndPrinting@CDocObjectServer@@IAEXPAVCView@@PAVCDC@@PAUCPrintInfo@@@Z 5f517989 f oledocob.obj
 0001:000169b7       ?AddRef@XPrint@CDocObjectServer@@UAGKXZ 5f5179b7 f oledocob.obj
 0001:00016a3a       ?Release@XPrint@CDocObjectServer@@UAGKXZ 5f517a3a f oledocob.obj
 0001:00016abd       ?QueryInterface@XPrint@CDocObjectServer@@UAGJABU_GUID@@PAPAX@Z 5f517abd f oledocob.obj
 0001:00016b45       ?SetInitialPageNum@XPrint@CDocObjectServer@@UAGJJ@Z 5f517b45 f oledocob.obj
 0001:00016bdd       ?GetPageInfo@XPrint@CDocObjectServer@@UAGJPAJ0@Z 5f517bdd f oledocob.obj
 0001:00016d59       ?Print@XPrint@CDocObjectServer@@UAGJKPAPAUtagDVTARGETDEVICE@@PAPAUtagPAGESET@@PAUtagSTGMEDIUM@@PAUIContinueCallback@@JPAJ4@Z 5f517d59 f oledocob.obj
 0001:00017844       ?AddRef@XOleDocument@CDocObjectServer@@UAGKXZ 5f518844 f oledocob.obj
 0001:000178c7       ?Release@XOleDocument@CDocObjectServer@@UAGKXZ 5f5188c7 f oledocob.obj
 0001:0001794a       ?QueryInterface@XOleDocument@CDocObjectServer@@UAGJABU_GUID@@PAPAX@Z 5f51894a f oledocob.obj
 0001:000179d2       ?CreateView@XOleDocument@CDocObjectServer@@UAGJPAUIOleInPlaceSite@@PAUIStream@@KPAPAUIOleDocumentView@@@Z 5f5189d2 f oledocob.obj
 0001:00017b2b       ?GetDocMiscStatus@XOleDocument@CDocObjectServer@@UAGJPAK@Z 5f518b2b f oledocob.obj
 0001:00017be5       ?EnumViews@XOleDocument@CDocObjectServer@@UAGJPAPAUIEnumOleDocumentViews@@PAPAUIOleDocumentView@@@Z 5f518be5 f oledocob.obj
 0001:00017cd7       ?AddRef@XOleObject@CDocObjectServer@@UAGKXZ 5f518cd7 f oledocob.obj
 0001:00017d5a       ?Release@XOleObject@CDocObjectServer@@UAGKXZ 5f518d5a f oledocob.obj
 0001:00017ddd       ?QueryInterface@XOleObject@CDocObjectServer@@UAGJABU_GUID@@PAPAX@Z 5f518ddd f oledocob.obj
 0001:00017e68       ?SetClientSite@XOleObject@CDocObjectServer@@UAGJPAUIOleClientSite@@@Z 5f518e68 f oledocob.obj
 0001:00017f6f       ?GetClientSite@XOleObject@CDocObjectServer@@UAGJPAPAUIOleClientSite@@@Z 5f518f6f f oledocob.obj
 0001:0001800e       ?SetHostNames@XOleObject@CDocObjectServer@@UAGJPBG0@Z 5f51900e f oledocob.obj
 0001:000180bc       ?Close@XOleObject@CDocObjectServer@@UAGJK@Z 5f5190bc f oledocob.obj
 0001:00018166       ?SetMoniker@XOleObject@CDocObjectServer@@UAGJKPAUIMoniker@@@Z 5f519166 f oledocob.obj
 0001:00018214       ?GetMoniker@XOleObject@CDocObjectServer@@UAGJKKPAPAUIMoniker@@@Z 5f519214 f oledocob.obj
 0001:000182c6       ?InitFromData@XOleObject@CDocObjectServer@@UAGJPAUIDataObject@@HK@Z 5f5192c6 f oledocob.obj
 0001:00018378       ?GetClipboardData@XOleObject@CDocObjectServer@@UAGJKPAPAUIDataObject@@@Z 5f519378 f oledocob.obj
 0001:00018426       ?DoVerb@XOleObject@CDocObjectServer@@UAGJJPAUtagMSG@@PAUIOleClientSite@@JPAUHWND__@@PBUtagRECT@@@Z 5f519426 f oledocob.obj
 0001:000184e4       ?EnumVerbs@XOleObject@CDocObjectServer@@UAGJPAPAUIEnumOLEVERB@@@Z 5f5194e4 f oledocob.obj
 0001:0001858e       ?Update@XOleObject@CDocObjectServer@@UAGJXZ 5f51958e f oledocob.obj
 0001:00018634       ?IsUpToDate@XOleObject@CDocObjectServer@@UAGJXZ 5f519634 f oledocob.obj
 0001:000186da       ?GetUserClassID@XOleObject@CDocObjectServer@@UAGJPAU_GUID@@@Z 5f5196da f oledocob.obj
 0001:00018784       ?GetUserType@XOleObject@CDocObjectServer@@UAGJKPAPAG@Z 5f519784 f oledocob.obj
 0001:00018832       ?SetExtent@XOleObject@CDocObjectServer@@UAGJKPAUtagSIZE@@@Z 5f519832 f oledocob.obj
 0001:0001890e       ?GetExtent@XOleObject@CDocObjectServer@@UAGJKPAUtagSIZE@@@Z 5f51990e f oledocob.obj
 0001:000189bc       ?Advise@XOleObject@CDocObjectServer@@UAGJPAUIAdviseSink@@PAK@Z 5f5199bc f oledocob.obj
 0001:00018a6a       ?Unadvise@XOleObject@CDocObjectServer@@UAGJK@Z 5f519a6a f oledocob.obj
 0001:00018b14       ?EnumAdvise@XOleObject@CDocObjectServer@@UAGJPAPAUIEnumSTATDATA@@@Z 5f519b14 f oledocob.obj
 0001:00018bbe       ?GetMiscStatus@XOleObject@CDocObjectServer@@UAGJKPAK@Z 5f519bbe f oledocob.obj
 0001:00018c6c       ?SetColorScheme@XOleObject@CDocObjectServer@@UAGJPAUtagLOGPALETTE@@@Z 5f519c6c f oledocob.obj
 0001:00018d16       ?AssertValid@CDocObjectServer@@MBEXXZ 5f519d16 f oledocob.obj
 0001:00018d59       ?Dump@CDocObjectServer@@MBEXAAVCDumpContext@@@Z 5f519d59 f oledocob.obj
 0001:00018dcb       ?_GetBaseClass@CDocObjectServerItem@@KGPAUCRuntimeClass@@XZ 5f519dcb f oledocob.obj
 0001:00018de0       ?GetRuntimeClass@CDocObjectServerItem@@UBEPAUCRuntimeClass@@XZ 5f519de0 f oledocob.obj
 0001:00018dfb       ??0CDocObjectServerItem@@IAE@PAVCOleServerDoc@@H@Z 5f519dfb f oledocob.obj
 0001:00018e74       ??1CDocObjectServerItem@@UAE@XZ 5f519e74 f oledocob.obj
 0001:00018edc       ?OnDoVerb@CDocObjectServerItem@@MAEXJ@Z 5f519edc f oledocob.obj
 0001:00018f4b       ?OnHide@CDocObjectServerItem@@MAEXXZ 5f519f4b f oledocob.obj
 0001:00018fa6       ?OnOpen@CDocObjectServerItem@@MAEXXZ 5f519fa6 f oledocob.obj
 0001:00018fff       ?OnShow@CDocObjectServerItem@@MAEXXZ 5f519fff f oledocob.obj
 0001:00019058       ?AssertValid@CDocObjectServerItem@@UBEXXZ 5f51a058 f oledocob.obj
 0001:00019076       ?Dump@CDocObjectServerItem@@UBEXAAVCDumpContext@@@Z 5f51a076 f oledocob.obj
 0001:000190a0       ??_ECDocObjectServer@@UAEPAXI@Z 5f51a0a0 f oledocob.obj
 0001:000190a0       ??_GCDocObjectServer@@UAEPAXI@Z 5f51a0a0 f oledocob.obj
 0001:000190e0       ??0XOleObject@CDocObjectServer@@QAE@XZ 5f51a0e0 f oledocob.obj
 0001:00019110       ??0XOleDocument@CDocObjectServer@@QAE@XZ 5f51a110 f oledocob.obj
 0001:00019140       ??0XOleDocumentView@CDocObjectServer@@QAE@XZ 5f51a140 f oledocob.obj
 0001:00019170       ??0XOleCommandTarget@CDocObjectServer@@QAE@XZ 5f51a170 f oledocob.obj
 0001:000191a0       ??0XPrint@CDocObjectServer@@QAE@XZ 5f51a1a0 f oledocob.obj
 0001:000191d0       ??0IOleDocument@@QAE@XZ    5f51a1d0 f oledocob.obj
 0001:00019200       ??0IOleDocumentView@@QAE@XZ 5f51a200 f oledocob.obj
 0001:00019230       ??0IOleCommandTarget@@QAE@XZ 5f51a230 f oledocob.obj
 0001:00019260       ??0IPrint@@QAE@XZ          5f51a260 f oledocob.obj
 0001:00019290       ??_GCDocObjectServerItem@@UAEPAXI@Z 5f51a290 f oledocob.obj
 0001:00019290       ??_ECDocObjectServerItem@@UAEPAXI@Z 5f51a290 f oledocob.obj
 0001:000192d0       ?GetDocument@CDocObjectServerItem@@QBEPAVCOleServerDoc@@XZ 5f51a2d0 f oledocob.obj
 0001:000192f0       ??0COleCmdUI@@QAE@PAU_tagOLECMD@@KPBU_GUID@@@Z 5f51a2f0 f oledoctg.obj
 0001:0001938a       ?Enable@COleCmdUI@@UAEXH@Z 5f51a38a f oledoctg.obj
 0001:00019411       ?SetCheck@COleCmdUI@@UAEXH@Z 5f51a411 f oledoctg.obj
 0001:000194a9       ?SetText@COleCmdUI@@UAEXPBG@Z 5f51a4a9 f oledoctg.obj
 0001:000194d0       ?DoUpdate@COleCmdUI@@UAEHPAVCCmdTarget@@H@Z 5f51a4d0 f oledoctg.obj
 0001:000195c2       ?AddRef@XOleCommandTarget@CDocObjectServer@@UAGKXZ 5f51a5c2 f oledoctg.obj
 0001:00019645       ?Release@XOleCommandTarget@CDocObjectServer@@UAGKXZ 5f51a645 f oledoctg.obj
 0001:000196c8       ?QueryInterface@XOleCommandTarget@CDocObjectServer@@UAGJABU_GUID@@PAPAX@Z 5f51a6c8 f oledoctg.obj
 0001:00019753       ?QueryStatus@XOleCommandTarget@CDocObjectServer@@UAGJPBU_GUID@@KQAU_tagOLECMD@@PAU_tagOLECMDTEXT@@@Z 5f51a753 f oledoctg.obj
 0001:0001993d       ?Exec@XOleCommandTarget@CDocObjectServer@@UAGJPBU_GUID@@KKPAUtagVARIANT@@1@Z 5f51a93d f oledoctg.obj
 0001:00019b20       ??1COleCmdUI@@QAE@XZ       5f51ab20 f oledoctg.obj
 0001:00019b90       ?CreateObject@COleDocIPFrameWnd@@SGPAVCObject@@XZ 5f51ab90 f oledocip.obj
 0001:00019bd0       ?_GetBaseClass@COleDocIPFrameWnd@@KGPAUCRuntimeClass@@XZ 5f51abd0 f oledocip.obj
 0001:00019be5       ?GetRuntimeClass@COleDocIPFrameWnd@@UBEPAUCRuntimeClass@@XZ 5f51abe5 f oledocip.obj
 0001:00019c00       ?_GetBaseMessageMap@COleDocIPFrameWnd@@KGPBUAFX_MSGMAP@@XZ 5f51ac00 f oledocip.obj
 0001:00019c15       ?GetMessageMap@COleDocIPFrameWnd@@MBEPBUAFX_MSGMAP@@XZ 5f51ac15 f oledocip.obj
 0001:00019c30       ??0COleDocIPFrameWnd@@QAE@XZ 5f51ac30 f oledocip.obj
 0001:00019cac       ??1COleDocIPFrameWnd@@UAE@XZ 5f51acac f oledocip.obj
 0001:00019d14       ?OnRequestPositionChange@COleDocIPFrameWnd@@MAEXPBUtagRECT@@@Z 5f51ad14 f oledocip.obj
 0001:00019d98       ?RecalcLayout@COleDocIPFrameWnd@@MAEXH@Z 5f51ad98 f oledocip.obj
 0001:00019ff4       ?BuildSharedMenu@COleDocIPFrameWnd@@MAEHXZ 5f51aff4 f oledocip.obj
 0001:0001a229       ?DestroySharedMenu@COleDocIPFrameWnd@@MAEXXZ 5f51b229 f oledocip.obj
 0001:0001a3c2       ?AssertValid@COleDocIPFrameWnd@@UBEXXZ 5f51b3c2 f oledocip.obj
 0001:0001a3e0       ?Dump@COleDocIPFrameWnd@@UBEXAAVCDumpContext@@@Z 5f51b3e0 f oledocip.obj
 0001:0001a410       ??0_AfxBindStatusCallback@@QAE@PAVCAsyncMonikerFile@@@Z 5f51b410 f oleasmon.obj
 0001:0001a4a0       ?AddRef@_AfxBindStatusCallback@@UAGKXZ 5f51b4a0 f oleasmon.obj
 0001:0001a4c0       ?Release@_AfxBindStatusCallback@@UAGKXZ 5f51b4c0 f oleasmon.obj
 0001:0001a510       ?QueryInterface@_AfxBindStatusCallback@@UAGJABU_GUID@@PAPAX@Z 5f51b510 f oleasmon.obj
 0001:0001a5a0       ?GetBindInfo@_AfxBindStatusCallback@@EAGJPAKPAU_tagBINDINFO@@@Z 5f51b5a0 f oleasmon.obj
 0001:0001a720       ?OnStartBinding@_AfxBindStatusCallback@@EAGJKPAUIBinding@@@Z 5f51b720 f oleasmon.obj
 0001:0001a880       ?GetPriority@_AfxBindStatusCallback@@EAGJPAJ@Z 5f51b880 f oleasmon.obj
 0001:0001a9e0       ?OnProgress@_AfxBindStatusCallback@@EAGJKKKPBG@Z 5f51b9e0 f oleasmon.obj
 0001:0001ab50       ?OnDataAvailable@_AfxBindStatusCallback@@EAGJKKPAUtagFORMATETC@@PAUtagSTGMEDIUM@@@Z 5f51bb50 f oleasmon.obj
 0001:0001ad70       ?OnLowResource@_AfxBindStatusCallback@@EAGJK@Z 5f51bd70 f oleasmon.obj
 0001:0001aec0       ?OnStopBinding@_AfxBindStatusCallback@@EAGJJPBG@Z 5f51bec0 f oleasmon.obj
 0001:0001b030       ?OnObjectAvailable@_AfxBindStatusCallback@@EAGJABU_GUID@@PAUIUnknown@@@Z 5f51c030 f oleasmon.obj
 0001:0001b0e0       ?Orphan@_AfxBindStatusCallback@@QAEXXZ 5f51c0e0 f oleasmon.obj
 0001:0001b100       ?GetInterfacePtr@?$_CIP@UIBindHost@@$1IID_IBindHost@@QBEPAUIBindHost@@XZ 5f51c100 f oleasmon.obj
 0001:0001b120       ?QueryInterface@?$_CIP@UIBindHost@@$1IID_IBindHost@@QAEJPAUIUnknown@@@Z 5f51c120 f oleasmon.obj
 0001:0001b1a0       ?GetIID@?$_CIP@UIBindHost@@$1IID_IBindHost@@SAABU_GUID@@XZ 5f51c1a0 f oleasmon.obj
 0001:0001b1e0       ??4?$_CIP@UIBindHost@@$1IID_IBindHost@@QAEAAV0@PAUIBindHost@@@Z 5f51c1e0 f oleasmon.obj
 0001:0001b240       ?Attach@?$_CIP@UIBindHost@@$1IID_IBindHost@@QAEXPAUIBindHost@@@Z 5f51c240 f oleasmon.obj
 0001:0001b270       ??0?$CIP@UIBindHost@@$1IID_IBindHost@@QAE@XZ 5f51c270 f oleasmon.obj
 0001:0001b2e0       ??0?$_CIP@UIBindHost@@$1IID_IBindHost@@QAE@XZ 5f51c2e0 f oleasmon.obj
 0001:0001b310       ??4?$CIP@UIBindHost@@$1IID_IBindHost@@QAEAAV0@PAUIBindHost@@@Z 5f51c310 f oleasmon.obj
 0001:0001b340       ??B?$_CIP@UIServiceProvider@@$1IID_IServiceProvider@@QBEPAUIServiceProvider@@XZ 5f51c340 f oleasmon.obj
 0001:0001b360       ??1?$_CIP@UIBinding@@$1IID_IBinding@@QAE@XZ 5f51c360 f oleasmon.obj
 0001:0001b380       ?GetInterfacePtr@?$_CIP@UIServiceProvider@@$1IID_IServiceProvider@@QBEPAUIServiceProvider@@XZ 5f51c380 f oleasmon.obj
 0001:0001b3a0       ?QueryInterface@?$_CIP@UIServiceProvider@@$1IID_IServiceProvider@@QAEJPAUIUnknown@@@Z 5f51c3a0 f oleasmon.obj
 0001:0001b420       ?GetIID@?$_CIP@UIServiceProvider@@$1IID_IServiceProvider@@SAABU_GUID@@XZ 5f51c420 f oleasmon.obj
 0001:0001b460       ??4?$_CIP@UIServiceProvider@@$1IID_IServiceProvider@@QAEAAV0@PAUIServiceProvider@@@Z 5f51c460 f oleasmon.obj
 0001:0001b4c0       ?Attach@?$_CIP@UIServiceProvider@@$1IID_IServiceProvider@@QAEXPAUIServiceProvider@@@Z 5f51c4c0 f oleasmon.obj
 0001:0001b4f0       ?_Release@?$_CIP@UIServiceProvider@@$1IID_IServiceProvider@@AAEXXZ 5f51c4f0 f oleasmon.obj
 0001:0001b530       ?_AddRef@?$_CIP@UIServiceProvider@@$1IID_IServiceProvider@@AAEXXZ 5f51c530 f oleasmon.obj
 0001:0001b570       ??0?$CIP@UIServiceProvider@@$1IID_IServiceProvider@@QAE@XZ 5f51c570 f oleasmon.obj
 0001:0001b5e0       ??0?$_CIP@UIServiceProvider@@$1IID_IServiceProvider@@QAE@XZ 5f51c5e0 f oleasmon.obj
 0001:0001b610       ??1?$_CIP@UIServiceProvider@@$1IID_IServiceProvider@@QAE@XZ 5f51c610 f oleasmon.obj
 0001:0001b630       ?_Release@?$_CIP@UIBinding@@$1IID_IBinding@@AAEXXZ 5f51c630 f oleasmon.obj
 0001:0001b670       ??0?$CIP@UIBinding@@$1IID_IBinding@@QAE@XZ 5f51c670 f oleasmon.obj
 0001:0001b6e0       ??0?$_CIP@UIBinding@@$1IID_IBinding@@QAE@XZ 5f51c6e0 f oleasmon.obj
 0001:0001b710       ??B?$_CIP@UIServiceProvider@@$1IID_IServiceProvider@@QAEPAUIUnknown@@XZ 5f51c710 f oleasmon.obj
 0001:0001b730       ??C?$_CIP@UIBinding@@$1IID_IBinding@@QBEPAUIBinding@@XZ 5f51c730 f oleasmon.obj
 0001:0001b770       ?GetInterfacePtr@?$_CIP@UIBinding@@$1IID_IBinding@@QBEPAUIBinding@@XZ 5f51c770 f oleasmon.obj
 0001:0001b790       ?AddRef@XOleCache@COleControl@@UAGKXZ 5f51c790 f ctlcache.obj
 0001:0001b7b8       ?Release@XOleCache@COleControl@@UAGKXZ 5f51c7b8 f ctlcache.obj
 0001:0001b7e0       ?QueryInterface@XOleCache@COleControl@@UAGJABU_GUID@@PAPAX@Z 5f51c7e0 f ctlcache.obj
 0001:0001b810       ?Cache@XOleCache@COleControl@@UAGJPAUtagFORMATETC@@KPAK@Z 5f51c810 f ctlcache.obj
 0001:0001b87a       ?Uncache@XOleCache@COleControl@@UAGJK@Z 5f51c87a f ctlcache.obj
 0001:0001b8dc       ?EnumCache@XOleCache@COleControl@@UAGJPAPAUIEnumSTATDATA@@@Z 5f51c8dc f ctlcache.obj
 0001:0001b93e       ?InitCache@XOleCache@COleControl@@UAGJPAUIDataObject@@@Z 5f51c93e f ctlcache.obj
 0001:0001b9a0       ?SetData@XOleCache@COleControl@@UAGJPAUtagFORMATETC@@PAUtagSTGMEDIUM@@H@Z 5f51c9a0 f ctlcache.obj
 0001:0001ba10       ?_GetBaseInterfaceMap@COleControl@@KGPBUAFX_INTERFACEMAP@@XZ 5f51ca10 f ctlcore.obj
 0001:0001ba25       ?GetInterfaceMap@COleControl@@MBEPBUAFX_INTERFACEMAP@@XZ 5f51ca25 f ctlcore.obj
 0001:0001ba40       ?_GetBaseMessageMap@COleControl@@KGPBUAFX_MSGMAP@@XZ 5f51ca40 f ctlcore.obj
 0001:0001ba55       ?GetMessageMap@COleControl@@MBEPBUAFX_MSGMAP@@XZ 5f51ca55 f ctlcore.obj
 0001:0001ba70       ??0COleControl@@QAE@XZ     5f51ca70 f ctlcore.obj
 0001:0001bf51       ??1COleControl@@UAE@XZ     5f51cf51 f ctlcore.obj
 0001:0001c5c7       ?OnFinalRelease@COleControl@@MAEXXZ 5f51d5c7 f ctlcore.obj
 0001:0001c626       ?GetInterfaceHook@COleControl@@MAEPAUIUnknown@@PBX@Z 5f51d626 f ctlcore.obj
 0001:0001c6ed       ?SetInitialSize@COleControl@@QAEXHH@Z 5f51d6ed f ctlcore.obj
 0001:0001c738       ?GetDispatchIID@COleControl@@MAEHPAU_GUID@@@Z 5f51d738 f ctlcore.obj
 0001:0001c795       ?InitializeIIDs@COleControl@@QAEXPBU_GUID@@0@Z 5f51d795 f ctlcore.obj
 0001:0001c909       ?AssertValid@COleControl@@UBEXXZ 5f51d909 f ctlcore.obj
 0001:0001c927       ?_AfxDumpGuid@@YGXAAVCDumpContext@@PBU_GUID@@@Z 5f51d927 f ctlcore.obj
 0001:0001c984       ?_AfxDumpHex@@YGXAAVCDumpContext@@K@Z 5f51d984 f ctlcore.obj
 0001:0001c9bb       ?Dump@COleControl@@UBEXAAVCDumpContext@@@Z 5f51d9bb f ctlcore.obj
 0001:0001cc96       ?_AfxFillPSOnStack@@YGXXZ  5f51dc96 f ctlcore.obj
 0001:0001cd12       ?DoSuperclassPaint@COleControl@@QAEXPAVCDC@@ABVCRect@@@Z 5f51dd12 f ctlcore.obj
 0001:0001ce59       ?IsSubclassedControl@COleControl@@UAEHXZ 5f51de59 f ctlcore.obj
 0001:0001cea8       ?CreateControlWindow@COleControl@@MAEHPAUHWND__@@ABVCRect@@PBUtagRECT@@@Z 5f51dea8 f ctlcore.obj
 0001:0001d2b8       ?ReparentControlWindow@COleControl@@UAEXPAUHWND__@@0@Z 5f51e2b8 f ctlcore.obj
 0001:0001d2de       ?GetControlSize@COleControl@@QAEXPAH0@Z 5f51e2de f ctlcore.obj
 0001:0001d39b       ?SetControlSize@COleControl@@QAEHHH@Z 5f51e39b f ctlcore.obj
 0001:0001d3fd       ?ResizeOpenControl@COleControl@@IAEXHH@Z 5f51e3fd f ctlcore.obj
 0001:0001d46a       ?SetRectInContainer@COleControl@@QAEHPBUtagRECT@@@Z 5f51e46a f ctlcore.obj
 0001:0001d512       ?OnResetState@COleControl@@UAEXXZ 5f51e512 f ctlcore.obj
 0001:0001d54e       ?_AfxDrawBorders@@YGXPAVCDC@@AAVCRect@@HH@Z 5f51e54e f ctlcore.obj
 0001:0001d5c0       ?DrawContent@COleControl@@IAEXPAVCDC@@AAVCRect@@@Z 5f51e5c0 f ctlcore.obj
 0001:0001d6d8       ?DrawMetafile@COleControl@@IAEXPAVCDC@@AAVCRect@@@Z 5f51e6d8 f ctlcore.obj
 0001:0001d79d       ?OnDraw@COleControl@@UAEXPAVCDC@@ABVCRect@@1@Z 5f51e79d f ctlcore.obj
 0001:0001d7b5       ?OnDrawMetafile@COleControl@@UAEXPAVCDC@@ABVCRect@@@Z 5f51e7b5 f ctlcore.obj
 0001:0001d7e7       ?GetMetafileData@COleControl@@IAEHPAUtagFORMATETC@@PAUtagSTGMEDIUM@@@Z 5f51e7e7 f ctlcore.obj
 0001:0001daec       ?OnCreateAggregates@COleControl@@MAEHXZ 5f51eaec f ctlcore.obj
 0001:0001db07       ?QueryDefHandler@COleControl@@IAEPAXABU_GUID@@@Z 5f51eb07 f ctlcore.obj
 0001:0001dbd4       ?InvalidateControl@COleControl@@QAEXPBUtagRECT@@H@Z 5f51ebd4 f ctlcore.obj
 0001:0001dce8       ?GetOuterWindow@COleControl@@IBEPAVCWnd@@XZ 5f51ece8 f ctlcore.obj
 0001:0001dd1f       ?OnReflectorDestroyed@COleControl@@MAEXXZ 5f51ed1f f ctlcore.obj
 0001:0001dd42       ?SaveState@COleControl@@IAEJPAUIStream@@@Z 5f51ed42 f ctlcore.obj
 0001:0001de45       ?LoadState@COleControl@@IAEJPAUIStream@@@Z 5f51ee45 f ctlcore.obj
 0001:0001dfb6       ?SendAdvise@COleControl@@IAEXI@Z 5f51efb6 f ctlcore.obj
 0001:0001e1ca       ?OnHide@COleControl@@MAEJXZ 5f51f1ca f ctlcore.obj
 0001:0001e2fc       ?ResizeFrameWindow@COleControl@@MAEXHH@Z 5f51f2fc f ctlcore.obj
 0001:0001e3a8       ?OnOpen@COleControl@@MAEJHPAUtagMSG@@@Z 5f51f3a8 f ctlcore.obj
 0001:0001e52f       ?CreateFrameWindow@COleControl@@MAEPAVCControlFrameWnd@@XZ 5f51f52f f ctlcore.obj
 0001:0001e5c9       ?OnFrameClose@COleControl@@MAEXXZ 5f51f5c9 f ctlcore.obj
 0001:0001e65c       ?GetRectInContainer@COleControl@@QAEHPAUtagRECT@@@Z 5f51f65c f ctlcore.obj
 0001:0001e6a8       ?GetPropPageIDs@COleControl@@MAEPAU_GUID@@AAK@Z 5f51f6a8 f ctlcore.obj
 0001:0001e6cb       ?OnEdit@COleControl@@UAEHPAUtagMSG@@PAUHWND__@@PBUtagRECT@@@Z 5f51f6cb f ctlcore.obj
 0001:0001e721       ?_AfxGetTopLevelWindow@@YGPAUHWND__@@PAU1@@Z 5f51f721 f ctlcore.obj
 0001:0001e756       ?OnProperties@COleControl@@UAEHPAUtagMSG@@PAUHWND__@@PBUtagRECT@@@Z 5f51f756 f ctlcore.obj
 0001:0001e8b3       ?GetControlFlags@COleControl@@UAEKXZ 5f51f8b3 f ctlcore.obj
 0001:0001e8ce       ?OnPaint@COleControl@@IAEXPAVCDC@@@Z 5f51f8ce f ctlcore.obj
 0001:0001ec6e       ?Serialize@COleControl@@MAEXAAVCArchive@@@Z 5f51fc6e f ctlcore.obj
 0001:0001ecca       ?DoPropExchange@COleControl@@UAEXPAVCPropExchange@@@Z 5f51fcca f ctlcore.obj
 0001:0001ed31       ?ControlInfoChanged@COleControl@@QAEXXZ 5f51fd31 f ctlcore.obj
 0001:0001ed6f       ?LockInPlaceActive@COleControl@@QAEHH@Z 5f51fd6f f ctlcore.obj
 0001:0001edce       ?GetExtendedControl@COleControl@@QAEPAUIDispatch@@XZ 5f51fdce f ctlcore.obj
 0001:0001ee1a       ?TransformCoords@COleControl@@QAEXPAU_POINTL@@PAUtagPOINTF@@K@Z 5f51fe1a f ctlcore.obj
 0001:0001eebf       ?AddRef@XOleControl@COleControl@@UAGKXZ 5f51febf f ctlcore.obj
 0001:0001eee7       ?Release@XOleControl@COleControl@@UAGKXZ 5f51fee7 f ctlcore.obj
 0001:0001ef0f       ?QueryInterface@XOleControl@COleControl@@UAGJABU_GUID@@PAPAX@Z 5f51ff0f f ctlcore.obj
 0001:0001ef3f       ?GetControlInfo@XOleControl@COleControl@@UAGJPAUtagCONTROLINFO@@@Z 5f51ff3f f ctlcore.obj
 0001:0001efcf       ?OnMnemonic@XOleControl@COleControl@@UAGJPAUtagMSG@@@Z 5f51ffcf f ctlcore.obj
 0001:0001f05f       ?OnAmbientPropertyChange@XOleControl@COleControl@@UAGJJ@Z 5f52005f f ctlcore.obj
 0001:0001f136       ?FreezeEvents@XOleControl@COleControl@@UAGJH@Z 5f520136 f ctlcore.obj
 0001:0001f238       ?OnGetControlInfo@COleControl@@UAEXPAUtagCONTROLINFO@@@Z 5f520238 f ctlcore.obj
 0001:0001f26d       ?OnMnemonic@COleControl@@UAEXPAUtagMSG@@@Z 5f52026d f ctlcore.obj
 0001:0001f285       ?OnAmbientPropertyChange@COleControl@@UAEXJ@Z 5f520285 f ctlcore.obj
 0001:0001f29d       ?OnFreezeEvents@COleControl@@UAEXH@Z 5f52029d f ctlcore.obj
 0001:0001f2b5       ?OnSetClientSite@COleControl@@UAEXXZ 5f5202b5 f ctlcore.obj
 0001:0001f30c       ?GetClientSite@COleControl@@QAEPAUIOleClientSite@@XZ 5f52030c f ctlcore.obj
 0001:0001f32b       ?TranslateColor@COleControl@@QAEKKPAUHPALETTE__@@@Z 5f52032b f ctlcore.obj
 0001:0001f35e       ?Refresh@COleControl@@QAEXXZ 5f52035e f ctlcore.obj
 0001:0001f395       ?DoClick@COleControl@@QAEXXZ 5f520395 f ctlcore.obj
 0001:0001f3bb       ?OnNcCreate@COleControl@@IAEHPAUtagCREATESTRUCTW@@@Z 5f5203bb f ctlcore.obj
 0001:0001f401       ?RecreateControlWindow@COleControl@@QAEXXZ 5f520401 f ctlcore.obj
 0001:0001f6e0       ?CreateWindowForSubclassedControl@COleControl@@IAEXXZ 5f5206e0 f ctlcore.obj
 0001:0001f77e       ?OnMouseActivate@COleControl@@IAEHPAVCWnd@@II@Z 5f52077e f ctlcore.obj
 0001:0001f7e9       ?PreModalDialog@COleControl@@QAEXPAUHWND__@@@Z 5f5207e9 f ctlcore.obj
 0001:0001f852       ?PostModalDialog@COleControl@@QAEXPAUHWND__@@@Z 5f520852 f ctlcore.obj
 0001:0001f8bb       ?SetModifiedFlag@COleControl@@QAEXH@Z 5f5208bb f ctlcore.obj
 0001:0001f8f5       ?IsModified@COleControl@@QAEHXZ 5f5208f5 f ctlcore.obj
 0001:0001f91a       ?WillAmbientsBeValidDuringLoad@COleControl@@QAEHXZ 5f52091a f ctlcore.obj
 0001:0001f93f       ?EnableSimpleFrame@COleControl@@QAEXXZ 5f52093f f ctlcore.obj
 0001:0001f96c       ?IgnoreWindowMessage@COleControl@@IAEHIIJPAJ@Z 5f52096c f ctlcore.obj
 0001:0001fa3c       ?WindowProc@COleControl@@UAEJIIJ@Z 5f520a3c f ctlcore.obj
 0001:0001fd42       ?DefWindowProcW@COleControl@@MAEJIIJ@Z 5f520d42 f ctlcore.obj
 0001:0001fd87       ?OnCreate@COleControl@@IAEHPAUtagCREATESTRUCTW@@@Z 5f520d87 f ctlcore.obj
 0001:0001fdcd       ?OnSize@COleControl@@IAEXIHH@Z 5f520dcd f ctlcore.obj
 0001:0001fe0f       ?OnMove@COleControl@@IAEXHH@Z 5f520e0f f ctlcore.obj
 0001:0001fe4d       ?OnShowWindow@COleControl@@IAEXHI@Z 5f520e4d f ctlcore.obj
 0001:0001fe8b       ?OnInitMenuPopup@COleControl@@IAEXPAVCMenu@@IH@Z 5f520e8b f ctlcore.obj
 0001:00020108       ?OnMenuSelect@COleControl@@IAEXIIPAUHMENU__@@@Z 5f521108 f ctlcore.obj
 0001:00020288       ?GetMessageString@COleControl@@UBEXIAAVCString@@@Z 5f521288 f ctlcore.obj
 0001:0002030d       ?OnSetMessageString@COleControl@@IAEJIJ@Z 5f52130d f ctlcore.obj
 0001:0002043e       ?OnEnterIdle@COleControl@@IAEXIPAVCWnd@@@Z 5f52143e f ctlcore.obj
 0001:000204c6       ?AddRef@XSpecifyPropertyPages@COleControl@@UAGKXZ 5f5214c6 f ctlcore.obj
 0001:000204ee       ?Release@XSpecifyPropertyPages@COleControl@@UAGKXZ 5f5214ee f ctlcore.obj
 0001:00020516       ?QueryInterface@XSpecifyPropertyPages@COleControl@@UAGJABU_GUID@@PAPAX@Z 5f521516 f ctlcore.obj
 0001:00020546       ?GetPages@XSpecifyPropertyPages@COleControl@@UAGJPAUtagCAUUID@@@Z 5f521546 f ctlcore.obj
 0001:000206a7       ?OnDestroy@COleControl@@IAEXXZ 5f5216a7 f ctlcore.obj
 0001:00020719       ?OnKillFocus@COleControl@@IAEXPAVCWnd@@@Z 5f521719 f ctlcore.obj
 0001:00020767       ?OnSetFocus@COleControl@@IAEXPAVCWnd@@@Z 5f521767 f ctlcore.obj
 0001:000207b5       ?OnOcmCtlColorBtn@COleControl@@IAEJIJ@Z 5f5217b5 f ctlcore.obj
 0001:000207e7       ?OnOcmCtlColorDlg@COleControl@@IAEJIJ@Z 5f5217e7 f ctlcore.obj
 0001:00020819       ?OnOcmCtlColorEdit@COleControl@@IAEJIJ@Z 5f521819 f ctlcore.obj
 0001:0002084b       ?OnOcmCtlColorListBox@COleControl@@IAEJIJ@Z 5f52184b f ctlcore.obj
 0001:0002087d       ?OnOcmCtlColorMsgBox@COleControl@@IAEJIJ@Z 5f52187d f ctlcore.obj
 0001:000208af       ?OnOcmCtlColorScrollBar@COleControl@@IAEJIJ@Z 5f5218af f ctlcore.obj
 0001:000208e1       ?OnOcmCtlColorStatic@COleControl@@IAEJIJ@Z 5f5218e1 f ctlcore.obj
 0001:00020913       ?ThrowError@COleControl@@QAEXJII@Z 5f521913 f ctlcore.obj
 0001:00020970       ?ThrowError@COleControl@@QAEXJPBGI@Z 5f521970 f ctlcore.obj
 0001:000209e4       ?IsInvokeAllowed@COleControl@@MAEHJ@Z 5f5219e4 f ctlcore.obj
 0001:00020a10       ??_GCOleControl@@UAEPAXI@Z 5f521a10 f ctlcore.obj
 0001:00020a10       ??_ECOleControl@@UAEPAXI@Z 5f521a10 f ctlcore.obj
 0001:00020a50       ??0XPersistStorage@COleControl@@QAE@XZ 5f521a50 f ctlcore.obj
 0001:00020a80       ??0XPersistStreamInit@COleControl@@QAE@XZ 5f521a80 f ctlcore.obj
 0001:00020ab0       ??0XPersistMemory@COleControl@@QAE@XZ 5f521ab0 f ctlcore.obj
 0001:00020ae0       ??0XPersistPropertyBag@COleControl@@QAE@XZ 5f521ae0 f ctlcore.obj
 0001:00020b10       ??0XOleObject@COleControl@@QAE@XZ 5f521b10 f ctlcore.obj
 0001:00020b40       ??0XViewObject@COleControl@@QAE@XZ 5f521b40 f ctlcore.obj
 0001:00020b70       ??0XDataObject@COleControl@@QAE@XZ 5f521b70 f ctlcore.obj
 0001:00020ba0       ??0XOleInPlaceObject@COleControl@@QAE@XZ 5f521ba0 f ctlcore.obj
 0001:00020bd0       ??0XOleInPlaceActiveObject@COleControl@@QAE@XZ 5f521bd0 f ctlcore.obj
 0001:00020c00       ??0XOleCache@COleControl@@QAE@XZ 5f521c00 f ctlcore.obj
 0001:00020c30       ??0XOleControl@COleControl@@QAE@XZ 5f521c30 f ctlcore.obj
 0001:00020c60       ??0XProvideClassInfo@COleControl@@QAE@XZ 5f521c60 f ctlcore.obj
 0001:00020c90       ??0XSpecifyPropertyPages@COleControl@@QAE@XZ 5f521c90 f ctlcore.obj
 0001:00020cc0       ??0XPerPropertyBrowsing@COleControl@@QAE@XZ 5f521cc0 f ctlcore.obj
 0001:00020cf0       ??0XFontNotification@COleControl@@QAE@XZ 5f521cf0 f ctlcore.obj
 0001:00020d20       ??0XQuickActivate@COleControl@@QAE@XZ 5f521d20 f ctlcore.obj
 0001:00020d50       ??0XPointerInactive@COleControl@@QAE@XZ 5f521d50 f ctlcore.obj
 0001:00020d80       ??0IPersistStreamInit@@QAE@XZ 5f521d80 f ctlcore.obj
 0001:00020db0       ??0IPersistMemory@@QAE@XZ  5f521db0 f ctlcore.obj
 0001:00020de0       ??0IPersistPropertyBag@@QAE@XZ 5f521de0 f ctlcore.obj
 0001:00020e10       ??0IViewObjectEx@@QAE@XZ   5f521e10 f ctlcore.obj
 0001:00020e40       ??0IOleInPlaceObjectWindowless@@QAE@XZ 5f521e40 f ctlcore.obj
 0001:00020e70       ??0IOleCache@@QAE@XZ       5f521e70 f ctlcore.obj
 0001:00020ea0       ??0IOleControl@@QAE@XZ     5f521ea0 f ctlcore.obj
 0001:00020ed0       ??0IProvideClassInfo2@@QAE@XZ 5f521ed0 f ctlcore.obj
 0001:00020f00       ??0ISpecifyPropertyPages@@QAE@XZ 5f521f00 f ctlcore.obj
 0001:00020f30       ??0IPerPropertyBrowsing@@QAE@XZ 5f521f30 f ctlcore.obj
 0001:00020f60       ??0IQuickActivate@@QAE@XZ  5f521f60 f ctlcore.obj
 0001:00020f90       ??0IPointerInactive@@QAE@XZ 5f521f90 f ctlcore.obj
 0001:00020fc0       ??0IViewObject2@@QAE@XZ    5f521fc0 f ctlcore.obj
 0001:00020ff0       ??0IProvideClassInfo@@QAE@XZ 5f521ff0 f ctlcore.obj
 0001:00021020       ??0IViewObject@@QAE@XZ     5f522020 f ctlcore.obj
 0001:00021050       ??0XEventConnPt@COleControl@@QAE@XZ 5f522050 f ctlcore.obj
 0001:000210d0       ??0XPropConnPt@COleControl@@QAE@XZ 5f5220d0 f ctlcore.obj
 0001:00021150       ?GetIID@XPropConnPt@COleControl@@UAEABU_GUID@@XZ 5f522150 f ctlcore.obj
 0001:00021170       ??_EXEventConnPt@COleControl@@UAEPAXI@Z 5f522170 f ctlcore.obj
 0001:00021170       ??_GXEventConnPt@COleControl@@UAEPAXI@Z 5f522170 f ctlcore.obj
 0001:000211b0       ??_GXPropConnPt@COleControl@@UAEPAXI@Z 5f5221b0 f ctlcore.obj
 0001:000211b0       ??_EXPropConnPt@COleControl@@UAEPAXI@Z 5f5221b0 f ctlcore.obj
 0001:000211f0       ??1XEventConnPt@COleControl@@UAE@XZ 5f5221f0 f ctlcore.obj
 0001:00021250       ??1XPropConnPt@COleControl@@UAE@XZ 5f522250 f ctlcore.obj
 0001:000212b0       ?_AfxIsEqualGUID@@YAHABU_GUID@@0@Z 5f5222b0 f ctlcore.obj
 0001:00021320       ??C?$CThreadLocal@V_AFXCTL_AMBIENT_CACHE@@@@QAEPAV_AFXCTL_AMBIENT_CACHE@@XZ 5f522320 f ctlcore.obj
 0001:00021340       ?GetData@?$CThreadLocal@V_AFXCTL_AMBIENT_CACHE@@@@QAEPAV_AFXCTL_AMBIENT_CACHE@@XZ 5f522340 f ctlcore.obj
 0001:00021390       ?CreateObject@?$CThreadLocal@V_AFXCTL_AMBIENT_CACHE@@@@SGPAVCNoTrackObject@@XZ 5f522390 f ctlcore.obj
 0001:00021420       ??0CReflectorWnd@@QAE@XZ   5f522420 f ctlcore.obj
 0001:000214a0       ??_ECReflectorWnd@@UAEPAXI@Z 5f5224a0 f ctlcore.obj
 0001:000214a0       ??_GCReflectorWnd@@UAEPAXI@Z 5f5224a0 f ctlcore.obj
 0001:000214e0       ??1CReflectorWnd@@UAE@XZ   5f5224e0 f ctlcore.obj
 0001:00021540       ??0CParkingWnd@@QAE@XZ     5f522540 f ctlcore.obj
 0001:00021620       ??_ECParkingWnd@@UAEPAXI@Z 5f522620 f ctlcore.obj
 0001:00021620       ??_GCParkingWnd@@UAEPAXI@Z 5f522620 f ctlcore.obj
 0001:00021660       ??1CParkingWnd@@UAE@XZ     5f522660 f ctlcore.obj
 0001:000216e0       ?_GetBaseConnectionMap@COleControl@@KGPBUAFX_CONNECTIONMAP@@XZ 5f5226e0 f ctlconn.obj
 0001:000216f5       ?GetConnectionMap@COleControl@@MBEPBUAFX_CONNECTIONMAP@@XZ 5f5226f5 f ctlconn.obj
 0001:00021710       ?GetConnectionHook@COleControl@@MAEPAUIConnectionPoint@@ABU_GUID@@@Z 5f522710 f ctlconn.obj
 0001:00021764       ?GetExtraConnectionPoints@COleControl@@MAEHPAVCPtrArray@@@Z 5f522764 f ctlconn.obj
 0001:00021792       ?AddRef@XProvideClassInfo@COleControl@@UAGKXZ 5f522792 f ctlconn.obj
 0001:000217ba       ?Release@XProvideClassInfo@COleControl@@UAGKXZ 5f5227ba f ctlconn.obj
 0001:000217e2       ?QueryInterface@XProvideClassInfo@COleControl@@UAGJABU_GUID@@PAPAX@Z 5f5227e2 f ctlconn.obj
 0001:00021812       ?GetClassInfoW@XProvideClassInfo@COleControl@@UAGJPAPAUITypeInfo@@@Z 5f522812 f ctlconn.obj
 0001:000218b5       ?GetGUID@XProvideClassInfo@COleControl@@UAGJKPAU_GUID@@@Z 5f5228b5 f ctlconn.obj
 0001:0002192d       ?OnAdvise@XEventConnPt@COleControl@@UAEXH@Z 5f52292d f ctlconn.obj
 0001:000219b5       ?GetIID@XEventConnPt@COleControl@@UAEABU_GUID@@XZ 5f5229b5 f ctlconn.obj
 0001:000219f8       ?QuerySinkInterface@XEventConnPt@COleControl@@UAEPAUIUnknown@@PAU3@@Z 5f5229f8 f ctlconn.obj
 0001:00021a57       ?OnEventAdvise@COleControl@@UAEXH@Z 5f522a57 f ctlconn.obj
 0001:00021a6f       ?AfxConnectionAdvise@@YGHPAUIUnknown@@ABU_GUID@@0HPAK@Z 5f522a6f f ctlconn.obj
 0001:00021c34       ?AfxConnectionUnadvise@@YGHPAUIUnknown@@ABU_GUID@@0HK@Z 5f522c34 f ctlconn.obj
 0001:00021de0       ?_AfxRegisterClipFormat@@YGGABU_GUID@@@Z 5f522de0 f ctldata.obj
 0001:00021e73       ?_AfxGetClipboardFormatConvertVBX@@YGGXZ 5f522e73 f ctldata.obj
 0001:00021ece       ?_AfxGetClipboardFormatPersistPropset@@YGGXZ 5f522ece f ctldata.obj
 0001:00021f29       ?_AfxOleMatchPropsetClipFormat@@YGHGPAU_GUID@@@Z 5f522f29 f ctldata.obj
 0001:00021fbf       ?AddRef@XDataObject@COleControl@@UAGKXZ 5f522fbf f ctldata.obj
 0001:00021fe7       ?Release@XDataObject@COleControl@@UAGKXZ 5f522fe7 f ctldata.obj
 0001:0002200f       ?QueryInterface@XDataObject@COleControl@@UAGJABU_GUID@@PAPAX@Z 5f52300f f ctldata.obj
 0001:0002203f       ?GetData@XDataObject@COleControl@@UAGJPAUtagFORMATETC@@PAUtagSTGMEDIUM@@@Z 5f52303f f ctldata.obj
 0001:00022096       ?GetDataHere@XDataObject@COleControl@@UAGJPAUtagFORMATETC@@PAUtagSTGMEDIUM@@@Z 5f523096 f ctldata.obj
 0001:000220ed       ?QueryGetData@XDataObject@COleControl@@UAGJPAUtagFORMATETC@@@Z 5f5230ed f ctldata.obj
 0001:00022140       ?GetCanonicalFormatEtc@XDataObject@COleControl@@UAGJPAUtagFORMATETC@@0@Z 5f523140 f ctldata.obj
 0001:00022197       ?SetData@XDataObject@COleControl@@UAGJPAUtagFORMATETC@@PAUtagSTGMEDIUM@@H@Z 5f523197 f ctldata.obj
 0001:000221f2       ?EnumFormatEtc@XDataObject@COleControl@@UAGJKPAPAUIEnumFORMATETC@@@Z 5f5231f2 f ctldata.obj
 0001:00022249       ?DAdvise@XDataObject@COleControl@@UAGJPAUtagFORMATETC@@KPAUIAdviseSink@@PAK@Z 5f523249 f ctldata.obj
 0001:000222f7       ?DUnadvise@XDataObject@COleControl@@UAGJK@Z 5f5232f7 f ctldata.obj
 0001:00022375       ?EnumDAdvise@XDataObject@COleControl@@UAGJPAPAUIEnumSTATDATA@@@Z 5f523375 f ctldata.obj
 0001:000223fc       ??0CControlDataSource@COleControl@@QAE@PAV1@@Z 5f5233fc f ctldata.obj
 0001:00022480       ?OnRenderGlobalData@CControlDataSource@COleControl@@MAEHPAUtagFORMATETC@@PAPAX@Z 5f523480 f ctldata.obj
 0001:000224c7       ?OnRenderFileData@CControlDataSource@COleControl@@MAEHPAUtagFORMATETC@@PAVCFile@@@Z 5f5234c7 f ctldata.obj
 0001:0002250e       ?OnRenderData@CControlDataSource@COleControl@@MAEHPAUtagFORMATETC@@PAUtagSTGMEDIUM@@@Z 5f52350e f ctldata.obj
 0001:00022577       ?OnSetData@CControlDataSource@COleControl@@MAEHPAUtagFORMATETC@@PAUtagSTGMEDIUM@@H@Z 5f523577 f ctldata.obj
 0001:000225c2       ?OnRenderGlobalData@COleControl@@UAEHPAUtagFORMATETC@@PAPAX@Z 5f5235c2 f ctldata.obj
 0001:00022649       ?OnRenderFileData@COleControl@@UAEHPAUtagFORMATETC@@PAVCFile@@@Z 5f523649 f ctldata.obj
 0001:000226b6       ?OnRenderData@COleControl@@UAEHPAUtagFORMATETC@@PAUtagSTGMEDIUM@@@Z 5f5236b6 f ctldata.obj
 0001:000227a8       ?OnSetData@COleControl@@UAEHPAUtagFORMATETC@@PAUtagSTGMEDIUM@@H@Z 5f5237a8 f ctldata.obj
 0001:00022884       ?GetDataSource@COleControl@@IAEPAVCControlDataSource@1@XZ 5f523884 f ctldata.obj
 0001:000229ac       ?SetInitialDataFormats@COleControl@@MAEXXZ 5f5239ac f ctldata.obj
 0001:00022a70       ??_GCControlDataSource@COleControl@@UAEPAXI@Z 5f523a70 f ctldata.obj
 0001:00022a70       ??_ECControlDataSource@COleControl@@UAEPAXI@Z 5f523a70 f ctldata.obj
 0001:00022ab0       ??1CControlDataSource@COleControl@@UAE@XZ 5f523ab0 f ctldata.obj
 0001:00022b10       ?InitStockEventMask@COleControl@@IAEXXZ 5f523b10 f ctlevent.obj
 0001:00022c2a       ?GetEventMap@COleControl@@MBEPBUAFX_EVENTMAP@@XZ 5f523c2a f ctlevent.obj
 0001:00022c45       ?GetEventMapEntry@COleControl@@IBEPBUAFX_EVENTMAP_ENTRY@@PBGPAJ@Z 5f523c45 f ctlevent.obj
 0001:00022d54       ?FireEventV@COleControl@@IAEXJPAEPAD@Z 5f523d54 f ctlevent.obj
 0001:00022e91       ?FireEvent@COleControl@@QAAXJPAEZZ 5f523e91 f ctlevent.obj
 0001:00022ec5       ?_AfxShiftState@@YGFXZ     5f523ec5 f ctlevent.obj
 0001:00022f58       ?OnSysKeyDown@COleControl@@IAEXIII@Z 5f523f58 f ctlevent.obj
 0001:00022fdb       ?OnSysKeyUp@COleControl@@IAEXIII@Z 5f523fdb f ctlevent.obj
 0001:0002305e       ?OnKeyDown@COleControl@@IAEXIII@Z 5f52405e f ctlevent.obj
 0001:000230e1       ?OnKeyUp@COleControl@@IAEXIII@Z 5f5240e1 f ctlevent.obj
 0001:00023164       ?KeyUp@COleControl@@IAEXPAG@Z 5f524164 f ctlevent.obj
 0001:000231ce       ?KeyDown@COleControl@@IAEXPAG@Z 5f5241ce f ctlevent.obj
 0001:00023238       ?OnGetDlgCode@COleControl@@IAEIXZ 5f524238 f ctlevent.obj
 0001:0002329b       ?OnChar@COleControl@@IAEXIII@Z 5f52429b f ctlevent.obj
 0001:00023659       ?OnKeyPressEvent@COleControl@@UAEXG@Z 5f524659 f ctlevent.obj
 0001:00023671       ?OnKeyDownEvent@COleControl@@UAEXGG@Z 5f524671 f ctlevent.obj
 0001:00023689       ?OnKeyUpEvent@COleControl@@UAEXGG@Z 5f524689 f ctlevent.obj
 0001:000236a1       ?ButtonDown@COleControl@@IAEXGIVCPoint@@@Z 5f5246a1 f ctlevent.obj
 0001:0002378f       ?ButtonUp@COleControl@@IAEXGIVCPoint@@@Z 5f52478f f ctlevent.obj
 0001:000238e2       ?ButtonDblClk@COleControl@@IAEXGIVCPoint@@@Z 5f5248e2 f ctlevent.obj
 0001:00023994       ?OnMouseMove@COleControl@@IAEXIVCPoint@@@Z 5f524994 f ctlevent.obj
 0001:00023a13       ?OnLButtonDown@COleControl@@IAEXIVCPoint@@@Z 5f524a13 f ctlevent.obj
 0001:00023a7a       ?OnLButtonUp@COleControl@@IAEXIVCPoint@@@Z 5f524a7a f ctlevent.obj
 0001:00023b5e       ?OnLButtonDblClk@COleControl@@IAEXIVCPoint@@@Z 5f524b5e f ctlevent.obj
 0001:00023bbd       ?OnMButtonDown@COleControl@@IAEXIVCPoint@@@Z 5f524bbd f ctlevent.obj
 0001:00023c1c       ?OnMButtonUp@COleControl@@IAEXIVCPoint@@@Z 5f524c1c f ctlevent.obj
 0001:00023d00       ?OnMButtonDblClk@COleControl@@IAEXIVCPoint@@@Z 5f524d00 f ctlevent.obj
 0001:00023d5f       ?OnRButtonDown@COleControl@@IAEXIVCPoint@@@Z 5f524d5f f ctlevent.obj
 0001:00023dbe       ?OnRButtonUp@COleControl@@IAEXIVCPoint@@@Z 5f524dbe f ctlevent.obj
 0001:00023ea2       ?OnRButtonDblClk@COleControl@@IAEXIVCPoint@@@Z 5f524ea2 f ctlevent.obj
 0001:00023f01       ?OnCancelMode@COleControl@@IAEXXZ 5f524f01 f ctlevent.obj
 0001:00023f66       ?OnClick@COleControl@@UAEXG@Z 5f524f66 f ctlevent.obj
 0001:00023f96       ?FireError@COleControl@@QAEXJPBGI@Z 5f524f96 f ctlevent.obj
 0001:00024093       ?DisplayError@COleControl@@UAEXJPBG00I@Z 5f525093 f ctlevent.obj
 0001:000240c0       ?_GetBaseMessageMap@CControlFrameWnd@@KGPBUAFX_MSGMAP@@XZ 5f5250c0 f ctlframe.obj
 0001:000240d5       ?GetMessageMap@CControlFrameWnd@@MBEPBUAFX_MSGMAP@@XZ 5f5250d5 f ctlframe.obj
 0001:000240f0       ??0CControlFrameWnd@@QAE@PAVCOleControl@@@Z 5f5250f0 f ctlframe.obj
 0001:0002416a       ?PreCreateWindow@CControlFrameWnd@@UAEHAAUtagCREATESTRUCTW@@@Z 5f52516a f ctlframe.obj
 0001:000241d6       ?Create@CControlFrameWnd@@UAEHPBG@Z 5f5251d6 f ctlframe.obj
 0001:00024243       ?OnClose@CControlFrameWnd@@IAEXXZ 5f525243 f ctlframe.obj
 0001:00024278       ?PostNcDestroy@CControlFrameWnd@@MAEXXZ 5f525278 f ctlframe.obj
 0001:000242b6       ?OnActivate@CControlFrameWnd@@IAEXIPAVCWnd@@H@Z 5f5252b6 f ctlframe.obj
 0001:000242f0       ??_GCControlFrameWnd@@UAEPAXI@Z 5f5252f0 f ctlframe.obj
 0001:000242f0       ??_ECControlFrameWnd@@UAEPAXI@Z 5f5252f0 f ctlframe.obj
 0001:00024330       ??1CControlFrameWnd@@UAE@XZ 5f525330 f ctlframe.obj
 0001:00024390       ??0CFontHolder@@QAE@PAUIPropertyNotifySink@@@Z 5f525390 f ctlfont.obj
 0001:000243fb       ??1CFontHolder@@QAE@XZ     5f5253fb f ctlfont.obj
 0001:00024419       ?ReleaseFont@CFontHolder@@QAEXXZ 5f525419 f ctlfont.obj
 0001:0002448d       ?InitializeFont@CFontHolder@@QAEXPBUtagFONTDESC@@PAUIDispatch@@@Z 5f52548d f ctlfont.obj
 0001:0002460a       ?_AfxIsSameFont@@YGHAAVCFontHolder@@PBUtagFONTDESC@@PAUIFontDisp@@@Z 5f52560a f ctlfont.obj
 0001:00024926       ?GetFontHandle@CFontHolder@@QAEPAUHFONT__@@XZ 5f525926 f ctlfont.obj
 0001:00024952       ?GetFontHandle@CFontHolder@@QAEPAUHFONT__@@JJ@Z 5f525952 f ctlfont.obj
 0001:000249de       ?Select@CFontHolder@@QAEPAVCFont@@PAVCDC@@JJ@Z 5f5259de f ctlfont.obj
 0001:00024aab       ?QueryTextMetrics@CFontHolder@@QAEXPAUtagTEXTMETRICW@@@Z 5f525aab f ctlfont.obj
 0001:00024b1a       ?GetFontDispatch@CFontHolder@@QAEPAUIFontDisp@@XZ 5f525b1a f ctlfont.obj
 0001:00024b9d       ?SetFont@CFontHolder@@QAEXPAUIFont@@@Z 5f525b9d f ctlfont.obj
 0001:00024c35       ?GetDisplayString@CFontHolder@@QAEHAAVCString@@@Z 5f525c35 f ctlfont.obj
 0001:00024c60       ??0_AFXCTL_UIACTIVE_INFO@@QAE@PAUHMENU__@@PAUIOleInPlaceFrame@@@Z 5f525c60 f ctlinplc.obj
 0001:00024da1       ??1_AFXCTL_UIACTIVE_INFO@@QAE@XZ 5f525da1 f ctlinplc.obj
 0001:00024e08       ?_GetClippingCoordinates@@YGXPBUtagRECT@@0PAU1@PAUtagPOINT@@@Z 5f525e08 f ctlinplc.obj
 0001:00024ea9       ?OnActivateInPlace@COleControl@@MAEJHPAUtagMSG@@@Z 5f525ea9 f ctlinplc.obj
 0001:00025636       ?ForwardActivationMsg@COleControl@@IAEXPAUtagMSG@@@Z 5f526636 f ctlinplc.obj
 0001:0002577c       ?OnGetInPlaceMenu@COleControl@@UAEPAUHMENU__@@XZ 5f52677c f ctlinplc.obj
 0001:00025794       ?BuildSharedMenu@COleControl@@MAEHXZ 5f526794 f ctlinplc.obj
 0001:0002591f       ?DestroySharedMenu@COleControl@@MAEXXZ 5f52691f f ctlinplc.obj
 0001:00025a64       ?AddFrameLevelUI@COleControl@@MAEXXZ 5f526a64 f ctlinplc.obj
 0001:00025afe       ?RemoveFrameLevelUI@COleControl@@MAEXXZ 5f526afe f ctlinplc.obj
 0001:00025bdf       ?OnShowToolBars@COleControl@@UAEXXZ 5f526bdf f ctlinplc.obj
 0001:00025c0f       ?OnHideToolBars@COleControl@@UAEXXZ 5f526c0f f ctlinplc.obj
 0001:00025c25       ?AddRef@XOleInPlaceObject@COleControl@@UAGKXZ 5f526c25 f ctlinplc.obj
 0001:00025c4d       ?Release@XOleInPlaceObject@COleControl@@UAGKXZ 5f526c4d f ctlinplc.obj
 0001:00025c75       ?QueryInterface@XOleInPlaceObject@COleControl@@UAGJABU_GUID@@PAPAX@Z 5f526c75 f ctlinplc.obj
 0001:00025ca5       ?GetWindow@XOleInPlaceObject@COleControl@@UAGJPAPAUHWND__@@@Z 5f526ca5 f ctlinplc.obj
 0001:00025d0f       ?ContextSensitiveHelp@XOleInPlaceObject@COleControl@@UAGJH@Z 5f526d0f f ctlinplc.obj
 0001:00025d26       ?InPlaceDeactivate@XOleInPlaceObject@COleControl@@UAGJXZ 5f526d26 f ctlinplc.obj
 0001:00025e99       ?UIDeactivate@XOleInPlaceObject@COleControl@@UAGJXZ 5f526e99 f ctlinplc.obj
 0001:00025fd9       ?SetObjectRects@XOleInPlaceObject@COleControl@@UAGJPBUtagRECT@@0@Z 5f526fd9 f ctlinplc.obj
 0001:00026081       ?OnSetObjectRects@COleControl@@UAEHPBUtagRECT@@0@Z 5f527081 f ctlinplc.obj
 0001:00026250       ?ReactivateAndUndo@XOleInPlaceObject@COleControl@@UAGJXZ 5f527250 f ctlinplc.obj
 0001:00026267       ?AddRef@XOleInPlaceActiveObject@COleControl@@UAGKXZ 5f527267 f ctlinplc.obj
 0001:0002628f       ?Release@XOleInPlaceActiveObject@COleControl@@UAGKXZ 5f52728f f ctlinplc.obj
 0001:000262b7       ?QueryInterface@XOleInPlaceActiveObject@COleControl@@UAGJABU_GUID@@PAPAX@Z 5f5272b7 f ctlinplc.obj
 0001:000262e7       ?GetWindow@XOleInPlaceActiveObject@COleControl@@UAGJPAPAUHWND__@@@Z 5f5272e7 f ctlinplc.obj
 0001:00026320       ?ContextSensitiveHelp@XOleInPlaceActiveObject@COleControl@@UAGJH@Z 5f527320 f ctlinplc.obj
 0001:00026337       ?TranslateAcceleratorW@XOleInPlaceActiveObject@COleControl@@UAGJPAUtagMSG@@@Z 5f527337 f ctlinplc.obj
 0001:00026428       ?OnFrameWindowActivate@XOleInPlaceActiveObject@COleControl@@UAGJH@Z 5f527428 f ctlinplc.obj
 0001:0002643c       ?OnDocWindowActivate@XOleInPlaceActiveObject@COleControl@@UAGJH@Z 5f52743c f ctlinplc.obj
 0001:000264f9       ?ResizeBorder@XOleInPlaceActiveObject@COleControl@@UAGJPBUtagRECT@@PAUIOleInPlaceUIWindow@@H@Z 5f5274f9 f ctlinplc.obj
 0001:0002650d       ?EnableModeless@XOleInPlaceActiveObject@COleControl@@UAGJH@Z 5f52750d f ctlinplc.obj
 0001:00026530       ??_G_AFXCTL_UIACTIVE_INFO@@QAEPAXI@Z 5f527530 f ctlinplc.obj
 0001:00026570       ?AfxVerifyLicFile@@YGHPAUHINSTANCE__@@PBG1I@Z 5f527570 f ctllic.obj
 0001:00026760       ?wcsrchr@@YAPAGPAGG@Z      5f527760 f ctllic.obj
 0001:00026790       ??0CConnectionPoint@@QAE@XZ 5f527790 f oleconn.obj
 0001:0002681e       ??1CConnectionPoint@@UAE@XZ 5f52781e f oleconn.obj
 0001:00026912       ?GetStartPosition@CConnectionPoint@@QBEPAU__POSITION@@XZ 5f527912 f oleconn.obj
 0001:0002699a       ?GetNextConnection@CConnectionPoint@@QBEPAUIUnknown@@AAPAU__POSITION@@@Z 5f52799a f oleconn.obj
 0001:00026ad2       ?GetConnections@CConnectionPoint@@QAEPBVCPtrArray@@XZ 5f527ad2 f oleconn.obj
 0001:00026b35       ?OnAdvise@CConnectionPoint@@UAEXH@Z 5f527b35 f oleconn.obj
 0001:00026b5d       ?GetMaxConnections@CConnectionPoint@@UAEHXZ 5f527b5d f oleconn.obj
 0001:00026b88       ?GetContainer@CConnectionPoint@@UAEPAUIConnectionPointContainer@@XZ 5f527b88 f oleconn.obj
 0001:00026bf4       ?CreateConnectionArray@CConnectionPoint@@QAEXXZ 5f527bf4 f oleconn.obj
 0001:00026cdd       ?GetConnectionCount@CConnectionPoint@@QAEHXZ 5f527cdd f oleconn.obj
 0001:00026d29       ?QuerySinkInterface@CConnectionPoint@@UAEPAUIUnknown@@PAU2@@Z 5f527d29 f oleconn.obj
 0001:00026d66       ?Release@XConnPt@CConnectionPoint@@UAGKXZ 5f527d66 f oleconn.obj
 0001:00026d8c       ?AddRef@XConnPt@CConnectionPoint@@UAGKXZ 5f527d8c f oleconn.obj
 0001:00026db2       ?QueryInterface@XConnPt@CConnectionPoint@@UAGJABU_GUID@@PAPAX@Z 5f527db2 f oleconn.obj
 0001:00026e4f       ?GetConnectionInterface@XConnPt@CConnectionPoint@@UAGJPAU_GUID@@@Z 5f527e4f f oleconn.obj
 0001:00026ec0       ?GetConnectionPointContainer@XConnPt@CConnectionPoint@@UAGJPAPAUIConnectionPointContainer@@@Z 5f527ec0 f oleconn.obj
 0001:00026f33       ?Advise@XConnPt@CConnectionPoint@@UAGJPAUIUnknown@@PAK@Z 5f527f33 f oleconn.obj
 0001:0002708f       ?Unadvise@XConnPt@CConnectionPoint@@UAGJK@Z 5f52808f f oleconn.obj
 0001:000271a1       ?EnumConnections@XConnPt@CConnectionPoint@@UAGJPAPAUIEnumConnections@@@Z 5f5281a1 f oleconn.obj
 0001:000271b8       ?_GetBaseInterfaceMap@CEnumConnPoints@@KGPBUAFX_INTERFACEMAP@@XZ 5f5281b8 f oleconn.obj
 0001:000271cd       ?GetInterfaceMap@CEnumConnPoints@@MBEPBUAFX_INTERFACEMAP@@XZ 5f5281cd f oleconn.obj
 0001:000271e8       ??0CEnumConnPoints@@QAE@PBXI@Z 5f5281e8 f oleconn.obj
 0001:0002726f       ??1CEnumConnPoints@@UAE@XZ 5f52826f f oleconn.obj
 0001:00027345       ?OnNext@CEnumConnPoints@@MAEHPAX@Z 5f528345 f oleconn.obj
 0001:0002738d       ?AddConnPoint@CEnumConnPoints@@QAEXPAUIConnectionPoint@@@Z 5f52838d f oleconn.obj
 0001:000274a7       ?AddRef@COleConnPtContainer@@UAGKXZ 5f5284a7 f oleconn.obj
 0001:000274cd       ?Release@COleConnPtContainer@@UAGKXZ 5f5284cd f oleconn.obj
 0001:000274f3       ?QueryInterface@COleConnPtContainer@@UAGJABU_GUID@@PAPAX@Z 5f5284f3 f oleconn.obj
 0001:00027521       ?EnumConnectionPoints@COleConnPtContainer@@UAGJPAPAUIEnumConnectionPoints@@@Z 5f528521 f oleconn.obj
 0001:00027724       ?FindConnectionPoint@COleConnPtContainer@@UAGJABU_GUID@@PAPAUIConnectionPoint@@@Z 5f528724 f oleconn.obj
 0001:00027825       ?EnableConnections@CCmdTarget@@QAEXXZ 5f528825 f oleconn.obj
 0001:000278c0       ??_GCConnectionPoint@@UAEPAXI@Z 5f5288c0 f oleconn.obj
 0001:000278c0       ??_ECConnectionPoint@@UAEPAXI@Z 5f5288c0 f oleconn.obj
 0001:00027900       ??0XConnPt@CConnectionPoint@@QAE@XZ 5f528900 f oleconn.obj
 0001:00027930       ??0IConnectionPoint@@QAE@XZ 5f528930 f oleconn.obj
 0001:00027960       ??_ECEnumConnPoints@@UAEPAXI@Z 5f528960 f oleconn.obj
 0001:00027960       ??_GCEnumConnPoints@@UAEPAXI@Z 5f528960 f oleconn.obj
 0001:000279a0       ??0COleConnPtContainer@@QAE@XZ 5f5289a0 f oleconn.obj
 0001:000279d0       ??4COleConnPtContainer@@QAEAAV0@ABV0@@Z 5f5289d0 f oleconn.obj
 0001:00027a00       ??0IConnectionPointContainer@@QAE@XZ 5f528a00 f oleconn.obj
 0001:00027a30       ??4IConnectionPointContainer@@QAEAAU0@ABU0@@Z 5f528a30 f oleconn.obj
 0001:00027a60       ?AddRef@XOleObject@COleControl@@UAGKXZ 5f528a60 f ctlobj.obj
 0001:00027a88       ?Release@XOleObject@COleControl@@UAGKXZ 5f528a88 f ctlobj.obj
 0001:00027ab0       ?QueryInterface@XOleObject@COleControl@@UAGJABU_GUID@@PAPAX@Z 5f528ab0 f ctlobj.obj
 0001:00027ae0       ?SetClientSite@XOleObject@COleControl@@UAGJPAUIOleClientSite@@@Z 5f528ae0 f ctlobj.obj
 0001:00027dff       ?GetClientSite@XOleObject@COleControl@@UAGJPAPAUIOleClientSite@@@Z 5f528dff f ctlobj.obj
 0001:00027e93       ?SetHostNames@XOleObject@COleControl@@UAGJPBG0@Z 5f528e93 f ctlobj.obj
 0001:00027ea7       ?Close@XOleObject@COleControl@@UAGJK@Z 5f528ea7 f ctlobj.obj
 0001:00027f37       ?OnClose@COleControl@@UAEXK@Z 5f528f37 f ctlobj.obj
 0001:00027fb4       ?SetMoniker@XOleObject@COleControl@@UAGJKPAUIMoniker@@@Z 5f528fb4 f ctlobj.obj
 0001:00027fcb       ?GetMoniker@XOleObject@COleControl@@UAGJKKPAPAUIMoniker@@@Z 5f528fcb f ctlobj.obj
 0001:00027fe2       ?InitFromData@XOleObject@COleControl@@UAGJPAUIDataObject@@HK@Z 5f528fe2 f ctlobj.obj
 0001:00027ff9       ?GetClipboardData@XOleObject@COleControl@@UAGJKPAPAUIDataObject@@@Z 5f528ff9 f ctlobj.obj
 0001:00028010       ?DoVerb@XOleObject@COleControl@@UAGJJPAUtagMSG@@PAUIOleClientSite@@JPAUHWND__@@PBUtagRECT@@@Z 5f529010 f ctlobj.obj
 0001:00028377       ?OnDoVerb@COleControl@@UAEHJPAUtagMSG@@PAUHWND__@@PBUtagRECT@@@Z 5f529377 f ctlobj.obj
 0001:000283a7       ?EnumVerbs@XOleObject@COleControl@@UAGJPAPAUIEnumOLEVERB@@@Z 5f5293a7 f ctlobj.obj
 0001:0002844b       ?OnEnumVerbs@COleControl@@UAEHPAPAUIEnumOLEVERB@@@Z 5f52944b f ctlobj.obj
 0001:0002846f       ?Update@XOleObject@COleControl@@UAGJXZ 5f52946f f ctlobj.obj
 0001:00028483       ?IsUpToDate@XOleObject@COleControl@@UAGJXZ 5f529483 f ctlobj.obj
 0001:00028497       ?GetUserClassID@XOleObject@COleControl@@UAGJPAU_GUID@@@Z 5f529497 f ctlobj.obj
 0001:000284c9       ?GetUserType@XOleObject@COleControl@@UAGJKPAPAG@Z 5f5294c9 f ctlobj.obj
 0001:000285b0       ?GetUserType@COleControl@@IAEXPAG@Z 5f5295b0 f ctlobj.obj
 0001:0002868c       ?SetExtent@XOleObject@COleControl@@UAGJKPAUtagSIZE@@@Z 5f52968c f ctlobj.obj
 0001:000286eb       ?OnSetExtent@COleControl@@UAEHPAUtagSIZE@@@Z 5f5296eb f ctlobj.obj
 0001:0002886d       ?GetExtent@XOleObject@COleControl@@UAGJKPAUtagSIZE@@@Z 5f52986d f ctlobj.obj
 0001:000288c0       ?Advise@XOleObject@COleControl@@UAGJPAUIAdviseSink@@PAK@Z 5f5298c0 f ctlobj.obj
 0001:00028934       ?Unadvise@XOleObject@COleControl@@UAGJK@Z 5f529934 f ctlobj.obj
 0001:0002898a       ?EnumAdvise@XOleObject@COleControl@@UAGJPAPAUIEnumSTATDATA@@@Z 5f52998a f ctlobj.obj
 0001:000289e0       ?GetMiscStatus@XOleObject@COleControl@@UAGJKPAK@Z 5f5299e0 f ctlobj.obj
 0001:00028a64       ?SetColorScheme@XOleObject@COleControl@@UAGJPAUtagLOGPALETTE@@@Z 5f529a64 f ctlobj.obj
 0001:00028a80       ??0CPictureHolder@@QAE@XZ  5f529a80 f ctlpict.obj
 0001:00028aa2       ??1CPictureHolder@@QAE@XZ  5f529aa2 f ctlpict.obj
 0001:00028add       ?CreateEmpty@CPictureHolder@@QAEHXZ 5f529add f ctlpict.obj
 0001:00028b4e       ?CreateFromBitmap@CPictureHolder@@QAEHI@Z 5f529b4e f ctlpict.obj
 0001:00028bda       ?CreateFromBitmap@CPictureHolder@@QAEHPAVCBitmap@@PAVCPalette@@H@Z 5f529bda f ctlpict.obj
 0001:00028c4a       ?CreateFromBitmap@CPictureHolder@@QAEHPAUHBITMAP__@@PAUHPALETTE__@@H@Z 5f529c4a f ctlpict.obj
 0001:00028ccb       ?CreateFromMetafile@CPictureHolder@@QAEHPAUHMETAFILE__@@HHH@Z 5f529ccb f ctlpict.obj
 0001:00028d52       ?CreateFromIcon@CPictureHolder@@QAEHI@Z 5f529d52 f ctlpict.obj
 0001:00028d8b       ?CreateFromIcon@CPictureHolder@@QAEHPAUHICON__@@H@Z 5f529d8b f ctlpict.obj
 0001:00028e06       ?GetPictureDispatch@CPictureHolder@@QAEPAUIPictureDisp@@XZ 5f529e06 f ctlpict.obj
 0001:00028e71       ?SetPictureDispatch@CPictureHolder@@QAEXPAUIPictureDisp@@@Z 5f529e71 f ctlpict.obj
 0001:00028f0a       ?Render@CPictureHolder@@QAEXPAVCDC@@ABVCRect@@1@Z 5f529f0a f ctlpict.obj
 0001:00028fa6       ?GetType@CPictureHolder@@QAEFXZ 5f529fa6 f ctlpict.obj
 0001:00028fe6       ?GetDisplayString@CPictureHolder@@QAEHAAVCString@@@Z 5f529fe6 f ctlpict.obj
 0001:00029140       ?_AfxGetArchiveStream@@YGPAUIStream@@AAVCArchive@@AAVCArchiveStream@@@Z 5f52a140 f ctlpropx.obj
 0001:0002920c       ?_AfxInitBlob@@YGHPAPAXPAX@Z 5f52a20c f ctlpropx.obj
 0001:000292e4       ?_AfxCopyBlob@@YGHPAPAXPAX@Z 5f52a2e4 f ctlpropx.obj
 0001:00029334       ?_AfxCopyPropValue@@YGHGPAXPBX@Z 5f52a334 f ctlpropx.obj
 0001:000294c4       ?ExchangeExtent@COleControl@@QAEHPAVCPropExchange@@@Z 5f52a4c4 f ctlpropx.obj
 0001:00029589       ?SerializeVersion@COleControl@@QAEKAAVCArchive@@KH@Z 5f52a589 f ctlpropx.obj
 0001:000295fb       ?ResetVersion@COleControl@@QAEXK@Z 5f52a5fb f ctlpropx.obj
 0001:0002961c       ?SerializeExtent@COleControl@@QAEXAAVCArchive@@@Z 5f52a61c f ctlpropx.obj
 0001:000296c4       ?ExchangeVersion@CPropExchange@@UAEHAAKKH@Z 5f52a6c4 f ctlpropx.obj
 0001:00029759       ??0CArchivePropExchange@@QAE@AAVCArchive@@@Z 5f52a759 f ctlpropx.obj
 0001:000297d6       ?ExchangeProp@CArchivePropExchange@@UAEHPBGGPAXPBX@Z 5f52a7d6 f ctlpropx.obj
 0001:00029ad8       ?ExchangeBlobProp@CArchivePropExchange@@UAEHPBGPAPAXPAX@Z 5f52aad8 f ctlpropx.obj
 0001:00029cd1       ?_AfxPeekAtClassIDInStream@@YGHPAUIStream@@PAU_GUID@@@Z 5f52acd1 f ctlpropx.obj
 0001:00029d36       ?_AfxIsSameUnknownObject@@YGHABU_GUID@@PAUIUnknown@@1@Z 5f52ad36 f ctlpropx.obj
 0001:00029e6f       ?ExchangePersistentProp@CArchivePropExchange@@UAEHPBGPAPAUIUnknown@@ABU_GUID@@PAU2@@Z 5f52ae6f f ctlpropx.obj
 0001:0002a39f       ?ExchangeFontProp@CArchivePropExchange@@UAEHPBGAAVCFontHolder@@PBUtagFONTDESC@@PAUIFontDisp@@@Z 5f52b39f f ctlpropx.obj
 0001:0002a63c       ??0CResetPropExchange@@QAE@XZ 5f52b63c f ctlpropx.obj
 0001:0002a670       ?ExchangeProp@CResetPropExchange@@UAEHPBGGPAXPBX@Z 5f52b670 f ctlpropx.obj
 0001:0002a728       ?ExchangeBlobProp@CResetPropExchange@@UAEHPBGPAPAXPAX@Z 5f52b728 f ctlpropx.obj
 0001:0002a7e7       ?ExchangePersistentProp@CResetPropExchange@@UAEHPBGPAPAUIUnknown@@ABU_GUID@@PAU2@@Z 5f52b7e7 f ctlpropx.obj
 0001:0002a8ff       ?ExchangeFontProp@CResetPropExchange@@UAEHPBGAAVCFontHolder@@PBUtagFONTDESC@@PAUIFontDisp@@@Z 5f52b8ff f ctlpropx.obj
 0001:0002a9fc       ??0CAsyncPropExchange@@QAE@K@Z 5f52b9fc f ctlpropx.obj
 0001:0002aa45       ?ExchangeVersion@CAsyncPropExchange@@UAEHAAKKH@Z 5f52ba45 f ctlpropx.obj
 0001:0002aabc       ?ExchangeProp@CAsyncPropExchange@@UAEHPBGGPAXPBX@Z 5f52babc f ctlpropx.obj
 0001:0002aaee       ?ExchangeBlobProp@CAsyncPropExchange@@UAEHPBGPAPAXPAX@Z 5f52baee f ctlpropx.obj
 0001:0002ab20       ?ExchangeFontProp@CAsyncPropExchange@@UAEHPBGAAVCFontHolder@@PBUtagFONTDESC@@PAUIFontDisp@@@Z 5f52bb20 f ctlpropx.obj
 0001:0002ab52       ?ExchangePersistentProp@CAsyncPropExchange@@UAEHPBGPAPAUIUnknown@@ABU_GUID@@PAU2@@Z 5f52bb52 f ctlpropx.obj
 0001:0002ab84       ?PX_Short@@YAHPAVCPropExchange@@PBGAAF@Z 5f52bb84 f ctlpropx.obj
 0001:0002ac5e       ?PX_Short@@YAHPAVCPropExchange@@PBGAAFF@Z 5f52bc5e f ctlpropx.obj
 0001:0002ad3a       ?PX_UShort@@YAHPAVCPropExchange@@PBGAAG@Z 5f52bd3a f ctlpropx.obj
 0001:0002ae14       ?PX_UShort@@YAHPAVCPropExchange@@PBGAAGG@Z 5f52be14 f ctlpropx.obj
 0001:0002aef0       ?PX_Long@@YAHPAVCPropExchange@@PBGAAJ@Z 5f52bef0 f ctlpropx.obj
 0001:0002afca       ?PX_Long@@YAHPAVCPropExchange@@PBGAAJJ@Z 5f52bfca f ctlpropx.obj
 0001:0002b0a6       ?PX_ULong@@YAHPAVCPropExchange@@PBGAAK@Z 5f52c0a6 f ctlpropx.obj
 0001:0002b180       ?PX_ULong@@YAHPAVCPropExchange@@PBGAAKK@Z 5f52c180 f ctlpropx.obj
 0001:0002b25c       ?PX_Color@@YAHPAVCPropExchange@@PBGAAK@Z 5f52c25c f ctlpropx.obj
 0001:0002b336       ?PX_Color@@YAHPAVCPropExchange@@PBGAAKK@Z 5f52c336 f ctlpropx.obj
 0001:0002b412       ?PX_Bool@@YAHPAVCPropExchange@@PBGAAH@Z 5f52c412 f ctlpropx.obj
 0001:0002b4ec       ?PX_Bool@@YAHPAVCPropExchange@@PBGAAHH@Z 5f52c4ec f ctlpropx.obj
 0001:0002b5c8       ?PX_String@@YAHPAVCPropExchange@@PBGAAVCString@@@Z 5f52c5c8 f ctlpropx.obj
 0001:0002b6a2       ?PX_String@@YAHPAVCPropExchange@@PBGAAVCString@@ABV2@@Z 5f52c6a2 f ctlpropx.obj
 0001:0002b77e       ?PX_String@@YAHPAVCPropExchange@@PBGAAVCString@@1@Z 5f52c77e f ctlpropx.obj
 0001:0002b85a       ?PX_Currency@@YAHPAVCPropExchange@@PBGAATtagCY@@@Z 5f52c85a f ctlpropx.obj
 0001:0002b934       ?PX_Currency@@YAHPAVCPropExchange@@PBGAATtagCY@@T2@@Z 5f52c934 f ctlpropx.obj
 0001:0002ba10       ?PX_Float@@YAHPAVCPropExchange@@PBGAAM@Z 5f52ca10 f ctlpropx.obj
 0001:0002baea       ?PX_Float@@YAHPAVCPropExchange@@PBGAAMM@Z 5f52caea f ctlpropx.obj
 0001:0002bbc6       ?PX_Double@@YAHPAVCPropExchange@@PBGAAN@Z 5f52cbc6 f ctlpropx.obj
 0001:0002bca0       ?PX_Double@@YAHPAVCPropExchange@@PBGAANN@Z 5f52cca0 f ctlpropx.obj
 0001:0002bd7c       ?PX_Blob@@YAHPAVCPropExchange@@PBGAAPAXPAX@Z 5f52cd7c f ctlpropx.obj
 0001:0002be56       ?PX_Font@@YAHPAVCPropExchange@@PBGAAVCFontHolder@@PBUtagFONTDESC@@PAUIFontDisp@@@Z 5f52ce56 f ctlpropx.obj
 0001:0002bfa2       ?PX_IUnknown@@YAHPAVCPropExchange@@PBGAAPAUIUnknown@@ABU_GUID@@PAU2@@Z 5f52cfa2 f ctlpropx.obj
 0001:0002c0f2       ?PX_Picture@@YAHPAVCPropExchange@@PBGAAVCPictureHolder@@@Z 5f52d0f2 f ctlpropx.obj
 0001:0002c1d9       ?PX_Picture@@YAHPAVCPropExchange@@PBGAAVCPictureHolder@@2@Z 5f52d1d9 f ctlpropx.obj
 0001:0002c2c4       ?PX_VBXFontConvert@@YAHPAVCPropExchange@@AAVCFontHolder@@@Z 5f52d2c4 f ctlpropx.obj
 0001:0002c513       ?PX_DataPath@@YAHPAVCPropExchange@@PBGAAVCDataPathProperty@@1@Z 5f52d513 f ctlpropx.obj
 0001:0002c7c5       ?PX_DataPath@@YAHPAVCPropExchange@@PBGAAVCDataPathProperty@@ABVCString@@@Z 5f52d7c5 f ctlpropx.obj
 0001:0002c800       ?_GetBaseInterfaceMap@COlePropertyPage@@KGPBUAFX_INTERFACEMAP@@XZ 5f52d800 f ctlppg.obj
 0001:0002c815       ?GetInterfaceMap@COlePropertyPage@@MBEPBUAFX_INTERFACEMAP@@XZ 5f52d815 f ctlppg.obj
 0001:0002c830       ?_GetBaseMessageMap@COlePropertyPage@@KGPBUAFX_MSGMAP@@XZ 5f52d830 f ctlppg.obj
 0001:0002c845       ?GetMessageMap@COlePropertyPage@@MBEPBUAFX_MSGMAP@@XZ 5f52d845 f ctlppg.obj
 0001:0002c860       ??0AFX_DDPDATA@@QAE@PAXHH0IPBG@Z 5f52d860 f ctlppg.obj
 0001:0002c907       ?_ValidatePageDialog@@YAXAAVCDialogTemplate@@AAVCString@@PAVCOlePropertyPage@@@Z 5f52d907 f ctlppg.obj
 0001:0002cbc0       ??0COlePropertyPage@@QAE@II@Z 5f52dbc0 f ctlppg.obj
 0001:0002cdab       ?OnSetPageSite@COlePropertyPage@@UAEXXZ 5f52ddab f ctlppg.obj
 0001:0002cfd2       ?OnInitDialog@COlePropertyPage@@UAEHXZ 5f52dfd2 f ctlppg.obj
 0001:0002cff2       ?PreTranslateMessage@COlePropertyPage@@MAEHPAUtagMSG@@@Z 5f52dff2 f ctlppg.obj
 0001:0002d156       ?CleanupObjectArray@COlePropertyPage@@IAEXXZ 5f52e156 f ctlppg.obj
 0001:0002d2b0       ??1COlePropertyPage@@UAE@XZ 5f52e2b0 f ctlppg.obj
 0001:0002d4f0       ?OnFinalRelease@COlePropertyPage@@MAEXXZ 5f52e4f0 f ctlppg.obj
 0001:0002d546       ?WindowProc@COlePropertyPage@@MAEJIIJ@Z 5f52e546 f ctlppg.obj
 0001:0002d62a       ?OnCtlColor@COlePropertyPage@@IAEPAUHBRUSH__@@PAVCDC@@PAVCWnd@@I@Z 5f52e62a f ctlppg.obj
 0001:0002d6b0       ?OnHelp@COlePropertyPage@@UAEHPBG@Z 5f52e6b0 f ctlppg.obj
 0001:0002d6ca       ?OnEditProperty@COlePropertyPage@@UAEHJ@Z 5f52e6ca f ctlppg.obj
 0001:0002d6e4       ?OnObjectsChanged@COlePropertyPage@@UAEXXZ 5f52e6e4 f ctlppg.obj
 0001:0002d6fa       ?GetObjectArray@COlePropertyPage@@QAEPAPAUIDispatch@@PAK@Z 5f52e6fa f ctlppg.obj
 0001:0002d76a       ?SetModifiedFlag@COlePropertyPage@@QAEXH@Z 5f52e76a f ctlppg.obj
 0001:0002d811       ?IsModified@COlePropertyPage@@QAEHXZ 5f52e811 f ctlppg.obj
 0001:0002d82d       ?SetPageName@COlePropertyPage@@QAEXPBG@Z 5f52e82d f ctlppg.obj
 0001:0002d882       ?SetDialogResource@COlePropertyPage@@QAEXPAX@Z 5f52e882 f ctlppg.obj
 0001:0002d952       ?SetHelpInfo@COlePropertyPage@@QAEXPBG0K@Z 5f52e952 f ctlppg.obj
 0001:0002da04       ?GetPageSite@COlePropertyPage@@QAEPAUIPropertyPageSite@@XZ 5f52ea04 f ctlppg.obj
 0001:0002da23       ?MessageBoxW@COlePropertyPage@@QAEHPBG0I@Z 5f52ea23 f ctlppg.obj
 0001:0002da74       ?AddRef@XPropertyPage@COlePropertyPage@@UAGKXZ 5f52ea74 f ctlppg.obj
 0001:0002da9c       ?Release@XPropertyPage@COlePropertyPage@@UAGKXZ 5f52ea9c f ctlppg.obj
 0001:0002dac4       ?QueryInterface@XPropertyPage@COlePropertyPage@@UAGJABU_GUID@@PAPAX@Z 5f52eac4 f ctlppg.obj
 0001:0002daf4       ?SetPageSite@XPropertyPage@COlePropertyPage@@UAGJPAUIPropertyPageSite@@@Z 5f52eaf4 f ctlppg.obj
 0001:0002dbee       ?Activate@XPropertyPage@COlePropertyPage@@UAGJPAUHWND__@@PBUtagRECT@@H@Z 5f52ebee f ctlppg.obj
 0001:0002de72       ?EnumChildProc@COlePropertyPage@@KGHPAUHWND__@@J@Z 5f52ee72 f ctlppg.obj
 0001:0002ded5       ?EnumControls@COlePropertyPage@@KGHPAUHWND__@@J@Z 5f52eed5 f ctlppg.obj
 0001:0002df99       ?Deactivate@XPropertyPage@COlePropertyPage@@UAGJXZ 5f52ef99 f ctlppg.obj
 0001:0002e022       ?GetPageInfo@XPropertyPage@COlePropertyPage@@UAGJPAUtagPROPPAGEINFO@@@Z 5f52f022 f ctlppg.obj
 0001:0002e0f0       ?SetObjects@XPropertyPage@COlePropertyPage@@UAGJKPAPAUIUnknown@@@Z 5f52f0f0 f ctlppg.obj
 0001:0002e34e       ?Show@XPropertyPage@COlePropertyPage@@UAGJI@Z 5f52f34e f ctlppg.obj
 0001:0002e38e       ?Move@XPropertyPage@COlePropertyPage@@UAGJPBUtagRECT@@@Z 5f52f38e f ctlppg.obj
 0001:0002e3f5       ?IsPageDirty@XPropertyPage@COlePropertyPage@@UAGJXZ 5f52f3f5 f ctlppg.obj
 0001:0002e42e       ?Apply@XPropertyPage@COlePropertyPage@@UAGJXZ 5f52f42e f ctlppg.obj
 0001:0002e578       ?Help@XPropertyPage@COlePropertyPage@@UAGJPBG@Z 5f52f578 f ctlppg.obj
 0001:0002e699       ?_AfxAtEndOfTabList@@YGHPAVCDialog@@I@Z 5f52f699 f ctlppg.obj
 0001:0002e754       ?TranslateAcceleratorW@XPropertyPage@COlePropertyPage@@UAGJPAUtagMSG@@@Z 5f52f754 f ctlppg.obj
 0001:0002ea10       ?EditProperty@XPropertyPage@COlePropertyPage@@UAGJJ@Z 5f52fa10 f ctlppg.obj
 0001:0002eac7       ?AddRef@XPropNotifySink@COlePropertyPage@@UAGKXZ 5f52fac7 f ctlppg.obj
 0001:0002eade       ?Release@XPropNotifySink@COlePropertyPage@@UAGKXZ 5f52fade f ctlppg.obj
 0001:0002eaf2       ?QueryInterface@XPropNotifySink@COlePropertyPage@@UAGJABU_GUID@@PAPAX@Z 5f52faf2 f ctlppg.obj
 0001:0002eb58       ?OnRequestEdit@XPropNotifySink@COlePropertyPage@@UAGJJ@Z 5f52fb58 f ctlppg.obj
 0001:0002eb6c       ?OnChanged@XPropNotifySink@COlePropertyPage@@UAGJJ@Z 5f52fb6c f ctlppg.obj
 0001:0002ec30       ?_AfxIsRadioButton@@YGHPAUHWND__@@@Z 5f52fc30 f ctlppg.obj
 0001:0002ec77       ?OnCommand@COlePropertyPage@@MAEHIJ@Z 5f52fc77 f ctlppg.obj
 0001:0002efc8       ?IgnoreApply@COlePropertyPage@@QAEXI@Z 5f52ffc8 f ctlppg.obj
 0001:0002eff2       ?GetControlStatus@COlePropertyPage@@QAEHI@Z 5f52fff2 f ctlppg.obj
 0001:0002f062       ?SetControlStatus@COlePropertyPage@@QAEHIH@Z 5f530062 f ctlppg.obj
 0001:0002f0d7       ?SetPropText@COlePropertyPage@@QAEHPBGAAE@Z 5f5300d7 f ctlppg.obj
 0001:0002f208       ?GetPropText@COlePropertyPage@@QAEHPBGPAE@Z 5f530208 f ctlppg.obj
 0001:0002f361       ?SetPropText@COlePropertyPage@@QAEHPBGAAF@Z 5f530361 f ctlppg.obj
 0001:0002f491       ?GetPropText@COlePropertyPage@@QAEHPBGPAF@Z 5f530491 f ctlppg.obj
 0001:0002f5ec       ?SetPropText@COlePropertyPage@@QAEHPBGAAH@Z 5f5305ec f ctlppg.obj
 0001:0002f71b       ?GetPropText@COlePropertyPage@@QAEHPBGPAH@Z 5f53071b f ctlppg.obj
 0001:0002f86e       ?SetPropText@COlePropertyPage@@QAEHPBGAAI@Z 5f53086e f ctlppg.obj
 0001:0002f99d       ?GetPropText@COlePropertyPage@@QAEHPBGPAI@Z 5f53099d f ctlppg.obj
 0001:0002faf0       ?SetPropText@COlePropertyPage@@QAEHPBGAAJ@Z 5f530af0 f ctlppg.obj
 0001:0002fc1f       ?GetPropText@COlePropertyPage@@QAEHPBGPAJ@Z 5f530c1f f ctlppg.obj
 0001:0002fd72       ?SetPropText@COlePropertyPage@@QAEHPBGAAK@Z 5f530d72 f ctlppg.obj
 0001:0002fea1       ?GetPropText@COlePropertyPage@@QAEHPBGPAK@Z 5f530ea1 f ctlppg.obj
 0001:0002fff4       ?SetPropText@COlePropertyPage@@QAEHPBGAAM@Z 5f530ff4 f ctlppg.obj
 0001:00030128       ?GetPropText@COlePropertyPage@@QAEHPBGPAM@Z 5f531128 f ctlppg.obj
 0001:00030281       ?SetPropText@COlePropertyPage@@QAEHPBGAAN@Z 5f531281 f ctlppg.obj
 0001:000303b4       ?GetPropText@COlePropertyPage@@QAEHPBGPAN@Z 5f5313b4 f ctlppg.obj
 0001:0003051c       ?SetPropText@COlePropertyPage@@QAEHPBGAAVCString@@@Z 5f53151c f ctlppg.obj
 0001:0003064e       ?GetPropText@COlePropertyPage@@QAEHPBGPAVCString@@@Z 5f53164e f ctlppg.obj
 0001:0003081b       ?SetPropCheck@COlePropertyPage@@QAEHPBGH@Z 5f53181b f ctlppg.obj
 0001:00030965       ?GetPropCheck@COlePropertyPage@@QAEHPBGPAH@Z 5f531965 f ctlppg.obj
 0001:00030adb       ?SetPropRadio@COlePropertyPage@@QAEHPBGH@Z 5f531adb f ctlppg.obj
 0001:00030c10       ?GetPropRadio@COlePropertyPage@@QAEHPBGPAH@Z 5f531c10 f ctlppg.obj
 0001:00030d64       ?SetPropIndex@COlePropertyPage@@QAEHPBGH@Z 5f531d64 f ctlppg.obj
 0001:00030d8c       ?GetPropIndex@COlePropertyPage@@QAEHPBGPAH@Z 5f531d8c f ctlppg.obj
 0001:00030db4       ?DDP_EndText@@YGXPAVCDataExchange@@HPAEPBG@Z 5f531db4 f ctlppg.obj
 0001:00030dfc       ?DDP_Text@@YGXPAVCDataExchange@@HAAEPBG@Z 5f531dfc f ctlppg.obj
 0001:00030ef5       ?DDP_EndText@@YGXPAVCDataExchange@@HPAFPBG@Z 5f531ef5 f ctlppg.obj
 0001:00030f3d       ?DDP_Text@@YGXPAVCDataExchange@@HAAFPBG@Z 5f531f3d f ctlppg.obj
 0001:00031036       ?DDP_EndText@@YGXPAVCDataExchange@@HPAHPBG@Z 5f532036 f ctlppg.obj
 0001:0003107e       ?DDP_Text@@YGXPAVCDataExchange@@HAAHPBG@Z 5f53207e f ctlppg.obj
 0001:00031177       ?DDP_EndText@@YGXPAVCDataExchange@@HPAIPBG@Z 5f532177 f ctlppg.obj
 0001:000311bf       ?DDP_Text@@YGXPAVCDataExchange@@HAAIPBG@Z 5f5321bf f ctlppg.obj
 0001:000312b8       ?DDP_EndText@@YGXPAVCDataExchange@@HPAJPBG@Z 5f5322b8 f ctlppg.obj
 0001:00031300       ?DDP_Text@@YGXPAVCDataExchange@@HAAJPBG@Z 5f532300 f ctlppg.obj
 0001:000313f9       ?DDP_EndText@@YGXPAVCDataExchange@@HPAKPBG@Z 5f5323f9 f ctlppg.obj
 0001:00031441       ?DDP_Text@@YGXPAVCDataExchange@@HAAKPBG@Z 5f532441 f ctlppg.obj
 0001:0003153a       ?DDP_EndText@@YGXPAVCDataExchange@@HPAMPBG@Z 5f53253a f ctlppg.obj
 0001:00031582       ?DDP_Text@@YGXPAVCDataExchange@@HAAMPBG@Z 5f532582 f ctlppg.obj
 0001:0003167b       ?DDP_EndText@@YGXPAVCDataExchange@@HPANPBG@Z 5f53267b f ctlppg.obj
 0001:000316c3       ?DDP_Text@@YGXPAVCDataExchange@@HAANPBG@Z 5f5326c3 f ctlppg.obj
 0001:000317bc       ?DDP_EndText@@YGXPAVCDataExchange@@HPAVCString@@PBG@Z 5f5327bc f ctlppg.obj
 0001:00031804       ?DDP_Text@@YGXPAVCDataExchange@@HAAVCString@@PBG@Z 5f532804 f ctlppg.obj
 0001:000318fd       ?DDP_EndCheck@@YGXPAVCDataExchange@@HPAHPBG@Z 5f5328fd f ctlppg.obj
 0001:00031947       ?DDP_Check@@YGXPAVCDataExchange@@HAAHPBG@Z 5f532947 f ctlppg.obj
 0001:00031a40       ?DDP_EndRadio@@YGXPAVCDataExchange@@HPAHPBG@Z 5f532a40 f ctlppg.obj
 0001:00031a8a       ?DDP_Radio@@YGXPAVCDataExchange@@HAAHPBG@Z 5f532a8a f ctlppg.obj
 0001:00031b83       ?DDP_PostProcessing@@YGXPAVCDataExchange@@@Z 5f532b83 f ctlppg.obj
 0001:00031ef0       ??_EAFX_DDPDATA@@UAEPAXI@Z 5f532ef0 f ctlppg.obj
 0001:00031ef0       ??_GAFX_DDPDATA@@UAEPAXI@Z 5f532ef0 f ctlppg.obj
 0001:00031f30       ??1AFX_DDPDATA@@UAE@XZ     5f532f30 f ctlppg.obj
 0001:00031f90       ??_GCOlePropertyPage@@UAEPAXI@Z 5f532f90 f ctlppg.obj
 0001:00031f90       ??_ECOlePropertyPage@@UAEPAXI@Z 5f532f90 f ctlppg.obj
 0001:00031fd0       ??0XPropertyPage@COlePropertyPage@@QAE@XZ 5f532fd0 f ctlppg.obj
 0001:00032000       ??0XPropNotifySink@COlePropertyPage@@QAE@XZ 5f533000 f ctlppg.obj
 0001:00032030       ??0IPropertyPage2@@QAE@XZ  5f533030 f ctlppg.obj
 0001:00032060       ??0IPropertyPage@@QAE@XZ   5f533060 f ctlppg.obj
 0001:00032090       ?InitStockPropMask@COleControl@@IAEXXZ 5f533090 f ctlprop.obj
 0001:00032191       ?ExchangeStockProps@COleControl@@QAEXPAVCPropExchange@@@Z 5f533191 f ctlprop.obj
 0001:00032693       ?SerializeStockProps@COleControl@@QAEXAAVCArchive@@@Z 5f533693 f ctlprop.obj
 0001:00032caa       ?ResetStockProps@COleControl@@QAEXXZ 5f533caa f ctlprop.obj
 0001:00032e32       ?GetAppearance@COleControl@@QAEFXZ 5f533e32 f ctlprop.obj
 0001:00032e52       ?SetAppearance@COleControl@@QAEXF@Z 5f533e52 f ctlprop.obj
 0001:00032f69       ?OnAppearanceChanged@COleControl@@UAEXXZ 5f533f69 f ctlprop.obj
 0001:00032f8b       ?GetBackColor@COleControl@@QAEKXZ 5f533f8b f ctlprop.obj
 0001:00032faa       ?SetBackColor@COleControl@@QAEXK@Z 5f533faa f ctlprop.obj
 0001:0003305b       ?OnBackColorChanged@COleControl@@UAEXXZ 5f53405b f ctlprop.obj
 0001:0003307d       ?GetBorderStyle@COleControl@@QAEFXZ 5f53407d f ctlprop.obj
 0001:0003309d       ?SetBorderStyle@COleControl@@QAEXF@Z 5f53409d f ctlprop.obj
 0001:000331b9       ?OnBorderStyleChanged@COleControl@@UAEXXZ 5f5341b9 f ctlprop.obj
 0001:000331db       ?InternalGetText@COleControl@@QAEABVCString@@XZ 5f5341db f ctlprop.obj
 0001:00033297       ?GetText@COleControl@@QAEPAGXZ 5f534297 f ctlprop.obj
 0001:000332bc       ?SetText@COleControl@@QAEXPBG@Z 5f5342bc f ctlprop.obj
 0001:0003331c       ?OnSetText@COleControl@@IAEJIJ@Z 5f53431c f ctlprop.obj
 0001:000334a7       ?OnTextChanged@COleControl@@UAEXXZ 5f5344a7 f ctlprop.obj
 0001:000334c9       ?GetEnabled@COleControl@@QAEHXZ 5f5344c9 f ctlprop.obj
 0001:000334e8       ?SetEnabled@COleControl@@QAEXH@Z 5f5344e8 f ctlprop.obj
 0001:000335c7       ?OnEnabledChanged@COleControl@@UAEXXZ 5f5345c7 f ctlprop.obj
 0001:000335e9       ?InternalGetFont@COleControl@@QAEAAVCFontHolder@@XZ 5f5345e9 f ctlprop.obj
 0001:00033607       ?GetFont@COleControl@@QAEPAUIFontDisp@@XZ 5f534607 f ctlprop.obj
 0001:0003362b       ?SetFont@COleControl@@QAEXPAUIFontDisp@@@Z 5f53462b f ctlprop.obj
 0001:000336be       ?OnFontChanged@COleControl@@UAEXXZ 5f5346be f ctlprop.obj
 0001:000337e4       ?GetForeColor@COleControl@@QAEKXZ 5f5347e4 f ctlprop.obj
 0001:00033803       ?SetForeColor@COleControl@@QAEXK@Z 5f534803 f ctlprop.obj
 0001:000338b4       ?OnForeColorChanged@COleControl@@UAEXXZ 5f5348b4 f ctlprop.obj
 0001:000338d6       ?GetHwnd@COleControl@@QAEIXZ 5f5348d6 f ctlprop.obj
 0001:00033921       ?GetReadyState@COleControl@@QAEJXZ 5f534921 f ctlprop.obj
 0001:00033940       ?AddRef@XFontNotification@COleControl@@UAGKXZ 5f534940 f ctlprop.obj
 0001:00033957       ?Release@XFontNotification@COleControl@@UAGKXZ 5f534957 f ctlprop.obj
 0001:0003396b       ?QueryInterface@XFontNotification@COleControl@@UAGJABU_GUID@@PAPAX@Z 5f53496b f ctlprop.obj
 0001:000339e5       ?OnChanged@XFontNotification@COleControl@@UAGJJ@Z 5f5349e5 f ctlprop.obj
 0001:00033a93       ?OnRequestEdit@XFontNotification@COleControl@@UAGJJ@Z 5f534a93 f ctlprop.obj
 0001:00033aa7       ?SelectStockFont@COleControl@@QAEPAVCFont@@PAVCDC@@@Z 5f534aa7 f ctlprop.obj
 0001:00033ad4       ?SelectFontObject@COleControl@@QAEPAVCFont@@PAVCDC@@AAVCFontHolder@@@Z 5f534ad4 f ctlprop.obj
 0001:00033b0e       ?GetStockTextMetrics@COleControl@@QAEXPAUtagTEXTMETRICW@@@Z 5f534b0e f ctlprop.obj
 0001:00033b38       ?GetFontTextMetrics@COleControl@@QAEXPAUtagTEXTMETRICW@@AAVCFontHolder@@@Z 5f534b38 f ctlprop.obj
 0001:00033b5c       ?_GetI4Property@@YGHPAUIDispatch@@JPAK@Z 5f534b5c f ctlprop.obj
 0001:00033c6d       ?GetAmbientDispatchDriver@COleControl@@IAEPAVCOleDispatchDriver@@XZ 5f534c6d f ctlprop.obj
 0001:00033d08       ?GetAmbientProperty@COleControl@@QAEHJGPAX@Z 5f534d08 f ctlprop.obj
 0001:00033fd5       ?AmbientAppearance@COleControl@@QAEFXZ 5f534fd5 f ctlprop.obj
 0001:00034011       ?AmbientBackColor@COleControl@@QAEKXZ 5f535011 f ctlprop.obj
 0001:00034050       ?AmbientDisplayName@COleControl@@QAE?AVCString@@XZ 5f535050 f ctlprop.obj
 0001:000340f2       ?AmbientFont@COleControl@@QAEPAUIFontDisp@@XZ 5f5350f2 f ctlprop.obj
 0001:0003412d       ?AmbientForeColor@COleControl@@QAEKXZ 5f53512d f ctlprop.obj
 0001:0003416c       ?AmbientLocaleID@COleControl@@QAEKXZ 5f53516c f ctlprop.obj
 0001:000341a7       ?AmbientScaleUnits@COleControl@@QAE?AVCString@@XZ 5f5351a7 f ctlprop.obj
 0001:00034249       ?AmbientTextAlign@COleControl@@QAEFXZ 5f535249 f ctlprop.obj
 0001:00034284       ?AmbientUserMode@COleControl@@QAEHXZ 5f535284 f ctlprop.obj
 0001:000342bf       ?AmbientUIDead@COleControl@@QAEHXZ 5f5352bf f ctlprop.obj
 0001:000342fa       ?AmbientShowGrabHandles@COleControl@@QAEHXZ 5f5352fa f ctlprop.obj
 0001:00034335       ?AmbientShowHatching@COleControl@@QAEHXZ 5f535335 f ctlprop.obj
 0001:00034370       ?BoundPropertyChanged@COleControl@@QAEXJ@Z 5f535370 f ctlprop.obj
 0001:000343ef       ?BoundPropertyRequestEdit@COleControl@@QAEHJ@Z 5f5353ef f ctlprop.obj
 0001:00034482       ?SetNotPermitted@COleControl@@QAEXXZ 5f535482 f ctlprop.obj
 0001:000344ac       ?SetNotSupported@COleControl@@QAEXXZ 5f5354ac f ctlprop.obj
 0001:000344d6       ?GetNotSupported@COleControl@@QAEXXZ 5f5354d6 f ctlprop.obj
 0001:00034500       ?AddRef@XPerPropertyBrowsing@COleControl@@UAGKXZ 5f535500 f ctlprop.obj
 0001:00034528       ?Release@XPerPropertyBrowsing@COleControl@@UAGKXZ 5f535528 f ctlprop.obj
 0001:00034550       ?QueryInterface@XPerPropertyBrowsing@COleControl@@UAGJABU_GUID@@PAPAX@Z 5f535550 f ctlprop.obj
 0001:00034580       ?GetDisplayString@XPerPropertyBrowsing@COleControl@@UAGJJPAPAG@Z 5f535580 f ctlprop.obj
 0001:000346b1       ?OnGetDisplayString@COleControl@@UAEHJAAVCString@@@Z 5f5356b1 f ctlprop.obj
 0001:000347b1       ?MapPropertyToPage@XPerPropertyBrowsing@COleControl@@UAGJJPAU_GUID@@@Z 5f5357b1 f ctlprop.obj
 0001:0003491c       ?OnMapPropertyToPage@COleControl@@UAEHJPAU_GUID@@PAH@Z 5f53591c f ctlprop.obj
 0001:000349d4       ?GetPredefinedStrings@XPerPropertyBrowsing@COleControl@@UAGJJPAUtagCALPOLESTR@@PAUtagCADWORD@@@Z 5f5359d4 f ctlprop.obj
 0001:00034d52       ?OnGetPredefinedStrings@COleControl@@UAEHJPAVCStringArray@@PAVCDWordArray@@@Z 5f535d52 f ctlprop.obj
 0001:00034e9d       ?GetPredefinedValue@XPerPropertyBrowsing@COleControl@@UAGJJKPAUtagVARIANT@@@Z 5f535e9d f ctlprop.obj
 0001:00034f80       ?OnGetPredefinedValue@COleControl@@UAEHJKPAUtagVARIANT@@@Z 5f535f80 f ctlprop.obj
 0001:00034ffa       ?Load@COleControl@@QAEXPBGAAVCDataPathProperty@@@Z 5f535ffa f ctlprop.obj
 0001:0003502f       ?Open@CDataPathProperty@@UAEHPAVCFileException@@@Z 5f53602f f ctlprop.obj
 0001:0003508d       ?Open@CDataPathProperty@@UAEHPBGPAVCFileException@@@Z 5f53608d f ctlprop.obj
 0001:000350c3       ?Open@CDataPathProperty@@UAEHPAVCOleControl@@PAVCFileException@@@Z 5f5360c3 f ctlprop.obj
 0001:000350f9       ?Open@CDataPathProperty@@UAEHPBGPAVCOleControl@@PAVCFileException@@@Z 5f5360f9 f ctlprop.obj
 0001:0003513b       ?ResetData@CDataPathProperty@@UAEXXZ 5f53613b f ctlprop.obj
 0001:00035151       ?AssertValid@CDataPathProperty@@UBEXXZ 5f536151 f ctlprop.obj
 0001:0003516f       ?Dump@CDataPathProperty@@UBEXAAVCDumpContext@@@Z 5f53616f f ctlprop.obj
 0001:000351d5       ?OnDataAvailable@CCachedDataPathProperty@@UAEXKK@Z 5f5361d5 f ctlprop.obj
 0001:0003538a       ?Close@CCachedDataPathProperty@@UAEXXZ 5f53638a f ctlprop.obj
 0001:000353b9       ?ResetData@CCachedDataPathProperty@@UAEXXZ 5f5363b9 f ctlprop.obj
 0001:000353e0       ?AssertValid@CCachedDataPathProperty@@UBEXXZ 5f5363e0 f ctlprop.obj
 0001:0003540d       ?Dump@CCachedDataPathProperty@@UBEXAAVCDumpContext@@@Z 5f53640d f ctlprop.obj
 0001:00035450       ?_AfxCopyString@@YGPAGPBG@Z 5f536450 f ctlprop.obj
 0001:000354c0       ??B?$CThreadLocal@V_AFXCTL_AMBIENT_CACHE@@@@QAEPAV_AFXCTL_AMBIENT_CACHE@@XZ 5f5364c0 f ctlprop.obj
 0001:000354e0       ?_AfxCreateMemoryStream@@YGPAUIStream@@XZ 5f5364e0 f ctlpset.obj
 0001:000355a4       ?GetPropsetData@COleControl@@IAEHPAUtagFORMATETC@@PAUtagSTGMEDIUM@@ABU_GUID@@@Z 5f5365a4 f ctlpset.obj
 0001:00035c00       ?SetPropsetData@COleControl@@IAEHPAUtagFORMATETC@@PAUtagSTGMEDIUM@@ABU_GUID@@@Z 5f536c00 f ctlpset.obj
 0001:0003600a       ??0CPropsetPropExchange@@QAE@AAVCPropertySection@@PAUIStorage@@H@Z 5f53700a f ctlpset.obj
 0001:000360c9       ?_AfxCoerceNumber@@YGHPAXG0G@Z 5f5370c9 f ctlpset.obj
 0001:00036245       ?_AfxIsSamePropValue@@YGHGPBX0@Z 5f537245 f ctlpset.obj
 0001:00036392       ?ExchangeProp@CPropsetPropExchange@@UAEHPBGGPAXPBX@Z 5f537392 f ctlpset.obj
 0001:00036827       ?ExchangeBlobProp@CPropsetPropExchange@@UAEHPBGPAPAXPAX@Z 5f537827 f ctlpset.obj
 0001:00036a4c       ?_AfxSaveStreamDataAsBlobProp@@YGHPAUIStream@@AAVCPropertySection@@KK@Z 5f537a4c f ctlpset.obj
 0001:00036b6c       ?_AfxInitStreamDataFromBlobProp@@YGHPAUIStream@@PAVCProperty@@@Z 5f537b6c f ctlpset.obj
 0001:00036bfb       ?_AfxCreateFontFromStream@@YGPAUIFont@@PAUIStream@@@Z 5f537bfb f ctlpset.obj
 0001:00036dde       ?_AfxLoadObjectFromStreamedPropset@@YGHPAUIUnknown@@PAUIStream@@@Z 5f537dde f ctlpset.obj
 0001:00036f3b       ?_AfxGetClassIDFromStreamedPropset@@YGHPAU_GUID@@PAUIStream@@@Z 5f537f3b f ctlpset.obj
 0001:00036fea       ?_AfxCreateObjectFromStreamedPropset@@YGPAUIUnknown@@PAUIStream@@ABU_GUID@@@Z 5f537fea f ctlpset.obj
 0001:00037135       ?_AfxLoadStreamFromPropset@@YGPAUIStream@@AAVCPropertySection@@PBGAAK@Z 5f538135 f ctlpset.obj
 0001:0003721f       ?_AfxSaveObjectInPropset@@YGHPAUIUnknown@@AAVCPropertySection@@K@Z 5f53821f f ctlpset.obj
 0001:00037431       ?ExchangePersistentProp@CPropsetPropExchange@@UAEHPBGPAPAUIUnknown@@ABU_GUID@@PAU2@@Z 5f538431 f ctlpset.obj
 0001:0003772f       ?ExchangeFontProp@CPropsetPropExchange@@UAEHPBGAAVCFontHolder@@PBUtagFONTDESC@@PAUIFontDisp@@@Z 5f53872f f ctlpset.obj
 0001:00037980       ?AddRef@XPersistStorage@COleControl@@UAGKXZ 5f538980 f ctlpstg.obj
 0001:000379a8       ?Release@XPersistStorage@COleControl@@UAGKXZ 5f5389a8 f ctlpstg.obj
 0001:000379d0       ?QueryInterface@XPersistStorage@COleControl@@UAGJABU_GUID@@PAPAX@Z 5f5389d0 f ctlpstg.obj
 0001:00037a00       ?GetClassID@XPersistStorage@COleControl@@UAGJPAU_GUID@@@Z 5f538a00 f ctlpstg.obj
 0001:00037a32       ?IsDirty@XPersistStorage@COleControl@@UAGJXZ 5f538a32 f ctlpstg.obj
 0001:00037ad5       ?InitNew@XPersistStorage@COleControl@@UAGJPAUIStorage@@@Z 5f538ad5 f ctlpstg.obj
 0001:00037be2       ?Load@XPersistStorage@COleControl@@UAGJPAUIStorage@@@Z 5f538be2 f ctlpstg.obj
 0001:00037dd5       ?Save@XPersistStorage@COleControl@@UAGJPAUIStorage@@H@Z 5f538dd5 f ctlpstg.obj
 0001:00037f81       ?SaveCompleted@XPersistStorage@COleControl@@UAGJPAUIStorage@@@Z 5f538f81 f ctlpstg.obj
 0001:00037ff7       ?HandsOffStorage@XPersistStorage@COleControl@@UAGJXZ 5f538ff7 f ctlpstg.obj
 0001:00038060       ?AddRef@XPersistStreamInit@COleControl@@UAGKXZ 5f539060 f ctlpstm.obj
 0001:00038088       ?Release@XPersistStreamInit@COleControl@@UAGKXZ 5f539088 f ctlpstm.obj
 0001:000380b0       ?QueryInterface@XPersistStreamInit@COleControl@@UAGJABU_GUID@@PAPAX@Z 5f5390b0 f ctlpstm.obj
 0001:000380e0       ?GetClassID@XPersistStreamInit@COleControl@@UAGJPAU_GUID@@@Z 5f5390e0 f ctlpstm.obj
 0001:00038112       ?IsDirty@XPersistStreamInit@COleControl@@UAGJXZ 5f539112 f ctlpstm.obj
 0001:00038152       ?Load@XPersistStreamInit@COleControl@@UAGJPAUIStream@@@Z 5f539152 f ctlpstm.obj
 0001:000381d8       ?Save@XPersistStreamInit@COleControl@@UAGJPAUIStream@@H@Z 5f5391d8 f ctlpstm.obj
 0001:00038278       ?GetSizeMax@XPersistStreamInit@COleControl@@UAGJPAT_ULARGE_INTEGER@@@Z 5f539278 f ctlpstm.obj
 0001:0003828f       ?InitNew@XPersistStreamInit@COleControl@@UAGJXZ 5f53928f f ctlpstm.obj
 0001:0003835a       ?AddRef@XPersistMemory@COleControl@@UAGKXZ 5f53935a f ctlpstm.obj
 0001:00038382       ?Release@XPersistMemory@COleControl@@UAGKXZ 5f539382 f ctlpstm.obj
 0001:000383aa       ?QueryInterface@XPersistMemory@COleControl@@UAGJABU_GUID@@PAPAX@Z 5f5393aa f ctlpstm.obj
 0001:000383da       ?GetClassID@XPersistMemory@COleControl@@UAGJPAU_GUID@@@Z 5f5393da f ctlpstm.obj
 0001:0003840c       ?IsDirty@XPersistMemory@COleControl@@UAGJXZ 5f53940c f ctlpstm.obj
 0001:0003844c       ?Load@XPersistMemory@COleControl@@UAGJPAXK@Z 5f53944c f ctlpstm.obj
 0001:00038611       ?Save@XPersistMemory@COleControl@@UAGJPAXHK@Z 5f539611 f ctlpstm.obj
 0001:00038628       ?GetSizeMax@XPersistMemory@COleControl@@UAGJPAK@Z 5f539628 f ctlpstm.obj
 0001:0003863f       ?InitNew@XPersistMemory@COleControl@@UAGJXZ 5f53963f f ctlpstm.obj
 0001:00038710       ?Create@CReflectorWnd@@QAEHABVCRect@@PAUHWND__@@@Z 5f539710 f ctlrefl.obj
 0001:000387a4       ?PostNcDestroy@CReflectorWnd@@MAEXXZ 5f5397a4 f ctlrefl.obj
 0001:00038803       ?WindowProc@CReflectorWnd@@MAEJIIJ@Z 5f539803 f ctlrefl.obj
 0001:00038975       ?SetControl@CReflectorWnd@@QAEXPAVCOleControl@@@Z 5f539975 f ctlrefl.obj
 0001:00038996       ?WindowProc@CParkingWnd@@UAEJIIJ@Z 5f539996 f ctlrefl.obj
 0001:00038ca0       ?_AfxRecursiveRegDeleteKey@@YGJPAUHKEY__@@PAG@Z 5f539ca0 f ctlreg.obj
 0001:00038d77       ?_AfxUnregisterInterfaces@@YAXPAUITypeLib@@@Z 5f539d77 f ctlreg.obj
 0001:00038ec3       ?AfxOleRegisterTypeLib@@YGHPAUHINSTANCE__@@ABU_GUID@@PBG2@Z 5f539ec3 f ctlreg.obj
 0001:00039173       ?AfxOleUnregisterTypeLib@@YGHABU_GUID@@GGK@Z 5f53a173 f ctlreg.obj
 0001:0003958c       ?AfxOleRegisterControlClass@@YGHPAUHINSTANCE__@@ABU_GUID@@PBGIIHK1GG@Z 5f53a58c f ctlreg.obj
 0001:00039ac9       ?AfxOleUnregisterClass@@YGHABU_GUID@@PBG@Z 5f53aac9 f ctlreg.obj
 0001:00039d62       ?AfxOleRegisterPropertyPageClass@@YGHPAUHINSTANCE__@@ABU_GUID@@I@Z 5f53ad62 f ctlreg.obj
 0001:00039d87       ?AfxOleRegisterPropertyPageClass@@YGHPAUHINSTANCE__@@ABU_GUID@@IH@Z 5f53ad87 f ctlreg.obj
 0001:0003a070       ?_AfxRegDeleteKeySucceeded@@YAHJ@Z 5f53b070 f ctlreg.obj
 0001:0003a0b0       ?CreateTracker@COleControl@@IAEXHH@Z 5f53b0b0 f ctltrack.obj
 0001:0003a42a       ?DestroyTracker@COleControl@@IAEXXZ 5f53b42a f ctltrack.obj
 0001:0003a590       ?OnNcPaint@COleControl@@IAEXXZ 5f53b590 f ctltrack.obj
 0001:0003a780       ?OnNcCalcSize@COleControl@@IAEXHPAUtagNCCALCSIZE_PARAMS@@@Z 5f53b780 f ctltrack.obj
 0001:0003a821       ?OnNcHitTest@COleControl@@IAEIVCPoint@@@Z 5f53b821 f ctltrack.obj
 0001:0003a981       ?OnNcLButtonDown@COleControl@@IAEXIVCPoint@@@Z 5f53b981 f ctltrack.obj
 0001:0003abf0       ?OnSetCursor@COleControl@@IAEHPAVCWnd@@II@Z 5f53bbf0 f ctltrack.obj
 0001:0003acb0       ?OnGetColorSet@COleControl@@UAEHPAUtagDVTARGETDEVICE@@PAUHDC__@@PAPAUtagLOGPALETTE@@@Z 5f53bcb0 f ctlview.obj
 0001:0003acca       ?OnGetViewExtent@COleControl@@UAEHKJPAUtagDVTARGETDEVICE@@PAUtagSIZE@@@Z 5f53bcca f ctlview.obj
 0001:0003ad2e       ?OnGetViewRect@COleControl@@UAEHKPAU_RECTL@@@Z 5f53bd2e f ctlview.obj
 0001:0003ad8c       ?OnGetViewStatus@COleControl@@UAEKXZ 5f53bd8c f ctlview.obj
 0001:0003ada7       ?OnQueryHitPoint@COleControl@@UAEHKPBUtagRECT@@UtagPOINT@@JPAK@Z 5f53bda7 f ctlview.obj
 0001:0003ade3       ?OnQueryHitRect@COleControl@@UAEHKPBUtagRECT@@0JPAK@Z 5f53bde3 f ctlview.obj
 0001:0003ae1f       ?OnGetNaturalExtent@COleControl@@UAEHKJPAUtagDVTARGETDEVICE@@PAUHDC__@@PAUtagExtentInfo@@PAUtagSIZE@@@Z 5f53be1f f ctlview.obj
 0001:0003ae39       ?AddRef@XViewObject@COleControl@@UAGKXZ 5f53be39 f ctlview.obj
 0001:0003ae61       ?Release@XViewObject@COleControl@@UAGKXZ 5f53be61 f ctlview.obj
 0001:0003ae89       ?QueryInterface@XViewObject@COleControl@@UAGJABU_GUID@@PAPAX@Z 5f53be89 f ctlview.obj
 0001:0003aeb9       ?Draw@XViewObject@COleControl@@UAGJKJPAXPAUtagDVTARGETDEVICE@@PAUHDC__@@2PBU_RECTL@@3P6GHK@ZK@Z 5f53beb9 f ctlview.obj
 0001:0003b179       ?GetColorSet@XViewObject@COleControl@@UAGJKJPAXPAUtagDVTARGETDEVICE@@PAUHDC__@@PAPAUtagLOGPALETTE@@@Z 5f53c179 f ctlview.obj
 0001:0003b23a       ?Freeze@XViewObject@COleControl@@UAGJKJPAXPAK@Z 5f53c23a f ctlview.obj
 0001:0003b251       ?Unfreeze@XViewObject@COleControl@@UAGJK@Z 5f53c251 f ctlview.obj
 0001:0003b268       ?SetAdvise@XViewObject@COleControl@@UAGJKKPAUIAdviseSink@@@Z 5f53c268 f ctlview.obj
 0001:0003b3c8       ?GetAdvise@XViewObject@COleControl@@UAGJPAK0PAPAUIAdviseSink@@@Z 5f53c3c8 f ctlview.obj
 0001:0003b4a5       ?GetExtent@XViewObject@COleControl@@UAGJKJPAUtagDVTARGETDEVICE@@PAUtagSIZE@@@Z 5f53c4a5 f ctlview.obj
 0001:0003b4f7       ?GetRect@XViewObject@COleControl@@UAGJKPAU_RECTL@@@Z 5f53c4f7 f ctlview.obj
 0001:0003b541       ?GetViewStatus@XViewObject@COleControl@@UAGJPAK@Z 5f53c541 f ctlview.obj
 0001:0003b576       ?QueryHitPoint@XViewObject@COleControl@@UAGJKPBUtagRECT@@UtagPOINT@@JPAK@Z 5f53c576 f ctlview.obj
 0001:0003b5d0       ?QueryHitRect@XViewObject@COleControl@@UAGJKPBUtagRECT@@0JPAK@Z 5f53c5d0 f ctlview.obj
 0001:0003b626       ?GetNaturalExtent@XViewObject@COleControl@@UAGJKJPAUtagDVTARGETDEVICE@@PAUHDC__@@PAUtagExtentInfo@@PAUtagSIZE@@@Z 5f53c626 f ctlview.obj
 0001:0003b680       ??0_AFXCTL_ADVISE_INFO@@QAE@XZ 5f53c680 f ctlview.obj
 0001:0003b6c0       ??0CProperty@@QAE@XZ       5f53c6c0 f olepset.obj
 0001:0003b6f6       ??0CProperty@@QAE@KQAXK@Z  5f53c6f6 f olepset.obj
 0001:0003b740       ??1CProperty@@QAE@XZ       5f53c740 f olepset.obj
 0001:0003b75e       ?Set@CProperty@@QAEHKQAXK@Z 5f53c75e f olepset.obj
 0001:0003b793       ?Set@CProperty@@QAEHQAXK@Z 5f53c793 f olepset.obj
 0001:0003b7c0       ?Set@CProperty@@QAEHQAX@Z  5f53c7c0 f olepset.obj
 0001:0003bbed       ?Get@CProperty@@QAEPAXXZ   5f53cbed f olepset.obj
 0001:0003bc0d       ?Get@CProperty@@QAEPAXPAK@Z 5f53cc0d f olepset.obj
 0001:0003bd81       ?GetType@CProperty@@QAEKXZ 5f53cd81 f olepset.obj
 0001:0003bd9d       ?SetType@CProperty@@QAEXK@Z 5f53cd9d f olepset.obj
 0001:0003bdbe       ?GetID@CProperty@@QAEKXZ   5f53cdbe f olepset.obj
 0001:0003bdd9       ?SetID@CProperty@@QAEXK@Z  5f53cdd9 f olepset.obj
 0001:0003bdf9       ?GetRawValue@CProperty@@QAEPAXXZ 5f53cdf9 f olepset.obj
 0001:0003be15       ?WriteToStream@CProperty@@QAEHPAUIStream@@@Z 5f53ce15 f olepset.obj
 0001:0003c30d       ?ReadFromStream@CProperty@@QAEHPAUIStream@@@Z 5f53d30d f olepset.obj
 0001:0003c75b       ?AllocValue@CProperty@@AAEPAXK@Z 5f53d75b f olepset.obj
 0001:0003c78c       ?FreeValue@CProperty@@AAEXXZ 5f53d78c f olepset.obj
 0001:0003c7c9       ??0CPropertySection@@QAE@XZ 5f53d7c9 f olepset.obj
 0001:0003c8a1       ??0CPropertySection@@QAE@U_GUID@@@Z 5f53d8a1 f olepset.obj
 0001:0003c979       ??1CPropertySection@@QAE@XZ 5f53d979 f olepset.obj
 0001:0003ca15       ?GetFormatID@CPropertySection@@QAE?AU_GUID@@XZ 5f53da15 f olepset.obj
 0001:0003ca4c       ?SetFormatID@CPropertySection@@QAEXU_GUID@@@Z 5f53da4c f olepset.obj
 0001:0003ca80       ?Set@CPropertySection@@QAEHKPAXK@Z 5f53da80 f olepset.obj
 0001:0003cb3f       ?Set@CPropertySection@@QAEHKPAX@Z 5f53db3f f olepset.obj
 0001:0003cba5       ?Get@CPropertySection@@QAEPAXK@Z 5f53dba5 f olepset.obj
 0001:0003cbcb       ?Get@CPropertySection@@QAEPAXKPAK@Z 5f53dbcb f olepset.obj
 0001:0003cc14       ?Remove@CPropertySection@@QAEXK@Z 5f53dc14 f olepset.obj
 0001:0003ccb0       ?RemoveAll@CPropertySection@@QAEXXZ 5f53dcb0 f olepset.obj
 0001:0003cd2b       ?GetProperty@CPropertySection@@QAEPAVCProperty@@K@Z 5f53dd2b f olepset.obj
 0001:0003cd8c       ?AddProperty@CPropertySection@@QAEXPAVCProperty@@@Z 5f53dd8c f olepset.obj
 0001:0003cdb9       ?GetSize@CPropertySection@@QAEKXZ 5f53ddb9 f olepset.obj
 0001:0003cdd5       ?GetCount@CPropertySection@@QAEKXZ 5f53ddd5 f olepset.obj
 0001:0003cdf6       ?GetList@CPropertySection@@QAEPAVCPtrList@@XZ 5f53ddf6 f olepset.obj
 0001:0003ce12       ?WriteToStream@CPropertySection@@QAEHPAUIStream@@@Z 5f53de12 f olepset.obj
 0001:0003d12e       ?ReadFromStream@CPropertySection@@QAEHPAUIStream@@T_LARGE_INTEGER@@@Z 5f53e12e f olepset.obj
 0001:0003d2f7       ?GetID@CPropertySection@@QAEHPBGPAK@Z 5f53e2f7 f olepset.obj
 0001:0003d3b5       ?SetName@CPropertySection@@QAEHKPBG@Z 5f53e3b5 f olepset.obj
 0001:0003d504       ?ReadNameDictFromStream@CPropertySection@@QAEHPAUIStream@@@Z 5f53e504 f olepset.obj
 0001:0003d69d       ?WriteNameDictToStream@CPropertySection@@QAEHPAUIStream@@@Z 5f53e69d f olepset.obj
 0001:0003d8ce       ?SetSectionName@CPropertySection@@QAEHPBG@Z 5f53e8ce f olepset.obj
 0001:0003d8fa       ?GetSectionName@CPropertySection@@QAEPBGXZ 5f53e8fa f olepset.obj
 0001:0003d91b       ??0CPropertySet@@QAE@XZ    5f53e91b f olepset.obj
 0001:0003d9d9       ??0CPropertySet@@QAE@U_GUID@@@Z 5f53e9d9 f olepset.obj
 0001:0003da97       ??1CPropertySet@@QAE@XZ    5f53ea97 f olepset.obj
 0001:0003db01       ?Set@CPropertySet@@QAEHU_GUID@@KPAXK@Z 5f53eb01 f olepset.obj
 0001:0003dbb5       ?Set@CPropertySet@@QAEHU_GUID@@KPAX@Z 5f53ebb5 f olepset.obj
 0001:0003dc0e       ?Get@CPropertySet@@QAEPAXU_GUID@@KPAK@Z 5f53ec0e f olepset.obj
 0001:0003dc67       ?Get@CPropertySet@@QAEPAXU_GUID@@K@Z 5f53ec67 f olepset.obj
 0001:0003dc9d       ?Remove@CPropertySet@@QAEXU_GUID@@K@Z 5f53ec9d f olepset.obj
 0001:0003dce6       ?Remove@CPropertySet@@QAEXU_GUID@@@Z 5f53ece6 f olepset.obj
 0001:0003dd8c       ?RemoveAll@CPropertySet@@QAEXXZ 5f53ed8c f olepset.obj
 0001:0003de07       ?GetSection@CPropertySet@@QAEPAVCPropertySection@@U_GUID@@@Z 5f53ee07 f olepset.obj
 0001:0003de72       ?AddSection@CPropertySet@@QAEPAVCPropertySection@@U_GUID@@@Z 5f53ee72 f olepset.obj
 0001:0003df18       ?AddSection@CPropertySet@@QAEXPAVCPropertySection@@@Z 5f53ef18 f olepset.obj
 0001:0003df45       ?GetProperty@CPropertySet@@QAEPAVCProperty@@U_GUID@@K@Z 5f53ef45 f olepset.obj
 0001:0003df9a       ?AddProperty@CPropertySet@@QAEXU_GUID@@PAVCProperty@@@Z 5f53ef9a f olepset.obj
 0001:0003dfe3       ?GetByteOrder@CPropertySet@@QAEGXZ 5f53efe3 f olepset.obj
 0001:0003dfff       ?GetFormatVersion@CPropertySet@@QAEGXZ 5f53efff f olepset.obj
 0001:0003e01c       ?SetFormatVersion@CPropertySet@@QAEXG@Z 5f53f01c f olepset.obj
 0001:0003e03f       ?GetOSVersion@CPropertySet@@QAEKXZ 5f53f03f f olepset.obj
 0001:0003e05b       ?SetOSVersion@CPropertySet@@QAEXK@Z 5f53f05b f olepset.obj
 0001:0003e07c       ?GetClassID@CPropertySet@@QAE?AU_GUID@@XZ 5f53f07c f olepset.obj
 0001:0003e0b6       ?SetClassID@CPropertySet@@QAEXU_GUID@@@Z 5f53f0b6 f olepset.obj
 0001:0003e0ed       ?GetCount@CPropertySet@@QAEKXZ 5f53f0ed f olepset.obj
 0001:0003e10e       ?GetList@CPropertySet@@QAEPAVCPtrList@@XZ 5f53f10e f olepset.obj
 0001:0003e12a       ?WriteToStream@CPropertySet@@QAEHPAUIStream@@@Z 5f53f12a f olepset.obj
 0001:0003e306       ?ReadFromStream@CPropertySet@@QAEHPAUIStream@@@Z 5f53f306 f olepset.obj
 0001:0003e4d0       ??_GCProperty@@QAEPAXI@Z   5f53f4d0 f olepset.obj
 0001:0003e510       ??_GCPropertySection@@QAEPAXI@Z 5f53f510 f olepset.obj
 0001:0003e550       ??0CBlobProperty@@QAE@PAX@Z 5f53f550 f ctlpbag.obj
 0001:0003e58f       ?GetBlob@CBlobProperty@@QAEPAXXZ 5f53f58f f ctlpbag.obj
 0001:0003e5ab       ?AddRef@CBlobProperty@@UAGKXZ 5f53f5ab f ctlpbag.obj
 0001:0003e5ca       ?Release@CBlobProperty@@UAGKXZ 5f53f5ca f ctlpbag.obj
 0001:0003e619       ?QueryInterface@CBlobProperty@@UAGJABU_GUID@@PAPAX@Z 5f53f619 f ctlpbag.obj
 0001:0003e69f       ?GetClassID@CBlobProperty@@UAGJPAU_GUID@@@Z 5f53f69f f ctlpbag.obj
 0001:0003e6d1       ?IsDirty@CBlobProperty@@UAGJXZ 5f53f6d1 f ctlpbag.obj
 0001:0003e6e5       ?Load@CBlobProperty@@UAGJPAUIStream@@@Z 5f53f6e5 f ctlpbag.obj
 0001:0003e7f0       ?Save@CBlobProperty@@UAGJPAUIStream@@H@Z 5f53f7f0 f ctlpbag.obj
 0001:0003e886       ?GetSizeMax@CBlobProperty@@UAGJPAT_ULARGE_INTEGER@@@Z 5f53f886 f ctlpbag.obj
 0001:0003e8e5       ??0CPropbagPropExchange@@QAE@PAUIPropertyBag@@PAUIErrorLog@@HH@Z 5f53f8e5 f ctlpbag.obj
 0001:0003e961       ??1CPropbagPropExchange@@QAE@XZ 5f53f961 f ctlpbag.obj
 0001:0003e9d2       ?ExchangeProp@CPropbagPropExchange@@UAEHPBGGPAXPBX@Z 5f53f9d2 f ctlpbag.obj
 0001:0003edd9       ?ExchangeBlobProp@CPropbagPropExchange@@UAEHPBGPAPAXPAX@Z 5f53fdd9 f ctlpbag.obj
 0001:0003f022       ?ExchangeFontProp@CPropbagPropExchange@@UAEHPBGAAVCFontHolder@@PBUtagFONTDESC@@PAUIFontDisp@@@Z 5f540022 f ctlpbag.obj
 0001:0003f2d1       ?ExchangePersistentProp@CPropbagPropExchange@@UAEHPBGPAPAUIUnknown@@ABU_GUID@@PAU2@@Z 5f5402d1 f ctlpbag.obj
 0001:0003f55d       ?AddRef@XPersistPropertyBag@COleControl@@UAGKXZ 5f54055d f ctlpbag.obj
 0001:0003f585       ?Release@XPersistPropertyBag@COleControl@@UAGKXZ 5f540585 f ctlpbag.obj
 0001:0003f5ad       ?QueryInterface@XPersistPropertyBag@COleControl@@UAGJABU_GUID@@PAPAX@Z 5f5405ad f ctlpbag.obj
 0001:0003f5dd       ?GetClassID@XPersistPropertyBag@COleControl@@UAGJPAU_GUID@@@Z 5f5405dd f ctlpbag.obj
 0001:0003f60f       ?InitNew@XPersistPropertyBag@COleControl@@UAGJXZ 5f54060f f ctlpbag.obj
 0001:0003f6da       ?Load@XPersistPropertyBag@COleControl@@UAGJPAUIPropertyBag@@PAUIErrorLog@@@Z 5f5406da f ctlpbag.obj
 0001:0003f83d       ?Save@XPersistPropertyBag@COleControl@@UAGJPAUIPropertyBag@@HH@Z 5f54083d f ctlpbag.obj
 0001:0003f970       ??0IPersistStream@@QAE@XZ  5f540970 f ctlpbag.obj
 0001:0003f9a0       ?_GetOlePropLibFunc@@YGP6GHXZPBD@Z 5f5409a0 f olepro32.obj
 0001:0003fa17       _OleCreatePropertyFrame@44 5f540a17 f olepro32.obj
 0001:0003fa8e       _OleCreatePropertyFrameIndirect@4 5f540a8e f olepro32.obj
 0001:0003fadd       _OleTranslateColor@12      5f540add f olepro32.obj
 0001:0003fb34       _OleCreateFontIndirect@12  5f540b34 f olepro32.obj
 0001:0003fb8b       _OleCreatePictureIndirect@16 5f540b8b f olepro32.obj
 0001:0003fbe6       _OleLoadPicture@20         5f540be6 f olepro32.obj
 0001:0003fcb1       ??0_AFXCTL_AMBIENT_CACHE@@QAE@XZ 5f540cb1 f ctlquick.obj
 0001:0003fd20       ?Cache@_AFXCTL_AMBIENT_CACHE@@QAEXPAUtagQACONTAINER@@@Z 5f540d20 f ctlquick.obj
 0001:0003fdd6       ?AddRef@XQuickActivate@COleControl@@UAGKXZ 5f540dd6 f ctlquick.obj
 0001:0003fdfe       ?Release@XQuickActivate@COleControl@@UAGKXZ 5f540dfe f ctlquick.obj
 0001:0003fe26       ?QueryInterface@XQuickActivate@COleControl@@UAGJABU_GUID@@PAPAX@Z 5f540e26 f ctlquick.obj
 0001:0003fe56       ?QuickActivate@XQuickActivate@COleControl@@UAGJPAUtagQACONTAINER@@PAUtagQACONTROL@@@Z 5f540e56 f ctlquick.obj
 0001:0003ffdf       ?SetContentExtent@XQuickActivate@COleControl@@UAGJPAUtagSIZE@@@Z 5f540fdf f ctlquick.obj
 0001:0004001a       ?GetContentExtent@XQuickActivate@COleControl@@UAGJPAUtagSIZE@@@Z 5f54101a f ctlquick.obj
 0001:00040060       ??1?$CThreadLocal@V_AFXCTL_AMBIENT_CACHE@@@@QAE@XZ 5f541060 f ctlquick.obj
 0001:000400c0       ??_G_AFXCTL_AMBIENT_CACHE@@UAEPAXI@Z 5f5410c0 f ctlquick.obj
 0001:000400c0       ??_E_AFXCTL_AMBIENT_CACHE@@UAEPAXI@Z 5f5410c0 f ctlquick.obj
 0001:00040100       ??1_AFXCTL_AMBIENT_CACHE@@UAE@XZ 5f541100 f ctlquick.obj
 0001:00040160       ?_GetBaseClass@CWindowlessDC@@KGPAUCRuntimeClass@@XZ 5f541160 f ctlnownd.obj
 0001:00040175       ?GetRuntimeClass@CWindowlessDC@@UBEPAUCRuntimeClass@@XZ 5f541175 f ctlnownd.obj
 0001:00040190       ??0CWindowlessDC@@QAE@PAUHDC__@@AAVCPoint@@@Z 5f541190 f ctlnownd.obj
 0001:00040269       ?Detach@CWindowlessDC@@QAEPAUHDC__@@XZ 5f541269 f ctlnownd.obj
 0001:000402ba       ?GetClientOffset@COleControl@@UBEXPAJ0@Z 5f5412ba f ctlnownd.obj
 0001:00040340       ?ParentToClient@COleControl@@UBEIPBUtagRECT@@PAUtagPOINT@@H@Z 5f541340 f ctlnownd.obj
 0001:00040429       ?ClientToParent@COleControl@@UBEXPBUtagRECT@@PAUtagPOINT@@@Z 5f541429 f ctlnownd.obj
 0001:00040473       ?GetActivationPolicy@COleControl@@UAEKXZ 5f541473 f ctlnownd.obj
 0001:0004048b       ?OnInactiveSetCursor@COleControl@@UAEHPBUtagRECT@@JJKH@Z 5f54148b f ctlnownd.obj
 0001:00040539       ?OnInactiveMouseMove@COleControl@@UAEXPBUtagRECT@@JJK@Z 5f541539 f ctlnownd.obj
 0001:000405a9       ?AddRef@XPointerInactive@COleControl@@UAGKXZ 5f5415a9 f ctlnownd.obj
 0001:000405d1       ?Release@XPointerInactive@COleControl@@UAGKXZ 5f5415d1 f ctlnownd.obj
 0001:000405f9       ?QueryInterface@XPointerInactive@COleControl@@UAGJABU_GUID@@PAPAX@Z 5f5415f9 f ctlnownd.obj
 0001:00040629       ?GetActivationPolicy@XPointerInactive@COleControl@@UAGJPAK@Z 5f541629 f ctlnownd.obj
 0001:0004065e       ?OnInactiveSetCursor@XPointerInactive@COleControl@@UAGJPBUtagRECT@@JJKH@Z 5f54165e f ctlnownd.obj
 0001:000406b4       ?OnInactiveMouseMove@XPointerInactive@COleControl@@UAGJPBUtagRECT@@JJK@Z 5f5416b4 f ctlnownd.obj
 0001:000406f4       ?OnWindowlessMessage@COleControl@@UAEHIIJPAJ@Z 5f5416f4 f ctlnownd.obj
 0001:000407a7       ?GetWindowlessDropTarget@COleControl@@UAEPAUIDropTarget@@XZ 5f5417a7 f ctlnownd.obj
 0001:000407bf       ?OnWindowMessage@XOleInPlaceObject@COleControl@@UAGJIIJPAJ@Z 5f5417bf f ctlnownd.obj
 0001:00040811       ?GetDropTarget@XOleInPlaceObject@COleControl@@UAGJPAPAUIDropTarget@@@Z 5f541811 f ctlnownd.obj
 0001:0004085c       ?SetCapture@COleControl@@QAEPAVCWnd@@XZ 5f54185c f ctlnownd.obj
 0001:00040921       ?ReleaseCapture@COleControl@@QAEHXZ 5f541921 f ctlnownd.obj
 0001:000409ea       ?GetCapture@COleControl@@QAEPAVCWnd@@XZ 5f5419ea f ctlnownd.obj
 0001:00040aae       ?SetFocus@COleControl@@QAEPAVCWnd@@XZ 5f541aae f ctlnownd.obj
 0001:00040b73       ?GetFocus@COleControl@@QAEPAVCWnd@@XZ 5f541b73 f ctlnownd.obj
 0001:00040c37       ?GetDC@COleControl@@QAEPAVCDC@@PBUtagRECT@@K@Z 5f541c37 f ctlnownd.obj
 0001:00040e89       ?ReleaseDC@COleControl@@QAEHPAVCDC@@@Z 5f541e89 f ctlnownd.obj
 0001:00040fb1       ?InvalidateRgn@COleControl@@QAEXPAVCRgn@@H@Z 5f541fb1 f ctlnownd.obj
 0001:00041114       ?ScrollWindow@COleControl@@QAEXHHPBUtagRECT@@0@Z 5f542114 f ctlnownd.obj
 0001:0004128c       ?ClipCaretRect@COleControl@@QAEHPAUtagRECT@@@Z 5f54228c f ctlnownd.obj
 0001:0004136c       ?GetClientRect@COleControl@@UBEXPAUtagRECT@@@Z 5f54236c f ctlnownd.obj
 0001:000414f0       ??_GCWindowlessDC@@UAEPAXI@Z 5f5424f0 f ctlnownd.obj
 0001:000414f0       ??_ECWindowlessDC@@UAEPAXI@Z 5f5424f0 f ctlnownd.obj
 0001:00041530       ??1CWindowlessDC@@UAE@XZ   5f542530 f ctlnownd.obj
 0001:00041590       ??0CColorButton@@QAE@XZ    5f542590 f ppgcolor.obj
 0001:00041609       ?SetFaceColor@CColorButton@@QAEXK@Z 5f542609 f ppgcolor.obj
 0001:0004162a       ?colGetFaceColor@CColorButton@@QAEKXZ 5f54262a f ppgcolor.obj
 0001:00041646       ?SetState@CColorButton@@QAEXH@Z 5f542646 f ppgcolor.obj
 0001:00041667       ?DrawItem@CColorButton@@MAEXPAUtagDRAWITEMSTRUCT@@@Z 5f542667 f ppgcolor.obj
 0001:000418c4       ?_GetBaseMessageMap@CColorPropPage@@KGPBUAFX_MSGMAP@@XZ 5f5428c4 f ppgcolor.obj
 0001:000418d9       ?GetMessageMap@CColorPropPage@@MBEPBUAFX_MSGMAP@@XZ 5f5428d9 f ppgcolor.obj
 0001:000418f4       ??0CColorPropPage@@QAE@XZ  5f5428f4 f ppgcolor.obj
 0001:000419f1       ?OnInitDialog@CColorPropPage@@MAEHXZ 5f5429f1 f ppgcolor.obj
 0001:00041acd       ?FillSysColors@CColorPropPage@@IAEXXZ 5f542acd f ppgcolor.obj
 0001:00041ba6       ?DoDataExchange@CColorPropPage@@MAEXPAVCDataExchange@@@Z 5f542ba6 f ppgcolor.obj
 0001:00041dc5       ?SetColorProp@CColorPropPage@@IAEHPAVCDataExchange@@KPBG@Z 5f542dc5 f ppgcolor.obj
 0001:00041fb9       ?GetColorProp@CColorPropPage@@IAEHPAVCDataExchange@@PAKPBG@Z 5f542fb9 f ppgcolor.obj
 0001:00042194       ?OnSelect@CColorPropPage@@AAEXXZ 5f543194 f ppgcolor.obj
 0001:000421c1       ?SetButton@CColorPropPage@@AAEXPAVCColorButton@@@Z 5f5431c1 f ppgcolor.obj
 0001:00042249       ?OnSelchangeColorprop@CColorPropPage@@AAEXXZ 5f543249 f ppgcolor.obj
 0001:00042270       ?_AfxDraw3DFrame@@YAXPAVCDC@@VCRect@@KK@Z 5f543270 f ppgcolor.obj
 0001:000423e5       ?_AfxDraw3DButtonFrame@@YAXPAVCDC@@VCRect@@H@Z 5f5433e5 f ppgcolor.obj
 0001:000425ec       ?_AfxInitPalette@@YAPAUHPALETTE__@@XZ 5f5435ec f ppgcolor.obj
 0001:0004285b       ?OnSelchangeSystemcolors@CColorPropPage@@AAEXXZ 5f54385b f ppgcolor.obj
 0001:000428ae       ?OnEditProperty@CColorPropPage@@MAEHJ@Z 5f5438ae f ppgcolor.obj
 0001:000428db       ?OnObjectsChanged@CColorPropPage@@MAEXXZ 5f5438db f ppgcolor.obj
 0001:00042a36       ?GetClassID@CColorPropPage@@UAEJPAU_GUID@@@Z 5f543a36 f ppgcolor.obj
 0001:00042a6e       ?UpdateRegistry@CColorPropPageFactory@CColorPropPage@@UAEHH@Z 5f543a6e f ppgcolor.obj
 0001:00042ac0       ??_ECColorButton@@UAEPAXI@Z 5f543ac0 f ppgcolor.obj
 0001:00042ac0       ??_GCColorButton@@UAEPAXI@Z 5f543ac0 f ppgcolor.obj
 0001:00042b00       ??1CColorButton@@UAE@XZ    5f543b00 f ppgcolor.obj
 0001:00042b60       ??_ECColorPropPage@@UAEPAXI@Z 5f543b60 f ppgcolor.obj
 0001:00042b60       ??_GCColorPropPage@@UAEPAXI@Z 5f543b60 f ppgcolor.obj
 0001:00042ba0       ??1CStockPropPage@@UAE@XZ  5f543ba0 f ppgcolor.obj
 0001:00042c20       ??1CColorPropPage@@UAE@XZ  5f543c20 f ppgcolor.obj
 0001:00042ce0       ??0CColorPropPageFactory@CColorPropPage@@QAE@ABU_GUID@@PAUCRuntimeClass@@HPBG@Z 5f543ce0 f ppgcolor.obj
 0001:00042d70       ??_ECColorPropPageFactory@CColorPropPage@@UAEPAXI@Z 5f543d70 f ppgcolor.obj
 0001:00042d70       ??_GCColorPropPageFactory@CColorPropPage@@UAEPAXI@Z 5f543d70 f ppgcolor.obj
 0001:00042db0       ??1CColorPropPageFactory@CColorPropPage@@UAE@XZ 5f543db0 f ppgcolor.obj
 0001:00042e10       ?_GetBaseMessageMap@CFontPropPage@@KGPBUAFX_MSGMAP@@XZ 5f543e10 f ppgfont.obj
 0001:00042e25       ?GetMessageMap@CFontPropPage@@MBEPBUAFX_MSGMAP@@XZ 5f543e25 f ppgfont.obj
 0001:00042e40       ??0CFontPropPage@@QAE@XZ   5f543e40 f ppgfont.obj
 0001:00042fa0       ?_AfxStringFromCy@@YAHAAVCString@@AATtagCY@@@Z 5f543fa0 f ppgfont.obj
 0001:00043035       ?_AfxCyFromString@@YAHAATtagCY@@PBG@Z 5f544035 f ppgfont.obj
 0001:000430db       ?_AfxDrawMaskedBitmap@@YAXPAVCDC@@PAVCBitmap@@1HHHH@Z 5f5440db f ppgfont.obj
 0001:00043229       ?_AfxInitMaskFromBitmap@@YAXPAVCBitmap@@0@Z 5f544229 f ppgfont.obj
 0001:00043341       ?DoDataExchange@CFontPropPage@@MAEXPAVCDataExchange@@@Z 5f544341 f ppgfont.obj
 0001:000436a1       ?SetFontProps@CFontPropPage@@IAEHPAVCDataExchange@@UtagFONTOBJECT@@PBG@Z 5f5446a1 f ppgfont.obj
 0001:000439cf       ?GetFontProps@CFontPropPage@@IAEHPAVCDataExchange@@PAUtagFONTOBJECT@@PBGPAUtagMERGEOBJECT@@@Z 5f5449cf f ppgfont.obj
 0001:00043d7f       ?OnInitDialog@CFontPropPage@@MAEHXZ 5f544d7f f ppgfont.obj
 0001:00043dbd       ?FillFacenameList@CFontPropPage@@IAEXXZ 5f544dbd f ppgfont.obj
 0001:00043ece       ?EnumFontFamiliesCallBack@CFontPropPage@@KGHPAUtagENUMLOGFONTW@@PAUtagNEWTEXTMETRICW@@HJ@Z 5f544ece f ppgfont.obj
 0001:00043f26       ?FillSizeList@CFontPropPage@@IAEXXZ 5f544f26 f ppgfont.obj
 0001:0004438d       ?EnumFontFamiliesCallBack2@CFontPropPage@@KGHPAUtagENUMLOGFONTW@@PAUtagNEWTEXTMETRICW@@HJ@Z 5f54538d f ppgfont.obj
 0001:000444da       ??0CFontComboBox@@QAE@XZ   5f5454da f ppgfont.obj
 0001:000445a5       ??1CFontComboBox@@UAE@XZ   5f5455a5 f ppgfont.obj
 0001:0004463f       ?AddFont@CFontComboBox@@QAEHPAUtagLOGFONTW@@K@Z 5f54563f f ppgfont.obj
 0001:000447aa       ?GetFontItem@CFontComboBox@@QAEPAUFONTITEM_PPG@@H@Z 5f5457aa f ppgfont.obj
 0001:00044899       ?GetLogFont@CFontComboBox@@QAEPAUtagLOGFONTW@@H@Z 5f545899 f ppgfont.obj
 0001:000448c0       ?GetFontType@CFontComboBox@@QAEKH@Z 5f5458c0 f ppgfont.obj
 0001:000448e6       ?GetCurrentName@CFontComboBox@@QAE?AVCString@@XZ 5f5458e6 f ppgfont.obj
 0001:00044981       ?DrawItem@CFontComboBox@@UAEXPAUtagDRAWITEMSTRUCT@@@Z 5f545981 f ppgfont.obj
 0001:00044b40       ?DeleteItem@CFontComboBox@@UAEXPAUtagDELETEITEMSTRUCT@@@Z 5f545b40 f ppgfont.obj
 0001:00044bda       ?AddSize@CSizeComboBox@@QAEHHJ@Z 5f545bda f ppgfont.obj
 0001:00044dc2       ?GetPointSize@CSizeComboBox@@QAEXAATtagCY@@@Z 5f545dc2 f ppgfont.obj
 0001:00044e0b       ?GetHeight@CSizeComboBox@@QAEJH@Z 5f545e0b f ppgfont.obj
 0001:00044edb       ?UpdateLogFont@CSizeComboBox@@QAEXPAUtagLOGFONTW@@H@Z 5f545edb f ppgfont.obj
 0001:00044f30       ?OnEditupdateFontnames@CFontPropPage@@IAEXXZ 5f545f30 f ppgfont.obj
 0001:00044ff6       ?OnEditupdateFontsizes@CFontPropPage@@IAEXXZ 5f545ff6 f ppgfont.obj
 0001:0004507b       ?OnSelchangeFontnames@CFontPropPage@@IAEXXZ 5f54607b f ppgfont.obj
 0001:00045099       ?UpdateSampleFont@CFontPropPage@@IAEXXZ 5f546099 f ppgfont.obj
 0001:000451c8       ?OnPaint@CFontPropPage@@MAEXXZ 5f5461c8 f ppgfont.obj
 0001:00045436       ?OnSelchangeFontsizes@CFontPropPage@@IAEXXZ 5f546436 f ppgfont.obj
 0001:0004548a       ?OnSelchangeFontstyles@CFontPropPage@@IAEXXZ 5f54648a f ppgfont.obj
 0001:000454e6       ?OnEditchangeFontstyles@CFontPropPage@@IAEXXZ 5f5464e6 f ppgfont.obj
 0001:000455d9       ?SelectFontFromList@CFontPropPage@@IAEXVCString@@PAUtagMERGEOBJECT@@@Z 5f5465d9 f ppgfont.obj
 0001:000457ef       ?OnStrikeout@CFontPropPage@@IAEXXZ 5f5467ef f ppgfont.obj
 0001:0004584d       ?OnUnderline@CFontPropPage@@IAEXXZ 5f54684d f ppgfont.obj
 0001:000458ab       ?OnSelchangeFontprop@CFontPropPage@@IAEXXZ 5f5468ab f ppgfont.obj
 0001:000458d2       ?OnEditProperty@CFontPropPage@@MAEHJ@Z 5f5468d2 f ppgfont.obj
 0001:000458ff       ?OnObjectsChanged@CFontPropPage@@MAEXXZ 5f5468ff f ppgfont.obj
 0001:00045a7b       ?GetClassID@CFontPropPage@@UAEJPAU_GUID@@@Z 5f546a7b f ppgfont.obj
 0001:00045ab3       ?UpdateRegistry@CFontPropPageFactory@CFontPropPage@@UAEHH@Z 5f546ab3 f ppgfont.obj
 0001:00045b10       ??_GCFontPropPage@@UAEPAXI@Z 5f546b10 f ppgfont.obj
 0001:00045b10       ??_ECFontPropPage@@UAEPAXI@Z 5f546b10 f ppgfont.obj
 0001:00045b50       ??0CSizeComboBox@@QAE@XZ   5f546b50 f ppgfont.obj
 0001:00045bc0       ??1CSizeComboBox@@UAE@XZ   5f546bc0 f ppgfont.obj
 0001:00045c20       ??1CFontPropPage@@UAE@XZ   5f546c20 f ppgfont.obj
 0001:00045d50       ??_GCSizeComboBox@@UAEPAXI@Z 5f546d50 f ppgfont.obj
 0001:00045d50       ??_ECSizeComboBox@@UAEPAXI@Z 5f546d50 f ppgfont.obj
 0001:00045d90       ??0tagFONTOBJECT@@QAE@XZ   5f546d90 f ppgfont.obj
 0001:00045e00       ??1tagFONTOBJECT@@QAE@XZ   5f546e00 f ppgfont.obj
 0001:00045e60       ??0tagFONTOBJECT@@QAE@ABU0@@Z 5f546e60 f ppgfont.obj
 0001:00045f20       ??_GCFontComboBox@@UAEPAXI@Z 5f546f20 f ppgfont.obj
 0001:00045f20       ??_ECFontComboBox@@UAEPAXI@Z 5f546f20 f ppgfont.obj
 0001:00045f60       ??_9@$BOM@AE               5f546f60 f ppgfont.obj
 0001:00045f70       ??0CFontPropPageFactory@CFontPropPage@@QAE@ABU_GUID@@PAUCRuntimeClass@@HPBG@Z 5f546f70 f ppgfont.obj
 0001:00046000       ??_ECFontPropPageFactory@CFontPropPage@@UAEPAXI@Z 5f547000 f ppgfont.obj
 0001:00046000       ??_GCFontPropPageFactory@CFontPropPage@@UAEPAXI@Z 5f547000 f ppgfont.obj
 0001:00046040       ??1CFontPropPageFactory@CFontPropPage@@UAE@XZ 5f547040 f ppgfont.obj
 0001:000460a0       ?_GetBaseMessageMap@CPicturePropPage@@KGPBUAFX_MSGMAP@@XZ 5f5470a0 f ppgpict.obj
 0001:000460b5       ?GetMessageMap@CPicturePropPage@@MBEPBUAFX_MSGMAP@@XZ 5f5470b5 f ppgpict.obj
 0001:000460d0       ??0CPicturePropPage@@QAE@XZ 5f5470d0 f ppgpict.obj
 0001:00046198       ??1CPicturePropPage@@UAE@XZ 5f547198 f ppgpict.obj
 0001:0004626d       ?OnInitDialog@CPicturePropPage@@MAEHXZ 5f54726d f ppgpict.obj
 0001:000462d7       ?DoDataExchange@CPicturePropPage@@MAEXPAVCDataExchange@@@Z 5f5472d7 f ppgpict.obj
 0001:000463bd       ?SetPictureProp@CPicturePropPage@@IAEHPAVCDataExchange@@PAUIPictureDisp@@PBG@Z 5f5473bd f ppgpict.obj
 0001:00046589       ?GetPictureProp@CPicturePropPage@@IAEHPAVCDataExchange@@PAPAUIPictureDisp@@PBG@Z 5f547589 f ppgpict.obj
 0001:00046798       ?OnPaint@CPicturePropPage@@IAEXXZ 5f547798 f ppgpict.obj
 0001:00046a36       ?_AfxCreateStreamOnFile@@YAJPBGPAPAUIStream@@PAJ@Z 5f547a36 f ppgpict.obj
 0001:00046c90       ?OnBrowse@CPicturePropPage@@IAEXXZ 5f547c90 f ppgpict.obj
 0001:0004707f       ?OnClear@CPicturePropPage@@IAEXXZ 5f54807f f ppgpict.obj
 0001:000470db       ?ChangePicture@CPicturePropPage@@IAEXPAUIPicture@@@Z 5f5480db f ppgpict.obj
 0001:000471d3       ?OnSelchangePictProp@CPicturePropPage@@IAEXXZ 5f5481d3 f ppgpict.obj
 0001:00047293       ?OnEditProperty@CPicturePropPage@@MAEHJ@Z 5f548293 f ppgpict.obj
 0001:000472c0       ?OnObjectsChanged@CPicturePropPage@@MAEXXZ 5f5482c0 f ppgpict.obj
 0001:000473bd       ?GetClassID@CPicturePropPage@@UAEJPAU_GUID@@@Z 5f5483bd f ppgpict.obj
 0001:000473f5       ?UpdateRegistry@CPicturePropPageFactory@CPicturePropPage@@UAEHH@Z 5f5483f5 f ppgpict.obj
 0001:00047450       ??_GCPicturePropPage@@UAEPAXI@Z 5f548450 f ppgpict.obj
 0001:00047450       ??_ECPicturePropPage@@UAEPAXI@Z 5f548450 f ppgpict.obj
 0001:00047490       ??0CFileStatus@@QAE@XZ     5f548490 f ppgpict.obj
 0001:000474d0       ??1CFileDialog@@UAE@XZ     5f5484d0 f ppgpict.obj
 0001:00047550       ??0CPicturePropPageFactory@CPicturePropPage@@QAE@ABU_GUID@@PAUCRuntimeClass@@HPBG@Z 5f548550 f ppgpict.obj
 0001:000475e0       ??_GCPicturePropPageFactory@CPicturePropPage@@UAEPAXI@Z 5f5485e0 f ppgpict.obj
 0001:000475e0       ??_ECPicturePropPageFactory@CPicturePropPage@@UAEPAXI@Z 5f5485e0 f ppgpict.obj
 0001:00047620       ??1CPicturePropPageFactory@CPicturePropPage@@UAE@XZ 5f548620 f ppgpict.obj
 0001:00047680       ?_GetBaseMessageMap@CStockPropPage@@KGPBUAFX_MSGMAP@@XZ 5f548680 f ppgstock.obj
 0001:00047695       ?GetMessageMap@CStockPropPage@@MBEPBUAFX_MSGMAP@@XZ 5f548695 f ppgstock.obj
 0001:000476b0       ?_AfxSizeComboToContent@@YAXPAVCComboBox@@@Z 5f5486b0 f ppgstock.obj
 0001:00047745       ??0CStockPropPage@@QAE@II@Z 5f548745 f ppgstock.obj
 0001:000477ec       ?FillPropnameList@CStockPropPage@@IAEXABU_GUID@@HAAVCComboBox@@@Z 5f5487ec f ppgstock.obj
 0001:00047ad7       ?OnSelchangePropname@CStockPropPage@@IAEXAAVCComboBox@@@Z 5f548ad7 f ppgstock.obj
 0001:00047b6d       ?OnEditProperty@CStockPropPage@@IAEHJAAVCComboBox@@@Z 5f548b6d f ppgstock.obj
 0001:00047be9       ?AfxOleTypeMatchGuid@@YGHPAUITypeInfo@@PAUtagTYPEDESC@@ABU_GUID@@K@Z 5f548be9 f ppgstock.obj
 0001:00047de0       ??_ECStockPropPage@@UAEPAXI@Z 5f548de0 f ppgstock.obj
 0001:00047de0       ??_GCStockPropPage@@UAEPAXI@Z 5f548de0 f ppgstock.obj
 0001:00047e20       ?IsOptimizedDraw@COleControl@@QAEHXZ 5f548e20 f ctlinl.obj
 0001:00047e45       ?IsConvertingVBX@COleControl@@QAEHXZ 5f548e45 f ctlinl.obj
 0001:00047e6a       ?FireKeyDown@COleControl@@QAEXPAGF@Z 5f548e6a f ctlinl.obj
 0001:00047ea1       ?FireKeyUp@COleControl@@QAEXPAGF@Z 5f548ea1 f ctlinl.obj
 0001:00047ed8       ?FireKeyPress@COleControl@@QAEXPAG@Z 5f548ed8 f ctlinl.obj
 0001:00047f0a       ?FireMouseDown@COleControl@@QAEXFFJJ@Z 5f548f0a f ctlinl.obj
 0001:00047f4a       ?FireMouseUp@COleControl@@QAEXFFJJ@Z 5f548f4a f ctlinl.obj
 0001:00047f8a       ?FireMouseMove@COleControl@@QAEXFFJJ@Z 5f548f8a f ctlinl.obj
 0001:00047fca       ?FireClick@COleControl@@QAEXXZ 5f548fca f ctlinl.obj
 0001:00047ff3       ?FireDblClick@COleControl@@QAEXXZ 5f548ff3 f ctlinl.obj
 0001:0004801c       ?FireReadyStateChange@COleControl@@QAEXXZ 5f54901c f ctlinl.obj
 0001:00048052       ?InternalSetReadyState@COleControl@@QAEXJ@Z 5f549052 f ctlinl.obj
 0001:000480b9       ?ExchangeVersion@COleControl@@QAEHPAVCPropExchange@@KH@Z 5f5490b9 f ctlinl.obj
 0001:000480ea       ?GetStockEventMask@COleControl@@IBEKXZ 5f5490ea f ctlinl.obj
 0001:00048113       ?GetStockPropMask@COleControl@@IBEKXZ 5f549113 f ctlinl.obj
 0001:00048139       ?RequestAsynchronousExchange@COleControl@@QAEXK@Z 5f549139 f ctlinl.obj
 0001:0004816a       ??0CPropExchange@@IAE@XZ   5f54916a f ctlinl.obj
 0001:000481a0       ?IsLoading@CPropExchange@@QAEHXZ 5f5491a0 f ctlinl.obj
 0001:000481bc       ?GetVersion@CPropExchange@@QAEKXZ 5f5491bc f ctlinl.obj
 0001:000481d8       ?IsAsynchronous@CPropExchange@@QAEHXZ 5f5491d8 f ctlinl.obj
 0001:000481f4       ??0CDataPathProperty@@QAE@PAVCOleControl@@@Z 5f5491f4 f ctlinl.obj
 0001:00048289       ??0CDataPathProperty@@QAE@PBGPAVCOleControl@@@Z 5f549289 f ctlinl.obj
 0001:00048322       ?SetPath@CDataPathProperty@@QAEXPBG@Z 5f549322 f ctlinl.obj
 0001:00048359       ?GetPath@CDataPathProperty@@QBE?AVCString@@XZ 5f549359 f ctlinl.obj
 0001:000483da       ?GetControl@CDataPathProperty@@QAEPAVCOleControl@@XZ 5f5493da f ctlinl.obj
 0001:00048406       ?SetControl@CDataPathProperty@@QAEXPAVCOleControl@@@Z 5f549406 f ctlinl.obj
 0001:00048437       ??0CCachedDataPathProperty@@QAE@PAVCOleControl@@@Z 5f549437 f ctlinl.obj
 0001:000484cc       ??0CCachedDataPathProperty@@QAE@PBGPAVCOleControl@@@Z 5f5494cc f ctlinl.obj
 0001:00048565       ?DDP_LBString@@YGXPAVCDataExchange@@HAAVCString@@PBG@Z 5f549565 f ctlinl.obj
 0001:0004858c       ?DDP_LBStringExact@@YGXPAVCDataExchange@@HAAVCString@@PBG@Z 5f54958c f ctlinl.obj
 0001:000485b3       ?DDP_LBIndex@@YGXPAVCDataExchange@@HAAHPBG@Z 5f5495b3 f ctlinl.obj
 0001:000485da       ?DDP_CBString@@YGXPAVCDataExchange@@HAAVCString@@PBG@Z 5f5495da f ctlinl.obj
 0001:00048601       ?DDP_CBStringExact@@YGXPAVCDataExchange@@HAAVCString@@PBG@Z 5f549601 f ctlinl.obj
 0001:00048628       ?DDP_CBIndex@@YGXPAVCDataExchange@@HAAHPBG@Z 5f549628 f ctlinl.obj
 0001:00048650       ?AfxGetThreadState@@YGPAV_AFX_THREAD_STATE@@XZ 5f549650 f MFC42UD:MFC42uD.DLL
 0001:00048656       ?AfxAssertFailedLine@@YGHPBDH@Z 5f549656 f MFC42UD:MFC42uD.DLL
 0001:0004865c       ?AfxSetModuleState@@YGPAVAFX_MODULE_STATE@@PAV1@@Z 5f54965c f MFC42UD:MFC42uD.DLL
 0001:00048662       ?AfxGetModuleState@@YGPAVAFX_MODULE_STATE@@XZ 5f549662 f MFC42UD:MFC42uD.DLL
 0001:00048668       ??3CObject@@SGXPAX@Z       5f549668 f MFC42UD:MFC42uD.DLL
 0001:0004866e       ?AfxTermThread@@YGXPAUHINSTANCE__@@@Z 5f54966e f MFC42UD:MFC42uD.DLL
 0001:00048674       ?AfxTermExtensionModule@@YGXAAUAFX_EXTENSION_MODULE@@H@Z 5f549674 f MFC42UD:MFC42uD.DLL
 0001:0004867a       ??0CDynLinkLibrary@@QAE@AAUAFX_EXTENSION_MODULE@@H@Z 5f54967a f MFC42UD:MFC42uD.DLL
 0001:00048680       ??2CObject@@SGPAXI@Z       5f549680 f MFC42UD:MFC42uD.DLL
 0001:00048686       ?AfxWinInit@@YGHPAUHINSTANCE__@@0PAGH@Z 5f549686 f MFC42UD:MFC42uD.DLL
 0001:0004868c       ?AfxCoreInitModule@@YGXXZ  5f54968c f MFC42UD:MFC42uD.DLL
 0001:00048692       ?AfxInitExtensionModule@@YGHAAUAFX_EXTENSION_MODULE@@PAUHINSTANCE__@@@Z 5f549692 f MFC42UD:MFC42uD.DLL
 0001:00048698       ?AfxGetAppModuleState@@YGPAVAFX_MODULE_STATE@@XZ 5f549698 f MFC42UD:MFC42uD.DLL
 0001:0004869e       ??1AFX_MAINTAIN_STATE@@QAE@XZ 5f54969e f MFC42UD:MFC42uD.DLL
 0001:000486a4       ??0AFX_MAINTAIN_STATE@@QAE@PAVAFX_MODULE_STATE@@@Z 5f5496a4 f MFC42UD:MFC42uD.DLL
 0001:000486aa       ??0CWinApp@@QAE@PBG@Z      5f5496aa f MFC42UD:MFC42uD.DLL
 0001:000486b0       ??1CWinApp@@UAE@XZ         5f5496b0 f MFC42UD:MFC42uD.DLL
 0001:000486b6       ?AfxWndProc@@YGJPAUHWND__@@IIJ@Z 5f5496b6 f MFC42UD:MFC42uD.DLL
 0001:000486bc       ??0AFX_MODULE_STATE@@QAE@HP6GJPAUHWND__@@IIJ@ZKH@Z 5f5496bc f MFC42UD:MFC42uD.DLL
 0001:000486c2       ??1AFX_MODULE_STATE@@UAE@XZ 5f5496c2 f MFC42UD:MFC42uD.DLL
 0001:000486c8       ??3@YAXPAX@Z               5f5496c8 f MFC42UD:MFC42uD.DLL
 0001:000486ce       ??2@YAPAXI@Z               5f5496ce f MFC42UD:MFC42uD.DLL
 0001:000486d4       ??1CCmdTarget@@UAE@XZ      5f5496d4 f MFC42UD:MFC42uD.DLL
 0001:000486da       ??1CMemFile@@UAE@XZ        5f5496da f MFC42UD:MFC42uD.DLL
 0001:000486e0       ??1CString@@QAE@XZ         5f5496e0 f MFC42UD:MFC42uD.DLL
 0001:000486e6       ??1CDC@@UAE@XZ             5f5496e6 f MFC42UD:MFC42uD.DLL
 0001:000486ec       ??1CDWordArray@@UAE@XZ     5f5496ec f MFC42UD:MFC42uD.DLL
 0001:000486f2       ??1CView@@UAE@XZ           5f5496f2 f MFC42UD:MFC42uD.DLL
 0001:000486f8       ?AfxOleGetMessageFilter@@YGPAVCOleMessageFilter@@XZ 5f5496f8 f MFC42UD:MFC42uD.DLL
 0001:000486fe       ??2CObject@@SGPAXIPBDH@Z   5f5496fe f MFC42UD:MFC42uD.DLL
 0001:00048704       ?AfxGetThread@@YGPAVCWinThread@@XZ 5f549704 f MFC42UD:MFC42uD.DLL
 0001:0004870a       ?AfxTrace@@YAXPBGZZ        5f54970a f MFC42UD:MFC42uD.DLL
 0001:00048710       ?AfxOleSetUserCtrl@@YGXH@Z 5f549710 f MFC42UD:MFC42uD.DLL
 0001:00048716       ?GetConnectionHook@CCmdTarget@@MAEPAUIConnectionPoint@@ABU_GUID@@@Z 5f549716 f MFC42UD:MFC42uD.DLL
 0001:0004871c       ?GetExtraConnectionPoints@CCmdTarget@@MAEHPAVCPtrArray@@@Z 5f54971c f MFC42UD:MFC42uD.DLL
 0001:00048722       ?GetInterfaceHook@CCmdTarget@@UAEPAUIUnknown@@PBX@Z 5f549722 f MFC42UD:MFC42uD.DLL
 0001:00048728       ?OnCreateAggregates@CCmdTarget@@UAEHXZ 5f549728 f MFC42UD:MFC42uD.DLL
 0001:0004872e       ?GetEventSinkMap@CCmdTarget@@MBEPBUAFX_EVENTSINKMAP@@XZ 5f54972e f MFC42UD:MFC42uD.DLL
 0001:00048734       ?GetConnectionMap@CCmdTarget@@MBEPBUAFX_CONNECTIONMAP@@XZ 5f549734 f MFC42UD:MFC42uD.DLL
 0001:0004873a       ?GetDispatchMap@CCmdTarget@@MBEPBUAFX_DISPMAP@@XZ 5f54973a f MFC42UD:MFC42uD.DLL
 0001:00048740       ?GetCommandMap@CCmdTarget@@MBEPBUAFX_OLECMDMAP@@XZ 5f549740 f MFC42UD:MFC42uD.DLL
 0001:00048746       ?GetMessageMap@CCmdTarget@@MBEPBUAFX_MSGMAP@@XZ 5f549746 f MFC42UD:MFC42uD.DLL
 0001:0004874c       ?GetTypeLib@CCmdTarget@@UAEJKPAPAUITypeLib@@@Z 5f54974c f MFC42UD:MFC42uD.DLL
 0001:00048752       ?GetTypeLibCache@CCmdTarget@@UAEPAVCTypeLibCache@@XZ 5f549752 f MFC42UD:MFC42uD.DLL
 0001:00048758       ?GetTypeInfoCount@CCmdTarget@@UAEIXZ 5f549758 f MFC42UD:MFC42uD.DLL
 0001:0004875e       ?GetDispatchIID@CCmdTarget@@UAEHPAU_GUID@@@Z 5f54975e f MFC42UD:MFC42uD.DLL
 0001:00048764       ?IsInvokeAllowed@CCmdTarget@@UAEHJ@Z 5f549764 f MFC42UD:MFC42uD.DLL
 0001:0004876a       ?OnFinalRelease@CCmdTarget@@UAEXXZ 5f54976a f MFC42UD:MFC42uD.DLL
 0001:00048770       ?OnCmdMsg@CCmdTarget@@UAEHIHPAXPAUAFX_CMDHANDLERINFO@@@Z 5f549770 f MFC42UD:MFC42uD.DLL
 0001:00048776       ?AfxOleLockApp@@YGXXZ      5f549776 f MFC42UD:MFC42uD.DLL
 0001:0004877c       ?AfxAssertValidObject@@YGXPBVCObject@@PBDH@Z 5f54977c f MFC42UD:MFC42uD.DLL
 0001:00048782       ?AfxOleUnlockApp@@YGXXZ    5f549782 f MFC42UD:MFC42uD.DLL
 0001:00048788       ?Delete@CException@@QAEXXZ 5f549788 f MFC42UD:MFC42uD.DLL
 0001:0004878e       ?IsKindOf@CObject@@QBEHPBUCRuntimeClass@@@Z 5f54978e f MFC42UD:MFC42uD.DLL
 0001:00048794       ?AfxGetAppName@@YGPBGXZ    5f549794 f MFC42UD:MFC42uD.DLL
 0001:0004879a       ??BCString@@QBEPBGXZ       5f54979a f MFC42UD:MFC42uD.DLL
 0001:000487a0       ?GetTitle@CDocument@@QBEABVCString@@XZ 5f5497a0 f MFC42UD:MFC42uD.DLL
 0001:000487a6       ?AfxIsValidAddress@@YGHPBXIH@Z 5f5497a6 f MFC42UD:MFC42uD.DLL
 0001:000487ac       ?AfxThrowArchiveException@@YGXHPBG@Z 5f5497ac f MFC42UD:MFC42uD.DLL
 0001:000487b2       ?Read@CArchive@@QAEIPAXI@Z 5f5497b2 f MFC42UD:MFC42uD.DLL
 0001:000487b8       ?AfxThrowMemoryException@@YGXXZ 5f5497b8 f MFC42UD:MFC42uD.DLL
 0001:000487be       ??5CArchive@@QAEAAV0@AAK@Z 5f5497be f MFC42UD:MFC42uD.DLL
 0001:000487c4       ?Write@CArchive@@QAEXPBXI@Z 5f5497c4 f MFC42UD:MFC42uD.DLL
 0001:000487ca       ??6CArchive@@QAEAAV0@K@Z   5f5497ca f MFC42UD:MFC42uD.DLL
 0001:000487d0       ??5CArchive@@QAEAAV0@AAG@Z 5f5497d0 f MFC42UD:MFC42uD.DLL
 0001:000487d6       ??6CArchive@@QAEAAV0@G@Z   5f5497d6 f MFC42UD:MFC42uD.DLL
 0001:000487dc       ?IsStoring@CArchive@@QBEHXZ 5f5497dc f MFC42UD:MFC42uD.DLL
 0001:000487e2       ?GetClientRect@CWnd@@QBEXPAUtagRECT@@@Z 5f5497e2 f MFC42UD:MFC42uD.DLL
 0001:000487e8       ?IsEmpty@CString@@QBEHXZ   5f5497e8 f MFC42UD:MFC42uD.DLL
 0001:000487ee       ?GetPathName@CDocument@@QBEABVCString@@XZ 5f5497ee f MFC42UD:MFC42uD.DLL
 0001:000487f4       ?GetParentFrame@CWnd@@QBEPAVCFrameWnd@@XZ 5f5497f4 f MFC42UD:MFC42uD.DLL
 0001:000487fa       ?AfxGetFileTitle@@YGIPBGPAGI@Z 5f5497fa f MFC42UD:MFC42uD.DLL
 0001:00048800       ?IsPrinting@CDC@@QBEHXZ    5f549800 f MFC42UD:MFC42uD.DLL
 0001:00048806       ?GetWindowExt@CDC@@QBE?AVCSize@@XZ 5f549806 f MFC42UD:MFC42uD.DLL
 0001:0004880c       ?GetWindowOrg@CDC@@QBE?AVCPoint@@XZ 5f54980c f MFC42UD:MFC42uD.DLL
 0001:00048812       ?DPtoHIMETRIC@CDC@@QBEXPAUtagSIZE@@@Z 5f549812 f MFC42UD:MFC42uD.DLL
 0001:00048818       ?AfxIsValidString@@YGHPBGH@Z 5f549818 f MFC42UD:MFC42uD.DLL
 0001:0004881e       ??6CDumpContext@@QAEAAV0@PBX@Z 5f54981e f MFC42UD:MFC42uD.DLL
 0001:00048824       ??6CDumpContext@@QAEAAV0@PBD@Z 5f549824 f MFC42UD:MFC42uD.DLL
 0001:0004882a       ??6CDumpContext@@QAEAAV0@K@Z 5f54982a f MFC42UD:MFC42uD.DLL
 0001:00048830       ??6CDumpContext@@QAEAAV0@H@Z 5f549830 f MFC42UD:MFC42uD.DLL
 0001:00048836       ??6CDumpContext@@QAEAAV0@E@Z 5f549836 f MFC42UD:MFC42uD.DLL
 0001:0004883c       ??6CDumpContext@@QAEAAV0@J@Z 5f54983c f MFC42UD:MFC42uD.DLL
 0001:00048842       ?Dump@CCmdTarget@@UBEXAAVCDumpContext@@@Z 5f549842 f MFC42UD:MFC42uD.DLL
 0001:00048848       ?AssertValid@CCmdTarget@@UBEXXZ 5f549848 f MFC42UD:MFC42uD.DLL
 0001:0004884e       ?Serialize@CObject@@UAEXAAVCArchive@@@Z 5f54984e f MFC42UD:MFC42uD.DLL
 0001:00048854       ?GetRuntimeClass@CCmdTarget@@UBEPAUCRuntimeClass@@XZ 5f549854 f MFC42UD:MFC42uD.DLL
 0001:0004885a       ??0CString@@QAE@XZ         5f54985a f MFC42UD:MFC42uD.DLL
 0001:00048860       ??0CCmdTarget@@QAE@XZ      5f549860 f MFC42UD:MFC42uD.DLL
 0001:00048866       ?DelayUpdateFrameTitle@CFrameWnd@@QAEXXZ 5f549866 f MFC42UD:MFC42uD.DLL
 0001:0004886c       ?IsWindowEnabled@CWnd@@QBEHXZ 5f54986c f MFC42UD:MFC42uD.DLL
 0001:00048872       ?SendMessageW@CWnd@@QAEJIIJ@Z 5f549872 f MFC42UD:MFC42uD.DLL
 0001:00048878       ?GetSafeHwnd@CWnd@@QBEPAUHWND__@@XZ 5f549878 f MFC42UD:MFC42uD.DLL
 0001:0004887e       ?AfxIsDescendant@@YGHPAUHWND__@@0@Z 5f54987e f MFC42UD:MFC42uD.DLL
 0001:00048884       ?AfxGetApp@@YGPAVCWinApp@@XZ 5f549884 f MFC42UD:MFC42uD.DLL
 0001:0004888a       ?GetDocument@CView@@QBEPAVCDocument@@XZ 5f54988a f MFC42UD:MFC42uD.DLL
 0001:00048890       ?ModifyStyle@CWnd@@QAEHKKI@Z 5f549890 f MFC42UD:MFC42uD.DLL
 0001:00048896       ?GetStyle@CWnd@@QBEKXZ     5f549896 f MFC42UD:MFC42uD.DLL
 0001:0004889c       ?ShowControlBar@CFrameWnd@@QAEXPAVCControlBar@@HH@Z 5f54989c f MFC42UD:MFC42uD.DLL
 0001:000488a2       ?GetBarStyle@CControlBar@@QAEKXZ 5f5498a2 f MFC42UD:MFC42uD.DLL
 0001:000488a8       ?GetNext@CPtrList@@QAEAAPAXAAPAU__POSITION@@@Z 5f5498a8 f MFC42UD:MFC42uD.DLL
 0001:000488ae       ?GetHeadPosition@CPtrList@@QBEPAU__POSITION@@XZ 5f5498ae f MFC42UD:MFC42uD.DLL
 0001:000488b4       ?GetDocTemplate@CDocument@@QBEPAVCDocTemplate@@XZ 5f5498b4 f MFC42UD:MFC42uD.DLL
 0001:000488ba       ?GetTopLevelFrame@CWnd@@QBEPAVCFrameWnd@@XZ 5f5498ba f MFC42UD:MFC42uD.DLL
 0001:000488c0       ?GetParentSplitter@CView@@SGPAVCSplitterWnd@@PBVCWnd@@H@Z 5f5498c0 f MFC42UD:MFC42uD.DLL
 0001:000488c6       ?SetFocus@CWnd@@QAEPAV1@XZ 5f5498c6 f MFC42UD:MFC42uD.DLL
 0001:000488cc       ?GetTopLevelParent@CWnd@@QBEPAV1@XZ 5f5498cc f MFC42UD:MFC42uD.DLL
 0001:000488d2       ?AfxGetMainWnd@@YGPAVCWnd@@XZ 5f5498d2 f MFC42UD:MFC42uD.DLL
 0001:000488d8       ?DelayRecalcLayout@CFrameWnd@@QAEXH@Z 5f5498d8 f MFC42UD:MFC42uD.DLL
 0001:000488de       ?IsRectEmpty@CRect@@QBEHXZ 5f5498de f MFC42UD:MFC42uD.DLL
 0001:000488e4       ?IntersectRect@CRect@@QAEHPBUtagRECT@@0@Z 5f5498e4 f MFC42UD:MFC42uD.DLL
 0001:000488ea       ??BCRect@@QAEPAUtagRECT@@XZ 5f5498ea f MFC42UD:MFC42uD.DLL
 0001:000488f0       ??BCRect@@QBEPBUtagRECT@@XZ 5f5498f0 f MFC42UD:MFC42uD.DLL
 0001:000488f6       ??0CRect@@QAE@XZ           5f5498f6 f MFC42UD:MFC42uD.DLL
 0001:000488fc       ?GetSafeHmenu@CMenu@@QBEPAUHMENU__@@XZ 5f5498fc f MFC42UD:MFC42uD.DLL
 0001:00048902       ?FromHandle@CWnd@@SGPAV1@PAUHWND__@@@Z 5f549902 f MFC42UD:MFC42uD.DLL
 0001:00048908       ?PostMessageW@CWnd@@QAEHIIJ@Z 5f549908 f MFC42UD:MFC42uD.DLL
 0001:0004890e       ?CanEnterHelpMode@CFrameWnd@@QAEHXZ 5f54990e f MFC42UD:MFC42uD.DLL
 0001:00048914       ??4CString@@QAEABV0@PBG@Z  5f549914 f MFC42UD:MFC42uD.DLL
 0001:0004891a       ?Empty@CString@@QAEXXZ     5f54991a f MFC42UD:MFC42uD.DLL
 0001:00048920       ?FromHandle@CMenu@@SGPAV1@PAUHMENU__@@@Z 5f549920 f MFC42UD:MFC42uD.DLL
 0001:00048926       ??0CSize@@QAE@UtagSIZE@@@Z 5f549926 f MFC42UD:MFC42uD.DLL
 0001:0004892c       ?CopyRect@CRect@@QAEXPBUtagRECT@@@Z 5f54992c f MFC42UD:MFC42uD.DLL
 0001:00048932       ?GetData@CProcessLocalObject@@QAEPAVCNoTrackObject@@P6GPAV2@XZ@Z 5f549932 f MFC42UD:MFC42uD.DLL
 0001:00048938       ??3CNoTrackObject@@SGXPAX@Z 5f549938 f MFC42UD:MFC42uD.DLL
 0001:0004893e       ??2CNoTrackObject@@SGPAXI@Z 5f54993e f MFC42UD:MFC42uD.DLL
 0001:00048944       ?SetRectEmpty@CRect@@QAEXXZ 5f549944 f MFC42UD:MFC42uD.DLL
 0001:0004894a       ?SetRect@CRect@@QAEXHHHH@Z 5f54994a f MFC42UD:MFC42uD.DLL
 0001:00048950       ??0CSize@@QAE@HH@Z         5f549950 f MFC42UD:MFC42uD.DLL
 0001:00048956       ?GetBufferSetLength@CString@@QAEPAGH@Z 5f549956 f MFC42UD:MFC42uD.DLL
 0001:0004895c       ?SetHandle@CSharedFile@@QAEXPAXH@Z 5f54995c f MFC42UD:MFC42uD.DLL
 0001:00048962       ??0CSharedFile@@QAE@II@Z   5f549962 f MFC42UD:MFC42uD.DLL
 0001:00048968       ??0CFile@@QAE@XZ           5f549968 f MFC42UD:MFC42uD.DLL
 0001:0004896e       ??2@YAPAXIPBDH@Z           5f54996e f MFC42UD:MFC42uD.DLL
 0001:00048974       ??1CSharedFile@@UAE@XZ     5f549974 f MFC42UD:MFC42uD.DLL
 0001:0004897a       ?Detach@CSharedFile@@QAEPAXXZ 5f54997a f MFC42UD:MFC42uD.DLL
 0001:00048980       ??6CDumpContext@@QAEAAV0@I@Z 5f549980 f MFC42UD:MFC42uD.DLL
 0001:00048986       ??6CDumpContext@@QAEAAV0@G@Z 5f549986 f MFC42UD:MFC42uD.DLL
 0001:0004898c       ?GetData@CString@@IBEPAUCStringData@@XZ 5f54998c f MFC42UD:MFC42uD.DLL
 0001:00048992       ?ReportError@CException@@UAEHII@Z 5f549992 f MFC42UD:MFC42uD.DLL
 0001:00048998       ?Dump@CObject@@UBEXAAVCDumpContext@@@Z 5f549998 f MFC42UD:MFC42uD.DLL
 0001:0004899e       ?AssertValid@CObject@@UBEXXZ 5f54999e f MFC42UD:MFC42uD.DLL
 0001:000489a4       ??1CException@@UAE@XZ      5f5499a4 f MFC42UD:MFC42uD.DLL
 0001:000489aa       ??3CException@@SGXPAX@Z    5f5499aa f MFC42UD:MFC42uD.DLL
 0001:000489b0       ?AfxLoadString@@YGHIPAGI@Z 5f5499b0 f MFC42UD:MFC42uD.DLL
 0001:000489b6       ??0CException@@QAE@XZ      5f5499b6 f MFC42UD:MFC42uD.DLL
 0001:000489bc       ?PreInitDialog@CDialog@@MAEXXZ 5f5499bc f MFC42UD:MFC42uD.DLL
 0001:000489c2       ?OnCancel@CCommonDialog@@MAEXXZ 5f5499c2 f MFC42UD:MFC42uD.DLL
 0001:000489c8       ?OnOK@CCommonDialog@@MAEXXZ 5f5499c8 f MFC42UD:MFC42uD.DLL
 0001:000489ce       ?OnSetFont@CDialog@@UAEXPAVCFont@@@Z 5f5499ce f MFC42UD:MFC42uD.DLL
 0001:000489d4       ?OnInitDialog@CDialog@@UAEHXZ 5f5499d4 f MFC42UD:MFC42uD.DLL
 0001:000489da       ?SetOccDialogInfo@CDialog@@MAEHPAU_AFX_OCC_DIALOG_INFO@@@Z 5f5499da f MFC42UD:MFC42uD.DLL
 0001:000489e0       ?IsFrameWnd@CWnd@@UBEHXZ   5f5499e0 f MFC42UD:MFC42uD.DLL
 0001:000489e6       ?CheckAutoCenter@CDialog@@UAEHXZ 5f5499e6 f MFC42UD:MFC42uD.DLL
 0001:000489ec       ?OnChildNotify@CWnd@@MAEHIIJPAJ@Z 5f5499ec f MFC42UD:MFC42uD.DLL
 0001:000489f2       ?PostNcDestroy@CWnd@@MAEXXZ 5f5499f2 f MFC42UD:MFC42uD.DLL
 0001:000489f8       ?DefWindowProcW@CWnd@@MAEJIIJ@Z 5f5499f8 f MFC42UD:MFC42uD.DLL
 0001:000489fe       ?OnWndMsg@CWnd@@MAEHIIJPAJ@Z 5f5499fe f MFC42UD:MFC42uD.DLL
 0001:00048a04       ?WindowProc@CWnd@@MAEJIIJ@Z 5f549a04 f MFC42UD:MFC42uD.DLL
 0001:00048a0a       ?OnAmbientProperty@CWnd@@UAEHPAVCOleControlSite@@JPAUtagVARIANT@@@Z 5f549a0a f MFC42UD:MFC42uD.DLL
 0001:00048a10       ?PreTranslateMessage@CDialog@@UAEHPAUtagMSG@@@Z 5f549a10 f MFC42UD:MFC42uD.DLL
 0001:00048a16       ?EndModalState@CWnd@@UAEXXZ 5f549a16 f MFC42UD:MFC42uD.DLL
 0001:00048a1c       ?BeginModalState@CWnd@@UAEXXZ 5f549a1c f MFC42UD:MFC42uD.DLL
 0001:00048a22       ?DoDataExchange@CWnd@@MAEXPAVCDataExchange@@@Z 5f549a22 f MFC42UD:MFC42uD.DLL
 0001:00048a28       ?GetSuperWndProcAddr@CWnd@@MAEPAP6GJPAUHWND__@@IIJ@ZXZ 5f549a28 f MFC42UD:MFC42uD.DLL
 0001:00048a2e       ?OnNotify@CWnd@@MAEHIJPAJ@Z 5f549a2e f MFC42UD:MFC42uD.DLL
 0001:00048a34       ?OnCommand@CWnd@@MAEHIJ@Z  5f549a34 f MFC42UD:MFC42uD.DLL
 0001:00048a3a       ?EndModalLoop@CWnd@@UAEXH@Z 5f549a3a f MFC42UD:MFC42uD.DLL
 0001:00048a40       ?ContinueModal@CWnd@@UAEHXZ 5f549a40 f MFC42UD:MFC42uD.DLL
 0001:00048a46       ?WinHelpW@CWnd@@UAEXKI@Z   5f549a46 f MFC42UD:MFC42uD.DLL
 0001:00048a4c       ?GetScrollBarCtrl@CWnd@@UBEPAVCScrollBar@@H@Z 5f549a4c f MFC42UD:MFC42uD.DLL
 0001:00048a52       ?OnToolHitTest@CWnd@@UBEHVCPoint@@PAUtagTOOLINFOW@@@Z 5f549a52 f MFC42UD:MFC42uD.DLL
 0001:00048a58       ?CalcWindowRect@CWnd@@UAEXPAUtagRECT@@I@Z 5f549a58 f MFC42UD:MFC42uD.DLL
 0001:00048a5e       ?PreCreateWindow@CWnd@@UAEHAAUtagCREATESTRUCTW@@@Z 5f549a5e f MFC42UD:MFC42uD.DLL
 0001:00048a64       ?DestroyWindow@CWnd@@UAEHXZ 5f549a64 f MFC42UD:MFC42uD.DLL
 0001:00048a6a       ?Create@CWnd@@UAEHPBG0KABUtagRECT@@PAV1@IPAUCCreateContext@@@Z 5f549a6a f MFC42UD:MFC42uD.DLL
 0001:00048a70       ?PreSubclassWindow@CWnd@@UAEXXZ 5f549a70 f MFC42UD:MFC42uD.DLL
 0001:00048a76       ?GetInterfaceMap@CCmdTarget@@MBEPBUAFX_INTERFACEMAP@@XZ 5f549a76 f MFC42UD:MFC42uD.DLL
 0001:00048a7c       ?GetMessageMap@CCommonDialog@@MBEPBUAFX_MSGMAP@@XZ 5f549a7c f MFC42UD:MFC42uD.DLL
 0001:00048a82       ?OnFinalRelease@CWnd@@UAEXXZ 5f549a82 f MFC42UD:MFC42uD.DLL
 0001:00048a88       ?OnCmdMsg@CDialog@@UAEHIHPAXPAUAFX_CMDHANDLERINFO@@@Z 5f549a88 f MFC42UD:MFC42uD.DLL
 0001:00048a8e       ?AssertValid@CDialog@@UBEXXZ 5f549a8e f MFC42UD:MFC42uD.DLL
 0001:00048a94       ?AfxHelpEnabled@@YGHXZ     5f549a94 f MFC42UD:MFC42uD.DLL
 0001:00048a9a       ??1CDialog@@UAE@XZ         5f549a9a f MFC42UD:MFC42uD.DLL
 0001:00048aa0       ?PostModal@CDialog@@IAEXXZ 5f549aa0 f MFC42UD:MFC42uD.DLL
 0001:00048aa6       ?PreModal@CDialog@@IAEPAUHWND__@@XZ 5f549aa6 f MFC42UD:MFC42uD.DLL
 0001:00048aac       ??6CDumpContext@@QAEAAV0@PBG@Z 5f549aac f MFC42UD:MFC42uD.DLL
 0001:00048ab2       ??1CWaitCursor@@QAE@XZ     5f549ab2 f MFC42UD:MFC42uD.DLL
 0001:00048ab8       ?AfxMessageBox@@YGHIII@Z   5f549ab8 f MFC42UD:MFC42uD.DLL
 0001:00048abe       ??0CWaitCursor@@QAE@XZ     5f549abe f MFC42UD:MFC42uD.DLL
 0001:00048ac4       ?LoadStringW@CString@@QAEHI@Z 5f549ac4 f MFC42UD:MFC42uD.DLL
 0001:00048aca       ??6@YGAAVCDumpContext@@AAV0@ABVCString@@@Z 5f549aca f MFC42UD:MFC42uD.DLL
 0001:00048ad0       ?AfxThrowResourceException@@YGXXZ 5f549ad0 f MFC42UD:MFC42uD.DLL
 0001:00048ad6       ??0CString@@QAE@PBG@Z      5f549ad6 f MFC42UD:MFC42uD.DLL
 0001:00048adc       ??0CString@@QAE@PBGH@Z     5f549adc f MFC42UD:MFC42uD.DLL
 0001:00048ae2       ?AfxDlgProc@@YGHPAUHWND__@@IIJ@Z 5f549ae2 f MFC42UD:MFC42uD.DLL
 0001:00048ae8       ?DoModal@CDialog@@UAEHXZ   5f549ae8 f MFC42UD:MFC42uD.DLL
 0001:00048aee       ??0CCommonDialog@@QAE@PAVCWnd@@@Z 5f549aee f MFC42UD:MFC42uD.DLL
 0001:00048af4       ?Dump@CDialog@@UBEXAAVCDumpContext@@@Z 5f549af4 f MFC42UD:MFC42uD.DLL
 0001:00048afa       ?Detach@CWnd@@QAEPAUHWND__@@XZ 5f549afa f MFC42UD:MFC42uD.DLL
 0001:00048b00       ?AfxUnhookWindowCreate@@YGHXZ 5f549b00 f MFC42UD:MFC42uD.DLL
 0001:00048b06       ?AfxHookWindowCreate@@YGXPAVCWnd@@@Z 5f549b06 f MFC42UD:MFC42uD.DLL
 0001:00048b0c       ?GetSafeOwner@CWnd@@SGPAV1@PAV1@PAPAUHWND__@@@Z 5f549b0c f MFC42UD:MFC42uD.DLL
 0001:00048b12       ?CenterWindow@CWnd@@QAEXPAV1@@Z 5f549b12 f MFC42UD:MFC42uD.DLL
 0001:00048b18       ??4CString@@QAEABV0@ABV0@@Z 5f549b18 f MFC42UD:MFC42uD.DLL
 0001:00048b1e       ??0CString@@QAE@ABV0@@Z    5f549b1e f MFC42UD:MFC42uD.DLL
 0001:00048b24       ?Format@CString@@QAAXPBGZZ 5f549b24 f MFC42UD:MFC42uD.DLL
 0001:00048b2a       ?AfxLoadDll@@YGPAUHINSTANCE__@@RAPAU1@PBDPAP6GHXZ1@Z 5f549b2a f MFC42UD:MFC42uD.DLL
 0001:00048b30       ??1CProcessLocalObject@@QAE@XZ 5f549b30 f MFC42UD:MFC42uD.DLL
 0001:00048b36       ?GetDefaultAccelerator@CDocument@@UAEPAUHACCEL__@@XZ 5f549b36 f MFC42UD:MFC42uD.DLL
 0001:00048b3c       ?GetDefaultMenu@CDocument@@UAEPAUHMENU__@@XZ 5f549b3c f MFC42UD:MFC42uD.DLL
 0001:00048b42       ?UpdateFrameCounts@CDocument@@UAEXXZ 5f549b42 f MFC42UD:MFC42uD.DLL
 0001:00048b48       ?DoFileSave@CDocument@@UAEHXZ 5f549b48 f MFC42UD:MFC42uD.DLL
 0001:00048b4e       ?DoSave@CDocument@@UAEHPBGH@Z 5f549b4e f MFC42UD:MFC42uD.DLL
 0001:00048b54       ?CanCloseFrame@CDocument@@UAEHPAVCFrameWnd@@@Z 5f549b54 f MFC42UD:MFC42uD.DLL
 0001:00048b5a       ?ReleaseFile@CDocument@@UAEXPAVCFile@@H@Z 5f549b5a f MFC42UD:MFC42uD.DLL
 0001:00048b60       ?GetFile@CDocument@@UAEPAVCFile@@PBGIPAVCFileException@@@Z 5f549b60 f MFC42UD:MFC42uD.DLL
 0001:00048b66       ?ReportSaveLoadException@CDocument@@UAEXPBGPAVCException@@HI@Z 5f549b66 f MFC42UD:MFC42uD.DLL
 0001:00048b6c       ?OnChangedViewList@CDocument@@UAEXXZ 5f549b6c f MFC42UD:MFC42uD.DLL
 0001:00048b72       ?GetNextView@CDocument@@UBEPAVCView@@AAPAU__POSITION@@@Z 5f549b72 f MFC42UD:MFC42uD.DLL
 0001:00048b78       ?GetFirstViewPosition@CDocument@@UBEPAU__POSITION@@XZ 5f549b78 f MFC42UD:MFC42uD.DLL
 0001:00048b7e       ?SetModifiedFlag@CDocument@@UAEXH@Z 5f549b7e f MFC42UD:MFC42uD.DLL
 0001:00048b84       ?IsModified@CDocument@@UAEHXZ 5f549b84 f MFC42UD:MFC42uD.DLL
 0001:00048b8a       ?SetTitle@CDocument@@UAEXPBG@Z 5f549b8a f MFC42UD:MFC42uD.DLL
 0001:00048b90       ?GetMessageMap@CDocument@@MBEPBUAFX_MSGMAP@@XZ 5f549b90 f MFC42UD:MFC42uD.DLL
 0001:00048b96       ?OnFinalRelease@CDocument@@UAEXXZ 5f549b96 f MFC42UD:MFC42uD.DLL
 0001:00048b9c       ??1CDocument@@UAE@XZ       5f549b9c f MFC42UD:MFC42uD.DLL
 0001:00048ba2       ??1CObList@@UAE@XZ         5f549ba2 f MFC42UD:MFC42uD.DLL
 0001:00048ba8       ?IsEmpty@CObList@@QBEHXZ   5f549ba8 f MFC42UD:MFC42uD.DLL
 0001:00048bae       ?IsEmpty@CPtrList@@QBEHXZ  5f549bae f MFC42UD:MFC42uD.DLL
 0001:00048bb4       ??0CObList@@QAE@H@Z        5f549bb4 f MFC42UD:MFC42uD.DLL
 0001:00048bba       ??0CDocument@@QAE@XZ       5f549bba f MFC42UD:MFC42uD.DLL
 0001:00048bc0       ?GetCount@CObList@@QBEHXZ  5f549bc0 f MFC42UD:MFC42uD.DLL
 0001:00048bc6       ?AddTail@CObList@@QAEPAU__POSITION@@PAVCObject@@@Z 5f549bc6 f MFC42UD:MFC42uD.DLL
 0001:00048bcc       ?Find@CObList@@QBEPAU__POSITION@@PAVCObject@@PAU2@@Z 5f549bcc f MFC42UD:MFC42uD.DLL
 0001:00048bd2       ?RemoveAt@CObList@@QAEXPAU__POSITION@@@Z 5f549bd2 f MFC42UD:MFC42uD.DLL
 0001:00048bd8       ?GetHeadPosition@CObList@@QBEPAU__POSITION@@XZ 5f549bd8 f MFC42UD:MFC42uD.DLL
 0001:00048bde       ?GetNext@CObList@@QBEPAVCObject@@AAPAU__POSITION@@@Z 5f549bde f MFC42UD:MFC42uD.DLL
 0001:00048be4       ?SetPathName@CDocument@@UAEXPBGH@Z 5f549be4 f MFC42UD:MFC42uD.DLL
 0001:00048bea       ??6@YGAAVCArchive@@AAV0@PBVCObject@@@Z 5f549bea f MFC42UD:MFC42uD.DLL
 0001:00048bf0       ?SaveModified@CDocument@@UAEHXZ 5f549bf0 f MFC42UD:MFC42uD.DLL
 0001:00048bf6       ?AfxMessageBox@@YGHPBGII@Z 5f549bf6 f MFC42UD:MFC42uD.DLL
 0001:00048bfc       ?AfxFormatString1@@YGXAAVCString@@IPBG@Z 5f549bfc f MFC42UD:MFC42uD.DLL
 0001:00048c02       ?OnNewDocument@CDocument@@UAEHXZ 5f549c02 f MFC42UD:MFC42uD.DLL
 0001:00048c08       ?OnOpenDocument@CDocument@@UAEHPBG@Z 5f549c08 f MFC42UD:MFC42uD.DLL
 0001:00048c0e       ?AfxComparePath@@YGHPBG0@Z 5f549c0e f MFC42UD:MFC42uD.DLL
 0001:00048c14       ?OnSaveDocument@CDocument@@UAEHPBG@Z 5f549c14 f MFC42UD:MFC42uD.DLL
 0001:00048c1a       ?OnCloseDocument@CDocument@@UAEXXZ 5f549c1a f MFC42UD:MFC42uD.DLL
 0001:00048c20       ??1CFileException@@UAE@XZ  5f549c20 f MFC42UD:MFC42uD.DLL
 0001:00048c26       ??1CArchive@@QAE@XZ        5f549c26 f MFC42UD:MFC42uD.DLL
 0001:00048c2c       ?Close@CArchive@@QAEXXZ    5f549c2c f MFC42UD:MFC42uD.DLL
 0001:00048c32       ??0CArchive@@QAE@PAVCFile@@IHPAX@Z 5f549c32 f MFC42UD:MFC42uD.DLL
 0001:00048c38       ?AfxThrowFileException@@YGXHJPBG@Z 5f549c38 f MFC42UD:MFC42uD.DLL
 0001:00048c3e       ??0CFileException@@QAE@HJPBG@Z 5f549c3e f MFC42UD:MFC42uD.DLL
 0001:00048c44       ?AssertValid@CDocument@@UBEXXZ 5f549c44 f MFC42UD:MFC42uD.DLL
 0001:00048c4a       ?Dump@CDocument@@UBEXAAVCDumpContext@@@Z 5f549c4a f MFC42UD:MFC42uD.DLL
 0001:00048c50       ?GetBufferPtr@CFile@@UAEIIIPAPAX0@Z 5f549c50 f MFC42UD:MFC42uD.DLL
 0001:00048c56       ?Open@CFile@@UAEHPBGIPAVCFileException@@@Z 5f549c56 f MFC42UD:MFC42uD.DLL
 0001:00048c5c       ?SetFilePath@CFile@@UAEXPBG@Z 5f549c5c f MFC42UD:MFC42uD.DLL
 0001:00048c62       ?GetFilePath@CFile@@UBE?AVCString@@XZ 5f549c62 f MFC42UD:MFC42uD.DLL
 0001:00048c68       ?GetFileTitle@CFile@@UBE?AVCString@@XZ 5f549c68 f MFC42UD:MFC42uD.DLL
 0001:00048c6e       ?GetFileName@CFile@@UBE?AVCString@@XZ 5f549c6e f MFC42UD:MFC42uD.DLL
 0001:00048c74       ??0AFX_CLASSINIT@@QAE@PAUCRuntimeClass@@@Z 5f549c74 f MFC42UD:MFC42uD.DLL
 0001:00048c7a       ?ReadObject@CArchive@@QAEPAVCObject@@PBUCRuntimeClass@@@Z 5f549c7a f MFC42UD:MFC42uD.DLL
 0001:00048c80       ?AfxUnlockGlobals@@YGXH@Z  5f549c80 f MFC42UD:MFC42uD.DLL
 0001:00048c86       ?AfxLockGlobals@@YGXH@Z    5f549c86 f MFC42UD:MFC42uD.DLL
 0001:00048c8c       ?PtInRect@CRect@@QBEHUtagPOINT@@@Z 5f549c8c f MFC42UD:MFC42uD.DLL
 0001:00048c92       ?GetCapture@CWnd@@SGPAV1@XZ 5f549c92 f MFC42UD:MFC42uD.DLL
 0001:00048c98       ?SetCapture@CWnd@@QAEPAV1@XZ 5f549c98 f MFC42UD:MFC42uD.DLL
 0001:00048c9e       ?InflateRect@CRect@@QAEXHH@Z 5f549c9e f MFC42UD:MFC42uD.DLL
 0001:00048ca4       ?IsRectNull@CRect@@QBEHXZ  5f549ca4 f MFC42UD:MFC42uD.DLL
 0001:00048caa       ??0CPoint@@QAE@XZ          5f549caa f MFC42UD:MFC42uD.DLL
 0001:00048cb0       ?ScreenToClient@CWnd@@QBEXPAUtagPOINT@@@Z 5f549cb0 f MFC42UD:MFC42uD.DLL
 0001:00048cb6       ??0CPoint@@QAE@HH@Z        5f549cb6 f MFC42UD:MFC42uD.DLL
 0001:00048cbc       ?IsDerivedFrom@CRuntimeClass@@QBEHPBU1@@Z 5f549cbc f MFC42UD:MFC42uD.DLL
 0001:00048cc2       ?CreateObject@CRuntimeClass@@QAEPAVCObject@@XZ 5f549cc2 f MFC42UD:MFC42uD.DLL
 0001:00048cc8       ?AddHead@CSimpleList@@QAEXPAX@Z 5f549cc8 f MFC42UD:MFC42uD.DLL
 0001:00048cce       ?Remove@CSimpleList@@QAEHPAX@Z 5f549cce f MFC42UD:MFC42uD.DLL
 0001:00048cd4       ?ExitHelpMode@CFrameWnd@@UAEXXZ 5f549cd4 f MFC42UD:MFC42uD.DLL
 0001:00048cda       ?DelayUpdateFrameMenu@CFrameWnd@@UAEXPAUHMENU__@@@Z 5f549cda f MFC42UD:MFC42uD.DLL
 0001:00048ce0       ?GetDefaultAccelerator@CFrameWnd@@UAEPAUHACCEL__@@XZ 5f549ce0 f MFC42UD:MFC42uD.DLL
 0001:00048ce6       ?OnUpdateFrameMenu@CFrameWnd@@UAEXPAUHMENU__@@@Z 5f549ce6 f MFC42UD:MFC42uD.DLL
 0001:00048cec       ?OnUpdateFrameTitle@CFrameWnd@@UAEXH@Z 5f549cec f MFC42UD:MFC42uD.DLL
 0001:00048cf2       ?OnCreateClient@CFrameWnd@@MAEHPAUtagCREATESTRUCTW@@PAUCCreateContext@@@Z 5f549cf2 f MFC42UD:MFC42uD.DLL
 0001:00048cf8       ?NegotiateBorderSpace@CFrameWnd@@UAEHIPAUtagRECT@@@Z 5f549cf8 f MFC42UD:MFC42uD.DLL
 0001:00048cfe       ?GetMessageBar@CFrameWnd@@UAEPAVCWnd@@XZ 5f549cfe f MFC42UD:MFC42uD.DLL
 0001:00048d04       ?OnSetPreviewMode@CFrameWnd@@UAEXHPAUCPrintPreviewState@@@Z 5f549d04 f MFC42UD:MFC42uD.DLL
 0001:00048d0a       ?ActivateFrame@CFrameWnd@@UAEXH@Z 5f549d0a f MFC42UD:MFC42uD.DLL
 0001:00048d10       ?GetMessageString@CFrameWnd@@UBEXIAAVCString@@@Z 5f549d10 f MFC42UD:MFC42uD.DLL
 0001:00048d16       ?GetActiveFrame@CFrameWnd@@UAEPAV1@XZ 5f549d16 f MFC42UD:MFC42uD.DLL
 0001:00048d1c       ?GetActiveDocument@CFrameWnd@@UAEPAVCDocument@@XZ 5f549d1c f MFC42UD:MFC42uD.DLL
 0001:00048d22       ?LoadFrame@CFrameWnd@@UAEHIKPAVCWnd@@PAUCCreateContext@@@Z 5f549d22 f MFC42UD:MFC42uD.DLL
 0001:00048d28       ?SetOccDialogInfo@CWnd@@MAEHPAU_AFX_OCC_DIALOG_INFO@@@Z 5f549d28 f MFC42UD:MFC42uD.DLL
 0001:00048d2e       ?IsFrameWnd@CFrameWnd@@UBEHXZ 5f549d2e f MFC42UD:MFC42uD.DLL
 0001:00048d34       ?CheckAutoCenter@CWnd@@UAEHXZ 5f549d34 f MFC42UD:MFC42uD.DLL
 0001:00048d3a       ?PreTranslateMessage@CFrameWnd@@UAEHPAUtagMSG@@@Z 5f549d3a f MFC42UD:MFC42uD.DLL
 0001:00048d40       ?EndModalState@CFrameWnd@@UAEXXZ 5f549d40 f MFC42UD:MFC42uD.DLL
 0001:00048d46       ?BeginModalState@CFrameWnd@@UAEXXZ 5f549d46 f MFC42UD:MFC42uD.DLL
 0001:00048d4c       ?OnCommand@CFrameWnd@@MAEHIJ@Z 5f549d4c f MFC42UD:MFC42uD.DLL
 0001:00048d52       ?PreCreateWindow@CFrameWnd@@MAEHAAUtagCREATESTRUCTW@@@Z 5f549d52 f MFC42UD:MFC42uD.DLL
 0001:00048d58       ?GetMessageMap@CFrameWnd@@MBEPBUAFX_MSGMAP@@XZ 5f549d58 f MFC42UD:MFC42uD.DLL
 0001:00048d5e       ?Dump@CFrameWnd@@UBEXAAVCDumpContext@@@Z 5f549d5e f MFC42UD:MFC42uD.DLL
 0001:00048d64       ?GetRuntimeClass@CFrameWnd@@UBEPAUCRuntimeClass@@XZ 5f549d64 f MFC42UD:MFC42uD.DLL
 0001:00048d6a       ??1CFrameWnd@@UAE@XZ       5f549d6a f MFC42UD:MFC42uD.DLL
 0001:00048d70       ?RemoveFrameWnd@CFrameWnd@@IAEXXZ 5f549d70 f MFC42UD:MFC42uD.DLL
 0001:00048d76       ??0CFrameWnd@@QAE@XZ       5f549d76 f MFC42UD:MFC42uD.DLL
 0001:00048d7c       ?AddFrameWnd@CFrameWnd@@IAEXXZ 5f549d7c f MFC42UD:MFC42uD.DLL
 0001:00048d82       ?AfxCallWndProc@@YGJPAVCWnd@@PAUHWND__@@IIJ@Z 5f549d82 f MFC42UD:MFC42uD.DLL
 0001:00048d88       ?PostNcDestroy@CFrameWnd@@MAEXXZ 5f549d88 f MFC42UD:MFC42uD.DLL
 0001:00048d8e       ?OnCmdMsg@CFrameWnd@@UAEHIHPAXPAUAFX_CMDHANDLERINFO@@@Z 5f549d8e f MFC42UD:MFC42uD.DLL
 0001:00048d94       ?ModifyStyleEx@CWnd@@QAEHKKI@Z 5f549d94 f MFC42UD:MFC42uD.DLL
 0001:00048d9a       ?OnCreate@CFrameWnd@@IAEHPAUtagCREATESTRUCTW@@@Z 5f549d9a f MFC42UD:MFC42uD.DLL
 0001:00048da0       ?OnDestroy@CFrameWnd@@IAEXXZ 5f549da0 f MFC42UD:MFC42uD.DLL
 0001:00048da6       ?DestroyDockBars@CFrameWnd@@QAEXXZ 5f549da6 f MFC42UD:MFC42uD.DLL
 0001:00048dac       ?DisconnectViews@CDocument@@QAEXXZ 5f549dac f MFC42UD:MFC42uD.DLL
 0001:00048db2       ?OnWindowPosChanging@CWnd@@IAEXPAUtagWINDOWPOS@@@Z 5f549db2 f MFC42UD:MFC42uD.DLL
 0001:00048db8       ?LoadAccelTable@CFrameWnd@@QAEHPBG@Z 5f549db8 f MFC42UD:MFC42uD.DLL
 0001:00048dbe       ??0CRect@@QAE@HHHH@Z       5f549dbe f MFC42UD:MFC42uD.DLL
 0001:00048dc4       ?GetDlgItem@CWnd@@QBEPAV1@H@Z 5f549dc4 f MFC42UD:MFC42uD.DLL
 0001:00048dca       ?ScreenToClient@CWnd@@QBEXPAUtagRECT@@@Z 5f549dca f MFC42UD:MFC42uD.DLL
 0001:00048dd0       ?ClientToScreen@CWnd@@QBEXPAUtagRECT@@@Z 5f549dd0 f MFC42UD:MFC42uD.DLL
 0001:00048dd6       ?GetParent@CWnd@@QBEPAV1@XZ 5f549dd6 f MFC42UD:MFC42uD.DLL
 0001:00048ddc       ?RepositionBars@CWnd@@QAEXIIIIPAUtagRECT@@PBU2@H@Z 5f549ddc f MFC42UD:MFC42uD.DLL
 0001:00048de2       ?AfxRepositionWindow@@YGXPAUAFX_SIZEPARENTPARAMS@@PAUHWND__@@PBUtagRECT@@@Z 5f549de2 f MFC42UD:MFC42uD.DLL
 0001:00048de8       ?ContinueRouting@CCmdUI@@QAEXXZ 5f549de8 f MFC42UD:MFC42uD.DLL
 0001:00048dee       ?OnUpdateControlBarMenu@CFrameWnd@@QAEXPAVCCmdUI@@@Z 5f549dee f MFC42UD:MFC42uD.DLL
 0001:00048df4       ?GetControlBar@CFrameWnd@@QAEPAVCControlBar@@I@Z 5f549df4 f MFC42UD:MFC42uD.DLL
 0001:00048dfa       ?OnBarCheck@CFrameWnd@@QAEHI@Z 5f549dfa f MFC42UD:MFC42uD.DLL
 0001:00048e00       ?OnContextHelp@CFrameWnd@@QAEXXZ 5f549e00 f MFC42UD:MFC42uD.DLL
 0001:00048e06       ?AssertValid@CFrameWnd@@UBEXXZ 5f549e06 f MFC42UD:MFC42uD.DLL
 0001:00048e0c       ??6@YGAAVCDumpContext@@AAV0@ABUtagRECT@@@Z 5f549e0c f MFC42UD:MFC42uD.DLL
 0001:00048e12       ??9@YGHABVCString@@PBG@Z   5f549e12 f MFC42UD:MFC42uD.DLL
 0001:00048e18       ?SendInitialUpdate@CDocument@@QAEXXZ 5f549e18 f MFC42UD:MFC42uD.DLL
 0001:00048e1e       ?AfxOleGetUserCtrl@@YGHXZ  5f549e1e f MFC42UD:MFC42uD.DLL
 0001:00048e24       ??6CDumpContext@@QAEAAV0@PBVCObject@@@Z 5f549e24 f MFC42UD:MFC42uD.DLL
 0001:00048e2a       ??1CFile@@UAE@XZ           5f549e2a f MFC42UD:MFC42uD.DLL
 0001:00048e30       ?AfxFullPath@@YGHPAGPBG@Z  5f549e30 f MFC42UD:MFC42uD.DLL
 0001:00048e36       ?OsErrorToException@CFileException@@SGHJ@Z 5f549e36 f MFC42UD:MFC42uD.DLL
 0001:00048e3c       ??4CTime@@QAEABV0@ABV0@@Z  5f549e3c f MFC42UD:MFC42uD.DLL
 0001:00048e42       ??0CTime@@QAE@ABU_FILETIME@@H@Z 5f549e42 f MFC42UD:MFC42uD.DLL
 0001:00048e48       ?AssertValid@CFile@@UBEXXZ 5f549e48 f MFC42UD:MFC42uD.DLL
 0001:00048e4e       ?Dump@CFile@@UBEXAAVCDumpContext@@@Z 5f549e4e f MFC42UD:MFC42uD.DLL
 0001:00048e54       ??9CSize@@QBEHUtagSIZE@@@Z 5f549e54 f MFC42UD:MFC42uD.DLL
 0001:00048e5a       ?HIMETRICtoDP@CDC@@QBEXPAUtagSIZE@@@Z 5f549e5a f MFC42UD:MFC42uD.DLL
 0001:00048e60       ?Size@CRect@@QBE?AVCSize@@XZ 5f549e60 f MFC42UD:MFC42uD.DLL
 0001:00048e66       ??0CSize@@QAE@XZ           5f549e66 f MFC42UD:MFC42uD.DLL
 0001:00048e6c       ?IsWindowVisible@CWnd@@QBEHXZ 5f549e6c f MFC42UD:MFC42uD.DLL
 0001:00048e72       ?AfxFormatString2@@YGXAAVCString@@IPBG1@Z 5f549e72 f MFC42UD:MFC42uD.DLL
 0001:00048e78       ?HideApplication@CWinApp@@QAEXXZ 5f549e78 f MFC42UD:MFC42uD.DLL
 0001:00048e7e       ?SetForegroundWindow@CWnd@@QAEHXZ 5f549e7e f MFC42UD:MFC42uD.DLL
 0001:00048e84       ?SetActiveWindow@CWnd@@QAEPAV1@XZ 5f549e84 f MFC42UD:MFC42uD.DLL
 0001:00048e8a       ?ShowWindow@CWnd@@QAEHH@Z  5f549e8a f MFC42UD:MFC42uD.DLL
 0001:00048e90       ?GetLastActivePopup@CWnd@@QBEPAV1@XZ 5f549e90 f MFC42UD:MFC42uD.DLL
 0001:00048e96       ?UpdateWindow@CWnd@@QAEXXZ 5f549e96 f MFC42UD:MFC42uD.DLL
 0001:00048e9c       ?ShowOwnedWindows@CFrameWnd@@QAEXH@Z 5f549e9c f MFC42UD:MFC42uD.DLL
 0001:00048ea2       ?Attach@CWnd@@QAEHPAUHWND__@@@Z 5f549ea2 f MFC42UD:MFC42uD.DLL
 0001:00048ea8       ?CreateOleFrame@CDocTemplate@@QAEPAVCFrameWnd@@PAVCWnd@@PAVCDocument@@H@Z 5f549ea8 f MFC42UD:MFC42uD.DLL
 0001:00048eae       ?GetExStyle@CWnd@@QBEKXZ   5f549eae f MFC42UD:MFC42uD.DLL
 0001:00048eb4       ?GetDescendantWindow@CWnd@@QBEPAV1@HH@Z 5f549eb4 f MFC42UD:MFC42uD.DLL
 0001:00048eba       ?SetActiveView@CFrameWnd@@QAEXPAVCView@@H@Z 5f549eba f MFC42UD:MFC42uD.DLL
 0001:00048ec0       ?SetParent@CWnd@@QAEPAV1@PAV1@@Z 5f549ec0 f MFC42UD:MFC42uD.DLL
 0001:00048ec6       ?GetActiveView@CFrameWnd@@QBEPAVCView@@XZ 5f549ec6 f MFC42UD:MFC42uD.DLL
 0001:00048ecc       ?IsFloating@CControlBar@@QBEHXZ 5f549ecc f MFC42UD:MFC42uD.DLL
 0001:00048ed2       ?InModalState@CFrameWnd@@QBEHXZ 5f549ed2 f MFC42UD:MFC42uD.DLL
 0001:00048ed8       ?EnableWindow@CWnd@@QAEHH@Z 5f549ed8 f MFC42UD:MFC42uD.DLL
 0001:00048ede       ?GetDepth@CDumpContext@@QBEHXZ 5f549ede f MFC42UD:MFC42uD.DLL
 0001:00048ee4       ??1CMetaFileDC@@UAE@XZ     5f549ee4 f MFC42UD:MFC42uD.DLL
 0001:00048eea       ?Close@CMetaFileDC@@QAEPAUHMETAFILE__@@XZ 5f549eea f MFC42UD:MFC42uD.DLL
 0001:00048ef0       ?SetAttribDC@CMetaFileDC@@UAEXPAUHDC__@@@Z 5f549ef0 f MFC42UD:MFC42uD.DLL
 0001:00048ef6       ?Create@CMetaFileDC@@QAEHPBG@Z 5f549ef6 f MFC42UD:MFC42uD.DLL
 0001:00048efc       ??0CMetaFileDC@@QAE@XZ     5f549efc f MFC42UD:MFC42uD.DLL
 0001:00048f02       ?AfxGetInstanceHandle@@YGPAUHINSTANCE__@@XZ 5f549f02 f MFC42UD:MFC42uD.DLL
 0001:00048f08       ?AfxGetModuleShortFileName@@YGXPAUHINSTANCE__@@AAVCString@@@Z 5f549f08 f MFC42UD:MFC42uD.DLL
 0001:00048f0e       ?AfxFormatStrings@@YGXAAVCString@@PBGPBQBGH@Z 5f549f0e f MFC42UD:MFC42uD.DLL
 0001:00048f14       ?GetNextDocTemplate@CWinApp@@QBEPAVCDocTemplate@@AAPAU__POSITION@@@Z 5f549f14 f MFC42UD:MFC42uD.DLL
 0001:00048f1a       ?GetFirstDocTemplatePosition@CWinApp@@QBEPAU__POSITION@@XZ 5f549f1a f MFC42UD:MFC42uD.DLL
 0001:00048f20       ?Find@CString@@QBEHG@Z     5f549f20 f MFC42UD:MFC42uD.DLL
 0001:00048f26       ?OnCmdMsg@CDocument@@UAEHIHPAXPAUAFX_CMDHANDLERINFO@@@Z 5f549f26 f MFC42UD:MFC42uD.DLL
 0001:00048f2c       ?GetRoutingView@CCmdTarget@@IAEPAVCView@@XZ 5f549f2c f MFC42UD:MFC42uD.DLL
 0001:00048f32       ?InsertMenuW@CMenu@@QAEHIIIPBG@Z 5f549f32 f MFC42UD:MFC42uD.DLL
 0001:00048f38       ?DeleteMenu@CMenu@@QAEHII@Z 5f549f38 f MFC42UD:MFC42uD.DLL
 0001:00048f3e       ?GetMenuStringW@CMenu@@QBEHIPAGHI@Z 5f549f3e f MFC42UD:MFC42uD.DLL
 0001:00048f44       ?GetLength@CString@@QBEHXZ 5f549f44 f MFC42UD:MFC42uD.DLL
 0001:00048f4a       ?AfxFindMessageEntry@@YGPBUAFX_MSGMAP_ENTRY@@PBU1@III@Z 5f549f4a f MFC42UD:MFC42uD.DLL
 0001:00048f50       ?GetData@CByteArray@@QBEPBEXZ 5f549f50 f MFC42UD:MFC42uD.DLL
 0001:00048f56       ?GetSize@CByteArray@@QBEHXZ 5f549f56 f MFC42UD:MFC42uD.DLL
 0001:00048f5c       ??6CDumpContext@@QAEAAV0@N@Z 5f549f5c f MFC42UD:MFC42uD.DLL
 0001:00048f62       ??6CDumpContext@@QAEAAV0@M@Z 5f549f62 f MFC42UD:MFC42uD.DLL
 0001:00048f68       ??0CArchiveStream@@QAE@PAVCArchive@@@Z 5f549f68 f MFC42UD:MFC42uD.DLL
 0001:00048f6e       ??6CArchive@@QAEAAV0@J@Z   5f549f6e f MFC42UD:MFC42uD.DLL
 0001:00048f74       ??6CArchive@@QAEAAV0@N@Z   5f549f74 f MFC42UD:MFC42uD.DLL
 0001:00048f7a       ??6CArchive@@QAEAAV0@M@Z   5f549f7a f MFC42UD:MFC42uD.DLL
 0001:00048f80       ??6CArchive@@QAEAAV0@E@Z   5f549f80 f MFC42UD:MFC42uD.DLL
 0001:00048f86       ??5CArchive@@QAEAAV0@AAJ@Z 5f549f86 f MFC42UD:MFC42uD.DLL
 0001:00048f8c       ??5CArchive@@QAEAAV0@AAN@Z 5f549f8c f MFC42UD:MFC42uD.DLL
 0001:00048f92       ??5CArchive@@QAEAAV0@AAM@Z 5f549f92 f MFC42UD:MFC42uD.DLL
 0001:00048f98       ??5CArchive@@QAEAAV0@AAE@Z 5f549f98 f MFC42UD:MFC42uD.DLL
 0001:00048f9e       ?ReleaseBuffer@CString@@QAEXH@Z 5f549f9e f MFC42UD:MFC42uD.DLL
 0001:00048fa4       ?AfxSetWindowText@@YGXPAUHWND__@@PBG@Z 5f549fa4 f MFC42UD:MFC42uD.DLL
 0001:00048faa       ?Fail@CDataExchange@@QAEXXZ 5f549faa f MFC42UD:MFC42uD.DLL
 0001:00048fb0       ?PrepareEditCtrl@CDataExchange@@QAEPAUHWND__@@H@Z 5f549fb0 f MFC42UD:MFC42uD.DLL
 0001:00048fb6       ?OnSize@CWnd@@IAEXIHH@Z    5f549fb6 f MFC42UD:MFC42uD.DLL
 0001:00048fbc       ?OnEndPrintPreview@CView@@MAEXPAVCDC@@PAUCPrintInfo@@UtagPOINT@@PAVCPreviewView@@@Z 5f549fbc f MFC42UD:MFC42uD.DLL
 0001:00048fc2       ?OnPreparePrinting@CView@@MAEHPAUCPrintInfo@@@Z 5f549fc2 f MFC42UD:MFC42uD.DLL
 0001:00048fc8       ?OnDraw@CCtrlView@@MAEXPAVCDC@@@Z 5f549fc8 f MFC42UD:MFC42uD.DLL
 0001:00048fce       ?OnUpdate@CView@@MAEXPAV1@JPAVCObject@@@Z 5f549fce f MFC42UD:MFC42uD.DLL
 0001:00048fd4       ?OnActivateFrame@CView@@MAEXIPAVCFrameWnd@@@Z 5f549fd4 f MFC42UD:MFC42uD.DLL
 0001:00048fda       ?OnActivateView@CView@@MAEXHPAV1@0@Z 5f549fda f MFC42UD:MFC42uD.DLL
 0001:00048fe0       ?OnDragScroll@CView@@UAEKKVCPoint@@@Z 5f549fe0 f MFC42UD:MFC42uD.DLL
 0001:00048fe6       ?OnDropEx@CView@@UAEKPAVCOleDataObject@@KKVCPoint@@@Z 5f549fe6 f MFC42UD:MFC42uD.DLL
 0001:00048fec       ?OnDrop@CView@@UAEHPAVCOleDataObject@@KVCPoint@@@Z 5f549fec f MFC42UD:MFC42uD.DLL
 0001:00048ff2       ?OnDragLeave@CView@@UAEXXZ 5f549ff2 f MFC42UD:MFC42uD.DLL
 0001:00048ff8       ?OnDragOver@CView@@UAEKPAVCOleDataObject@@KVCPoint@@@Z 5f549ff8 f MFC42UD:MFC42uD.DLL
 0001:00048ffe       ?OnDragEnter@CView@@UAEKPAVCOleDataObject@@KVCPoint@@@Z 5f549ffe f MFC42UD:MFC42uD.DLL
 0001:00049004       ?OnScrollBy@CView@@UAEHVCSize@@H@Z 5f54a004 f MFC42UD:MFC42uD.DLL
 0001:0004900a       ?OnScroll@CView@@UAEHIIH@Z 5f54a00a f MFC42UD:MFC42uD.DLL
 0001:00049010       ?PostNcDestroy@CView@@MAEXXZ 5f54a010 f MFC42UD:MFC42uD.DLL
 0001:00049016       ?PreTranslateMessage@CWnd@@UAEHPAUtagMSG@@@Z 5f54a016 f MFC42UD:MFC42uD.DLL
 0001:0004901c       ?GetScrollBarCtrl@CView@@UBEPAVCScrollBar@@H@Z 5f54a01c f MFC42UD:MFC42uD.DLL
 0001:00049022       ?CalcWindowRect@CView@@UAEXPAUtagRECT@@I@Z 5f54a022 f MFC42UD:MFC42uD.DLL
 0001:00049028       ?OnCmdMsg@CView@@MAEHIHPAXPAUAFX_CMDHANDLERINFO@@@Z 5f54a028 f MFC42UD:MFC42uD.DLL
 0001:0004902e       ??0CDWordArray@@QAE@XZ     5f54a02e f MFC42UD:MFC42uD.DLL
 0001:00049034       ??0CDC@@QAE@XZ             5f54a034 f MFC42UD:MFC42uD.DLL
 0001:0004903a       ??0CCtrlView@@QAE@PBGK@Z   5f54a03a f MFC42UD:MFC42uD.DLL
 0001:00049040       ?PreCreateWindow@CCtrlView@@MAEHAAUtagCREATESTRUCTW@@@Z 5f54a040 f MFC42UD:MFC42uD.DLL
 0001:00049046       ?AfxGetRichEditState@@YAPAV_AFX_RICHEDIT_STATE@@XZ 5f54a046 f MFC42UD:MFC42uD.DLL
 0001:0004904c       ?SetOptions@CRichEditCtrl@@QAEXGK@Z 5f54a04c f MFC42UD:MFC42uD.DLL
 0001:00049052       ?DragAcceptFiles@CWnd@@QAEXH@Z 5f54a052 f MFC42UD:MFC42uD.DLL
 0001:00049058       ?GetIRichEditOle@CRichEditCtrl@@QBEPAUIRichEditOle@@XZ 5f54a058 f MFC42UD:MFC42uD.DLL
 0001:0004905e       ?SetOLECallback@CRichEditCtrl@@QAEHPAUIRichEditOleCallback@@@Z 5f54a05e f MFC42UD:MFC42uD.DLL
 0001:00049064       ?SetEventMask@CRichEditCtrl@@QAEKK@Z 5f54a064 f MFC42UD:MFC42uD.DLL
 0001:0004906a       ?LimitText@CRichEditCtrl@@QAEXJ@Z 5f54a06a f MFC42UD:MFC42uD.DLL
 0001:00049070       ?OnCreate@CView@@IAEHPAUtagCREATESTRUCTW@@@Z 5f54a070 f MFC42UD:MFC42uD.DLL
 0001:00049076       ?OnInitialUpdate@CView@@UAEXXZ 5f54a076 f MFC42UD:MFC42uD.DLL
 0001:0004907c       ?EmptyUndoBuffer@CRichEditCtrl@@QAEXXZ 5f54a07c f MFC42UD:MFC42uD.DLL
 0001:00049082       ?SetWindowTextW@CWnd@@QAEXPBG@Z 5f54a082 f MFC42UD:MFC42uD.DLL
 0001:00049088       ?SetTargetDevice@CRichEditCtrl@@QAEHAAVCDC@@J@Z 5f54a088 f MFC42UD:MFC42uD.DLL
 0001:0004908e       ?CreateDCW@CDC@@QAEHPBG00PBX@Z 5f54a08e f MFC42UD:MFC42uD.DLL
 0001:00049094       ?CreatePrinterDC@CWinApp@@QAEHAAVCDC@@@Z 5f54a094 f MFC42UD:MFC42uD.DLL
 0001:0004909a       ?SetTargetDevice@CRichEditCtrl@@QAEHPAUHDC__@@J@Z 5f54a09a f MFC42UD:MFC42uD.DLL
 0001:000490a0       ?Invalidate@CWnd@@QAEXH@Z  5f54a0a0 f MFC42UD:MFC42uD.DLL
 0001:000490a6       ?StreamIn@CRichEditCtrl@@QAEJHAAU_editstream@@@Z 5f54a0a6 f MFC42UD:MFC42uD.DLL
 0001:000490ac       ?StreamOut@CRichEditCtrl@@QAEJHAAU_editstream@@@Z 5f54a0ac f MFC42UD:MFC42uD.DLL
 0001:000490b2       ?ReadHuge@CFile@@QAEKPAXK@Z 5f54a0b2 f MFC42UD:MFC42uD.DLL
 0001:000490b8       ?GetFile@CArchive@@QBEPAVCFile@@XZ 5f54a0b8 f MFC42UD:MFC42uD.DLL
 0001:000490be       ?WriteHuge@CFile@@QAEXPBXK@Z 5f54a0be f MFC42UD:MFC42uD.DLL
 0001:000490c4       ?Flush@CArchive@@QAEXXZ    5f54a0c4 f MFC42UD:MFC42uD.DLL
 0001:000490ca       ?FormatRange@CRichEditCtrl@@QAEJPAU_formatrange@@H@Z 5f54a0ca f MFC42UD:MFC42uD.DLL
 0001:000490d0       ?GetSize@CDWordArray@@QBEHXZ 5f54a0d0 f MFC42UD:MFC42uD.DLL
 0001:000490d6       ?Add@CDWordArray@@QAEHK@Z  5f54a0d6 f MFC42UD:MFC42uD.DLL
 0001:000490dc       ?DPtoLP@CDC@@QBEXPAUtagRECT@@@Z 5f54a0dc f MFC42UD:MFC42uD.DLL
 0001:000490e2       ?GetDeviceCaps@CDC@@QBEHH@Z 5f54a0e2 f MFC42UD:MFC42uD.DLL
 0001:000490e8       ?IntersectClipRect@CDC@@QAEHHHHH@Z 5f54a0e8 f MFC42UD:MFC42uD.DLL
 0001:000490ee       ??ACDWordArray@@QAEAAKH@Z  5f54a0ee f MFC42UD:MFC42uD.DLL
 0001:000490f4       ?SetMaxPage@CPrintInfo@@QAEXI@Z 5f54a0f4 f MFC42UD:MFC42uD.DLL
 0001:000490fa       ?RemoveAll@CDWordArray@@QAEXXZ 5f54a0fa f MFC42UD:MFC42uD.DLL
 0001:00049100       ?GetSel@CRichEditCtrl@@QBEXAAJ0@Z 5f54a100 f MFC42UD:MFC42uD.DLL
 0001:00049106       ?CanUndo@CRichEditCtrl@@QBEHXZ 5f54a106 f MFC42UD:MFC42uD.DLL
 0001:0004910c       ?Cut@CRichEditCtrl@@QAEXXZ 5f54a10c f MFC42UD:MFC42uD.DLL
 0001:00049112       ?Copy@CRichEditCtrl@@QAEXXZ 5f54a112 f MFC42UD:MFC42uD.DLL
 0001:00049118       ?Paste@CRichEditCtrl@@QAEXXZ 5f54a118 f MFC42UD:MFC42uD.DLL
 0001:0004911e       ?Clear@CRichEditCtrl@@QAEXXZ 5f54a11e f MFC42UD:MFC42uD.DLL
 0001:00049124       ?Undo@CRichEditCtrl@@QAEHXZ 5f54a124 f MFC42UD:MFC42uD.DLL
 0001:0004912a       ?SetSel@CRichEditCtrl@@QAEXJJ@Z 5f54a12a f MFC42UD:MFC42uD.DLL
 0001:00049130       ?OnDestroy@CView@@IAEXXZ   5f54a130 f MFC42UD:MFC42uD.DLL
 0001:00049136       ?GetCharFormat@CFontDialog@@QBEXAAU_charformatw@@@Z 5f54a136 f MFC42UD:MFC42uD.DLL
 0001:0004913c       ?DoModal@CFontDialog@@UAEHXZ 5f54a13c f MFC42UD:MFC42uD.DLL
 0001:00049142       ??0CFontDialog@@QAE@ABU_charformatw@@KPAVCDC@@PAVCWnd@@@Z 5f54a142 f MFC42UD:MFC42uD.DLL
 0001:00049148       ?PasteSpecial@CRichEditCtrl@@QAEXIKPAUHMETAFILE__@@@Z 5f54a148 f MFC42UD:MFC42uD.DLL
 0001:0004914e       ?OnKeyDown@CWnd@@IAEXIII@Z 5f54a14e f MFC42UD:MFC42uD.DLL
 0001:00049154       ?CenterPoint@CRect@@QBE?AVCPoint@@XZ 5f54a154 f MFC42UD:MFC42uD.DLL
 0001:0004915a       ?SetSel@CRichEditCtrl@@QAEXAAU_charrange@@@Z 5f54a15a f MFC42UD:MFC42uD.DLL
 0001:00049160       ?GetSel@CRichEditCtrl@@QBEXAAU_charrange@@@Z 5f54a160 f MFC42UD:MFC42uD.DLL
 0001:00049166       ?CanPaste@CRichEditCtrl@@QBEHI@Z 5f54a166 f MFC42UD:MFC42uD.DLL
 0001:0004916c       ?GetSelectionCharFormat@CRichEditCtrl@@QBEKAAU_charformatw@@@Z 5f54a16c f MFC42UD:MFC42uD.DLL
 0001:00049172       ?GetParaFormat@CRichEditCtrl@@QBEKAAU_paraformat@@@Z 5f54a172 f MFC42UD:MFC42uD.DLL
 0001:00049178       ?SetSelectionCharFormat@CRichEditCtrl@@QAEHAAU_charformatw@@@Z 5f54a178 f MFC42UD:MFC42uD.DLL
 0001:0004917e       ?SetParaFormat@CRichEditCtrl@@QAEHAAU_paraformat@@@Z 5f54a17e f MFC42UD:MFC42uD.DLL
 0001:00049184       ?MoveWindow@CWnd@@QAEXPBUtagRECT@@H@Z 5f54a184 f MFC42UD:MFC42uD.DLL
 0001:0004918a       ?OffsetRect@CRect@@QAEXHH@Z 5f54a18a f MFC42UD:MFC42uD.DLL
 0001:00049190       ?Height@CRect@@QBEHXZ      5f54a190 f MFC42UD:MFC42uD.DLL
 0001:00049196       ?GetWindowRect@CWnd@@QBEXPAUtagRECT@@@Z 5f54a196 f MFC42UD:MFC42uD.DLL
 0001:0004919c       ?ClientToScreen@CWnd@@QBEXPAUtagPOINT@@@Z 5f54a19c f MFC42UD:MFC42uD.DLL
 0001:000491a2       ?GetCharPos@CRichEditCtrl@@QBE?AVCPoint@@J@Z 5f54a1a2 f MFC42UD:MFC42uD.DLL
 0001:000491a8       ?Create@CFindReplaceDialog@@QAEHHPBG0KPAVCWnd@@@Z 5f54a1a8 f MFC42UD:MFC42uD.DLL
 0001:000491ae       ??0CFindReplaceDialog@@QAE@XZ 5f54a1ae f MFC42UD:MFC42uD.DLL
 0001:000491b4       ?FindOneOf@CString@@QBEHPBG@Z 5f54a1b4 f MFC42UD:MFC42uD.DLL
 0001:000491ba       ?GetSelText@CRichEditCtrl@@QBE?AVCString@@XZ 5f54a1ba f MFC42UD:MFC42uD.DLL
 0001:000491c0       ?ReplaceSel@CRichEditCtrl@@QAEXPBGH@Z 5f54a1c0 f MFC42UD:MFC42uD.DLL
 0001:000491c6       ?HideSelection@CRichEditCtrl@@QAEXHH@Z 5f54a1c6 f MFC42UD:MFC42uD.DLL
 0001:000491cc       ?GetFindString@CFindReplaceDialog@@QBE?AVCString@@XZ 5f54a1cc f MFC42UD:MFC42uD.DLL
 0001:000491d2       ?GetReplaceString@CFindReplaceDialog@@QBE?AVCString@@XZ 5f54a1d2 f MFC42UD:MFC42uD.DLL
 0001:000491d8       ?MatchCase@CFindReplaceDialog@@QBEHXZ 5f54a1d8 f MFC42UD:MFC42uD.DLL
 0001:000491de       ?MatchWholeWord@CFindReplaceDialog@@QBEHXZ 5f54a1de f MFC42UD:MFC42uD.DLL
 0001:000491e4       ?ReplaceAll@CFindReplaceDialog@@QBEHXZ 5f54a1e4 f MFC42UD:MFC42uD.DLL
 0001:000491ea       ?SearchDown@CFindReplaceDialog@@QBEHXZ 5f54a1ea f MFC42UD:MFC42uD.DLL
 0001:000491f0       ?ReplaceCurrent@CFindReplaceDialog@@QBEHXZ 5f54a1f0 f MFC42UD:MFC42uD.DLL
 0001:000491f6       ?FindNext@CFindReplaceDialog@@QBEHXZ 5f54a1f6 f MFC42UD:MFC42uD.DLL
 0001:000491fc       ?IsTerminating@CFindReplaceDialog@@QBEHXZ 5f54a1fc f MFC42UD:MFC42uD.DLL
 0001:00049202       ?GetNotifier@CFindReplaceDialog@@SGPAV1@J@Z 5f54a202 f MFC42UD:MFC42uD.DLL
 0001:00049208       ?FindTextW@CRichEditCtrl@@QBEJKPAU_findtextexw@@@Z 5f54a208 f MFC42UD:MFC42uD.DLL
 0001:0004920e       ?AssertValid@CCtrlView@@UBEXXZ 5f54a20e f MFC42UD:MFC42uD.DLL
 0001:00049214       ??1_AFX_EDIT_STATE@@UAE@XZ 5f54a214 f MFC42UD:MFC42uD.DLL
 0001:0004921a       ??0_AFX_EDIT_STATE@@QAE@XZ 5f54a21a f MFC42UD:MFC42uD.DLL
 0001:00049220       ?Dump@CCtrlView@@UBEXAAVCDumpContext@@@Z 5f54a220 f MFC42UD:MFC42uD.DLL
 0001:00049226       ??1_AFX_RICHEDIT_STATE@@UAE@XZ 5f54a226 f MFC42UD:MFC42uD.DLL
 0001:0004922c       ?GetModify@CRichEditCtrl@@QBEHXZ 5f54a22c f MFC42UD:MFC42uD.DLL
 0001:00049232       ?SetModify@CRichEditCtrl@@QAEXH@Z 5f54a232 f MFC42UD:MFC42uD.DLL
 0001:00049238       ?AfxW2AHelper@@YGPADPADPBGH@Z 5f54a238 f MFC42UD:MFC42uD.DLL
 0001:0004923e       ?AfxDynamicDownCast@@YAPAVCObject@@PAUCRuntimeClass@@PAV1@@Z 5f54a23e f MFC42UD:MFC42uD.DLL
 0001:00049244       ??0CRect@@QAE@UtagPOINT@@UtagSIZE@@@Z 5f54a244 f MFC42UD:MFC42uD.DLL
 0001:0004924a       ?GetTextLength@CRichEditCtrl@@QBEJXZ 5f54a24a f MFC42UD:MFC42uD.DLL
 0001:00049250       ?AfxOleCanExitApp@@YGHXZ   5f54a250 f MFC42UD:MFC42uD.DLL
 0001:00049256       ?SetAt@CMapPtrToPtr@@QAEXPAX0@Z 5f54a256 f MFC42UD:MFC42uD.DLL
 0001:0004925c       ?Lookup@CMapPtrToPtr@@QBEHPAXAAPAX@Z 5f54a25c f MFC42UD:MFC42uD.DLL
 0001:00049262       ??0CMapPtrToPtr@@QAE@H@Z   5f54a262 f MFC42UD:MFC42uD.DLL
 0001:00049268       ?AfxFindResourceHandle@@YGPAUHINSTANCE__@@PBG0@Z 5f54a268 f MFC42UD:MFC42uD.DLL
 0001:0004926e       ?GetNextAssoc@CMapPtrToPtr@@QBEXAAPAU__POSITION@@AAPAX1@Z 5f54a26e f MFC42UD:MFC42uD.DLL
 0001:00049274       ?GetStartPosition@CMapPtrToPtr@@QBEPAU__POSITION@@XZ 5f54a274 f MFC42UD:MFC42uD.DLL
 0001:0004927a       ??0CMemFile@@QAE@PAEII@Z   5f54a27a f MFC42UD:MFC42uD.DLL
 0001:00049280       ??4CString@@QAEABV0@PBD@Z  5f54a280 f MFC42UD:MFC42uD.DLL
 0001:00049286       ?AfxThrowNotSupportedException@@YGXXZ 5f54a286 f MFC42UD:MFC42uD.DLL
 0001:0004928c       ??1CMapPtrToPtr@@UAE@XZ    5f54a28c f MFC42UD:MFC42uD.DLL
 0001:00049292       ?RemoveAll@CMapPtrToPtr@@QAEXXZ 5f54a292 f MFC42UD:MFC42uD.DLL
 0001:00049298       ??1CWindowDC@@UAE@XZ       5f54a298 f MFC42UD:MFC42uD.DLL
 0001:0004929e       ?GetFont@CWnd@@QBEPAVCFont@@XZ 5f54a29e f MFC42UD:MFC42uD.DLL
 0001:000492a4       ?GetTextColor@CDC@@QBEKXZ  5f54a2a4 f MFC42UD:MFC42uD.DLL
 0001:000492aa       ?GetBkColor@CDC@@QBEKXZ    5f54a2aa f MFC42UD:MFC42uD.DLL
 0001:000492b0       ??0CWindowDC@@QAE@PAVCWnd@@@Z 5f54a2b0 f MFC42UD:MFC42uD.DLL
 0001:000492b6       ?AfxGetCtl3dState@@YGPAV_AFX_CTL3D_STATE@@XZ 5f54a2b6 f MFC42UD:MFC42uD.DLL
 0001:000492bc       ??1CFont@@UAE@XZ           5f54a2bc f MFC42UD:MFC42uD.DLL
 0001:000492c2       ?GetLogFont@CFont@@QAEHPAUtagLOGFONTW@@@Z 5f54a2c2 f MFC42UD:MFC42uD.DLL
 0001:000492c8       ?CreateStockObject@CGdiObject@@QAEHH@Z 5f54a2c8 f MFC42UD:MFC42uD.DLL
 0001:000492ce       ??0CFont@@QAE@XZ           5f54a2ce f MFC42UD:MFC42uD.DLL
 0001:000492d4       ?GetWindowTextW@CWnd@@QBEHPAGH@Z 5f54a2d4 f MFC42UD:MFC42uD.DLL
 0001:000492da       ?GetProperty@CWnd@@QBEXJGPAX@Z 5f54a2da f MFC42UD:MFC42uD.DLL
 0001:000492e0       ?GetCount@CMapPtrToPtr@@QBEHXZ 5f54a2e0 f MFC42UD:MFC42uD.DLL
 0001:000492e6       ??1CClientDC@@UAE@XZ       5f54a2e6 f MFC42UD:MFC42uD.DLL
 0001:000492ec       ??0CClientDC@@QAE@PAVCWnd@@@Z 5f54a2ec f MFC42UD:MFC42uD.DLL
 0001:000492f2       ??4CRect@@QAEXABUtagRECT@@@Z 5f54a2f2 f MFC42UD:MFC42uD.DLL
 0001:000492f8       ?RemoveKey@CMapPtrToPtr@@QAEHPAX@Z 5f54a2f8 f MFC42UD:MFC42uD.DLL
 0001:000492fe       ?UnsubclassWindow@CWnd@@QAEPAUHWND__@@XZ 5f54a2fe f MFC42UD:MFC42uD.DLL
 0001:00049304       ?ModifyStyle@CWnd@@SGHPAUHWND__@@KKI@Z 5f54a304 f MFC42UD:MFC42uD.DLL
 0001:0004930a       ?ModifyStyleEx@CWnd@@SGHPAUHWND__@@KKI@Z 5f54a30a f MFC42UD:MFC42uD.DLL
 0001:00049310       ?Width@CRect@@QBEHXZ       5f54a310 f MFC42UD:MFC42uD.DLL
 0001:00049316       ?GetFocus@CWnd@@SGPAV1@XZ  5f54a316 f MFC42UD:MFC42uD.DLL
 0001:0004931c       ??0CRect@@QAE@PBUtagRECT@@@Z 5f54a31c f MFC42UD:MFC42uD.DLL
 0001:00049322       ??1CPtrList@@UAE@XZ        5f54a322 f MFC42UD:MFC42uD.DLL
 0001:00049328       ??0CPtrList@@QAE@H@Z       5f54a328 f MFC42UD:MFC42uD.DLL
 0001:0004932e       ?RemoveAll@CPtrList@@QAEXXZ 5f54a32e f MFC42UD:MFC42uD.DLL
 0001:00049334       ?GetHead@CPtrList@@QAEAAPAXXZ 5f54a334 f MFC42UD:MFC42uD.DLL
 0001:0004933a       ?MoveWindow@CWnd@@QAEXHHHHH@Z 5f54a33a f MFC42UD:MFC42uD.DLL
 0001:00049340       ?GetDesktopWindow@CWnd@@SGPAV1@XZ 5f54a340 f MFC42UD:MFC42uD.DLL
 0001:00049346       ?RemoveAt@CPtrList@@QAEXPAU__POSITION@@@Z 5f54a346 f MFC42UD:MFC42uD.DLL
 0001:0004934c       ?AddTail@CPtrList@@QAEPAU__POSITION@@PAX@Z 5f54a34c f MFC42UD:MFC42uD.DLL
 0001:00049352       ??8@YGHABVCString@@0@Z     5f54a352 f MFC42UD:MFC42uD.DLL
 0001:00049358       ??0CString@@QAE@PBD@Z      5f54a358 f MFC42UD:MFC42uD.DLL
 0001:0004935e       ?Find@CPtrList@@QBEPAU__POSITION@@PAXPAU2@@Z 5f54a35e f MFC42UD:MFC42uD.DLL
 0001:00049364       ?GetCount@CPtrList@@QBEHXZ 5f54a364 f MFC42UD:MFC42uD.DLL
 0001:0004936a       ?SetProperty@CWnd@@QAAXJGZZ 5f54a36a f MFC42UD:MFC42uD.DLL
 0001:00049370       ?IsChild@CWnd@@QBEHPBV1@@Z 5f54a370 f MFC42UD:MFC42uD.DLL
 0001:00049376       ?GetDlgCtrlID@CWnd@@QBEHXZ 5f54a376 f MFC42UD:MFC42uD.DLL
 0001:0004937c       ?GetNextWindow@CWnd@@QBEPAV1@I@Z 5f54a37c f MFC42UD:MFC42uD.DLL
 0001:00049382       ?GetTopWindow@CWnd@@QBEPAV1@XZ 5f54a382 f MFC42UD:MFC42uD.DLL
 0001:00049388       ?InvokeHelper@CWnd@@QAAXJGGPAXPBEZZ 5f54a388 f MFC42UD:MFC42uD.DLL
 0001:0004938e       ?GetNextDlgGroupItem@CWnd@@QBEPAV1@PAV1@H@Z 5f54a38e f MFC42UD:MFC42uD.DLL
 0001:00049394       ?GetNextDlgTabItem@CWnd@@QBEPAV1@PAV1@H@Z 5f54a394 f MFC42UD:MFC42uD.DLL
 0001:0004939a       ??1CPrintInfo@@QAE@XZ      5f54a39a f MFC42UD:MFC42uD.DLL
 0001:000493a0       ?GetFromPage@CPrintInfo@@QBEIXZ 5f54a3a0 f MFC42UD:MFC42uD.DLL
 0001:000493a6       ?GetToPage@CPrintInfo@@QBEIXZ 5f54a3a6 f MFC42UD:MFC42uD.DLL
 0001:000493ac       ?GetMinPage@CPrintInfo@@QBEIXZ 5f54a3ac f MFC42UD:MFC42uD.DLL
 0001:000493b2       ??0CPrintInfo@@QAE@XZ      5f54a3b2 f MFC42UD:MFC42uD.DLL
 0001:000493b8       ?Detach@CDC@@QAEPAUHDC__@@XZ 5f54a3b8 f MFC42UD:MFC42uD.DLL
 0001:000493be       ?AbortDoc@CDC@@QAEHXZ      5f54a3be f MFC42UD:MFC42uD.DLL
 0001:000493c4       ?EndDoc@CDC@@QAEHXZ        5f54a3c4 f MFC42UD:MFC42uD.DLL
 0001:000493ca       ?_AfxAbortProc@@YGHPAUHDC__@@H@Z 5f54a3ca f MFC42UD:MFC42uD.DLL
 0001:000493d0       ?EndPage@CDC@@QAEHXZ       5f54a3d0 f MFC42UD:MFC42uD.DLL
 0001:000493d6       ?StartPage@CDC@@QAEHXZ     5f54a3d6 f MFC42UD:MFC42uD.DLL
 0001:000493dc       ?GetMaxPage@CPrintInfo@@QBEIXZ 5f54a3dc f MFC42UD:MFC42uD.DLL
 0001:000493e2       ?StartDocW@CDC@@QAEHPAU_DOCINFOW@@@Z 5f54a3e2 f MFC42UD:MFC42uD.DLL
 0001:000493e8       ?SetAbortProc@CDC@@QAEHP6GHPAUHDC__@@H@Z@Z 5f54a3e8 f MFC42UD:MFC42uD.DLL
 0001:000493ee       ?Attach@CDC@@QAEHPAUHDC__@@@Z 5f54a3ee f MFC42UD:MFC42uD.DLL
 0001:000493f4       ?GetBuffer@CString@@QAEPAGH@Z 5f54a3f4 f MFC42UD:MFC42uD.DLL
 0001:000493fa       ?GetWindowTextW@CWnd@@QBEXAAVCString@@@Z 5f54a3fa f MFC42UD:MFC42uD.DLL
 0001:00049400       ?SetRadio@CCmdUI@@UAEXH@Z  5f54a400 f MFC42UD:MFC42uD.DLL
 0001:00049406       ??0CCmdUI@@QAE@XZ          5f54a406 f MFC42UD:MFC42uD.DLL
 0001:0004940c       ?Right@CString@@QBE?AV1@H@Z 5f54a40c f MFC42UD:MFC42uD.DLL
 0001:00049412       ?SetStatusText@CControlBar@@UAEHH@Z 5f54a412 f MFC42UD:MFC42uD.DLL
 0001:00049418       ?DoPaint@CControlBar@@UAEXPAVCDC@@@Z 5f54a418 f MFC42UD:MFC42uD.DLL
 0001:0004941e       ?OnBarStyleChange@CControlBar@@UAEXKK@Z 5f54a41e f MFC42UD:MFC42uD.DLL
 0001:00049424       ?IsDockBar@CControlBar@@UBEHXZ 5f54a424 f MFC42UD:MFC42uD.DLL
 0001:0004942a       ?RecalcDelayShow@CControlBar@@UAEKPAUAFX_SIZEPARENTPARAMS@@@Z 5f54a42a f MFC42UD:MFC42uD.DLL
 0001:00049430       ?IsVisible@CControlBar@@UBEHXZ 5f54a430 f MFC42UD:MFC42uD.DLL
 0001:00049436       ?DelayShow@CControlBar@@UAEXH@Z 5f54a436 f MFC42UD:MFC42uD.DLL
 0001:0004943c       ?CalcDynamicLayout@CControlBar@@UAE?AVCSize@@HK@Z 5f54a43c f MFC42UD:MFC42uD.DLL
 0001:00049442       ?CalcFixedLayout@CControlBar@@UAE?AVCSize@@HH@Z 5f54a442 f MFC42UD:MFC42uD.DLL
 0001:00049448       ?PostNcDestroy@CControlBar@@UAEXXZ 5f54a448 f MFC42UD:MFC42uD.DLL
 0001:0004944e       ?WindowProc@CControlBar@@UAEJIIJ@Z 5f54a44e f MFC42UD:MFC42uD.DLL
 0001:00049454       ?PreTranslateMessage@CControlBar@@UAEHPAUtagMSG@@@Z 5f54a454 f MFC42UD:MFC42uD.DLL
 0001:0004945a       ?PreCreateWindow@CControlBar@@UAEHAAUtagCREATESTRUCTW@@@Z 5f54a45a f MFC42UD:MFC42uD.DLL
 0001:00049460       ?DestroyWindow@CControlBar@@UAEHXZ 5f54a460 f MFC42UD:MFC42uD.DLL
 0001:00049466       ?Dump@CControlBar@@UBEXAAVCDumpContext@@@Z 5f54a466 f MFC42UD:MFC42uD.DLL
 0001:0004946c       ?AssertValid@CControlBar@@UBEXXZ 5f54a46c f MFC42UD:MFC42uD.DLL
 0001:00049472       ??1CControlBar@@UAE@XZ     5f54a472 f MFC42UD:MFC42uD.DLL
 0001:00049478       ??1CRectTracker@@UAE@XZ    5f54a478 f MFC42UD:MFC42uD.DLL
 0001:0004947e       ??0CRectTracker@@QAE@XZ    5f54a47e f MFC42UD:MFC42uD.DLL
 0001:00049484       ??0CControlBar@@IAE@XZ     5f54a484 f MFC42UD:MFC42uD.DLL
 0001:0004948a       ?AfxEndDeferRegisterClass@@YGHF@Z 5f54a48a f MFC42UD:MFC42uD.DLL
 0001:00049490       ??1CPaintDC@@UAE@XZ        5f54a490 f MFC42UD:MFC42uD.DLL
 0001:00049496       ?Draw@CRectTracker@@QBEXPAVCDC@@@Z 5f54a496 f MFC42UD:MFC42uD.DLL
 0001:0004949c       ?SetBrushOrg@CDC@@QAE?AVCPoint@@HH@Z 5f54a49c f MFC42UD:MFC42uD.DLL
 0001:000494a2       ??0CPaintDC@@QAE@PAVCWnd@@@Z 5f54a4a2 f MFC42UD:MFC42uD.DLL
 0001:000494a8       ?SetCursor@CRectTracker@@QBEHPAVCWnd@@I@Z 5f54a4a8 f MFC42UD:MFC42uD.DLL
 0001:000494ae       ?OnSetCursor@CWnd@@IAEHPAV1@II@Z 5f54a4ae f MFC42UD:MFC42uD.DLL
 0001:000494b4       ?HitTest@CRectTracker@@QBEHVCPoint@@@Z 5f54a4b4 f MFC42UD:MFC42uD.DLL
 0001:000494ba       ?GetOwner@CWnd@@QBEPAV1@XZ 5f54a4ba f MFC42UD:MFC42uD.DLL
 0001:000494c0       ?Track@CRectTracker@@QAEHPAVCWnd@@VCPoint@@H0@Z 5f54a4c0 f MFC42UD:MFC42uD.DLL
 0001:000494c6       ??1CWnd@@UAE@XZ            5f54a4c6 f MFC42UD:MFC42uD.DLL
 0001:000494cc       ??0CWnd@@QAE@XZ            5f54a4cc f MFC42UD:MFC42uD.DLL
 0001:000494d2       ?AssertValid@CWnd@@UBEXXZ  5f54a4d2 f MFC42UD:MFC42uD.DLL
 0001:000494d8       ?Dump@CWnd@@UBEXAAVCDumpContext@@@Z 5f54a4d8 f MFC42UD:MFC42uD.DLL
 0001:000494de       ?SetWindowOrg@CDC@@QAE?AVCPoint@@HH@Z 5f54a4de f MFC42UD:MFC42uD.DLL
 0001:000494e4       ?SetViewportExt@CDC@@QAE?AVCSize@@UtagSIZE@@@Z 5f54a4e4 f MFC42UD:MFC42uD.DLL
 0001:000494ea       ?CreateEx@CWnd@@QAEHKPBG0KHHHHPAUHWND__@@PAUHMENU__@@PAX@Z 5f54a4ea f MFC42UD:MFC42uD.DLL
 0001:000494f0       ?LPtoDP@CDC@@QBEXPAUtagRECT@@@Z 5f54a4f0 f MFC42UD:MFC42uD.DLL
 0001:000494f6       ?SetWindowExt@CDC@@UAE?AVCSize@@HH@Z 5f54a4f6 f MFC42UD:MFC42uD.DLL
 0001:000494fc       ?SetMapMode@CDC@@UAEHH@Z   5f54a4fc f MFC42UD:MFC42uD.DLL
 0001:00049502       ?InvalidateRect@CWnd@@QAEXPBUtagRECT@@H@Z 5f54a502 f MFC42UD:MFC42uD.DLL
 0001:00049508       ?OffsetRect@CRect@@QAEXUtagPOINT@@@Z 5f54a508 f MFC42UD:MFC42uD.DLL
 0001:0004950e       ?SetWindowPos@CWnd@@QAEHPBV1@HHHHI@Z 5f54a50e f MFC42UD:MFC42uD.DLL
 0001:00049514       ?AfxUnlockTempMaps@@YGHH@Z 5f54a514 f MFC42UD:MFC42uD.DLL
 0001:0004951a       ?IntersectClipRect@CDC@@QAEHPBUtagRECT@@@Z 5f54a51a f MFC42UD:MFC42uD.DLL
 0001:00049520       ?AfxLockTempMaps@@YGXXZ    5f54a520 f MFC42UD:MFC42uD.DLL
 0001:00049526       ?ValidateRect@CWnd@@QAEXPBUtagRECT@@@Z 5f54a526 f MFC42UD:MFC42uD.DLL
 0001:0004952c       ?IsLoading@CArchive@@QBEHXZ 5f54a52c f MFC42UD:MFC42uD.DLL
 0001:00049532       ?OnNcCreate@CWnd@@IAEHPAUtagCREATESTRUCTW@@@Z 5f54a532 f MFC42UD:MFC42uD.DLL
 0001:00049538       ?OnMouseActivate@CWnd@@IAEHPAV1@II@Z 5f54a538 f MFC42UD:MFC42uD.DLL
 0001:0004953e       ?ReflectChildNotify@CWnd@@IAEHIIJPAJ@Z 5f54a53e f MFC42UD:MFC42uD.DLL
 0001:00049544       ?OnCreate@CWnd@@IAEHPAUtagCREATESTRUCTW@@@Z 5f54a544 f MFC42UD:MFC42uD.DLL
 0001:0004954a       ?OnMove@CWnd@@IAEXHH@Z     5f54a54a f MFC42UD:MFC42uD.DLL
 0001:00049550       ?OnShowWindow@CWnd@@IAEXHI@Z 5f54a550 f MFC42UD:MFC42uD.DLL
 0001:00049556       ?DoUpdate@CCmdUI@@QAEHPAVCCmdTarget@@H@Z 5f54a556 f MFC42UD:MFC42uD.DLL
 0001:0004955c       ?GetMenuItemID@CMenu@@QBEIH@Z 5f54a55c f MFC42UD:MFC42uD.DLL
 0001:00049562       ?GetSubMenu@CMenu@@QBEPAV1@H@Z 5f54a562 f MFC42UD:MFC42uD.DLL
 0001:00049568       ?GetMenuItemCount@CMenu@@QBEIXZ 5f54a568 f MFC42UD:MFC42uD.DLL
 0001:0004956e       ?AfxCancelModes@@YGXPAUHWND__@@@Z 5f54a56e f MFC42UD:MFC42uD.DLL
 0001:00049574       ?GetData@CThreadLocalObject@@QAEPAVCNoTrackObject@@P6GPAV2@XZ@Z 5f54a574 f MFC42UD:MFC42uD.DLL
 0001:0004957a       ?GetMessageMap@CWnd@@MBEPBUAFX_MSGMAP@@XZ 5f54a57a f MFC42UD:MFC42uD.DLL
 0001:00049580       ?GetRuntimeClass@CWnd@@UBEPAUCRuntimeClass@@XZ 5f54a580 f MFC42UD:MFC42uD.DLL
 0001:00049586       ?OnDestroy@CWnd@@IAEXXZ    5f54a586 f MFC42UD:MFC42uD.DLL
 0001:0004958c       ?OnKillFocus@CWnd@@IAEXPAV1@@Z 5f54a58c f MFC42UD:MFC42uD.DLL
 0001:00049592       ?OnSetFocus@CWnd@@IAEXPAV1@@Z 5f54a592 f MFC42UD:MFC42uD.DLL
 0001:00049598       ?Add@CPtrArray@@QAEHPAX@Z  5f54a598 f MFC42UD:MFC42uD.DLL
 0001:0004959e       ?OnGetDlgCode@CWnd@@IAEIXZ 5f54a59e f MFC42UD:MFC42uD.DLL
 0001:000495a4       ?OnMouseMove@CWnd@@IAEXIVCPoint@@@Z 5f54a5a4 f MFC42UD:MFC42uD.DLL
 0001:000495aa       ?OnLButtonDown@CWnd@@IAEXIVCPoint@@@Z 5f54a5aa f MFC42UD:MFC42uD.DLL
 0001:000495b0       ?OnLButtonUp@CWnd@@IAEXIVCPoint@@@Z 5f54a5b0 f MFC42UD:MFC42uD.DLL
 0001:000495b6       ?OnLButtonDblClk@CWnd@@IAEXIVCPoint@@@Z 5f54a5b6 f MFC42UD:MFC42uD.DLL
 0001:000495bc       ?OnMButtonDown@CWnd@@IAEXIVCPoint@@@Z 5f54a5bc f MFC42UD:MFC42uD.DLL
 0001:000495c2       ?OnMButtonUp@CWnd@@IAEXIVCPoint@@@Z 5f54a5c2 f MFC42UD:MFC42uD.DLL
 0001:000495c8       ?OnMButtonDblClk@CWnd@@IAEXIVCPoint@@@Z 5f54a5c8 f MFC42UD:MFC42uD.DLL
 0001:000495ce       ?OnRButtonDown@CWnd@@IAEXIVCPoint@@@Z 5f54a5ce f MFC42UD:MFC42uD.DLL
 0001:000495d4       ?OnRButtonUp@CWnd@@IAEXIVCPoint@@@Z 5f54a5d4 f MFC42UD:MFC42uD.DLL
 0001:000495da       ?OnRButtonDblClk@CWnd@@IAEXIVCPoint@@@Z 5f54a5da f MFC42UD:MFC42uD.DLL
 0001:000495e0       ?OnCancelMode@CWnd@@IAEXXZ 5f54a5e0 f MFC42UD:MFC42uD.DLL
 0001:000495e6       ?MessageBoxW@CWnd@@QAEHPBG0I@Z 5f54a5e6 f MFC42UD:MFC42uD.DLL
 0001:000495ec       ?ExitInstance@CWinApp@@UAEHXZ 5f54a5ec f MFC42UD:MFC42uD.DLL
 0001:000495f2       ?OnActivate@CWnd@@IAEXIPAV1@H@Z 5f54a5f2 f MFC42UD:MFC42uD.DLL
 0001:000495f8       ?FromHandle@CFont@@SGPAV1@PAUHFONT__@@@Z 5f54a5f8 f MFC42UD:MFC42uD.DLL
 0001:000495fe       ?Read@CFile@@UAEIPAXI@Z    5f54a5fe f MFC42UD:MFC42uD.DLL
 0001:00049604       ?_wcstombsz@@YAHPADPBGI@Z  5f54a604 f MFC42UD:MFC42uD.DLL
 0001:0004960a       ??0CFile@@QAE@PBGI@Z       5f54a60a f MFC42UD:MFC42uD.DLL
 0001:00049610       ?GetSize@CPtrArray@@QBEHXZ 5f54a610 f MFC42UD:MFC42uD.DLL
 0001:00049616       ?GetAt@CPtrArray@@QBEPAXH@Z 5f54a616 f MFC42UD:MFC42uD.DLL
 0001:0004961c       ??0CPtrArray@@QAE@XZ       5f54a61c f MFC42UD:MFC42uD.DLL
 0001:00049622       ?RemoveAt@CPtrArray@@QAEXHH@Z 5f54a622 f MFC42UD:MFC42uD.DLL
 0001:00049628       ??1CPtrArray@@UAE@XZ       5f54a628 f MFC42UD:MFC42uD.DLL
 0001:0004962e       ??1CBitmap@@UAE@XZ         5f54a62e f MFC42UD:MFC42uD.DLL
 0001:00049634       ?Detach@CGdiObject@@QAEPAXXZ 5f54a634 f MFC42UD:MFC42uD.DLL
 0001:0004963a       ?LoadBitmapW@CBitmap@@QAEHI@Z 5f54a63a f MFC42UD:MFC42uD.DLL
 0001:00049640       ??0CBitmap@@QAE@XZ         5f54a640 f MFC42UD:MFC42uD.DLL
 0001:00049646       ?GetSafeHandle@CGdiObject@@QBEPAXXZ 5f54a646 f MFC42UD:MFC42uD.DLL
 0001:0004964c       ?LoadIconW@CWinApp@@QBEPAUHICON__@@I@Z 5f54a64c f MFC42UD:MFC42uD.DLL
 0001:00049652       ??6@YGAAVCArchive@@AAV0@ABVCString@@@Z 5f54a652 f MFC42UD:MFC42uD.DLL
 0001:00049658       ??5@YGAAVCArchive@@AAV0@AAVCString@@@Z 5f54a658 f MFC42UD:MFC42uD.DLL
 0001:0004965e       ?OnQuery3dControls@CWnd@@IAEJIJ@Z 5f54a65e f MFC42UD:MFC42uD.DLL
 0001:00049664       ?GetRuntimeClass@CObject@@UBEPAUCRuntimeClass@@XZ 5f54a664 f MFC42UD:MFC42uD.DLL
 0001:0004966a       ??1CObject@@UAE@XZ         5f54a66a f MFC42UD:MFC42uD.DLL
 0001:00049670       ??0CObject@@IAE@XZ         5f54a670 f MFC42UD:MFC42uD.DLL
 0001:00049676       ?GetFont@CDialogTemplate@@QBEHAAVCString@@AAG@Z 5f54a676 f MFC42UD:MFC42uD.DLL
 0001:0004967c       ?GetSizeInDialogUnits@CDialogTemplate@@QBEXPAUtagSIZE@@@Z 5f54a67c f MFC42UD:MFC42uD.DLL
 0001:00049682       ?AfxEnableMemoryTracking@@YGHH@Z 5f54a682 f MFC42UD:MFC42uD.DLL
 0001:00049688       ?AddHead@CPtrList@@QAEPAU__POSITION@@PAX@Z 5f54a688 f MFC42UD:MFC42uD.DLL
 0001:0004968e       ?OnCancel@CDialog@@MAEXXZ  5f54a68e f MFC42UD:MFC42uD.DLL
 0001:00049694       ?OnOK@CDialog@@MAEXXZ      5f54a694 f MFC42UD:MFC42uD.DLL
 0001:0004969a       ??0CDialog@@QAE@XZ         5f54a69a f MFC42UD:MFC42uD.DLL
 0001:000496a0       ??1CDialogTemplate@@QAE@XZ 5f54a6a0 f MFC42UD:MFC42uD.DLL
 0001:000496a6       ?Detach@CDialogTemplate@@QAEPAXXZ 5f54a6a6 f MFC42UD:MFC42uD.DLL
 0001:000496ac       ?GetSizeInPixels@CDialogTemplate@@QBEXPAUtagSIZE@@@Z 5f54a6ac f MFC42UD:MFC42uD.DLL
 0001:000496b2       ?SetFont@CDialogTemplate@@QAEHPBGG@Z 5f54a6b2 f MFC42UD:MFC42uD.DLL
 0001:000496b8       ?AfxGetPropSheetFont@@YGHAAVCString@@AAGH@Z 5f54a6b8 f MFC42UD:MFC42uD.DLL
 0001:000496be       ??8@YGHABVCString@@PBG@Z   5f54a6be f MFC42UD:MFC42uD.DLL
 0001:000496c4       ?HasFont@CDialogTemplate@@QBEHXZ 5f54a6c4 f MFC42UD:MFC42uD.DLL
 0001:000496ca       ?Load@CDialogTemplate@@QAEHPBG@Z 5f54a6ca f MFC42UD:MFC42uD.DLL
 0001:000496d0       ??0CDialogTemplate@@QAE@PBUDLGTEMPLATE@@@Z 5f54a6d0 f MFC42UD:MFC42uD.DLL
 0001:000496d6       ?RemoveAll@CPtrArray@@QAEXXZ 5f54a6d6 f MFC42UD:MFC42uD.DLL
 0001:000496dc       ??ACPtrArray@@QAEAAPAXH@Z  5f54a6dc f MFC42UD:MFC42uD.DLL
 0001:000496e2       ?GetCurrentMessage@CWnd@@KGPBUtagMSG@@XZ 5f54a6e2 f MFC42UD:MFC42uD.DLL
 0001:000496e8       ?Default@CWnd@@IAEJXZ      5f54a6e8 f MFC42UD:MFC42uD.DLL
 0001:000496ee       ?SendChildNotifyLastMsg@CWnd@@QAEHPAJ@Z 5f54a6ee f MFC42UD:MFC42uD.DLL
 0001:000496f4       ??0CDialogTemplate@@QAE@PAX@Z 5f54a6f4 f MFC42UD:MFC42uD.DLL
 0001:000496fa       ?UpdateData@CWnd@@QAEHH@Z  5f54a6fa f MFC42UD:MFC42uD.DLL
 0001:00049700       ?Create@CDialog@@QAEHIPAVCWnd@@@Z 5f54a700 f MFC42UD:MFC42uD.DLL
 0001:00049706       ?CreateIndirect@CDialog@@QAEHPAXPAVCWnd@@@Z 5f54a706 f MFC42UD:MFC42uD.DLL
 0001:0004970c       ?GetWindow@CWnd@@QBEPAV1@I@Z 5f54a70c f MFC42UD:MFC42uD.DLL
 0001:00049712       ?GotoDlgCtrl@CDialog@@QAEXPAVCWnd@@@Z 5f54a712 f MFC42UD:MFC42uD.DLL
 0001:00049718       ?GetDefID@CDialog@@QBEKXZ  5f54a718 f MFC42UD:MFC42uD.DLL
 0001:0004971e       ?GetAt@CDWordArray@@QBEKH@Z 5f54a71e f MFC42UD:MFC42uD.DLL
 0001:00049724       ??9@YGHABVCString@@0@Z     5f54a724 f MFC42UD:MFC42uD.DLL
 0001:0004972a       ?AfxStaticDownCast@@YAPAVCObject@@PAUCRuntimeClass@@PAV1@@Z 5f54a72a f MFC42UD:MFC42uD.DLL
 0001:00049730       ?PrepareCtrl@CDataExchange@@QAEPAUHWND__@@H@Z 5f54a730 f MFC42UD:MFC42uD.DLL
 0001:00049736       ??6CArchive@@QAEAAV0@F@Z   5f54a736 f MFC42UD:MFC42uD.DLL
 0001:0004973c       ??6CArchive@@QAEAAV0@H@Z   5f54a73c f MFC42UD:MFC42uD.DLL
 0001:00049742       ??5CArchive@@QAEAAV0@AAF@Z 5f54a742 f MFC42UD:MFC42uD.DLL
 0001:00049748       ??5CArchive@@QAEAAV0@AAH@Z 5f54a748 f MFC42UD:MFC42uD.DLL
 0001:0004974e       ??1CStringArray@@UAE@XZ    5f54a74e f MFC42UD:MFC42uD.DLL
 0001:00049754       ?GetAt@CStringArray@@QBE?AVCString@@H@Z 5f54a754 f MFC42UD:MFC42uD.DLL
 0001:0004975a       ?GetSize@CStringArray@@QBEHXZ 5f54a75a f MFC42UD:MFC42uD.DLL
 0001:00049760       ??0CStringArray@@QAE@XZ    5f54a760 f MFC42UD:MFC42uD.DLL
 0001:00049766       ?RemoveAll@CStringArray@@QAEXXZ 5f54a766 f MFC42UD:MFC42uD.DLL
 0001:0004976c       ?Add@CStringArray@@QAEHPBG@Z 5f54a76c f MFC42UD:MFC42uD.DLL
 0001:00049772       ?SeekToEnd@CFile@@QAEKXZ   5f54a772 f MFC42UD:MFC42uD.DLL
 0001:00049778       ?Compare@CString@@QBEHPBG@Z 5f54a778 f MFC42UD:MFC42uD.DLL
 0001:0004977e       ??YCString@@QAEABV0@PBG@Z  5f54a77e f MFC42UD:MFC42uD.DLL
 0001:00049784       ?Left@CString@@QBE?AV1@H@Z 5f54a784 f MFC42UD:MFC42uD.DLL
 0001:0004978a       ?ReverseFind@CString@@QBEHG@Z 5f54a78a f MFC42UD:MFC42uD.DLL
 0001:00049790       ??0CRectTracker@@QAE@PBUtagRECT@@I@Z 5f54a790 f MFC42UD:MFC42uD.DLL
 0001:00049796       ??1CBrush@@UAE@XZ          5f54a796 f MFC42UD:MFC42uD.DLL
 0001:0004979c       ?FillRect@CDC@@QAEXPBUtagRECT@@PAVCBrush@@@Z 5f54a79c f MFC42UD:MFC42uD.DLL
 0001:000497a2       ??0CBrush@@QAE@K@Z         5f54a7a2 f MFC42UD:MFC42uD.DLL
 0001:000497a8       ??9CRect@@QBEHABUtagRECT@@@Z 5f54a7a8 f MFC42UD:MFC42uD.DLL
 0001:000497ae       ?FromHandle@CDC@@SGPAV1@PAUHDC__@@@Z 5f54a7ae f MFC42UD:MFC42uD.DLL
 0001:000497b4       ?_mbstowcsz@@YAHPAGPBDI@Z  5f54a7b4 f MFC42UD:MFC42uD.DLL
 0001:000497ba       ??1CMapStringToPtr@@UAE@XZ 5f54a7ba f MFC42UD:MFC42uD.DLL
 0001:000497c0       ??0CMapStringToPtr@@QAE@H@Z 5f54a7c0 f MFC42UD:MFC42uD.DLL
 0001:000497c6       ?Lookup@CMapStringToPtr@@QBEHPBGAAPAX@Z 5f54a7c6 f MFC42UD:MFC42uD.DLL
 0001:000497cc       ?MakeLower@CString@@QAEXXZ 5f54a7cc f MFC42UD:MFC42uD.DLL
 0001:000497d2       ?SetAt@CMapStringToPtr@@QAEXPBGPAX@Z 5f54a7d2 f MFC42UD:MFC42uD.DLL
 0001:000497d8       ?GetNextAssoc@CMapStringToPtr@@QBEXAAPAU__POSITION@@AAVCString@@AAPAX@Z 5f54a7d8 f MFC42UD:MFC42uD.DLL
 0001:000497de       ?GetStartPosition@CMapStringToPtr@@QBEPAU__POSITION@@XZ 5f54a7de f MFC42UD:MFC42uD.DLL
 0001:000497e4       ?GetCount@CMapStringToPtr@@QBEHXZ 5f54a7e4 f MFC42UD:MFC42uD.DLL
 0001:000497ea       ??1CThreadLocalObject@@QAE@XZ 5f54a7ea f MFC42UD:MFC42uD.DLL
 0001:000497f0       ?Escape@CDC@@UAEHHHPBDPAX@Z 5f54a7f0 f MFC42UD:MFC42uD.DLL
 0001:000497f6       ?GrayStringW@CDC@@UAEHPAVCBrush@@P6GHPAUHDC__@@JH@ZJHHHHH@Z 5f54a7f6 f MFC42UD:MFC42uD.DLL
 0001:000497fc       ?DrawTextW@CDC@@UAEHPBGHPAUtagRECT@@I@Z 5f54a7fc f MFC42UD:MFC42uD.DLL
 0001:00049802       ?TabbedTextOutW@CDC@@UAE?AVCSize@@HHPBGHHPAHH@Z 5f54a802 f MFC42UD:MFC42uD.DLL
 0001:00049808       ?ExtTextOutW@CDC@@UAEHHHIPBUtagRECT@@PBGIPAH@Z 5f54a808 f MFC42UD:MFC42uD.DLL
 0001:0004980e       ?TextOutW@CDC@@UAEHHHPBGH@Z 5f54a80e f MFC42UD:MFC42uD.DLL
 0001:00049814       ?RectVisible@CDC@@UBEHPBUtagRECT@@@Z 5f54a814 f MFC42UD:MFC42uD.DLL
 0001:0004981a       ?PtVisible@CDC@@UBEHHH@Z   5f54a81a f MFC42UD:MFC42uD.DLL
 0001:00049820       ?GetClipBox@CDC@@UBEHPAUtagRECT@@@Z 5f54a820 f MFC42UD:MFC42uD.DLL
 0001:00049826       ?ScaleWindowExt@CDC@@UAE?AVCSize@@HHHH@Z 5f54a826 f MFC42UD:MFC42uD.DLL
 0001:0004982c       ?ScaleViewportExt@CDC@@UAE?AVCSize@@HHHH@Z 5f54a82c f MFC42UD:MFC42uD.DLL
 0001:00049832       ?SetViewportExt@CDC@@UAE?AVCSize@@HH@Z 5f54a832 f MFC42UD:MFC42uD.DLL
 0001:00049838       ?OffsetViewportOrg@CDC@@UAE?AVCPoint@@HH@Z 5f54a838 f MFC42UD:MFC42uD.DLL
 0001:0004983e       ?SetViewportOrg@CDC@@UAE?AVCPoint@@HH@Z 5f54a83e f MFC42UD:MFC42uD.DLL
 0001:00049844       ?SetTextColor@CDC@@UAEKK@Z 5f54a844 f MFC42UD:MFC42uD.DLL
 0001:0004984a       ?SetBkColor@CDC@@UAEKK@Z   5f54a84a f MFC42UD:MFC42uD.DLL
 0001:00049850       ?SelectObject@CDC@@UAEPAVCFont@@PAV2@@Z 5f54a850 f MFC42UD:MFC42uD.DLL
 0001:00049856       ?SelectStockObject@CDC@@UAEPAVCGdiObject@@H@Z 5f54a856 f MFC42UD:MFC42uD.DLL
 0001:0004985c       ?RestoreDC@CDC@@UAEHH@Z    5f54a85c f MFC42UD:MFC42uD.DLL
 0001:00049862       ?SaveDC@CDC@@UAEHXZ        5f54a862 f MFC42UD:MFC42uD.DLL
 0001:00049868       ?ReleaseOutputDC@CDC@@UAEXXZ 5f54a868 f MFC42UD:MFC42uD.DLL
 0001:0004986e       ?ReleaseAttribDC@CDC@@UAEXXZ 5f54a86e f MFC42UD:MFC42uD.DLL
 0001:00049874       ?SetOutputDC@CDC@@UAEXPAUHDC__@@@Z 5f54a874 f MFC42UD:MFC42uD.DLL
 0001:0004987a       ?SetAttribDC@CDC@@UAEXPAUHDC__@@@Z 5f54a87a f MFC42UD:MFC42uD.DLL
 0001:00049880       ?Dump@CDC@@UBEXAAVCDumpContext@@@Z 5f54a880 f MFC42UD:MFC42uD.DLL
 0001:00049886       ?AssertValid@CDC@@UBEXXZ   5f54a886 f MFC42UD:MFC42uD.DLL
 0001:0004988c       ?SetViewportOrg@CDC@@QAE?AVCPoint@@UtagPOINT@@@Z 5f54a88c f MFC42UD:MFC42uD.DLL
 0001:00049892       ??HCPoint@@QBE?AV0@UtagPOINT@@@Z 5f54a892 f MFC42UD:MFC42uD.DLL
 0001:00049898       ?GetViewportOrg@CDC@@QBE?AVCPoint@@XZ 5f54a898 f MFC42UD:MFC42uD.DLL
 0001:0004989e       ?GetDC@CWnd@@QAEPAVCDC@@XZ 5f54a89e f MFC42UD:MFC42uD.DLL
 0001:000498a4       ?ReleaseDC@CWnd@@QAEHPAVCDC@@@Z 5f54a8a4 f MFC42UD:MFC42uD.DLL
 0001:000498aa       ??1CRgn@@UAE@XZ            5f54a8aa f MFC42UD:MFC42uD.DLL
 0001:000498b0       ?InvalidateRgn@CWnd@@QAEXPAVCRgn@@H@Z 5f54a8b0 f MFC42UD:MFC42uD.DLL
 0001:000498b6       ??BCRgn@@QBEPAUHRGN__@@XZ  5f54a8b6 f MFC42UD:MFC42uD.DLL
 0001:000498bc       ?OffsetRgn@CRgn@@QAEHUtagPOINT@@@Z 5f54a8bc f MFC42UD:MFC42uD.DLL
 0001:000498c2       ?CopyRgn@CRgn@@QAEHPAV1@@Z 5f54a8c2 f MFC42UD:MFC42uD.DLL
 0001:000498c8       ??0CRgn@@QAE@XZ            5f54a8c8 f MFC42UD:MFC42uD.DLL
 0001:000498ce       ?ScrollWindow@CWnd@@QAEXHHPBUtagRECT@@0@Z 5f54a8ce f MFC42UD:MFC42uD.DLL
 0001:000498d4       ?OnChildNotify@CButton@@MAEHIIJPAJ@Z 5f54a8d4 f MFC42UD:MFC42uD.DLL
 0001:000498da       ?GetRuntimeClass@CButton@@UBEPAUCRuntimeClass@@XZ 5f54a8da f MFC42UD:MFC42uD.DLL
 0001:000498e0       ??1CButton@@UAE@XZ         5f54a8e0 f MFC42UD:MFC42uD.DLL
 0001:000498e6       ??0CButton@@QAE@XZ         5f54a8e6 f MFC42UD:MFC42uD.DLL
 0001:000498ec       ?GetState@CButton@@QBEIXZ  5f54a8ec f MFC42UD:MFC42uD.DLL
 0001:000498f2       ?GetNearestColor@CDC@@QBEKK@Z 5f54a8f2 f MFC42UD:MFC42uD.DLL
 0001:000498f8       ?RealizePalette@CDC@@QAEIXZ 5f54a8f8 f MFC42UD:MFC42uD.DLL
 0001:000498fe       ?SelectPalette@CDC@@QAEPAVCPalette@@PAV2@H@Z 5f54a8fe f MFC42UD:MFC42uD.DLL
 0001:00049904       ?FromHandle@CPalette@@SGPAV1@PAUHPALETTE__@@@Z 5f54a904 f MFC42UD:MFC42uD.DLL
 0001:0004990a       ??1CComboBox@@UAE@XZ       5f54a90a f MFC42UD:MFC42uD.DLL
 0001:00049910       ??0CComboBox@@QAE@XZ       5f54a910 f MFC42UD:MFC42uD.DLL
 0001:00049916       ?SubclassDlgItem@CWnd@@QAEHIPAV1@@Z 5f54a916 f MFC42UD:MFC42uD.DLL
 0001:0004991c       ?SetCurSel@CComboBox@@QAEHH@Z 5f54a91c f MFC42UD:MFC42uD.DLL
 0001:00049922       ?SetItemData@CComboBox@@QAEHHK@Z 5f54a922 f MFC42UD:MFC42uD.DLL
 0001:00049928       ?AddString@CComboBox@@QAEHPBG@Z 5f54a928 f MFC42UD:MFC42uD.DLL
 0001:0004992e       ?GetItemData@CComboBox@@QBEKH@Z 5f54a92e f MFC42UD:MFC42uD.DLL
 0001:00049934       ?GetCount@CComboBox@@QBEHXZ 5f54a934 f MFC42UD:MFC42uD.DLL
 0001:0004993a       ?GetCurSel@CComboBox@@QBEHXZ 5f54a93a f MFC42UD:MFC42uD.DLL
 0001:00049940       ?DDX_Control@@YGXPAVCDataExchange@@HAAVCWnd@@@Z 5f54a940 f MFC42UD:MFC42uD.DLL
 0001:00049946       ?SelectObject@CDC@@QAEPAVCPen@@PAV2@@Z 5f54a946 f MFC42UD:MFC42uD.DLL
 0001:0004994c       ?LineTo@CDC@@QAEHHH@Z      5f54a94c f MFC42UD:MFC42uD.DLL
 0001:00049952       ?MoveTo@CDC@@QAE?AVCPoint@@HH@Z 5f54a952 f MFC42UD:MFC42uD.DLL
 0001:00049958       ??0CPen@@QAE@HHK@Z         5f54a958 f MFC42UD:MFC42uD.DLL
 0001:0004995e       ?FrameRect@CDC@@QAEXPBUtagRECT@@PAVCBrush@@@Z 5f54a95e f MFC42UD:MFC42uD.DLL
 0001:00049964       ??1CStatic@@UAE@XZ         5f54a964 f MFC42UD:MFC42uD.DLL
 0001:0004996a       ??0CStatic@@QAE@XZ         5f54a96a f MFC42UD:MFC42uD.DLL
 0001:00049970       ?DeleteItem@CComboBox@@UAEXPAUtagDELETEITEMSTRUCT@@@Z 5f54a970 f MFC42UD:MFC42uD.DLL
 0001:00049976       ?CompareItem@CComboBox@@UAEHPAUtagCOMPAREITEMSTRUCT@@@Z 5f54a976 f MFC42UD:MFC42uD.DLL
 0001:0004997c       ?MeasureItem@CComboBox@@UAEXPAUtagMEASUREITEMSTRUCT@@@Z 5f54a97c f MFC42UD:MFC42uD.DLL
 0001:00049982       ?DrawItem@CComboBox@@UAEXPAUtagDRAWITEMSTRUCT@@@Z 5f54a982 f MFC42UD:MFC42uD.DLL
 0001:00049988       ?OnChildNotify@CComboBox@@MAEHIIJPAJ@Z 5f54a988 f MFC42UD:MFC42uD.DLL
 0001:0004998e       ?GetRuntimeClass@CComboBox@@UBEPAUCRuntimeClass@@XZ 5f54a98e f MFC42UD:MFC42uD.DLL
 0001:00049994       ?SelectObject@CDC@@QAEPAVCBitmap@@PAV2@@Z 5f54a994 f MFC42UD:MFC42uD.DLL
 0001:0004999a       ?BitBlt@CDC@@QAEHHHHHPAV1@HHK@Z 5f54a99a f MFC42UD:MFC42uD.DLL
 0001:000499a0       ?CreateCompatibleDC@CDC@@QAEHPAV1@@Z 5f54a9a0 f MFC42UD:MFC42uD.DLL
 0001:000499a6       ?GetPixel@CDC@@QBEKHH@Z    5f54a9a6 f MFC42UD:MFC42uD.DLL
 0001:000499ac       ?CreateBitmap@CBitmap@@QAEHHHIIPBX@Z 5f54a9ac f MFC42UD:MFC42uD.DLL
 0001:000499b2       ?GetObjectW@CGdiObject@@QBEHHPAX@Z 5f54a9b2 f MFC42UD:MFC42uD.DLL
 0001:000499b8       ?GetSafeHdc@CDC@@QBEPAUHDC__@@XZ 5f54a9b8 f MFC42UD:MFC42uD.DLL
 0001:000499be       ?ResetContent@CComboBox@@QAEXXZ 5f54a9be f MFC42UD:MFC42uD.DLL
 0001:000499c4       ?SelectString@CComboBox@@QAEHHPBG@Z 5f54a9c4 f MFC42UD:MFC42uD.DLL
 0001:000499ca       ?FindString@CComboBox@@QBEHHPBG@Z 5f54a9ca f MFC42UD:MFC42uD.DLL
 0001:000499d0       ?GetLBText@CComboBox@@QBEXHAAVCString@@@Z 5f54a9d0 f MFC42UD:MFC42uD.DLL
 0001:000499d6       ?DrawFocusRect@CDC@@QAEXPBUtagRECT@@@Z 5f54a9d6 f MFC42UD:MFC42uD.DLL
 0001:000499dc       ?GetTextMetricsW@CDC@@QBEHPAUtagTEXTMETRICW@@@Z 5f54a9dc f MFC42UD:MFC42uD.DLL
 0001:000499e2       ?InsertString@CComboBox@@QAEHHPBG@Z 5f54a9e2 f MFC42UD:MFC42uD.DLL
 0001:000499e8       ?SetEditSel@CComboBox@@QAEHHH@Z 5f54a9e8 f MFC42UD:MFC42uD.DLL
 0001:000499ee       ?FindStringExact@CComboBox@@QBEHHPBG@Z 5f54a9ee f MFC42UD:MFC42uD.DLL
 0001:000499f4       ?CreateFontIndirectW@CFont@@QAEHPBUtagLOGFONTW@@@Z 5f54a9f4 f MFC42UD:MFC42uD.DLL
 0001:000499fa       ?DeleteObject@CGdiObject@@QAEHXZ 5f54a9fa f MFC42UD:MFC42uD.DLL
 0001:00049a00       ?SetBkMode@CDC@@QAEHH@Z    5f54aa00 f MFC42UD:MFC42uD.DLL
 0001:00049a06       ?GetTextExtent@CDC@@QBE?AVCSize@@PBGH@Z 5f54aa06 f MFC42UD:MFC42uD.DLL
 0001:00049a0c       ?SetCheck@CButton@@QAEXH@Z 5f54aa0c f MFC42UD:MFC42uD.DLL
 0001:00049a12       ?GetCheck@CButton@@QBEHXZ  5f54aa12 f MFC42UD:MFC42uD.DLL
 0001:00049a18       ?GetStatus@CFile@@SGHPBGAAUCFileStatus@@@Z 5f54aa18 f MFC42UD:MFC42uD.DLL
 0001:00049a1e       ??0CTime@@QAE@XZ           5f54aa1e f MFC42UD:MFC42uD.DLL
 0001:00049a24       ?GetPathName@CFileDialog@@QBE?AVCString@@XZ 5f54aa24 f MFC42UD:MFC42uD.DLL
 0001:00049a2a       ?DoModal@CFileDialog@@UAEHXZ 5f54aa2a f MFC42UD:MFC42uD.DLL
 0001:00049a30       ??0CFileDialog@@QAE@HPBG0K0PAVCWnd@@@Z 5f54aa30 f MFC42UD:MFC42uD.DLL
 0001:00049a36       ??0CMemFile@@QAE@I@Z       5f54aa36 f MFC42UD:MFC42uD.DLL
 0001:00049a40       ___CxxFrameHandler         5f54aa40 f msvcrtd:MSVCRTD.dll
 0001:00049a50       __onexit                   5f54aa50 f msvcrtd:atonexit.obj
 0001:00049b20       _atexit                    5f54ab20 f msvcrtd:atonexit.obj
 0001:00049b50       ??_L@YGXPAXIHP6EX0@Z1@Z    5f54ab50 f msvcrtd:ehvecctr.obj
 0001:00049c10       ??_M@YGXPAXIHP6EX0@Z@Z     5f54ac10 f msvcrtd:ehvecdtr.obj
 0001:00049cc0       ?__ArrayUnwind@@YGXPAXIHP6EX0@Z@Z 5f54acc0 f msvcrtd:ehvecdtr.obj
 0001:00049da0       ??_Etype_info@@UAEPAXI@Z   5f54ada0 f msvcrtd:ti_inst.obj
 0001:00049da0       ??_Gtype_info@@UAEPAXI@Z   5f54ada0 f msvcrtd:ti_inst.obj
 0001:00049dda       __purecall                 5f54adda f msvcrtd:MSVCRTD.dll
 0001:00049de0       __CxxThrowException@8      5f54ade0 f msvcrtd:MSVCRTD.dll
 0001:00049de6       _memcmp                    5f54ade6 f msvcrtd:MSVCRTD.dll
 0001:00049dec       _memcpy                    5f54adec f msvcrtd:MSVCRTD.dll
 0001:00049df2       _strlen                    5f54adf2 f msvcrtd:MSVCRTD.dll
 0001:00049df8       _memset                    5f54adf8 f msvcrtd:MSVCRTD.dll
 0001:00049e00       __chkstk                   5f54ae00   msvcrtd:chkstk.obj
 0001:00049e00       __alloca_probe             5f54ae00   msvcrtd:chkstk.obj
 0001:00049e30       __ftol                     5f54ae30 f msvcrtd:MSVCRTD.dll
 0001:00049e36       _labs                      5f54ae36 f msvcrtd:MSVCRTD.dll
 0001:00049e3c       _fabs                      5f54ae3c f msvcrtd:MSVCRTD.dll
 0001:00049e50       __CRT_INIT@12              5f54ae50 f msvcrtd:crtdll.obj
 0001:0004a050       __DllMainCRTStartup@12     5f54b050 f msvcrtd:crtdll.obj
 0001:0004a18a       ___dllonexit               5f54b18a f msvcrtd:MSVCRTD.dll
 0001:0004a190       __except_handler3          5f54b190 f msvcrtd:MSVCRTD.dll
 0001:0004a196       ?terminate@@YAXXZ          5f54b196 f msvcrtd:MSVCRTD.dll
 0001:0004a19c       ??1type_info@@UAE@XZ       5f54b19c f msvcrtd:MSVCRTD.dll
 0001:0004a1a2       __initterm                 5f54b1a2 f msvcrtd:MSVCRTD.dll
 0001:0004a1b0       ?_GetBaseClass@COleControlModule@@KGPAUCRuntimeClass@@XZ 5f54b1b0 f ctlmodul.obj
 0001:0004a1c5       ?GetRuntimeClass@COleControlModule@@UBEPAUCRuntimeClass@@XZ 5f54b1c5 f ctlmodul.obj
 0001:0004a1e0       ?InitInstance@COleControlModule@@UAEHXZ 5f54b1e0 f ctlmodul.obj
 0001:0004a205       ?ExitInstance@COleControlModule@@UAEHXZ 5f54b205 f ctlmodul.obj
 0001:0004a230       ??0CReObject@@QAE@XZ       5f54b230 f viewrich.obj
 0001:0004a270       ??0CReObject@@QAE@PAVCRichEditCntrItem@@@Z 5f54b270 f viewrich.obj
 0001:0004a3ba       ??1CReObject@@QAE@XZ       5f54b3ba f viewrich.obj
 0001:0004a462       ?_GetBaseMessageMap@CRichEditView@@KGPBUAFX_MSGMAP@@XZ 5f54b462 f viewrich.obj
 0001:0004a477       ?GetMessageMap@CRichEditView@@MBEPBUAFX_MSGMAP@@XZ 5f54b477 f viewrich.obj
 0001:0004a492       ??0CRichEditView@@QAE@XZ   5f54b492 f viewrich.obj
 0001:0004a609       ?PreCreateWindow@CRichEditView@@MAEHAAUtagCREATESTRUCTW@@@Z 5f54b609 f viewrich.obj
 0001:0004a6a8       ?OnCreate@CRichEditView@@IAEHPAUtagCREATESTRUCTW@@@Z 5f54b6a8 f viewrich.obj
 0001:0004a7a6       ?OnInitialUpdate@CRichEditView@@MAEXXZ 5f54b7a6 f viewrich.obj
 0001:0004a7e3       ?DeleteContents@CRichEditView@@UAEXXZ 5f54b7e3 f viewrich.obj
 0001:0004a87f       ?WrapChanged@CRichEditView@@MAEXXZ 5f54b87f f viewrich.obj
 0001:0004a983       ?Serialize@CRichEditView@@UAEXAAVCArchive@@@Z 5f54b983 f viewrich.obj
 0001:0004a9f4       ?Stream@CRichEditView@@QAEXAAVCArchive@@H@Z 5f54b9f4 f viewrich.obj
 0001:0004aaba       ?EditStreamCallBack@CRichEditView@@SGKKPAEJPAJ@Z 5f54baba f viewrich.obj
 0001:0004ac2f       ?OnBeginPrinting@CRichEditView@@MAEXPAVCDC@@PAUCPrintInfo@@@Z 5f54bc2f f viewrich.obj
 0001:0004acec       ?PaginateTo@CRichEditView@@IAEHPAVCDC@@PAUCPrintInfo@@@Z 5f54bcec f viewrich.obj
 0001:0004af4f       ?OnPrepareDC@CRichEditView@@UAEXPAVCDC@@PAUCPrintInfo@@@Z 5f54bf4f f viewrich.obj
 0001:0004b00b       ?PrintPage@CRichEditView@@QAEJPAVCDC@@JJ@Z 5f54c00b f viewrich.obj
 0001:0004b169       ?PrintInsideRect@CRichEditView@@QAEJPAVCDC@@AAUtagRECT@@JJH@Z 5f54c169 f viewrich.obj
 0001:0004b2d0       ?OnPrint@CRichEditView@@MAEXPAVCDC@@PAUCPrintInfo@@@Z 5f54c2d0 f viewrich.obj
 0001:0004b48f       ?OnEndPrinting@CRichEditView@@MAEXPAVCDC@@PAUCPrintInfo@@@Z 5f54c48f f viewrich.obj
 0001:0004b4db       ?_GetBaseInterfaceMap@CRichEditView@@KGPBUAFX_INTERFACEMAP@@XZ 5f54c4db f viewrich.obj
 0001:0004b4f0       ?GetInterfaceMap@CRichEditView@@MBEPBUAFX_INTERFACEMAP@@XZ 5f54c4f0 f viewrich.obj
 0001:0004b50b       ?AddRef@XRichEditOleCallback@CRichEditView@@UAGKXZ 5f54c50b f viewrich.obj
 0001:0004b533       ?Release@XRichEditOleCallback@CRichEditView@@UAGKXZ 5f54c533 f viewrich.obj
 0001:0004b55b       ?QueryInterface@XRichEditOleCallback@CRichEditView@@UAGJABU_GUID@@PAPAX@Z 5f54c55b f viewrich.obj
 0001:0004b58b       ?GetNewStorage@XRichEditOleCallback@CRichEditView@@UAGJPAPAUIStorage@@@Z 5f54c58b f viewrich.obj
 0001:0004b662       ?GetInPlaceContext@XRichEditOleCallback@CRichEditView@@UAGJPAPAUIOleInPlaceFrame@@PAPAUIOleInPlaceUIWindow@@PAUtagOIFI@@@Z 5f54c662 f viewrich.obj
 0001:0004b6f0       ?ShowContainerUI@XRichEditOleCallback@CRichEditView@@UAGJH@Z 5f54c6f0 f viewrich.obj
 0001:0004b776       ?QueryInsertObject@XRichEditOleCallback@CRichEditView@@UAGJPAU_GUID@@PAUIStorage@@J@Z 5f54c776 f viewrich.obj
 0001:0004b803       ?DeleteObject@XRichEditOleCallback@CRichEditView@@UAGJPAUIOleObject@@@Z 5f54c803 f viewrich.obj
 0001:0004b834       ?QueryAcceptData@XRichEditOleCallback@CRichEditView@@UAGJPAUIDataObject@@PAGKHPAX@Z 5f54c834 f viewrich.obj
 0001:0004b8d0       ?ContextSensitiveHelp@XRichEditOleCallback@CRichEditView@@UAGJH@Z 5f54c8d0 f viewrich.obj
 0001:0004b8e7       ?GetClipboardData@XRichEditOleCallback@CRichEditView@@UAGJPAU_charrange@@KPAPAUIDataObject@@@Z 5f54c8e7 f viewrich.obj
 0001:0004ba26       ?GetDragDropEffect@XRichEditOleCallback@CRichEditView@@UAGJHKPAK@Z 5f54ca26 f viewrich.obj
 0001:0004baa9       ?GetContextMenu@XRichEditOleCallback@CRichEditView@@UAGJGPAUIOleObject@@PAU_charrange@@PAPAUHMENU__@@@Z 5f54caa9 f viewrich.obj
 0001:0004bb71       ?OnCharEffect@CRichEditView@@QAEXKK@Z 5f54cb71 f viewrich.obj
 0001:0004bbe9       ?OnUpdateCharEffect@CRichEditView@@QAEXPAVCCmdUI@@KK@Z 5f54cbe9 f viewrich.obj
 0001:0004bc5b       ?OnParaAlign@CRichEditView@@QAEXG@Z 5f54cc5b f viewrich.obj
 0001:0004bca7       ?OnUpdateParaAlign@CRichEditView@@QAEXPAVCCmdUI@@G@Z 5f54cca7 f viewrich.obj
 0001:0004bd36       ?OnUpdateNeedSel@CRichEditView@@IAEXPAVCCmdUI@@@Z 5f54cd36 f viewrich.obj
 0001:0004bda2       ?OnUpdateNeedClip@CRichEditView@@IAEXPAVCCmdUI@@@Z 5f54cda2 f viewrich.obj
 0001:0004bde0       ?OnUpdateNeedText@CRichEditView@@IAEXPAVCCmdUI@@@Z 5f54cde0 f viewrich.obj
 0001:0004be24       ?OnUpdateNeedFind@CRichEditView@@IAEXPAVCCmdUI@@@Z 5f54ce24 f viewrich.obj
 0001:0004bea1       ?OnUpdateEditUndo@CRichEditView@@IAEXPAVCCmdUI@@@Z 5f54cea1 f viewrich.obj
 0001:0004bee6       ?OnEditCut@CRichEditView@@IAEXXZ 5f54cee6 f viewrich.obj
 0001:0004bf1e       ?OnEditCopy@CRichEditView@@IAEXXZ 5f54cf1e f viewrich.obj
 0001:0004bf56       ?OnEditPaste@CRichEditView@@IAEXXZ 5f54cf56 f viewrich.obj
 0001:0004bf98       ?OnEditClear@CRichEditView@@IAEXXZ 5f54cf98 f viewrich.obj
 0001:0004bfd0       ?OnEditUndo@CRichEditView@@IAEXXZ 5f54cfd0 f viewrich.obj
 0001:0004c027       ?OnEditSelectAll@CRichEditView@@IAEXXZ 5f54d027 f viewrich.obj
 0001:0004c063       ?OnEditFind@CRichEditView@@IAEXXZ 5f54d063 f viewrich.obj
 0001:0004c096       ?OnEditReplace@CRichEditView@@IAEXXZ 5f54d096 f viewrich.obj
 0001:0004c0c9       ?OnEditRepeat@CRichEditView@@IAEXXZ 5f54d0c9 f viewrich.obj
 0001:0004c128       ?OnCancelEditCntr@CRichEditView@@IAEXXZ 5f54d128 f viewrich.obj
 0001:0004c150       ?OnInsertObject@CRichEditView@@IAEXXZ 5f54d150 f viewrich.obj
 0001:0004c366       ?OnSelChange@CRichEditView@@IAEXPAUtagNMHDR@@PAJ@Z 5f54d366 f viewrich.obj
 0001:0004c3ce       ?OnDestroy@CRichEditView@@IAEXXZ 5f54d3ce f viewrich.obj
 0001:0004c40b       ?OnEditProperties@CRichEditView@@IAEXXZ 5f54d40b f viewrich.obj
 0001:0004c514       ?OnUpdateEditProperties@CRichEditView@@IAEXPAVCCmdUI@@@Z 5f54d514 f viewrich.obj
 0001:0004c545       ?OnCharBold@CRichEditView@@IAEXXZ 5f54d545 f viewrich.obj
 0001:0004c567       ?OnUpdateCharBold@CRichEditView@@IAEXPAVCCmdUI@@@Z 5f54d567 f viewrich.obj
 0001:0004c58f       ?OnCharItalic@CRichEditView@@IAEXXZ 5f54d58f f viewrich.obj
 0001:0004c5b1       ?OnUpdateCharItalic@CRichEditView@@IAEXPAVCCmdUI@@@Z 5f54d5b1 f viewrich.obj
 0001:0004c5d9       ?OnCharUnderline@CRichEditView@@IAEXXZ 5f54d5d9 f viewrich.obj
 0001:0004c5fb       ?OnUpdateCharUnderline@CRichEditView@@IAEXPAVCCmdUI@@@Z 5f54d5fb f viewrich.obj
 0001:0004c623       ?OnParaCenter@CRichEditView@@IAEXXZ 5f54d623 f viewrich.obj
 0001:0004c643       ?OnUpdateParaCenter@CRichEditView@@IAEXPAVCCmdUI@@@Z 5f54d643 f viewrich.obj
 0001:0004c669       ?OnParaLeft@CRichEditView@@IAEXXZ 5f54d669 f viewrich.obj
 0001:0004c689       ?OnUpdateParaLeft@CRichEditView@@IAEXPAVCCmdUI@@@Z 5f54d689 f viewrich.obj
 0001:0004c6af       ?OnParaRight@CRichEditView@@IAEXXZ 5f54d6af f viewrich.obj
 0001:0004c6cf       ?OnUpdateParaRight@CRichEditView@@IAEXPAVCCmdUI@@@Z 5f54d6cf f viewrich.obj
 0001:0004c6f5       ?OnBullet@CRichEditView@@IAEXXZ 5f54d6f5 f viewrich.obj
 0001:0004c7c6       ?OnUpdateBullet@CRichEditView@@IAEXPAVCCmdUI@@@Z 5f54d7c6 f viewrich.obj
 0001:0004c839       ?OnFormatFont@CRichEditView@@IAEXXZ 5f54d839 f viewrich.obj
 0001:0004c915       ?OnColorPick@CRichEditView@@IAEXK@Z 5f54d915 f viewrich.obj
 0001:0004c978       ?OnColorDefault@CRichEditView@@IAEXXZ 5f54d978 f viewrich.obj
 0001:0004c9cd       ?OnEditPasteSpecial@CRichEditView@@IAEXXZ 5f54d9cd f viewrich.obj
 0001:0004cb4a       ?OnUpdateEditPasteSpecial@CRichEditView@@IAEXPAVCCmdUI@@@Z 5f54db4a f viewrich.obj
 0001:0004cb75       ?OnKeyDown@CRichEditView@@IAEXIII@Z 5f54db75 f viewrich.obj
 0001:0004cc10       ?OnDropFiles@CRichEditView@@IAEXPAUHDROP__@@@Z 5f54dc10 f viewrich.obj
 0001:0004cd67       ?OnDevModeChange@CRichEditView@@IAEXPAG@Z 5f54dd67 f viewrich.obj
 0001:0004cded       ?IsRichEditFormat@CRichEditView@@SAHG@Z 5f54dded f viewrich.obj
 0001:0004ce42       ?CanPaste@CRichEditView@@QBEHXZ 5f54de42 f viewrich.obj
 0001:0004cf2f       ?GetCharFormatSelection@CRichEditView@@QAEAAU_charformatw@@XZ 5f54df2f f viewrich.obj
 0001:0004cf82       ?GetParaFormatSelection@CRichEditView@@QAEAAU_paraformat@@XZ 5f54df82 f viewrich.obj
 0001:0004cfd5       ?SetCharFormat@CRichEditView@@QAEXU_charformatw@@@Z 5f54dfd5 f viewrich.obj
 0001:0004d059       ?SetParaFormat@CRichEditView@@QAEXAAU_paraformat@@@Z 5f54e059 f viewrich.obj
 0001:0004d0dd       ?GetSelectedItem@CRichEditView@@QBEPAVCRichEditCntrItem@@XZ 5f54e0dd f viewrich.obj
 0001:0004d1f7       ?GetInPlaceActiveItem@CRichEditView@@QBEPAVCRichEditCntrItem@@XZ 5f54e1f7 f viewrich.obj
 0001:0004d31b       ?InsertItem@CRichEditView@@QAEJPAVCRichEditCntrItem@@@Z 5f54e31b f viewrich.obj
 0001:0004d3ff       ?InsertFileAsObject@CRichEditView@@QAEXPBG@Z 5f54e3ff f viewrich.obj
 0001:0004d585       ?DoPaste@CRichEditView@@QAEXAAVCOleDataObject@@GPAX@Z 5f54e585 f viewrich.obj
 0001:0004d8ed       ?OnPrinterChanged@CRichEditView@@MAEXABVCDC@@@Z 5f54e8ed f viewrich.obj
 0001:0004d9d2       ?OnPasteNativeObject@CRichEditView@@MAEHPAUIStorage@@@Z 5f54e9d2 f viewrich.obj
 0001:0004d9ec       ?GetContextMenu@CRichEditView@@MAEPAUHMENU__@@GPAUIOleObject@@PAU_charrange@@@Z 5f54e9ec f viewrich.obj
 0001:0004da06       ?GetClipboardData@CRichEditView@@MAEJPAU_charrange@@KPAUIDataObject@@PAPAU3@@Z 5f54ea06 f viewrich.obj
 0001:0004da23       ?QueryAcceptData@CRichEditView@@MAEJPAUIDataObject@@PAGKHPAX@Z 5f54ea23 f viewrich.obj
 0001:0004dbd7       ?GetWindowContext@CRichEditView@@QAEJPAPAUIOleInPlaceFrame@@PAPAUIOleInPlaceUIWindow@@PAUtagOIFI@@@Z 5f54ebd7 f viewrich.obj
 0001:0004dc3b       ?ShowContainerUI@CRichEditView@@QAEJH@Z 5f54ec3b f viewrich.obj
 0001:0004dcb5       ?AdjustDialogPosition@CRichEditView@@QAEXPAVCDialog@@@Z 5f54ecb5 f viewrich.obj
 0001:0004ddc2       ?OnEditFindReplace@CRichEditView@@IAEXH@Z 5f54edc2 f viewrich.obj
 0001:0004e0c9       ?OnFindNext@CRichEditView@@MAEXPBGHHH@Z 5f54f0c9 f viewrich.obj
 0001:0004e17b       ?OnReplaceSel@CRichEditView@@MAEXPBGHHH0@Z 5f54f17b f viewrich.obj
 0001:0004e2c4       ?OnReplaceAll@CRichEditView@@MAEXPBG0HH@Z 5f54f2c4 f viewrich.obj
 0001:0004e464       ?OnFindReplaceCmd@CRichEditView@@IAEJIJ@Z 5f54f464 f viewrich.obj
 0001:0004e729       ?SameAsSelected@CRichEditView@@IAEHPBGHH@Z 5f54f729 f viewrich.obj
 0001:0004e833       ?FindTextW@CRichEditView@@QAEHPAV_AFX_RICHEDIT_STATE@@@Z 5f54f833 f viewrich.obj
 0001:0004e88f       ?FindTextW@CRichEditView@@QAEHPBGHH@Z 5f54f88f f viewrich.obj
 0001:0004e921       ?FindTextSimple@CRichEditView@@QAEHPAV_AFX_RICHEDIT_STATE@@@Z 5f54f921 f viewrich.obj
 0001:0004e97d       ?FindTextSimple@CRichEditView@@QAEHPBGHH@Z 5f54f97d f viewrich.obj
 0001:0004eaf0       ?FindAndSelect@CRichEditView@@QAEJKAAU_findtextexw@@@Z 5f54faf0 f viewrich.obj
 0001:0004eb45       ?TextNotFound@CRichEditView@@QAEXPBG@Z 5f54fb45 f viewrich.obj
 0001:0004eb8c       ?OnTextNotFound@CRichEditView@@MAEXPBG@Z 5f54fb8c f viewrich.obj
 0001:0004ebac       ?AssertValid@CRichEditView@@UBEXXZ 5f54fbac f viewrich.obj
 0001:0004ec13       ?Dump@CRichEditView@@UBEXAAVCDumpContext@@@Z 5f54fc13 f viewrich.obj
 0001:0004ed37       ?IsSelected@CRichEditView@@MBEHPBVCObject@@@Z 5f54fd37 f viewrich.obj
 0001:0004ed6c       ??0CRichEditDoc@@IAE@XZ    5f54fd6c f viewrich.obj
 0001:0004ee08       ?GetView@CRichEditDoc@@UBEPAVCRichEditView@@XZ 5f54fe08 f viewrich.obj
 0001:0004ee7d       ?IsModified@CRichEditDoc@@UAEHXZ 5f54fe7d f viewrich.obj
 0001:0004eeaf       ?SetModifiedFlag@CRichEditDoc@@UAEXH@Z 5f54feaf f viewrich.obj
 0001:0004ef30       ?GetInPlaceActiveItem@CRichEditDoc@@UAEPAVCOleClientItem@@PAVCWnd@@@Z 5f54ff30 f viewrich.obj
 0001:0004ef83       ?SetPathName@CRichEditDoc@@UAEXPBGH@Z 5f54ff83 f viewrich.obj
 0001:0004efab       ?SetTitle@CRichEditDoc@@UAEXPBG@Z 5f54ffab f viewrich.obj
 0001:0004f0f6       ?LookupItem@CRichEditDoc@@QBEPAVCRichEditCntrItem@@PAUIOleObject@@@Z 5f5500f6 f viewrich.obj
 0001:0004f165       ?CreateClientItem@CRichEditDoc@@UBEPAVCRichEditCntrItem@@PAU_reobject@@@Z 5f550165 f viewrich.obj
 0001:0004f1b5       ?MarkItemsClear@CRichEditDoc@@IBEXXZ 5f5501b5 f viewrich.obj
 0001:0004f21d       ?DeleteUnmarkedItems@CRichEditDoc@@IBEXXZ 5f55021d f viewrich.obj
 0001:0004f2a9       ?GetStartPosition@CRichEditDoc@@UBEPAU__POSITION@@XZ 5f5502a9 f viewrich.obj
 0001:0004f2df       ?UpdateObjectCache@CRichEditDoc@@IAEXXZ 5f5502df f viewrich.obj
 0001:0004f480       ?GetPrimarySelectedItem@CRichEditDoc@@UAEPAVCOleClientItem@@PAVCView@@@Z 5f550480 f viewrich.obj
 0001:0004f4cd       ?DeleteContents@CRichEditDoc@@UAEXXZ 5f5504cd f viewrich.obj
 0001:0004f5a0       ?Serialize@CRichEditDoc@@UAEXAAVCArchive@@@Z 5f5505a0 f viewrich.obj
 0001:0004f5e2       ?AssertValid@CRichEditDoc@@UBEXXZ 5f5505e2 f viewrich.obj
 0001:0004f600       ?Dump@CRichEditDoc@@UBEXAAVCDumpContext@@@Z 5f550600 f viewrich.obj
 0001:0004f624       ?PreCloseFrame@CRichEditDoc@@UAEXPAVCFrameWnd@@@Z 5f550624 f viewrich.obj
 0001:0004f744       ?UpdateModifiedFlag@CRichEditDoc@@UAEXXZ 5f550744 f viewrich.obj
 0001:0004f75a       ?OnGetEmbeddedItem@CRichEditDoc@@MAEPAVCOleServerItem@@XZ 5f55075a f viewrich.obj
 0001:0004f78a       ??0CRichEditCntrItem@@QAE@PAU_reobject@@PAVCRichEditDoc@@@Z 5f55078a f viewrich.obj
 0001:0004f90c       ??1CRichEditCntrItem@@UAE@XZ 5f55090c f viewrich.obj
 0001:0004f993       ?OnDeactivateUI@CRichEditCntrItem@@UAEXH@Z 5f550993 f viewrich.obj
 0001:0004fa0f       ?ShowContainerUI@CRichEditCntrItem@@QAEJH@Z 5f550a0f f viewrich.obj
 0001:0004fa92       ?OnChangeItemPosition@CRichEditCntrItem@@MAEHABVCRect@@@Z 5f550a92 f viewrich.obj
 0001:0004fabf       ?CanActivate@CRichEditCntrItem@@UAEHXZ 5f550abf f viewrich.obj
 0001:0004fb17       ?GetWindowContext@CRichEditCntrItem@@QAEJPAPAUIOleInPlaceFrame@@PAPAUIOleInPlaceUIWindow@@PAUtagOIFI@@@Z 5f550b17 f viewrich.obj
 0001:0004fb83       ?ConvertTo@CRichEditCntrItem@@UAEHABU_GUID@@@Z 5f550b83 f viewrich.obj
 0001:0004fc74       ?ActivateAs@CRichEditCntrItem@@UAEHPBGABU_GUID@@1@Z 5f550c74 f viewrich.obj
 0001:0004fcde       ?SetDrawAspect@CRichEditCntrItem@@UAEXW4tagDVASPECT@@@Z 5f550cde f viewrich.obj
 0001:0004fd39       ?SyncToRichEditObject@CRichEditCntrItem@@QAEXAAU_reobject@@@Z 5f550d39 f viewrich.obj
 0001:0004fd60       ?AssertValid@CRichEditCntrItem@@UBEXXZ 5f550d60 f viewrich.obj
 0001:0004fd7e       ?Dump@CRichEditCntrItem@@UBEXAAVCDumpContext@@@Z 5f550d7e f viewrich.obj
 0001:0004fda2       ?GetClientSite@CRichEditCntrItem@@UAEPAUIOleClientSite@@XZ 5f550da2 f viewrich.obj
 0001:0004fe7c       ?GetRichEditCtrl@CRichEditView@@QBEAAVCRichEditCtrl@@XZ 5f550e7c f viewrich.obj
 0001:0004fe95       ?GetPrintWidth@CRichEditView@@QBEHXZ 5f550e95 f viewrich.obj
 0001:0004fec0       ?GetPrintRect@CRichEditView@@QBE?AVCRect@@XZ 5f550ec0 f viewrich.obj
 0001:0004ff14       ?GetPageRect@CRichEditView@@QBE?AVCRect@@XZ 5f550f14 f viewrich.obj
 0001:0004ff59       ?SetPaperSize@CRichEditView@@QAEXVCSize@@@Z 5f550f59 f viewrich.obj
 0001:0004ff85       ?GetPaperSize@CRichEditView@@QBE?AVCSize@@XZ 5f550f85 f viewrich.obj
 0001:0004ffb5       ?SetMargins@CRichEditView@@QAEXABVCRect@@@Z 5f550fb5 f viewrich.obj
 0001:0004ffec       ?GetMargins@CRichEditView@@QBE?AVCRect@@XZ 5f550fec f viewrich.obj
 0001:00050026       ?GetTextLength@CRichEditView@@QBEJXZ 5f551026 f viewrich.obj
 0001:0005004b       ?GetDocument@CRichEditView@@QBEPAVCRichEditDoc@@XZ 5f55104b f viewrich.obj
 0001:000500b6       ?GetStreamFormat@CRichEditDoc@@QBEHXZ 5f5510b6 f viewrich.obj
 0001:000500eb       ?InvalidateObjectCache@CRichEditDoc@@QAEXXZ 5f5510eb f viewrich.obj
 0001:0005010e       ?Mark@CRichEditCntrItem@@QAEXH@Z 5f55110e f viewrich.obj
 0001:0005012f       ?IsMarked@CRichEditCntrItem@@QAEHXZ 5f55112f f viewrich.obj
 0001:0005016e       ?GetDocument@CRichEditCntrItem@@QAEPAVCRichEditDoc@@XZ 5f55116e f viewrich.obj
 0001:0005018c       ?GetActiveView@CRichEditCntrItem@@QAEPAVCRichEditView@@XZ 5f55118c f viewrich.obj
 0001:000501b0       ??0XRichEditOleCallback@CRichEditView@@QAE@XZ 5f5511b0 f viewrich.obj
 0001:000501e0       ??0IRichEditOleCallback@@QAE@XZ 5f5511e0 f viewrich.obj
 0001:00050210       ??1CFontDialog@@UAE@XZ     5f551210 f viewrich.obj
 0001:00050270       ??_ECRichEditDoc@@UAEPAXI@Z 5f551270 f viewrich.obj
 0001:00050270       ??_GCRichEditDoc@@UAEPAXI@Z 5f551270 f viewrich.obj
 0001:000502b0       ??1CRichEditDoc@@UAE@XZ    5f5512b0 f viewrich.obj
 0001:00050310       _RawDllMain@12             5f551310 f dllole.obj
 0001:0005042c       _DllMain@12                5f55142c f dllole.obj
 0001:00050663       ?AfxOleInitModule@@YGXXZ   5f551663 f dllole.obj
 0001:00050746       _DllGetClassObject@12      5f551746 f dllole.obj
 0001:000507c5       _DllCanUnloadNow@0         5f5517c5 f dllole.obj
 0001:00050836       _DllRegisterServer@0       5f551836 f dllole.obj
 0001:000508d0       _DllUnregisterServer@0     5f5518d0 f dllole.obj
 0001:000509d7       ?AfxWndProcDllOle@@YGJPAUHWND__@@IIJ@Z 5f5519d7 f dllole.obj
 0001:00050a5a       ??1_AFX_INIT_OLE_DLL_STATE@@QAE@XZ 5f551a5a f dllole.obj
 0001:00050b5f       ?_AfxGetOleModuleState@@YGPAVAFX_MODULE_STATE@@XZ 5f551b5f f dllole.obj
 0001:00050baf       ??0OLE_DATA@@QAE@XZ        5f551baf f oleinit.obj
 0001:00050c93       ?AfxOleInit@@YGHXZ         5f551c93 f oleinit.obj
 0001:00050ddc       ?AfxOleTerm@@YGXH@Z        5f551ddc f oleinit.obj
 0001:00050e7c       ?AfxOleTermOrFreeLib@@YGXHH@Z 5f551e7c f oleinit.obj
 0001:00050ef6       ?RunEmbedded@CWinApp@@QAEHXZ 5f551ef6 f oleinit.obj
 0001:00051016       ?RunAutomated@CWinApp@@QAEHXZ 5f552016 f oleinit.obj
 0001:00051080       ?_GetBaseClass@COleLinkingDoc@@KGPAUCRuntimeClass@@XZ 5f552080 f olecli1.obj
 0001:00051095       ?GetRuntimeClass@COleLinkingDoc@@UBEPAUCRuntimeClass@@XZ 5f552095 f olecli1.obj
 0001:000510b0       ?AfxBSTR2CString@@YGXPAVCString@@PAG@Z 5f5520b0 f olecnvrt.obj
 0001:00051135       ?AfxAllocTaskWideString@@YGPAGPBG@Z 5f552135 f olecnvrt.obj
 0001:000511a0       ?AfxAllocTaskWideString@@YGPAGPBD@Z 5f5521a0 f olecnvrt.obj
 0001:0005122a       ?AfxAllocTaskAnsiString@@YGPADPBG@Z 5f55222a f olecnvrt.obj
 0001:000512bd       ?AfxAllocTaskAnsiString@@YGPADPBD@Z 5f5522bd f olecnvrt.obj
 0001:00051330       ?_GetBaseClass@COleDispatchException@@KGPAUCRuntimeClass@@XZ 5f552330 f oledisp1.obj
 0001:00051345       ?GetRuntimeClass@COleDispatchException@@UBEPAUCRuntimeClass@@XZ 5f552345 f oledisp1.obj
 0001:00051360       ?_GetBaseClass@COleInsertDialog@@KGPAUCRuntimeClass@@XZ 5f552360 f oledlgs1.obj
 0001:00051375       ?GetRuntimeClass@COleInsertDialog@@UBEPAUCRuntimeClass@@XZ 5f552375 f oledlgs1.obj
 0001:00051390       ?_GetBaseClass@COleConvertDialog@@KGPAUCRuntimeClass@@XZ 5f552390 f oledlgs1.obj
 0001:000513a5       ?GetRuntimeClass@COleConvertDialog@@UBEPAUCRuntimeClass@@XZ 5f5523a5 f oledlgs1.obj
 0001:000513c0       ?_GetBaseClass@COleChangeIconDialog@@KGPAUCRuntimeClass@@XZ 5f5523c0 f oledlgs1.obj
 0001:000513d5       ?GetRuntimeClass@COleChangeIconDialog@@UBEPAUCRuntimeClass@@XZ 5f5523d5 f oledlgs1.obj
 0001:000513f0       ?_GetBaseClass@COleLinksDialog@@KGPAUCRuntimeClass@@XZ 5f5523f0 f oledlgs1.obj
 0001:00051405       ?GetRuntimeClass@COleLinksDialog@@UBEPAUCRuntimeClass@@XZ 5f552405 f oledlgs1.obj
 0001:00051420       ?_GetBaseClass@COleUpdateDialog@@KGPAUCRuntimeClass@@XZ 5f552420 f oledlgs1.obj
 0001:00051435       ?GetRuntimeClass@COleUpdateDialog@@UBEPAUCRuntimeClass@@XZ 5f552435 f oledlgs1.obj
 0001:00051450       ?_GetBaseClass@COlePasteSpecialDialog@@KGPAUCRuntimeClass@@XZ 5f552450 f oledlgs1.obj
 0001:00051465       ?GetRuntimeClass@COlePasteSpecialDialog@@UBEPAUCRuntimeClass@@XZ 5f552465 f oledlgs1.obj
 0001:00051480       ?_GetBaseClass@COleDialog@@KGPAUCRuntimeClass@@XZ 5f552480 f oledlgs2.obj
 0001:00051495       ?GetRuntimeClass@COleDialog@@UBEPAUCRuntimeClass@@XZ 5f552495 f oledlgs2.obj
 0001:000514b0       ?_GetBaseClass@COleBusyDialog@@KGPAUCRuntimeClass@@XZ 5f5524b0 f oledlgs2.obj
 0001:000514c5       ?GetRuntimeClass@COleBusyDialog@@UBEPAUCRuntimeClass@@XZ 5f5524c5 f oledlgs2.obj
 0001:000514e0       ?_GetBaseClass@COlePropertiesDialog@@KGPAUCRuntimeClass@@XZ 5f5524e0 f oledlgs3.obj
 0001:000514f5       ?GetRuntimeClass@COlePropertiesDialog@@UBEPAUCRuntimeClass@@XZ 5f5524f5 f oledlgs3.obj
 0001:00051510       ?_GetBaseClass@COleChangeSourceDialog@@KGPAUCRuntimeClass@@XZ 5f552510 f oledlgs3.obj
 0001:00051525       ?GetRuntimeClass@COleChangeSourceDialog@@UBEPAUCRuntimeClass@@XZ 5f552525 f oledlgs3.obj
 0001:00051540       ?AfxThunkSysFreeString@@YGXPAG@Z 5f552540 f oledata.obj
 0001:00051574       ?AfxThunkSysAllocStringByteLen@@YGPAGPBDI@Z 5f552574 f oledata.obj
 0001:000515ac       ?AfxThunkVariantCopy@@YGJPAUtagVARIANT@@0@Z 5f5525ac f oledata.obj
 0001:000515e4       ?AfxThunkVariantClear@@YGJPAUtagVARIANT@@@Z 5f5525e4 f oledata.obj
 0001:00051618       ?AfxThunkVariantChangeType@@YGJPAUtagVARIANT@@0GG@Z 5f552618 f oledata.obj
 0001:00051658       ?AfxThunkSysAllocStringLen@@YGPAGPBGI@Z 5f552658 f oledata.obj
 0001:00051690       ?AfxThunkSysStringLen@@YGIPAG@Z 5f552690 f oledata.obj
 0001:000516c4       ?AfxThunkSysReAllocStringLen@@YGHPAPAGPBGI@Z 5f5526c4 f oledata.obj
 0001:00051700       ?AfxThunkSysAllocString@@YGPAGPBG@Z 5f552700 f oledata.obj
 0001:00051734       ?AfxThunkSysStringByteLen@@YGIPAG@Z 5f552734 f oledata.obj
 0001:00051768       ?AfxThunkVarCyFromStr@@YGJPAGKKPATtagCY@@@Z 5f552768 f oledata.obj
 0001:000517a8       ?AfxThunkVarBstrFromCy@@YGJTtagCY@@KKPAPAG@Z 5f5527a8 f oledata.obj
 0001:000517ec       ?AfxThunkVarDateFromStr@@YGJPAGKKPAN@Z 5f5527ec f oledata.obj
 0001:0005182c       ?AfxThunkVarBstrFromDate@@YGJNKKPAPAG@Z 5f55282c f oledata.obj
 0001:00051870       ?AfxThunkLoadTypeLib@@YGJPBGPAPAUITypeLib@@@Z 5f552870 f oledata.obj
 0001:000518a8       ?AfxThunkLoadRegTypeLib@@YGJABU_GUID@@GGKPAPAUITypeLib@@@Z 5f5528a8 f oledata.obj
 0001:000518ec       ?AfxThunkRegisterTypeLib@@YGJPAUITypeLib@@PAG1@Z 5f5528ec f oledata.obj
 0001:00051928       ?AfxThunkDosDateTimeToVariantTime@@YGHGGPAN@Z 5f552928 f oledata.obj
 0001:00051964       ?AfxThunkSafeArrayCreate@@YGPAUtagSAFEARRAY@@GIPAUtagSAFEARRAYBOUND@@@Z 5f552964 f oledata.obj
 0001:000519a0       ?AfxThunkSafeArrayRedim@@YGJPAUtagSAFEARRAY@@PAUtagSAFEARRAYBOUND@@@Z 5f5529a0 f oledata.obj
 0001:000519d8       ?AfxThunkSafeArrayAccessData@@YGJPAUtagSAFEARRAY@@PAPAX@Z 5f5529d8 f oledata.obj
 0001:00051a10       ?AfxThunkSafeArrayUnaccessData@@YGJPAUtagSAFEARRAY@@@Z 5f552a10 f oledata.obj
 0001:00051a44       ?AfxThunkSafeArrayGetUBound@@YGJPAUtagSAFEARRAY@@IPAJ@Z 5f552a44 f oledata.obj
 0001:00051a80       ?AfxThunkSafeArrayGetLBound@@YGJPAUtagSAFEARRAY@@IPAJ@Z 5f552a80 f oledata.obj
 0001:00051abc       ?AfxThunkSafeArrayGetElemsize@@YGIPAUtagSAFEARRAY@@@Z 5f552abc f oledata.obj
 0001:00051af0       ?AfxThunkSafeArrayGetDim@@YGIPAUtagSAFEARRAY@@@Z 5f552af0 f oledata.obj
 0001:00051b24       ?AfxThunkSafeArrayCopy@@YGJPAUtagSAFEARRAY@@PAPAU1@@Z 5f552b24 f oledata.obj
 0001:00051b5c       ?AfxThunkSafeArrayAllocData@@YGJPAUtagSAFEARRAY@@@Z 5f552b5c f oledata.obj
 0001:00051b90       ?AfxThunkSafeArrayAllocDescriptor@@YGJIPAPAUtagSAFEARRAY@@@Z 5f552b90 f oledata.obj
 0001:00051bc8       ?AfxThunkSafeArrayGetElement@@YGJPAUtagSAFEARRAY@@PAJPAX@Z 5f552bc8 f oledata.obj
 0001:00051c04       ?AfxThunkSafeArrayPutElement@@YGJPAUtagSAFEARRAY@@PAJPAX@Z 5f552c04 f oledata.obj
 0001:00051c40       ?AfxThunkSafeArrayLock@@YGJPAUtagSAFEARRAY@@@Z 5f552c40 f oledata.obj
 0001:00051c74       ?AfxThunkSafeArrayUnlock@@YGJPAUtagSAFEARRAY@@@Z 5f552c74 f oledata.obj
 0001:00051ca8       ?AfxThunkSafeArrayDestroy@@YGJPAUtagSAFEARRAY@@@Z 5f552ca8 f oledata.obj
 0001:00051cdc       ?AfxThunkSafeArrayDestroyData@@YGJPAUtagSAFEARRAY@@@Z 5f552cdc f oledata.obj
 0001:00051d10       ?AfxThunkSafeArrayDestroyDescriptor@@YGJPAUtagSAFEARRAY@@@Z 5f552d10 f oledata.obj
 0001:00051d44       ?AfxThunkSafeArrayPtrOfIndex@@YGJPAUtagSAFEARRAY@@PAJPAPAX@Z 5f552d44 f oledata.obj
 0001:00051d80       ?AfxThunkOleUIAddVerbMenu@@YGHPAUIOleObject@@PBGPAUHMENU__@@IIIHIPAPAU2@@Z 5f552d80 f oledata.obj
 0001:00051dd4       ?AfxThunkOleUIBusy@@YGIPAUtagOLEUIBUSYW@@@Z 5f552dd4 f oledata.obj
 0001:00051e08       ?AfxThunkOleUIChangeIcon@@YGIPAUtagOLEUICHANGEICONW@@@Z 5f552e08 f oledata.obj
 0001:00051e3c       ?AfxThunkOleUIChangeSource@@YGIPAUtagOLEUICHANGESOURCEW@@@Z 5f552e3c f oledata.obj
 0001:00051e70       ?AfxThunkOleUIConvert@@YGIPAUtagOLEUICONVERTW@@@Z 5f552e70 f oledata.obj
 0001:00051ea4       ?AfxThunkOleUIEditLinks@@YGIPAUtagOLEUIEDITLINKSW@@@Z 5f552ea4 f oledata.obj
 0001:00051ed8       ?AfxThunkOleUIInsertObject@@YGIPAUtagOLEUIINSERTOBJECTW@@@Z 5f552ed8 f oledata.obj
 0001:00051f0c       ?AfxThunkOleUIObjectProperties@@YGIPAUtagOLEUIOBJECTPROPSW@@@Z 5f552f0c f oledata.obj
 0001:00051f40       ?AfxThunkOleUIPasteSpecial@@YGIPAUtagOLEUIPASTESPECIALW@@@Z 5f552f40 f oledata.obj
 0001:00051f74       ?AfxThunkOleUIUpdateLinks@@YGHPAUIOleUILinkContainerW@@PAUHWND__@@PAGH@Z 5f552f74 f oledata.obj
 0001:00051fb4       ?AfxThunkReadFmtUserTypeStg@@YGJPAUIStorage@@PAGPAPAG@Z 5f552fb4 f oledata.obj
 0001:00051fea       ?AfxThunkReadClassStg@@YGJPAUIStorage@@PAU_GUID@@@Z 5f552fea f oledata.obj
 0001:00052020       ?AfxThunkCreateFileMoniker@@YGJPBGPAPAUIMoniker@@@Z 5f553020 f oledata.obj
 0001:00052056       ?AfxThunkStgIsStorageFile@@YGJPBG@Z 5f553056 f oledata.obj
 0001:00052088       ?AfxThunkStgOpenStorage@@YGJPBGPAUIStorage@@KPAPAGKPAPAU1@@Z 5f553088 f oledata.obj
 0001:000520ce       ?AfxThunkDoDragDrop@@YGJPAUIDataObject@@PAUIDropSource@@KPAK@Z 5f5530ce f oledata.obj
 0001:0005210c       ?AfxThunkCoLockObjectExternal@@YGJPAUIUnknown@@HH@Z 5f55310c f oledata.obj
 0001:00052146       ?AfxThunkRegisterDragDrop@@YGJPAUHWND__@@PAUIDropTarget@@@Z 5f553146 f oledata.obj
 0001:0005217c       ?AfxThunkOleRegGetUserType@@YGJABU_GUID@@KPAPAG@Z 5f55317c f oledata.obj
 0001:000521b6       ?AfxThunkStgCreateDocfile@@YGJPBGKKPAPAUIStorage@@@Z 5f5531b6 f oledata.obj
 0001:000521f4       ?AfxThunkRevokeDragDrop@@YGJPAUHWND__@@@Z 5f5531f4 f oledata.obj
 0001:00052226       ?AfxThunkCoRegisterClassObject@@YGJABU_GUID@@PAUIUnknown@@KKPAK@Z 5f553226 f oledata.obj
 0001:00052268       ?AfxThunkCoRevokeClassObject@@YGJK@Z 5f553268 f oledata.obj
 0001:0005229a       ?AfxThunkOleTranslateAccelerator@@YGJPAUIOleInPlaceFrame@@PAUtagOIFI@@PAUtagMSG@@@Z 5f55329a f oledata.obj
 0001:000522d4       ?AfxThunkIsAccelerator@@YGHPAUHACCEL__@@HPAUtagMSG@@PAG@Z 5f5532d4 f oledata.obj
 0001:00052312       ?AfxThunkOleCreateMenuDescriptor@@YGPAXPAUHMENU__@@PAUtagOleMenuGroupWidths@@@Z 5f553312 f oledata.obj
 0001:00052348       ?AfxThunkOleDestroyMenuDescriptor@@YGJPAX@Z 5f553348 f oledata.obj
 0001:0005237a       ?AfxThunkGetRunningObjectTable@@YGJKPAPAUIRunningObjectTable@@@Z 5f55337a f oledata.obj
 0001:000523b0       ?AfxThunkWriteClassStg@@YGJPAUIStorage@@ABU_GUID@@@Z 5f5533b0 f oledata.obj
 0001:000523e6       ?AfxThunkOleQueryLinkFromData@@YGJPAUIDataObject@@@Z 5f5533e6 f oledata.obj
 0001:00052418       ?AfxThunkCoRegisterMessageFilter@@YGJPAUIMessageFilter@@PAPAU1@@Z 5f553418 f oledata.obj
 0001:0005244e       ?AfxThunkCoCreateInstance@@YGJABU_GUID@@PAPAUIUnknown@@K0PAPAX@Z 5f55344e f oledata.obj
 0001:00052490       ?AfxThunkCreateBindCtx@@YGJKPAPAUIBindCtx@@@Z 5f553490 f oledata.obj
 0001:000524c6       ?AfxThunkStringFromCLSID@@YGJABU_GUID@@PAPAG@Z 5f5534c6 f oledata.obj
 0001:000524fc       ?AfxThunkCoDisconnectObject@@YGJPAUIUnknown@@K@Z 5f5534fc f oledata.obj
 0001:00052532       ?AfxThunkOleRegEnumVerbs@@YGJABU_GUID@@PAPAUIEnumOLEVERB@@@Z 5f553532 f oledata.obj
 0001:00052568       ?AfxThunkOleUninitialize@@YGXXZ 5f553568 f oledata.obj
 0001:00052594       ?AfxThunkCreateOleAdviseHolder@@YGJPAPAUIOleAdviseHolder@@@Z 5f553594 f oledata.obj
 0001:000525c6       ?AfxThunkCreateDataAdviseHolder@@YGJPAPAUIDataAdviseHolder@@@Z 5f5535c6 f oledata.obj
 0001:000525f8       ?AfxThunkOleGetAutoConvert@@YGJABU_GUID@@PAU1@@Z 5f5535f8 f oledata.obj
 0001:0005262e       ?AfxThunkCoGetClassObject@@YGJABU_GUID@@KPAX0PAPAX@Z 5f55362e f oledata.obj
 0001:00052670       ?AfxThunkOleCreateDefaultHandler@@YGJABU_GUID@@PAUIUnknown@@0PAPAX@Z 5f553670 f oledata.obj
 0001:000526ae       ?AfxThunkCreateDataCache@@YGJPAUIUnknown@@ABU_GUID@@1PAPAX@Z 5f5536ae f oledata.obj
 0001:000526ee       ?AfxThunkReadClassStm@@YGJPAUIStream@@PAU_GUID@@@Z 5f5536ee f oledata.obj
 0001:00052726       ?AfxThunkOleLoadFromStream@@YGJPAUIStream@@ABU_GUID@@PAPAX@Z 5f553726 f oledata.obj
 0001:00052762       ?AfxThunkStringFromGUID2@@YGHABU_GUID@@PAGH@Z 5f553762 f oledata.obj
 0001:0005279e       ?AfxThunkCoUninitialize@@YGXXZ 5f55379e f oledata.obj
 0001:000527cc       ?AfxThunkCoInitialize@@YGJPAX@Z 5f5537cc f oledata.obj
 0001:00052800       ?AfxThunkOleInitialize@@YGJPAX@Z 5f553800 f oledata.obj
 0001:00052834       ?AfxThunkCoFreeUnusedLibraries@@YGXXZ 5f553834 f oledata.obj
 0001:00052862       ?AfxThunkOleCreateFromData@@YGJPAUIDataObject@@ABU_GUID@@KPAUtagFORMATETC@@PAUIOleClientSite@@PAUIStorage@@PAPAX@Z 5f553862 f oledata.obj
 0001:000528ae       ?AfxThunkOleSetContainedObject@@YGJPAUIUnknown@@H@Z 5f5538ae f oledata.obj
 0001:000528e6       ?AfxThunkOleLockRunning@@YGJPAUIUnknown@@HH@Z 5f5538e6 f oledata.obj
 0001:00052922       ?AfxThunkCoTaskMemAlloc@@YGPAXK@Z 5f553922 f oledata.obj
 0001:00052956       ?AfxThunkCLSIDFromString@@YGJPAGPAU_GUID@@@Z 5f553956 f oledata.obj
 0001:0005298e       ?AfxThunkCLSIDFromProgID@@YGJPBGPAU_GUID@@@Z 5f55398e f oledata.obj
 0001:000529c6       ?AfxThunkOleIsCurrentClipboard@@YGJPAUIDataObject@@@Z 5f5539c6 f oledata.obj
 0001:000529fa       ?AfxThunkOleFlushClipboard@@YGJXZ 5f5539fa f oledata.obj
 0001:00052a28       ?AfxThunkOleSetClipboard@@YGJPAUIDataObject@@@Z 5f553a28 f oledata.obj
 0001:00052a5c       ?AfxThunkOleIsRunning@@YGHPAUIOleObject@@@Z 5f553a5c f oledata.obj
 0001:00052a90       ?AfxThunkOleRun@@YGJPAUIUnknown@@@Z 5f553a90 f oledata.obj
 0001:00052ac4       ?AfxThunkOleGetClipboard@@YGJPAPAUIDataObject@@@Z 5f553ac4 f oledata.obj
 0001:00052af8       ?AfxThunkCoTreatAsClass@@YGJABU_GUID@@0@Z 5f553af8 f oledata.obj
 0001:00052b30       ?AfxThunkOleQueryCreateFromData@@YGJPAUIDataObject@@@Z 5f553b30 f oledata.obj
 0001:00052b64       ?AfxThunkOleSetMenuDescriptor@@YGJPAXPAUHWND__@@1PAUIOleInPlaceFrame@@PAUIOleInPlaceActiveObject@@@Z 5f553b64 f oledata.obj
 0001:00052ba8       ?AfxThunkCreateItemMoniker@@YGJPBG0PAPAUIMoniker@@@Z 5f553ba8 f oledata.obj
 0001:00052be4       ?AfxThunkCreateGenericComposite@@YGJPAUIMoniker@@0PAPAU1@@Z 5f553be4 f oledata.obj
 0001:00052c20       ?AfxThunkCreateStreamOnHGlobal@@YGJPAXHPAPAUIStream@@@Z 5f553c20 f oledata.obj
 0001:00052c5c       ?AfxThunkOleSaveToStream@@YGJPAUIPersistStream@@PAUIStream@@@Z 5f553c5c f oledata.obj
 0001:00052c94       ?AfxThunkWriteClassStm@@YGJPAUIStream@@ABU_GUID@@@Z 5f553c94 f oledata.obj
 0001:00052ccc       ?AfxThunkCoTaskMemFree@@YGXPAX@Z 5f553ccc f oledata.obj
 0001:00052d00       ?AfxThunkOleGetIconOfClass@@YGPAXABU_GUID@@PAGH@Z 5f553d00 f oledata.obj
 0001:00052d3c       ?AfxThunkReleaseStgMedium@@YGXPAUtagSTGMEDIUM@@@Z 5f553d3c f oledata.obj
 0001:00052d70       ?AfxThunkGetHGlobalFromILockBytes@@YGJPAUILockBytes@@PAPAX@Z 5f553d70 f oledata.obj
 0001:00052da8       ?AfxThunkStgOpenStorageOnILockBytes@@YGJPAUILockBytes@@PAUIStorage@@KPAPAGKPAPAU2@@Z 5f553da8 f oledata.obj
 0001:00052df0       ?AfxThunkCreateILockBytesOnHGlobal@@YGJPAXHPAPAUILockBytes@@@Z 5f553df0 f oledata.obj
 0001:00052e2c       ?AfxThunkStgCreateDocfileOnILockBytes@@YGJPAUILockBytes@@KKPAPAUIStorage@@@Z 5f553e2c f oledata.obj
 0001:00052e6c       ?AfxThunkOleSave@@YGJPAUIPersistStorage@@PAUIStorage@@H@Z 5f553e6c f oledata.obj
 0001:00052ea8       ?AfxThunkOleLoad@@YGJPAUIStorage@@ABU_GUID@@PAUIOleClientSite@@PAPAX@Z 5f553ea8 f oledata.obj
 0001:00052ee8       ?AfxThunkOleCreate@@YGJABU_GUID@@0KPAUtagFORMATETC@@PAUIOleClientSite@@PAUIStorage@@PAPAX@Z 5f553ee8 f oledata.obj
 0001:00052f34       ?AfxThunkOleCreateLinkToFile@@YGJPBGABU_GUID@@KPAUtagFORMATETC@@PAUIOleClientSite@@PAUIStorage@@PAPAX@Z 5f553f34 f oledata.obj
 0001:00052f80       ?AfxThunkOleCreateFromFile@@YGJABU_GUID@@PBG0KPAUtagFORMATETC@@PAUIOleClientSite@@PAUIStorage@@PAPAX@Z 5f553f80 f oledata.obj
 0001:00052fd0       ?AfxThunkOleCreateStaticFromData@@YGJPAUIDataObject@@ABU_GUID@@KPAUtagFORMATETC@@PAUIOleClientSite@@PAUIStorage@@PAPAX@Z 5f553fd0 f oledata.obj
 0001:0005301c       ?AfxThunkOleCreateLinkFromData@@YGJPAUIDataObject@@ABU_GUID@@KPAUtagFORMATETC@@PAUIOleClientSite@@PAUIStorage@@PAPAX@Z 5f55401c f oledata.obj
 0001:00053068       ?AfxThunkSetConvertStg@@YGJPAUIStorage@@H@Z 5f554068 f oledata.obj
 0001:000530a0       ?AfxThunkOleDuplicateData@@YGPAXPAXGI@Z 5f5540a0 f oledata.obj
 0001:000530dc       ?AfxThunkWriteFmtUserTypeStg@@YGJPAUIStorage@@GPAG@Z 5f5540dc f oledata.obj
 0001:00053118       ?AfxThunkOleRegGetMiscStatus@@YGJABU_GUID@@KPAK@Z 5f554118 f oledata.obj
 0001:00053154       ?AfxThunkCoGetMalloc@@YGJKPAPAUIMalloc@@@Z 5f554154 f oledata.obj
 0001:0005318c       ?AfxThunkStgIsStorageILockBytes@@YGJPAUILockBytes@@@Z 5f55418c f oledata.obj
 0001:000531c0       ?AfxThunkRegisterBindStatusCallback@@YGJPAUIBindCtx@@PAUIBindStatusCallback@@PAPAU2@K@Z 5f5541c0 f oledata.obj
 0001:000531fa       ?AfxThunkRevokeBindStatusCallback@@YGJPAUIBindCtx@@PAUIBindStatusCallback@@@Z 5f5541fa f oledata.obj
 0001:00053230       ?AfxThunkIsAsyncMoniker@@YGJPAUIMoniker@@@Z 5f554230 f oledata.obj
 0001:00053262       ?AfxThunkCreateURLMoniker@@YGJPAUIMoniker@@PBGPAPAU1@@Z 5f554262 f oledata.obj
 0001:0005329c       ?AfxThunkCreateAsyncBindCtx@@YGJKPAUIBindStatusCallback@@PAUIEnumFORMATETC@@PAPAUIBindCtx@@@Z 5f55429c f oledata.obj
 0001:000532da       ??0_AFX_OLE_STATE@@QAE@XZ  5f5542da f oledata.obj
 0001:00053349       ??1_AFX_OLE_STATE@@UAE@XZ  5f554349 f oledata.obj
 0001:00053480       ?AfxLoadOleAut@@YAPAUHINSTANCE__@@PAP6GHXZPBD@Z 5f554480 f oledata.obj
 0001:000534b0       ?AfxLoadOleDlg@@YAPAUHINSTANCE__@@PAP6GHXZPBD@Z 5f5544b0 f oledata.obj
 0001:000534e0       ?AfxLoadOle@@YAPAUHINSTANCE__@@PAP6GHXZPBD@Z 5f5544e0 f oledata.obj
 0001:00053510       ?AfxLoadUrlMon@@YAPAUHINSTANCE__@@PAP6GHXZPBD@Z 5f554510 f oledata.obj
 0001:00053540       ??_G_AFX_OLE_STATE@@UAEPAXI@Z 5f554540 f oledata.obj
 0001:00053540       ??_E_AFX_OLE_STATE@@UAEPAXI@Z 5f554540 f oledata.obj
 0001:00053580       ??1?$CProcessLocal@V_AFX_OLE_STATE@@@@QAE@XZ 5f554580 f oledata.obj
 0001:000535e0       ?CreateObject@CDocItem@@SGPAVCObject@@XZ 5f5545e0 f oledoc1.obj
 0001:00053620       ?_GetBaseClass@CDocItem@@KGPAUCRuntimeClass@@XZ 5f554620 f oledoc1.obj
 0001:00053635       ?GetRuntimeClass@CDocItem@@UBEPAUCRuntimeClass@@XZ 5f554635 f oledoc1.obj
 0001:00053684       ??5@YGAAVCArchive@@AAV0@AAPAVCDocItem@@@Z 5f554684 f oledoc1.obj
 0001:000536ab       ?_GetBaseClass@COleDocument@@KGPAUCRuntimeClass@@XZ 5f5546ab f oledoc1.obj
 0001:000536c0       ?GetRuntimeClass@COleDocument@@UBEPAUCRuntimeClass@@XZ 5f5546c0 f oledoc1.obj
 0001:000536db       ?_GetBaseClass@COleClientItem@@KGPAUCRuntimeClass@@XZ 5f5546db f oledoc1.obj
 0001:000536f0       ?GetRuntimeClass@COleClientItem@@UBEPAUCRuntimeClass@@XZ 5f5546f0 f oledoc1.obj
 0001:0005370b       ?_GetBaseClass@COleServerItem@@KGPAUCRuntimeClass@@XZ 5f55470b f oledoc1.obj
 0001:00053720       ?GetRuntimeClass@COleServerItem@@UBEPAUCRuntimeClass@@XZ 5f554720 f oledoc1.obj
 0001:00053740       ??0COleMessageFilter@@QAE@XZ 5f554740 f olemsgf.obj
 0001:0005381a       ?Register@COleMessageFilter@@QAEHXZ 5f55481a f olemsgf.obj
 0001:00053890       ??_ECOleMessageFilter@@UAEPAXI@Z 5f554890 f olemsgf.obj
 0001:00053890       ??_GCOleMessageFilter@@UAEPAXI@Z 5f554890 f olemsgf.obj
 0001:000538d0       ??0XMessageFilter@COleMessageFilter@@QAE@XZ 5f5548d0 f olemsgf.obj
 0001:00053900       ??0IMessageFilter@@QAE@XZ  5f554900 f olemsgf.obj
 0001:00053930       ??0COleObjectFactory@@QAE@ABU_GUID@@PAUCRuntimeClass@@HPBG@Z 5f554930 f olefact.obj
 0001:00053ad6       ?Register@COleObjectFactory@@UAEHXZ 5f554ad6 f olefact.obj
 0001:00053be8       ?RegisterAll@COleObjectFactory@@SGHXZ 5f554be8 f olefact.obj
 0001:00053d3f       ?_GetBaseClass@COleObjectFactory@@KGPAUCRuntimeClass@@XZ 5f554d3f f olefact.obj
 0001:00053d54       ?GetRuntimeClass@COleObjectFactory@@UBEPAUCRuntimeClass@@XZ 5f554d54 f olefact.obj
 0001:00053d70       ??_GCOleObjectFactory@@UAEPAXI@Z 5f554d70 f olefact.obj
 0001:00053d70       ??_ECOleObjectFactory@@UAEPAXI@Z 5f554d70 f olefact.obj
 0001:00053db0       ??0XClassFactory@COleObjectFactory@@QAE@XZ 5f554db0 f olefact.obj
 0001:00053de0       ??0IClassFactory2@@QAE@XZ  5f554de0 f olefact.obj
 0001:00053e10       ??0IClassFactory@@QAE@XZ   5f554e10 f olefact.obj
 0001:00053e40       ?CreateObject@COleIPFrameWnd@@SGPAVCObject@@XZ 5f554e40 f oleipfrm.obj
 0001:00053e83       ?_GetBaseClass@COleIPFrameWnd@@KGPAUCRuntimeClass@@XZ 5f554e83 f oleipfrm.obj
 0001:00053e98       ?GetRuntimeClass@COleIPFrameWnd@@UBEPAUCRuntimeClass@@XZ 5f554e98 f oleipfrm.obj
 0001:00053ec0       ?_GetBaseClass@COleException@@KGPAUCRuntimeClass@@XZ 5f554ec0 f olemisc.obj
 0001:00053ed5       ?GetRuntimeClass@COleException@@UBEPAUCRuntimeClass@@XZ 5f554ed5 f olemisc.obj
 0001:00053ef0       ?_GetBaseClass@COleStreamFile@@KGPAUCRuntimeClass@@XZ 5f554ef0 f olestrm.obj
 0001:00053f05       ?GetRuntimeClass@COleStreamFile@@UBEPAUCRuntimeClass@@XZ 5f554f05 f olestrm.obj
 0001:00053f20       ?_GetBaseClass@COleServerDoc@@KGPAUCRuntimeClass@@XZ 5f554f20 f olesvr1.obj
 0001:00053f35       ?GetRuntimeClass@COleServerDoc@@UBEPAUCRuntimeClass@@XZ 5f554f35 f olesvr1.obj
 0001:00053f50       ?CreateObject@CRichEditCntrItem@@SGPAVCObject@@XZ 5f554f50 f viewrich.obj
 0001:00053f97       ?_GetBaseClass@CRichEditCntrItem@@KGPAUCRuntimeClass@@XZ 5f554f97 f viewrich.obj
 0001:00053fac       ?GetRuntimeClass@CRichEditCntrItem@@UBEPAUCRuntimeClass@@XZ 5f554fac f viewrich.obj
 0001:00053ffb       ??5@YGAAVCArchive@@AAV0@AAPAVCRichEditCntrItem@@@Z 5f554ffb f viewrich.obj
 0001:00054022       ?_GetBaseClass@CRichEditDoc@@KGPAUCRuntimeClass@@XZ 5f555022 f viewrich.obj
 0001:00054037       ?GetRuntimeClass@CRichEditDoc@@UBEPAUCRuntimeClass@@XZ 5f555037 f viewrich.obj
 0001:00054052       ?CreateObject@CRichEditView@@SGPAVCObject@@XZ 5f555052 f viewrich.obj
 0001:00054095       ?_GetBaseClass@CRichEditView@@KGPAUCRuntimeClass@@XZ 5f555095 f viewrich.obj
 0001:000540aa       ?GetRuntimeClass@CRichEditView@@UBEPAUCRuntimeClass@@XZ 5f5550aa f viewrich.obj
 0001:000540d0       ?_GetBaseClass@CMonikerFile@@KGPAUCRuntimeClass@@XZ 5f5550d0 f olemon.obj
 0001:000540e5       ?GetRuntimeClass@CMonikerFile@@UBEPAUCRuntimeClass@@XZ 5f5550e5 f olemon.obj
 0001:00054100       ?_GetBaseClass@CAsyncMonikerFile@@KGPAUCRuntimeClass@@XZ 5f555100 f oleasmon.obj
 0001:00054115       ?GetRuntimeClass@CAsyncMonikerFile@@UBEPAUCRuntimeClass@@XZ 5f555115 f oleasmon.obj
 0001:00054130       ?_GetBaseClass@COleResizeBar@@KGPAUCRuntimeClass@@XZ 5f555130 f olebar.obj
 0001:00054145       ?GetRuntimeClass@COleResizeBar@@UBEPAUCRuntimeClass@@XZ 5f555145 f olebar.obj
 0001:00054160       ?_GetBaseClass@COleControl@@KGPAUCRuntimeClass@@XZ 5f555160 f ctlcore.obj
 0001:00054175       ?GetRuntimeClass@COleControl@@UBEPAUCRuntimeClass@@XZ 5f555175 f ctlcore.obj
 0001:00054190       ?_GetBaseClass@COlePropertyPage@@KGPAUCRuntimeClass@@XZ 5f555190 f ctlppg.obj
 0001:000541a5       ?GetRuntimeClass@COlePropertyPage@@UBEPAUCRuntimeClass@@XZ 5f5551a5 f ctlppg.obj
 0001:000541c0       ?_GetBaseClass@CDataPathProperty@@KGPAUCRuntimeClass@@XZ 5f5551c0 f ctlprop.obj
 0001:000541d5       ?GetRuntimeClass@CDataPathProperty@@UBEPAUCRuntimeClass@@XZ 5f5551d5 f ctlprop.obj
 0001:000541f0       ?_GetBaseClass@CCachedDataPathProperty@@KGPAUCRuntimeClass@@XZ 5f5551f0 f ctlprop.obj
 0001:00054205       ?GetRuntimeClass@CCachedDataPathProperty@@UBEPAUCRuntimeClass@@XZ 5f555205 f ctlprop.obj
 0001:00054220       ?CreateObject@CColorPropPage@@SGPAVCObject@@XZ 5f555220 f ppgcolor.obj
 0001:00054263       ?_GetBaseClass@CColorPropPage@@KGPAUCRuntimeClass@@XZ 5f555263 f ppgcolor.obj
 0001:00054278       ?GetRuntimeClass@CColorPropPage@@UBEPAUCRuntimeClass@@XZ 5f555278 f ppgcolor.obj
 0001:000542a0       ?CreateObject@CFontPropPage@@SGPAVCObject@@XZ 5f5552a0 f ppgfont.obj
 0001:000542e3       ?_GetBaseClass@CFontPropPage@@KGPAUCRuntimeClass@@XZ 5f5552e3 f ppgfont.obj
 0001:000542f8       ?GetRuntimeClass@CFontPropPage@@UBEPAUCRuntimeClass@@XZ 5f5552f8 f ppgfont.obj
 0001:00054320       ?CreateObject@CPicturePropPage@@SGPAVCObject@@XZ 5f555320 f ppgpict.obj
 0001:00054363       ?_GetBaseClass@CPicturePropPage@@KGPAUCRuntimeClass@@XZ 5f555363 f ppgpict.obj
 0001:00054378       ?GetRuntimeClass@CPicturePropPage@@UBEPAUCRuntimeClass@@XZ 5f555378 f ppgpict.obj
 0001:000543a0       ?_GetBaseClass@CStockPropPage@@KGPAUCRuntimeClass@@XZ 5f5553a0 f ppgstock.obj
 0001:000543b5       ?GetRuntimeClass@CStockPropPage@@UBEPAUCRuntimeClass@@XZ 5f5553b5 f ppgstock.obj
 0001:000543d0       ??0COleClientItem@@QAE@PAVCOleDocument@@@Z 5f5553d0 f olecli1.obj
 0001:0005458a       ??1COleClientItem@@UAE@XZ  5f55558a f olecli1.obj
 0001:0005463e       ?Delete@COleClientItem@@QAEXH@Z 5f55563e f olecli1.obj
 0001:0005471d       ?Release@COleClientItem@@UAEXW4tagOLECLOSE@@@Z 5f55571d f olecli1.obj
 0001:00054978       ?Close@COleClientItem@@QAEXW4tagOLECLOSE@@@Z 5f555978 f olecli1.obj
 0001:00054aa6       ?GetNewItemNumber@COleClientItem@@QAEKXZ 5f555aa6 f olecli1.obj
 0001:00054b5d       ?GetItemName@COleClientItem@@QBEXPAG@Z 5f555b5d f olecli1.obj
 0001:00054bee       ?UpdateItemType@COleClientItem@@QAEXXZ 5f555bee f olecli1.obj
 0001:00054cb8       ?FinishCreate@COleClientItem@@MAEHJ@Z 5f555cb8 f olecli1.obj
 0001:00054fe6       ?CreateFromClipboard@COleClientItem@@QAEHW4tagOLERENDER@@GPAUtagFORMATETC@@@Z 5f555fe6 f olecli1.obj
 0001:00055141       ?CreateLinkFromClipboard@COleClientItem@@QAEHW4tagOLERENDER@@GPAUtagFORMATETC@@@Z 5f556141 f olecli1.obj
 0001:0005529c       ?CreateStaticFromClipboard@COleClientItem@@QAEHW4tagOLERENDER@@GPAUtagFORMATETC@@@Z 5f55629c f olecli1.obj
 0001:000553f7       ?CreateFromData@COleClientItem@@QAEHPAVCOleDataObject@@W4tagOLERENDER@@GPAUtagFORMATETC@@@Z 5f5563f7 f olecli1.obj
 0001:0005556d       ?CreateLinkFromData@COleClientItem@@QAEHPAVCOleDataObject@@W4tagOLERENDER@@GPAUtagFORMATETC@@@Z 5f55656d f olecli1.obj
 0001:000556e3       ?CreateStaticFromData@COleClientItem@@QAEHPAVCOleDataObject@@W4tagOLERENDER@@GPAUtagFORMATETC@@@Z 5f5566e3 f olecli1.obj
 0001:00055859       ?CreateFromFile@COleClientItem@@QAEHPBGABU_GUID@@W4tagOLERENDER@@GPAUtagFORMATETC@@@Z 5f556859 f olecli1.obj
 0001:000559d6       ?CreateLinkFromFile@COleClientItem@@QAEHPBGW4tagOLERENDER@@GPAUtagFORMATETC@@@Z 5f5569d6 f olecli1.obj
 0001:00055b4f       ?CreateNewItem@COleClientItem@@QAEHABU_GUID@@W4tagOLERENDER@@GPAUtagFORMATETC@@@Z 5f556b4f f olecli1.obj
 0001:00055cb8       ?CreateCloneFrom@COleClientItem@@QAEHPBV1@@Z 5f556cb8 f olecli1.obj
 0001:00055ebc       ?IsModified@COleClientItem@@QBEHXZ 5f556ebc f olecli1.obj
 0001:00055f77       ?GetItemStorageFlat@COleClientItem@@QAEXXZ 5f556f77 f olecli1.obj
 0001:000560db       ?ReadItemFlat@COleClientItem@@QAEXAAVCArchive@@@Z 5f5570db f olecli1.obj
 0001:00056388       ?WriteItemFlat@COleClientItem@@QAEXAAVCArchive@@@Z 5f557388 f olecli1.obj
 0001:000565ab       ?GetItemStorageCompound@COleClientItem@@QAEXXZ 5f5575ab f olecli1.obj
 0001:00056745       ?ReadItemCompound@COleClientItem@@QAEXAAVCArchive@@@Z 5f557745 f olecli1.obj
 0001:00056a9a       ?WriteItemCompound@COleClientItem@@QAEXAAVCArchive@@@Z 5f557a9a f olecli1.obj
 0001:00056d75       ?GetItemStorage@COleClientItem@@UAEXXZ 5f557d75 f olecli1.obj
 0001:00056db2       ?ReadItem@COleClientItem@@UAEXAAVCArchive@@@Z 5f557db2 f olecli1.obj
 0001:00056df9       ?WriteItem@COleClientItem@@UAEXAAVCArchive@@@Z 5f557df9 f olecli1.obj
 0001:00056e40       ?CommitItem@COleClientItem@@UAEXH@Z 5f557e40 f olecli1.obj
 0001:00056f96       ?Serialize@COleClientItem@@UAEXAAVCArchive@@@Z 5f557f96 f olecli1.obj
 0001:00057260       ?OnChange@COleClientItem@@UAEXW4OLE_NOTIFICATION@@K@Z 5f558260 f olecli1.obj
 0001:00057339       ?OnDataChange@COleClientItem@@MAEXPAUtagFORMATETC@@PAUtagSTGMEDIUM@@@Z 5f558339 f olecli1.obj
 0001:00057369       ?OnGetItemPosition@COleClientItem@@MAEXAAVCRect@@@Z 5f558369 f olecli1.obj
 0001:00057381       ?OnGetClipRect@COleClientItem@@MAEXAAVCRect@@@Z 5f558381 f olecli1.obj
 0001:000573fe       ?OnShowItem@COleClientItem@@MAEXXZ 5f5583fe f olecli1.obj
 0001:00057547       ?GetClassID@COleClientItem@@QBEXPAU_GUID@@@Z 5f558547 f olecli1.obj
 0001:00057600       ?GetExtent@COleClientItem@@QAEHPAUtagSIZE@@W4tagDVASPECT@@@Z 5f558600 f olecli1.obj
 0001:000576c9       ?GetCachedExtent@COleClientItem@@QAEHPAUtagSIZE@@W4tagDVASPECT@@@Z 5f5586c9 f olecli1.obj
 0001:000577bc       ?SetIconicMetafile@COleClientItem@@QAEHPAX@Z 5f5587bc f olecli1.obj
 0001:00057922       ?GetIconicMetafile@COleClientItem@@QAEPAXXZ 5f558922 f olecli1.obj
 0001:00057bd0       ?SetDrawAspect@COleClientItem@@UAEXW4tagDVASPECT@@@Z 5f558bd0 f olecli1.obj
 0001:00057c55       ?GetPrintDeviceInfo@COleClientItem@@IAEHPAPAUIOleCache@@PAPAUtagDVTARGETDEVICE@@PAK@Z 5f558c55 f olecli1.obj
 0001:00057dac       ?AttachDataObject@COleClientItem@@QBEXAAVCOleDataObject@@@Z 5f558dac f olecli1.obj
 0001:00057e40       ?Draw@COleClientItem@@QAEHPAVCDC@@PBUtagRECT@@W4tagDVASPECT@@@Z 5f558e40 f olecli1.obj
 0001:00058038       ?GetEmbeddedItemData@COleClientItem@@IAEXPAUtagSTGMEDIUM@@@Z 5f559038 f olecli1.obj
 0001:00058219       ?AddCachedData@COleClientItem@@IAEXPAVCOleDataSource@@@Z 5f559219 f olecli1.obj
 0001:000583de       ?GetLinkSourceData@COleClientItem@@IAEHPAUtagSTGMEDIUM@@@Z 5f5593de f olecli1.obj
 0001:00058661       ?GetObjectDescriptorData@COleClientItem@@IAEXPAUtagPOINT@@PAUtagSIZE@@PAUtagSTGMEDIUM@@@Z 5f559661 f olecli1.obj
 0001:000587f4       ?SetHostNames@COleClientItem@@QAEXPBG0@Z 5f5597f4 f olecli1.obj
 0001:000588dc       ?SetExtent@COleClientItem@@QAEXABVCSize@@W4tagDVASPECT@@@Z 5f5598dc f olecli1.obj
 0001:00058955       ?_GetBaseInterfaceMap@COleClientItem@@KGPBUAFX_INTERFACEMAP@@XZ 5f559955 f olecli1.obj
 0001:0005896a       ?GetInterfaceMap@COleClientItem@@MBEPBUAFX_INTERFACEMAP@@XZ 5f55996a f olecli1.obj
 0001:00058985       ?AddRef@XOleClientSite@COleClientItem@@UAGKXZ 5f559985 f olecli1.obj
 0001:000589ab       ?Release@XOleClientSite@COleClientItem@@UAGKXZ 5f5599ab f olecli1.obj
 0001:000589d1       ?QueryInterface@XOleClientSite@COleClientItem@@UAGJABU_GUID@@PAPAX@Z 5f5599d1 f olecli1.obj
 0001:000589ff       ?SaveObject@XOleClientSite@COleClientItem@@UAGJXZ 5f5599ff f olecli1.obj
 0001:00058b2e       ?GetMoniker@XOleClientSite@COleClientItem@@UAGJKKPAPAUIMoniker@@@Z 5f559b2e f olecli1.obj
 0001:00058e69       ?GetContainer@XOleClientSite@COleClientItem@@UAGJPAPAUIOleContainer@@@Z 5f559e69 f olecli1.obj
 0001:00058f2e       ?ShowObject@XOleClientSite@COleClientItem@@UAGJXZ 5f559f2e f olecli1.obj
 0001:0005901d       ?OnShowWindow@XOleClientSite@COleClientItem@@UAGJH@Z 5f55a01d f olecli1.obj
 0001:0005916f       ?RequestNewObjectLayout@XOleClientSite@COleClientItem@@UAGJXZ 5f55a16f f olecli1.obj
 0001:00059186       ?AddRef@XAdviseSink@COleClientItem@@UAGKXZ 5f55a186 f olecli1.obj
 0001:000591ac       ?Release@XAdviseSink@COleClientItem@@UAGKXZ 5f55a1ac f olecli1.obj
 0001:000591d2       ?QueryInterface@XAdviseSink@COleClientItem@@UAGJABU_GUID@@PAPAX@Z 5f55a1d2 f olecli1.obj
 0001:00059200       ?OnDataChange@XAdviseSink@COleClientItem@@UAGXPAUtagFORMATETC@@PAUtagSTGMEDIUM@@@Z 5f55a200 f olecli1.obj
 0001:0005929a       ?OnViewChange@XAdviseSink@COleClientItem@@UAGXKJ@Z 5f55a29a f olecli1.obj
 0001:0005932f       ?OnRename@XAdviseSink@COleClientItem@@UAGXPAUIMoniker@@@Z 5f55a32f f olecli1.obj
 0001:00059341       ?OnSave@XAdviseSink@COleClientItem@@UAGXXZ 5f55a341 f olecli1.obj
 0001:000593d4       ?OnClose@XAdviseSink@COleClientItem@@UAGXXZ 5f55a3d4 f olecli1.obj
 0001:00059467       ?AssertValid@COleClientItem@@UBEXXZ 5f55a467 f olecli1.obj
 0001:00059514       ?Dump@COleClientItem@@UBEXAAVCDumpContext@@@Z 5f55a514 f olecli1.obj
 0001:000596e8       ?GetLastStatus@COleClientItem@@QBEJXZ 5f55a6e8 f olecli1.obj
 0001:00059717       ?GetDocument@COleClientItem@@QBEPAVCOleDocument@@XZ 5f55a717 f olecli1.obj
 0001:00059746       ?GetType@COleClientItem@@QBE?AW4OLE_OBJTYPE@@XZ 5f55a746 f olecli1.obj
 0001:00059775       ?GetDrawAspect@COleClientItem@@QBE?AW4tagDVASPECT@@XZ 5f55a775 f olecli1.obj
 0001:000597a4       ?IsRunning@COleClientItem@@QBEHXZ 5f55a7a4 f olecli1.obj
 0001:000597ff       ?GetItemState@COleClientItem@@QBEIXZ 5f55a7ff f olecli1.obj
 0001:0005982e       ?IsInPlaceActive@COleClientItem@@QBEHXZ 5f55a82e f olecli1.obj
 0001:0005987d       ?IsOpen@COleClientItem@@QBEHXZ 5f55a87d f olecli1.obj
 0001:000598bf       ?IsLinkUpToDate@COleClientItem@@QBEHXZ 5f55a8bf f olecli1.obj
 0001:00059933       ?GetActiveView@COleClientItem@@QBEPAVCView@@XZ 5f55a933 f olecli1.obj
 0001:0005994f       ?BeginDeferErrors@COleLinkingDoc@@QAEXXZ 5f55a94f f olecli1.obj
 0001:00059996       ??1COleDataObject@@QAE@XZ  5f55a996 f olecli1.obj
 0001:000599c0       ??_GCOleClientItem@@UAEPAXI@Z 5f55a9c0 f olecli1.obj
 0001:000599c0       ??_ECOleClientItem@@UAEPAXI@Z 5f55a9c0 f olecli1.obj
 0001:00059a00       ??0XOleClientSite@COleClientItem@@QAE@XZ 5f55aa00 f olecli1.obj
 0001:00059a30       ??0XAdviseSink@COleClientItem@@QAE@XZ 5f55aa30 f olecli1.obj
 0001:00059a60       ??0XOleIPSite@COleClientItem@@QAE@XZ 5f55aa60 f olecli1.obj
 0001:00059a90       ??0IOleClientSite@@QAE@XZ  5f55aa90 f olecli1.obj
 0001:00059ac0       ??0IAdviseSink@@QAE@XZ     5f55aac0 f olecli1.obj
 0001:00059af0       ??0IOleInPlaceSite@@QAE@XZ 5f55aaf0 f olecli1.obj
 0001:00059b20       ??0IUnknown@@QAE@XZ        5f55ab20 f olecli1.obj
 0001:00059b50       ??0IOleWindow@@QAE@XZ      5f55ab50 f olecli1.obj
 0001:00059b80       ?GetClientSite@COleClientItem@@MAEPAUIOleClientSite@@XZ 5f55ab80 f olecli3.obj
 0001:00059bd8       ?Activate@COleClientItem@@QAEXJPAVCView@@PAUtagMSG@@@Z 5f55abd8 f olecli3.obj
 0001:00059d9e       ?CheckGeneral@COleClientItem@@MAEXJ@Z 5f55ad9e f olecli3.obj
 0001:00059e11       ?CopyToClipboard@COleClientItem@@QAEXH@Z 5f55ae11 f olecli3.obj
 0001:00059f1f       ?OnGetClipboardData@COleClientItem@@UAEPAVCOleDataSource@@HPAUtagPOINT@@PAUtagSIZE@@@Z 5f55af1f f olecli3.obj
 0001:0005a054       ?DoDragDrop@COleClientItem@@QAEKPBUtagRECT@@VCPoint@@HK0@Z 5f55b054 f olecli3.obj
 0001:0005a278       ?GetClipboardData@COleClientItem@@QAEXPAVCOleDataSource@@HPAUtagPOINT@@PAUtagSIZE@@@Z 5f55b278 f olecli3.obj
 0001:0005a389       ?CanPaste@COleClientItem@@SGHXZ 5f55b389 f olecli3.obj
 0001:0005a44d       ?CanPasteLink@COleClientItem@@SGHXZ 5f55b44d f olecli3.obj
 0001:0005a4b9       ?CanCreateFromData@COleClientItem@@SGHPBVCOleDataObject@@@Z 5f55b4b9 f olecli3.obj
 0001:0005a52f       ?CanCreateLinkFromData@COleClientItem@@SGHPBVCOleDataObject@@@Z 5f55b52f f olecli3.obj
 0001:0005a5a5       ?ConvertTo@COleClientItem@@UAEHABU_GUID@@@Z 5f55b5a5 f olecli3.obj
 0001:0005a711       ?Reload@COleClientItem@@QAEHXZ 5f55b711 f olecli3.obj
 0001:0005a7c6       ?ActivateAs@COleClientItem@@UAEHPBGABU_GUID@@1@Z 5f55b7c6 f olecli3.obj
 0001:0005a8e3       ?SetPrintDevice@COleClientItem@@QAEHPBUtagDVTARGETDEVICE@@@Z 5f55b8e3 f olecli3.obj
 0001:0005ab2f       ?SetPrintDevice@COleClientItem@@QAEHPBUtagPDW@@@Z 5f55bb2f f olecli3.obj
 0001:0005abb7       ?GetUserType@COleClientItem@@QAEXW4tagUSERCLASSTYPE@@AAVCString@@@Z 5f55bbb7 f olecli3.obj
 0001:0005ac93       ?Run@COleClientItem@@QAEXXZ 5f55bc93 f olecli3.obj
 0001:0005ad4a       ?UpdateLink@COleClientItem@@QAEHXZ 5f55bd4a f olecli3.obj
 0001:0005ae0c       ?FreezeLink@COleClientItem@@UAEHXZ 5f55be0c f olecli3.obj
 0001:0005b195       ?GetLinkUpdateOptions@COleClientItem@@QAE?AW4tagOLEUPDATE@@XZ 5f55c195 f olecli3.obj
 0001:0005b24d       ?SetLinkUpdateOptions@COleClientItem@@QAEXW4tagOLEUPDATE@@@Z 5f55c24d f olecli3.obj
 0001:0005b310       ??0COleDocument@@QAE@XZ    5f55c310 f oledoc1.obj
 0001:0005b49c       ??1COleDocument@@UAE@XZ    5f55c49c f oledoc1.obj
 0001:0005b607       ?AddItem@COleDocument@@UAEXPAVCDocItem@@@Z 5f55c607 f oledoc1.obj
 0001:0005b693       ?RemoveItem@COleDocument@@UAEXPAVCDocItem@@@Z 5f55c693 f oledoc1.obj
 0001:0005b78c       ?GetStartPosition@COleDocument@@UBEPAU__POSITION@@XZ 5f55c78c f oledoc1.obj
 0001:0005b7bd       ?GetNextItem@COleDocument@@UBEPAVCDocItem@@AAPAU__POSITION@@@Z 5f55c7bd f oledoc1.obj
 0001:0005b87a       ?GetNextItemOfKind@COleDocument@@IBEPAVCDocItem@@AAPAU__POSITION@@PAUCRuntimeClass@@@Z 5f55c87a f oledoc1.obj
 0001:0005b8e9       ?GetNextClientItem@COleDocument@@QBEPAVCOleClientItem@@AAPAU__POSITION@@@Z 5f55c8e9 f oledoc1.obj
 0001:0005b918       ?GetNextServerItem@COleDocument@@QBEPAVCOleServerItem@@AAPAU__POSITION@@@Z 5f55c918 f oledoc1.obj
 0001:0005b947       ?DeleteContents@COleDocument@@UAEXXZ 5f55c947 f oledoc1.obj
 0001:0005b9c0       ?SetPathName@COleDocument@@UAEXPBGH@Z 5f55c9c0 f oledoc1.obj
 0001:0005ba54       ?Serialize@COleDocument@@UAEXAAVCArchive@@@Z 5f55ca54 f oledoc1.obj
 0001:0005bb9e       ?CommitItems@COleDocument@@QAEXH@Z 5f55cb9e f oledoc1.obj
 0001:0005bbf7       ?HasBlankItems@COleDocument@@QBEHXZ 5f55cbf7 f oledoc1.obj
 0001:0005bc87       ?UpdateModifiedFlag@COleDocument@@UAEXXZ 5f55cc87 f oledoc1.obj
 0001:0005bd01       ?PreCloseFrame@COleDocument@@UAEXPAVCFrameWnd@@@Z 5f55cd01 f oledoc1.obj
 0001:0005bde9       ?SaveModified@COleDocument@@UAEHXZ 5f55cde9 f oledoc1.obj
 0001:0005bfa5       ?OnShowViews@COleDocument@@UAEXH@Z 5f55cfa5 f oledoc1.obj
 0001:0005bfbd       ?OnIdle@COleDocument@@UAEXXZ 5f55cfbd f oledoc1.obj
 0001:0005c096       ?GetFirstFrame@COleDocument@@QAEPAVCFrameWnd@@XZ 5f55d096 f oledoc1.obj
 0001:0005c152       ?GetMoniker@COleDocument@@UAEPAUIMoniker@@W4tagOLEGETMONIKER@@@Z 5f55d152 f oledoc1.obj
 0001:0005c1c0       ?GetContainer@COleDocument@@UAEPAUIOleItemContainer@@XZ 5f55d1c0 f oledoc1.obj
 0001:0005c1d8       ?OnNewDocument@COleDocument@@UAEHXZ 5f55d1d8 f oledoc1.obj
 0001:0005c29f       ?OnOpenDocument@COleDocument@@UAEHPBG@Z 5f55d29f f oledoc1.obj
 0001:0005c62e       ?OnSaveDocument@COleDocument@@UAEHPBG@Z 5f55d62e f oledoc1.obj
 0001:0005c9ed       ?OnCloseDocument@COleDocument@@UAEXXZ 5f55d9ed f oledoc1.obj
 0001:0005ca79       ?SaveToStorage@COleDocument@@MAEXPAVCObject@@@Z 5f55da79 f oledoc1.obj
 0001:0005ccb4       ?LoadFromStorage@COleDocument@@MAEXXZ 5f55dcb4 f oledoc1.obj
 0001:0005ced2       ?AssertValid@COleDocument@@UBEXXZ 5f55ded2 f oledoc1.obj
 0001:0005cf8b       ?Dump@COleDocument@@UBEXAAVCDumpContext@@@Z 5f55df8b f oledoc1.obj
 0001:0005d0ae       ??0CDocItem@@IAE@XZ        5f55e0ae f oledoc1.obj
 0001:0005d127       ??1CDocItem@@UAE@XZ        5f55e127 f oledoc1.obj
 0001:0005d1b4       ?Serialize@CDocItem@@UAEXAAVCArchive@@@Z 5f55e1b4 f oledoc1.obj
 0001:0005d298       ?IsBlank@CDocItem@@UBEHXZ  5f55e298 f oledoc1.obj
 0001:0005d2b0       ?AssertValid@CDocItem@@UBEXXZ 5f55e2b0 f oledoc1.obj
 0001:0005d2ec       ?Dump@CDocItem@@UBEXAAVCDumpContext@@@Z 5f55e2ec f oledoc1.obj
 0001:0005d338       ?GetDocument@CDocItem@@QBEPAVCDocument@@XZ 5f55e338 f oledoc1.obj
 0001:0005d354       ?EnableCompoundFile@COleDocument@@QAEXH@Z 5f55e354 f oledoc1.obj
 0001:0005d375       ?SetBusyReply@COleMessageFilter@@QAEXW4tagSERVERCALL@@@Z 5f55e375 f oledoc1.obj
 0001:0005d3a6       ?SetRetryReply@COleMessageFilter@@QAEXK@Z 5f55e3a6 f oledoc1.obj
 0001:0005d3d7       ?SetMessagePendingDelay@COleMessageFilter@@QAEXK@Z 5f55e3d7 f oledoc1.obj
 0001:0005d408       ?EnableBusyDialog@COleMessageFilter@@QAEXH@Z 5f55e408 f oledoc1.obj
 0001:0005d439       ?EnableNotRespondingDialog@COleMessageFilter@@QAEXH@Z 5f55e439 f oledoc1.obj
 0001:0005d46a       ??0CMonikerFile@@QAE@XZ    5f55e46a f oledoc1.obj
 0001:0005d4f6       ?GetMoniker@CMonikerFile@@QBEPAUIMoniker@@XZ 5f55e4f6 f oledoc1.obj
 0001:0005d527       ?GetBinding@CAsyncMonikerFile@@QBEPAUIBinding@@XZ 5f55e527 f oledoc1.obj
 0001:0005d558       ?SetBinding@CAsyncMonikerFile@@AAEXPAUIBinding@@@Z 5f55e558 f oledoc1.obj
 0001:0005d58f       ?SetFormatEtc@CAsyncMonikerFile@@AAEXPAUtagFORMATETC@@@Z 5f55e58f f oledoc1.obj
 0001:0005d5c0       ?GetFormatEtc@CAsyncMonikerFile@@QBEPAUtagFORMATETC@@XZ 5f55e5c0 f oledoc1.obj
 0001:0005d5f0       ??_ECOleDocument@@UAEPAXI@Z 5f55e5f0 f oledoc1.obj
 0001:0005d5f0       ??_GCOleDocument@@UAEPAXI@Z 5f55e5f0 f oledoc1.obj
 0001:0005d630       ??_ECDocItem@@UAEPAXI@Z    5f55e630 f oledoc1.obj
 0001:0005d630       ??_GCDocItem@@UAEPAXI@Z    5f55e630 f oledoc1.obj
 0001:0005d670       ??1?$CIP@UIMoniker@@$1IID_IMoniker@@QAE@XZ 5f55e670 f oledoc1.obj
 0001:0005d6d0       ?ApplyPrintDevice@COleDocument@@QAEHPBUtagDVTARGETDEVICE@@@Z 5f55e6d0 f oledoc2.obj
 0001:0005d7b9       ?ApplyPrintDevice@COleDocument@@QAEHPBUtagPDW@@@Z 5f55e7b9 f oledoc2.obj
 0001:0005d850       ?AfxGetScodeString@@YGPBGJ@Z 5f55e850 f olemisc.obj
 0001:0005d8aa       ?AfxGetScodeRangeString@@YGPBGJ@Z 5f55e8aa f olemisc.obj
 0001:0005d91d       ?AfxGetSeverityString@@YGPBGJ@Z 5f55e91d f olemisc.obj
 0001:0005d93f       ?AfxGetFacilityString@@YGPBGJ@Z 5f55e93f f olemisc.obj
 0001:0005d981       ?AfxGetFullScodeString@@YGPBGJ@Z 5f55e981 f olemisc.obj
 0001:0005da32       ?AfxThrowOleException@@YGXJ@Z 5f55ea32 f olemisc.obj
 0001:0005dab0       ?GetErrorMessage@COleException@@UAEHPAGIPAI@Z 5f55eab0 f olemisc.obj
 0001:0005db70       ?Process@COleException@@SGJPBVCException@@@Z 5f55eb70 f olemisc.obj
 0001:0005dbf6       ?AfxMergeMenus@@YGPAUHMENU__@@PAU1@0PAJHH@Z 5f55ebf6 f olemisc.obj
 0001:0005df45       ?AfxUnmergeMenus@@YGXPAUHMENU__@@00@Z 5f55ef45 f olemisc.obj
 0001:0005e10a       ?_AfxFillFormatEtc@@YGPAUtagFORMATETC@@PAU1@G0@Z 5f55f10a f olemisc.obj
 0001:0005e190       ?_AfxCopyStgMedium@@YGHGPAUtagSTGMEDIUM@@0@Z 5f55f190 f olemisc.obj
 0001:0005e7e8       ?_AfxOleGetObjectDescriptorData@@YGPAXU_GUID@@KUtagSIZE@@U_POINTL@@KPBG3@Z 5f55f7e8 f olemisc.obj
 0001:0005e989       ?_AfxOleGetObjectDescriptorData@@YGPAXPAUIOleObject@@PBGKU_POINTL@@PAUtagSIZE@@@Z 5f55f989 f olemisc.obj
 0001:0005ede4       ?_AfxOleDoConvert@@YGJPAUIStorage@@ABU_GUID@@@Z 5f55fde4 f olemisc.obj
 0001:0005ef8c       ?_AfxOleDoTreatAsClass@@YGJPBGABU_GUID@@1@Z 5f55ff8c f olemisc.obj
 0001:0005f054       ?_AfxOleCreateTargetDevice@@YGPAUtagDVTARGETDEVICE@@PAUtagDEVNAMES@@PAU_devicemodeW@@@Z 5f560054 f olemisc.obj
 0001:0005f2d5       ?_AfxOleCreateTargetDevice@@YGPAUtagDVTARGETDEVICE@@PAUtagPDW@@@Z 5f5602d5 f olemisc.obj
 0001:0005f36d       ?_AfxOleGetFirstMoniker@@YGPAUIMoniker@@PAU1@@Z 5f56036d f olemisc.obj
 0001:0005f456       ?_AfxOleGetLenFilePrefixOfMoniker@@YGKPAUIMoniker@@@Z 5f560456 f olemisc.obj
 0001:0005f579       ?_AfxOleCopyTargetDevice@@YGPAUtagDVTARGETDEVICE@@PAU1@@Z 5f560579 f olemisc.obj
 0001:0005f5d8       ?_AfxOleCopyFormatEtc@@YGXPAUtagFORMATETC@@0@Z 5f5605d8 f olemisc.obj
 0001:0005f670       ?_AfxOleCreateDC@@YGPAUHDC__@@PAUtagDVTARGETDEVICE@@@Z 5f560670 f olemisc.obj
 0001:0005f73f       ?_AfxDeleteMetafilePict@@YGXPAX@Z 5f56073f f olemisc.obj
 0001:0005f77c       ?_AfxXformSizeInPixelsToHimetric@@YGXPAUHDC__@@PAUtagSIZE@@1@Z 5f56077c f olemisc.obj
 0001:0005f81e       ?_AfxXformSizeInHimetricToPixels@@YGXPAUHDC__@@PAUtagSIZE@@1@Z 5f56081e f olemisc.obj
 0001:0005f8c0       ??0COleStreamFile@@QAE@PAUIStream@@@Z 5f5608c0 f olestrm.obj
 0001:0005f9fd       ??1COleStreamFile@@UAE@XZ  5f5609fd f olestrm.obj
 0001:0005fac2       ?Detach@COleStreamFile@@QAEPAUIStream@@XZ 5f560ac2 f olestrm.obj
 0001:0005faee       ?Attach@COleStreamFile@@QAEXPAUIStream@@@Z 5f560aee f olestrm.obj
 0001:0005fb5a       ?_AfxFillOleFileException@@YGXPAVCFileException@@J@Z 5f560b5a f olestrm.obj
 0001:0005fca1       ?_AfxThrowOleFileException@@YGXJ@Z 5f560ca1 f olestrm.obj
 0001:0005fd33       ?GetStatus@COleStreamFile@@QBEHAAUCFileStatus@@@Z 5f560d33 f olestrm.obj
 0001:0005fe6f       ?GetStorageName@COleStreamFile@@UBE?BVCString@@XZ 5f560e6f f olestrm.obj
 0001:0005fef3       ?GetPosition@COleStreamFile@@UBEKXZ 5f560ef3 f olestrm.obj
 0001:0005ffaa       ?OpenStream@COleStreamFile@@QAEHPAUIStorage@@PBGKPAVCFileException@@@Z 5f560faa f olestrm.obj
 0001:00060116       ?CreateStream@COleStreamFile@@QAEHPAUIStorage@@PBGKPAVCFileException@@@Z 5f561116 f olestrm.obj
 0001:000602f0       ?CreateMemoryStream@COleStreamFile@@QAEHPAVCFileException@@@Z 5f5612f0 f olestrm.obj
 0001:000603cc       ?Duplicate@COleStreamFile@@UBEPAVCFile@@XZ 5f5613cc f olestrm.obj
 0001:0006055d       ?Seek@COleStreamFile@@UAEJJI@Z 5f56155d f olestrm.obj
 0001:0006063f       ?SetLength@COleStreamFile@@UAEXK@Z 5f56163f f olestrm.obj
 0001:000606cc       ?GetLength@COleStreamFile@@UBEKXZ 5f5616cc f olestrm.obj
 0001:0006076d       ?Read@COleStreamFile@@UAEIPAXI@Z 5f56176d f olestrm.obj
 0001:00060834       ?Write@COleStreamFile@@UAEXPBXI@Z 5f561834 f olestrm.obj
 0001:0006091a       ?LockRange@COleStreamFile@@UAEXKK@Z 5f56191a f olestrm.obj
 0001:000609be       ?UnlockRange@COleStreamFile@@UAEXKK@Z 5f5619be f olestrm.obj
 0001:00060a62       ?Abort@COleStreamFile@@UAEXXZ 5f561a62 f olestrm.obj
 0001:00060ade       ?Flush@COleStreamFile@@UAEXXZ 5f561ade f olestrm.obj
 0001:00060b56       ?Close@COleStreamFile@@UAEXXZ 5f561b56 f olestrm.obj
 0001:00060bcb       ?GetStream@COleStreamFile@@QBEPAUIStream@@XZ 5f561bcb f olestrm.obj
 0001:00060be7       ?AssertValid@COleStreamFile@@UBEXXZ 5f561be7 f olestrm.obj
 0001:00060c05       ?Dump@COleStreamFile@@UBEXAAVCDumpContext@@@Z 5f561c05 f olestrm.obj
 0001:00060c70       ?AfxGetIIDString@@YGPBGABU_GUID@@@Z 5f561c70 f oleunk.obj
 0001:00060d52       ?_AfxQueryInterface@@YGPAUIUnknown@@PAU1@ABU_GUID@@@Z 5f561d52 f oleunk.obj
 0001:00060db5       ?_AfxRelease@@YGKPAPAUIUnknown@@@Z 5f561db5 f oleunk.obj
 0001:00060e1e       ?EnableAggregation@CCmdTarget@@QAEXXZ 5f561e1e f oleunk.obj
 0001:00060e4b       ?ExternalAddRef@CCmdTarget@@QAEKXZ 5f561e4b f oleunk.obj
 0001:00060e8d       ?InternalRelease@CCmdTarget@@QAEKXZ 5f561e8d f oleunk.obj
 0001:00060f5e       ?ExternalRelease@CCmdTarget@@QAEKXZ 5f561f5e f oleunk.obj
 0001:00060fa0       ?GetInterface@CCmdTarget@@QAEPAUIUnknown@@PBX@Z 5f561fa0 f oleunk.obj
 0001:000611af       ?QueryAggregates@CCmdTarget@@QAEPAUIUnknown@@PBX@Z 5f5621af f oleunk.obj
 0001:000612ae       ?InternalQueryInterface@CCmdTarget@@QAEKPBXPAPAX@Z 5f5622ae f oleunk.obj
 0001:00061321       ?ExternalQueryInterface@CCmdTarget@@QAEKPBXPAPAX@Z 5f562321 f oleunk.obj
 0001:00061374       ?AddRef@CInnerUnknown@@UAGKXZ 5f562374 f oleunk.obj
 0001:0006139a       ?Release@CInnerUnknown@@UAGKXZ 5f56239a f oleunk.obj
 0001:0006141a       ?QueryInterface@CInnerUnknown@@UAGJABU_GUID@@PAPAX@Z 5f56241a f oleunk.obj
 0001:00061478       ?ExternalDisconnect@CCmdTarget@@QAEXXZ 5f562478 f oleunk.obj
 0001:000614f5       ?GetControllingUnknown@CCmdTarget@@QAEPAUIUnknown@@XZ 5f5624f5 f oleunk.obj
 0001:00061536       ??0COleException@@QAE@XZ   5f562536 f oleunk.obj
 0001:000615af       ??1COleException@@UAE@XZ   5f5625af f oleunk.obj
 0001:00061617       ?InternalAddRef@CCmdTarget@@QAEKXZ 5f562617 f oleunk.obj
 0001:00061662       ?IsRegistered@COleObjectFactory@@UBEHXZ 5f562662 f oleunk.obj
 0001:000616a1       ?GetClassID@COleObjectFactory@@QBEABU_GUID@@XZ 5f5626a1 f oleunk.obj
 0001:000616cd       ??1COleDispatchDriver@@QAE@XZ 5f5626cd f oleunk.obj
 0001:000616eb       ??BCOleDispatchDriver@@QAEPAUIDispatch@@XZ 5f5626eb f oleunk.obj
 0001:00061706       ??0COleVariant@@QAE@XZ     5f562706 f oleunk.obj
 0001:00061728       ??1COleVariant@@QAE@XZ     5f562728 f oleunk.obj
 0001:00061748       ??0COleVariant@@QAE@PBG@Z  5f562748 f oleunk.obj
 0001:00061777       ??0COleVariant@@QAE@AAVCString@@@Z 5f562777 f oleunk.obj
 0001:000617a6       ??0COleVariant@@QAE@E@Z    5f5627a6 f oleunk.obj
 0001:000617d2       ??0COleVariant@@QAE@ABVCOleCurrency@@@Z 5f5627d2 f oleunk.obj
 0001:00061808       ??0COleVariant@@QAE@M@Z    5f562808 f oleunk.obj
 0001:00061834       ??0COleVariant@@QAE@N@Z    5f562834 f oleunk.obj
 0001:00061866       ??0COleVariant@@QAE@ABVCOleDateTime@@@Z 5f562866 f oleunk.obj
 0001:0006189a       ??0COleVariant@@QAE@ABVCByteArray@@@Z 5f56289a f oleunk.obj
 0001:000618c9       ??0COleVariant@@QAE@ABVCLongBinary@@@Z 5f5628c9 f oleunk.obj
 0001:000618f8       ??8COleVariant@@QBEHPBUtagVARIANT@@@Z 5f5628f8 f oleunk.obj
 0001:0006191c       ??BCOleVariant@@QAEPAUtagVARIANT@@XZ 5f56291c f oleunk.obj
 0001:00061935       ??BCOleVariant@@QBEPBUtagVARIANT@@XZ 5f562935 f oleunk.obj
 0001:0006194e       ??0COleCurrency@@QAE@XZ    5f56294e f oleunk.obj
 0001:00061984       ??0COleCurrency@@QAE@TtagCY@@@Z 5f562984 f oleunk.obj
 0001:000619b7       ??0COleCurrency@@QAE@ABV0@@Z 5f5629b7 f oleunk.obj
 0001:000619ee       ??0COleCurrency@@QAE@ABUtagVARIANT@@@Z 5f5629ee f oleunk.obj
 0001:00061a15       ?GetStatus@COleCurrency@@QBE?AW4CurrencyStatus@1@XZ 5f562a15 f oleunk.obj
 0001:00061a31       ?SetStatus@COleCurrency@@QAEXW4CurrencyStatus@1@@Z 5f562a31 f oleunk.obj
 0001:00061a52       ??YCOleCurrency@@QAEABV0@ABV0@@Z 5f562a52 f oleunk.obj
 0001:00061a86       ??ZCOleCurrency@@QAEABV0@ABV0@@Z 5f562a86 f oleunk.obj
 0001:00061aba       ??XCOleCurrency@@QAEABV0@J@Z 5f562aba f oleunk.obj
 0001:00061aee       ??_0COleCurrency@@QAEABV0@J@Z 5f562aee f oleunk.obj
 0001:00061b22       ??8COleCurrency@@QBEHABV0@@Z 5f562b22 f oleunk.obj
 0001:00061b7a       ??9COleCurrency@@QBEHABV0@@Z 5f562b7a f oleunk.obj
 0001:00061bd2       ??BCOleCurrency@@QBE?ATtagCY@@XZ 5f562bd2 f oleunk.obj
 0001:00061bfd       ??0COleDateTime@@QAE@XZ    5f562bfd f oleunk.obj
 0001:00061c30       ??0COleDateTime@@QAE@ABV0@@Z 5f562c30 f oleunk.obj
 0001:00061c67       ??0COleDateTime@@QAE@ABUtagVARIANT@@@Z 5f562c67 f oleunk.obj
 0001:00061c8e       ??0COleDateTime@@QAE@N@Z   5f562c8e f oleunk.obj
 0001:00061cc1       ??0COleDateTime@@QAE@J@Z   5f562cc1 f oleunk.obj
 0001:00061ce8       ??0COleDateTime@@QAE@ABU_SYSTEMTIME@@@Z 5f562ce8 f oleunk.obj
 0001:00061d0f       ??0COleDateTime@@QAE@ABU_FILETIME@@@Z 5f562d0f f oleunk.obj
 0001:00061d36       ??0COleDateTime@@QAE@HHHHHH@Z 5f562d36 f oleunk.obj
 0001:00061d71       ??0COleDateTime@@QAE@GG@Z  5f562d71 f oleunk.obj
 0001:00061dbf       ??4COleDateTime@@QAEABV0@ABV0@@Z 5f562dbf f oleunk.obj
 0001:00061df6       ?GetStatus@COleDateTime@@QBE?AW4DateTimeStatus@1@XZ 5f562df6 f oleunk.obj
 0001:00061e12       ?SetStatus@COleDateTime@@QAEXW4DateTimeStatus@1@@Z 5f562e12 f oleunk.obj
 0001:00061e33       ??8COleDateTime@@QBEHABV0@@Z 5f562e33 f oleunk.obj
 0001:00061e7e       ??9COleDateTime@@QBEHABV0@@Z 5f562e7e f oleunk.obj
 0001:00061ec9       ??YCOleDateTime@@QAEABV0@VCOleDateTimeSpan@@@Z 5f562ec9 f oleunk.obj
 0001:00061efd       ??ZCOleDateTime@@QAEABV0@VCOleDateTimeSpan@@@Z 5f562efd f oleunk.obj
 0001:00061f31       ??BCOleDateTime@@QBENXZ    5f562f31 f oleunk.obj
 0001:00061f4c       ?SetDate@COleDateTime@@QAEHHHH@Z 5f562f4c f oleunk.obj
 0001:00061f7e       ?SetTime@COleDateTime@@QAEHHHH@Z 5f562f7e f oleunk.obj
 0001:00061fb3       ??0COleDateTimeSpan@@QAE@XZ 5f562fb3 f oleunk.obj
 0001:00061fe6       ??0COleDateTimeSpan@@QAE@N@Z 5f562fe6 f oleunk.obj
 0001:00062019       ??0COleDateTimeSpan@@QAE@ABV0@@Z 5f563019 f oleunk.obj
 0001:00062050       ??0COleDateTimeSpan@@QAE@JHHH@Z 5f563050 f oleunk.obj
 0001:00062083       ?GetStatus@COleDateTimeSpan@@QBE?AW4DateTimeSpanStatus@1@XZ 5f563083 f oleunk.obj
 0001:0006209f       ?SetStatus@COleDateTimeSpan@@QAEXW4DateTimeSpanStatus@1@@Z 5f56309f f oleunk.obj
 0001:000620c0       ?GetTotalDays@COleDateTimeSpan@@QBENXZ 5f5630c0 f oleunk.obj
 0001:00062103       ?GetTotalHours@COleDateTimeSpan@@QBENXZ 5f563103 f oleunk.obj
 0001:0006214c       ?GetTotalMinutes@COleDateTimeSpan@@QBENXZ 5f56314c f oleunk.obj
 0001:00062195       ?GetTotalSeconds@COleDateTimeSpan@@QBENXZ 5f563195 f oleunk.obj
 0001:000621de       ?GetDays@COleDateTimeSpan@@QBEJXZ 5f5631de f oleunk.obj
 0001:00062226       ??8COleDateTimeSpan@@QBEHABV0@@Z 5f563226 f oleunk.obj
 0001:00062271       ??9COleDateTimeSpan@@QBEHABV0@@Z 5f563271 f oleunk.obj
 0001:000622bc       ??MCOleDateTimeSpan@@QBEHABV0@@Z 5f5632bc f oleunk.obj
 0001:00062345       ??OCOleDateTimeSpan@@QBEHABV0@@Z 5f563345 f oleunk.obj
 0001:000623ce       ??NCOleDateTimeSpan@@QBEHABV0@@Z 5f5633ce f oleunk.obj
 0001:00062457       ??PCOleDateTimeSpan@@QBEHABV0@@Z 5f563457 f oleunk.obj
 0001:000624e0       ??YCOleDateTimeSpan@@QAEABV0@V0@@Z 5f5634e0 f oleunk.obj
 0001:00062514       ??ZCOleDateTimeSpan@@QAEABV0@V0@@Z 5f563514 f oleunk.obj
 0001:00062548       ??GCOleDateTimeSpan@@QBE?AV0@XZ 5f563548 f oleunk.obj
 0001:00062578       ??BCOleDateTimeSpan@@QBENXZ 5f563578 f oleunk.obj
 0001:00062593       ??0COleSafeArray@@QAE@XZ   5f563593 f oleunk.obj
 0001:000625bd       ??1COleSafeArray@@QAE@XZ   5f5635bd f oleunk.obj
 0001:000625db       ?Clear@COleSafeArray@@QAEXXZ 5f5635db f oleunk.obj
 0001:0006261b       ??BCOleSafeArray@@QAEPAUtagVARIANT@@XZ 5f56361b f oleunk.obj
 0001:00062634       ??BCOleSafeArray@@QBEPBUtagVARIANT@@XZ 5f563634 f oleunk.obj
 0001:0006264d       ?GetDim@COleSafeArray@@QAEKXZ 5f56364d f oleunk.obj
 0001:00062670       ?GetElemSize@COleSafeArray@@QAEKXZ 5f563670 f oleunk.obj
 0001:000626a0       ??0CInnerUnknown@@QAE@XZ   5f5636a0 f oleunk.obj
 0001:000626d0       ??_GCOleException@@UAEPAXI@Z 5f5636d0 f oleunk.obj
 0001:000626d0       ??_ECOleException@@UAEPAXI@Z 5f5636d0 f oleunk.obj
 0001:00062710       ??1CMonikerFile@@UAE@XZ    5f563710 f olemon.obj
 0001:000627ac       ?Open@CMonikerFile@@MAEHPBGPAUIBindHost@@PAUIBindStatusCallback@@PAUIBindCtx@@PAVCFileException@@@Z 5f5637ac f olemon.obj
 0001:000627fe       ?Attach@CMonikerFile@@IAEHPBGPAUIBindHost@@PAUIBindStatusCallback@@PAUIBindCtx@@PAVCFileException@@@Z 5f5637fe f olemon.obj
 0001:00062a3f       ?Open@CMonikerFile@@UAEHPBGPAVCFileException@@@Z 5f563a3f f olemon.obj
 0001:00062b06       ?Open@CMonikerFile@@UAEHPAUIMoniker@@PAVCFileException@@@Z 5f563b06 f olemon.obj
 0001:00062bd5       ?Open@CMonikerFile@@MAEHPAUIMoniker@@PAUIBindHost@@PAUIBindStatusCallback@@PAUIBindCtx@@PAVCFileException@@@Z 5f563bd5 f olemon.obj
 0001:00062c14       ?Attach@CMonikerFile@@IAEHPAUIMoniker@@PAUIBindHost@@PAUIBindStatusCallback@@PAUIBindCtx@@PAVCFileException@@@Z 5f563c14 f olemon.obj
 0001:00062dab       ?Close@CMonikerFile@@UAEXXZ 5f563dab f olemon.obj
 0001:00062de7       ?Detach@CMonikerFile@@QAEHPAVCFileException@@@Z 5f563de7 f olemon.obj
 0001:00062f14       ?CreateBindHost@CMonikerFile@@KAPAUIBindHost@@XZ 5f563f14 f olemon.obj
 0001:00062f6e       ?CreateBindContext@CMonikerFile@@IAEPAUIBindCtx@@PAVCFileException@@@Z 5f563f6e f olemon.obj
 0001:00062f88       ?PostBindToStream@CMonikerFile@@MAEHPAVCFileException@@@Z 5f563f88 f olemon.obj
 0001:0006305d       ?AssertValid@CMonikerFile@@UBEXXZ 5f56405d f olemon.obj
 0001:0006307b       ?Dump@CMonikerFile@@UBEXAAVCDumpContext@@@Z 5f56407b f olemon.obj
 0001:000630d0       ??1?$CIP@UIBindCtx@@$1IID_IBindCtx@@QAE@XZ 5f5640d0 f olemon.obj
 0001:00063130       ??1?$CIP@UIBindHost@@$1IID_IBindHost@@QAE@XZ 5f564130 f olemon.obj
 0001:00063190       ??1?$CIP@UIStream@@$1IID_IStream@@QAE@XZ 5f564190 f olemon.obj
 0001:000631f0       ??0IBindHost@@QAE@XZ       5f5641f0 f olemon.obj
 0001:00063220       ??_G_AfxBindHost@@QAEPAXI@Z 5f564220 f olemon.obj
 0001:00063260       ??1?$CIP@UIBindStatusCallback@@$1IID_IBindStatusCallback@@QAE@XZ 5f564260 f olemon.obj
 0001:000632c0       ??0CAsyncMonikerFile@@QAE@XZ 5f5642c0 f oleasmon.obj
 0001:000633a8       ??1CAsyncMonikerFile@@UAE@XZ 5f5643a8 f oleasmon.obj
 0001:000634ac       ?Open@CAsyncMonikerFile@@UAEHPBGPAVCFileException@@@Z 5f5644ac f oleasmon.obj
 0001:0006353e       ?Open@CAsyncMonikerFile@@UAEHPAUIMoniker@@PAVCFileException@@@Z 5f56453e f oleasmon.obj
 0001:000635d0       ?Open@CAsyncMonikerFile@@UAEHPAUIMoniker@@PAUIBindHost@@PAVCFileException@@@Z 5f5645d0 f oleasmon.obj
 0001:00063719       ?Open@CAsyncMonikerFile@@UAEHPBGPAUIBindHost@@PAVCFileException@@@Z 5f564719 f oleasmon.obj
 0001:00063862       ?Open@CAsyncMonikerFile@@UAEHPBGPAUIServiceProvider@@PAVCFileException@@@Z 5f564862 f oleasmon.obj
 0001:00063ac1       ?Open@CAsyncMonikerFile@@UAEHPBGPAUIUnknown@@PAVCFileException@@@Z 5f564ac1 f oleasmon.obj
 0001:00063c30       ?Open@CAsyncMonikerFile@@UAEHPAUIMoniker@@PAUIServiceProvider@@PAVCFileException@@@Z 5f564c30 f oleasmon.obj
 0001:00063d50       ?Open@CAsyncMonikerFile@@UAEHPAUIMoniker@@PAUIUnknown@@PAVCFileException@@@Z 5f564d50 f oleasmon.obj
 0001:00063eca       ?GetBindInfo@CAsyncMonikerFile@@MBEKXZ 5f564eca f oleasmon.obj
 0001:00063ee5       ?GetPriority@CAsyncMonikerFile@@MBEJXZ 5f564ee5 f oleasmon.obj
 0001:00063efd       ?OnDataAvailable@CAsyncMonikerFile@@MAEXKK@Z 5f564efd f oleasmon.obj
 0001:00063f15       ?OnLowResource@CAsyncMonikerFile@@MAEXXZ 5f564f15 f oleasmon.obj
 0001:00063f2b       ?OnStartBinding@CAsyncMonikerFile@@MAEXXZ 5f564f2b f oleasmon.obj
 0001:00063f41       ?OnStopBinding@CAsyncMonikerFile@@MAEXJPBG@Z 5f564f41 f oleasmon.obj
 0001:00063f59       ?OnProgress@CAsyncMonikerFile@@MAEXKKKPBG@Z 5f564f59 f oleasmon.obj
 0001:00063f71       ?Close@CAsyncMonikerFile@@UAEXXZ 5f564f71 f oleasmon.obj
 0001:0006401b       ?PostBindToStream@CAsyncMonikerFile@@MAEHPAVCFileException@@@Z 5f56501b f oleasmon.obj
 0001:00064060       ?AssertValid@CAsyncMonikerFile@@UBEXXZ 5f565060 f oleasmon.obj
 0001:0006407e       ?Dump@CAsyncMonikerFile@@UBEXAAVCDumpContext@@@Z 5f56507e f oleasmon.obj
 0001:00064160       ??0IBindStatusCallback@@QAE@XZ 5f565160 f oleasmon.obj
 0001:00064190       ??1?$CIP@UIBinding@@$1IID_IBinding@@QAE@XZ 5f565190 f oleasmon.obj
 0001:000641f0       ??1?$CIP@UIServiceProvider@@$1IID_IServiceProvider@@QAE@XZ 5f5651f0 f oleasmon.obj
 0001:00064250       ??0COleFrameHook@@QAE@PAVCFrameWnd@@PAVCOleClientItem@@@Z 5f565250 f olecli2.obj
 0001:00064370       ??1COleFrameHook@@UAE@XZ   5f565370 f olecli2.obj
 0001:00064440       ?OnRecalcLayout@COleFrameHook@@UAEXXZ 5f565440 f olecli2.obj
 0001:000644c3       ?OnDocActivate@COleFrameHook@@UAEHH@Z 5f5654c3 f olecli2.obj
 0001:000645e3       ?OnContextHelp@COleFrameHook@@UAEHH@Z 5f5655e3 f olecli2.obj
 0001:00064648       ?OnPreTranslateMessage@COleFrameHook@@UAEHPAUtagMSG@@@Z 5f565648 f olecli2.obj
 0001:000646ea       ?OnActivate@COleFrameHook@@UAEXH@Z 5f5656ea f olecli2.obj
 0001:00064762       ?OnEnableModeless@COleFrameHook@@UAEXH@Z 5f565762 f olecli2.obj
 0001:000647c2       ?OnUpdateFrameTitle@COleFrameHook@@UAEHXZ 5f5657c2 f olecli2.obj
 0001:0006483b       ?OnPaletteChanged@COleFrameHook@@UAEXPAVCWnd@@@Z 5f56583b f olecli2.obj
 0001:00064883       ?OnQueryNewPalette@COleFrameHook@@UAEHXZ 5f565883 f olecli2.obj
 0001:000648c9       ?NotifyAllInPlace@COleFrameHook@@QAEHHP81@AEHH@Z@Z 5f5658c9 f olecli2.obj
 0001:00064a99       ?DoContextSensitiveHelp@COleFrameHook@@QAEHH@Z 5f565a99 f olecli2.obj
 0001:00064b13       ?DoEnableModeless@COleFrameHook@@QAEHH@Z 5f565b13 f olecli2.obj
 0001:00064bd8       ?CanActivate@COleClientItem@@MAEHXZ 5f565bd8 f olecli2.obj
 0001:00064cb6       ?OnActivate@COleClientItem@@UAEXXZ 5f565cb6 f olecli2.obj
 0001:00064d2d       ?OnActivateUI@COleClientItem@@UAEXXZ 5f565d2d f olecli2.obj
 0001:00064e91       ?OnShowControlBars@COleClientItem@@UAEHPAVCFrameWnd@@H@Z 5f565e91 f olecli2.obj
 0001:00064fef       ?OnGetWindowContext@COleClientItem@@MAEHPAPAVCFrameWnd@@0PAUtagOIFI@@@Z 5f565fef f olecli2.obj
 0001:00065244       ?OnScrollBy@COleClientItem@@MAEHVCSize@@@Z 5f566244 f olecli2.obj
 0001:000652eb       ?OnDeactivateUI@COleClientItem@@UAEXH@Z 5f5662eb f olecli2.obj
 0001:00065583       ?OnDeactivate@COleClientItem@@UAEXXZ 5f566583 f olecli2.obj
 0001:000656ba       ?OnDiscardUndoState@COleClientItem@@MAEXXZ 5f5666ba f olecli2.obj
 0001:000656e3       ?OnDeactivateAndUndo@COleClientItem@@MAEXXZ 5f5666e3 f olecli2.obj
 0001:00065714       ?OnChangeItemPosition@COleClientItem@@MAEHABVCRect@@@Z 5f566714 f olecli2.obj
 0001:000657fc       ?OnInsertMenus@COleClientItem@@UAEXPAVCMenu@@PAUtagOleMenuGroupWidths@@@Z 5f5667fc f olecli2.obj
 0001:000658c8       ?OnSetMenu@COleClientItem@@UAEXPAVCMenu@@PAXPAUHWND__@@@Z 5f5668c8 f olecli2.obj
 0001:00065a03       ?OnRemoveMenus@COleClientItem@@UAEXPAVCMenu@@@Z 5f566a03 f olecli2.obj
 0001:00065a7f       ?OnUpdateFrameTitle@COleClientItem@@UAEHXZ 5f566a7f f olecli2.obj
 0001:00065aaa       ?Deactivate@COleClientItem@@QAEXXZ 5f566aaa f olecli2.obj
 0001:00065b91       ?DeactivateUI@COleClientItem@@QAEXXZ 5f566b91 f olecli2.obj
 0001:00065c79       ?SetItemRects@COleClientItem@@QAEHPBUtagRECT@@0@Z 5f566c79 f olecli2.obj
 0001:00065e7a       ?ReactivateAndUndo@COleClientItem@@QAEHXZ 5f566e7a f olecli2.obj
 0001:00065f60       ?GetInPlaceWindow@COleClientItem@@QAEPAVCWnd@@XZ 5f566f60 f olecli2.obj
 0001:0006603f       ?_GetBaseInterfaceMap@COleFrameHook@@KGPBUAFX_INTERFACEMAP@@XZ 5f56703f f olecli2.obj
 0001:00066054       ?GetInterfaceMap@COleFrameHook@@MBEPBUAFX_INTERFACEMAP@@XZ 5f567054 f olecli2.obj
 0001:0006606f       ?AddRef@XOleInPlaceFrame@COleFrameHook@@UAGKXZ 5f56706f f olecli2.obj
 0001:00066095       ?Release@XOleInPlaceFrame@COleFrameHook@@UAGKXZ 5f567095 f olecli2.obj
 0001:000660bb       ?QueryInterface@XOleInPlaceFrame@COleFrameHook@@UAGJABU_GUID@@PAPAX@Z 5f5670bb f olecli2.obj
 0001:000660e9       ?GetWindow@XOleInPlaceFrame@COleFrameHook@@UAGJPAPAUHWND__@@@Z 5f5670e9 f olecli2.obj
 0001:0006612a       ?ContextSensitiveHelp@XOleInPlaceFrame@COleFrameHook@@UAGJH@Z 5f56712a f olecli2.obj
 0001:0006627b       ?GetBorder@XOleInPlaceFrame@COleFrameHook@@UAGJPAUtagRECT@@@Z 5f56727b f olecli2.obj
 0001:000663d0       ?RequestBorderSpace@XOleInPlaceFrame@COleFrameHook@@UAGJPBUtagRECT@@@Z 5f5673d0 f olecli2.obj
 0001:000664b2       ?SetBorderSpace@XOleInPlaceFrame@COleFrameHook@@UAGJPBUtagRECT@@@Z 5f5674b2 f olecli2.obj
 0001:00066591       ?SetActiveObject@XOleInPlaceFrame@COleFrameHook@@UAGJPAUIOleInPlaceActiveObject@@PBG@Z 5f567591 f olecli2.obj
 0001:00066709       ?InsertMenus@XOleInPlaceFrame@COleFrameHook@@UAGJPAUHMENU__@@PAUtagOleMenuGroupWidths@@@Z 5f567709 f olecli2.obj
 0001:0006682f       ?SetMenu@XOleInPlaceFrame@COleFrameHook@@UAGJPAUHMENU__@@PAXPAUHWND__@@@Z 5f56782f f olecli2.obj
 0001:00066959       ?RemoveMenus@XOleInPlaceFrame@COleFrameHook@@UAGJPAUHMENU__@@@Z 5f567959 f olecli2.obj
 0001:00066a7b       ?SetStatusText@XOleInPlaceFrame@COleFrameHook@@UAGJPBG@Z 5f567a7b f olecli2.obj
 0001:00066ac1       ?EnableModeless@XOleInPlaceFrame@COleFrameHook@@UAGJH@Z 5f567ac1 f olecli2.obj
 0001:00066bfc       ?TranslateAcceleratorW@XOleInPlaceFrame@COleFrameHook@@UAGJPAUtagMSG@@G@Z 5f567bfc f olecli2.obj
 0001:00066d73       ?AddRef@XOleIPSite@COleClientItem@@UAGKXZ 5f567d73 f olecli2.obj
 0001:00066d99       ?Release@XOleIPSite@COleClientItem@@UAGKXZ 5f567d99 f olecli2.obj
 0001:00066dbf       ?QueryInterface@XOleIPSite@COleClientItem@@UAGJABU_GUID@@PAPAX@Z 5f567dbf f olecli2.obj
 0001:00066ded       ?GetWindow@XOleIPSite@COleClientItem@@UAGJPAPAUHWND__@@@Z 5f567ded f olecli2.obj
 0001:00066e33       ?ContextSensitiveHelp@XOleIPSite@COleClientItem@@UAGJH@Z 5f567e33 f olecli2.obj
 0001:00066e82       ?CanInPlaceActivate@XOleIPSite@COleClientItem@@UAGJXZ 5f567e82 f olecli2.obj
 0001:00066f20       ?OnInPlaceActivate@XOleIPSite@COleClientItem@@UAGJXZ 5f567f20 f olecli2.obj
 0001:0006701c       ?OnUIActivate@XOleIPSite@COleClientItem@@UAGJXZ 5f56801c f olecli2.obj
 0001:00067118       ?GetWindowContext@XOleIPSite@COleClientItem@@UAGJPAPAUIOleInPlaceFrame@@PAPAUIOleInPlaceUIWindow@@PAUtagRECT@@2PAUtagOIFI@@@Z 5f568118 f olecli2.obj
 0001:000673c4       ?Scroll@XOleIPSite@COleClientItem@@UAGJUtagSIZE@@@Z 5f5683c4 f olecli2.obj
 0001:000674e8       ?OnUIDeactivate@XOleIPSite@COleClientItem@@UAGJH@Z 5f5684e8 f olecli2.obj
 0001:000675e8       ?OnInPlaceDeactivate@XOleIPSite@COleClientItem@@UAGJXZ 5f5685e8 f olecli2.obj
 0001:000676e4       ?DiscardUndoState@XOleIPSite@COleClientItem@@UAGJXZ 5f5686e4 f olecli2.obj
 0001:000677e0       ?DeactivateAndUndo@XOleIPSite@COleClientItem@@UAGJXZ 5f5687e0 f olecli2.obj
 0001:000678dc       ?OnPosRectChange@XOleIPSite@COleClientItem@@UAGJPBUtagRECT@@@Z 5f5688dc f olecli2.obj
 0001:000679f0       ??_ECOleFrameHook@@UAEPAXI@Z 5f5689f0 f olecli2.obj
 0001:000679f0       ??_GCOleFrameHook@@UAEPAXI@Z 5f5689f0 f olecli2.obj
 0001:00067a30       ??0XOleInPlaceFrame@COleFrameHook@@QAE@XZ 5f568a30 f olecli2.obj
 0001:00067a60       ??0IOleInPlaceFrame@@QAE@XZ 5f568a60 f olecli2.obj
 0001:00067a90       ??0IOleInPlaceUIWindow@@QAE@XZ 5f568a90 f olecli2.obj
 0001:00067ac0       ?_AfxOlePropertiesEnabled@@YGHXZ 5f568ac0 f oledlgs1.obj
 0001:00067b35       ?_AfxParseDisplayName@@YAJPAUIMoniker@@PAUIBindCtx@@PAGPAKPAPAU1@@Z 5f568b35 f oledlgs1.obj
 0001:00067d89       ??0COleUILinkInfo@@QAE@PAVCOleDocument@@@Z 5f568d89 f oledlgs1.obj
 0001:00067e1a       ?AddRef@COleUILinkInfo@@UAGKXZ 5f568e1a f oledlgs1.obj
 0001:00067e2e       ?Release@COleUILinkInfo@@UAGKXZ 5f568e2e f oledlgs1.obj
 0001:00067e42       ?QueryInterface@COleUILinkInfo@@UAGJABU_GUID@@PAPAX@Z 5f568e42 f oledlgs1.obj
 0001:00067e59       ?GetNextLink@COleUILinkInfo@@UAGKK@Z 5f568e59 f oledlgs1.obj
 0001:00067f26       ?SetLinkUpdateOptions@COleUILinkInfo@@UAGJKK@Z 5f568f26 f oledlgs1.obj
 0001:0006804a       ?GetLinkUpdateOptions@COleUILinkInfo@@UAGJKPAK@Z 5f56904a f oledlgs1.obj
 0001:00068165       ?SetLinkSource@COleUILinkInfo@@UAGJKPAGKPAKH@Z 5f569165 f oledlgs1.obj
 0001:0006863a       ?GetLinkSource@COleUILinkInfo@@UAGJKPAPAGPAK00PAH2@Z 5f56963a f oledlgs1.obj
 0001:00068966       ?OpenLinkSource@COleUILinkInfo@@UAGJK@Z 5f569966 f oledlgs1.obj
 0001:00068a8f       ?UpdateLink@COleUILinkInfo@@UAGJKHH@Z 5f569a8f f oledlgs1.obj
 0001:00068bbc       ?CancelLink@COleUILinkInfo@@UAGJK@Z 5f569bbc f oledlgs1.obj
 0001:00068d0c       ?GetLastUpdate@COleUILinkInfo@@UAGJKPAU_FILETIME@@@Z 5f569d0c f oledlgs1.obj
 0001:00068d3c       ??0COleInsertDialog@@QAE@KPAVCWnd@@@Z 5f569d3c f oledlgs1.obj
 0001:00068e4f       ??1COleInsertDialog@@UAE@XZ 5f569e4f f oledlgs1.obj
 0001:00068ec6       ?DoModal@COleInsertDialog@@UAEHXZ 5f569ec6 f oledlgs1.obj
 0001:00068f46       ?GetSelectionType@COleInsertDialog@@QBEIXZ 5f569f46 f oledlgs1.obj
 0001:00068fc9       ?CreateItem@COleInsertDialog@@QAEHPAVCOleClientItem@@@Z 5f569fc9 f oledlgs1.obj
 0001:00069165       ?Dump@COleInsertDialog@@UBEXAAVCDumpContext@@@Z 5f56a165 f oledlgs1.obj
 0001:000692de       ??0COleConvertDialog@@QAE@PAVCOleClientItem@@KPAU_GUID@@PAVCWnd@@@Z 5f56a2de f oledlgs1.obj
 0001:000695df       ??1COleConvertDialog@@UAE@XZ 5f56a5df f oledlgs1.obj
 0001:00069656       ?DoModal@COleConvertDialog@@UAEHXZ 5f56a656 f oledlgs1.obj
 0001:000696d6       ?DoConvert@COleConvertDialog@@QAEHPAVCOleClientItem@@@Z 5f56a6d6 f oledlgs1.obj
 0001:000698db       ?GetSelectionType@COleConvertDialog@@QBEIXZ 5f56a8db f oledlgs1.obj
 0001:0006995b       ?Dump@COleConvertDialog@@UBEXAAVCDumpContext@@@Z 5f56a95b f oledlgs1.obj
 0001:00069b50       ??0COleChangeIconDialog@@QAE@PAVCOleClientItem@@KPAVCWnd@@@Z 5f56ab50 f oledlgs1.obj
 0001:00069c6e       ??1COleChangeIconDialog@@UAE@XZ 5f56ac6e f oledlgs1.obj
 0001:00069ce5       ?DoModal@COleChangeIconDialog@@UAEHXZ 5f56ace5 f oledlgs1.obj
 0001:00069d65       ?DoChangeIcon@COleChangeIconDialog@@QAEHPAVCOleClientItem@@@Z 5f56ad65 f oledlgs1.obj
 0001:00069de8       ?Dump@COleChangeIconDialog@@UBEXAAVCDumpContext@@@Z 5f56ade8 f oledlgs1.obj
 0001:00069f44       ??0COleLinksDialog@@QAE@PAVCOleDocument@@PAVCView@@KPAVCWnd@@@Z 5f56af44 f oledlgs1.obj
 0001:0006a0a0       ??1COleLinksDialog@@UAE@XZ 5f56b0a0 f oledlgs1.obj
 0001:0006a108       ?DoModal@COleLinksDialog@@UAEHXZ 5f56b108 f oledlgs1.obj
 0001:0006a195       ?Dump@COleLinksDialog@@UBEXAAVCDumpContext@@@Z 5f56b195 f oledlgs1.obj
 0001:0006a2d3       ?AssertValid@COleLinksDialog@@UBEXXZ 5f56b2d3 f oledlgs1.obj
 0001:0006a2f1       ??0COleUpdateDialog@@QAE@PAVCOleDocument@@HHPAVCWnd@@@Z 5f56b2f1 f oledlgs1.obj
 0001:0006a3f9       ??1COleUpdateDialog@@UAE@XZ 5f56b3f9 f oledlgs1.obj
 0001:0006a47d       ?DoModal@COleUpdateDialog@@UAEHXZ 5f56b47d f oledlgs1.obj
 0001:0006a54f       ?Dump@COleUpdateDialog@@UBEXAAVCDumpContext@@@Z 5f56b54f f oledlgs1.obj
 0001:0006a59c       ??0COlePasteSpecialDialog@@QAE@KPAVCOleDataObject@@PAVCWnd@@@Z 5f56b59c f oledlgs1.obj
 0001:0006a748       ??1COlePasteSpecialDialog@@UAE@XZ 5f56b748 f oledlgs1.obj
 0001:0006a86d       ?DoModal@COlePasteSpecialDialog@@UAEHXZ 5f56b86d f oledlgs1.obj
 0001:0006a907       ?GetSelectionType@COlePasteSpecialDialog@@QBEIXZ 5f56b907 f oledlgs1.obj
 0001:0006a9f7       ?Dump@COlePasteSpecialDialog@@UBEXAAVCDumpContext@@@Z 5f56b9f7 f oledlgs1.obj
 0001:0006abcb       ?AssertValid@COlePasteSpecialDialog@@UBEXXZ 5f56bbcb f oledlgs1.obj
 0001:0006ac71       ?AddLinkEntry@COlePasteSpecialDialog@@QAE?AW4tagOLEUIPASTEFLAG@@I@Z 5f56bc71 f oledlgs1.obj
 0001:0006ad4f       ?AddFormat@COlePasteSpecialDialog@@QAEXIKIHH@Z 5f56bd4f f oledlgs1.obj
 0001:0006af2a       ?AddFormat@COlePasteSpecialDialog@@QAEXABUtagFORMATETC@@PAG1K@Z 5f56bf2a f oledlgs1.obj
 0001:0006afef       ?AddStandardFormats@COlePasteSpecialDialog@@QAEXH@Z 5f56bfef f oledlgs1.obj
 0001:0006b0cc       ?CreateItem@COlePasteSpecialDialog@@QAEHPAVCOleClientItem@@@Z 5f56c0cc f oledlgs1.obj
 0001:0006b32e       ?GetLastError@COleDialog@@QBEIXZ 5f56c32e f oledlgs1.obj
 0001:0006b34a       ?GetPathName@COleInsertDialog@@QBE?AVCString@@XZ 5f56c34a f oledlgs1.obj
 0001:0006b3f8       ?GetClassID@COleInsertDialog@@QBEABU_GUID@@XZ 5f56c3f8 f oledlgs1.obj
 0001:0006b429       ?GetIconicMetafile@COleInsertDialog@@QBEPAXXZ 5f56c429 f oledlgs1.obj
 0001:0006b45b       ?GetDrawAspect@COleInsertDialog@@QBE?AW4tagDVASPECT@@XZ 5f56c45b f oledlgs1.obj
 0001:0006b4a0       ?GetIconicMetafile@COleConvertDialog@@QBEPAXXZ 5f56c4a0 f oledlgs1.obj
 0001:0006b4d2       ?GetDrawAspect@COleConvertDialog@@QBE?AW4tagDVASPECT@@XZ 5f56c4d2 f oledlgs1.obj
 0001:0006b504       ?GetClassID@COleConvertDialog@@QBEABU_GUID@@XZ 5f56c504 f oledlgs1.obj
 0001:0006b535       ?GetIconicMetafile@COleChangeIconDialog@@QBEPAXXZ 5f56c535 f oledlgs1.obj
 0001:0006b567       ?GetPasteIndex@COlePasteSpecialDialog@@QBEHXZ 5f56c567 f oledlgs1.obj
 0001:0006b599       ?GetDrawAspect@COlePasteSpecialDialog@@QBE?AW4tagDVASPECT@@XZ 5f56c599 f oledlgs1.obj
 0001:0006b5de       ?GetIconicMetafile@COlePasteSpecialDialog@@QBEPAXXZ 5f56c5de f oledlgs1.obj
 0001:0006b610       ?GetSelectionType@COleBusyDialog@@QBEIXZ 5f56c610 f oledlgs1.obj
 0001:0006b642       ?IsValidSource@COleChangeSourceDialog@@QAEHXZ 5f56c642 f oledlgs1.obj
 0001:0006b661       ?GetDisplayName@COleChangeSourceDialog@@QAE?AVCString@@XZ 5f56c661 f oledlgs1.obj
 0001:0006b6d5       ?GetFileName@COleChangeSourceDialog@@QAE?AVCString@@XZ 5f56c6d5 f oledlgs1.obj
 0001:0006b753       ?GetItemName@COleChangeSourceDialog@@QAE?AVCString@@XZ 5f56c753 f oledlgs1.obj
 0001:0006b7d2       ?GetFromPrefix@COleChangeSourceDialog@@QAE?AVCString@@XZ 5f56c7d2 f oledlgs1.obj
 0001:0006b846       ?GetToPrefix@COleChangeSourceDialog@@QAE?AVCString@@XZ 5f56c846 f oledlgs1.obj
 0001:0006b8c0       ??0IOleUILinkInfoW@@QAE@XZ 5f56c8c0 f oledlgs1.obj
 0001:0006b8f0       ??0IOleUILinkContainerW@@QAE@XZ 5f56c8f0 f oledlgs1.obj
 0001:0006b920       ??_GCOleInsertDialog@@UAEPAXI@Z 5f56c920 f oledlgs1.obj
 0001:0006b920       ??_ECOleInsertDialog@@UAEPAXI@Z 5f56c920 f oledlgs1.obj
 0001:0006b960       ??1COleDialog@@UAE@XZ      5f56c960 f oledlgs1.obj
 0001:0006b9c0       ??1CCommonDialog@@UAE@XZ   5f56c9c0 f oledlgs1.obj
 0001:0006ba20       ??_ECOleConvertDialog@@UAEPAXI@Z 5f56ca20 f oledlgs1.obj
 0001:0006ba20       ??_GCOleConvertDialog@@UAEPAXI@Z 5f56ca20 f oledlgs1.obj
 0001:0006ba60       ??_ECOleChangeIconDialog@@UAEPAXI@Z 5f56ca60 f oledlgs1.obj
 0001:0006ba60       ??_GCOleChangeIconDialog@@UAEPAXI@Z 5f56ca60 f oledlgs1.obj
 0001:0006baa0       ??_ECOleLinksDialog@@UAEPAXI@Z 5f56caa0 f oledlgs1.obj
 0001:0006baa0       ??_GCOleLinksDialog@@UAEPAXI@Z 5f56caa0 f oledlgs1.obj
 0001:0006bae0       ??_ECOleUpdateDialog@@UAEPAXI@Z 5f56cae0 f oledlgs1.obj
 0001:0006bae0       ??_GCOleUpdateDialog@@UAEPAXI@Z 5f56cae0 f oledlgs1.obj
 0001:0006bb20       ??_ECOlePasteSpecialDialog@@UAEPAXI@Z 5f56cb20 f oledlgs1.obj
 0001:0006bb20       ??_GCOlePasteSpecialDialog@@UAEPAXI@Z 5f56cb20 f oledlgs1.obj
 0001:0006bb60       ?AfxOleHookProc@@YGIPAUHWND__@@IIJ@Z 5f56cb60 f oledlgs2.obj
 0001:0006bbd9       ??0COleDialog@@QAE@PAVCWnd@@@Z 5f56cbd9 f oledlgs2.obj
 0001:0006bc58       ?MapResult@COleDialog@@QAEHI@Z 5f56cc58 f oledlgs2.obj
 0001:0006bca6       ?Dump@COleDialog@@UBEXAAVCDumpContext@@@Z 5f56cca6 f oledlgs2.obj
 0001:0006bcf2       ??0COleBusyDialog@@QAE@PAUHTASK__@@HKPAVCWnd@@@Z 5f56ccf2 f oledlgs2.obj
 0001:0006bdc4       ??1COleBusyDialog@@UAE@XZ  5f56cdc4 f oledlgs2.obj
 0001:0006be2c       ?DoModal@COleBusyDialog@@UAEHXZ 5f56ce2c f oledlgs2.obj
 0001:0006bf21       ?Dump@COleBusyDialog@@UBEXAAVCDumpContext@@@Z 5f56cf21 f oledlgs2.obj
 0001:0006c080       ??_GCOleDialog@@UAEPAXI@Z  5f56d080 f oledlgs2.obj
 0001:0006c080       ??_ECOleDialog@@UAEPAXI@Z  5f56d080 f oledlgs2.obj
 0001:0006c0c0       ??_ECOleBusyDialog@@UAEPAXI@Z 5f56d0c0 f oledlgs2.obj
 0001:0006c0c0       ??_GCOleBusyDialog@@UAEPAXI@Z 5f56d0c0 f oledlgs2.obj
 0001:0006c100       ??0COlePropertiesDialog@@QAE@PAVCOleClientItem@@IIPAVCWnd@@@Z 5f56d100 f oledlgs3.obj
 0001:0006c35d       ?DoModal@COlePropertiesDialog@@UAEHXZ 5f56d35d f oledlgs3.obj
 0001:0006c450       ?OnInitDialog@COlePropertiesDialog@@UAEHXZ 5f56d450 f oledlgs3.obj
 0001:0006c491       ?AddRef@XOleUIObjInfo@COlePropertiesDialog@@UAGKXZ 5f56d491 f oledlgs3.obj
 0001:0006c4a5       ?Release@XOleUIObjInfo@COlePropertiesDialog@@UAGKXZ 5f56d4a5 f oledlgs3.obj
 0001:0006c4b9       ?QueryInterface@XOleUIObjInfo@COlePropertiesDialog@@UAGJABU_GUID@@PAPAX@Z 5f56d4b9 f oledlgs3.obj
 0001:0006c4d0       ?GetObjectInfo@XOleUIObjInfo@COlePropertiesDialog@@UAGJKPAKPAPAG111@Z 5f56d4d0 f oledlgs3.obj
 0001:0006c8b1       ?GetConvertInfo@XOleUIObjInfo@COlePropertiesDialog@@UAGJKPAU_GUID@@PAG0PAPAU3@PAI@Z 5f56d8b1 f oledlgs3.obj
 0001:0006c958       ?ConvertObject@XOleUIObjInfo@COlePropertiesDialog@@UAGJKABU_GUID@@@Z 5f56d958 f oledlgs3.obj
 0001:0006c9b7       ?GetViewInfo@XOleUIObjInfo@COlePropertiesDialog@@UAGJKPAPAXPAKPAH@Z 5f56d9b7 f oledlgs3.obj
 0001:0006ca28       ?SetViewInfo@XOleUIObjInfo@COlePropertiesDialog@@UAGJKPAXKHH@Z 5f56da28 f oledlgs3.obj
 0001:0006cb1c       ?OnApplyScale@COlePropertiesDialog@@UAEHPAVCOleClientItem@@HH@Z 5f56db1c f oledlgs3.obj
 0001:0006cb36       ?Dump@COlePropertiesDialog@@UBEXAAVCDumpContext@@@Z 5f56db36 f oledlgs3.obj
 0001:0006cb5a       ?AssertValid@COlePropertiesDialog@@UBEXXZ 5f56db5a f oledlgs3.obj
 0001:0006cc15       ??0COleChangeSourceDialog@@QAE@PAVCOleClientItem@@PAVCWnd@@@Z 5f56dc15 f oledlgs3.obj
 0001:0006cd19       ?DoModal@COleChangeSourceDialog@@UAEHXZ 5f56dd19 f oledlgs3.obj
 0001:0006cd99       ?PreInitDialog@COleChangeSourceDialog@@UAEXXZ 5f56dd99 f oledlgs3.obj
 0001:0006cdcc       ??1COleChangeSourceDialog@@UAE@XZ 5f56ddcc f oledlgs3.obj
 0001:0006ce64       ?Dump@COleChangeSourceDialog@@UBEXAAVCDumpContext@@@Z 5f56de64 f oledlgs3.obj
 0001:0006cfa2       ?AssertValid@COleChangeSourceDialog@@UBEXXZ 5f56dfa2 f oledlgs3.obj
 0001:0006d010       ??_GCOlePropertiesDialog@@UAEPAXI@Z 5f56e010 f oledlgs3.obj
 0001:0006d010       ??_ECOlePropertiesDialog@@UAEPAXI@Z 5f56e010 f oledlgs3.obj
 0001:0006d050       ??0XOleUIObjInfo@COlePropertiesDialog@@QAE@XZ 5f56e050 f oledlgs3.obj
 0001:0006d080       ??1COlePropertiesDialog@@UAE@XZ 5f56e080 f oledlgs3.obj
 0001:0006d0e0       ??0IOleUIObjInfoW@@QAE@XZ  5f56e0e0 f oledlgs3.obj
 0001:0006d110       ??_GCOleChangeSourceDialog@@UAEPAXI@Z 5f56e110 f oledlgs3.obj
 0001:0006d110       ??_ECOleChangeSourceDialog@@UAEPAXI@Z 5f56e110 f oledlgs3.obj
 0001:0006d150       ?ReportError@COleClientItem@@UBEHJ@Z 5f56e150 f oleui1.obj
 0001:0006d23c       ?DoVerb@COleClientItem@@UAEHJPAVCView@@PAUtagMSG@@@Z 5f56e23c f oleui1.obj
 0001:0006d3e1       ?OnCmdMsg@COleDocument@@MAEHIHPAXPAUAFX_CMDHANDLERINFO@@@Z 5f56e3e1 f oleui1.obj
 0001:0006d500       ?GetPrimarySelectedItem@COleDocument@@UAEPAVCOleClientItem@@PAVCView@@@Z 5f56e500 f oleui1.obj
 0001:0006d5c1       ?GetInPlaceActiveItem@COleDocument@@UAEPAVCOleClientItem@@PAVCWnd@@@Z 5f56e5c1 f oleui1.obj
 0001:0006d6d0       ?AfxOleSetEditMenu@@YGXPAVCOleClientItem@@PAVCMenu@@IIII@Z 5f56e6d0 f oleui2.obj
 0001:0006d7bd       ?OnUpdatePasteMenu@COleDocument@@IAEXPAVCCmdUI@@@Z 5f56e7bd f oleui2.obj
 0001:0006d7e5       ?OnUpdatePasteLinkMenu@COleDocument@@IAEXPAVCCmdUI@@@Z 5f56e7e5 f oleui2.obj
 0001:0006d80d       ?OnUpdateEditLinksMenu@COleDocument@@IAEXPAVCCmdUI@@@Z 5f56e80d f oleui2.obj
 0001:0006d882       ?OnEditLinks@COleDocument@@IAEXXZ 5f56e882 f oleui2.obj
 0001:0006d925       ?OnEditConvert@COleDocument@@IAEXXZ 5f56e925 f oleui2.obj
 0001:0006da05       ?OnUpdateEditChangeIcon@COleDocument@@IAEXPAVCCmdUI@@@Z 5f56ea05 f oleui2.obj
 0001:0006da55       ?OnEditChangeIcon@COleDocument@@IAEXXZ 5f56ea55 f oleui2.obj
 0001:0006db33       ?OnUpdateObjectVerbMenu@COleDocument@@IAEXPAVCCmdUI@@@Z 5f56eb33 f oleui2.obj
 0001:0006dc20       ??0COleDataObject@@QAE@XZ  5f56ec20 f oledobj1.obj
 0001:0006dc60       ?Attach@COleDataObject@@QAEXPAUIDataObject@@H@Z 5f56ec60 f oledobj1.obj
 0001:0006dcb0       ?Release@COleDataObject@@QAEXXZ 5f56ecb0 f oledobj1.obj
 0001:0006dd2b       ?Detach@COleDataObject@@QAEPAUIDataObject@@XZ 5f56ed2b f oledobj1.obj
 0001:0006dd67       ?GetIDataObject@COleDataObject@@QAEPAUIDataObject@@H@Z 5f56ed67 f oledobj1.obj
 0001:0006ddb2       ?BeginEnumFormats@COleDataObject@@QAEXXZ 5f56edb2 f oledobj1.obj
 0001:0006de80       ?GetNextFormat@COleDataObject@@QAEHPAUtagFORMATETC@@@Z 5f56ee80 f oledobj1.obj
 0001:0006df60       ?GetFileData@COleDataObject@@QAEPAVCFile@@GPAUtagFORMATETC@@@Z 5f56ef60 f oledobj1.obj
 0001:0006e325       ?GetGlobalData@COleDataObject@@QAEPAXGPAUtagFORMATETC@@@Z 5f56f325 f oledobj1.obj
 0001:0006e4ea       ?GetData@COleDataObject@@QAEHGPAUtagSTGMEDIUM@@PAUtagFORMATETC@@@Z 5f56f4ea f oledobj1.obj
 0001:0006e5c0       ?IsDataAvailable@COleDataObject@@QAEHGPAUtagFORMATETC@@@Z 5f56f5c0 f oledobj1.obj
 0001:0006e695       ?AttachClipboard@COleDataObject@@QAEHXZ 5f56f695 f oledobj1.obj
 0001:0006e730       ?EnsureClipboardObject@COleDataObject@@QAEXXZ 5f56f730 f oledobj1.obj
 0001:0006e7c0       ??0COleDataSource@@QAE@XZ  5f56f7c0 f oledobj2.obj
 0001:0006e862       ??1COleDataSource@@UAE@XZ  5f56f862 f oledobj2.obj
 0001:0006e8f8       ?Empty@COleDataSource@@QAEXXZ 5f56f8f8 f oledobj2.obj
 0001:0006ea56       ?SetClipboard@COleDataSource@@QAEXXZ 5f56fa56 f oledobj2.obj
 0001:0006eaf1       ?FlushClipboard@COleDataSource@@SGXXZ 5f56faf1 f oledobj2.obj
 0001:0006eb36       ?GetClipboardOwner@COleDataSource@@SGPAV1@XZ 5f56fb36 f oledobj2.obj
 0001:0006ebb9       ?GetCacheEntry@COleDataSource@@IAEPAUAFX_DATACACHE_ENTRY@@PAUtagFORMATETC@@W4tagDATADIR@@@Z 5f56fbb9 f oledobj2.obj
 0001:0006ed54       ?CacheGlobalData@COleDataSource@@QAEXGPAXPAUtagFORMATETC@@@Z 5f56fd54 f oledobj2.obj
 0001:0006ee11       ?CacheData@COleDataSource@@QAEXGPAUtagSTGMEDIUM@@PAUtagFORMATETC@@@Z 5f56fe11 f oledobj2.obj
 0001:0006ef5b       ?DelayRenderFileData@COleDataSource@@QAEXGPAUtagFORMATETC@@@Z 5f56ff5b f oledobj2.obj
 0001:0006eff4       ?DelayRenderData@COleDataSource@@QAEXGPAUtagFORMATETC@@@Z 5f56fff4 f oledobj2.obj
 0001:0006f0a6       ?DelaySetData@COleDataSource@@QAEXGPAUtagFORMATETC@@@Z 5f5700a6 f oledobj2.obj
 0001:0006f138       ?Lookup@COleDataSource@@IBEPAUAFX_DATACACHE_ENTRY@@PAUtagFORMATETC@@W4tagDATADIR@@@Z 5f570138 f oledobj2.obj
 0001:0006f1f4       ?OnRenderGlobalData@COleDataSource@@UAEHPAUtagFORMATETC@@PAPAX@Z 5f5701f4 f oledobj2.obj
 0001:0006f20e       ?OnRenderFileData@COleDataSource@@UAEHPAUtagFORMATETC@@PAVCFile@@@Z 5f57020e f oledobj2.obj
 0001:0006f228       ?OnRenderData@COleDataSource@@UAEHPAUtagFORMATETC@@PAUtagSTGMEDIUM@@@Z 5f570228 f oledobj2.obj
 0001:0006f4f3       ?OnSetData@COleDataSource@@UAEHPAUtagFORMATETC@@PAUtagSTGMEDIUM@@H@Z 5f5704f3 f oledobj2.obj
 0001:0006f50d       ?_GetBaseInterfaceMap@CEnumFormatEtc@@KGPBUAFX_INTERFACEMAP@@XZ 5f57050d f oledobj2.obj
 0001:0006f522       ?GetInterfaceMap@CEnumFormatEtc@@MBEPBUAFX_INTERFACEMAP@@XZ 5f570522 f oledobj2.obj
 0001:0006f53d       ??0CEnumFormatEtc@@QAE@XZ  5f57053d f oledobj2.obj
 0001:0006f5be       ??1CEnumFormatEtc@@UAE@XZ  5f5705be f oledobj2.obj
 0001:0006f676       ?OnNext@CEnumFormatEtc@@MAEHPAX@Z 5f570676 f oledobj2.obj
 0001:0006f6e5       ?AddFormat@CEnumFormatEtc@@QAEXPBUtagFORMATETC@@@Z 5f5706e5 f oledobj2.obj
 0001:0006f82b       ?_GetBaseInterfaceMap@COleDataSource@@KGPBUAFX_INTERFACEMAP@@XZ 5f57082b f oledobj2.obj
 0001:0006f840       ?GetInterfaceMap@COleDataSource@@MBEPBUAFX_INTERFACEMAP@@XZ 5f570840 f oledobj2.obj
 0001:0006f85b       ?AddRef@XDataObject@COleDataSource@@UAGKXZ 5f57085b f oledobj2.obj
 0001:0006f881       ?Release@XDataObject@COleDataSource@@UAGKXZ 5f570881 f oledobj2.obj
 0001:0006f8a7       ?QueryInterface@XDataObject@COleDataSource@@UAGJABU_GUID@@PAPAX@Z 5f5708a7 f oledobj2.obj
 0001:0006f8d5       ?GetData@XDataObject@COleDataSource@@UAGJPAUtagFORMATETC@@PAUtagSTGMEDIUM@@@Z 5f5708d5 f oledobj2.obj
 0001:0006fa92       ?GetDataHere@XDataObject@COleDataSource@@UAGJPAUtagFORMATETC@@PAUtagSTGMEDIUM@@@Z 5f570a92 f oledobj2.obj
 0001:0006fc9c       ?QueryGetData@XDataObject@COleDataSource@@UAGJPAUtagFORMATETC@@@Z 5f570c9c f oledobj2.obj
 0001:0006fce1       ?GetCanonicalFormatEtc@XDataObject@COleDataSource@@UAGJPAUtagFORMATETC@@0@Z 5f570ce1 f oledobj2.obj
 0001:0006fcf8       ?SetData@XDataObject@COleDataSource@@UAGJPAUtagFORMATETC@@PAUtagSTGMEDIUM@@H@Z 5f570cf8 f oledobj2.obj
 0001:0006fe95       ?EnumFormatEtc@XDataObject@COleDataSource@@UAGJKPAPAUIEnumFORMATETC@@@Z 5f570e95 f oledobj2.obj
 0001:0006ffef       ?DAdvise@XDataObject@COleDataSource@@UAGJPAUtagFORMATETC@@KPAUIAdviseSink@@PAK@Z 5f570fef f oledobj2.obj
 0001:0007000f       ?DUnadvise@XDataObject@COleDataSource@@UAGJK@Z 5f57100f f oledobj2.obj
 0001:00070026       ?EnumDAdvise@XDataObject@COleDataSource@@UAGJPAPAUIEnumSTATDATA@@@Z 5f571026 f oledobj2.obj
 0001:00070046       ?AssertValid@COleDataSource@@UBEXXZ 5f571046 f oledobj2.obj
 0001:000700c0       ?Dump@COleDataSource@@UBEXAAVCDumpContext@@@Z 5f5710c0 f oledobj2.obj
 0001:00070270       ??0XDataObject@COleDataSource@@QAE@XZ 5f571270 f oledobj2.obj
 0001:000702a0       ??0IDataObject@@QAE@XZ     5f5712a0 f oledobj2.obj
 0001:000702d0       ??_GCEnumFormatEtc@@UAEPAXI@Z 5f5712d0 f oledobj2.obj
 0001:000702d0       ??_ECEnumFormatEtc@@UAEPAXI@Z 5f5712d0 f oledobj2.obj
 0001:00070310       ??0CEnumArray@@QAE@IPBXIH@Z 5f571310 f oleenum.obj
 0001:000703d4       ??1CEnumArray@@UAE@XZ      5f5713d4 f oleenum.obj
 0001:000704d0       ?OnNext@CEnumArray@@MAEHPAX@Z 5f5714d0 f oleenum.obj
 0001:00070543       ?OnSkip@CEnumArray@@MAEHXZ 5f571543 f oleenum.obj
 0001:000705a6       ?OnReset@CEnumArray@@MAEXXZ 5f5715a6 f oleenum.obj
 0001:000705d6       ?OnClone@CEnumArray@@MAEPAV1@XZ 5f5715d6 f oleenum.obj
 0001:000706a5       ?AddRef@XEnumVOID@CEnumArray@@UAGKXZ 5f5716a5 f oleenum.obj
 0001:000706cb       ?Release@XEnumVOID@CEnumArray@@UAGKXZ 5f5716cb f oleenum.obj
 0001:000706f1       ?QueryInterface@XEnumVOID@CEnumArray@@UAGJABU_GUID@@PAPAX@Z 5f5716f1 f oleenum.obj
 0001:0007071f       ?Next@XEnumVOID@CEnumArray@@UAGJKPAXPAK@Z 5f57171f f oleenum.obj
 0001:000708de       ?Skip@XEnumVOID@CEnumArray@@UAGJK@Z 5f5718de f oleenum.obj
 0001:00070a24       ?Reset@XEnumVOID@CEnumArray@@UAGJXZ 5f571a24 f oleenum.obj
 0001:00070abe       ?Clone@XEnumVOID@CEnumArray@@UAGJPAPAUIEnumVOID@@@Z 5f571abe f oleenum.obj
 0001:00070c20       ??_GCEnumArray@@UAEPAXI@Z  5f571c20 f oleenum.obj
 0001:00070c20       ??_ECEnumArray@@UAEPAXI@Z  5f571c20 f oleenum.obj
 0001:00070c60       ??0XEnumVOID@CEnumArray@@QAE@XZ 5f571c60 f oleenum.obj
 0001:00070c90       ??0IEnumVOID@@QAE@XZ       5f571c90 f oleenum.obj
 0001:00070cc0       ?_GetBaseInterfaceMap@COleObjectFactory@@KGPBUAFX_INTERFACEMAP@@XZ 5f571cc0 f olefact.obj
 0001:00070cd5       ?GetInterfaceMap@COleObjectFactory@@MBEPBUAFX_INTERFACEMAP@@XZ 5f571cd5 f olefact.obj
 0001:00070cf0       ?UpdateRegistry@COleObjectFactory@@QAEXPBG@Z 5f571cf0 f olefact.obj
 0001:00070d94       ?UpdateRegistryAll@COleObjectFactory@@SGHH@Z 5f571d94 f olefact.obj
 0001:00070ea0       ?OnCreateObject@COleObjectFactory@@MAEPAVCCmdTarget@@XZ 5f571ea0 f olefact.obj
 0001:00070f5a       ?IsLicenseValid@COleObjectFactory@@QAEHXZ 5f571f5a f olefact.obj
 0001:00070fa2       ?UpdateRegistry@COleObjectFactory@@MAEHH@Z 5f571fa2 f olefact.obj
 0001:00070fd3       ?VerifyUserLicense@COleObjectFactory@@MAEHXZ 5f571fd3 f olefact.obj
 0001:00070fee       ?GetLicenseKey@COleObjectFactory@@MAEHKPAPAG@Z 5f571fee f olefact.obj
 0001:00071008       ?VerifyLicenseKey@COleObjectFactory@@MAEHPAG@Z 5f572008 f olefact.obj
 0001:000710c3       ?AddRef@XClassFactory@COleObjectFactory@@UAGKXZ 5f5720c3 f olefact.obj
 0001:000710e9       ?Release@XClassFactory@COleObjectFactory@@UAGKXZ 5f5720e9 f olefact.obj
 0001:0007110f       ?QueryInterface@XClassFactory@COleObjectFactory@@UAGJABU_GUID@@PAPAX@Z 5f57210f f olefact.obj
 0001:0007113d       ?CreateInstance@XClassFactory@COleObjectFactory@@UAGJPAUIUnknown@@ABU_GUID@@PAPAX@Z 5f57213d f olefact.obj
 0001:0007116b       ?LockServer@XClassFactory@COleObjectFactory@@UAGJH@Z 5f57216b f olefact.obj
 0001:00071272       ?GetLicInfo@XClassFactory@COleObjectFactory@@UAGJPAUtagLICINFO@@@Z 5f572272 f olefact.obj
 0001:00071341       ?RequestLicKey@XClassFactory@COleObjectFactory@@UAGJKPAPAG@Z 5f572341 f olefact.obj
 0001:00071477       ?CreateInstanceLic@XClassFactory@COleObjectFactory@@UAGJPAUIUnknown@@0ABU_GUID@@PAGPAPAX@Z 5f572477 f olefact.obj
 0001:00071721       ?AssertValid@COleObjectFactory@@UBEXXZ 5f572721 f olefact.obj
 0001:000717f4       ?Dump@COleObjectFactory@@UBEXAAVCDumpContext@@@Z 5f5727f4 f olefact.obj
 0001:00071950       ??0COleCntrFrameWnd@@QAE@PAVCOleIPFrameWnd@@@Z 5f572950 f oleipfrm.obj
 0001:000719d5       ??1COleCntrFrameWnd@@UAE@XZ 5f5729d5 f oleipfrm.obj
 0001:00071a4d       ?RecalcLayout@COleCntrFrameWnd@@UAEXH@Z 5f572a4d f oleipfrm.obj
 0001:00071b9b       ?OnIdleUpdateCmdUI@COleCntrFrameWnd@@QAEXXZ 5f572b9b f oleipfrm.obj
 0001:00071c55       ?OnCmdMsg@COleCntrFrameWnd@@UAEHIHPAXPAUAFX_CMDHANDLERINFO@@@Z 5f572c55 f oleipfrm.obj
 0001:00071caa       ?PostNcDestroy@COleCntrFrameWnd@@MAEXXZ 5f572caa f oleipfrm.obj
 0001:00071cc0       ?AssertValid@COleCntrFrameWnd@@UBEXXZ 5f572cc0 f oleipfrm.obj
 0001:00071d0d       ?_GetBaseMessageMap@COleIPFrameWnd@@KGPBUAFX_MSGMAP@@XZ 5f572d0d f oleipfrm.obj
 0001:00071d22       ?GetMessageMap@COleIPFrameWnd@@MBEPBUAFX_MSGMAP@@XZ 5f572d22 f oleipfrm.obj
 0001:00071d3d       ??0COleIPFrameWnd@@QAE@XZ  5f572d3d f oleipfrm.obj
 0001:00071e8e       ??1COleIPFrameWnd@@UAE@XZ  5f572e8e f oleipfrm.obj
 0001:00071fef       ?OnCreate@COleIPFrameWnd@@IAEHPAUtagCREATESTRUCTW@@@Z 5f572fef f oleipfrm.obj
 0001:0007207b       ?OnDestroy@COleIPFrameWnd@@IAEXXZ 5f57307b f oleipfrm.obj
 0001:00072133       ?OnCreateControlBars@COleIPFrameWnd@@UAEHPAVCWnd@@0@Z 5f573133 f oleipfrm.obj
 0001:00072172       ?OnCreateControlBars@COleIPFrameWnd@@UAEHPAVCFrameWnd@@0@Z 5f573172 f oleipfrm.obj
 0001:000721a0       ?OnIdleUpdateCmdUI@COleIPFrameWnd@@IAEXXZ 5f5731a0 f oleipfrm.obj
 0001:000721f2       ?OnWindowPosChanging@COleIPFrameWnd@@IAEXPAUtagWINDOWPOS@@@Z 5f5731f2 f oleipfrm.obj
 0001:0007224c       ?OnSetMessageString@COleIPFrameWnd@@UAEJIJ@Z 5f57324c f oleipfrm.obj
 0001:0007238f       ?LoadFrame@COleIPFrameWnd@@UAEHIKPAVCWnd@@PAUCCreateContext@@@Z 5f57338f f oleipfrm.obj
 0001:0007248e       ?OnSize@COleIPFrameWnd@@IAEXIHH@Z 5f57348e f oleipfrm.obj
 0001:000724a6       ?OnResizeChild@COleIPFrameWnd@@IAEJIJ@Z 5f5734a6 f oleipfrm.obj
 0001:0007261c       ?OnRequestPositionChange@COleIPFrameWnd@@MAEXPBUtagRECT@@@Z 5f57361c f oleipfrm.obj
 0001:000726a6       ?OnRecalcParent@COleIPFrameWnd@@IAEJIJ@Z 5f5736a6 f oleipfrm.obj
 0001:0007270e       ?RecalcLayout@COleIPFrameWnd@@UAEXH@Z 5f57370e f oleipfrm.obj
 0001:00072938       ?RepositionFrame@COleIPFrameWnd@@UAEXPBUtagRECT@@0@Z 5f573938 f oleipfrm.obj
 0001:00072a0d       ?PreTranslateMessage@COleIPFrameWnd@@UAEHPAUtagMSG@@@Z 5f573a0d f oleipfrm.obj
 0001:00072aee       ?OnUpdateControlBarMenu@COleIPFrameWnd@@IAEXPAVCCmdUI@@@Z 5f573aee f oleipfrm.obj
 0001:00072bbe       ?OnBarCheck@COleIPFrameWnd@@IAEHI@Z 5f573bbe f oleipfrm.obj
 0001:00072c89       ?OnContextHelp@COleIPFrameWnd@@IAEXXZ 5f573c89 f oleipfrm.obj
 0001:00072dfa       ?GetInPlaceMenu@COleIPFrameWnd@@MAEPAUHMENU__@@XZ 5f573dfa f oleipfrm.obj
 0001:00072e58       ?BuildSharedMenu@COleIPFrameWnd@@MAEHXZ 5f573e58 f oleipfrm.obj
 0001:00073023       ?DestroySharedMenu@COleIPFrameWnd@@MAEXXZ 5f574023 f oleipfrm.obj
 0001:0007317f       ?AssertValid@COleIPFrameWnd@@UBEXXZ 5f57417f f oleipfrm.obj
 0001:000731dd       ?Dump@COleIPFrameWnd@@UBEXAAVCDumpContext@@@Z 5f5741dd f oleipfrm.obj
 0001:000732e0       ??_GCOleCntrFrameWnd@@UAEPAXI@Z 5f5742e0 f oleipfrm.obj
 0001:000732e0       ??_ECOleCntrFrameWnd@@UAEPAXI@Z 5f5742e0 f oleipfrm.obj
 0001:00073320       ??0COleLinkingDoc@@QAE@XZ  5f574320 f olelink.obj
 0001:0007342a       ??1COleLinkingDoc@@UAE@XZ  5f57442a f olelink.obj
 0001:00073523       ?GetMoniker@COleLinkingDoc@@UAEPAUIMoniker@@W4tagOLEGETMONIKER@@@Z 5f574523 f olelink.obj
 0001:0007359e       ?Register@COleLinkingDoc@@QAEHPAVCOleObjectFactory@@PBG@Z 5f57459e f olelink.obj
 0001:000738c9       ?Revoke@COleLinkingDoc@@QAEXXZ 5f5748c9 f olelink.obj
 0001:00073996       ?OnNewDocument@COleLinkingDoc@@UAEHXZ 5f574996 f olelink.obj
 0001:000739fc       ?OnOpenDocument@COleLinkingDoc@@UAEHPBG@Z 5f5749fc f olelink.obj
 0001:00073a8b       ?OnSaveDocument@COleLinkingDoc@@UAEHPBG@Z 5f574a8b f olelink.obj
 0001:00073b22       ?OnCloseDocument@COleLinkingDoc@@UAEXXZ 5f574b22 f olelink.obj
 0001:00073bea       ?UpdateVisibleLock@COleLinkingDoc@@IAEXHH@Z 5f574bea f olelink.obj
 0001:00073c53       ?OnShowViews@COleLinkingDoc@@MAEXH@Z 5f574c53 f olelink.obj
 0001:00073c83       ?SaveToStorage@COleLinkingDoc@@MAEXPAVCObject@@@Z 5f574c83 f olelink.obj
 0001:00073d28       ?RegisterIfServerAttached@COleLinkingDoc@@MAEHPBGH@Z 5f574d28 f olelink.obj
 0001:00073e3b       ?GetContainer@COleLinkingDoc@@UAEPAUIOleItemContainer@@XZ 5f574e3b f olelink.obj
 0001:00073e78       ?OnGetLinkedItem@COleLinkingDoc@@MAEPAVCOleServerItem@@PBG@Z 5f574e78 f olelink.obj
 0001:00073ea5       ?OnFindEmbeddedItem@COleLinkingDoc@@MAEPAVCOleClientItem@@PBG@Z 5f574ea5 f olelink.obj
 0001:00073f87       ?LockExternal@COleLinkingDoc@@IAEXHH@Z 5f574f87 f olelink.obj
 0001:00073ffc       ?ReportSaveLoadException@COleLinkingDoc@@UAEXPBGPAVCException@@HI@Z 5f574ffc f olelink.obj
 0001:00074053       ?EndDeferErrors@COleLinkingDoc@@QAEJJ@Z 5f575053 f olelink.obj
 0001:0007410b       ?_GetBaseInterfaceMap@COleLinkingDoc@@KGPBUAFX_INTERFACEMAP@@XZ 5f57510b f olelink.obj
 0001:00074120       ?GetInterfaceMap@COleLinkingDoc@@MBEPBUAFX_INTERFACEMAP@@XZ 5f575120 f olelink.obj
 0001:0007413b       ?AddRef@XPersistFile@COleLinkingDoc@@UAGKXZ 5f57513b f olelink.obj
 0001:00074163       ?Release@XPersistFile@COleLinkingDoc@@UAGKXZ 5f575163 f olelink.obj
 0001:0007418b       ?QueryInterface@XPersistFile@COleLinkingDoc@@UAGJABU_GUID@@PAPAX@Z 5f57518b f olelink.obj
 0001:000741bb       ?GetClassID@XPersistFile@COleLinkingDoc@@UAGJPAU_GUID@@@Z 5f5751bb f olelink.obj
 0001:00074255       ?IsDirty@XPersistFile@COleLinkingDoc@@UAGJXZ 5f575255 f olelink.obj
 0001:000742f2       ?Load@XPersistFile@COleLinkingDoc@@UAGJPBGK@Z 5f5752f2 f olelink.obj
 0001:000744ae       ?Save@XPersistFile@COleLinkingDoc@@UAGJPBGH@Z 5f5754ae f olelink.obj
 0001:0007463c       ?SaveCompleted@XPersistFile@COleLinkingDoc@@UAGJPBG@Z 5f57563c f olelink.obj
 0001:00074753       ?GetCurFile@XPersistFile@COleLinkingDoc@@UAGJPAPAG@Z 5f575753 f olelink.obj
 0001:0007480b       ?AddRef@XOleItemContainer@COleLinkingDoc@@UAGKXZ 5f57580b f olelink.obj
 0001:00074833       ?Release@XOleItemContainer@COleLinkingDoc@@UAGKXZ 5f575833 f olelink.obj
 0001:0007485b       ?QueryInterface@XOleItemContainer@COleLinkingDoc@@UAGJABU_GUID@@PAPAX@Z 5f57585b f olelink.obj
 0001:0007488b       ?EnumObjects@XOleItemContainer@COleLinkingDoc@@UAGJKPAPAUIEnumUnknown@@@Z 5f57588b f olelink.obj
 0001:000748ab       ?ParseDisplayName@XOleItemContainer@COleLinkingDoc@@UAGJPAUIBindCtx@@PAGPAKPAPAUIMoniker@@@Z 5f5758ab f olelink.obj
 0001:00074ab7       ?LockContainer@XOleItemContainer@COleLinkingDoc@@UAGJH@Z 5f575ab7 f olelink.obj
 0001:00074ae7       ?GetObjectW@XOleItemContainer@COleLinkingDoc@@UAGJPAGKPAUIBindCtx@@ABU_GUID@@PAPAX@Z 5f575ae7 f olelink.obj
 0001:00074ce3       ?GetObjectStorage@XOleItemContainer@COleLinkingDoc@@UAGJPAGPAUIBindCtx@@ABU_GUID@@PAPAX@Z 5f575ce3 f olelink.obj
 0001:00074e38       ?IsRunning@XOleItemContainer@COleLinkingDoc@@UAGJPAG@Z 5f575e38 f olelink.obj
 0001:00074fda       ?AssertValid@COleLinkingDoc@@UBEXXZ 5f575fda f olelink.obj
 0001:0007501f       ?Dump@COleLinkingDoc@@UBEXAAVCDumpContext@@@Z 5f57601f f olelink.obj
 0001:000750d0       ??_ECOleLinkingDoc@@UAEPAXI@Z 5f5760d0 f olelink.obj
 0001:000750d0       ??_GCOleLinkingDoc@@UAEPAXI@Z 5f5760d0 f olelink.obj
 0001:00075110       ??0XPersistFile@COleLinkingDoc@@QAE@XZ 5f576110 f olelink.obj
 0001:00075140       ??0XOleItemContainer@COleLinkingDoc@@QAE@XZ 5f576140 f olelink.obj
 0001:00075170       ??0IPersistFile@@QAE@XZ    5f576170 f olelink.obj
 0001:000751a0       ??0IOleItemContainer@@QAE@XZ 5f5761a0 f olelink.obj
 0001:000751d0       ??0IPersist@@QAE@XZ        5f5761d0 f olelink.obj
 0001:00075200       ??0IOleContainer@@QAE@XZ   5f576200 f olelink.obj
 0001:00075230       ??0IParseDisplayName@@QAE@XZ 5f576230 f olelink.obj
 0001:00075260       ??0COleTemplateServer@@QAE@XZ 5f576260 f oletsvr.obj
 0001:000752e4       ?Register@COleTemplateServer@@UAEHXZ 5f5762e4 f oletsvr.obj
 0001:00075302       ?ConnectTemplate@COleTemplateServer@@QAEXABU_GUID@@PAVCDocTemplate@@H@Z 5f576302 f oletsvr.obj
 0001:000753bb       ?UpdateRegistry@COleTemplateServer@@QAEXW4OLE_APPTYPE@@PAPBG1@Z 5f5763bb f oletsvr.obj
 0001:0007567d       ?OnCreateObject@COleTemplateServer@@MAEPAVCCmdTarget@@XZ 5f57667d f oletsvr.obj
 0001:00075740       ?AfxDllGetClassObject@@YGJABU_GUID@@0PAPAX@Z 5f576740 f oledll.obj
 0001:00075901       ?AfxDllCanUnloadNow@@YGJXZ 5f576901 f oledll.obj
 0001:00075a30       ??0COleDropSource@@QAE@XZ  5f576a30 f oledrop1.obj
 0001:00075b39       ?QueryContinueDrag@COleDropSource@@UAEJHK@Z 5f576b39 f oledrop1.obj
 0001:00075bc0       ?GiveFeedback@COleDropSource@@UAEJK@Z 5f576bc0 f oledrop1.obj
 0001:00075c01       ?OnBeginDrag@COleDropSource@@UAEHPAVCWnd@@@Z 5f576c01 f oledrop1.obj
 0001:00075dba       ?_GetBaseInterfaceMap@COleDropSource@@KGPBUAFX_INTERFACEMAP@@XZ 5f576dba f oledrop1.obj
 0001:00075dcf       ?GetInterfaceMap@COleDropSource@@MBEPBUAFX_INTERFACEMAP@@XZ 5f576dcf f oledrop1.obj
 0001:00075dea       ?AddRef@XDropSource@COleDropSource@@UAGKXZ 5f576dea f oledrop1.obj
 0001:00075e10       ?Release@XDropSource@COleDropSource@@UAGKXZ 5f576e10 f oledrop1.obj
 0001:00075e36       ?QueryInterface@XDropSource@COleDropSource@@UAGJABU_GUID@@PAPAX@Z 5f576e36 f oledrop1.obj
 0001:00075e64       ?QueryContinueDrag@XDropSource@COleDropSource@@UAGJHK@Z 5f576e64 f oledrop1.obj
 0001:00075e95       ?GiveFeedback@XDropSource@COleDropSource@@UAGJK@Z 5f576e95 f oledrop1.obj
 0001:00075f2f       ?DoDragDrop@COleDataSource@@QAEKKPBUtagRECT@@PAVCOleDropSource@@@Z 5f576f2f f oledrop1.obj
 0001:0007614e       ?Dump@COleDropSource@@UBEXAAVCDumpContext@@@Z 5f57714e f oledrop1.obj
 0001:00076210       ??0XDropSource@COleDropSource@@QAE@XZ 5f577210 f oledrop1.obj
 0001:00076240       ??0IDropSource@@QAE@XZ     5f577240 f oledrop1.obj
 0001:00076270       ??0COleDropTarget@@QAE@XZ  5f577270 f oledrop2.obj
 0001:00076382       ??1COleDropTarget@@UAE@XZ  5f577382 f oledrop2.obj
 0001:00076433       ?Register@COleDropTarget@@QAEHPAVCWnd@@@Z 5f577433 f oledrop2.obj
 0001:0007654d       ?Revoke@COleDropTarget@@UAEXXZ 5f57754d f oledrop2.obj
 0001:00076614       ?OnDragScroll@COleDropTarget@@UAEKPAVCWnd@@KVCPoint@@@Z 5f577614 f oledrop2.obj
 0001:000769e9       ?OnDragEnter@COleDropTarget@@UAEKPAVCWnd@@PAVCOleDataObject@@KVCPoint@@@Z 5f5779e9 f oledrop2.obj
 0001:00076a68       ?OnDragOver@COleDropTarget@@UAEKPAVCWnd@@PAVCOleDataObject@@KVCPoint@@@Z 5f577a68 f oledrop2.obj
 0001:00076ae7       ?OnDrop@COleDropTarget@@UAEHPAVCWnd@@PAVCOleDataObject@@KVCPoint@@@Z 5f577ae7 f oledrop2.obj
 0001:00076b66       ?OnDropEx@COleDropTarget@@UAEKPAVCWnd@@PAVCOleDataObject@@KKVCPoint@@@Z 5f577b66 f oledrop2.obj
 0001:00076bec       ?OnDragLeave@COleDropTarget@@UAEXPAVCWnd@@@Z 5f577bec f oledrop2.obj
 0001:00076c59       ?_GetBaseInterfaceMap@COleDropTarget@@KGPBUAFX_INTERFACEMAP@@XZ 5f577c59 f oledrop2.obj
 0001:00076c6e       ?GetInterfaceMap@COleDropTarget@@MBEPBUAFX_INTERFACEMAP@@XZ 5f577c6e f oledrop2.obj
 0001:00076c89       ?AddRef@XDropTarget@COleDropTarget@@UAGKXZ 5f577c89 f oledrop2.obj
 0001:00076caf       ?Release@XDropTarget@COleDropTarget@@UAGKXZ 5f577caf f oledrop2.obj
 0001:00076cd5       ?QueryInterface@XDropTarget@COleDropTarget@@UAGJABU_GUID@@PAPAX@Z 5f577cd5 f oledrop2.obj
 0001:00076d03       ?DragEnter@XDropTarget@COleDropTarget@@UAGJPAUIDataObject@@KU_POINTL@@PAK@Z 5f577d03 f oledrop2.obj
 0001:00076ff8       ?DragOver@XDropTarget@COleDropTarget@@UAGJKU_POINTL@@PAK@Z 5f577ff8 f oledrop2.obj
 0001:000771f8       ?DragLeave@XDropTarget@COleDropTarget@@UAGJXZ 5f5781f8 f oledrop2.obj
 0001:0007731a       ?Drop@XDropTarget@COleDropTarget@@UAGJPAUIDataObject@@KU_POINTL@@PAK@Z 5f57831a f oledrop2.obj
 0001:000775a8       ?AssertValid@COleDropTarget@@UBEXXZ 5f5785a8 f oledrop2.obj
 0001:000775f3       ?Dump@COleDropTarget@@UBEXAAVCDumpContext@@@Z 5f5785f3 f oledrop2.obj
 0001:00077690       ??0XDropTarget@COleDropTarget@@QAE@XZ 5f578690 f oledrop2.obj
 0001:000776c0       ??0IDropTarget@@QAE@XZ     5f5786c0 f oledrop2.obj
 0001:000776f0       ?BeginBusyState@COleMessageFilter@@UAEXXZ 5f5786f0 f olemsgf.obj
 0001:0007771c       ?EndBusyState@COleMessageFilter@@UAEXXZ 5f57871c f olemsgf.obj
 0001:00077755       ?OnMessagePending@COleMessageFilter@@UAEHPBUtagMSG@@@Z 5f578755 f olemsgf.obj
 0001:000777a7       ?IsSignificantMessage@COleMessageFilter@@UAEHPAUtagMSG@@@Z 5f5787a7 f olemsgf.obj
 0001:000778a7       ?OnBusyDialog@COleMessageFilter@@UAEHPAUHTASK__@@@Z 5f5788a7 f olemsgf.obj
 0001:000779b2       ?OnNotRespondingDialog@COleMessageFilter@@UAEHPAUHTASK__@@@Z 5f5789b2 f olemsgf.obj
 0001:00077abd       ?_GetBaseInterfaceMap@COleMessageFilter@@KGPBUAFX_INTERFACEMAP@@XZ 5f578abd f olemsgf.obj
 0001:00077ad2       ?GetInterfaceMap@COleMessageFilter@@MBEPBUAFX_INTERFACEMAP@@XZ 5f578ad2 f olemsgf.obj
 0001:00077aed       ?AddRef@XMessageFilter@COleMessageFilter@@UAGKXZ 5f578aed f olemsgf.obj
 0001:00077b13       ?Release@XMessageFilter@COleMessageFilter@@UAGKXZ 5f578b13 f olemsgf.obj
 0001:00077b39       ?QueryInterface@XMessageFilter@COleMessageFilter@@UAGJABU_GUID@@PAPAX@Z 5f578b39 f olemsgf.obj
 0001:00077b67       ?HandleInComingCall@XMessageFilter@COleMessageFilter@@UAGKKPAUHTASK__@@KPAUtagINTERFACEINFO@@@Z 5f578b67 f olemsgf.obj
 0001:00077c04       ?RetryRejectedCall@XMessageFilter@COleMessageFilter@@UAGKPAUHTASK__@@KK@Z 5f578c04 f olemsgf.obj
 0001:00077d62       ?MessagePending@XMessageFilter@COleMessageFilter@@UAGKPAUHTASK__@@KK@Z 5f578d62 f olemsgf.obj
 0001:00077f0a       ?AssertValid@COleMessageFilter@@UBEXXZ 5f578f0a f olemsgf.obj
 0001:00077f28       ?Dump@COleMessageFilter@@UBEXAAVCDumpContext@@@Z 5f578f28 f olemsgf.obj
 0001:00078040       ??0COleServerDoc@@QAE@XZ   5f579040 f olesvr1.obj
 0001:0007818b       ??1COleServerDoc@@UAE@XZ   5f57918b f olesvr1.obj
 0001:00078345       ?DeleteContents@COleServerDoc@@UAEXXZ 5f579345 f olesvr1.obj
 0001:00078435       ?GetEmbeddedItem@COleServerDoc@@QAEPAVCOleServerItem@@XZ 5f579435 f olesvr1.obj
 0001:0007849f       ?GetDocObjectServer@COleServerDoc@@MAEPAVCDocObjectServer@@PAUIOleDocumentSite@@@Z 5f57949f f olesvr1.obj
 0001:000784b9       ?OnExecOleCmd@COleServerDoc@@MAEJPBU_GUID@@KKPAUtagVARIANT@@1@Z 5f5794b9 f olesvr1.obj
 0001:000784d6       ?GetInterfaceHook@COleServerDoc@@MAEPAUIUnknown@@PBX@Z 5f5794d6 f olesvr1.obj
 0001:000785a7       ?ActivateDocObject@COleServerDoc@@QAEXXZ 5f5795a7 f olesvr1.obj
 0001:000785db       ?NotifyRename@COleServerDoc@@QAEXPBG@Z 5f5795db f olesvr1.obj
 0001:000786c6       ?NotifyAllItems@COleServerDoc@@IAEXW4OLE_NOTIFICATION@@K@Z 5f5796c6 f olesvr1.obj
 0001:00078730       ?UpdateAllItems@COleServerDoc@@QAEXPAVCOleServerItem@@JPAVCObject@@W4tagDVASPECT@@@Z 5f579730 f olesvr1.obj
 0001:000787b1       ?OnUpdate@COleServerItem@@UAEXPAV1@JPAVCObject@@W4tagDVASPECT@@@Z 5f5797b1 f olesvr1.obj
 0001:000787d5       ?GetZoomFactor@COleServerDoc@@QBEHPAUtagSIZE@@0PBUtagRECT@@@Z 5f5797d5 f olesvr1.obj
 0001:00078a9d       ?GetItemPosition@COleServerDoc@@QBEXPAUtagRECT@@@Z 5f579a9d f olesvr1.obj
 0001:00078b5d       ?GetItemClipRect@COleServerDoc@@QBEXPAUtagRECT@@@Z 5f579b5d f olesvr1.obj
 0001:00078c1d       ?OnGetLinkedItem@COleServerDoc@@UAEPAVCOleServerItem@@PBG@Z 5f579c1d f olesvr1.obj
 0001:00078cff       ?OnClose@COleServerDoc@@MAEXW4tagOLECLOSE@@@Z 5f579cff f olesvr1.obj
 0001:00078ec0       ?SaveModifiedPrompt@COleServerDoc@@IAEHXZ 5f579ec0 f olesvr1.obj
 0001:0007902b       ?CanCloseFrame@COleServerDoc@@UAEHPAVCFrameWnd@@@Z 5f57a02b f olesvr1.obj
 0001:0007907d       ?GetFileTypeString@COleServerDoc@@MAEHAAVCString@@@Z 5f57a07d f olesvr1.obj
 0001:000790f1       ?OnSetHostNames@COleServerDoc@@MAEXPBG0@Z 5f57a0f1 f olesvr1.obj
 0001:00079299       ?SaveEmbedding@COleServerDoc@@QAEXXZ 5f57a299 f olesvr1.obj
 0001:00079321       ?OnUpdateDocument@COleServerDoc@@UAEHXZ 5f57a321 f olesvr1.obj
 0001:00079415       ?GetMoniker@COleServerDoc@@UAEPAUIMoniker@@W4tagOLEGETMONIKER@@@Z 5f57a415 f olesvr1.obj
 0001:0007948d       ?SaveModified@COleServerDoc@@MAEHXZ 5f57a48d f olesvr1.obj
 0001:00079504       ?GetDefaultMenu@COleServerDoc@@MAEPAUHMENU__@@XZ 5f57a504 f olesvr1.obj
 0001:00079599       ?GetDefaultAccelerator@COleServerDoc@@MAEPAUHACCEL__@@XZ 5f57a599 f olesvr1.obj
 0001:0007962e       ?_GetBaseMessageMap@COleServerDoc@@KGPBUAFX_MSGMAP@@XZ 5f57a62e f olesvr1.obj
 0001:00079643       ?GetMessageMap@COleServerDoc@@MBEPBUAFX_MSGMAP@@XZ 5f57a643 f olesvr1.obj
 0001:0007965e       ?OnFileUpdate@COleServerDoc@@IAEXXZ 5f57a65e f olesvr1.obj
 0001:000796cb       ?OnFileSaveCopyAs@COleServerDoc@@IAEXXZ 5f57a6cb f olesvr1.obj
 0001:00079809       ?UpdateUsingHostObj@COleServerDoc@@IAEXIPAVCCmdUI@@@Z 5f57a809 f olesvr1.obj
 0001:000798f7       ?OnUpdateFileExit@COleServerDoc@@IAEXPAVCCmdUI@@@Z 5f57a8f7 f olesvr1.obj
 0001:00079955       ?OnUpdateFileUpdate@COleServerDoc@@IAEXPAVCCmdUI@@@Z 5f57a955 f olesvr1.obj
 0001:000799b3       ?OnSaveDocument@COleServerDoc@@UAEHPBG@Z 5f57a9b3 f olesvr1.obj
 0001:00079aa3       ?OnCloseDocument@COleServerDoc@@UAEXXZ 5f57aaa3 f olesvr1.obj
 0001:00079c44       ?OnShowDocument@COleServerDoc@@MAEXH@Z 5f57ac44 f olesvr1.obj
 0001:0007a12a       ?OnNewEmbedding@COleServerDoc@@MAEXPAUIStorage@@@Z 5f57b12a f olesvr1.obj
 0001:0007a29a       ?OnOpenEmbedding@COleServerDoc@@MAEXPAUIStorage@@@Z 5f57b29a f olesvr1.obj
 0001:0007a40c       ?OnSaveEmbedding@COleServerDoc@@MAEXPAUIStorage@@@Z 5f57b40c f olesvr1.obj
 0001:0007a564       ?ActivateInPlace@COleServerDoc@@QAEHXZ 5f57b564 f olesvr1.obj
 0001:0007ae4c       ?CreateInPlaceFrame@COleServerDoc@@MAEPAVCOleIPFrameWnd@@PAVCWnd@@@Z 5f57be4c f olesvr1.obj
 0001:0007b008       ?DestroyInPlaceFrame@COleServerDoc@@MAEXPAVCOleIPFrameWnd@@@Z 5f57c008 f olesvr1.obj
 0001:0007b193       ?ConnectView@COleServerDoc@@IAEXPAVCWnd@@PAVCView@@@Z 5f57c193 f olesvr1.obj
 0001:0007b23a       ?OnFrameWindowActivate@COleServerDoc@@MAEXH@Z 5f57c23a f olesvr1.obj
 0001:0007b322       ?OnDocWindowActivate@COleServerDoc@@MAEXH@Z 5f57c322 f olesvr1.obj
 0001:0007b51c       ?OnShowControlBars@COleServerDoc@@MAEXPAVCFrameWnd@@H@Z 5f57c51c f olesvr1.obj
 0001:0007b65a       ?OnResizeBorder@COleServerDoc@@UAEXPBUtagRECT@@PAUIOleInPlaceUIWindow@@H@Z 5f57c65a f olesvr1.obj
 0001:0007b926       ?OnDeactivate@COleServerDoc@@UAEXXZ 5f57c926 f olesvr1.obj
 0001:0007bb42       ?OnDeactivateUI@COleServerDoc@@UAEXH@Z 5f57cb42 f olesvr1.obj
 0001:0007bd7f       ?OnSetItemRects@COleServerDoc@@MAEXPBUtagRECT@@0@Z 5f57cd7f f olesvr1.obj
 0001:0007be54       ?OnReactivateAndUndo@COleServerDoc@@MAEHXZ 5f57ce54 f olesvr1.obj
 0001:0007be6c       ?RequestPositionChange@COleServerDoc@@QAEXPBUtagRECT@@@Z 5f57ce6c f olesvr1.obj
 0001:0007bf29       ?ScrollContainerBy@COleServerDoc@@QAEHVCSize@@@Z 5f57cf29 f olesvr1.obj
 0001:0007bfe2       ?DeactivateAndUndo@COleServerDoc@@QAEHXZ 5f57cfe2 f olesvr1.obj
 0001:0007c091       ?DiscardUndoState@COleServerDoc@@QAEHXZ 5f57d091 f olesvr1.obj
 0001:0007c140       ?_GetBaseInterfaceMap@COleServerDoc@@KGPBUAFX_INTERFACEMAP@@XZ 5f57d140 f olesvr1.obj
 0001:0007c155       ?GetInterfaceMap@COleServerDoc@@MBEPBUAFX_INTERFACEMAP@@XZ 5f57d155 f olesvr1.obj
 0001:0007c170       ?AddRef@XPersistStorage@COleServerDoc@@UAGKXZ 5f57d170 f olesvr1.obj
 0001:0007c198       ?Release@XPersistStorage@COleServerDoc@@UAGKXZ 5f57d198 f olesvr1.obj
 0001:0007c1c0       ?QueryInterface@XPersistStorage@COleServerDoc@@UAGJABU_GUID@@PAPAX@Z 5f57d1c0 f olesvr1.obj
 0001:0007c1f0       ?GetClassID@XPersistStorage@COleServerDoc@@UAGJPAU_GUID@@@Z 5f57d1f0 f olesvr1.obj
 0001:0007c230       ?IsDirty@XPersistStorage@COleServerDoc@@UAGJXZ 5f57d230 f olesvr1.obj
 0001:0007c26c       ?InitNew@XPersistStorage@COleServerDoc@@UAGJPAUIStorage@@@Z 5f57d26c f olesvr1.obj
 0001:0007c386       ?Load@XPersistStorage@COleServerDoc@@UAGJPAUIStorage@@@Z 5f57d386 f olesvr1.obj
 0001:0007c4b7       ?Save@XPersistStorage@COleServerDoc@@UAGJPAUIStorage@@H@Z 5f57d4b7 f olesvr1.obj
 0001:0007c68d       ?SaveCompleted@XPersistStorage@COleServerDoc@@UAGJPAUIStorage@@@Z 5f57d68d f olesvr1.obj
 0001:0007c7b3       ?HandsOffStorage@XPersistStorage@COleServerDoc@@UAGJXZ 5f57d7b3 f olesvr1.obj
 0001:0007c8c0       ?AddRef@XOleObject@COleServerDoc@@UAGKXZ 5f57d8c0 f olesvr1.obj
 0001:0007c8e8       ?Release@XOleObject@COleServerDoc@@UAGKXZ 5f57d8e8 f olesvr1.obj
 0001:0007c910       ?QueryInterface@XOleObject@COleServerDoc@@UAGJABU_GUID@@PAPAX@Z 5f57d910 f olesvr1.obj
 0001:0007c940       ?SetClientSite@XOleObject@COleServerDoc@@UAGJPAUIOleClientSite@@@Z 5f57d940 f olesvr1.obj
 0001:0007ca6d       ?GetClientSite@XOleObject@COleServerDoc@@UAGJPAPAUIOleClientSite@@@Z 5f57da6d f olesvr1.obj
 0001:0007cad8       ?SetHostNames@XOleObject@COleServerDoc@@UAGJPBG0@Z 5f57dad8 f olesvr1.obj
 0001:0007cbea       ?Close@XOleObject@COleServerDoc@@UAGJK@Z 5f57dbea f olesvr1.obj
 0001:0007cd01       ?SetMoniker@XOleObject@COleServerDoc@@UAGJKPAUIMoniker@@@Z 5f57dd01 f olesvr1.obj
 0001:0007cdf5       ?GetMoniker@XOleObject@COleServerDoc@@UAGJKKPAPAUIMoniker@@@Z 5f57ddf5 f olesvr1.obj
 0001:0007ce44       ?InitFromData@XOleObject@COleServerDoc@@UAGJPAUIDataObject@@HK@Z 5f57de44 f olesvr1.obj
 0001:0007cfda       ?GetClipboardData@XOleObject@COleServerDoc@@UAGJKPAPAUIDataObject@@@Z 5f57dfda f olesvr1.obj
 0001:0007d18f       ?DoVerb@XOleObject@COleServerDoc@@UAGJJPAUtagMSG@@PAUIOleClientSite@@JPAUHWND__@@PBUtagRECT@@@Z 5f57e18f f olesvr1.obj
 0001:0007d2ee       ?EnumVerbs@XOleObject@COleServerDoc@@UAGJPAPAUIEnumOLEVERB@@@Z 5f57e2ee f olesvr1.obj
 0001:0007d367       ?Update@XOleObject@COleServerDoc@@UAGJXZ 5f57e367 f olesvr1.obj
 0001:0007d4b5       ?IsUpToDate@XOleObject@COleServerDoc@@UAGJXZ 5f57e4b5 f olesvr1.obj
 0001:0007d614       ?GetUserClassID@XOleObject@COleServerDoc@@UAGJPAU_GUID@@@Z 5f57e614 f olesvr1.obj
 0001:0007d654       ?GetUserType@XOleObject@COleServerDoc@@UAGJKPAPAG@Z 5f57e654 f olesvr1.obj
 0001:0007d6d1       ?SetExtent@XOleObject@COleServerDoc@@UAGJKPAUtagSIZE@@@Z 5f57e6d1 f olesvr1.obj
 0001:0007d848       ?GetExtent@XOleObject@COleServerDoc@@UAGJKPAUtagSIZE@@@Z 5f57e848 f olesvr1.obj
 0001:0007d9d5       ?Advise@XOleObject@COleServerDoc@@UAGJPAUIAdviseSink@@PAK@Z 5f57e9d5 f olesvr1.obj
 0001:0007db43       ?Unadvise@XOleObject@COleServerDoc@@UAGJK@Z 5f57eb43 f olesvr1.obj
 0001:0007dcad       ?EnumAdvise@XOleObject@COleServerDoc@@UAGJPAPAUIEnumSTATDATA@@@Z 5f57ecad f olesvr1.obj
 0001:0007de17       ?GetMiscStatus@XOleObject@COleServerDoc@@UAGJKPAK@Z 5f57ee17 f olesvr1.obj
 0001:0007de94       ?SetColorScheme@XOleObject@COleServerDoc@@UAGJPAUtagLOGPALETTE@@@Z 5f57ee94 f olesvr1.obj
 0001:0007dfe6       ?AddRef@XDataObject@COleServerDoc@@UAGKXZ 5f57efe6 f olesvr1.obj
 0001:0007e00e       ?Release@XDataObject@COleServerDoc@@UAGKXZ 5f57f00e f olesvr1.obj
 0001:0007e036       ?QueryInterface@XDataObject@COleServerDoc@@UAGJABU_GUID@@PAPAX@Z 5f57f036 f olesvr1.obj
 0001:0007e066       ?GetData@XDataObject@COleServerDoc@@UAGJPAUtagFORMATETC@@PAUtagSTGMEDIUM@@@Z 5f57f066 f olesvr1.obj
 0001:0007e1d4       ?GetDataHere@XDataObject@COleServerDoc@@UAGJPAUtagFORMATETC@@PAUtagSTGMEDIUM@@@Z 5f57f1d4 f olesvr1.obj
 0001:0007e342       ?QueryGetData@XDataObject@COleServerDoc@@UAGJPAUtagFORMATETC@@@Z 5f57f342 f olesvr1.obj
 0001:0007e4ac       ?GetCanonicalFormatEtc@XDataObject@COleServerDoc@@UAGJPAUtagFORMATETC@@0@Z 5f57f4ac f olesvr1.obj
 0001:0007e4c3       ?SetData@XDataObject@COleServerDoc@@UAGJPAUtagFORMATETC@@PAUtagSTGMEDIUM@@H@Z 5f57f4c3 f olesvr1.obj
 0001:0007e635       ?EnumFormatEtc@XDataObject@COleServerDoc@@UAGJKPAPAUIEnumFORMATETC@@@Z 5f57f635 f olesvr1.obj
 0001:0007e7a3       ?DAdvise@XDataObject@COleServerDoc@@UAGJPAUtagFORMATETC@@KPAUIAdviseSink@@PAK@Z 5f57f7a3 f olesvr1.obj
 0001:0007e919       ?DUnadvise@XDataObject@COleServerDoc@@UAGJK@Z 5f57f919 f olesvr1.obj
 0001:0007ea83       ?EnumDAdvise@XDataObject@COleServerDoc@@UAGJPAPAUIEnumSTATDATA@@@Z 5f57fa83 f olesvr1.obj
 0001:0007ebed       ?AddRef@XOleInPlaceObject@COleServerDoc@@UAGKXZ 5f57fbed f olesvr1.obj
 0001:0007ec15       ?Release@XOleInPlaceObject@COleServerDoc@@UAGKXZ 5f57fc15 f olesvr1.obj
 0001:0007ec3d       ?QueryInterface@XOleInPlaceObject@COleServerDoc@@UAGJABU_GUID@@PAPAX@Z 5f57fc3d f olesvr1.obj
 0001:0007ec6d       ?GetWindow@XOleInPlaceObject@COleServerDoc@@UAGJPAPAUHWND__@@@Z 5f57fc6d f olesvr1.obj
 0001:0007ecad       ?ContextSensitiveHelp@XOleInPlaceObject@COleServerDoc@@UAGJH@Z 5f57fcad f olesvr1.obj
 0001:0007eced       ?InPlaceDeactivate@XOleInPlaceObject@COleServerDoc@@UAGJXZ 5f57fced f olesvr1.obj
 0001:0007ee33       ?UIDeactivate@XOleInPlaceObject@COleServerDoc@@UAGJXZ 5f57fe33 f olesvr1.obj
 0001:0007efa7       ?SetObjectRects@XOleInPlaceObject@COleServerDoc@@UAGJPBUtagRECT@@0@Z 5f57ffa7 f olesvr1.obj
 0001:0007f0ad       ?ReactivateAndUndo@XOleInPlaceObject@COleServerDoc@@UAGJXZ 5f5800ad f olesvr1.obj
 0001:0007f1bf       ?AddRef@XOleInPlaceActiveObject@COleServerDoc@@UAGKXZ 5f5801bf f olesvr1.obj
 0001:0007f1e7       ?Release@XOleInPlaceActiveObject@COleServerDoc@@UAGKXZ 5f5801e7 f olesvr1.obj
 0001:0007f20f       ?QueryInterface@XOleInPlaceActiveObject@COleServerDoc@@UAGJABU_GUID@@PAPAX@Z 5f58020f f olesvr1.obj
 0001:0007f23f       ?GetWindow@XOleInPlaceActiveObject@COleServerDoc@@UAGJPAPAUHWND__@@@Z 5f58023f f olesvr1.obj
 0001:0007f28a       ?ContextSensitiveHelp@XOleInPlaceActiveObject@COleServerDoc@@UAGJH@Z 5f58028a f olesvr1.obj
 0001:0007f3c5       ?TranslateAcceleratorW@XOleInPlaceActiveObject@COleServerDoc@@UAGJPAUtagMSG@@@Z 5f5803c5 f olesvr1.obj
 0001:0007f524       ?OnFrameWindowActivate@XOleInPlaceActiveObject@COleServerDoc@@UAGJH@Z 5f580524 f olesvr1.obj
 0001:0007f626       ?OnDocWindowActivate@XOleInPlaceActiveObject@COleServerDoc@@UAGJH@Z 5f580626 f olesvr1.obj
 0001:0007f728       ?ResizeBorder@XOleInPlaceActiveObject@COleServerDoc@@UAGJPBUtagRECT@@PAUIOleInPlaceUIWindow@@H@Z 5f580728 f olesvr1.obj
 0001:0007f832       ?EnableModeless@XOleInPlaceActiveObject@COleServerDoc@@UAGJH@Z 5f580832 f olesvr1.obj
 0001:0007f9b9       ?AssertValid@COleServerDoc@@UBEXXZ 5f5809b9 f olesvr1.obj
 0001:0007fa25       ?Dump@COleServerDoc@@UBEXAAVCDumpContext@@@Z 5f580a25 f olesvr1.obj
 0001:0007fb5c       ?GetDocument@COleServerItem@@QBEPAVCOleServerDoc@@XZ 5f580b5c f olesvr1.obj
 0001:0007fb8b       ?NotifyChanged@COleServerItem@@QAEXW4tagDVASPECT@@@Z 5f580b8b f olesvr1.obj
 0001:0007fbc4       ?GetItemName@COleServerItem@@QBEABVCString@@XZ 5f580bc4 f olesvr1.obj
 0001:0007fbf3       ?SetItemName@COleServerItem@@QAEXPBG@Z 5f580bf3 f olesvr1.obj
 0001:0007fc7a       ?IsLinkedItem@COleServerItem@@QBEHXZ 5f580c7a f olesvr1.obj
 0001:0007fcc6       ?GetDataSource@COleServerItem@@IAEPAVCOleDataSource@@XZ 5f580cc6 f olesvr1.obj
 0001:0007fcf5       ?NotifyChanged@COleServerDoc@@QAEXXZ 5f580cf5 f olesvr1.obj
 0001:0007fd2a       ?NotifyClosed@COleServerDoc@@QAEXXZ 5f580d2a f olesvr1.obj
 0001:0007fd5f       ?NotifySaved@COleServerDoc@@QAEXXZ 5f580d5f f olesvr1.obj
 0001:0007fd94       ?IsEmbedded@COleServerDoc@@QBEHXZ 5f580d94 f olesvr1.obj
 0001:0007fdc3       ?IsDocObject@COleServerDoc@@QBEHXZ 5f580dc3 f olesvr1.obj
 0001:0007fe08       ?IsInPlaceActive@COleServerDoc@@QBEHXZ 5f580e08 f olesvr1.obj
 0001:0007fe50       ??_GCOleServerDoc@@UAEPAXI@Z 5f580e50 f olesvr1.obj
 0001:0007fe50       ??_ECOleServerDoc@@UAEPAXI@Z 5f580e50 f olesvr1.obj
 0001:0007fe90       ??0XPersistStorage@COleServerDoc@@QAE@XZ 5f580e90 f olesvr1.obj
 0001:0007fec0       ??0XOleObject@COleServerDoc@@QAE@XZ 5f580ec0 f olesvr1.obj
 0001:0007fef0       ??0XDataObject@COleServerDoc@@QAE@XZ 5f580ef0 f olesvr1.obj
 0001:0007ff20       ??0XOleInPlaceObject@COleServerDoc@@QAE@XZ 5f580f20 f olesvr1.obj
 0001:0007ff50       ??0XOleInPlaceActiveObject@COleServerDoc@@QAE@XZ 5f580f50 f olesvr1.obj
 0001:0007ff80       ??0IPersistStorage@@QAE@XZ 5f580f80 f olesvr1.obj
 0001:0007ffb0       ??0IOleObject@@QAE@XZ      5f580fb0 f olesvr1.obj
 0001:0007ffe0       ??0IOleInPlaceObject@@QAE@XZ 5f580fe0 f olesvr1.obj
 0001:00080010       ??0IOleInPlaceActiveObject@@QAE@XZ 5f581010 f olesvr1.obj
 0001:00080040       ??0COleServerItem@@IAE@PAVCOleServerDoc@@H@Z 5f581040 f olesvr2.obj
 0001:000801f3       ??1COleServerItem@@UAE@XZ  5f5811f3 f olesvr2.obj
 0001:0008035f       ?IsBlank@COleServerItem@@MBEHXZ 5f58135f f olesvr2.obj
 0001:0008037a       ?IsConnected@COleServerItem@@QBEHXZ 5f58137a f olesvr2.obj
 0001:000803d8       ?NotifyClient@COleServerItem@@QAEXW4OLE_NOTIFICATION@@K@Z 5f5813d8 f olesvr2.obj
 0001:000804e5       ?GetDataObject@COleServerItem@@QAEPAUIDataObject@@XZ 5f5814e5 f olesvr2.obj
 0001:00080530       ?GetOleObject@COleServerItem@@QAEPAUIOleObject@@XZ 5f581530 f olesvr2.obj
 0001:0008057b       ?OnQueryUpdateItems@COleServerItem@@UAEHXZ 5f58157b f olesvr2.obj
 0001:00080604       ?OnUpdateItems@COleServerItem@@UAEXXZ 5f581604 f olesvr2.obj
 0001:00080693       ?OnSetExtent@COleServerItem@@UAEHW4tagDVASPECT@@ABVCSize@@@Z 5f581693 f olesvr2.obj
 0001:000806e7       ?OnGetExtent@COleServerItem@@UAEHW4tagDVASPECT@@AAVCSize@@@Z 5f5816e7 f olesvr2.obj
 0001:00080754       ?OnDoVerb@COleServerItem@@UAEXJ@Z 5f581754 f olesvr2.obj
 0001:00080810       ?OnDrawEx@COleServerItem@@UAEHPAVCDC@@W4tagDVASPECT@@AAVCSize@@@Z 5f581810 f olesvr2.obj
 0001:0008088c       ?OnShow@COleServerItem@@MAEXXZ 5f58188c f olesvr2.obj
 0001:000808de       ?OnOpen@COleServerItem@@MAEXXZ 5f5818de f olesvr2.obj
 0001:00080944       ?OnHide@COleServerItem@@MAEXXZ 5f581944 f olesvr2.obj
 0001:0008099b       ?GetMetafileData@COleServerItem@@MAEHPAUtagFORMATETC@@PAUtagSTGMEDIUM@@@Z 5f58199b f olesvr2.obj
 0001:00080d86       ?OnSetColorScheme@COleServerItem@@UAEHPBUtagLOGPALETTE@@@Z 5f581d86 f olesvr2.obj
 0001:00080db3       ?OnInitFromData@COleServerItem@@UAEHPAVCOleDataObject@@H@Z 5f581db3 f olesvr2.obj
 0001:00080dea       ?CopyToClipboard@COleServerItem@@QAEXH@Z 5f581dea f olesvr2.obj
 0001:00080e33       ?OnGetClipboardData@COleServerItem@@UAEPAVCOleDataSource@@HPAUtagPOINT@@PAUtagSIZE@@@Z 5f581e33 f olesvr2.obj
 0001:00080f68       ?DoDragDrop@COleServerItem@@QAEKPBUtagRECT@@VCPoint@@HK0@Z 5f581f68 f olesvr2.obj
 0001:0008117a       ?GetClipboardData@COleServerItem@@QAEXPAVCOleDataSource@@HPAUtagPOINT@@PAUtagSIZE@@@Z 5f58217a f olesvr2.obj
 0001:0008129d       ?GetEmbedSourceData@COleServerItem@@QAEXPAUtagSTGMEDIUM@@@Z 5f58229d f olesvr2.obj
 0001:00081527       ?AddOtherClipboardData@COleServerItem@@QAEXPAVCOleDataSource@@@Z 5f582527 f olesvr2.obj
 0001:0008163e       ?GetMoniker@COleServerItem@@QAEPAUIMoniker@@W4tagOLEGETMONIKER@@@Z 5f58263e f olesvr2.obj
 0001:000816a3       ?GetLinkSourceData@COleServerItem@@QAEHPAUtagSTGMEDIUM@@@Z 5f5826a3 f olesvr2.obj
 0001:00081898       ?GetObjectDescriptorData@COleServerItem@@QAEXPAUtagPOINT@@PAUtagSIZE@@PAUtagSTGMEDIUM@@@Z 5f582898 f olesvr2.obj
 0001:00081a32       ?OnSaveEmbedding@COleServerItem@@MAEXPAUIStorage@@@Z 5f582a32 f olesvr2.obj
 0001:00081b50       ?OnRenderGlobalData@COleServerItem@@UAEHPAUtagFORMATETC@@PAPAX@Z 5f582b50 f olesvr2.obj
 0001:00081b7d       ?OnRenderFileData@COleServerItem@@UAEHPAUtagFORMATETC@@PAVCFile@@@Z 5f582b7d f olesvr2.obj
 0001:00081baa       ?OnRenderData@COleServerItem@@UAEHPAUtagFORMATETC@@PAUtagSTGMEDIUM@@@Z 5f582baa f olesvr2.obj
 0001:00081c71       ?OnSetData@COleServerItem@@UAEHPAUtagFORMATETC@@PAUtagSTGMEDIUM@@H@Z 5f582c71 f olesvr2.obj
 0001:00081c9e       ?_GetBaseInterfaceMap@COleServerItem@@KGPBUAFX_INTERFACEMAP@@XZ 5f582c9e f olesvr2.obj
 0001:00081cb3       ?GetInterfaceMap@COleServerItem@@MBEPBUAFX_INTERFACEMAP@@XZ 5f582cb3 f olesvr2.obj
 0001:00081cce       ?AddRef@XOleObject@COleServerItem@@UAGKXZ 5f582cce f olesvr2.obj
 0001:00081cf4       ?Release@XOleObject@COleServerItem@@UAGKXZ 5f582cf4 f olesvr2.obj
 0001:00081d1a       ?QueryInterface@XOleObject@COleServerItem@@UAGJABU_GUID@@PAPAX@Z 5f582d1a f olesvr2.obj
 0001:00081d48       ?OnFinalRelease@COleServerItem@@UAEXXZ 5f582d48 f olesvr2.obj
 0001:00081df7       ?SetClientSite@XOleObject@COleServerItem@@UAGJPAUIOleClientSite@@@Z 5f582df7 f olesvr2.obj
 0001:00081e0e       ?GetClientSite@XOleObject@COleServerItem@@UAGJPAPAUIOleClientSite@@@Z 5f582e0e f olesvr2.obj
 0001:00081e2e       ?SetHostNames@XOleObject@COleServerItem@@UAGJPBG0@Z 5f582e2e f olesvr2.obj
 0001:00081e45       ?Close@XOleObject@COleServerItem@@UAGJK@Z 5f582e45 f olesvr2.obj
 0001:00081e5c       ?SetMoniker@XOleObject@COleServerItem@@UAGJKPAUIMoniker@@@Z 5f582e5c f olesvr2.obj
 0001:00081e73       ?GetMoniker@XOleObject@COleServerItem@@UAGJKKPAPAUIMoniker@@@Z 5f582e73 f olesvr2.obj
 0001:0008215f       ?InitFromData@XOleObject@COleServerItem@@UAGJPAUIDataObject@@HK@Z 5f58315f f olesvr2.obj
 0001:00082176       ?GetClipboardData@XOleObject@COleServerItem@@UAGJKPAPAUIDataObject@@@Z 5f583176 f olesvr2.obj
 0001:000822de       ?DoVerb@XOleObject@COleServerItem@@UAGJJPAUtagMSG@@PAUIOleClientSite@@JPAUHWND__@@PBUtagRECT@@@Z 5f5832de f olesvr2.obj
 0001:000823f0       ?EnumVerbs@XOleObject@COleServerItem@@UAGJPAPAUIEnumOLEVERB@@@Z 5f5833f0 f olesvr2.obj
 0001:00082446       ?Update@XOleObject@COleServerItem@@UAGJXZ 5f583446 f olesvr2.obj
 0001:00082547       ?IsUpToDate@XOleObject@COleServerItem@@UAGJXZ 5f583547 f olesvr2.obj
 0001:00082659       ?GetUserClassID@XOleObject@COleServerItem@@UAGJPAU_GUID@@@Z 5f583659 f olesvr2.obj
 0001:0008269b       ?GetUserType@XOleObject@COleServerItem@@UAGJKPAPAG@Z 5f58369b f olesvr2.obj
 0001:000826f5       ?SetExtent@XOleObject@COleServerItem@@UAGJKPAUtagSIZE@@@Z 5f5836f5 f olesvr2.obj
 0001:0008270c       ?GetExtent@XOleObject@COleServerItem@@UAGJKPAUtagSIZE@@@Z 5f58370c f olesvr2.obj
 0001:0008284c       ?Advise@XOleObject@COleServerItem@@UAGJPAUIAdviseSink@@PAK@Z 5f58384c f olesvr2.obj
 0001:000828de       ?Unadvise@XOleObject@COleServerItem@@UAGJK@Z 5f5838de f olesvr2.obj
 0001:0008294e       ?EnumAdvise@XOleObject@COleServerItem@@UAGJPAPAUIEnumSTATDATA@@@Z 5f58394e f olesvr2.obj
 0001:000829c7       ?GetMiscStatus@XOleObject@COleServerItem@@UAGJKPAK@Z 5f5839c7 f olesvr2.obj
 0001:00082a21       ?SetColorScheme@XOleObject@COleServerItem@@UAGJPAUtagLOGPALETTE@@@Z 5f583a21 f olesvr2.obj
 0001:00082b26       ?AddRef@XDataObject@COleServerItem@@UAGKXZ 5f583b26 f olesvr2.obj
 0001:00082b4c       ?Release@XDataObject@COleServerItem@@UAGKXZ 5f583b4c f olesvr2.obj
 0001:00082b72       ?QueryInterface@XDataObject@COleServerItem@@UAGJABU_GUID@@PAPAX@Z 5f583b72 f olesvr2.obj
 0001:00082ba0       ?GetData@XDataObject@COleServerItem@@UAGJPAUtagFORMATETC@@PAUtagSTGMEDIUM@@@Z 5f583ba0 f olesvr2.obj
 0001:00082bd6       ?GetDataHere@XDataObject@COleServerItem@@UAGJPAUtagFORMATETC@@PAUtagSTGMEDIUM@@@Z 5f583bd6 f olesvr2.obj
 0001:00082c0c       ?QueryGetData@XDataObject@COleServerItem@@UAGJPAUtagFORMATETC@@@Z 5f583c0c f olesvr2.obj
 0001:00082c3e       ?GetCanonicalFormatEtc@XDataObject@COleServerItem@@UAGJPAUtagFORMATETC@@0@Z 5f583c3e f olesvr2.obj
 0001:00082c55       ?SetData@XDataObject@COleServerItem@@UAGJPAUtagFORMATETC@@PAUtagSTGMEDIUM@@H@Z 5f583c55 f olesvr2.obj
 0001:00082c8f       ?EnumFormatEtc@XDataObject@COleServerItem@@UAGJKPAPAUIEnumFORMATETC@@@Z 5f583c8f f olesvr2.obj
 0001:00082cc5       ?DAdvise@XDataObject@COleServerItem@@UAGJPAUtagFORMATETC@@KPAUIAdviseSink@@PAK@Z 5f583cc5 f olesvr2.obj
 0001:00082e09       ?DUnadvise@XDataObject@COleServerItem@@UAGJK@Z 5f583e09 f olesvr2.obj
 0001:00082e79       ?EnumDAdvise@XDataObject@COleServerItem@@UAGJPAPAUIEnumSTATDATA@@@Z 5f583e79 f olesvr2.obj
 0001:00082ef2       ?OnRenderGlobalData@CItemDataSource@COleServerItem@@MAEHPAUtagFORMATETC@@PAPAX@Z 5f583ef2 f olesvr2.obj
 0001:00082f3c       ?OnRenderFileData@CItemDataSource@COleServerItem@@MAEHPAUtagFORMATETC@@PAVCFile@@@Z 5f583f3c f olesvr2.obj
 0001:00082f86       ?OnRenderData@CItemDataSource@COleServerItem@@MAEHPAUtagFORMATETC@@PAUtagSTGMEDIUM@@@Z 5f583f86 f olesvr2.obj
 0001:00082ff2       ?OnSetData@CItemDataSource@COleServerItem@@MAEHPAUtagFORMATETC@@PAUtagSTGMEDIUM@@H@Z 5f583ff2 f olesvr2.obj
 0001:00083040       ?AssertValid@COleServerItem@@UBEXXZ 5f584040 f olesvr2.obj
 0001:00083092       ?Dump@COleServerItem@@UBEXAAVCDumpContext@@@Z 5f584092 f olesvr2.obj
 0001:00083160       ??_ECOleServerItem@@UAEPAXI@Z 5f584160 f olesvr2.obj
 0001:00083160       ??_GCOleServerItem@@UAEPAXI@Z 5f584160 f olesvr2.obj
 0001:000831a0       ??0CItemDataSource@COleServerItem@@QAE@XZ 5f5841a0 f olesvr2.obj
 0001:00083210       ??1CItemDataSource@COleServerItem@@UAE@XZ 5f584210 f olesvr2.obj
 0001:00083270       ??0XOleObject@COleServerItem@@QAE@XZ 5f584270 f olesvr2.obj
 0001:000832a0       ??0XDataObject@COleServerItem@@QAE@XZ 5f5842a0 f olesvr2.obj
 0001:000832d0       ??_GCItemDataSource@COleServerItem@@UAEPAXI@Z 5f5842d0 f olesvr2.obj
 0001:000832d0       ??_ECItemDataSource@COleServerItem@@UAEPAXI@Z 5f5842d0 f olesvr2.obj
 0001:00083310       ?AfxOleRegisterServerClassCompat@@YGHABU_GUID@@PBG11W4OLE_APPTYPE@@PAPBG3@Z 5f584310 f olereg.obj
 0001:00083347       ?AfxOleRegisterServerClass@@YGHABU_GUID@@PBG11W4OLE_APPTYPE@@PAPBG3H1@Z 5f584347 f olereg.obj
 0001:000836d5       ?AfxOleRegisterHelper@@YGHPBQBG0HHPAUHKEY__@@@Z 5f5846d5 f olereg.obj
 0001:000839a0       ??0COleResizeBar@@QAE@XZ   5f5849a0 f olebar.obj
 0001:00083a37       ??1COleResizeBar@@UAE@XZ   5f584a37 f olebar.obj
 0001:00083ab8       ?Create@COleResizeBar@@QAEHPAVCWnd@@KI@Z 5f584ab8 f olebar.obj
 0001:00083b7e       ?_GetBaseMessageMap@COleResizeBar@@KGPBUAFX_MSGMAP@@XZ 5f584b7e f olebar.obj
 0001:00083b93       ?GetMessageMap@COleResizeBar@@MBEPBUAFX_MSGMAP@@XZ 5f584b93 f olebar.obj
 0001:00083bae       ?OnEraseBkgnd@COleResizeBar@@IAEHPAVCDC@@@Z 5f584bae f olebar.obj
 0001:00083bcb       ?OnPaint@COleResizeBar@@IAEXXZ 5f584bcb f olebar.obj
 0001:00083c6e       ?OnSize@COleResizeBar@@IAEXIHH@Z 5f584c6e f olebar.obj
 0001:00083cbd       ?OnSetCursor@COleResizeBar@@IAEHPAVCWnd@@II@Z 5f584cbd f olebar.obj
 0001:00083d3f       ?OnLButtonDown@COleResizeBar@@IAEXIVCPoint@@@Z 5f584d3f f olebar.obj
 0001:00083eaf       ?OnSizeParent@COleResizeBar@@IAEJIJ@Z 5f584eaf f olebar.obj
 0001:00083f17       ?OnUpdateCmdUI@COleResizeBar@@UAEXPAVCFrameWnd@@H@Z 5f584f17 f olebar.obj
 0001:00083f30       ?GetStandardProp@CCmdTarget@@IAEXPBUAFX_DISPMAP_ENTRY@@PAUtagVARIANT@@PAI@Z 5f584f30 f oledisp1.obj
 0001:00084134       ?SetStandardProp@CCmdTarget@@IAEJPBUAFX_DISPMAP_ENTRY@@PAUtagDISPPARAMS@@PAI@Z 5f585134 f oledisp1.obj
 0001:00084468       ?GetEntryCount@CCmdTarget@@KGIPBUAFX_DISPMAP@@@Z 5f585468 f oledisp1.obj
 0001:00084513       ?MemberIDFromName@CCmdTarget@@KGJPBUAFX_DISPMAP@@PBG@Z 5f585513 f oledisp1.obj
 0001:0008461a       ?GetDispEntry@CCmdTarget@@IAGPBUAFX_DISPMAP_ENTRY@@J@Z 5f58561a f oledisp1.obj
 0001:000847f7       ?GetNotSupported@CCmdTarget@@QAEXXZ 5f5857f7 f oledisp1.obj
 0001:0008481e       ?SetNotSupported@CCmdTarget@@QAEXXZ 5f58581e f oledisp1.obj
 0001:00084845       ?EnableAutomation@CCmdTarget@@QAEXXZ 5f585845 f oledisp1.obj
 0001:000848e0       ?GetIDispatch@CCmdTarget@@QAEPAUIDispatch@@H@Z 5f5858e0 f oledisp1.obj
 0001:0008494f       ?FromIDispatch@CCmdTarget@@SGPAV1@PAUIDispatch@@@Z 5f58594f f oledisp1.obj
 0001:000849c2       ?IsResultExpected@CCmdTarget@@QAEHXZ 5f5859c2 f oledisp1.obj
 0001:000849ee       ?Disconnect@COleDispatchImpl@@UAEXXZ 5f5859ee f oledisp1.obj
 0001:00084a15       ?AllocSysString@CString@@QBEPAGXZ 5f585a15 f oledisp1.obj
 0001:00084a58       ?SetSysString@CString@@QBEPAGPAPAG@Z 5f585a58 f oledisp1.obj
 0001:00084aef       ?GetStackSize@CCmdTarget@@KGIPBEG@Z 5f585aef f oledisp1.obj
 0001:00084bf6       ?PushStackArgs@CCmdTarget@@IAEJPAEPBEPAXGPAUtagDISPPARAMS@@PAIPAUtagVARIANT@@@Z 5f585bf6 f oledisp1.obj
 0001:000851fb       ?CallMemberFunc@CCmdTarget@@IAEJPBUAFX_DISPMAP_ENTRY@@GPAUtagVARIANT@@PAUtagDISPPARAMS@@PAI@Z 5f5861fb f oledisp1.obj
 0001:00085866       ?AddRef@COleDispatchImpl@@UAGKXZ 5f586866 f oledisp1.obj
 0001:0008588c       ?Release@COleDispatchImpl@@UAGKXZ 5f58688c f oledisp1.obj
 0001:000858b2       ?QueryInterface@COleDispatchImpl@@UAGJABU_GUID@@PAPAX@Z 5f5868b2 f oledisp1.obj
 0001:000858e0       ?GetTypeInfoCount@COleDispatchImpl@@UAGJPAI@Z 5f5868e0 f oledisp1.obj
 0001:00085910       ?GetTypeInfo@COleDispatchImpl@@UAGJIKPAPAUITypeInfo@@@Z 5f586910 f oledisp1.obj
 0001:000859ae       ?GetIDsOfNames@COleDispatchImpl@@UAGJABU_GUID@@PAPAGIKPAJ@Z 5f5869ae f oledisp1.obj
 0001:00085b74       ?Invoke@COleDispatchImpl@@UAGJJABU_GUID@@KGPAUtagDISPPARAMS@@PAUtagVARIANT@@PAUtagEXCEPINFO@@PAI@Z 5f586b74 f oledisp1.obj
 0001:0008659a       ??1COleDispatchException@@UAE@XZ 5f58759a f oledisp1.obj
 0001:0008664d       ?Process@COleDispatchException@@SGXPAUtagEXCEPINFO@@PBVCException@@@Z 5f58764d f oledisp1.obj
 0001:00086871       ??0COleDispatchException@@QAE@PBGIG@Z 5f587871 f oledisp1.obj
 0001:000869a4       ?GetErrorMessage@COleDispatchException@@UAEHPAGIPAI@Z 5f5879a4 f oledisp1.obj
 0001:00086a25       ?AfxThrowOleDispatchException@@YGXGPBGI@Z 5f587a25 f oledisp1.obj
 0001:00086ab4       ?AfxThrowOleDispatchException@@YGXGII@Z 5f587ab4 f oledisp1.obj
 0001:00086b80       ??0COleDispatchImpl@@QAE@XZ 5f587b80 f oledisp1.obj
 0001:00086bb0       ??4COleDispatchImpl@@QAEAAV0@ABV0@@Z 5f587bb0 f oledisp1.obj
 0001:00086be0       ??0IDispatch@@QAE@XZ       5f587be0 f oledisp1.obj
 0001:00086c10       ??4IDispatch@@QAEAAU0@ABU0@@Z 5f587c10 f oledisp1.obj
 0001:00086c40       ??4IUnknown@@QAEAAU0@ABU0@@Z 5f587c40 f oledisp1.obj
 0001:00086c60       ??_ECOleDispatchException@@UAEPAXI@Z 5f587c60 f oledisp1.obj
 0001:00086c60       ??_GCOleDispatchException@@UAEPAXI@Z 5f587c60 f oledisp1.obj
 0001:00086ca0       ?AfxGetClassIDFromString@@YGJPBGPAU_GUID@@@Z 5f587ca0 f oledisp2.obj
 0001:00086d09       ??0COleDispatchDriver@@QAE@XZ 5f587d09 f oledisp2.obj
 0001:00086d35       ??0COleDispatchDriver@@QAE@PAUIDispatch@@H@Z 5f587d35 f oledisp2.obj
 0001:00086d61       ??0COleDispatchDriver@@QAE@ABV0@@Z 5f587d61 f oledisp2.obj
 0001:00086dcd       ??4COleDispatchDriver@@QAEABV0@ABV0@@Z 5f587dcd f oledisp2.obj
 0001:00086e4f       ?CreateDispatch@COleDispatchDriver@@QAEHABU_GUID@@PAVCOleException@@@Z 5f587e4f f oledisp2.obj
 0001:00086fc7       ?CreateDispatch@COleDispatchDriver@@QAEHPBGPAVCOleException@@@Z 5f587fc7 f oledisp2.obj
 0001:00087044       ?AttachDispatch@COleDispatchDriver@@QAEXPAUIDispatch@@H@Z 5f588044 f oledisp2.obj
 0001:00087097       ?ReleaseDispatch@COleDispatchDriver@@QAEXXZ 5f588097 f oledisp2.obj
 0001:000870df       ?DetachDispatch@COleDispatchDriver@@QAEPAUIDispatch@@XZ 5f5880df f oledisp2.obj
 0001:00087109       ?InvokeHelperV@COleDispatchDriver@@QAEXJGGPAXPBEPAD@Z 5f588109 f oledisp2.obj
 0001:00087a9f       ?InvokeHelper@COleDispatchDriver@@QAAXJGGPAXPBEZZ 5f588a9f f oledisp2.obj
 0001:00087adf       ?GetProperty@COleDispatchDriver@@QBEXJGPAX@Z 5f588adf f oledisp2.obj
 0001:00087b13       ?SetProperty@COleDispatchDriver@@QAAXJGZZ 5f588b13 f oledisp2.obj
 0001:00087ba0       __AfxDispatchCall@12       5f588ba0 f olecall.obj
 0001:00087bc0       ??1COleMessageFilter@@UAE@XZ 5f588bc0 f olemsgf.obj
 0001:00087c40       ?Revoke@COleMessageFilter@@QAEXXZ 5f588c40 f olemsgf.obj
 0001:00087c90       ??1COleObjectFactory@@UAE@XZ 5f588c90 f olefact.obj
 0001:00087db9       ?Revoke@COleObjectFactory@@QAEXXZ 5f588db9 f olefact.obj
 0001:00087e1d       ?RevokeAll@COleObjectFactory@@SGXXZ 5f588e1d f olefact.obj
 0001:00088700       ??_ECOleDataSource@@UAEPAXI@Z 5f589700 f dllole.obj
 0001:00088770       ??_ECOleDropSource@@UAEPAXI@Z 5f589770 f dllole.obj
 0001:000887e0       ??1COleDropSource@@UAE@XZ  5f5897e0 f dllole.obj
 0001:00088840       ??_ECOleResizeBar@@UAEPAXI@Z 5f589840 f dllole.obj
 0001:000888b0       ??_ECOleStreamFile@@UAEPAXI@Z 5f5898b0 f dllole.obj
 0001:00088920       ??_FCOleStreamFile@@QAEXXZ 5f589920 f dllole.obj
 0001:00088940       ??_ECMonikerFile@@UAEPAXI@Z 5f589940 f dllole.obj
 0001:000889b0       ??_ECOleTemplateServer@@UAEPAXI@Z 5f5899b0 f dllole.obj
 0001:00088a20       ??1COleTemplateServer@@UAE@XZ 5f589a20 f dllole.obj
 0001:00088a80       ??_ECOleDropTarget@@UAEPAXI@Z 5f589a80 f dllole.obj
 0001:00088af0       ??_ECOleIPFrameWnd@@UAEPAXI@Z 5f589af0 f dllole.obj
 0001:00088b60       ??_ECOleDocIPFrameWnd@@UAEPAXI@Z 5f589b60 f dllole.obj
 0001:00088bd0       ??_ECAsyncMonikerFile@@UAEPAXI@Z 5f589bd0 f dllole.obj
 0001:00088c40       ??_ECCachedDataPathProperty@@UAEPAXI@Z 5f589c40 f dllole.obj
 0001:00088cb0       ??_FCCachedDataPathProperty@@QAEXXZ 5f589cb0 f dllole.obj
 0001:00088cd0       ??1CCachedDataPathProperty@@UAE@XZ 5f589cd0 f dllole.obj
 0001:00088d50       ??_ECDataPathProperty@@UAEPAXI@Z 5f589d50 f dllole.obj
 0001:00088dc0       ??_FCDataPathProperty@@QAEXXZ 5f589dc0 f dllole.obj
 0001:00088de0       ??1CDataPathProperty@@UAE@XZ 5f589de0 f dllole.obj
 0001:00088e60       ??_ECRichEditView@@UAEPAXI@Z 5f589e60 f dllole.obj
 0001:00088ed0       ??1CRichEditView@@UAE@XZ   5f589ed0 f dllole.obj
 0001:00088f70       ??_ECRichEditCntrItem@@UAEPAXI@Z 5f589f70 f dllole.obj
 0001:00088fe0       ??_FCRichEditCntrItem@@QAEXXZ 5f589fe0 f dllole.obj
 0001:00089010       ??1CCtrlView@@UAE@XZ       5f58a010 f dllole.obj
 0002:00000054       ??_C@_0M@IGON@MFC42UD?4DLL?$AA@ 5f58b054   dllole.obj
 0002:00000060       ??_C@_1DE@GHMD@?$AAR?$AAi?$AAc?$AAh?$AAE?$AAd?$AAi?$AAt?$AA?5?$AAT?$AAe?$AAx?$AAt?$AA?5?$AAa?$AAn?$AAd?$AA?5?$AAO?$AAb@ 5f58b060   oleinit.obj
 0002:00000094       ??_C@_1CC@FCIJ@?$AAR?$AAi?$AAc?$AAh?$AA?5?$AAT?$AAe?$AAx?$AAt?$AA?5?$AAF?$AAo?$AAr?$AAm?$AAa?$AAt?$AA?$AA?$AA?$AA?$AA?$AH?$AA?$AA@ 5f58b094   oleinit.obj
 0002:000000b8       ??_C@_1BE@OIFD@?$AAF?$AAi?$AAl?$AAe?$AAN?$AAa?$AAm?$AAe?$AAW?$AA?$AA?$AA?$AH?$AA?$AA?$AA?$AA?$AA?$AA?6?$AF?$:O?$AA?$BE?$AA?$AB?$CI?$DM?$AB?$DN@ 5f58b0b8   oleinit.obj
 0002:000000cc       ??_C@_1BC@LEEL@?$AAF?$AAi?$AAl?$AAe?$AAN?$AAa?$AAm?$AAe?$AA?$AA?$AA?$AA?$AA?$AH?$AA?$AA?$AA?$AA?$AA?$AA?7?$AF?$:O?$AA?$BC?$AA?$AB@ 5f58b0cc   oleinit.obj
 0002:000000e0       ??_C@_1CO@MJBN@?$AAL?$AAi?$AAn?$AAk?$AA?5?$AAS?$AAo?$AAu?$AAr?$AAc?$AAe?$AA?5?$AAD?$AAe?$AAs?$AAc?$AAr?$AAi?$AAp?$AAt@ 5f58b0e0   oleinit.obj
 0002:00000110       ??_C@_1CE@PGMB@?$AAO?$AAb?$AAj?$AAe?$AAc?$AAt?$AA?5?$AAD?$AAe?$AAs?$AAc?$AAr?$AAi?$AAp?$AAt?$AAo?$AAr?$AA?$AA?$AA?$AH?$AA?$AA@ 5f58b110   oleinit.obj
 0002:00000134       ??_C@_1BI@PBNI@?$AAL?$AAi?$AAn?$AAk?$AA?5?$AAS?$AAo?$AAu?$AAr?$AAc?$AAe?$AA?$AA?$AA?$AH?$AA?$AA?$AA?$AA?$AA?$AA?$AH?$AA?$AF?$:O?$AA?$BI?$AA?$AB@ 5f58b134   oleinit.obj
 0002:0000014c       ??_C@_1BK@EEJA@?$AAE?$AAm?$AAb?$AAe?$AAd?$AA?5?$AAS?$AAo?$AAu?$AAr?$AAc?$AAe?$AA?$AA?$AA?$AA?$AA?$AH?$AA?$AA?$AA?$AA?$AA?$AA?$AG?$BA?$AF?$:O@ 5f58b14c   oleinit.obj
 0002:00000168       ??_C@_1CA@NPFJ@?$AAE?$AAm?$AAb?$AAe?$AAd?$AAd?$AAe?$AAd?$AA?5?$AAO?$AAb?$AAj?$AAe?$AAc?$AAt?$AA?$AA?$AA?$AH?$AA?$AA?$AA?$AA?$AA?$AA@ 5f58b168   oleinit.obj
 0002:00000188       ??_C@_1BG@JFDH@?$AAO?$AAb?$AAj?$AAe?$AAc?$AAt?$AAL?$AAi?$AAn?$AAk?$AA?$AA?$AA?$AA?$AA?$AH?$AA?$AA?$AA?$AA?$AA?$AA?$AE0?$AF?$:O?$AA?$BG?$AA?$AB@ 5f58b188   oleinit.obj
 0002:000001a0       ??_C@_1BE@MPFF@?$AAO?$AAw?$AAn?$AAe?$AAr?$AAL?$AAi?$AAn?$AAk?$AA?$AA?$AA?$AH?$AA?$AA?$AA?$AA?$AA?$AA?$ADH?$AF?$:O?$AA?$BE?$AA?$AB?$CI?$DM?$AB?$DN@ 5f58b1a0   oleinit.obj
 0002:000001b4       ??_C@_1O@OGPB@?$AAN?$AAa?$AAt?$AAi?$AAv?$AAe?$AA?$AA?$AA?$AA?$AA?$AH?$AA?$AA?$AA?$AA?$AA?$AA?$ACd?$AF?$:O@ 5f58b1b4   oleinit.obj
 0002:000001c4       ??_C@_1FK@FCNG@?$AAW?$AAa?$AAr?$AAn?$AAi?$AAn?$AAg?$AA?3?$AA?5?$AAO?$AAl?$AAe?$AAI?$AAn?$AAi?$AAt?$AAi?$AAa?$AAl?$AAi@ 5f58b1c4   oleinit.obj
 0002:00000220       ??_C@_1BE@IDHE@?$AAE?$AAm?$AAb?$AAe?$AAd?$AAd?$AAi?$AAn?$AAg?$AA?$AA?$AA?$AH?$AA?$AA?$AA?$AA?$AA?$AA?$AG?$CI?$AF?$:O?$AA?$BE?$AA?$AB?$AA?$AA?$AA?$AA@ 5f58b220   oleinit.obj
 0002:00000234       ??_C@_1BG@GHOC@?$AAA?$AAu?$AAt?$AAo?$AAm?$AAa?$AAt?$AAi?$AAo?$AAn?$AA?$AA?$AA?$AA?$AA?$AH?$AA?$AA?$AA?$AA?$AA?$AA?$AG?$CI?$AF?$:O?$AA?$BG?$AA?$AB@ 5f58b234   oleinit.obj
 0002:0000024c       ??_C@_0P@EIOM@COleLinkingDoc?$AA@ 5f58b24c   olecli1.obj
 0002:00000260       ?interfaceMap@COleClientItem@@1UAFX_INTERFACEMAP@@B 5f58b260   olecli1.obj
 0002:00000268       ?_interfaceEntries@COleClientItem@@0PBUAFX_INTERFACEMAP_ENTRY@@B 5f58b268   olecli1.obj
 0002:00000290       ?classCOleLinkingDoc@COleLinkingDoc@@2UCRuntimeClass@@B 5f58b290   olecli1.obj
 0002:000002ac       ??_7COleClientItem@@6B@    5f58b2ac   olecli1.obj
 0002:0000039c       ??_7XOleClientSite@COleClientItem@@6B@ 5f58b39c   olecli1.obj
 0002:000003c4       ??_7XAdviseSink@COleClientItem@@6B@ 5f58b3c4   olecli1.obj
 0002:000003ec       ??_7XOleIPSite@COleClientItem@@6B@ 5f58b3ec   olecli1.obj
 0002:0000042c       ??_7IOleClientSite@@6B@    5f58b42c   olecli1.obj
 0002:00000454       ??_7IAdviseSink@@6B@       5f58b454   olecli1.obj
 0002:0000047c       ??_7IOleInPlaceSite@@6B@   5f58b47c   olecli1.obj
 0002:000004bc       ??_7IUnknown@@6B@          5f58b4bc   olecli1.obj
 0002:000004cc       ??_7IOleWindow@@6B@        5f58b4cc   olecli1.obj
 0002:000004e0       ??_C@_1BM@EINE@?$AAE?$AAm?$AAb?$AAe?$AAd?$AAd?$AAi?$AAn?$AAg?$AA?5?$AA?$CF?$AAl?$AAu?$AA?$AA?$AA?$AH?$AA?$AA?$AA?$AA?$AA?$AA?$AHx?$AF?$:O@ 5f58b4e0   olecli1.obj
 0002:000004fc       ??_C@_1FK@OGLE@?$AAW?$AAa?$AAr?$AAn?$AAi?$AAn?$AAg?$AA?3?$AA?5?$AAu?$AAn?$AAa?$AAb?$AAl?$AAe?$AA?5?$AAt?$AAo?$AA?5?$AAc@ 5f58b4fc   olecli1.obj
 0002:00000558       ??_C@_15DEDE@?$AA?$CF?$AAs?$AA?$AA?$AA?$AA?$AA?$AH?$AA?$AA@ 5f58b558   olecli1.obj
 0002:00000560       ??_C@_1IA@HDKC@?$AAW?$AAa?$AAr?$AAn?$AAi?$AAn?$AAg?$AA?5?$AAO?$AAn?$AAN?$AAe?$AAw?$AAD?$AAo?$AAc?$AAu?$AAm?$AAe?$AAn@ 5f58b560   olecli1.obj
 0002:000005e0       ??_C@_1FG@DBGB@?$AAW?$AAa?$AAr?$AAn?$AAi?$AAn?$AAg?$AA?3?$AA?5?$AAu?$AAn?$AAa?$AAb?$AAl?$AAe?$AA?5?$AAt?$AAo?$AA?5?$AAo@ 5f58b5e0   olecli1.obj
 0002:00000638       ??_C@_1GO@MCKF@?$AAW?$AAa?$AAr?$AAn?$AAi?$AAn?$AAg?$AA?3?$AA?5?$AAo?$AAb?$AAj?$AAe?$AAc?$AAt?$AA?5?$AAd?$AAo?$AAe?$AAs@ 5f58b638   olecli1.obj
 0002:000006a8       ??_C@_1GE@CFGJ@?$AAW?$AAa?$AAr?$AAn?$AAi?$AAn?$AAg?$AA?3?$AA?5?$AAu?$AAn?$AAa?$AAb?$AAl?$AAe?$AA?5?$AAt?$AAo?$AA?5?$AAg@ 5f58b6a8   olecli1.obj
 0002:0000070c       ??_C@_1GE@FDMC@?$AAW?$AAa?$AAr?$AAn?$AAi?$AAn?$AAg?$AA?3?$AA?5?$AAu?$AAn?$AAa?$AAb?$AAl?$AAe?$AA?5?$AAt?$AAo?$AA?5?$AAg@ 5f58b70c   olecli1.obj
 0002:00000770       ??_C@_13HMCP@?$AA?2?$AA?$AA?$AA?$AH?$AA?$AA@ 5f58b770   olecli1.obj
 0002:00000774       ??_C@_0BB@JMCJ@?6m_hWndServer?5?$DN?5?$AA@ 5f58b774   olecli1.obj
 0002:00000788       ??_C@_0BE@DEMF@?6m_pInPlaceFrame?5?$DN?5?$AA@ 5f58b788   olecli1.obj
 0002:0000079c       ??_C@_0BH@JIDM@?6m_dwContainerStyle?5?$DN?5?$AA@ 5f58b79c   olecli1.obj
 0002:000007b4       ??_C@_0M@EFKC@?6m_pView?5?$DN?5?$AA@ 5f58b7b4   olecli1.obj
 0002:000007c0       ??_C@_0BB@JNMD@?6m_nItemState?5?$DN?5?$AA@ 5f58b7c0   olecli1.obj
 0002:000007d4       ??_C@_0BC@CJ@?6m_bNeedCommit?5?$DN?5?$AA@ 5f58b7d4   olecli1.obj
 0002:000007e8       ??_C@_0BD@DFML@?6m_lpNewStorage?5?$DN?5?$AA@ 5f58b7e8   olecli1.obj
 0002:000007fc       ??_C@_0P@HJAA@?6m_bMoniker?5?$DN?5?$AA@ 5f58b7fc   olecli1.obj
 0002:0000080c       ??_C@_0BD@CALL@?6m_bLinkUnavail?5?$DN?5?$AA@ 5f58b80c   olecli1.obj
 0002:00000820       ??_C@_0BD@DPMG@?6m_dwConnection?5?$DN?5?$AA@ 5f58b820   olecli1.obj
 0002:00000834       ??_C@_0BC@DIDM@?6m_lpLockBytes?5?$DN?5?$AA@ 5f58b834   olecli1.obj
 0002:00000848       ??_C@_0BA@LKEM@?6m_lpStorage?5?$DN?5?$AA@ 5f58b848   olecli1.obj
 0002:00000858       ??_C@_0N@EFDC@?6m_scLast?5?$DN?5?$AA@ 5f58b858   olecli1.obj
 0002:00000868       ??_C@_0BC@DBNB@?6m_nDrawAspect?5?$DN?5?$AA@ 5f58b868   olecli1.obj
 0002:0000087c       ??_C@_0BD@MOJB@?6m_dwItemNumber?5?$DN?5?$AA@ 5f58b87c   olecli1.obj
 0002:00000890       ??_C@_0O@EOEE@m_lpObject?5?$DN?5?$AA@ 5f58b890   olecli1.obj
 0002:000008a0       ?interfaceMap@COleFrameHook@@1UAFX_INTERFACEMAP@@B 5f58b8a0   olecli2.obj
 0002:000008a8       ?_interfaceEntries@COleFrameHook@@0PBUAFX_INTERFACEMAP_ENTRY@@B 5f58b8a8   olecli2.obj
 0002:000008cc       ??_7COleFrameHook@@6B@     5f58b8cc   olecli2.obj
 0002:0000094c       ??_7XOleInPlaceFrame@COleFrameHook@@6B@ 5f58b94c   olecli2.obj
 0002:0000098c       ??_7IOleInPlaceFrame@@6B@  5f58b98c   olecli2.obj
 0002:000009cc       ??_7IOleInPlaceUIWindow@@6B@ 5f58b9cc   olecli2.obj
 0002:000009f0       ??_C@_0BP@CJDN@d?3?2msdev?2mfc?2include?2afxtls_?4h?$AA@ 5f58b9f0   olecli2.obj
 0002:00000a10       ??_C@_1FC@ECEN@?$AAW?$AAa?$AAr?$AAn?$AAi?$AAn?$AAg?$AA?3?$AA?5?$AAo?$AAp?$AAe?$AAr?$AAa?$AAt?$AAi?$AAo?$AAn?$AA?5?$AAr@ 5f58ba10   olecli3.obj
 0002:00000a68       ?interfaceMap@CEnumFormatEtc@@1UAFX_INTERFACEMAP@@B 5f58ba68   oledobj2.obj
 0002:00000a70       ?_interfaceEntries@CEnumFormatEtc@@0PBUAFX_INTERFACEMAP_ENTRY@@B 5f58ba70   oledobj2.obj
 0002:00000a80       ?interfaceMap@COleDataSource@@1UAFX_INTERFACEMAP@@B 5f58ba80   oledobj2.obj
 0002:00000a88       ?_interfaceEntries@COleDataSource@@0PBUAFX_INTERFACEMAP_ENTRY@@B 5f58ba88   oledobj2.obj
 0002:00000a9c       ??_7COleDataSource@@6B@    5f58ba9c   oledobj2.obj
 0002:00000b0c       ??_7XDataObject@COleDataSource@@6B@ 5f58bb0c   oledobj2.obj
 0002:00000b44       ??_7IDataObject@@6B@       5f58bb44   oledobj2.obj
 0002:00000b7c       ??_7CEnumFormatEtc@@6B@    5f58bb7c   oledobj2.obj
 0002:00000be4       ??_C@_01BJG@?6?$AA@        5f58bbe4   oledobj2.obj
 0002:00000be8       ??_C@_03JNEF@?6?7?$HN?$AA@ 5f58bbe8   oledobj2.obj
 0002:00000bec       ??_C@_0BB@GMOB@?6?7?5m_nDataDir?5?$DN?5?$AA@ 5f58bbec   oledobj2.obj
 0002:00000c00       ??_C@_0BI@PNP@?6?7?5m_stgMedium?4tymed?5?$DN?5?$AA@ 5f58bc00   oledobj2.obj
 0002:00000c18       ??_C@_0BI@EFAF@?6?7?5m_formatEtc?4tymed?5?$DN?5?$AA@ 5f58bc18   oledobj2.obj
 0002:00000c30       ??_C@_0BJ@LPOO@?6?7?5m_formatEtc?4lindex?5?$DN?5?$AA@ 5f58bc30   oledobj2.obj
 0002:00000c4c       ??_C@_0BL@HFLA@?6?7?5m_formatEtc?4dwAspect?5?$DN?5?$AA@ 5f58bc4c   oledobj2.obj
 0002:00000c68       ??_C@_0BG@LHAO@?6?7?5m_formatEtc?4pdt?5?$DN?5?$AA@ 5f58bc68   oledobj2.obj
 0002:00000c80       ??_C@_0BL@IPEG@?6?7?5m_formatEtc?4cfFormat?5?$DN?5?$AA@ 5f58bc80   oledobj2.obj
 0002:00000c9c       ??_C@_05EJJM@?$FN?5?$DN?5?$HL?$AA@ 5f58bc9c   oledobj2.obj
 0002:00000ca4       ??_C@_09EIHB@?6?7entry?5?$FL?$AA@ 5f58bca4   oledobj2.obj
 0002:00000cb0       ??_C@_0BB@IFBL@?6m_pDataCache?5?$DN?5?$AA@ 5f58bcb0   oledobj2.obj
 0002:00000cc4       ??_C@_0M@NOBL@?6m_nSize?5?$DN?5?$AA@ 5f58bcc4   oledobj2.obj
 0002:00000cd0       ??_C@_0O@JNKF@m_nMaxSize?5?$DN?5?$AA@ 5f58bcd0   oledobj2.obj
 0002:00000ce0       ??_C@_0BG@OGI@COleDispatchException?$AA@ 5f58bce0   oledisp1.obj
 0002:00000da0       ?classCOleDispatchException@COleDispatchException@@2UCRuntimeClass@@B 5f58bda0   oledisp1.obj
 0002:00000db8       ??_C@_1FO@OBOM@?$AAW?$AAa?$AAr?$AAn?$AAi?$AAn?$AAg?$AA?3?$AA?5?$AAa?$AAu?$AAt?$AAo?$AAm?$AAa?$AAt?$AAi?$AAo?$AAn?$AA?5@ 5f58bdb8   oledisp1.obj
 0002:00000e1c       ??_7COleDispatchImpl@@6B@  5f58be1c   oledisp1.obj
 0002:00000e44       ??_7IDispatch@@6B@         5f58be44   oledisp1.obj
 0002:00000e60       ??_C@_1FO@CJEA@?$AAW?$AAa?$AAr?$AAn?$AAi?$AAn?$AAg?$AA?3?$AA?5?$AAa?$AAu?$AAt?$AAo?$AAm?$AAa?$AAt?$AAi?$AAo?$AAn?$AA?5@ 5f58be60   oledisp1.obj
 0002:00000ec0       ??_C@_1FK@ODHN@?$AAE?$AAr?$AAr?$AAo?$AAr?$AA?3?$AA?5?$AAs?$AAt?$AAa?$AAc?$AAk?$AA?5?$AAo?$AAv?$AAe?$AAr?$AAf?$AAl?$AAo@ 5f58bec0   oledisp1.obj
 0002:00000f24       ??_7COleDispatchException@@6B@ 5f58bf24   oledisp1.obj
 0002:00000f40       ??_C@_1FO@CAPH@?$AAW?$AAa?$AAr?$AAn?$AAi?$AAn?$AAg?$AA?3?$AA?5?$AAC?$AAr?$AAe?$AAa?$AAt?$AAe?$AAD?$AAi?$AAs?$AAp?$AAa@ 5f58bf40   oledisp2.obj
 0002:00000fa0       ??_C@_1GG@NHJK@?$AAW?$AAa?$AAr?$AAn?$AAi?$AAn?$AAg?$AA?3?$AA?5?$AAa?$AAu?$AAt?$AAo?$AAm?$AAa?$AAt?$AAi?$AAo?$AAn?$AA?5@ 5f58bfa0   oledisp2.obj
 0002:00001008       ??_C@_1HC@POEP@?$AAW?$AAa?$AAr?$AAn?$AAi?$AAn?$AAg?$AA?3?$AA?5?$AAa?$AAt?$AAt?$AAe?$AAm?$AAp?$AAt?$AA?5?$AAt?$AAo?$AA?5@ 5f58c008   oledisp2.obj
 0002:0000107c       ??_C@_0BH@NAFF@COlePasteSpecialDialog?$AA@ 5f58c07c   oledlgs1.obj
 0002:00001094       ??_C@_0BB@HGD@COleUpdateDialog?$AA@ 5f58c094   oledlgs1.obj
 0002:000010a8       ??_C@_0BA@PIHM@COleLinksDialog?$AA@ 5f58c0a8   oledlgs1.obj
 0002:000010b8       ??_C@_0BF@JMPM@COleChangeIconDialog?$AA@ 5f58c0b8   oledlgs1.obj
 0002:000010d0       ??_C@_0BC@CIPN@COleConvertDialog?$AA@ 5f58c0d0   oledlgs1.obj
 0002:000010e4       ??_C@_0BB@KPPE@COleInsertDialog?$AA@ 5f58c0e4   oledlgs1.obj
 0002:000010f8       ?classCOleInsertDialog@COleInsertDialog@@2UCRuntimeClass@@B 5f58c0f8   oledlgs1.obj
 0002:00001110       ?classCOleConvertDialog@COleConvertDialog@@2UCRuntimeClass@@B 5f58c110   oledlgs1.obj
 0002:00001128       ?classCOleChangeIconDialog@COleChangeIconDialog@@2UCRuntimeClass@@B 5f58c128   oledlgs1.obj
 0002:00001140       ?classCOleLinksDialog@COleLinksDialog@@2UCRuntimeClass@@B 5f58c140   oledlgs1.obj
 0002:00001158       ?classCOleUpdateDialog@COleUpdateDialog@@2UCRuntimeClass@@B 5f58c158   oledlgs1.obj
 0002:00001170       ?classCOlePasteSpecialDialog@COlePasteSpecialDialog@@2UCRuntimeClass@@B 5f58c170   oledlgs1.obj
 0002:0000118c       ??_7COleUILinkInfo@@6B@    5f58c18c   oledlgs1.obj
 0002:000011c4       ??_7IOleUILinkInfoW@@6B@   5f58c1c4   oledlgs1.obj
 0002:000011fc       ??_7IOleUILinkContainerW@@6B@ 5f58c1fc   oledlgs1.obj
 0002:0000122c       ??_7COleInsertDialog@@6B@  5f58c22c   oledlgs1.obj
 0002:00001304       ??_C@_1GK@ODNE@?$AAW?$AAa?$AAr?$AAn?$AAi?$AAn?$AAg?$AA?3?$AA?5?$AAf?$AAa?$AAi?$AAl?$AAe?$AAd?$AA?5?$AAt?$AAo?$AA?5?$AAs@ 5f58c304   oledlgs1.obj
 0002:00001370       ??_C@_0BD@CHHM@?6m_io?4hMetaPict?5?$DN?5?$AA@ 5f58c370   oledlgs1.obj
 0002:00001384       ??_C@_0DB@BLDH@?6hook?5function?5set?5to?5non?9standa@ 5f58c384   oledlgs1.obj
 0002:000013b8       ??_C@_0DB@MAOJ@?6hook?5function?5set?5to?5standard?5M@ 5f58c3b8   oledlgs1.obj
 0002:000013ec       ??_C@_0BD@IPNN@?6m_io?4hResource?5?$DN?5?$AA@ 5f58c3ec   oledlgs1.obj
 0002:00001400       ??_C@_0BG@EDJJ@?6m_io?4lpszTemplate?5?$DN?5?$AA@ 5f58c400   oledlgs1.obj
 0002:00001418       ??_C@_0BD@ELPK@?6m_io?4hInstance?5?$DN?5?$AA@ 5f58c418   oledlgs1.obj
 0002:0000142c       ??_C@_0BD@JLLA@?6m_io?4lCustData?5?$DN?5?$AA@ 5f58c42c   oledlgs1.obj
 0002:00001440       ??_C@_0BF@PECB@?6m_io?4lpszCaption?5?$DN?5?$AA@ 5f58c440   oledlgs1.obj
 0002:00001458       ??_C@_0BD@NMHJ@?6m_io?4hWndOwner?5?$DN?5?$AA@ 5f58c458   oledlgs1.obj
 0002:0000146c       ??_C@_0BB@FCGN@?6m_io?4dwFlags?5?$DN?5?$AA@ 5f58c46c   oledlgs1.obj
 0002:00001480       ??_C@_0BC@LPPE@?6m_io?4cbStruct?5?$DN?5?$AA@ 5f58c480   oledlgs1.obj
 0002:00001494       ??_C@_0BA@KFFI@m_szFileName?5?$DN?5?$AA@ 5f58c494   oledlgs1.obj
 0002:000014ac       ??_7COleConvertDialog@@6B@ 5f58c4ac   oledlgs1.obj
 0002:00001584       ??_C@_0BN@NCPK@?6m_cv?4fObjectsIconChanged?5?$DN?5?$AA@ 5f58c584   oledlgs1.obj
 0002:000015a4       ??_C@_0BG@FMAM@?6m_cv?4lpszUserType?5?$DN?5?$AA@ 5f58c5a4   oledlgs1.obj
 0002:000015bc       ??_C@_0BD@BAPC@?6m_cv?4hMetaPict?5?$DN?5?$AA@ 5f58c5bc   oledlgs1.obj
 0002:000015d0       ??_C@_0BJ@PDJL@?6m_cv?4fIsLinkedObject?5?$DN?5?$AA@ 5f58c5d0   oledlgs1.obj
 0002:000015ec       ??_C@_0BB@NDIA@?6m_cv?4wFormat?5?$DN?5?$AA@ 5f58c5ec   oledlgs1.obj
 0002:00001600       ??_C@_0BC@DIHB@?6m_cv?4dvAspect?5?$DN?5?$AA@ 5f58c600   oledlgs1.obj
 0002:00001614       ??_C@_0BD@LIFD@?6m_cv?4hResource?5?$DN?5?$AA@ 5f58c614   oledlgs1.obj
 0002:00001628       ??_C@_0BG@NAOD@?6m_cv?4lpszTemplate?5?$DN?5?$AA@ 5f58c628   oledlgs1.obj
 0002:00001640       ??_C@_0BD@HMHE@?6m_cv?4hInstance?5?$DN?5?$AA@ 5f58c640   oledlgs1.obj
 0002:00001654       ??_C@_0BD@KMDO@?6m_cv?4lCustData?5?$DN?5?$AA@ 5f58c654   oledlgs1.obj
 0002:00001668       ??_C@_0BF@IOJB@?6m_cv?4lpszCaption?5?$DN?5?$AA@ 5f58c668   oledlgs1.obj
 0002:00001680       ??_C@_0BD@OLPH@?6m_cv?4hWndOwner?5?$DN?5?$AA@ 5f58c680   oledlgs1.obj
 0002:00001694       ??_C@_0BB@KHMP@?6m_cv?4dwFlags?5?$DN?5?$AA@ 5f58c694   oledlgs1.obj
 0002:000016a8       ??_C@_0BB@HIEM@m_cv?4cbStruct?5?$DN?5?$AA@ 5f58c6a8   oledlgs1.obj
 0002:000016c4       ??_7COleChangeIconDialog@@6B@ 5f58c6c4   oledlgs1.obj
 0002:0000179c       ??_C@_0BD@HGNJ@?6m_ci?4hMetaPict?5?$DN?5?$AA@ 5f58c79c   oledlgs1.obj
 0002:000017b0       ??_C@_0BD@NOHI@?6m_ci?4hResource?5?$DN?5?$AA@ 5f58c7b0   oledlgs1.obj
 0002:000017c4       ??_C@_0BG@PPBE@?6m_ci?4lpszTemplate?5?$DN?5?$AA@ 5f58c7c4   oledlgs1.obj
 0002:000017dc       ??_C@_0BD@BKFP@?6m_ci?4hInstance?5?$DN?5?$AA@ 5f58c7dc   oledlgs1.obj
 0002:000017f0       ??_C@_0BD@MKBF@?6m_ci?4lCustData?5?$DN?5?$AA@ 5f58c7f0   oledlgs1.obj
 0002:00001804       ??_C@_0BF@HJOD@?6m_ci?4lpszCaption?5?$DN?5?$AA@ 5f58c804   oledlgs1.obj
 0002:0000181c       ??_C@_0BD@INNM@?6m_ci?4hWndOwner?5?$DN?5?$AA@ 5f58c81c   oledlgs1.obj
 0002:00001830       ??_C@_0BB@BHKG@?6m_ci?4dwFlags?5?$DN?5?$AA@ 5f58c830   oledlgs1.obj
 0002:00001844       ??_C@_0BB@FDPM@m_ci?4cbStruct?5?$DN?5?$AA@ 5f58c844   oledlgs1.obj
 0002:0000185c       ??_7COleLinksDialog@@6B@   5f58c85c   oledlgs1.obj
 0002:00001934       ??_C@_0BD@HAKN@?6m_el?4hResource?5?$DN?5?$AA@ 5f58c934   oledlgs1.obj
 0002:00001948       ??_C@_0BG@KHIK@?6m_el?4lpszTemplate?5?$DN?5?$AA@ 5f58c948   oledlgs1.obj
 0002:00001960       ??_C@_0BD@LEIK@?6m_el?4hInstance?5?$DN?5?$AA@ 5f58c960   oledlgs1.obj
 0002:00001974       ??_C@_0BD@GEMA@?6m_el?4lCustData?5?$DN?5?$AA@ 5f58c974   oledlgs1.obj
 0002:00001988       ??_C@_0BF@OHOP@?6m_el?4lpszCaption?5?$DN?5?$AA@ 5f58c988   oledlgs1.obj
 0002:000019a0       ??_C@_0BD@CDAJ@?6m_el?4hWndOwner?5?$DN?5?$AA@ 5f58c9a0   oledlgs1.obj
 0002:000019b4       ??_C@_0BB@CKIK@?6m_el?4dwFlags?5?$DN?5?$AA@ 5f58c9b4   oledlgs1.obj
 0002:000019c8       ??_C@_0BC@MPIM@?6m_el?4cbStruct?5?$DN?5?$AA@ 5f58c9c8   oledlgs1.obj
 0002:000019e4       ??_7COleUpdateDialog@@6B@  5f58c9e4   oledlgs1.obj
 0002:00001abc       ??_C@_0BA@OFIG@m_strCaption?5?$DN?5?$AA@ 5f58cabc   oledlgs1.obj
 0002:00001ad4       ??_7COlePasteSpecialDialog@@6B@ 5f58cad4   oledlgs1.obj
 0002:00001bac       ??_C@_0P@JJLH@?6m_ps?4fLink?5?$DN?5?$AA@ 5f58cbac   oledlgs1.obj
 0002:00001bbc       ??_C@_0BI@PHBO@?6m_ps?4nSelectedIndex?5?$DN?5?$AA@ 5f58cbbc   oledlgs1.obj
 0002:00001bd4       ??_C@_0BE@OPOD@?6m_ps?4cLinkTypes?5?$DN?5?$AA@ 5f58cbd4   oledlgs1.obj
 0002:00001be8       ??_C@_0BH@IOIO@?6m_ps?4cPasteEntries?5?$DN?5?$AA@ 5f58cbe8   oledlgs1.obj
 0002:00001c00       ??_C@_0BG@GBAG@?6m_ps?4lpSrcDataObj?5?$DN?5?$AA@ 5f58cc00   oledlgs1.obj
 0002:00001c18       ??_C@_0BD@PEKC@?6m_ps?4hResource?5?$DN?5?$AA@ 5f58cc18   oledlgs1.obj
 0002:00001c2c       ??_C@_0BG@JFBL@?6m_ps?4lpszTemplate?5?$DN?5?$AA@ 5f58cc2c   oledlgs1.obj
 0002:00001c44       ??_C@_0BD@DAIF@?6m_ps?4hInstance?5?$DN?5?$AA@ 5f58cc44   oledlgs1.obj
 0002:00001c58       ??_C@_0BD@OAMP@?6m_ps?4lCustData?5?$DN?5?$AA@ 5f58cc58   oledlgs1.obj
 0002:00001c6c       ??_C@_0BF@HGCH@?6m_ps?4lpszCaption?5?$DN?5?$AA@ 5f58cc6c   oledlgs1.obj
 0002:00001c84       ??_C@_0BD@KHAG@?6m_ps?4hWndOwner?5?$DN?5?$AA@ 5f58cc84   oledlgs1.obj
 0002:00001c98       ??_C@_0BB@JIOH@?6m_ps?4dwFlags?5?$DN?5?$AA@ 5f58cc98   oledlgs1.obj
 0002:00001cac       ??_C@_0BB@IJHD@m_ps?4cbStruct?5?$DN?5?$AA@ 5f58ccac   oledlgs1.obj
 0002:00001cc0       ??_C@_1EO@DNCJ@?$AAW?$AAa?$AAr?$AAn?$AAi?$AAn?$AAg?$AA?3?$AA?5?$AAf?$AAa?$AAi?$AAl?$AAe?$AAd?$AA?5?$AAt?$AAo?$AA?5?$AAs@ 5f58ccc0   oledlgs1.obj
 0002:00001d10       ??_C@_1EC@EONM@?$AAW?$AAa?$AAr?$AAn?$AAi?$AAn?$AAg?$AA?3?$AA?5?$AAC?$AAr?$AAe?$AAa?$AAt?$AAe?$AAF?$AAr?$AAo?$AAm?$AAD@ 5f58cd10   oledlgs1.obj
 0002:00001d54       ??_C@_1EO@GNLD@?$AAW?$AAa?$AAr?$AAn?$AAi?$AAn?$AAg?$AA?3?$AA?5?$AAC?$AAr?$AAe?$AAa?$AAt?$AAe?$AAS?$AAt?$AAa?$AAt?$AAi@ 5f58cd54   oledlgs1.obj
 0002:00001da4       ??_C@_1EK@LAB@?$AAW?$AAa?$AAr?$AAn?$AAi?$AAn?$AAg?$AA?3?$AA?5?$AAC?$AAr?$AAe?$AAa?$AAt?$AAe?$AAL?$AAi?$AAn?$AAk?$AAF@ 5f58cda4   oledlgs1.obj
 0002:00001df0       ??_C@_0P@CLOH@COleBusyDialog?$AA@ 5f58cdf0   oledlgs2.obj
 0002:00001e00       ??_C@_0L@HMIO@COleDialog?$AA@ 5f58ce00   oledlgs2.obj
 0002:00001e10       ?classCOleDialog@COleDialog@@2UCRuntimeClass@@B 5f58ce10   oledlgs2.obj
 0002:00001e28       ?classCOleBusyDialog@COleBusyDialog@@2UCRuntimeClass@@B 5f58ce28   oledlgs2.obj
 0002:00001e44       ??_7COleDialog@@6B@        5f58ce44   oledlgs2.obj
 0002:00001f1c       ??_C@_0BA@LHGD@m_nLastError?5?$DN?5?$AA@ 5f58cf1c   oledlgs2.obj
 0002:00001f34       ??_7COleBusyDialog@@6B@    5f58cf34   oledlgs2.obj
 0002:0000200c       ??_C@_0P@PHCO@?6m_bz?4hTask?5?$DN?5?$AA@ 5f58d00c   oledlgs2.obj
 0002:0000201c       ??_C@_0BD@PJDN@?6m_bz?4hResource?5?$DN?5?$AA@ 5f58d01c   oledlgs2.obj
 0002:00002030       ??_C@_0BG@LEJO@?6m_bz?4lpszTemplate?5?$DN?5?$AA@ 5f58d030   oledlgs2.obj
 0002:00002048       ??_C@_0BD@DNBK@?6m_bz?4hInstance?5?$DN?5?$AA@ 5f58d048   oledlgs2.obj
 0002:0000205c       ??_C@_0BD@ONFA@?6m_bz?4lCustData?5?$DN?5?$AA@ 5f58d05c   oledlgs2.obj
 0002:00002070       ??_C@_0BF@PDKP@?6m_bz?4lpszCaption?5?$DN?5?$AA@ 5f58d070   oledlgs2.obj
 0002:00002088       ??_C@_0BD@KKJJ@?6m_bz?4hWndOwner?5?$DN?5?$AA@ 5f58d088   oledlgs2.obj
 0002:0000209c       ??_C@_0BB@COFM@?6m_bz?4dwFlags?5?$DN?5?$AA@ 5f58d09c   oledlgs2.obj
 0002:000020b0       ??_C@_0BB@BGMF@m_bz?4cbStruct?5?$DN?5?$AA@ 5f58d0b0   oledlgs2.obj
 0002:000020c4       ??_C@_0BH@HBLJ@COleChangeSourceDialog?$AA@ 5f58d0c4   oledlgs3.obj
 0002:000020dc       ??_C@_0BF@IDJJ@COlePropertiesDialog?$AA@ 5f58d0dc   oledlgs3.obj
 0002:000020f8       ?classCOlePropertiesDialog@COlePropertiesDialog@@2UCRuntimeClass@@B 5f58d0f8   oledlgs3.obj
 0002:00002110       ?classCOleChangeSourceDialog@COleChangeSourceDialog@@2UCRuntimeClass@@B 5f58d110   oledlgs3.obj
 0002:0000212c       ??_7COlePropertiesDialog@@6B@ 5f58d12c   oledlgs3.obj
 0002:0000220c       ??_7XOleUIObjInfo@COlePropertiesDialog@@6B@ 5f58d20c   oledlgs3.obj
 0002:00002234       ??_7IOleUIObjInfoW@@6B@    5f58d234   oledlgs3.obj
 0002:0000225c       ??_7COleChangeSourceDialog@@6B@ 5f58d25c   oledlgs3.obj
 0002:00002334       ??_C@_0BD@JJEH@?6m_cs?4hResource?5?$DN?5?$AA@ 5f58d334   oledlgs3.obj
 0002:00002348       ??_C@_0BG@PEEF@?6m_cs?4lpszTemplate?5?$DN?5?$AA@ 5f58d348   oledlgs3.obj
 0002:00002360       ??_C@_0BD@FNGA@?6m_cs?4hInstance?5?$DN?5?$AA@ 5f58d360   oledlgs3.obj
 0002:00002374       ??_C@_0BD@INCK@?6m_cs?4lCustData?5?$DN?5?$AA@ 5f58d374   oledlgs3.obj
 0002:00002388       ??_C@_0BF@CIFJ@?6m_cs?4lpszCaption?5?$DN?5?$AA@ 5f58d388   oledlgs3.obj
 0002:000023a0       ??_C@_0BD@MKOD@?6m_cs?4hWndOwner?5?$DN?5?$AA@ 5f58d3a0   oledlgs3.obj
 0002:000023b4       ??_C@_0BB@HNIP@?6m_cs?4dwFlags?5?$DN?5?$AA@ 5f58d3b4   oledlgs3.obj
 0002:000023c8       ??_C@_0BB@GMJG@m_cs?4cbStruct?5?$DN?5?$AA@ 5f58d3c8   oledlgs3.obj
 0002:000023dc       ??_C@_0O@BGLP@SysFreeString?$AA@ 5f58d3dc   oledata.obj
 0002:000023ec       ??_C@_0N@NEJH@OLEAUT32?4DLL?$AA@ 5f58d3ec   oledata.obj
 0002:000023fc       ??_C@_0BG@IMDN@SysAllocStringByteLen?$AA@ 5f58d3fc   oledata.obj
 0002:00002414       ??_C@_0M@DCEG@VariantCopy?$AA@ 5f58d414   oledata.obj
 0002:00002420       ??_C@_0N@FFGB@VariantClear?$AA@ 5f58d420   oledata.obj
 0002:00002430       ??_C@_0BC@KHNL@VariantChangeType?$AA@ 5f58d430   oledata.obj
 0002:00002444       ??_C@_0BC@IFPH@SysAllocStringLen?$AA@ 5f58d444   oledata.obj
 0002:00002458       ??_C@_0N@BDNG@SysStringLen?$AA@ 5f58d458   oledata.obj
 0002:00002468       ??_C@_0BE@LAIK@SysReAllocStringLen?$AA@ 5f58d468   oledata.obj
 0002:0000247c       ??_C@_0P@GPGK@SysAllocString?$AA@ 5f58d47c   oledata.obj
 0002:0000248c       ??_C@_0BB@JFPK@SysStringByteLen?$AA@ 5f58d48c   oledata.obj
 0002:000024a0       ??_C@_0N@JLNH@VarCyFromStr?$AA@ 5f58d4a0   oledata.obj
 0002:000024b0       ??_C@_0O@LOJC@VarBstrFromCy?$AA@ 5f58d4b0   oledata.obj
 0002:000024c0       ??_C@_0P@NKFO@VarDateFromStr?$AA@ 5f58d4c0   oledata.obj
 0002:000024d0       ??_C@_0BA@CEJB@VarBstrFromDate?$AA@ 5f58d4d0   oledata.obj
 0002:000024e0       ??_C@_0M@JJEC@LoadTypeLib?$AA@ 5f58d4e0   oledata.obj
 0002:000024ec       ??_C@_0P@PBAH@LoadRegTypeLib?$AA@ 5f58d4ec   oledata.obj
 0002:000024fc       ??_C@_0BA@LFHA@RegisterTypeLib?$AA@ 5f58d4fc   oledata.obj
 0002:0000250c       ??_C@_0BJ@EBKA@DosDateTimeToVariantTime?$AA@ 5f58d50c   oledata.obj
 0002:00002528       ??_C@_0BA@FGJD@SafeArrayCreate?$AA@ 5f58d528   oledata.obj
 0002:00002538       ??_C@_0P@MFKA@SafeArrayRedim?$AA@ 5f58d538   oledata.obj
 0002:00002548       ??_C@_0BE@BBCE@SafeArrayAccessData?$AA@ 5f58d548   oledata.obj
 0002:0000255c       ??_C@_0BG@MK@SafeArrayUnaccessData?$AA@ 5f58d55c   oledata.obj
 0002:00002574       ??_C@_0BD@GAPJ@SafeArrayGetUBound?$AA@ 5f58d574   oledata.obj
 0002:00002588       ??_C@_0BD@CFK@SafeArrayGetLBound?$AA@ 5f58d588   oledata.obj
 0002:0000259c       ??_C@_0BF@OFJD@SafeArrayGetElemsize?$AA@ 5f58d59c   oledata.obj
 0002:000025b4       ??_C@_0BA@INBD@SafeArrayGetDim?$AA@ 5f58d5b4   oledata.obj
 0002:000025c4       ??_C@_0O@COOP@SafeArrayCopy?$AA@ 5f58d5c4   oledata.obj
 0002:000025d4       ??_C@_0BD@MBFL@SafeArrayAllocData?$AA@ 5f58d5d4   oledata.obj
 0002:000025e8       ??_C@_0BJ@PNKB@SafeArrayAllocDescriptor?$AA@ 5f58d5e8   oledata.obj
 0002:00002604       ??_C@_0BE@HPKN@SafeArrayGetElement?$AA@ 5f58d604   oledata.obj
 0002:00002618       ??_C@_0BE@IEE@SafeArrayPutElement?$AA@ 5f58d618   oledata.obj
 0002:0000262c       ??_C@_0O@FDMJ@SafeArrayLock?$AA@ 5f58d62c   oledata.obj
 0002:0000263c       ??_C@_0BA@CBIN@SafeArrayUnlock?$AA@ 5f58d63c   oledata.obj
 0002:0000264c       ??_C@_0BB@PKGE@SafeArrayDestroy?$AA@ 5f58d64c   oledata.obj
 0002:00002660       ??_C@_0BF@NJHK@SafeArrayDestroyData?$AA@ 5f58d660   oledata.obj
 0002:00002678       ??_C@_0BL@HKPA@SafeArrayDestroyDescriptor?$AA@ 5f58d678   oledata.obj
 0002:00002694       ??_C@_0BE@BNJG@SafeArrayPtrOfIndex?$AA@ 5f58d694   oledata.obj
 0002:000026a8       ??_C@_0BC@ONFF@OleUIAddVerbMenuW?$AA@ 5f58d6a8   oledata.obj
 0002:000026bc       ??_C@_0L@KCDN@OLEDLG?4DLL?$AA@ 5f58d6bc   oledata.obj
 0002:000026c8       ??_C@_0L@KCCD@OleUIBusyW?$AA@ 5f58d6c8   oledata.obj
 0002:000026d4       ??_C@_0BB@PPLG@OleUIChangeIconW?$AA@ 5f58d6d4   oledata.obj
 0002:000026e8       ??_C@_0BD@NLMC@OleUIChangeSourceW?$AA@ 5f58d6e8   oledata.obj
 0002:000026fc       ??_C@_0O@PFGM@OleUIConvertW?$AA@ 5f58d6fc   oledata.obj
 0002:0000270c       ??_C@_0BA@DPNF@OleUIEditLinksW?$AA@ 5f58d70c   oledata.obj
 0002:0000271c       ??_C@_0BD@NBAK@OleUIInsertObjectW?$AA@ 5f58d71c   oledata.obj
 0002:00002730       ??_C@_0BH@KBCA@OleUIObjectPropertiesW?$AA@ 5f58d730   oledata.obj
 0002:00002748       ??_C@_0BD@JNFM@OleUIPasteSpecialW?$AA@ 5f58d748   oledata.obj
 0002:0000275c       ??_C@_0BC@IGLB@OleUIUpdateLinksW?$AA@ 5f58d75c   oledata.obj
 0002:00002770       ??_C@_0BD@DJAF@ReadFmtUserTypeStg?$AA@ 5f58d770   oledata.obj
 0002:00002784       ??_C@_09OJA@OLE32?4DLL?$AA@ 5f58d784   oledata.obj
 0002:00002790       ??_C@_0N@CPBD@ReadClassStg?$AA@ 5f58d790   oledata.obj
 0002:000027a0       ??_C@_0BC@EKAO@CreateFileMoniker?$AA@ 5f58d7a0   oledata.obj
 0002:000027b4       ??_C@_0BB@EPKB@StgIsStorageFile?$AA@ 5f58d7b4   oledata.obj
 0002:000027c8       ??_C@_0P@HFGE@StgOpenStorage?$AA@ 5f58d7c8   oledata.obj
 0002:000027d8       ??_C@_0L@PDGE@DoDragDrop?$AA@ 5f58d7d8   oledata.obj
 0002:000027e4       ??_C@_0BF@NECC@CoLockObjectExternal?$AA@ 5f58d7e4   oledata.obj
 0002:000027fc       ??_C@_0BB@OONH@RegisterDragDrop?$AA@ 5f58d7fc   oledata.obj
 0002:00002810       ??_C@_0BC@BDPC@OleRegGetUserType?$AA@ 5f58d810   oledata.obj
 0002:00002824       ??_C@_0BB@EKOE@StgCreateDocfile?$AA@ 5f58d824   oledata.obj
 0002:00002838       ??_C@_0P@DJKP@RevokeDragDrop?$AA@ 5f58d838   oledata.obj
 0002:00002848       ??_C@_0BG@IHDG@CoRegisterClassObject?$AA@ 5f58d848   oledata.obj
 0002:00002860       ??_C@_0BE@BPKP@CoRevokeClassObject?$AA@ 5f58d860   oledata.obj
 0002:00002874       ??_C@_0BI@NBOK@OleTranslateAccelerator?$AA@ 5f58d874   oledata.obj
 0002:0000288c       ??_C@_0O@DIHD@IsAccelerator?$AA@ 5f58d88c   oledata.obj
 0002:0000289c       ??_C@_0BI@BNNJ@OleCreateMenuDescriptor?$AA@ 5f58d89c   oledata.obj
 0002:000028b4       ??_C@_0BJ@FPGM@OleDestroyMenuDescriptor?$AA@ 5f58d8b4   oledata.obj
 0002:000028d0       ??_C@_0BG@MKEE@GetRunningObjectTable?$AA@ 5f58d8d0   oledata.obj
 0002:000028e8       ??_C@_0O@BJAB@WriteClassStg?$AA@ 5f58d8e8   oledata.obj
 0002:000028f8       ??_C@_0BF@MANO@OleQueryLinkFromData?$AA@ 5f58d8f8   oledata.obj
 0002:00002910       ??_C@_0BI@BNGE@CoRegisterMessageFilter?$AA@ 5f58d910   oledata.obj
 0002:00002928       ??_C@_0BB@NMLE@CoCreateInstance?$AA@ 5f58d928   oledata.obj
 0002:0000293c       ??_C@_0O@ECEL@CreateBindCtx?$AA@ 5f58d93c   oledata.obj
 0002:0000294c       ??_C@_0BA@LAP@StringFromCLSID?$AA@ 5f58d94c   oledata.obj
 0002:0000295c       ??_C@_0BD@FHMA@CoDisconnectObject?$AA@ 5f58d95c   oledata.obj
 0002:00002970       ??_C@_0BA@EPLO@OleRegEnumVerbs?$AA@ 5f58d970   oledata.obj
 0002:00002980       ??_C@_0BA@EBMG@OleUninitialize?$AA@ 5f58d980   oledata.obj
 0002:00002990       ??_C@_0BG@IIMB@CreateOleAdviseHolder?$AA@ 5f58d990   oledata.obj
 0002:000029a8       ??_C@_0BH@ONAA@CreateDataAdviseHolder?$AA@ 5f58d9a8   oledata.obj
 0002:000029c0       ??_C@_0BC@IDOF@OleGetAutoConvert?$AA@ 5f58d9c0   oledata.obj
 0002:000029d4       ??_C@_0BB@OJLJ@CoGetClassObject?$AA@ 5f58d9d4   oledata.obj
 0002:000029e8       ??_C@_0BI@MJPD@OleCreateDefaultHandler?$AA@ 5f58d9e8   oledata.obj
 0002:00002a00       ??_C@_0BA@LKEF@CreateDataCache?$AA@ 5f58da00   oledata.obj
 0002:00002a10       ??_C@_0N@COIF@ReadClassStm?$AA@ 5f58da10   oledata.obj
 0002:00002a20       ??_C@_0BC@MAIF@OleLoadFromStream?$AA@ 5f58da20   oledata.obj
 0002:00002a34       ??_C@_0BA@JMPN@StringFromGUID2?$AA@ 5f58da34   oledata.obj
 0002:00002a44       ??_C@_0P@PBBF@CoUninitialize?$AA@ 5f58da44   oledata.obj
 0002:00002a54       ??_C@_0N@OOAF@CoInitialize?$AA@ 5f58da54   oledata.obj
 0002:00002a64       ??_C@_0O@NKOA@OleInitialize?$AA@ 5f58da64   oledata.obj
 0002:00002a74       ??_C@_0BG@JPMJ@CoFreeUnusedLibraries?$AA@ 5f58da74   oledata.obj
 0002:00002a8c       ??_C@_0BC@PDII@OleCreateFromData?$AA@ 5f58da8c   oledata.obj
 0002:00002aa0       ??_C@_0BG@GOAI@OleSetContainedObject?$AA@ 5f58daa0   oledata.obj
 0002:00002ab8       ??_C@_0P@NFJJ@OleLockRunning?$AA@ 5f58dab8   oledata.obj
 0002:00002ac8       ??_C@_0P@HIOO@CoTaskMemAlloc?$AA@ 5f58dac8   oledata.obj
 0002:00002ad8       ??_C@_0BA@MEAI@CLSIDFromString?$AA@ 5f58dad8   oledata.obj
 0002:00002ae8       ??_C@_0BA@BAAA@CLSIDFromProgID?$AA@ 5f58dae8   oledata.obj
 0002:00002af8       ??_C@_0BG@LOIL@OleIsCurrentClipboard?$AA@ 5f58daf8   oledata.obj
 0002:00002b10       ??_C@_0BC@KOJB@OleFlushClipboard?$AA@ 5f58db10   oledata.obj
 0002:00002b24       ??_C@_0BA@OHGK@OleSetClipboard?$AA@ 5f58db24   oledata.obj
 0002:00002b34       ??_C@_0N@DPBH@OleIsRunning?$AA@ 5f58db34   oledata.obj
 0002:00002b44       ??_C@_06OKKN@OleRun?$AA@   5f58db44   oledata.obj
 0002:00002b4c       ??_C@_0BA@IOGI@OleGetClipboard?$AA@ 5f58db4c   oledata.obj
 0002:00002b5c       ??_C@_0P@CPCO@CoTreatAsClass?$AA@ 5f58db5c   oledata.obj
 0002:00002b6c       ??_C@_0BH@PLKE@OleQueryCreateFromData?$AA@ 5f58db6c   oledata.obj
 0002:00002b84       ??_C@_0BF@CBBF@OleSetMenuDescriptor?$AA@ 5f58db84   oledata.obj
 0002:00002b9c       ??_C@_0BC@CIFP@CreateItemMoniker?$AA@ 5f58db9c   oledata.obj
 0002:00002bb0       ??_C@_0BH@IOJA@CreateGenericComposite?$AA@ 5f58dbb0   oledata.obj
 0002:00002bc8       ??_C@_0BG@GBMH@CreateStreamOnHGlobal?$AA@ 5f58dbc8   oledata.obj
 0002:00002be0       ??_C@_0BA@FHLA@OleSaveToStream?$AA@ 5f58dbe0   oledata.obj
 0002:00002bf0       ??_C@_0O@BIJH@WriteClassStm?$AA@ 5f58dbf0   oledata.obj
 0002:00002c00       ??_C@_0O@HCPD@CoTaskMemFree?$AA@ 5f58dc00   oledata.obj
 0002:00002c10       ??_C@_0BC@NOGN@OleGetIconOfClass?$AA@ 5f58dc10   oledata.obj
 0002:00002c24       ??_C@_0BB@MOII@ReleaseStgMedium?$AA@ 5f58dc24   oledata.obj
 0002:00002c38       ??_C@_0BJ@OPCH@GetHGlobalFromILockBytes?$AA@ 5f58dc38   oledata.obj
 0002:00002c54       ??_C@_0BL@OKLN@StgOpenStorageOnILockBytes?$AA@ 5f58dc54   oledata.obj
 0002:00002c70       ??_C@_0BK@MJJH@CreateILockBytesOnHGlobal?$AA@ 5f58dc70   oledata.obj
 0002:00002c8c       ??_C@_0BN@OHEP@StgCreateDocfileOnILockBytes?$AA@ 5f58dc8c   oledata.obj
 0002:00002cac       ??_C@_07HMJO@OleSave?$AA@  5f58dcac   oledata.obj
 0002:00002cb4       ??_C@_07CEDI@OleLoad?$AA@  5f58dcb4   oledata.obj
 0002:00002cbc       ??_C@_09LJLH@OleCreate?$AA@ 5f58dcbc   oledata.obj
 0002:00002cc8       ??_C@_0BE@INML@OleCreateLinkToFile?$AA@ 5f58dcc8   oledata.obj
 0002:00002cdc       ??_C@_0BC@FMDI@OleCreateFromFile?$AA@ 5f58dcdc   oledata.obj
 0002:00002cf0       ??_C@_0BI@NMGO@OleCreateStaticFromData?$AA@ 5f58dcf0   oledata.obj
 0002:00002d08       ??_C@_0BG@EDCD@OleCreateLinkFromData?$AA@ 5f58dd08   oledata.obj
 0002:00002d20       ??_C@_0O@OCLP@SetConvertStg?$AA@ 5f58dd20   oledata.obj
 0002:00002d30       ??_C@_0BB@LGIA@OleDuplicateData?$AA@ 5f58dd30   oledata.obj
 0002:00002d44       ??_C@_0BE@BAAB@WriteFmtUserTypeStg?$AA@ 5f58dd44   oledata.obj
 0002:00002d58       ??_C@_0BE@JDCJ@OleRegGetMiscStatus?$AA@ 5f58dd58   oledata.obj
 0002:00002d6c       ??_C@_0M@IMDF@CoGetMalloc?$AA@ 5f58dd6c   oledata.obj
 0002:00002d78       ??_C@_0BH@FBKD@StgIsStorageILockBytes?$AA@ 5f58dd78   oledata.obj
 0002:00002d90       ??_C@_0BL@KJFF@RegisterBindStatusCallback?$AA@ 5f58dd90   oledata.obj
 0002:00002dac       ??_C@_0L@MIHB@URLMON?4DLL?$AA@ 5f58ddac   oledata.obj
 0002:00002db8       ??_C@_0BJ@DDPL@RevokeBindStatusCallback?$AA@ 5f58ddb8   oledata.obj
 0002:00002dd4       ??_C@_0P@LIML@IsAsyncMoniker?$AA@ 5f58ddd4   oledata.obj
 0002:00002de4       ??_C@_0BB@NJCH@CreateURLMoniker?$AA@ 5f58dde4   oledata.obj
 0002:00002df8       ??_C@_0BD@CFKO@CreateAsyncBindCtx?$AA@ 5f58ddf8   oledata.obj
 0002:00002e14       ??_7_AFX_OLE_STATE@@6B@    5f58de14   oledata.obj
 0002:00002e1c       ??_7CNoTrackObject@@6B@    5f58de1c   oledata.obj
 0002:00002e20       ??_C@_0P@ODMG@COleServerItem?$AA@ 5f58de20   oledoc1.obj
 0002:00002e30       ??_C@_0P@JNNP@COleClientItem?$AA@ 5f58de30   oledoc1.obj
 0002:00002e40       ??_C@_0N@KLEF@COleDocument?$AA@ 5f58de40   oledoc1.obj
 0002:00002e50       ??_C@_08NNLJ@CDocItem?$AA@ 5f58de50   oledoc1.obj
 0002:00002e78       ?classCOleDocument@COleDocument@@2UCRuntimeClass@@B 5f58de78   oledoc1.obj
 0002:00002e90       ?classCOleClientItem@COleClientItem@@2UCRuntimeClass@@B 5f58de90   oledoc1.obj
 0002:00002ea8       ?classCOleServerItem@COleServerItem@@2UCRuntimeClass@@B 5f58dea8   oledoc1.obj
 0002:00002ec0       ??_C@_1FI@DJMI@?$AA?7?$AAp?$AAe?$AAr?$AAh?$AAa?$AAp?$AAs?$AA?5?$AAA?$AAf?$AAx?$AAO?$AAl?$AAe?$AAI?$AAn?$AAi?$AAt?$AA?$CI@ 5f58dec0   oledoc1.obj
 0002:00002f18       ??_C@_1GE@FOMJ@?$AAW?$AAa?$AAr?$AAn?$AAi?$AAn?$AAg?$AA?3?$AA?5?$AAC?$AAo?$AAG?$AAe?$AAt?$AAM?$AAa?$AAl?$AAl?$AAo?$AAc@ 5f58df18   oledoc1.obj
 0002:00002f84       ??_7COleDocument@@6B@      5f58df84   oledoc1.obj
 0002:0000306c       ??_C@_1GK@HFJD@?$AAW?$AAa?$AAr?$AAn?$AAi?$AAn?$AAg?$AA?3?$AA?5?$AAd?$AAe?$AAs?$AAt?$AAr?$AAo?$AAy?$AAi?$AAn?$AAg?$AA?5@ 5f58e06c   oledoc1.obj
 0002:000030d8       ??_C@_1GO@PBDE@?$AAW?$AAa?$AAr?$AAn?$AAi?$AAn?$AAg?$AA?3?$AA?5?$AAO?$AAn?$AAO?$AAp?$AAe?$AAn?$AAD?$AAo?$AAc?$AAu?$AAm@ 5f58e0d8   oledoc1.obj
 0002:00003148       ??_C@_09HEBF@?6m_ptd?5?$DN?5?$AA@ 5f58e148   oledoc1.obj
 0002:00003154       ??_C@_0BA@DJOI@?6m_bRemember?5?$DN?5?$AA@ 5f58e154   oledoc1.obj
 0002:00003164       ??_C@_0BC@BIJ@?6m_bSameAsLoad?5?$DN?5?$AA@ 5f58e164   oledoc1.obj
 0002:00003178       ??_C@_0BA@MPDA@?6m_lpRootStg?5?$DN?5?$AA@ 5f58e178   oledoc1.obj
 0002:00003188       ??_C@_0BA@IKCF@?6m_bEmbedded?5?$DN?5?$AA@ 5f58e188   oledoc1.obj
 0002:00003198       ??_C@_0BD@KBMC@?6m_bLastVisible?5?$DN?5?$AA@ 5f58e198   oledoc1.obj
 0002:000031ac       ??_C@_0BH@BKJA@?6m_dwNextItemNumber?5?$DN?5?$AA@ 5f58e1ac   oledoc1.obj
 0002:000031c4       ??_C@_0L@EFON@?5doc?5items?$AA@ 5f58e1c4   oledoc1.obj
 0002:000031d0       ??_C@_05KIFI@with?5?$AA@   5f58e1d0   oledoc1.obj
 0002:000031dc       ??_7CDocItem@@6B@          5f58e1dc   oledoc1.obj
 0002:00003238       ??_C@_0P@NBEM@m_pDocument?5?$DN?5?$AA@ 5f58e238   oledoc1.obj
 0002:0000324c       ??_7CMonikerFile@@6B@      5f58e24c   oledoc1.obj
 0002:00003300       ?interfaceMap@COleDropSource@@1UAFX_INTERFACEMAP@@B 5f58e300   oledrop1.obj
 0002:00003308       ?_interfaceEntries@COleDropSource@@0PBUAFX_INTERFACEMAP_ENTRY@@B 5f58e308   oledrop1.obj
 0002:0000331c       ??_7COleDropSource@@6B@    5f58e31c   oledrop1.obj
 0002:00003384       ??_7XDropSource@COleDropSource@@6B@ 5f58e384   oledrop1.obj
 0002:0000339c       ??_7IDropSource@@6B@       5f58e39c   oledrop1.obj
 0002:000033b0       ??_C@_0BL@ICEB@?6m_rectStartDrag?4bottom?5?$DN?5?$AA@ 5f58e3b0   oledrop1.obj
 0002:000033cc       ??_C@_0BK@NCCF@?6m_rectStartDrag?4right?5?$DN?5?$AA@ 5f58e3cc   oledrop1.obj
 0002:000033e8       ??_C@_0BI@LLBJ@?6m_rectStartDrag?4top?5?$DN?5?$AA@ 5f58e3e8   oledrop1.obj
 0002:00003400       ??_C@_0BJ@IMOF@?6m_rectStartDrag?4left?5?$DN?5?$AA@ 5f58e400   oledrop1.obj
 0002:0000341c       ??_C@_0BC@ECHL@m_bDragStarted?5?$DN?5?$AA@ 5f58e41c   oledrop1.obj
 0002:000034a8       ?interfaceMap@COleDropTarget@@1UAFX_INTERFACEMAP@@B 5f58e4a8   oledrop2.obj
 0002:000034b0       ?_interfaceEntries@COleDropTarget@@0PBUAFX_INTERFACEMAP_ENTRY@@B 5f58e4b0   oledrop2.obj
 0002:000034c4       ??_7COleDropTarget@@6B@    5f58e4c4   oledrop2.obj
 0002:0000353c       ??_7XDropTarget@COleDropTarget@@6B@ 5f58e53c   oledrop2.obj
 0002:0000355c       ??_7IDropTarget@@6B@       5f58e55c   oledrop2.obj
 0002:00003578       ??_C@_1EM@CLN@?$AA?7?$AAm?$AAa?$AAy?$AA?5?$AAc?$AAa?$AAu?$AAs?$AAe?$AA?5?$AAR?$AAI?$AAP?$AAs?$AA?5?$AAu?$AAn?$AAd?$AAe@ 5f58e578   oledrop2.obj
 0002:000035c4       ??_C@_1HA@KAFM@?$AAC?$AAO?$AAl?$AAe?$AAD?$AAr?$AAo?$AAp?$AAT?$AAa?$AAr?$AAg?$AAe?$AAt?$AA?3?$AA?3?$AAR?$AAe?$AAv?$AAo@ 5f58e5c4   oledrop2.obj
 0002:00003634       ??_C@_0BB@OINI@?6m_dwLastTick?5?$DN?5?$AA@ 5f58e634   oledrop2.obj
 0002:00003648       ??_C@_0P@NGLE@?6m_nTimerID?5?$DN?5?$AA@ 5f58e648   oledrop2.obj
 0002:00003658       ??_C@_0BD@KEMD@?6m_lpDataObject?5?$DN?5?$AA@ 5f58e658   oledrop2.obj
 0002:0000366c       ??_C@_09BKNC@m_hWnd?5?$DN?5?$AA@ 5f58e66c   oledrop2.obj
 0002:00003678       ?interfaceMap@COleMessageFilter@@1UAFX_INTERFACEMAP@@B 5f58e678   olemsgf.obj
 0002:00003680       ?_interfaceEntries@COleMessageFilter@@0PBUAFX_INTERFACEMAP_ENTRY@@B 5f58e680   olemsgf.obj
 0002:00003694       ??_7COleMessageFilter@@6B@ 5f58e694   olemsgf.obj
 0002:0000370c       ??_7XMessageFilter@COleMessageFilter@@6B@ 5f58e70c   olemsgf.obj
 0002:0000372c       ??_7IMessageFilter@@6B@    5f58e72c   olemsgf.obj
 0002:00003744       ??_C@_0P@JKLE@?6m_nTimeout?5?$DN?5?$AA@ 5f58e744   olemsgf.obj
 0002:00003754       ??_C@_0BB@PGOJ@?6m_nBusyReply?5?$DN?5?$AA@ 5f58e754   olemsgf.obj
 0002:00003768       ??_C@_0BC@GKAC@?6m_nRetryReply?5?$DN?5?$AA@ 5f58e768   olemsgf.obj
 0002:0000377c       ??_C@_0BC@IEIC@?6m_bUnblocking?5?$DN?5?$AA@ 5f58e77c   olemsgf.obj
 0002:00003790       ??_C@_0BL@KMOL@?6m_bEnableNotResponding?5?$DN?5?$AA@ 5f58e790   olemsgf.obj
 0002:000037ac       ??_C@_0BC@KPPB@?6m_bEnableBusy?5?$DN?5?$AA@ 5f58e7ac   olemsgf.obj
 0002:000037c0       ??_C@_0BB@MEI@?6m_nBusyCount?5?$DN?5?$AA@ 5f58e7c0   olemsgf.obj
 0002:000037d4       ??_C@_0BB@EDJN@m_bRegistered?5?$DN?5?$AA@ 5f58e7d4   olemsgf.obj
 0002:000037ec       ??_7CEnumArray@@6B@        5f58e7ec   oleenum.obj
 0002:0000385c       ??_7XEnumVOID@CEnumArray@@6B@ 5f58e85c   oleenum.obj
 0002:0000387c       ??_7IEnumVOID@@6B@         5f58e87c   oleenum.obj
 0002:00003898       ??_C@_0BC@HKPN@COleObjectFactory?$AA@ 5f58e898   olefact.obj
 0002:000038b0       ?interfaceMap@COleObjectFactory@@1UAFX_INTERFACEMAP@@B 5f58e8b0   olefact.obj
 0002:000038b8       ?_interfaceEntries@COleObjectFactory@@0PBUAFX_INTERFACEMAP_ENTRY@@B 5f58e8b8   olefact.obj
 0002:000038d0       ?classCOleObjectFactory@COleObjectFactory@@2UCRuntimeClass@@B 5f58e8d0   olefact.obj
 0002:000038ec       ??_7COleObjectFactory@@6B@ 5f58e8ec   olefact.obj
 0002:00003964       ??_7XClassFactory@COleObjectFactory@@6B@ 5f58e964   olefact.obj
 0002:0000398c       ??_7IClassFactory2@@6B@    5f58e98c   olefact.obj
 0002:000039b4       ??_7IClassFactory@@6B@     5f58e9b4   olefact.obj
 0002:000039c8       ??_C@_1GG@DMOB@?$AAW?$AAa?$AAr?$AAn?$AAi?$AAn?$AAg?$AA?3?$AA?5?$AAC?$AAo?$AAR?$AAe?$AAg?$AAi?$AAs?$AAt?$AAe?$AAr?$AAC@ 5f58e9c8   olefact.obj
 0002:00003a30       ??_C@_1FO@HNKF@?$AAW?$AAa?$AAr?$AAn?$AAi?$AAn?$AAg?$AA?3?$AA?5?$AAo?$AAb?$AAj?$AAe?$AAc?$AAt?$AA?5?$AAc?$AAr?$AAe?$AAa@ 5f58ea30   olefact.obj
 0002:00003a90       ??_C@_0BE@OGII@?6m_bLicenseValid?5?$DN?5?$AA@ 5f58ea90   olefact.obj
 0002:00003aa4       ??_C@_0BG@HOFD@?6m_bLicenseChecked?5?$DN?5?$AA@ 5f58eaa4   olefact.obj
 0002:00003abc       ??_C@_0BB@CECH@?6m_lpszProgID?5?$DN?5?$AA@ 5f58eabc   olefact.obj
 0002:00003ad0       ??_C@_0BF@OMHN@?6m_bMultiInstance?5?$DN?5?$AA@ 5f58ead0   olefact.obj
 0002:00003ae8       ??_C@_0BE@BMEC@?6m_pRuntimeClass?5?$DN?5?$AA@ 5f58eae8   olefact.obj
 0002:00003afc       ??_C@_0M@GKHL@?6m_clsid?5?$DN?5?$AA@ 5f58eafc   olefact.obj
 0002:00003b08       ??_C@_0BC@KNA@?6m_bRegistered?5?$DN?5?$AA@ 5f58eb08   olefact.obj
 0002:00003b1c       ??_C@_0BB@GHJL@?6m_dwRegister?5?$DN?5?$AA@ 5f58eb1c   olefact.obj
 0002:00003b30       ??_C@_0BC@HEHA@m_pNextFactory?5?$DN?5?$AA@ 5f58eb30   olefact.obj
 0002:00003b44       ??_C@_0P@CBLJ@COleIPFrameWnd?$AA@ 5f58eb44   oleipfrm.obj
 0002:00003b58       ?messageMap@COleIPFrameWnd@@1UAFX_MSGMAP@@B 5f58eb58   oleipfrm.obj
 0002:00003b60       ?_messageEntries@COleIPFrameWnd@@0PBUAFX_MSGMAP_ENTRY@@B 5f58eb60   oleipfrm.obj
 0002:00003c98       ?classCOleIPFrameWnd@COleIPFrameWnd@@2UCRuntimeClass@@B 5f58ec98   oleipfrm.obj
 0002:00003cb4       ??_7COleCntrFrameWnd@@6B@  5f58ecb4   oleipfrm.obj
 0002:00003db4       ??_7COleIPFrameWnd@@6B@    5f58edb4   oleipfrm.obj
 0002:00003ed0       ??_C@_0BC@GPEG@?6m_hSharedMenu?5?$DN?5?$AA@ 5f58eed0   oleipfrm.obj
 0002:00003ee4       ??_C@_0BE@EIME@?6m_bInsideRecalc?5?$DN?5?$AA@ 5f58eee4   oleipfrm.obj
 0002:00003ef8       ??_C@_0P@MHEP@?6m_rectClip?5?$DN?5?$AA@ 5f58eef8   oleipfrm.obj
 0002:00003f08       ??_C@_0O@FEOJ@?6m_rectPos?5?$DN?5?$AA@ 5f58ef08   oleipfrm.obj
 0002:00003f18       ??_C@_0P@JLOC@?6m_hOleMenu?5?$DN?5?$AA@ 5f58ef18   oleipfrm.obj
 0002:00003f28       ??_C@_0BB@PHGG@?6m_lpDocFrame?5?$DN?5?$AA@ 5f58ef28   oleipfrm.obj
 0002:00003f3c       ??_C@_0N@LBG@m_lpFrame?5?$DN?5?$AA@ 5f58ef3c   oleipfrm.obj
 0002:00003f50       ?interfaceMap@COleLinkingDoc@@1UAFX_INTERFACEMAP@@B 5f58ef50   olelink.obj
 0002:00003f58       ?_interfaceEntries@COleLinkingDoc@@0PBUAFX_INTERFACEMAP_ENTRY@@B 5f58ef58   olelink.obj
 0002:00003f8c       ??_7COleLinkingDoc@@6B@    5f58ef8c   olelink.obj
 0002:00004084       ??_7XPersistFile@COleLinkingDoc@@6B@ 5f58f084   olelink.obj
 0002:000040ac       ??_7XOleItemContainer@COleLinkingDoc@@6B@ 5f58f0ac   olelink.obj
 0002:000040d4       ??_7IPersistFile@@6B@      5f58f0d4   olelink.obj
 0002:000040fc       ??_7IOleItemContainer@@6B@ 5f58f0fc   olelink.obj
 0002:00004124       ??_7IPersist@@6B@          5f58f124   olelink.obj
 0002:0000413c       ??_7IOleContainer@@6B@     5f58f13c   olelink.obj
 0002:0000415c       ??_7IParseDisplayName@@6B@ 5f58f15c   olelink.obj
 0002:0000416c       ??_C@_11A@?$AA?$AA?$AA?$AA@ 5f58f16c   olelink.obj
 0002:00004170       ??_C@_1GK@LNHN@?$AAW?$AAa?$AAr?$AAn?$AAi?$AAn?$AAg?$AA?3?$AA?5?$AAU?$AAn?$AAa?$AAb?$AAl?$AAe?$AA?5?$AAt?$AAo?$AA?5?$AAr@ 5f58f170   olelink.obj
 0002:000041dc       ??_C@_1FG@NCHM@?$AA?7?$AAi?$AAm?$AAp?$AAl?$AAe?$AAm?$AAe?$AAn?$AAt?$AAa?$AAt?$AAi?$AAo?$AAn?$AA?5?$AAf?$AAa?$AAi?$AAl@ 5f58f1dc   olelink.obj
 0002:00004234       ??_C@_1GK@FBPP@?$AAW?$AAa?$AAr?$AAn?$AAi?$AAn?$AAg?$AA?3?$AA?5?$AAd?$AAe?$AAf?$AAa?$AAu?$AAl?$AAt?$AA?5?$AAC?$AAO?$AAl@ 5f58f234   olelink.obj
 0002:000042a0       ??_C@_0BB@BIHL@?6with?5no?5factory?$AA@ 5f58f2a0   olelink.obj
 0002:000042b4       ??_C@_0BA@KOFE@?6with?5factory?3?5?$AA@ 5f58f2b4   olelink.obj
 0002:000042c4       ??_C@_0BD@KPFI@?6m_bVisibleLock?5?$DN?5?$AA@ 5f58f2c4   olelink.obj
 0002:000042d8       ??_C@_0O@EEPE@COleException?$AA@ 5f58f2d8   olemisc.obj
 0002:000042e8       ??_C@_1CC@PGEG@?$AAF?$AAA?$AAC?$AAI?$AAL?$AAI?$AAT?$AAY?$AA_?$AAW?$AAI?$AAN?$AAD?$AAO?$AAW?$AAS?$AA?$AA?$AA?$AA?$AA?$AH?$AA?$AA@ 5f58f2e8   olemisc.obj
 0002:0000430c       ??_C@_1BO@NG@?$AAF?$AAA?$AAC?$AAI?$AAL?$AAI?$AAT?$AAY?$AA_?$AAW?$AAI?$AAN?$AA3?$AA2?$AA?$AA?$AA?$AA?$AA?$AH?$AA?$AA?$AA?$AA?$AA?$AA@ 5f58f30c   olemisc.obj
 0002:0000432c       ??_C@_1BM@IBDA@?$AAF?$AAA?$AAC?$AAI?$AAL?$AAI?$AAT?$AAY?$AA_?$AA0?$AAx?$AA0?$AA6?$AA?$AA?$AA?$AH?$AA?$AA?$AA?$AA?$AA?$AA?$AF?5?$AF?$:O@ 5f58f32c   olemisc.obj
 0002:00004348       ??_C@_1BM@HHAL@?$AAF?$AAA?$AAC?$AAI?$AAL?$AAI?$AAT?$AAY?$AA_?$AA0?$AAx?$AA0?$AA5?$AA?$AA?$AA?$AH?$AA?$AA?$AA?$AA?$AA?$AA?$AE?$AF?$:O@ 5f58f348   olemisc.obj
 0002:00004364       ??_C@_1BK@BANM@?$AAF?$AAA?$AAC?$AAI?$AAL?$AAI?$AAT?$AAY?$AA_?$AAI?$AAT?$AAF?$AA?$AA?$AA?$AA?$AA?$AH?$AA?$AA?$AA?$AA?$AA?$AA?$AE?$;I?$AF?$:O@ 5f58f364   olemisc.obj
 0002:00004380       ??_C@_1CC@GKIJ@?$AAF?$AAA?$AAC?$AAI?$AAL?$AAI?$AAT?$AAY?$AA_?$AAS?$AAT?$AAO?$AAR?$AAA?$AAG?$AAE?$AA?$AA?$AA?$AA?$AA?$AH?$AA?$AA@ 5f58f380   olemisc.obj
 0002:000043a4       ??_C@_1CE@DPAP@?$AAF?$AAA?$AAC?$AAI?$AAL?$AAI?$AAT?$AAY?$AA_?$AAD?$AAI?$AAS?$AAP?$AAA?$AAT?$AAC?$AAH?$AA?$AA?$AA?$AH?$AA?$AA@ 5f58f3a4   olemisc.obj
 0002:000043c8       ??_C@_1BK@GEEM@?$AAF?$AAA?$AAC?$AAI?$AAL?$AAI?$AAT?$AAY?$AA_?$AAR?$AAP?$AAC?$AA?$AA?$AA?$AA?$AA?$AH?$AA?$AA?$AA?$AA?$AA?$AA?$AD?$AF?$:O@ 5f58f3c8   olemisc.obj
 0002:000043e4       ??_C@_1BM@IPAO@?$AAF?$AAA?$AAC?$AAI?$AAL?$AAI?$AAT?$AAY?$AA_?$AAN?$AAU?$AAL?$AAL?$AA?$AA?$AA?$AH?$AA?$AA?$AA?$AA?$AA?$AA?$AD?$;I?$AF?$:O@ 5f58f3e4   olemisc.obj
 0002:00004400       ??_C@_1BO@IFJE@?$AAS?$AAE?$AAV?$AAE?$AAR?$AAI?$AAT?$AAY?$AA_?$AAE?$AAR?$AAR?$AAO?$AAR?$AA?$AA?$AA?$AA?$AA?$AH?$AA?$AA?$AA?$AA?$AA?$AA@ 5f58f400   olemisc.obj
 0002:00004420       ??_C@_1CC@NIDK@?$AAS?$AAE?$AAV?$AAE?$AAR?$AAI?$AAT?$AAY?$AA_?$AAS?$AAU?$AAC?$AAC?$AAE?$AAS?$AAS?$AA?$AA?$AA?$AA?$AA?$AH?$AA?$AA@ 5f58f420   olemisc.obj
 0002:00004444       ??_C@_1DG@GLBJ@?$AAV?$AAI?$AAE?$AAW?$AA_?$AAS?$AA_?$AAF?$AAI?$AAR?$AAS?$AAT?$AA?4?$AA?4?$AA?4?$AAV?$AAI?$AAE?$AAW?$AA_@ 5f58f444   olemisc.obj
 0002:0000447c       ??_C@_1DG@GICE@?$AAV?$AAI?$AAE?$AAW?$AA_?$AAE?$AA_?$AAF?$AAI?$AAR?$AAS?$AAT?$AA?4?$AA?4?$AA?4?$AAV?$AAI?$AAE?$AAW?$AA_@ 5f58f47c   olemisc.obj
 0002:000044b4       ??_C@_1DK@NFLN@?$AAR?$AAE?$AAG?$AAD?$AAB?$AA_?$AAS?$AA_?$AAF?$AAI?$AAR?$AAS?$AAT?$AA?4?$AA?4?$AA?4?$AAR?$AAE?$AAG?$AAD@ 5f58f4b4   olemisc.obj
 0002:000044f0       ??_C@_1DK@OKIK@?$AAR?$AAE?$AAG?$AAD?$AAB?$AA_?$AAE?$AA_?$AAF?$AAI?$AAR?$AAS?$AAT?$AA?4?$AA?4?$AA?4?$AAR?$AAE?$AAG?$AAD@ 5f58f4f0   olemisc.obj
 0002:0000452c       ??_C@_1DC@MINK@?$AAO?$AAL?$AAE?$AA_?$AAS?$AA_?$AAF?$AAI?$AAR?$AAS?$AAT?$AA?4?$AA?4?$AA?4?$AAO?$AAL?$AAE?$AA_?$AAS?$AA_@ 5f58f52c   olemisc.obj
 0002:00004560       ??_C@_1DC@FBFB@?$AAO?$AAL?$AAE?$AA_?$AAE?$AA_?$AAF?$AAI?$AAR?$AAS?$AAT?$AA?4?$AA?4?$AA?4?$AAO?$AAL?$AAE?$AA_?$AAE?$AA_@ 5f58f560   olemisc.obj
 0002:00004594       ??_C@_1DO@NBMI@?$AAO?$AAL?$AAE?$AAO?$AAB?$AAJ?$AA_?$AAS?$AA_?$AAF?$AAI?$AAR?$AAS?$AAT?$AA?4?$AA?4?$AA?4?$AAO?$AAL?$AAE@ 5f58f594   olemisc.obj
 0002:000045d4       ??_C@_1DO@JPIG@?$AAO?$AAL?$AAE?$AAO?$AAB?$AAJ?$AA_?$AAE?$AA_?$AAF?$AAI?$AAR?$AAS?$AAT?$AA?4?$AA?4?$AA?4?$AAO?$AAL?$AAE@ 5f58f5d4   olemisc.obj
 0002:00004614       ??_C@_1CO@DJDM@?$AAM?$AAK?$AA_?$AAS?$AA_?$AAF?$AAI?$AAR?$AAS?$AAT?$AA?4?$AA?4?$AA?4?$AAM?$AAK?$AA_?$AAS?$AA_?$AAL?$AAA@ 5f58f614   olemisc.obj
 0002:00004644       ??_C@_1CO@CEOJ@?$AAM?$AAK?$AA_?$AAE?$AA_?$AAF?$AAI?$AAR?$AAS?$AAT?$AA?4?$AA?4?$AA?4?$AAM?$AAK?$AA_?$AAE?$AA_?$AAL?$AAA@ 5f58f644   olemisc.obj
 0002:00004674       ??_C@_1EC@HBAE@?$AAM?$AAA?$AAR?$AAS?$AAH?$AAA?$AAL?$AA_?$AAS?$AA_?$AAF?$AAI?$AAR?$AAS?$AAT?$AA?4?$AA?4?$AA?4?$AAM?$AAA@ 5f58f674   olemisc.obj
 0002:000046b8       ??_C@_1EC@NFIJ@?$AAM?$AAA?$AAR?$AAS?$AAH?$AAA?$AAL?$AA_?$AAE?$AA_?$AAF?$AAI?$AAR?$AAS?$AAT?$AA?4?$AA?4?$AA?4?$AAM?$AAA@ 5f58f6b8   olemisc.obj
 0002:000046fc       ??_C@_1EC@JFOO@?$AAI?$AAN?$AAP?$AAL?$AAA?$AAC?$AAE?$AA_?$AAS?$AA_?$AAF?$AAI?$AAR?$AAS?$AAT?$AA?4?$AA?4?$AA?4?$AAI?$AAN@ 5f58f6fc   olemisc.obj
 0002:00004740       ??_C@_1EC@DBGD@?$AAI?$AAN?$AAP?$AAL?$AAA?$AAC?$AAE?$AA_?$AAE?$AA_?$AAF?$AAI?$AAR?$AAS?$AAT?$AA?4?$AA?4?$AA?4?$AAI?$AAN@ 5f58f740   olemisc.obj
 0002:00004784       ??_C@_1DG@DHLN@?$AAE?$AAN?$AAU?$AAM?$AA_?$AAS?$AA_?$AAF?$AAI?$AAR?$AAS?$AAT?$AA?4?$AA?4?$AA?4?$AAE?$AAN?$AAU?$AAM?$AA_@ 5f58f784   olemisc.obj
 0002:000047bc       ??_C@_1DG@DEIA@?$AAE?$AAN?$AAU?$AAM?$AA_?$AAE?$AA_?$AAF?$AAI?$AAR?$AAS?$AAT?$AA?4?$AA?4?$AA?4?$AAE?$AAN?$AAU?$AAM?$AA_@ 5f58f7bc   olemisc.obj
 0002:000047f4       ??_C@_1EG@IIDN@?$AAD?$AAR?$AAA?$AAG?$AAD?$AAR?$AAO?$AAP?$AA_?$AAS?$AA_?$AAF?$AAI?$AAR?$AAS?$AAT?$AA?4?$AA?4?$AA?4?$AAD@ 5f58f7f4   olemisc.obj
 0002:0000483c       ??_C@_1EG@NPND@?$AAD?$AAR?$AAA?$AAG?$AAD?$AAR?$AAO?$AAP?$AA_?$AAE?$AA_?$AAF?$AAI?$AAR?$AAS?$AAT?$AA?4?$AA?4?$AA?4?$AAD@ 5f58f83c   olemisc.obj
 0002:00004884       ??_C@_1DG@MMKC@?$AAD?$AAA?$AAT?$AAA?$AA_?$AAS?$AA_?$AAF?$AAI?$AAR?$AAS?$AAT?$AA?4?$AA?4?$AA?4?$AAD?$AAA?$AAT?$AAA?$AA_@ 5f58f884   olemisc.obj
 0002:000048bc       ??_C@_1DG@MPJP@?$AAD?$AAA?$AAT?$AAA?$AA_?$AAE?$AA_?$AAF?$AAI?$AAR?$AAS?$AAT?$AA?4?$AA?4?$AA?4?$AAD?$AAA?$AAT?$AAA?$AA_@ 5f58f8bc   olemisc.obj
 0002:000048f4       ??_C@_1CO@OOFB@?$AAC?$AAO?$AA_?$AAS?$AA_?$AAF?$AAI?$AAR?$AAS?$AAT?$AA?4?$AA?4?$AA?4?$AAC?$AAO?$AA_?$AAS?$AA_?$AAL?$AAA@ 5f58f8f4   olemisc.obj
 0002:00004924       ??_C@_1CO@PDIE@?$AAC?$AAO?$AA_?$AAE?$AA_?$AAF?$AAI?$AAR?$AAS?$AAT?$AA?4?$AA?4?$AA?4?$AAC?$AAO?$AA_?$AAE?$AA_?$AAL?$AAA@ 5f58f924   olemisc.obj
 0002:00004954       ??_C@_1EK@DHFD@?$AAC?$AAO?$AAN?$AAV?$AAE?$AAR?$AAT?$AA1?$AA0?$AA_?$AAS?$AA_?$AAF?$AAI?$AAR?$AAS?$AAT?$AA?4?$AA?4?$AA?4@ 5f58f954   olemisc.obj
 0002:000049a0       ??_C@_1EK@MBEP@?$AAC?$AAO?$AAN?$AAV?$AAE?$AAR?$AAT?$AA1?$AA0?$AA_?$AAE?$AA_?$AAF?$AAI?$AAR?$AAS?$AAT?$AA?4?$AA?4?$AA?4@ 5f58f9a0   olemisc.obj
 0002:000049ec       ??_C@_1EC@FKKE@?$AAC?$AAL?$AAI?$AAP?$AAB?$AAR?$AAD?$AA_?$AAS?$AA_?$AAF?$AAI?$AAR?$AAS?$AAT?$AA?4?$AA?4?$AA?4?$AAC?$AAL@ 5f58f9ec   olemisc.obj
 0002:00004a30       ??_C@_1EC@POCJ@?$AAC?$AAL?$AAI?$AAP?$AAB?$AAR?$AAD?$AA_?$AAE?$AA_?$AAF?$AAI?$AAR?$AAS?$AAT?$AA?4?$AA?4?$AA?4?$AAC?$AAL@ 5f58fa30   olemisc.obj
 0002:00004a74       ??_C@_1EO@FNCB@?$AAC?$AAL?$AAI?$AAE?$AAN?$AAT?$AAS?$AAI?$AAT?$AAE?$AA_?$AAS?$AA_?$AAF?$AAI?$AAR?$AAS?$AAT?$AA?4?$AA?4@ 5f58fa74   olemisc.obj
 0002:00004ac4       ??_C@_1EO@BCKI@?$AAC?$AAL?$AAI?$AAE?$AAN?$AAT?$AAS?$AAI?$AAT?$AAE?$AA_?$AAE?$AA_?$AAF?$AAI?$AAR?$AAS?$AAT?$AA?4?$AA?4@ 5f58fac4   olemisc.obj
 0002:00004b14       ??_C@_1FG@JJOH@?$AAC?$AAL?$AAA?$AAS?$AAS?$AAF?$AAA?$AAC?$AAT?$AAO?$AAR?$AAY?$AA_?$AAS?$AA_?$AAF?$AAI?$AAR?$AAS?$AAT@ 5f58fb14   olemisc.obj
 0002:00004b6c       ??_C@_1FG@MNFB@?$AAC?$AAL?$AAA?$AAS?$AAS?$AAF?$AAA?$AAC?$AAT?$AAO?$AAR?$AAY?$AA_?$AAE?$AA_?$AAF?$AAI?$AAR?$AAS?$AAT@ 5f58fb6c   olemisc.obj
 0002:00004bc4       ??_C@_1DK@PNKG@?$AAC?$AAA?$AAC?$AAH?$AAE?$AA_?$AAS?$AA_?$AAF?$AAI?$AAR?$AAS?$AAT?$AA?4?$AA?4?$AA?4?$AAC?$AAA?$AAC?$AAH@ 5f58fbc4   olemisc.obj
 0002:00004c00       ??_C@_1DK@MCJB@?$AAC?$AAA?$AAC?$AAH?$AAE?$AA_?$AAE?$AA_?$AAF?$AAI?$AAR?$AAS?$AAT?$AA?4?$AA?4?$AA?4?$AAC?$AAA?$AAC?$AAH@ 5f58fc00   olemisc.obj
 0002:00004c3c       ??_C@_1BI@OCCK@?$AAV?$AAI?$AAE?$AAW?$AA_?$AAE?$AA_?$AAD?$AAR?$AAA?$AAW?$AA?$AA?$AA?$AH?$AA?$AA?$AA?$AA?$AA?$AA?$AE?$AF?$:O?$AA?$BI?$AA?$AB@ 5f58fc3c   olemisc.obj
 0002:00004c54       ??_C@_1CK@KAKD@?$AAT?$AAY?$AAP?$AAE?$AA_?$AAE?$AA_?$AAW?$AAR?$AAO?$AAN?$AAG?$AAT?$AAY?$AAP?$AAE?$AAK?$AAI?$AAN?$AAD@ 5f58fc54   olemisc.obj
 0002:00004c80       ??_C@_1CG@ECCK@?$AAT?$AAY?$AAP?$AAE?$AA_?$AAE?$AA_?$AAU?$AAN?$AAS?$AAU?$AAP?$AAF?$AAO?$AAR?$AAM?$AAA?$AAT?$AA?$AA?$AA?$AA@ 5f58fc80   olemisc.obj
 0002:00004ca8       ??_C@_1CG@HLBD@?$AAT?$AAY?$AAP?$AAE?$AA_?$AAE?$AA_?$AAU?$AAN?$AAK?$AAN?$AAO?$AAW?$AAN?$AAL?$AAC?$AAI?$AAD?$AA?$AA?$AA?$AA@ 5f58fca8   olemisc.obj
 0002:00004cd0       ??_C@_1CK@HNNC@?$AAT?$AAY?$AAP?$AAE?$AA_?$AAE?$AA_?$AAU?$AAN?$AAD?$AAE?$AAF?$AAI?$AAN?$AAE?$AAD?$AAT?$AAY?$AAP?$AAE@ 5f58fcd0   olemisc.obj
 0002:00004cfc       ??_C@_1CI@LOKP@?$AAT?$AAY?$AAP?$AAE?$AA_?$AAE?$AA_?$AAT?$AAY?$AAP?$AAE?$AAM?$AAI?$AAS?$AAM?$AAA?$AAT?$AAC?$AAH?$AA?$AA@ 5f58fcfc   olemisc.obj
 0002:00004d24       ??_C@_1CE@CHBK@?$AAT?$AAY?$AAP?$AAE?$AA_?$AAE?$AA_?$AAS?$AAI?$AAZ?$AAE?$AAT?$AAO?$AAO?$AAB?$AAI?$AAG?$AA?$AA?$AA?$AH?$AA?$AA@ 5f58fd24   olemisc.obj
 0002:00004d48       ??_C@_1CM@PCLA@?$AAT?$AAY?$AAP?$AAE?$AA_?$AAE?$AA_?$AAR?$AAE?$AAG?$AAI?$AAS?$AAT?$AAR?$AAY?$AAA?$AAC?$AAC?$AAE?$AAS@ 5f58fd48   olemisc.obj
 0002:00004d74       ??_C@_1DO@BJLO@?$AAT?$AAY?$AAP?$AAE?$AA_?$AAE?$AA_?$AAQ?$AAU?$AAA?$AAL?$AAI?$AAF?$AAI?$AAE?$AAD?$AAN?$AAA?$AAM?$AAE@ 5f58fd74   olemisc.obj
 0002:00004db4       ??_C@_1CG@CDNK@?$AAT?$AAY?$AAP?$AAE?$AA_?$AAE?$AA_?$AAO?$AAU?$AAT?$AAO?$AAF?$AAB?$AAO?$AAU?$AAN?$AAD?$AAS?$AA?$AA?$AA?$AA@ 5f58fdb4   olemisc.obj
 0002:00004ddc       ??_C@_1CI@LHDE@?$AAT?$AAY?$AAP?$AAE?$AA_?$AAE?$AA_?$AAN?$AAA?$AAM?$AAE?$AAC?$AAO?$AAN?$AAF?$AAL?$AAI?$AAC?$AAT?$AA?$AA@ 5f58fddc   olemisc.obj
 0002:00004e04       ??_C@_1DA@GKOK@?$AAT?$AAY?$AAP?$AAE?$AA_?$AAE?$AA_?$AAL?$AAI?$AAB?$AAN?$AAO?$AAT?$AAR?$AAE?$AAG?$AAI?$AAS?$AAT?$AAE@ 5f58fe04   olemisc.obj
 0002:00004e34       ??_C@_1BO@GLOA@?$AAT?$AAY?$AAP?$AAE?$AA_?$AAE?$AA_?$AAI?$AAO?$AAE?$AAR?$AAR?$AAO?$AAR?$AA?$AA?$AA?$AA?$AA?$AH?$AA?$AA?$AA?$AA?$AA?$AA@ 5f58fe34   olemisc.obj
 0002:00004e54       ??_C@_1CG@HMHL@?$AAT?$AAY?$AAP?$AAE?$AA_?$AAE?$AA_?$AAI?$AAN?$AAV?$AAD?$AAA?$AAT?$AAA?$AAR?$AAE?$AAA?$AAD?$AA?$AA?$AA?$AA@ 5f58fe54   olemisc.obj
 0002:00004e7c       ??_C@_1CI@CFMF@?$AAT?$AAY?$AAP?$AAE?$AA_?$AAE?$AA_?$AAI?$AAN?$AAV?$AAA?$AAL?$AAI?$AAD?$AAS?$AAT?$AAA?$AAT?$AAE?$AA?$AA@ 5f58fe7c   olemisc.obj
 0002:00004ea4       ??_C@_1DK@GEAK@?$AAT?$AAY?$AAP?$AAE?$AA_?$AAE?$AA_?$AAI?$AAN?$AAC?$AAO?$AAN?$AAS?$AAI?$AAS?$AAT?$AAE?$AAN?$AAT?$AAP@ 5f58fea4   olemisc.obj
 0002:00004ee0       ??_C@_1CO@EOMF@?$AAT?$AAY?$AAP?$AAE?$AA_?$AAE?$AA_?$AAE?$AAL?$AAE?$AAM?$AAE?$AAN?$AAT?$AAN?$AAO?$AAT?$AAF?$AAO?$AAU@ 5f58fee0   olemisc.obj
 0002:00004f10       ??_C@_1CG@KEMO@?$AAT?$AAY?$AAP?$AAE?$AA_?$AAE?$AA_?$AAD?$AAU?$AAP?$AAL?$AAI?$AAC?$AAA?$AAT?$AAE?$AAI?$AAD?$AA?$AA?$AA?$AA@ 5f58ff10   olemisc.obj
 0002:00004f38       ??_C@_1DG@DKHF@?$AAT?$AAY?$AAP?$AAE?$AA_?$AAE?$AA_?$AAD?$AAL?$AAL?$AAF?$AAU?$AAN?$AAC?$AAT?$AAI?$AAO?$AAN?$AAN?$AAO@ 5f58ff38   olemisc.obj
 0002:00004f70       ??_C@_1CI@EGHD@?$AAT?$AAY?$AAP?$AAE?$AA_?$AAE?$AA_?$AAC?$AAI?$AAR?$AAC?$AAU?$AAL?$AAA?$AAR?$AAT?$AAY?$AAP?$AAE?$AA?$AA@ 5f58ff70   olemisc.obj
 0002:00004f98       ??_C@_1CO@JBCO@?$AAT?$AAY?$AAP?$AAE?$AA_?$AAE?$AA_?$AAC?$AAA?$AAN?$AAT?$AAL?$AAO?$AAA?$AAD?$AAL?$AAI?$AAB?$AAR?$AAA@ 5f58ff98   olemisc.obj
 0002:00004fc8       ??_C@_1DC@BEA@?$AAT?$AAY?$AAP?$AAE?$AA_?$AAE?$AA_?$AAC?$AAA?$AAN?$AAT?$AAC?$AAR?$AAE?$AAA?$AAT?$AAE?$AAT?$AAM?$AAP@ 5f58ffc8   olemisc.obj
 0002:00004ffc       ??_C@_1CM@DMMO@?$AAT?$AAY?$AAP?$AAE?$AA_?$AAE?$AA_?$AAB?$AAU?$AAF?$AAF?$AAE?$AAR?$AAT?$AAO?$AAO?$AAS?$AAM?$AAA?$AAL@ 5f58fffc   olemisc.obj
 0002:00005028       ??_C@_1CK@HGOO@?$AAT?$AAY?$AAP?$AAE?$AA_?$AAE?$AA_?$AAB?$AAA?$AAD?$AAM?$AAO?$AAD?$AAU?$AAL?$AAE?$AAK?$AAI?$AAN?$AAD@ 5f590028   olemisc.obj
 0002:00005054       ??_C@_1CK@BMEM@?$AAT?$AAY?$AAP?$AAE?$AA_?$AAE?$AA_?$AAA?$AAM?$AAB?$AAI?$AAG?$AAU?$AAO?$AAU?$AAS?$AAN?$AAA?$AAM?$AAE@ 5f590054   olemisc.obj
 0002:00005080       ??_C@_1CC@MJJG@?$AAS?$AAT?$AAG?$AA_?$AAE?$AA_?$AAW?$AAR?$AAI?$AAT?$AAE?$AAF?$AAA?$AAU?$AAL?$AAT?$AA?$AA?$AA?$AA?$AA?$AH?$AA?$AA@ 5f590080   olemisc.obj
 0002:000050a4       ??_C@_1BM@BIIG@?$AAS?$AAT?$AAG?$AA_?$AAE?$AA_?$AAU?$AAN?$AAK?$AAN?$AAO?$AAW?$AAN?$AA?$AA?$AA?$AH?$AA?$AA?$AA?$AA?$AA?$AA?$;OX?$AF?$:O@ 5f5900a4   olemisc.obj
 0002:000050c0       ??_C@_1DI@MKDG@?$AAS?$AAT?$AAG?$AA_?$AAE?$AA_?$AAU?$AAN?$AAI?$AAM?$AAP?$AAL?$AAE?$AAM?$AAE?$AAN?$AAT?$AAE?$AAD?$AAF@ 5f5900c0   olemisc.obj
 0002:000050f8       ??_C@_1CO@LDMI@?$AAS?$AAT?$AAG?$AA_?$AAE?$AA_?$AAT?$AAO?$AAO?$AAM?$AAA?$AAN?$AAY?$AAO?$AAP?$AAE?$AAN?$AAF?$AAI?$AAL@ 5f5900f8   olemisc.obj
 0002:00005128       ??_C@_1CK@MONO@?$AAS?$AAT?$AAG?$AA_?$AAE?$AA_?$AAS?$AAH?$AAA?$AAR?$AAE?$AAV?$AAI?$AAO?$AAL?$AAA?$AAT?$AAI?$AAO?$AAN@ 5f590128   olemisc.obj
 0002:00005154       ??_C@_1CI@MILG@?$AAS?$AAT?$AAG?$AA_?$AAE?$AA_?$AAS?$AAH?$AAA?$AAR?$AAE?$AAR?$AAE?$AAQ?$AAU?$AAI?$AAR?$AAE?$AAD?$AA?$AA@ 5f590154   olemisc.obj
 0002:0000517c       ??_C@_1CA@FOGA@?$AAS?$AAT?$AAG?$AA_?$AAE?$AA_?$AAS?$AAE?$AAE?$AAK?$AAE?$AAR?$AAR?$AAO?$AAR?$AA?$AA?$AA?$AH?$AA?$AA?$AA?$AA?$AA?$AA@ 5f59017c   olemisc.obj
 0002:0000519c       ??_C@_1BO@FDBP@?$AAS?$AAT?$AAG?$AA_?$AAE?$AA_?$AAR?$AAE?$AAV?$AAE?$AAR?$AAT?$AAE?$AAD?$AA?$AA?$AA?$AA?$AA?$AH?$AA?$AA?$AA?$AA?$AA?$AA@ 5f59019c   olemisc.obj
 0002:000051bc       ??_C@_1CA@PKA@?$AAS?$AAT?$AAG?$AA_?$AAE?$AA_?$AAR?$AAE?$AAA?$AAD?$AAF?$AAA?$AAU?$AAL?$AAT?$AA?$AA?$AA?$AH?$AA?$AA?$AA?$AA?$AA?$AA@ 5f5901bc   olemisc.obj
 0002:000051dc       ??_C@_1CG@JCJK@?$AAS?$AAT?$AAG?$AA_?$AAE?$AA_?$AAP?$AAA?$AAT?$AAH?$AAN?$AAO?$AAT?$AAF?$AAO?$AAU?$AAN?$AAD?$AA?$AA?$AA?$AA@ 5f5901dc   olemisc.obj
 0002:00005204       ??_C@_1CA@EHAB@?$AAS?$AAT?$AAG?$AA_?$AAE?$AA_?$AAO?$AAL?$AAD?$AAF?$AAO?$AAR?$AAM?$AAA?$AAT?$AA?$AA?$AA?$AH?$AA?$AA?$AA?$AA?$AA?$AA@ 5f590204   olemisc.obj
 0002:00005224       ??_C@_1BK@PJCM@?$AAS?$AAT?$AAG?$AA_?$AAE?$AA_?$AAO?$AAL?$AAD?$AAD?$AAL?$AAL?$AA?$AA?$AA?$AA?$AA?$AH?$AA?$AA?$AA?$AA?$AA?$AA?$;G?$:I?$AF?$:O@ 5f590224   olemisc.obj
 0002:00005240       ??_C@_1DE@NAFN@?$AAS?$AAT?$AAG?$AA_?$AAE?$AA_?$AAN?$AAO?$AAT?$AAF?$AAI?$AAL?$AAE?$AAB?$AAA?$AAS?$AAE?$AAD?$AAS?$AAT@ 5f590240   olemisc.obj
 0002:00005274       ??_C@_1CC@LHMA@?$AAS?$AAT?$AAG?$AA_?$AAE?$AA_?$AAN?$AAO?$AAT?$AAC?$AAU?$AAR?$AAR?$AAE?$AAN?$AAT?$AA?$AA?$AA?$AA?$AA?$AH?$AA?$AA@ 5f590274   olemisc.obj
 0002:00005298       ??_C@_1CE@LFJM@?$AAS?$AAT?$AAG?$AA_?$AAE?$AA_?$AAN?$AAO?$AAM?$AAO?$AAR?$AAE?$AAF?$AAI?$AAL?$AAE?$AAS?$AA?$AA?$AA?$AH?$AA?$AA@ 5f590298   olemisc.obj
 0002:000052bc       ??_C@_1CC@IFJO@?$AAS?$AAT?$AAG?$AA_?$AAE?$AA_?$AAM?$AAE?$AAD?$AAI?$AAU?$AAM?$AAF?$AAU?$AAL?$AAL?$AA?$AA?$AA?$AA?$AA?$AH?$AA?$AA@ 5f5902bc   olemisc.obj
 0002:000052e0       ??_C@_1CI@NCHA@?$AAS?$AAT?$AAG?$AA_?$AAE?$AA_?$AAL?$AAO?$AAC?$AAK?$AAV?$AAI?$AAO?$AAL?$AAA?$AAT?$AAI?$AAO?$AAN?$AA?$AA@ 5f5902e0   olemisc.obj
 0002:00005308       ??_C@_1CK@CNAM@?$AAS?$AAT?$AAG?$AA_?$AAE?$AA_?$AAI?$AAN?$AAV?$AAA?$AAL?$AAI?$AAD?$AAP?$AAO?$AAI?$AAN?$AAT?$AAE?$AAR@ 5f590308   olemisc.obj
 0002:00005334       ??_C@_1CO@OHLL@?$AAS?$AAT?$AAG?$AA_?$AAE?$AA_?$AAI?$AAN?$AAV?$AAA?$AAL?$AAI?$AAD?$AAP?$AAA?$AAR?$AAA?$AAM?$AAE?$AAT@ 5f590334   olemisc.obj
 0002:00005364       ??_C@_1CE@MMHO@?$AAS?$AAT?$AAG?$AA_?$AAE?$AA_?$AAI?$AAN?$AAV?$AAA?$AAL?$AAI?$AAD?$AAN?$AAA?$AAM?$AAE?$AA?$AA?$AA?$AH?$AA?$AA@ 5f590364   olemisc.obj
 0002:00005388       ??_C@_1CI@JAPL@?$AAS?$AAT?$AAG?$AA_?$AAE?$AA_?$AAI?$AAN?$AAV?$AAA?$AAL?$AAI?$AAD?$AAH?$AAE?$AAA?$AAD?$AAE?$AAR?$AA?$AA@ 5f590388   olemisc.obj
 0002:000053b0       ??_C@_1CI@FJHJ@?$AAS?$AAT?$AAG?$AA_?$AAE?$AA_?$AAI?$AAN?$AAV?$AAA?$AAL?$AAI?$AAD?$AAH?$AAA?$AAN?$AAD?$AAL?$AAE?$AA?$AA@ 5f5903b0   olemisc.obj
 0002:000053d8       ??_C@_1CM@GDKF@?$AAS?$AAT?$AAG?$AA_?$AAE?$AA_?$AAI?$AAN?$AAV?$AAA?$AAL?$AAI?$AAD?$AAF?$AAU?$AAN?$AAC?$AAT?$AAI?$AAO@ 5f5903d8   olemisc.obj
 0002:00005404       ??_C@_1CE@BLMD@?$AAS?$AAT?$AAG?$AA_?$AAE?$AA_?$AAI?$AAN?$AAV?$AAA?$AAL?$AAI?$AAD?$AAF?$AAL?$AAA?$AAG?$AA?$AA?$AA?$AH?$AA?$AA@ 5f590404   olemisc.obj
 0002:00005428       ??_C@_1BI@EOED@?$AAS?$AAT?$AAG?$AA_?$AAE?$AA_?$AAI?$AAN?$AAU?$AAS?$AAE?$AA?$AA?$AA?$AH?$AA?$AA?$AA?$AA?$AA?$AAx?$AF?$:O?$AA?$BI?$AA?$AB@ 5f590428   olemisc.obj
 0002:00005440       ??_C@_1DC@JOBB@?$AAS?$AAT?$AAG?$AA_?$AAE?$AA_?$AAI?$AAN?$AAS?$AAU?$AAF?$AAF?$AAI?$AAC?$AAI?$AAE?$AAN?$AAT?$AAM?$AAE@ 5f590440   olemisc.obj
 0002:00005474       ??_C@_1CG@NCMD@?$AAS?$AAT?$AAG?$AA_?$AAE?$AA_?$AAF?$AAI?$AAL?$AAE?$AAN?$AAO?$AAT?$AAF?$AAO?$AAU?$AAN?$AAD?$AA?$AA?$AA?$AA@ 5f590474   olemisc.obj
 0002:0000549c       ??_C@_1DA@NMOL@?$AAS?$AAT?$AAG?$AA_?$AAE?$AA_?$AAF?$AAI?$AAL?$AAE?$AAA?$AAL?$AAR?$AAE?$AAA?$AAD?$AAY?$AAE?$AAX?$AAI@ 5f59049c   olemisc.obj
 0002:000054cc       ??_C@_1DC@HJBC@?$AAS?$AAT?$AAG?$AA_?$AAE?$AA_?$AAE?$AAX?$AAT?$AAA?$AAN?$AAT?$AAM?$AAA?$AAR?$AAS?$AAH?$AAA?$AAL?$AAL@ 5f5904cc   olemisc.obj
 0002:00005500       ??_C@_1DG@FIDG@?$AAS?$AAT?$AAG?$AA_?$AAE?$AA_?$AAD?$AAI?$AAS?$AAK?$AAI?$AAS?$AAW?$AAR?$AAI?$AAT?$AAE?$AAP?$AAR?$AAO@ 5f590500   olemisc.obj
 0002:00005538       ??_C@_1BO@DPJM@?$AAS?$AAT?$AAG?$AA_?$AAE?$AA_?$AAC?$AAA?$AAN?$AAT?$AAS?$AAA?$AAV?$AAE?$AA?$AA?$AA?$AA?$AA?$AH?$AA?$AA?$AA?$AA?$AA?$AA@ 5f590538   olemisc.obj
 0002:00005558       ??_C@_1CG@DOFK@?$AAS?$AAT?$AAG?$AA_?$AAE?$AA_?$AAA?$AAC?$AAC?$AAE?$AAS?$AAS?$AAD?$AAE?$AAN?$AAI?$AAE?$AAD?$AA?$AA?$AA?$AA@ 5f590558   olemisc.obj
 0002:00005580       ??_C@_1CM@BLHG@?$AAS?$AAT?$AAG?$AA_?$AAE?$AA_?$AAA?$AAB?$AAN?$AAO?$AAR?$AAM?$AAA?$AAL?$AAA?$AAP?$AAI?$AAE?$AAX?$AAI@ 5f590580   olemisc.obj
 0002:000055ac       ??_C@_1CG@GHAG@?$AAR?$AAP?$AAC?$AA_?$AAE?$AA_?$AAW?$AAR?$AAO?$AAN?$AAG?$AA_?$AAT?$AAH?$AAR?$AAE?$AAA?$AAD?$AA?$AA?$AA?$AA@ 5f5905ac   olemisc.obj
 0002:000055d4       ??_C@_1CC@HDGM@?$AAR?$AAP?$AAC?$AA_?$AAE?$AA_?$AAU?$AAN?$AAE?$AAX?$AAP?$AAE?$AAC?$AAT?$AAE?$AAD?$AA?$AA?$AA?$AA?$AA?$AH?$AA?$AA@ 5f5905d4   olemisc.obj
 0002:000055f8       ??_C@_1CM@IBFJ@?$AAR?$AAP?$AAC?$AA_?$AAE?$AA_?$AAT?$AAH?$AAR?$AAE?$AAA?$AAD?$AA_?$AAN?$AAO?$AAT?$AA_?$AAI?$AAN?$AAI@ 5f5905f8   olemisc.obj
 0002:00005624       ??_C@_1CM@OFKP@?$AAR?$AAP?$AAC?$AA_?$AAE?$AA_?$AAS?$AAY?$AAS?$AA_?$AAC?$AAA?$AAL?$AAL?$AA_?$AAF?$AAA?$AAI?$AAL?$AAE@ 5f590624   olemisc.obj
 0002:00005650       ??_C@_1CE@BLCF@?$AAR?$AAP?$AAC?$AA_?$AAE?$AA_?$AAS?$AAE?$AAR?$AAV?$AAE?$AAR?$AAF?$AAA?$AAU?$AAL?$AAT?$AA?$AA?$AA?$AH?$AA?$AA@ 5f590650   olemisc.obj
 0002:00005674       ??_C@_1DI@OAKG@?$AAR?$AAP?$AAC?$AA_?$AAE?$AA_?$AAS?$AAE?$AAR?$AAV?$AAE?$AAR?$AAC?$AAA?$AAL?$AAL?$AA_?$AAR?$AAE?$AAT@ 5f590674   olemisc.obj
 0002:000056ac       ??_C@_1DE@IFOI@?$AAR?$AAP?$AAC?$AA_?$AAE?$AA_?$AAS?$AAE?$AAR?$AAV?$AAE?$AAR?$AAC?$AAA?$AAL?$AAL?$AA_?$AAR?$AAE?$AAJ@ 5f5906ac   olemisc.obj
 0002:000056e0       ??_C@_1CM@JEGC@?$AAR?$AAP?$AAC?$AA_?$AAE?$AA_?$AAS?$AAE?$AAR?$AAV?$AAE?$AAR?$AA_?$AAD?$AAI?$AAE?$AAD?$AA_?$AAD?$AAN@ 5f5906e0   olemisc.obj
 0002:0000570c       ??_C@_1CE@GBIE@?$AAR?$AAP?$AAC?$AA_?$AAE?$AA_?$AAS?$AAE?$AAR?$AAV?$AAE?$AAR?$AA_?$AAD?$AAI?$AAE?$AAD?$AA?$AA?$AA?$AH?$AA?$AA@ 5f59070c   olemisc.obj
 0002:00005730       ??_C@_1EA@MMNP@?$AAR?$AAP?$AAC?$AA_?$AAE?$AA_?$AAS?$AAE?$AAR?$AAV?$AAE?$AAR?$AA_?$AAC?$AAA?$AAN?$AAT?$AAU?$AAN?$AAM@ 5f590730   olemisc.obj
 0002:00005770       ??_C@_1DM@HCPL@?$AAR?$AAP?$AAC?$AA_?$AAE?$AA_?$AAS?$AAE?$AAR?$AAV?$AAE?$AAR?$AA_?$AAC?$AAA?$AAN?$AAT?$AAM?$AAA?$AAR@ 5f590770   olemisc.obj
 0002:000057ac       ??_C@_1BI@PEHP@?$AAR?$AAP?$AAC?$AA_?$AAE?$AA_?$AAR?$AAE?$AAT?$AAR?$AAY?$AA?$AA?$AA?$AH?$AA?$AA?$AA?$AA?$AA?$AAt?$AF?$:O?$AA?$BI?$AA?$AB@ 5f5907ac   olemisc.obj
 0002:000057c4       ??_C@_1CO@LJH@?$AAR?$AAP?$AAC?$AA_?$AAE?$AA_?$AAO?$AAU?$AAT?$AA_?$AAO?$AAF?$AA_?$AAR?$AAE?$AAS?$AAO?$AAU?$AAR?$AAC@ 5f5907c4   olemisc.obj
 0002:000057f4       ??_C@_1CK@LGFB@?$AAR?$AAP?$AAC?$AA_?$AAE?$AA_?$AAN?$AAO?$AAT?$AA_?$AAR?$AAE?$AAG?$AAI?$AAS?$AAT?$AAE?$AAR?$AAE?$AAD@ 5f5907f4   olemisc.obj
 0002:00005820       ??_C@_1CI@NHDA@?$AAR?$AAP?$AAC?$AA_?$AAE?$AA_?$AAI?$AAN?$AAV?$AAA?$AAL?$AAI?$AAD?$AAM?$AAE?$AAT?$AAH?$AAO?$AAD?$AA?$AA@ 5f590820   olemisc.obj
 0002:00005848       ??_C@_1DA@FOAB@?$AAR?$AAP?$AAC?$AA_?$AAE?$AA_?$AAI?$AAN?$AAV?$AAA?$AAL?$AAI?$AAD?$AA_?$AAP?$AAA?$AAR?$AAA?$AAM?$AAE@ 5f590848   olemisc.obj
 0002:00005878       ??_C@_1DC@MFFE@?$AAR?$AAP?$AAC?$AA_?$AAE?$AA_?$AAI?$AAN?$AAV?$AAA?$AAL?$AAI?$AAD?$AA_?$AAD?$AAA?$AAT?$AAA?$AAP?$AAA@ 5f590878   olemisc.obj
 0002:000058ac       ??_C@_1CG@BFIL@?$AAR?$AAP?$AAC?$AA_?$AAE?$AA_?$AAI?$AAN?$AAV?$AAA?$AAL?$AAI?$AAD?$AA_?$AAD?$AAA?$AAT?$AAA?$AA?$AA?$AA?$AA@ 5f5908ac   olemisc.obj
 0002:000058d4       ??_C@_1CO@ICIC@?$AAR?$AAP?$AAC?$AA_?$AAE?$AA_?$AAI?$AAN?$AAV?$AAA?$AAL?$AAI?$AAD?$AA_?$AAC?$AAA?$AAL?$AAL?$AAD?$AAA@ 5f5908d4   olemisc.obj
 0002:00005904       ??_C@_1BI@JIFA@?$AAR?$AAP?$AAC?$AA_?$AAE?$AA_?$AAF?$AAA?$AAU?$AAL?$AAT?$AA?$AA?$AA?$AH?$AA?$AA?$AA?$AA?$AA?$AA?$9G?$BM?$AF?$:O?$AA?$BI?$AA?$AB@ 5f590904   olemisc.obj
 0002:0000591c       ??_C@_1CG@JINA@?$AAR?$AAP?$AAC?$AA_?$AAE?$AA_?$AAD?$AAI?$AAS?$AAC?$AAO?$AAN?$AAN?$AAE?$AAC?$AAT?$AAE?$AAD?$AA?$AA?$AA?$AA@ 5f59091c   olemisc.obj
 0002:00005944       ??_C@_1DI@PFCK@?$AAR?$AAP?$AAC?$AA_?$AAE?$AA_?$AAC?$AAO?$AAN?$AAN?$AAE?$AAC?$AAT?$AAI?$AAO?$AAN?$AA_?$AAT?$AAE?$AAR@ 5f590944   olemisc.obj
 0002:0000597c       ??_C@_1CE@LGEP@?$AAR?$AAP?$AAC?$AA_?$AAE?$AA_?$AAC?$AAL?$AAI?$AAE?$AAN?$AAT?$AA_?$AAD?$AAI?$AAE?$AAD?$AA?$AA?$AA?$AH?$AA?$AA@ 5f59097c   olemisc.obj
 0002:000059a0       ??_C@_1EA@BBAI@?$AAR?$AAP?$AAC?$AA_?$AAE?$AA_?$AAC?$AAL?$AAI?$AAE?$AAN?$AAT?$AA_?$AAC?$AAA?$AAN?$AAT?$AAU?$AAN?$AAM@ 5f5909a0   olemisc.obj
 0002:000059e0       ??_C@_1DM@NNK@?$AAR?$AAP?$AAC?$AA_?$AAE?$AA_?$AAC?$AAL?$AAI?$AAE?$AAN?$AAT?$AA_?$AAC?$AAA?$AAN?$AAT?$AAM?$AAA?$AAR@ 5f5909e0   olemisc.obj
 0002:00005a1c       ??_C@_1CG@EAON@?$AAR?$AAP?$AAC?$AA_?$AAE?$AA_?$AAC?$AAH?$AAA?$AAN?$AAG?$AAE?$AAD?$AA_?$AAM?$AAO?$AAD?$AAE?$AA?$AA?$AA?$AA@ 5f590a1c   olemisc.obj
 0002:00005a44       ??_C@_1DA@JEBP@?$AAR?$AAP?$AAC?$AA_?$AAE?$AA_?$AAC?$AAA?$AAN?$AAT?$AAT?$AAR?$AAA?$AAN?$AAS?$AAM?$AAI?$AAT?$AA_?$AAC@ 5f590a44   olemisc.obj
 0002:00005a74       ??_C@_1DE@JPLC@?$AAR?$AAP?$AAC?$AA_?$AAE?$AA_?$AAC?$AAA?$AAN?$AAT?$AAP?$AAO?$AAS?$AAT?$AA_?$AAI?$AAN?$AAS?$AAE?$AAN@ 5f590a74   olemisc.obj
 0002:00005aa8       ??_C@_1EE@BONG@?$AAR?$AAP?$AAC?$AA_?$AAE?$AA_?$AAC?$AAA?$AAN?$AAT?$AAC?$AAA?$AAL?$AAL?$AAO?$AAU?$AAT?$AA_?$AAI?$AAN@ 5f590aa8   olemisc.obj
 0002:00005aec       ??_C@_1EC@BNP@?$AAR?$AAP?$AAC?$AA_?$AAE?$AA_?$AAC?$AAA?$AAN?$AAT?$AAC?$AAA?$AAL?$AAL?$AAO?$AAU?$AAT?$AA_?$AAI?$AAN@ 5f590aec   olemisc.obj
 0002:00005b30       ??_C@_1DM@IGPA@?$AAR?$AAP?$AAC?$AA_?$AAE?$AA_?$AAC?$AAA?$AAN?$AAT?$AAC?$AAA?$AAL?$AAL?$AAO?$AAU?$AAT?$AA_?$AAI?$AAN@ 5f590b30   olemisc.obj
 0002:00005b6c       ??_C@_1DA@GBNH@?$AAR?$AAP?$AAC?$AA_?$AAE?$AA_?$AAC?$AAA?$AAN?$AAT?$AAC?$AAA?$AAL?$AAL?$AAO?$AAU?$AAT?$AA_?$AAA?$AAG@ 5f590b6c   olemisc.obj
 0002:00005b9c       ??_C@_1CI@HIFL@?$AAR?$AAP?$AAC?$AA_?$AAE?$AA_?$AAC?$AAA?$AAL?$AAL?$AA_?$AAR?$AAE?$AAJ?$AAE?$AAC?$AAT?$AAE?$AAD?$AA?$AA@ 5f590b9c   olemisc.obj
 0002:00005bc4       ??_C@_1CI@OODH@?$AAR?$AAP?$AAC?$AA_?$AAE?$AA_?$AAC?$AAA?$AAL?$AAL?$AA_?$AAC?$AAA?$AAN?$AAC?$AAE?$AAL?$AAE?$AAD?$AA?$AA@ 5f590bc4   olemisc.obj
 0002:00005bec       ??_C@_1DI@LBBG@?$AAR?$AAP?$AAC?$AA_?$AAE?$AA_?$AAA?$AAT?$AAT?$AAE?$AAM?$AAP?$AAT?$AAE?$AAD?$AA_?$AAM?$AAU?$AAL?$AAT@ 5f590bec   olemisc.obj
 0002:00005c24       ??_C@_1CG@DFFG@?$AAR?$AAE?$AAG?$AAD?$AAB?$AA_?$AAE?$AA_?$AAW?$AAR?$AAI?$AAT?$AAE?$AAR?$AAE?$AAG?$AAD?$AAB?$AA?$AA?$AA?$AA@ 5f590c24   olemisc.obj
 0002:00005c4c       ??_C@_1CE@FHKA@?$AAR?$AAE?$AAG?$AAD?$AAB?$AA_?$AAE?$AA_?$AAR?$AAE?$AAA?$AAD?$AAR?$AAE?$AAG?$AAD?$AAB?$AA?$AA?$AA?$AH?$AA?$AA@ 5f590c4c   olemisc.obj
 0002:00005c70       ??_C@_1CG@BDGN@?$AAR?$AAE?$AAG?$AAD?$AAB?$AA_?$AAE?$AA_?$AAK?$AAE?$AAY?$AAM?$AAI?$AAS?$AAS?$AAI?$AAN?$AAG?$AA?$AA?$AA?$AA@ 5f590c70   olemisc.obj
 0002:00005c98       ??_C@_1CK@MGDO@?$AAR?$AAE?$AAG?$AAD?$AAB?$AA_?$AAE?$AA_?$AAI?$AAN?$AAV?$AAA?$AAL?$AAI?$AAD?$AAV?$AAA?$AAL?$AAU?$AAE@ 5f590c98   olemisc.obj
 0002:00005cc4       ??_C@_1CE@EJHK@?$AAR?$AAE?$AAG?$AAD?$AAB?$AA_?$AAE?$AA_?$AAI?$AAI?$AAD?$AAN?$AAO?$AAT?$AAR?$AAE?$AAG?$AA?$AA?$AA?$AH?$AA?$AA@ 5f590cc4   olemisc.obj
 0002:00005ce8       ??_C@_1CI@CCKM@?$AAR?$AAE?$AAG?$AAD?$AAB?$AA_?$AAE?$AA_?$AAC?$AAL?$AAA?$AAS?$AAS?$AAN?$AAO?$AAT?$AAR?$AAE?$AAG?$AA?$AA@ 5f590ce8   olemisc.obj
 0002:00005d10       ??_C@_1CC@NLOO@?$AAO?$AAL?$AAE?$AAO?$AAB?$AAJ?$AA_?$AAE?$AA_?$AAN?$AAO?$AAV?$AAE?$AAR?$AAB?$AAS?$AA?$AA?$AA?$AA?$AA?$AH?$AA?$AA@ 5f590d10   olemisc.obj
 0002:00005d34       ??_C@_1CK@FAO@?$AAO?$AAL?$AAE?$AAO?$AAB?$AAJ?$AA_?$AAE?$AA_?$AAI?$AAN?$AAV?$AAA?$AAL?$AAI?$AAD?$AAV?$AAE?$AAR?$AAB@ 5f590d34   olemisc.obj
 0002:00005d60       ??_C@_1CG@BCJA@?$AAO?$AAL?$AAE?$AA_?$AAE?$AA_?$AAW?$AAR?$AAO?$AAN?$AAG?$AAC?$AAO?$AAM?$AAP?$AAO?$AAB?$AAJ?$AA?$AA?$AA?$AA@ 5f590d60   olemisc.obj
 0002:00005d88       ??_C@_1BK@JFPG@?$AAO?$AAL?$AAE?$AA_?$AAE?$AA_?$AAS?$AAT?$AAA?$AAT?$AAI?$AAC?$AA?$AA?$AA?$AA?$AA?$AH?$AA?$AA?$AA?$AA?$AA?$AAq?$AF?$:O@ 5f590d88   olemisc.obj
 0002:00005da4       ??_C@_1DE@GBEI@?$AAO?$AAL?$AAE?$AA_?$AAE?$AA_?$AAP?$AAR?$AAO?$AAM?$AAP?$AAT?$AAS?$AAA?$AAV?$AAE?$AAC?$AAA?$AAN?$AAC@ 5f590da4   olemisc.obj
 0002:00005dd8       ??_C@_1BM@CCJI@?$AAO?$AAL?$AAE?$AA_?$AAE?$AA_?$AAO?$AAL?$AAE?$AAV?$AAE?$AAR?$AAB?$AA?$AA?$AA?$AH?$AA?$AA?$AA?$AA?$AA?$AApd?$AF?$:O@ 5f590dd8   olemisc.obj
 0002:00005df4       ??_C@_1CC@LJHL@?$AAO?$AAL?$AAE?$AA_?$AAE?$AA_?$AAN?$AAO?$AAT?$AAR?$AAU?$AAN?$AAN?$AAI?$AAN?$AAG?$AA?$AA?$AA?$AA?$AA?$AH?$AA?$AA@ 5f590df4   olemisc.obj
 0002:00005e18       ??_C@_1DA@BBIE@?$AAO?$AAL?$AAE?$AA_?$AAE?$AA_?$AAN?$AAO?$AAT?$AA_?$AAI?$AAN?$AAP?$AAL?$AAA?$AAC?$AAE?$AAA?$AAC?$AAT@ 5f590e18   olemisc.obj
 0002:00005e48       ??_C@_1CA@BEG@?$AAO?$AAL?$AAE?$AA_?$AAE?$AA_?$AAN?$AAO?$AAS?$AAT?$AAO?$AAR?$AAA?$AAG?$AAE?$AA?$AA?$AA?$AH?$AA?$AA?$AA?$AA?$AA?$AA@ 5f590e48   olemisc.obj
 0002:00005e68       ??_C@_1CG@COAI@?$AAO?$AAL?$AAE?$AA_?$AAE?$AA_?$AAN?$AAO?$AAC?$AAO?$AAN?$AAN?$AAE?$AAC?$AAT?$AAI?$AAO?$AAN?$AA?$AA?$AA?$AA@ 5f590e68   olemisc.obj
 0002:00005e90       ??_C@_1BM@BNPN@?$AAO?$AAL?$AAE?$AA_?$AAE?$AA_?$AAN?$AAO?$AAC?$AAA?$AAC?$AAH?$AAE?$AA?$AA?$AA?$AH?$AA?$AA?$AA?$AA?$AA?$AAl?$AF?$:O@ 5f590e90   olemisc.obj
 0002:00005eac       ??_C@_1CE@ICFE@?$AAO?$AAL?$AAE?$AA_?$AAE?$AA_?$AAI?$AAN?$AAV?$AAA?$AAL?$AAI?$AAD?$AAR?$AAE?$AAC?$AAT?$AA?$AA?$AA?$AH?$AA?$AA@ 5f590eac   olemisc.obj
 0002:00005ed0       ??_C@_1CE@IEIG@?$AAO?$AAL?$AAE?$AA_?$AAE?$AA_?$AAI?$AAN?$AAV?$AAA?$AAL?$AAI?$AAD?$AAH?$AAW?$AAN?$AAD?$AA?$AA?$AA?$AH?$AA?$AA@ 5f590ed0   olemisc.obj
 0002:00005ef4       ??_C@_1CE@FBOG@?$AAO?$AAL?$AAE?$AA_?$AAE?$AA_?$AAE?$AAN?$AAU?$AAM?$AA_?$AAN?$AAO?$AAM?$AAO?$AAR?$AAE?$AA?$AA?$AA?$AH?$AA?$AA@ 5f590ef4   olemisc.obj
 0002:00005f18       ??_C@_1CA@CPLB@?$AAO?$AAL?$AAE?$AA_?$AAE?$AA_?$AAC?$AAL?$AAA?$AAS?$AAS?$AAD?$AAI?$AAF?$AAF?$AA?$AA?$AA?$AH?$AA?$AA?$AA?$AA?$AA?$AA@ 5f590f18   olemisc.obj
 0002:00005f38       ??_C@_1CE@MKJF@?$AAO?$AAL?$AAE?$AA_?$AAE?$AA_?$AAC?$AAA?$AAN?$AAT?$AAC?$AAO?$AAN?$AAV?$AAE?$AAR?$AAT?$AA?$AA?$AA?$AH?$AA?$AA@ 5f590f38   olemisc.obj
 0002:00005f5c       ??_C@_1CM@OLDA@?$AAO?$AAL?$AAE?$AA_?$AAE?$AA_?$AAC?$AAA?$AAN?$AAT?$AA_?$AAG?$AAE?$AAT?$AAM?$AAO?$AAN?$AAI?$AAK?$AAE@ 5f590f5c   olemisc.obj
 0002:00005f88       ??_C@_1DA@JHGK@?$AAO?$AAL?$AAE?$AA_?$AAE?$AA_?$AAC?$AAA?$AAN?$AAT?$AA_?$AAB?$AAI?$AAN?$AAD?$AAT?$AAO?$AAS?$AAO?$AAU@ 5f590f88   olemisc.obj
 0002:00005fb8       ??_C@_1BI@HLCA@?$AAO?$AAL?$AAE?$AA_?$AAE?$AA_?$AAB?$AAL?$AAA?$AAN?$AAK?$AA?$AA?$AA?$AH?$AA?$AA?$AA?$AA?$AA?$AAfh?$AF?$:O?$AA?$BI?$AA?$AB@ 5f590fb8   olemisc.obj
 0002:00005fd0       ??_C@_1DC@IKJE@?$AAO?$AAL?$AAE?$AA_?$AAE?$AA_?$AAA?$AAD?$AAV?$AAI?$AAS?$AAE?$AAN?$AAO?$AAT?$AAS?$AAU?$AAP?$AAP?$AAO@ 5f590fd0   olemisc.obj
 0002:00006004       ??_C@_1BG@HAAJ@?$AAO?$AAL?$AAE?$AA_?$AAE?$AA_?$AAA?$AAD?$AAV?$AAF?$AA?$AA?$AA?$AA?$AA?$AH?$AA?$AA?$AA?$AA?$AA?$AAd?$AF?$:O?$AA?$BG?$AA?$AB@ 5f591004   olemisc.obj
 0002:0000601c       ??_C@_1CC@FBLB@?$AAM?$AAK?$AA_?$AAE?$AA_?$AAU?$AAN?$AAA?$AAV?$AAA?$AAI?$AAL?$AAA?$AAB?$AAL?$AAE?$AA?$AA?$AA?$AA?$AA?$AH?$AA?$AA@ 5f59101c   olemisc.obj
 0002:00006040       ??_C@_1BI@FDNB@?$AAM?$AAK?$AA_?$AAE?$AA_?$AAS?$AAY?$AAN?$AAT?$AAA?$AAX?$AA?$AA?$AA?$AH?$AA?$AA?$AA?$AA?$AA?$AAc?$GA?$AF?$:O?$AA?$BI?$AA?$AB@ 5f591040   olemisc.obj
 0002:00006058       ??_C@_1BM@NNMF@?$AAM?$AAK?$AA_?$AAE?$AA_?$AAN?$AAO?$AAT?$AAB?$AAO?$AAU?$AAN?$AAD?$AA?$AA?$AA?$AH?$AA?$AA?$AA?$AA?$AA?$AAb?$;E?$AF?$:O@ 5f591058   olemisc.obj
 0002:00006074       ??_C@_1CC@EEBL@?$AAM?$AAK?$AA_?$AAE?$AA_?$AAN?$AAO?$AAT?$AAB?$AAI?$AAN?$AAD?$AAA?$AAB?$AAL?$AAE?$AA?$AA?$AA?$AA?$AA?$AH?$AA?$AA@ 5f591074   olemisc.obj
 0002:00006098       ??_C@_1BO@POFJ@?$AAM?$AAK?$AA_?$AAE?$AA_?$AAN?$AAO?$AAS?$AAT?$AAO?$AAR?$AAA?$AAG?$AAE?$AA?$AA?$AA?$AA?$AA?$AH?$AA?$AA?$AA?$AA?$AA?$AA@ 5f591098   olemisc.obj
 0002:000060b8       ??_C@_1BM@KFME@?$AAM?$AAK?$AA_?$AAE?$AA_?$AAN?$AAO?$AAP?$AAR?$AAE?$AAF?$AAI?$AAX?$AA?$AA?$AA?$AH?$AA?$AA?$AA?$AA?$AA?$AA?$GAd?$AF?$:O@ 5f5910b8   olemisc.obj
 0002:000060d4       ??_C@_1BM@JBAA@?$AAM?$AAK?$AA_?$AAE?$AA_?$AAN?$AAO?$AAO?$AAB?$AAJ?$AAE?$AAC?$AAT?$AA?$AA?$AA?$AH?$AA?$AA?$AA?$AA?$AA?$AA_?$;I?$AF?$:O@ 5f5910d4   olemisc.obj
 0002:000060f0       ??_C@_1BO@BOCH@?$AAM?$AAK?$AA_?$AAE?$AA_?$AAN?$AAO?$AAI?$AAN?$AAV?$AAE?$AAR?$AAS?$AAE?$AA?$AA?$AA?$AA?$AA?$AH?$AA?$AA?$AA?$AA?$AA?$AA@ 5f5910f0   olemisc.obj
 0002:00006110       ??_C@_1CG@JKOP@?$AAM?$AAK?$AA_?$AAE?$AA_?$AAN?$AAO?$AA_?$AAN?$AAO?$AAR?$AAM?$AAA?$AAL?$AAI?$AAZ?$AAE?$AAD?$AA?$AA?$AA?$AA@ 5f591110   olemisc.obj
 0002:00006138       ??_C@_1CC@IOML@?$AAM?$AAK?$AA_?$AAE?$AA_?$AAN?$AAE?$AAE?$AAD?$AAG?$AAE?$AAN?$AAE?$AAR?$AAI?$AAC?$AA?$AA?$AA?$AA?$AA?$AH?$AA?$AA@ 5f591138   olemisc.obj
 0002:0000615c       ??_C@_1CI@EEHM@?$AAM?$AAK?$AA_?$AAE?$AA_?$AAM?$AAU?$AAS?$AAT?$AAB?$AAO?$AAT?$AAH?$AAE?$AAR?$AAU?$AAS?$AAE?$AAR?$AA?$AA@ 5f59115c   olemisc.obj
 0002:00006184       ??_C@_1CM@JHBL@?$AAM?$AAK?$AA_?$AAE?$AA_?$AAI?$AAN?$AAV?$AAA?$AAL?$AAI?$AAD?$AAE?$AAX?$AAT?$AAE?$AAN?$AAS?$AAI?$AAO@ 5f591184   olemisc.obj
 0002:000061b0       ??_C@_1EO@EHAI@?$AAM?$AAK?$AA_?$AAE?$AA_?$AAI?$AAN?$AAT?$AAE?$AAR?$AAM?$AAE?$AAD?$AAI?$AAA?$AAT?$AAE?$AAI?$AAN?$AAT@ 5f5911b0   olemisc.obj
 0002:00006200       ??_C@_1CM@GDPI@?$AAM?$AAK?$AA_?$AAE?$AA_?$AAE?$AAX?$AAC?$AAE?$AAE?$AAD?$AAE?$AAD?$AAD?$AAE?$AAA?$AAD?$AAL?$AAI?$AAN@ 5f591200   olemisc.obj
 0002:0000622c       ??_C@_1DA@CFPI@?$AAM?$AAK?$AA_?$AAE?$AA_?$AAE?$AAN?$AAU?$AAM?$AAE?$AAR?$AAA?$AAT?$AAI?$AAO?$AAN?$AA_?$AAF?$AAA?$AAI@ 5f59122c   olemisc.obj
 0002:0000625c       ??_C@_1CK@IBJB@?$AAM?$AAK?$AA_?$AAE?$AA_?$AAC?$AAO?$AAN?$AAN?$AAE?$AAC?$AAT?$AAM?$AAA?$AAN?$AAU?$AAA?$AAL?$AAL?$AAY@ 5f59125c   olemisc.obj
 0002:00006288       ??_C@_1CE@BCIM@?$AAM?$AAK?$AA_?$AAE?$AA_?$AAC?$AAA?$AAN?$AAT?$AAO?$AAP?$AAE?$AAN?$AAF?$AAI?$AAL?$AAE?$AA?$AA?$AA?$AH?$AA?$AA@ 5f591288   olemisc.obj
 0002:000062ac       ??_C@_1CG@BBBN@?$AAM?$AAE?$AAM?$AA_?$AAE?$AA_?$AAI?$AAN?$AAV?$AAA?$AAL?$AAI?$AAD?$AA_?$AAS?$AAI?$AAZ?$AAE?$AA?$AA?$AA?$AA@ 5f5912ac   olemisc.obj
 0002:000062d4       ??_C@_1CG@GFLB@?$AAM?$AAE?$AAM?$AA_?$AAE?$AA_?$AAI?$AAN?$AAV?$AAA?$AAL?$AAI?$AAD?$AA_?$AAR?$AAO?$AAO?$AAT?$AA?$AA?$AA?$AA@ 5f5912d4   olemisc.obj
 0002:000062fc       ??_C@_1CG@JGCE@?$AAM?$AAE?$AAM?$AA_?$AAE?$AA_?$AAI?$AAN?$AAV?$AAA?$AAL?$AAI?$AAD?$AA_?$AAL?$AAI?$AAN?$AAK?$AA?$AA?$AA?$AA@ 5f5912fc   olemisc.obj
 0002:00006324       ??_C@_1CM@ICP@?$AAI?$AAN?$AAP?$AAL?$AAA?$AAC?$AAE?$AA_?$AAE?$AA_?$AAN?$AAO?$AAT?$AAU?$AAN?$AAD?$AAO?$AAA?$AAB?$AAL@ 5f591324   olemisc.obj
 0002:00006350       ??_C@_1CM@OIKI@?$AAI?$AAN?$AAP?$AAL?$AAA?$AAC?$AAE?$AA_?$AAE?$AA_?$AAN?$AAO?$AAT?$AAO?$AAO?$AAL?$AAS?$AAP?$AAA?$AAC@ 5f591350   olemisc.obj
 0002:0000637c       ??_C@_1BG@GAHH@?$AAD?$AAV?$AA_?$AAE?$AA_?$AAT?$AAY?$AAM?$AAE?$AAD?$AA?$AA?$AA?$AA?$AA?$AH?$AA?$AA?$AA?$AA?$AA?$AAS?$AE?$AF?$:O?$AA?$BG?$AA?$AB@ 5f59137c   olemisc.obj
 0002:00006394       ??_C@_1BO@KLE@?$AAD?$AAV?$AA_?$AAE?$AA_?$AAS?$AAT?$AAG?$AAM?$AAE?$AAD?$AAI?$AAU?$AAM?$AA?$AA?$AA?$AA?$AA?$AH?$AA?$AA?$AA?$AA?$AA?$AA@ 5f591394   olemisc.obj
 0002:000063b4       ??_C@_1BM@MHJF@?$AAD?$AAV?$AA_?$AAE?$AA_?$AAS?$AAT?$AAA?$AAT?$AAD?$AAA?$AAT?$AAA?$AA?$AA?$AA?$AH?$AA?$AA?$AA?$AA?$AA?$AAQ?$9I?$AF?$:O@ 5f5913b4   olemisc.obj
 0002:000063d0       ??_C@_1CG@CNAE@?$AAD?$AAV?$AA_?$AAE?$AA_?$AAN?$AAO?$AAI?$AAV?$AAI?$AAE?$AAW?$AAO?$AAB?$AAJ?$AAE?$AAC?$AAT?$AA?$AA?$AA?$AA@ 5f5913d0   olemisc.obj
 0002:000063f8       ??_C@_1BI@BDDA@?$AAD?$AAV?$AA_?$AAE?$AA_?$AAL?$AAI?$AAN?$AAD?$AAE?$AAX?$AA?$AA?$AA?$AH?$AA?$AA?$AA?$AA?$AA?$AAP?$AI?$AF?$:O?$AA?$BI?$AA?$AB@ 5f5913f8   olemisc.obj
 0002:00006410       ??_C@_1BO@GMFM@?$AAD?$AAV?$AA_?$AAE?$AA_?$AAF?$AAO?$AAR?$AAM?$AAA?$AAT?$AAE?$AAT?$AAC?$AA?$AA?$AA?$AA?$AA?$AH?$AA?$AA?$AA?$AA?$AA?$AA@ 5f591410   olemisc.obj
 0002:00006430       ??_C@_1DC@CMMI@?$AAD?$AAV?$AA_?$AAE?$AA_?$AAD?$AAV?$AAT?$AAA?$AAR?$AAG?$AAE?$AAT?$AAD?$AAE?$AAV?$AAI?$AAC?$AAE?$AA_@ 5f591430   olemisc.obj
 0002:00006464       ??_C@_1CI@KID@?$AAD?$AAV?$AA_?$AAE?$AA_?$AAD?$AAV?$AAT?$AAA?$AAR?$AAG?$AAE?$AAT?$AAD?$AAE?$AAV?$AAI?$AAC?$AAE?$AA?$AA@ 5f591464   olemisc.obj
 0002:0000648c       ??_C@_1BM@JHPO@?$AAD?$AAV?$AA_?$AAE?$AA_?$AAD?$AAV?$AAA?$AAS?$AAP?$AAE?$AAC?$AAT?$AA?$AA?$AA?$AH?$AA?$AA?$AA?$AA?$AA?$AAL?$AF?$:O@ 5f59148c   olemisc.obj
 0002:000064a8       ??_C@_1CA@BPPK@?$AAD?$AAV?$AA_?$AAE?$AA_?$AAC?$AAL?$AAI?$AAP?$AAF?$AAO?$AAR?$AAM?$AAA?$AAT?$AA?$AA?$AA?$AH?$AA?$AA?$AA?$AA?$AA?$AA@ 5f5914a8   olemisc.obj
 0002:000064c8       ??_C@_1DC@OJMN@?$AAD?$AAR?$AAA?$AAG?$AAD?$AAR?$AAO?$AAP?$AA_?$AAE?$AA_?$AAN?$AAO?$AAT?$AAR?$AAE?$AAG?$AAI?$AAS?$AAT@ 5f5914c8   olemisc.obj
 0002:000064fc       ??_C@_1CO@BCKO@?$AAD?$AAR?$AAA?$AAG?$AAD?$AAR?$AAO?$AAP?$AA_?$AAE?$AA_?$AAI?$AAN?$AAV?$AAA?$AAL?$AAI?$AAD?$AAH?$AAW@ 5f5914fc   olemisc.obj
 0002:0000652c       ??_C@_1DK@LFEE@?$AAD?$AAR?$AAA?$AAG?$AAD?$AAR?$AAO?$AAP?$AA_?$AAE?$AA_?$AAA?$AAL?$AAR?$AAE?$AAA?$AAD?$AAY?$AAR?$AAE@ 5f59152c   olemisc.obj
 0002:00006568       ??_C@_1CG@NPMK@?$AAD?$AAI?$AAS?$AAP?$AA_?$AAE?$AA_?$AAU?$AAN?$AAK?$AAN?$AAO?$AAW?$AAN?$AAN?$AAA?$AAM?$AAE?$AA?$AA?$AA?$AA@ 5f591568   olemisc.obj
 0002:00006590       ??_C@_1CG@NEPC@?$AAD?$AAI?$AAS?$AAP?$AA_?$AAE?$AA_?$AAU?$AAN?$AAK?$AAN?$AAO?$AAW?$AAN?$AAL?$AAC?$AAI?$AAD?$AA?$AA?$AA?$AA@ 5f591590   olemisc.obj
 0002:000065b8       ??_C@_1DA@DIIF@?$AAD?$AAI?$AAS?$AAP?$AA_?$AAE?$AA_?$AAU?$AAN?$AAK?$AAN?$AAO?$AAW?$AAN?$AAI?$AAN?$AAT?$AAE?$AAR?$AAF@ 5f5915b8   olemisc.obj
 0002:000065e8       ??_C@_1CI@KIFA@?$AAD?$AAI?$AAS?$AAP?$AA_?$AAE?$AA_?$AAT?$AAY?$AAP?$AAE?$AAM?$AAI?$AAS?$AAM?$AAA?$AAT?$AAC?$AAH?$AA?$AA@ 5f5915e8   olemisc.obj
 0002:00006610       ??_C@_1DA@IGMM@?$AAD?$AAI?$AAS?$AAP?$AA_?$AAE?$AA_?$AAP?$AAA?$AAR?$AAA?$AAM?$AAN?$AAO?$AAT?$AAO?$AAP?$AAT?$AAI?$AAO@ 5f591610   olemisc.obj
 0002:00006640       ??_C@_1CK@LMPI@?$AAD?$AAI?$AAS?$AAP?$AA_?$AAE?$AA_?$AAP?$AAA?$AAR?$AAA?$AAM?$AAN?$AAO?$AAT?$AAF?$AAO?$AAU?$AAN?$AAD@ 5f591640   olemisc.obj
 0002:0000666c       ??_C@_1CA@IEKP@?$AAD?$AAI?$AAS?$AAP?$AA_?$AAE?$AA_?$AAO?$AAV?$AAE?$AAR?$AAF?$AAL?$AAO?$AAW?$AA?$AA?$AA?$AH?$AA?$AA?$AA?$AA?$AA?$AA@ 5f59166c   olemisc.obj
 0002:0000668c       ??_C@_1CM@DEPO@?$AAD?$AAI?$AAS?$AAP?$AA_?$AAE?$AA_?$AAN?$AAO?$AAT?$AAA?$AAC?$AAO?$AAL?$AAL?$AAE?$AAC?$AAT?$AAI?$AAO@ 5f59168c   olemisc.obj
 0002:000066b8       ??_C@_1CG@NIDG@?$AAD?$AAI?$AAS?$AAP?$AA_?$AAE?$AA_?$AAN?$AAO?$AAN?$AAA?$AAM?$AAE?$AAD?$AAA?$AAR?$AAG?$AAS?$AA?$AA?$AA?$AA@ 5f5916b8   olemisc.obj
 0002:000066e0       ??_C@_1CM@EGKL@?$AAD?$AAI?$AAS?$AAP?$AA_?$AAE?$AA_?$AAM?$AAE?$AAM?$AAB?$AAE?$AAR?$AAN?$AAO?$AAT?$AAF?$AAO?$AAU?$AAN@ 5f5916e0   olemisc.obj
 0002:0000670c       ??_C@_1CC@JEDP@?$AAD?$AAI?$AAS?$AAP?$AA_?$AAE?$AA_?$AAE?$AAX?$AAC?$AAE?$AAP?$AAT?$AAI?$AAO?$AAN?$AA?$AA?$AA?$AA?$AA?$AH?$AA?$AA@ 5f59170c   olemisc.obj
 0002:00006730       ??_C@_1CE@KKCF@?$AAD?$AAI?$AAS?$AAP?$AA_?$AAE?$AA_?$AAB?$AAA?$AAD?$AAV?$AAA?$AAR?$AAT?$AAY?$AAP?$AAE?$AA?$AA?$AA?$AH?$AA?$AA@ 5f591730   olemisc.obj
 0002:00006754       ??_C@_1CK@HPPF@?$AAD?$AAI?$AAS?$AAP?$AA_?$AAE?$AA_?$AAB?$AAA?$AAD?$AAP?$AAA?$AAR?$AAA?$AAM?$AAC?$AAO?$AAU?$AAN?$AAT@ 5f591754   olemisc.obj
 0002:00006780       ??_C@_1CA@PNEE@?$AAD?$AAI?$AAS?$AAP?$AA_?$AAE?$AA_?$AAB?$AAA?$AAD?$AAI?$AAN?$AAD?$AAE?$AAX?$AA?$AA?$AA?$AH?$AA?$AA?$AA?$AA?$AA?$AA@ 5f591780   olemisc.obj
 0002:000067a0       ??_C@_1CC@BEPF@?$AAD?$AAI?$AAS?$AAP?$AA_?$AAE?$AA_?$AAB?$AAA?$AAD?$AAC?$AAA?$AAL?$AAL?$AAE?$AAE?$AA?$AA?$AA?$AA?$AA?$AH?$AA?$AA@ 5f5917a0   olemisc.obj
 0002:000067c4       ??_C@_1CK@NMIM@?$AAD?$AAI?$AAS?$AAP?$AA_?$AAE?$AA_?$AAA?$AAR?$AAR?$AAA?$AAY?$AAI?$AAS?$AAL?$AAO?$AAC?$AAK?$AAE?$AAD@ 5f5917c4   olemisc.obj
 0002:000067f0       ??_C@_1DM@NCMG@?$AAC?$AAO?$AAN?$AAV?$AAE?$AAR?$AAT?$AA1?$AA0?$AA_?$AAE?$AA_?$AAS?$AAT?$AAG?$AA_?$AAN?$AAO?$AA_?$AAS@ 5f5917f0   olemisc.obj
 0002:0000682c       ??_C@_1CI@LLEF@?$AAC?$AAO?$AAN?$AAV?$AAE?$AAR?$AAT?$AA1?$AA0?$AA_?$AAE?$AA_?$AAS?$AAT?$AAG?$AA_?$AAF?$AAM?$AAT?$AA?$AA@ 5f59182c   olemisc.obj
 0002:00006854       ??_C@_1DM@JNIG@?$AAC?$AAO?$AAN?$AAV?$AAE?$AAR?$AAT?$AA1?$AA0?$AA_?$AAE?$AA_?$AAS?$AAT?$AAG?$AA_?$AAD?$AAI?$AAB?$AA_@ 5f591854   olemisc.obj
 0002:00006890       ??_C@_1DE@PHEO@?$AAC?$AAO?$AAN?$AAV?$AAE?$AAR?$AAT?$AA1?$AA0?$AA_?$AAE?$AA_?$AAO?$AAL?$AAE?$AAS?$AAT?$AAR?$AAE?$AAA@ 5f591890   olemisc.obj
 0002:000068c4       ??_C@_1DE@NFKJ@?$AAC?$AAO?$AAN?$AAV?$AAE?$AAR?$AAT?$AA1?$AA0?$AA_?$AAE?$AA_?$AAO?$AAL?$AAE?$AAS?$AAT?$AAR?$AAE?$AAA@ 5f5918c4   olemisc.obj
 0002:000068f8       ??_C@_1DE@PKBG@?$AAC?$AAO?$AAN?$AAV?$AAE?$AAR?$AAT?$AA1?$AA0?$AA_?$AAE?$AA_?$AAO?$AAL?$AAE?$AAS?$AAT?$AAR?$AAE?$AAA@ 5f5918f8   olemisc.obj
 0002:0000692c       ??_C@_1EI@IMIH@?$AAC?$AAO?$AAN?$AAV?$AAE?$AAR?$AAT?$AA1?$AA0?$AA_?$AAE?$AA_?$AAO?$AAL?$AAE?$AAS?$AAT?$AAR?$AAE?$AAA@ 5f59192c   olemisc.obj
 0002:00006974       ??_C@_1CG@BGOE@?$AAC?$AAO?$AA_?$AAE?$AA_?$AAW?$AAR?$AAO?$AAN?$AAG?$AAO?$AAS?$AAF?$AAO?$AAR?$AAA?$AAP?$AAP?$AA?$AA?$AA?$AA@ 5f591974   olemisc.obj
 0002:0000699c       ??_C@_1CK@LBAM@?$AAC?$AAO?$AA_?$AAE?$AA_?$AAS?$AAE?$AAR?$AAV?$AAE?$AAR?$AA_?$AAS?$AAT?$AAO?$AAP?$AAP?$AAI?$AAN?$AAG@ 5f59199c   olemisc.obj
 0002:000069c8       ??_C@_1DC@EPNB@?$AAC?$AAO?$AA_?$AAE?$AA_?$AAS?$AAE?$AAR?$AAV?$AAE?$AAR?$AA_?$AAE?$AAX?$AAE?$AAC?$AA_?$AAF?$AAA?$AAI@ 5f5919c8   olemisc.obj
 0002:000069fc       ??_C@_1CK@NMPH@?$AAC?$AAO?$AA_?$AAE?$AA_?$AAS?$AAC?$AAM?$AA_?$AAR?$AAP?$AAC?$AA_?$AAF?$AAA?$AAI?$AAL?$AAU?$AAR?$AAE@ 5f5919fc   olemisc.obj
 0002:00006a28       ??_C@_1BO@FALE@?$AAC?$AAO?$AA_?$AAE?$AA_?$AAS?$AAC?$AAM?$AA_?$AAE?$AAR?$AAR?$AAO?$AAR?$AA?$AA?$AA?$AA?$AA?$AH?$AA?$AA?$AA?$AA?$AA?$AA@ 5f591a28   olemisc.obj
 0002:00006a48       ??_C@_1DA@FCAF@?$AAC?$AAO?$AA_?$AAE?$AA_?$AAO?$AAB?$AAJ?$AAS?$AAR?$AAV?$AA_?$AAR?$AAP?$AAC?$AA_?$AAF?$AAA?$AAI?$AAL@ 5f591a48   olemisc.obj
 0002:00006a78       ??_C@_1BO@DBHH@?$AAC?$AAO?$AA_?$AAE?$AA_?$AAO?$AAB?$AAJ?$AAN?$AAO?$AAT?$AAR?$AAE?$AAG?$AA?$AA?$AA?$AA?$AA?$AH?$AA?$AA?$AA?$AA?$AA?$AA@ 5f591a78   olemisc.obj
 0002:00006a98       ??_C@_1CK@IHHI@?$AAC?$AAO?$AA_?$AAE?$AA_?$AAO?$AAB?$AAJ?$AAN?$AAO?$AAT?$AAC?$AAO?$AAN?$AAN?$AAE?$AAC?$AAT?$AAE?$AAD@ 5f591a98   olemisc.obj
 0002:00006ac4       ??_C@_1BM@GEKP@?$AAC?$AAO?$AA_?$AAE?$AA_?$AAO?$AAB?$AAJ?$AAI?$AAS?$AAR?$AAE?$AAG?$AA?$AA?$AA?$AH?$AA?$AA?$AA?$AA?$AA?$AA08?$AF?$:O@ 5f591ac4   olemisc.obj
 0002:00006ae0       ??_C@_1CI@JFFI@?$AAC?$AAO?$AA_?$AAE?$AA_?$AAN?$AAO?$AAT?$AAI?$AAN?$AAI?$AAT?$AAI?$AAA?$AAL?$AAI?$AAZ?$AAE?$AAD?$AA?$AA@ 5f591ae0   olemisc.obj
 0002:00006b08       ??_C@_1BO@NKGB@?$AAC?$AAO?$AA_?$AAE?$AA_?$AAI?$AAI?$AAD?$AAS?$AAT?$AAR?$AAI?$AAN?$AAG?$AA?$AA?$AA?$AA?$AA?$AH?$AA?$AA?$AA?$AA?$AA?$AA@ 5f591b08   olemisc.obj
 0002:00006b28       ??_C@_1CA@LLMP@?$AAC?$AAO?$AA_?$AAE?$AA_?$AAE?$AAR?$AAR?$AAO?$AAR?$AAI?$AAN?$AAD?$AAL?$AAL?$AA?$AA?$AA?$AH?$AA?$AA?$AA?$AA?$AA?$AA@ 5f591b28   olemisc.obj
 0002:00006b48       ??_C@_1CA@FFGD@?$AAC?$AAO?$AA_?$AAE?$AA_?$AAE?$AAR?$AAR?$AAO?$AAR?$AAI?$AAN?$AAA?$AAP?$AAP?$AA?$AA?$AA?$AH?$AA?$AA?$AA?$AA?$AA?$AA@ 5f591b48   olemisc.obj
 0002:00006b68       ??_C@_1CC@GGDK@?$AAC?$AAO?$AA_?$AAE?$AA_?$AAD?$AAL?$AAL?$AAN?$AAO?$AAT?$AAF?$AAO?$AAU?$AAN?$AAD?$AA?$AA?$AA?$AA?$AA?$AH?$AA?$AA@ 5f591b68   olemisc.obj
 0002:00006b8c       ??_C@_1CC@CODD@?$AAC?$AAO?$AA_?$AAE?$AA_?$AAC?$AAL?$AAA?$AAS?$AAS?$AAS?$AAT?$AAR?$AAI?$AAN?$AAG?$AA?$AA?$AA?$AA?$AA?$AH?$AA?$AA@ 5f591b8c   olemisc.obj
 0002:00006bb0       ??_C@_1DC@IBNI@?$AAC?$AAO?$AA_?$AAE?$AA_?$AAC?$AAL?$AAA?$AAS?$AAS?$AA_?$AAC?$AAR?$AAE?$AAA?$AAT?$AAE?$AA_?$AAF?$AAA@ 5f591bb0   olemisc.obj
 0002:00006be4       ??_C@_1DA@NHGD@?$AAC?$AAO?$AA_?$AAE?$AA_?$AAC?$AAA?$AAN?$AAT?$AAD?$AAE?$AAT?$AAE?$AAR?$AAM?$AAI?$AAN?$AAE?$AAC?$AAL@ 5f591be4   olemisc.obj
 0002:00006c14       ??_C@_1BM@ENKA@?$AAC?$AAO?$AA_?$AAE?$AA_?$AAB?$AAA?$AAD?$AA_?$AAP?$AAA?$AAT?$AAH?$AA?$AA?$AA?$AH?$AA?$AA?$AA?$AA?$AA?$AA?$CJH?$AF?$:O@ 5f591c14   olemisc.obj
 0002:00006c30       ??_C@_1CE@HGKM@?$AAC?$AAO?$AA_?$AAE?$AA_?$AAA?$AAP?$AAP?$AAS?$AAI?$AAN?$AAG?$AAL?$AAE?$AAU?$AAS?$AAE?$AA?$AA?$AA?$AH?$AA?$AA@ 5f591c30   olemisc.obj
 0002:00006c54       ??_C@_1CC@CEAC@?$AAC?$AAO?$AA_?$AAE?$AA_?$AAA?$AAP?$AAP?$AAN?$AAO?$AAT?$AAF?$AAO?$AAU?$AAN?$AAD?$AA?$AA?$AA?$AA?$AA?$AH?$AA?$AA@ 5f591c54   olemisc.obj
 0002:00006c78       ??_C@_1CC@OKD@?$AAC?$AAO?$AA_?$AAE?$AA_?$AAA?$AAP?$AAP?$AAD?$AAI?$AAD?$AAN?$AAT?$AAR?$AAE?$AAG?$AA?$AA?$AA?$AA?$AA?$AH?$AA?$AA@ 5f591c78   olemisc.obj
 0002:00006c9c       ??_C@_1DA@EBNH@?$AAC?$AAO?$AA_?$AAE?$AA_?$AAA?$AAL?$AAR?$AAE?$AAA?$AAD?$AAY?$AAI?$AAN?$AAI?$AAT?$AAI?$AAA?$AAL?$AAI@ 5f591c9c   olemisc.obj
 0002:00006ccc       ??_C@_1CG@PCJF@?$AAC?$AAL?$AAI?$AAP?$AAB?$AAR?$AAD?$AA_?$AAE?$AA_?$AAC?$AAA?$AAN?$AAT?$AA_?$AAS?$AAE?$AAT?$AA?$AA?$AA?$AA@ 5f591ccc   olemisc.obj
 0002:00006cf4       ??_C@_1CI@NEML@?$AAC?$AAL?$AAI?$AAP?$AAB?$AAR?$AAD?$AA_?$AAE?$AA_?$AAC?$AAA?$AAN?$AAT?$AA_?$AAO?$AAP?$AAE?$AAN?$AA?$AA@ 5f591cf4   olemisc.obj
 0002:00006d1c       ??_C@_1CK@EEPA@?$AAC?$AAL?$AAI?$AAP?$AAB?$AAR?$AAD?$AA_?$AAE?$AA_?$AAC?$AAA?$AAN?$AAT?$AA_?$AAE?$AAM?$AAP?$AAT?$AAY@ 5f591d1c   olemisc.obj
 0002:00006d48       ??_C@_1CK@DEPI@?$AAC?$AAL?$AAI?$AAP?$AAB?$AAR?$AAD?$AA_?$AAE?$AA_?$AAC?$AAA?$AAN?$AAT?$AA_?$AAC?$AAL?$AAO?$AAS?$AAE@ 5f591d48   olemisc.obj
 0002:00006d74       ??_C@_1CG@BJNC@?$AAC?$AAL?$AAI?$AAP?$AAB?$AAR?$AAD?$AA_?$AAE?$AA_?$AAB?$AAA?$AAD?$AA_?$AAD?$AAA?$AAT?$AAA?$AA?$AA?$AA?$AA@ 5f591d74   olemisc.obj
 0002:00006d9c       ??_C@_1CM@NDJN@?$AAC?$AAL?$AAA?$AAS?$AAS?$AA_?$AAE?$AA_?$AAN?$AAO?$AAA?$AAG?$AAG?$AAR?$AAE?$AAG?$AAA?$AAT?$AAI?$AAO@ 5f591d9c   olemisc.obj
 0002:00006dc8       ??_C@_1DE@HLBE@?$AAC?$AAL?$AAA?$AAS?$AAS?$AA_?$AAE?$AA_?$AAC?$AAL?$AAA?$AAS?$AAS?$AAN?$AAO?$AAT?$AAA?$AAV?$AAA?$AAI@ 5f591dc8   olemisc.obj
 0002:00006dfc       ??_C@_1DA@HBCI@?$AAC?$AAA?$AAC?$AAH?$AAE?$AA_?$AAE?$AA_?$AAN?$AAO?$AAC?$AAA?$AAC?$AAH?$AAE?$AA_?$AAU?$AAP?$AAD?$AAA@ 5f591dfc   olemisc.obj
 0002:00006e2c       ??_C@_1BO@DKFH@?$AAE?$AA_?$AAA?$AAC?$AAC?$AAE?$AAS?$AAS?$AAD?$AAE?$AAN?$AAI?$AAE?$AAD?$AA?$AA?$AA?$AA?$AA?$AH?$AA?$AA?$AA?$AA?$AA?$AA@ 5f591e2c   olemisc.obj
 0002:00006e4c       ??_C@_1O@OECF@?$AAE?$AA_?$AAF?$AAA?$AAI?$AAL?$AA?$AA?$AA?$AA?$AA?$AH?$AA?$AA?$AA?$AA?$AA?$AA?$BO?2?$AF?$:O@ 5f591e4c   olemisc.obj
 0002:00006e5c       ??_C@_1BA@PAOH@?$AAE?$AA_?$AAA?$AAB?$AAO?$AAR?$AAT?$AA?$AA?$AA?$AH?$AA?$AA?$AA?$AA?$AA?$AA?$BN?$;M?$AF?$:O?$AA?$BA?$AA?$AB@ 5f591e5c   olemisc.obj
 0002:00006e6c       ??_C@_1BC@GKAH@?$AAE?$AA_?$AAH?$AAA?$AAN?$AAD?$AAL?$AAE?$AA?$AA?$AA?$AA?$AA?$AH?$AA?$AA?$AA?$AA?$AA?$AA?$BM?$AF?$:O?$AA?$BC?$AA?$AB@ 5f591e6c   olemisc.obj
 0002:00006e80       ??_C@_1BE@IPCL@?$AAE?$AA_?$AAP?$AAO?$AAI?$AAN?$AAT?$AAE?$AAR?$AA?$AA?$AA?$AH?$AA?$AA?$AA?$AA?$AA?$AA?$BMD?$AF?$:O?$AA?$BE?$AA?$AB?$EA?$AD?$9A?$AA@ 5f591e80   olemisc.obj
 0002:00006e94       ??_C@_1BM@KFKD@?$AAE?$AA_?$AAN?$AAO?$AAI?$AAN?$AAT?$AAE?$AAR?$AAF?$AAA?$AAC?$AAE?$AA?$AA?$AA?$AH?$AA?$AA?$AA?$AA?$AA?$AA?$BL?$9I?$AF?$:O@ 5f591e94   olemisc.obj
 0002:00006eb0       ??_C@_1BK@HNFJ@?$AAE?$AA_?$AAI?$AAN?$AAV?$AAA?$AAL?$AAI?$AAD?$AAA?$AAR?$AAG?$AA?$AA?$AA?$AA?$AA?$AH?$AA?$AA?$AA?$AA?$AA?$AA?$BK?$AF?$:O@ 5f591eb0   olemisc.obj
 0002:00006ecc       ??_C@_1BM@IGII@?$AAE?$AA_?$AAO?$AAU?$AAT?$AAO?$AAF?$AAM?$AAE?$AAM?$AAO?$AAR?$AAY?$AA?$AA?$AA?$AH?$AA?$AA?$AA?$AA?$AA?$AA?$BK?$BA?$AF?$:O@ 5f591ecc   olemisc.obj
 0002:00006ee8       ??_C@_1BE@7?$AAE?$AA_?$AAN?$AAO?$AAT?$AAI?$AAM?$AAP?$AAL?$AA?$AA?$AA?$AH?$AA?$AA?$AA?$AA?$AA?$AA?$BJ?2?$AF?$:O?$AA?$BE?$AA?$AB?$EA?$AB?$9A?$AA@ 5f591ee8   olemisc.obj
 0002:00006efc       ??_C@_1BK@JJBN@?$AAE?$AA_?$AAU?$AAN?$AAE?$AAX?$AAP?$AAE?$AAC?$AAT?$AAE?$AAD?$AA?$AA?$AA?$AA?$AA?$AH?$AA?$AA?$AA?$AA?$AA?$AA?$BI?$;A?$AF?$:O@ 5f591efc   olemisc.obj
 0002:00006f18       ??_C@_1CM@JDMC@?$AAV?$AAI?$AAE?$AAW?$AA_?$AAS?$AA_?$AAA?$AAL?$AAR?$AAE?$AAA?$AAD?$AAY?$AA_?$AAF?$AAR?$AAO?$AAZ?$AAE@ 5f591f18   olemisc.obj
 0002:00006f44       ??_C@_1CA@DDIN@?$AAS?$AAT?$AAG?$AA_?$AAS?$AA_?$AAC?$AAO?$AAN?$AAV?$AAE?$AAR?$AAT?$AAE?$AAD?$AA?$AA?$AA?$AH?$AA?$AA?$AA?$AA?$AA?$AA@ 5f591f44   olemisc.obj
 0002:00006f64       ??_C@_1BM@PHGB@?$AAO?$AAL?$AAE?$AAO?$AAB?$AAJ?$AA_?$AAS?$AA_?$AAL?$AAA?$AAS?$AAT?$AA?$AA?$AA?$AH?$AA?$AA?$AA?$AA?$AA?$AA?$BGX?$AF?$:O@ 5f591f64   olemisc.obj
 0002:00006f80       ??_C@_1CK@CBFE@?$AAO?$AAL?$AAE?$AAO?$AAB?$AAJ?$AA_?$AAS?$AA_?$AAI?$AAN?$AAV?$AAA?$AAL?$AAI?$AAD?$AAV?$AAE?$AAR?$AAB@ 5f591f80   olemisc.obj
 0002:00006fac       ??_C@_1CK@EBML@?$AAO?$AAL?$AAE?$AAO?$AAB?$AAJ?$AA_?$AAS?$AA_?$AAI?$AAN?$AAV?$AAA?$AAL?$AAI?$AAD?$AAH?$AAW?$AAN?$AAD@ 5f591fac   olemisc.obj
 0002:00006fd8       ??_C@_1DG@BLFN@?$AAO?$AAL?$AAE?$AAO?$AAB?$AAJ?$AA_?$AAS?$AA_?$AAC?$AAA?$AAN?$AAN?$AAO?$AAT?$AA_?$AAD?$AAO?$AAV?$AAE@ 5f591fd8   olemisc.obj
 0002:00007010       ??_C@_1BK@LKFF@?$AAO?$AAL?$AAE?$AA_?$AAS?$AA_?$AAU?$AAS?$AAE?$AAR?$AAE?$AAG?$AA?$AA?$AA?$AA?$AA?$AH?$AA?$AA?$AA?$AA?$AA?$AA?$BD?$AF?$:O@ 5f592010   olemisc.obj
 0002:0000702c       ??_C@_1BK@OPCO@?$AAO?$AAL?$AAE?$AA_?$AAS?$AA_?$AAS?$AAT?$AAA?$AAT?$AAI?$AAC?$AA?$AA?$AA?$AA?$AA?$AH?$AA?$AA?$AA?$AA?$AA?$AA?$BC?$AF?$:O@ 5f59202c   olemisc.obj
 0002:00007048       ??_C@_1CK@PBPL@?$AAO?$AAL?$AAE?$AA_?$AAS?$AA_?$AAM?$AAA?$AAC?$AA_?$AAC?$AAL?$AAI?$AAP?$AAF?$AAO?$AAR?$AAM?$AAA?$AAT@ 5f592048   olemisc.obj
 0002:00007074       ??_C@_1BA@OECF@?$AAM?$AAK?$AA_?$AAS?$AA_?$AAU?$AAS?$AA?$AA?$AA?$AH?$AA?$AA?$AA?$AA?$AA?$AA?$BBT?$AF?$:O?$AA?$BA?$AA?$AB@ 5f592074   olemisc.obj
 0002:00007084       ??_C@_1CK@LKHK@?$AAM?$AAK?$AA_?$AAS?$AA_?$AAR?$AAE?$AAD?$AAU?$AAC?$AAE?$AAD?$AA_?$AAT?$AAO?$AA_?$AAS?$AAE?$AAL?$AAF@ 5f592084   olemisc.obj
 0002:000070b0       ??_C@_1DM@JHIF@?$AAM?$AAK?$AA_?$AAS?$AA_?$AAM?$AAO?$AAN?$AAI?$AAK?$AAE?$AAR?$AAA?$AAL?$AAR?$AAE?$AAA?$AAD?$AAY?$AAR@ 5f5920b0   olemisc.obj
 0002:000070ec       ??_C@_1BA@CKEH@?$AAM?$AAK?$AA_?$AAS?$AA_?$AAM?$AAE?$AA?$AA?$AA?$AH?$AA?$AA?$AA?$AA?$AA?$AA?$AO?$AF?$:O?$AA?$BA?$AA?$AB@ 5f5920ec   olemisc.obj
 0002:000070fc       ??_C@_1BC@KOIF@?$AAM?$AAK?$AA_?$AAS?$AA_?$AAH?$AAI?$AAM?$AA?$AA?$AA?$AA?$AA?$AH?$AA?$AA?$AA?$AA?$AA?$AA?$AOH?$AF?$:O?$AA?$BC?$AA?$AB@ 5f5920fc   olemisc.obj
 0002:00007110       ??_C@_1CI@ECAG@?$AAI?$AAN?$AAP?$AAL?$AAA?$AAC?$AAE?$AA_?$AAS?$AA_?$AAT?$AAR?$AAU?$AAN?$AAC?$AAA?$AAT?$AAE?$AAD?$AA?$AA@ 5f592110   olemisc.obj
 0002:00007138       ??_C@_1DK@EDAA@?$AAD?$AAR?$AAA?$AAG?$AAD?$AAR?$AAO?$AAP?$AA_?$AAS?$AA_?$AAU?$AAS?$AAE?$AAD?$AAE?$AAF?$AAA?$AAU?$AAL@ 5f592138   olemisc.obj
 0002:00007174       ??_C@_1CA@EMMF@?$AAD?$AAR?$AAA?$AAG?$AAD?$AAR?$AAO?$AAP?$AA_?$AAS?$AA_?$AAD?$AAR?$AAO?$AAP?$AA?$AA?$AA?$AH?$AA?$AA?$AA?$AA?$AA?$AA@ 5f592174   olemisc.obj
 0002:00007194       ??_C@_1CE@HOEF@?$AAD?$AAR?$AAA?$AAG?$AAD?$AAR?$AAO?$AAP?$AA_?$AAS?$AA_?$AAC?$AAA?$AAN?$AAC?$AAE?$AAL?$AA?$AA?$AA?$AH?$AA?$AA@ 5f592194   olemisc.obj
 0002:000071b8       ??_C@_1CK@BIOJ@?$AAD?$AAA?$AAT?$AAA?$AA_?$AAS?$AA_?$AAS?$AAA?$AAM?$AAE?$AAF?$AAO?$AAR?$AAM?$AAA?$AAT?$AAE?$AAT?$AAC@ 5f5921b8   olemisc.obj
 0002:000071e4       ??_C@_1DI@EDLA@?$AAC?$AAO?$AAN?$AAV?$AAE?$AAR?$AAT?$AA1?$AA0?$AA_?$AAS?$AA_?$AAN?$AAO?$AA_?$AAP?$AAR?$AAE?$AAS?$AAE@ 5f5921e4   olemisc.obj
 0002:0000721c       ??_C@_1DM@OGIK@?$AAC?$AAA?$AAC?$AAH?$AAE?$AA_?$AAS?$AA_?$AAS?$AAO?$AAM?$AAE?$AAC?$AAA?$AAC?$AAH?$AAE?$AAS?$AA_?$AAN@ 5f59221c   olemisc.obj
 0002:00007258       ??_C@_1CE@DFNM@?$AAC?$AAA?$AAC?$AAH?$AAE?$AA_?$AAS?$AA_?$AAS?$AAA?$AAM?$AAE?$AAC?$AAA?$AAC?$AAH?$AAE?$AA?$AA?$AA?$AH?$AA?$AA@ 5f592258   olemisc.obj
 0002:0000727c       ??_C@_1DO@ECFN@?$AAC?$AAA?$AAC?$AAH?$AAE?$AA_?$AAS?$AA_?$AAF?$AAO?$AAR?$AAM?$AAA?$AAT?$AAE?$AAT?$AAC?$AA_?$AAN?$AAO@ 5f59227c   olemisc.obj
 0002:000072bc       ??_C@_1BA@CGLD@?$AAS?$AA_?$AAF?$AAA?$AAL?$AAS?$AAE?$AA?$AA?$AA?$AH?$AA?$AA?$AA?$AA?$AA?$AA?$AGL?$AF?$:O?$AA?$BA?$AA?$AB@ 5f5922bc   olemisc.obj
 0002:000072cc       ??_C@_19IKIG@?$AAS?$AA_?$AAO?$AAK?$AA?$AA?$AA?$AA?$AA?$AH?$AA?$AA?$AA?$AA?$AA?$AA@ 5f5922cc   olemisc.obj
 0002:00007bf0       ?classCOleException@COleException@@2UCRuntimeClass@@B 5f592bf0   olemisc.obj
 0002:00007c08       ??_C@_1CG@FHOC@?$AA?$DM?$AAU?$AAn?$AAk?$AAn?$AAo?$AAw?$AAn?$AA?5?$AAF?$AAa?$AAc?$AAi?$AAl?$AAi?$AAt?$AAy?$AA?$DO?$AA?$AA?$AA?$AA@ 5f592c08   olemisc.obj
 0002:00007c30       ??_C@_1EI@NCJG@?$AAs?$AAe?$AAv?$AAe?$AAr?$AAi?$AAt?$AAy?$AA?3?$AA?5?$AA?$CF?$AAs?$AA?0?$AA?5?$AAf?$AAa?$AAc?$AAi?$AAl?$AAi@ 5f592c30   olemisc.obj
 0002:00007c78       ??_C@_1CG@PK@?$AAr?$AAa?$AAn?$AAg?$AAe?$AA?3?$AA?5?$AA?$CF?$AAs?$AA?5?$AA?$CI?$AA$?$AA?$CF?$AA0?$AA8?$AAl?$AAX?$AA?$CJ?$AA?$AA?$AA?$AA@ 5f592c78   olemisc.obj
 0002:00007ca0       ??_C@_1BI@IOEF@?$AA?$CF?$AAs?$AA?5?$AA?$CI?$AA$?$AA?$CF?$AA0?$AA8?$AAl?$AAX?$AA?$CJ?$AA?$AA?$AA?$AH?$AA?$AA?$AA?$AA?$AA?$AA?$AG?$BE?$AF?$:O?$AA?$BI?$AA?$AB@ 5f592ca0   olemisc.obj
 0002:00007cb8       ??_C@_1GE@BIAC@?$AAW?$AAa?$AAr?$AAn?$AAi?$AAn?$AAg?$AA?3?$AA?5?$AAc?$AAo?$AAn?$AAs?$AAt?$AAr?$AAu?$AAc?$AAt?$AAi?$AAn@ 5f592cb8   olemisc.obj
 0002:00007d1c       ??_C@_1M@EPCN@?$AAC?$AAL?$AAS?$AAI?$AAD?$AA?$AA?$AA?$AH?$AA?$AA?$AA?$AA?$AA?$AA?7l?$AF?$:O@ 5f592d1c   olemisc.obj
 0002:00007d28       ??_C@_1BA@FHJ@?$AAD?$AAI?$AAS?$AAP?$AAL?$AAA?$AAY?$AA?$AA?$AA?$AH?$AA?$AA?$AA?$AA?$AA?$AA?$AEt?$AF?$:O?$AA?$BA?$AA?$AB@ 5f592d28   olemisc.obj
 0002:00007d38       ??_C@_0P@CGBG@COleStreamFile?$AA@ 5f592d38   olestrm.obj
 0002:00007d48       ?classCOleStreamFile@COleStreamFile@@2UCRuntimeClass@@B 5f592d48   olestrm.obj
 0002:00007d64       ??_7COleStreamFile@@6B@    5f592d64   olestrm.obj
 0002:00007dc4       ??_C@_02PJJB@?$CC?6?$AA@   5f592dc4   olestrm.obj
 0002:00007dc8       ??_C@_0BF@MCAF@m_strStorageName?5?$DN?5?$CC?$AA@ 5f592dc8   olestrm.obj
 0002:00007de0       ??_C@_0O@MEPH@m_lpStream?5?$DN?5?$AA@ 5f592de0   olestrm.obj
 0002:00007df0       ??_C@_0O@ELE@COleServerDoc?$AA@ 5f592df0   olesvr1.obj
 0002:00007e00       ?messageMap@COleServerDoc@@1UAFX_MSGMAP@@B 5f592e00   olesvr1.obj
 0002:00007e08       ?_messageEntries@COleServerDoc@@0PBUAFX_MSGMAP_ENTRY@@B 5f592e08   olesvr1.obj
 0002:00007e80       ?interfaceMap@COleServerDoc@@1UAFX_INTERFACEMAP@@B 5f592e80   olesvr1.obj
 0002:00007e88       ?_interfaceEntries@COleServerDoc@@0PBUAFX_INTERFACEMAP_ENTRY@@B 5f592e88   olesvr1.obj
 0002:00007ec0       ?classCOleServerDoc@COleServerDoc@@2UCRuntimeClass@@B 5f592ec0   olesvr1.obj
 0002:00007edc       ??_7COleServerDoc@@6B@     5f592edc   olesvr1.obj
 0002:0000802c       ??_7XPersistStorage@COleServerDoc@@6B@ 5f59302c   olesvr1.obj
 0002:0000805c       ??_7XOleObject@COleServerDoc@@6B@ 5f59305c   olesvr1.obj
 0002:000080c4       ??_7XDataObject@COleServerDoc@@6B@ 5f5930c4   olesvr1.obj
 0002:000080fc       ??_7XOleInPlaceObject@COleServerDoc@@6B@ 5f5930fc   olesvr1.obj
 0002:00008124       ??_7XOleInPlaceActiveObject@COleServerDoc@@6B@ 5f593124   olesvr1.obj
 0002:00008154       ??_7IPersistStorage@@6B@   5f593154   olesvr1.obj
 0002:00008184       ??_7IOleObject@@6B@        5f593184   olesvr1.obj
 0002:000081ec       ??_7IOleInPlaceObject@@6B@ 5f5931ec   olesvr1.obj
 0002:00008214       ??_7IOleInPlaceActiveObject@@6B@ 5f593214   olesvr1.obj
 0002:0000823c       ??_C@_1HK@FGIB@?$AAW?$AAa?$AAr?$AAn?$AAi?$AAn?$AAg?$AA?3?$AA?5?$AAz?$AAe?$AAr?$AAo?$AA?5?$AA?8?$AAz?$AAo?$AAo?$AAm?$AA?5@ 5f59323c   olesvr1.obj
 0002:000082b8       ??_C@_1DI@KNCN@?$AA?7?$AAf?$AAa?$AAi?$AAl?$AAe?$AAd?$AA?5?$AAt?$AAo?$AA?5?$AAf?$AAi?$AAn?$AAd?$AA?5?$AAi?$AAt?$AAe?$AAm@ 5f5932b8   olesvr1.obj
 0002:000082f0       ??_C@_1IA@EAAE@?$AAW?$AAa?$AAr?$AAn?$AAi?$AAn?$AAg?$AA?3?$AA?5?$AAd?$AAe?$AAf?$AAa?$AAu?$AAl?$AAt?$AA?5?$AAC?$AAO?$AAl@ 5f5932f0   olesvr1.obj
 0002:00008370       ??_C@_1FK@ELKM@?$AAW?$AAa?$AAr?$AAn?$AAi?$AAn?$AAg?$AA?3?$AA?5?$AAO?$AAn?$AAU?$AAp?$AAd?$AAa?$AAt?$AAe?$AAD?$AAo?$AAc@ 5f593370   olesvr1.obj
 0002:000083cc       ??_C@_0BC@JDAG@?6m_dwOrigStyle?5?$DN?5?$AA@ 5f5933cc   olesvr1.obj
 0002:000083e0       ??_C@_0BD@IBCE@?6m_bCntrVisible?5?$DN?5?$AA@ 5f5933e0   olesvr1.obj
 0002:000083f4       ??_C@_0BB@HMNG@?6m_strHostObj?5?$DN?5?$AA@ 5f5933f4   olesvr1.obj
 0002:00008408       ??_C@_0BC@JBGM@m_lpClientSite?5?$DN?5?$AA@ 5f593408   olesvr1.obj
 0002:0000841c       ??_C@_0BJ@FFMJ@with?5no?5original?5parent?6?$AA@ 5f59341c   olesvr1.obj
 0002:00008438       ??_C@_0BI@GHAM@?6with?5original?5parent?3?5?$AA@ 5f593438   olesvr1.obj
 0002:00008450       ??_C@_0BJ@CNKJ@?6with?5no?5in?9place?5frame?6?$AA@ 5f593450   olesvr1.obj
 0002:0000846c       ??_C@_0BH@HIOP@?6with?5in?9place?5frame?3?5?$AA@ 5f59346c   olesvr1.obj
 0002:00008488       ?interfaceMap@COleServerItem@@1UAFX_INTERFACEMAP@@B 5f593488   olesvr2.obj
 0002:00008490       ?_interfaceEntries@COleServerItem@@0PBUAFX_INTERFACEMAP_ENTRY@@B 5f593490   olesvr2.obj
 0002:000084ac       ??_7COleServerItem@@6B@    5f5934ac   olesvr2.obj
 0002:0000855c       ??_7CItemDataSource@COleServerItem@@6B@ 5f59355c   olesvr2.obj
 0002:000085cc       ??_7XOleObject@COleServerItem@@6B@ 5f5935cc   olesvr2.obj
 0002:00008634       ??_7XDataObject@COleServerItem@@6B@ 5f593634   olesvr2.obj
 0002:00008664       ??_C@_1FM@MHHB@?$AA?7?$AAw?$AAi?$AAl?$AAl?$AA?5?$AAn?$AAo?$AAt?$AA?5?$AAw?$AAo?$AAr?$AAk?$AA?5?$AAw?$AAi?$AAt?$AAh?$AA?5@ 5f593664   olesvr2.obj
 0002:000086c0       ??_C@_1GA@INNF@?$AAW?$AAa?$AAr?$AAn?$AAi?$AAn?$AAg?$AA?3?$AA?5?$AAC?$AAO?$AAl?$AAe?$AAS?$AAe?$AAr?$AAv?$AAe?$AAr?$AAI@ 5f5936c0   olesvr2.obj
 0002:00008720       ??_C@_1FK@HLPM@?$AAW?$AAa?$AAr?$AAn?$AAi?$AAn?$AAg?$AA?3?$AA?5?$AAH?$AAI?$AAM?$AAE?$AAT?$AAR?$AAI?$AAC?$AA?5?$AAn?$AAa@ 5f593720   olesvr2.obj
 0002:0000877c       ??_C@_1FK@DCGH@?$AA?7?$AAp?$AAr?$AAe?$AAs?$AAe?$AAn?$AAt?$AAa?$AAt?$AAi?$AAo?$AAn?$AA?5?$AAm?$AAe?$AAt?$AAa?$AAf?$AAi@ 5f59377c   olesvr2.obj
 0002:000087d8       ??_C@_1GA@NAIL@?$AAW?$AAa?$AAr?$AAn?$AAi?$AAn?$AAg?$AA?3?$AA?5?$AAO?$AAn?$AAG?$AAe?$AAt?$AAE?$AAx?$AAt?$AAe?$AAn?$AAt@ 5f5937d8   olesvr2.obj
 0002:00008838       ??_C@_1FG@DGD@?$AAc?$AAa?$AAl?$AAl?$AAi?$AAn?$AAg?$AA?5?$AAC?$AAO?$AAl?$AAe?$AAS?$AAe?$AAr?$AAv?$AAe?$AAr?$AAI?$AAt@ 5f593838   olesvr2.obj
 0002:00008890       ??_C@_1FI@MCBM@?$AAW?$AAa?$AAr?$AAn?$AAi?$AAn?$AAg?$AA?3?$AA?5?$AAu?$AAn?$AAa?$AAb?$AAl?$AAe?$AA?5?$AAt?$AAo?$AA?5?$AAg@ 5f593890   olesvr2.obj
 0002:000088e8       ??_C@_0BF@OOCM@?6with?5m_dataSource?3?5?$AA@ 5f5938e8   olesvr2.obj
 0002:00008900       ??_C@_0BJ@NNND@?6m_lpDataAdviseHolder?5?$DN?5?$AA@ 5f593900   olesvr2.obj
 0002:0000891c       ??_C@_0BI@EGAL@?6m_lpOleAdviseHolder?5?$DN?5?$AA@ 5f59391c   olesvr2.obj
 0002:00008934       ??_C@_0BC@MFJM@?6m_strItemName?5?$DN?5?$AA@ 5f593934   olesvr2.obj
 0002:00008948       ??_C@_0BC@BDB@?6m_bAutoDelete?5?$DN?5?$AA@ 5f593948   olesvr2.obj
 0002:0000895c       ??_C@_0BB@GJMC@m_bNeedUnlock?5?$DN?5?$AA@ 5f59395c   olesvr2.obj
 0002:00008f10       ??_C@_15KLDP@?$AA?$CF?$AAd?$AA?$AA?$AA?$AA?$AA?$AH?$AA?$AA@ 5f593f10   olereg.obj
 0002:00008f18       ??_C@_1IA@EMIO@?$AAW?$AAa?$AAr?$AAn?$AAi?$AAn?$AAg?$AA?3?$AA?5?$AAS?$AAt?$AAr?$AAi?$AAn?$AAg?$AAF?$AAr?$AAo?$AAm?$AAC@ 5f593f18   olereg.obj
 0002:00008f98       ??_C@_1FO@KKNN@?$AAE?$AAr?$AAr?$AAo?$AAr?$AA?3?$AA?5?$AAf?$AAa?$AAi?$AAl?$AAe?$AAd?$AA?5?$AAs?$AAe?$AAt?$AAt?$AAi?$AAn@ 5f593f98   olereg.obj
 0002:00008ff8       ??_C@_1DG@EHJJ@?$AA?7?$AAi?$AAn?$AAt?$AAe?$AAn?$AAd?$AAe?$AAd?$AA?5?$AAv?$AAa?$AAl?$AAu?$AAe?$AA?5?$AAw?$AAa?$AAs?$AA?5@ 5f593ff8   olereg.obj
 0002:00009030       ??_C@_1GM@OFND@?$AAW?$AAa?$AAr?$AAn?$AAi?$AAn?$AAg?$AA?3?$AA?5?$AAL?$AAe?$AAa?$AAv?$AAi?$AAn?$AAg?$AA?5?$AAv?$AAa?$AAl@ 5f594030   olereg.obj
 0002:0000909c       ??_C@_1EG@FLBO@?$AAW?$AAa?$AAr?$AAn?$AAi?$AAn?$AAg?$AA?3?$AA?5?$AAs?$AAk?$AAi?$AAp?$AAp?$AAi?$AAn?$AAg?$AA?5?$AAe?$AAm@ 5f59409c   olereg.obj
 0002:000090e4       ??_C@_1M@EPCN@?$AAC?$AAL?$AAS?$AAI?$AAD?$AA?$AA?$AA?$AH?$AA?$AA?$AA?$AA?$AA?$AA?$BI?$AF?$:O@ 5f5940e4   olereg.obj
 0002:000090f4       ??_7COleTemplateServer@@6B@ 5f5940f4   oletsvr.obj
 0002:00009168       ??_C@_1IM@LDKN@?$AAE?$AAr?$AAr?$AAo?$AAr?$AA?3?$AA?5?$AAn?$AAo?$AAt?$AA?5?$AAe?$AAn?$AAo?$AAu?$AAg?$AAh?$AA?5?$AAi?$AAn@ 5f594168   oletsvr.obj
 0002:000091f4       ??_C@_1BC@PGFM@?$AAI?$AAI?$AAD?$AA_?$AAN?$AAU?$AAL?$AAL?$AA?$AA?$AA?$AA?$AA?$AH?$AA?$AA?$AA?$AA?$AA?$AA$0?$AF?$:O?$AA?$BC?$AA?$AB@ 5f5941f4   oleunk.obj
 0002:00009208       ??_C@_1CC@PGDC@?$AAI?$AAI?$AAD?$AA_?$AAI?$AAV?$AAi?$AAe?$AAw?$AAO?$AAb?$AAj?$AAe?$AAc?$AAt?$AA2?$AA?$AA?$AA?$AA?$AA?$AH?$AA?$AA@ 5f594208   oleunk.obj
 0002:0000922c       ??_C@_1CA@LCIJ@?$AAI?$AAI?$AAD?$AA_?$AAI?$AAV?$AAi?$AAe?$AAw?$AAO?$AAb?$AAj?$AAe?$AAc?$AAt?$AA?$AA?$AA?$AH?$AA?$AA?$AA?$AA?$AA?$AA@ 5f59422c   oleunk.obj
 0002:0000924c       ??_C@_1BK@PEME@?$AAI?$AAI?$AAD?$AA_?$AAI?$AAU?$AAn?$AAk?$AAn?$AAo?$AAw?$AAn?$AA?$AA?$AA?$AA?$AA?$AH?$AA?$AA?$AA?$AA?$AA?$AA?$CD?$BA?$AF?$:O@ 5f59424c   oleunk.obj
 0002:00009268       ??_C@_1CC@CGO@?$AAI?$AAI?$AAD?$AA_?$AAI?$AAS?$AAt?$AAu?$AAb?$AAM?$AAa?$AAn?$AAa?$AAg?$AAe?$AAr?$AA?$AA?$AA?$AA?$AA?$AH?$AA?$AA@ 5f594268   oleunk.obj
 0002:0000928c       ??_C@_1BI@BKJF@?$AAI?$AAI?$AAD?$AA_?$AAI?$AAS?$AAt?$AAr?$AAe?$AAa?$AAm?$AA?$AA?$AA?$AH?$AA?$AA?$AA?$AA?$AA?$AA?$CCT?$AF?$:O?$AA?$BI?$AA?$AB@ 5f59428c   oleunk.obj
 0002:000092a4       ??_C@_1BK@CGLI@?$AAI?$AAI?$AAD?$AA_?$AAI?$AAS?$AAt?$AAo?$AAr?$AAa?$AAg?$AAe?$AA?$AA?$AA?$AA?$AA?$AH?$AA?$AA?$AA?$AA?$AA?$AA?$CB?$AF?$:O@ 5f5942a4   oleunk.obj
 0002:000092c0       ??_C@_1CI@ONFB@?$AAI?$AAI?$AAD?$AA_?$AAI?$AAS?$AAt?$AAd?$AAM?$AAa?$AAr?$AAs?$AAh?$AAa?$AAl?$AAI?$AAn?$AAf?$AAo?$AA?$AA@ 5f5942c0   oleunk.obj
 0002:000092e8       ??_C@_1DA@KPDH@?$AAI?$AAI?$AAD?$AA_?$AAI?$AAR?$AAu?$AAn?$AAn?$AAi?$AAn?$AAg?$AAO?$AAb?$AAj?$AAe?$AAc?$AAt?$AAT?$AAa@ 5f5942e8   oleunk.obj
 0002:00009318       ??_C@_1CI@BIGG@?$AAI?$AAI?$AAD?$AA_?$AAI?$AAR?$AAu?$AAn?$AAn?$AAa?$AAb?$AAl?$AAe?$AAO?$AAb?$AAj?$AAe?$AAc?$AAt?$AA?$AA@ 5f594318   oleunk.obj
 0002:00009340       ??_C@_1BK@FFEE@?$AAI?$AAI?$AAD?$AA_?$AAI?$AAR?$AAp?$AAc?$AAS?$AAt?$AAu?$AAb?$AA?$AA?$AA?$AA?$AA?$AH?$AA?$AA?$AA?$AA?$AA?$AA?5?2?$AF?$:O@ 5f594340   oleunk.obj
 0002:0000935c       ??_C@_1BM@ECFL@?$AAI?$AAI?$AAD?$AA_?$AAI?$AAR?$AAp?$AAc?$AAP?$AAr?$AAo?$AAx?$AAy?$AA?$AA?$AA?$AH?$AA?$AA?$AA?$AA?$AA?$AA?5?$AA?$AF?$:O@ 5f59435c   oleunk.obj
 0002:00009378       ??_C@_1CA@ILDG@?$AAI?$AAI?$AAD?$AA_?$AAI?$AAR?$AAp?$AAc?$AAC?$AAh?$AAa?$AAn?$AAn?$AAe?$AAl?$AA?$AA?$AA?$AH?$AA?$AA?$AA?$AA?$AA?$AA@ 5f594378   oleunk.obj
 0002:00009398       ??_C@_1CC@ECHI@?$AAI?$AAI?$AAD?$AA_?$AAI?$AAR?$AAo?$AAo?$AAt?$AAS?$AAt?$AAo?$AAr?$AAa?$AAg?$AAe?$AA?$AA?$AA?$AA?$AA?$AH?$AA?$AA@ 5f594398   oleunk.obj
 0002:000093bc       ??_C@_1CE@KAKA@?$AAI?$AAI?$AAD?$AA_?$AAI?$AAP?$AAr?$AAo?$AAx?$AAy?$AAM?$AAa?$AAn?$AAa?$AAg?$AAe?$AAr?$AA?$AA?$AA?$AH?$AA?$AA@ 5f5943bc   oleunk.obj
 0002:000093e0       ??_C@_1CG@DEPD@?$AAI?$AAI?$AAD?$AA_?$AAI?$AAP?$AAe?$AAr?$AAs?$AAi?$AAs?$AAt?$AAS?$AAt?$AAr?$AAe?$AAa?$AAm?$AA?$AA?$AA?$AA@ 5f5943e0   oleunk.obj
 0002:00009408       ??_C@_1CI@FDOF@?$AAI?$AAI?$AAD?$AA_?$AAI?$AAP?$AAe?$AAr?$AAs?$AAi?$AAs?$AAt?$AAS?$AAt?$AAo?$AAr?$AAa?$AAg?$AAe?$AA?$AA@ 5f594408   oleunk.obj
 0002:00009430       ??_C@_1CC@JGBD@?$AAI?$AAI?$AAD?$AA_?$AAI?$AAP?$AAe?$AAr?$AAs?$AAi?$AAs?$AAt?$AAF?$AAi?$AAl?$AAe?$AA?$AA?$AA?$AA?$AA?$AH?$AA?$AA@ 5f594430   oleunk.obj
 0002:00009454       ??_C@_1BK@NNIA@?$AAI?$AAI?$AAD?$AA_?$AAI?$AAP?$AAe?$AAr?$AAs?$AAi?$AAs?$AAt?$AA?$AA?$AA?$AA?$AA?$AH?$AA?$AA?$AA?$AA?$AA?$AA?$BNH?$AF?$:O@ 5f594454   oleunk.obj
 0002:00009470       ??_C@_1CM@HKDG@?$AAI?$AAI?$AAD?$AA_?$AAI?$AAP?$AAa?$AAr?$AAs?$AAe?$AAD?$AAi?$AAs?$AAp?$AAl?$AAa?$AAy?$AAN?$AAa?$AAm@ 5f594470   oleunk.obj
 0002:0000949c       ??_C@_1BO@HHB@?$AAI?$AAI?$AAD?$AA_?$AAI?$AAP?$AAS?$AAF?$AAa?$AAc?$AAt?$AAo?$AAr?$AAy?$AA?$AA?$AA?$AA?$AA?$AH?$AA?$AA?$AA?$AA?$AA?$AA@ 5f59449c   oleunk.obj
 0002:000094bc       ??_C@_1BO@ODOO@?$AAI?$AAI?$AAD?$AA_?$AAI?$AAO?$AAl?$AAe?$AAW?$AAi?$AAn?$AAd?$AAo?$AAw?$AA?$AA?$AA?$AA?$AA?$AH?$AA?$AA?$AA?$AA?$AA?$AA@ 5f5944bc   oleunk.obj
 0002:000094dc       ??_C@_1CA@HIIO@?$AAI?$AAI?$AAD?$AA_?$AAI?$AAO?$AAl?$AAe?$AAP?$AAr?$AAe?$AAs?$AAO?$AAb?$AAj?$AA?$AA?$AA?$AH?$AA?$AA?$AA?$AA?$AA?$AA@ 5f5944dc   oleunk.obj
 0002:000094fc       ??_C@_1BO@EFIA@?$AAI?$AAI?$AAD?$AA_?$AAI?$AAO?$AAl?$AAe?$AAO?$AAb?$AAj?$AAe?$AAc?$AAt?$AA?$AA?$AA?$AA?$AA?$AH?$AA?$AA?$AA?$AA?$AA?$AA@ 5f5944fc   oleunk.obj
 0002:0000951c       ??_C@_1CA@NGAA@?$AAI?$AAI?$AAD?$AA_?$AAI?$AAO?$AAl?$AAe?$AAM?$AAa?$AAn?$AAa?$AAg?$AAe?$AAr?$AA?$AA?$AA?$AH?$AA?$AA?$AA?$AA?$AA?$AA@ 5f59451c   oleunk.obj
 0002:0000953c       ??_C@_1BK@FEPI@?$AAI?$AAI?$AAD?$AA_?$AAI?$AAO?$AAl?$AAe?$AAL?$AAi?$AAn?$AAk?$AA?$AA?$AA?$AA?$AA?$AH?$AA?$AA?$AA?$AA?$AA?$AA?$BK?$;A?$AF?$:O@ 5f59453c   oleunk.obj
 0002:00009558       ??_C@_1CM@POLK@?$AAI?$AAI?$AAD?$AA_?$AAI?$AAO?$AAl?$AAe?$AAI?$AAt?$AAe?$AAm?$AAC?$AAo?$AAn?$AAt?$AAa?$AAi?$AAn?$AAe@ 5f594558   oleunk.obj
 0002:00009584       ??_C@_1DA@BENE@?$AAI?$AAI?$AAD?$AA_?$AAI?$AAO?$AAl?$AAe?$AAI?$AAn?$AAP?$AAl?$AAa?$AAc?$AAe?$AAU?$AAI?$AAW?$AAi?$AAn@ 5f594584   oleunk.obj
 0002:000095b4       ??_C@_1CI@LJKE@?$AAI?$AAI?$AAD?$AA_?$AAI?$AAO?$AAl?$AAe?$AAI?$AAn?$AAP?$AAl?$AAa?$AAc?$AAe?$AAS?$AAi?$AAt?$AAe?$AA?$AA@ 5f5945b4   oleunk.obj
 0002:000095dc       ??_C@_1CM@OIJJ@?$AAI?$AAI?$AAD?$AA_?$AAI?$AAO?$AAl?$AAe?$AAI?$AAn?$AAP?$AAl?$AAa?$AAc?$AAe?$AAO?$AAb?$AAj?$AAe?$AAc@ 5f5945dc   oleunk.obj
 0002:00009608       ??_C@_1CK@LOII@?$AAI?$AAI?$AAD?$AA_?$AAI?$AAO?$AAl?$AAe?$AAI?$AAn?$AAP?$AAl?$AAa?$AAc?$AAe?$AAF?$AAr?$AAa?$AAm?$AAe@ 5f594608   oleunk.obj
 0002:00009634       ??_C@_1DI@CFFB@?$AAI?$AAI?$AAD?$AA_?$AAI?$AAO?$AAl?$AAe?$AAI?$AAn?$AAP?$AAl?$AAa?$AAc?$AAe?$AAA?$AAc?$AAt?$AAi?$AAv@ 5f594634   oleunk.obj
 0002:0000966c       ??_C@_1CE@NODB@?$AAI?$AAI?$AAD?$AA_?$AAI?$AAO?$AAl?$AAe?$AAC?$AAo?$AAn?$AAt?$AAa?$AAi?$AAn?$AAe?$AAr?$AA?$AA?$AA?$AH?$AA?$AA@ 5f59466c   oleunk.obj
 0002:00009690       ??_C@_1CG@IBJB@?$AAI?$AAI?$AAD?$AA_?$AAI?$AAO?$AAl?$AAe?$AAC?$AAl?$AAi?$AAe?$AAn?$AAt?$AAS?$AAi?$AAt?$AAe?$AA?$AA?$AA?$AA@ 5f594690   oleunk.obj
 0002:000096b8       ??_C@_1CK@DLDK@?$AAI?$AAI?$AAD?$AA_?$AAI?$AAO?$AAl?$AAe?$AAC?$AAa?$AAc?$AAh?$AAe?$AAC?$AAo?$AAn?$AAt?$AAr?$AAo?$AAl@ 5f5946b8   oleunk.obj
 0002:000096e4       ??_C@_1BO@CNKN@?$AAI?$AAI?$AAD?$AA_?$AAI?$AAO?$AAl?$AAe?$AAC?$AAa?$AAc?$AAh?$AAe?$AA2?$AA?$AA?$AA?$AA?$AA?$AH?$AA?$AA?$AA?$AA?$AA?$AA@ 5f5946e4   oleunk.obj
 0002:00009704       ??_C@_1BM@JHBI@?$AAI?$AAI?$AAD?$AA_?$AAI?$AAO?$AAl?$AAe?$AAC?$AAa?$AAc?$AAh?$AAe?$AA?$AA?$AA?$AH?$AA?$AA?$AA?$AA?$AA?$AA?$BG?$BI?$AF?$:O@ 5f594704   oleunk.obj
 0002:00009720       ??_C@_1CK@DFMF@?$AAI?$AAI?$AAD?$AA_?$AAI?$AAO?$AAl?$AAe?$AAA?$AAd?$AAv?$AAi?$AAs?$AAe?$AAH?$AAo?$AAl?$AAd?$AAe?$AAr@ 5f594720   oleunk.obj
 0002:0000974c       ??_C@_1BK@JECK@?$AAI?$AAI?$AAD?$AA_?$AAI?$AAM?$AAo?$AAn?$AAi?$AAk?$AAe?$AAr?$AA?$AA?$AA?$AA?$AA?$AH?$AA?$AA?$AA?$AA?$AA?$AA?$BFP?$AF?$:O@ 5f59474c   oleunk.obj
 0002:00009768       ??_C@_1CG@CGGO@?$AAI?$AAI?$AAD?$AA_?$AAI?$AAM?$AAe?$AAs?$AAs?$AAa?$AAg?$AAe?$AAF?$AAi?$AAl?$AAt?$AAe?$AAr?$AA?$AA?$AA?$AA@ 5f594768   oleunk.obj
 0002:00009790       ??_C@_1BK@LCEE@?$AAI?$AAI?$AAD?$AA_?$AAI?$AAM?$AAa?$AAr?$AAs?$AAh?$AAa?$AAl?$AA?$AA?$AA?$AA?$AA?$AH?$AA?$AA?$AA?$AA?$AA?$AA?$BE?$AF?$:O@ 5f594790   oleunk.obj
 0002:000097ac       ??_C@_1BI@NEHI@?$AAI?$AAI?$AAD?$AA_?$AAI?$AAM?$AAa?$AAl?$AAl?$AAo?$AAc?$AA?$AA?$AA?$AH?$AA?$AA?$AA?$AA?$AA?$AA?$BE4?$AF?$:O?$AA?$BI?$AA?$AB@ 5f5947ac   oleunk.obj
 0002:000097c4       ??_C@_1BO@DGME@?$AAI?$AAI?$AAD?$AA_?$AAI?$AAL?$AAo?$AAc?$AAk?$AAB?$AAy?$AAt?$AAe?$AAs?$AA?$AA?$AA?$AA?$AA?$AH?$AA?$AA?$AA?$AA?$AA?$AA@ 5f5947c4   oleunk.obj
 0002:000097e4       ??_C@_1CK@JFE@?$AAI?$AAI?$AAD?$AA_?$AAI?$AAI?$AAn?$AAt?$AAe?$AAr?$AAn?$AAa?$AAl?$AAM?$AAo?$AAn?$AAi?$AAk?$AAe?$AAr@ 5f5947e4   oleunk.obj
 0002:00009810       ??_C@_1CC@MLIL@?$AAI?$AAI?$AAD?$AA_?$AAI?$AAE?$AAn?$AAu?$AAm?$AAV?$AAA?$AAR?$AAI?$AAA?$AAN?$AAT?$AA?$AA?$AA?$AA?$AA?$AH?$AA?$AA@ 5f594810   oleunk.obj
 0002:00009834       ??_C@_1CC@GMAD@?$AAI?$AAI?$AAD?$AA_?$AAI?$AAE?$AAn?$AAu?$AAm?$AAU?$AAn?$AAk?$AAn?$AAo?$AAw?$AAn?$AA?$AA?$AA?$AA?$AA?$AH?$AA?$AA@ 5f594834   oleunk.obj
 0002:00009858       ??_C@_1CA@FGJ@?$AAI?$AAI?$AAD?$AA_?$AAI?$AAE?$AAn?$AAu?$AAm?$AAS?$AAt?$AAr?$AAi?$AAn?$AAg?$AA?$AA?$AA?$AH?$AA?$AA?$AA?$AA?$AA?$AA@ 5f594858   oleunk.obj
 0002:00009878       ??_C@_1CC@ELHM@?$AAI?$AAI?$AAD?$AA_?$AAI?$AAE?$AAn?$AAu?$AAm?$AAS?$AAT?$AAA?$AAT?$AAS?$AAT?$AAG?$AA?$AA?$AA?$AA?$AA?$AH?$AA?$AA@ 5f594878   oleunk.obj
 0002:0000989c       ??_C@_1CE@GBAK@?$AAI?$AAI?$AAD?$AA_?$AAI?$AAE?$AAn?$AAu?$AAm?$AAS?$AAT?$AAA?$AAT?$AAD?$AAA?$AAT?$AAA?$AA?$AA?$AA?$AH?$AA?$AA@ 5f59489c   oleunk.obj
