
 KERNEL

 Start     Length     Name                   Class
 0001:0000 0CB20H     _TEXT                  CODE
 0001:CB20 00000H     _STRS                  CODE
 0001:CB20 00000H     _GPFIX0                CODE
 0001:CB20 00120H     _GPFIX                 CODE
 0001:CC40 00002H     _GPFIX1                CODE
 0001:CC50 00010H     _EMS                   CODE
 0001:CC60 01FF4H     _INITTEXT              CODE
 0002:0000 02DC0H     _NRESTEXT              CODE
 0003:0000 00D10H     _MISCTEXT              CODE
 0004:0000 02550H     _DATA                  DATA
 0004:2550 00000H     _EMSDATA               DATA
 0004:2550 00388H     _INITDATA              DATA
 0004:28E0 00332H     STACK                  DATA
 0004:2C12 00020H     _PADDATA               DATA
 0004:2C32 00000H     CONST                  CONST
 0004:2C32 00000H     _BSS                   BSS

 Origin   Group
 0004:0   DGROUP
 0001:0   IGROUP

 Address   Export                  Alias

 0001:B47A A20PROC                 A20PROC
 0001:020A ACCESSRESOURCE          ACCESSRESOURCE
 0001:0283 ADDATOM                 ADDATOM
 0001:2BEA ALLOCALIAS              ALLOCALIAS
 0001:019A ALLOCCSTODSALIAS        ALLOCCSTODSALIAS
 0001:01AE ALLOCDSTOCSALIAS        ALLOCDSTOCSALIAS
 0001:0227 ALLOCRESOURCE           ALLOCRESOURCE
 0001:2BD9 ALLOCSELECTOR           ALLOCSELECTOR
 0001:2C9F ALLOCSELECTORARRAY      ALLOCSELECTORARRAY
 0001:7317 BUNNY_351               BUNNY_351
 0001:CA12 CALLPROC32W             CALLPROC32W
 0001:5B81 CALLPROCINSTANCE        CALLPROCINSTANCE
 0003:0054 CATCH                   CATCH
 0001:AC63 CVWBREAK                CVWBREAK
 0001:9D18 DEBUGBREAK              DEBUGBREAK
 0001:ACB4 DEBUGDEFINESEGMENT      DEBUGDEFINESEGMENT
 0003:0479 DEFINEHANDLETABLE       DEFINEHANDLETABLE
 0001:029A DELETEATOM              DELETEATOM
 0003:0576 DELETEPATHNAME          DELETEPATHNAME
 0001:BD8B DIAGOUTPUT              DIAGOUTPUT
 0001:BD7C DIAGQUERY               DIAGQUERY
 0001:C9C4 DIRECTEDYIELD           DIRECTEDYIELD
 0001:87EE DIRECTRESALLOC          DIRECTRESALLOC
 0001:B351 DISABLEDOS              DISABLEDOS
 0001:B369 DISABLEKERNEL           DISABLEKERNEL
 0001:2BC1 DOS3CALL                DOS3CALL
 0001:7642 DOSIGNAL                DOSIGNAL
 0001:CC50 EMSCOPY                 EMSCOPY
 0001:B345 ENABLEDOS               ENABLEDOS
 0001:B35D ENABLEKERNEL            ENABLEKERNEL
 0001:8435 EXITKERNEL              EXITKERNEL
 0001:C9EB EXITKERNELTHUNK         EXITKERNELTHUNK
 0001:0309 FATALAPPEXIT            FATALAPPEXIT
 0001:9AFA FATALEXIT               FATALEXIT
 0001:B54D FATALEXITHOOK           FATALEXITHOOK
 0003:0944 FILECDR                 FILECDR
 0001:02AE FINDATOM                FINDATOM
 0003:0008 FINDRESOURCE            FINDRESOURCE
 0001:65E0 FLUSHCACHEDFILEHANDLE   FLUSHCACHEDFILEHANDLE
 0002:018A FREELIBRARY             FREELIBRARY
 0001:C95C FREELIBRARY32W          FREELIBRARY32W
 0002:0176 FREEMODULE              FREEMODULE
 0003:00F9 FREEPROCINSTANCE        FREEPROCINSTANCE
 0001:0241 FREERESOURCE            FREERESOURCE
 0001:01C2 FREESELECTOR            FREESELECTOR
 0001:B569 GETAPPCOMPATFLAGS       GETAPPCOMPATFLAGS
 0001:02F5 GETATOMHANDLE           GETATOMHANDLE
 0001:02C5 GETATOMNAME             GETATOMNAME
 0001:5B54 GETCODEHANDLE           GETCODEHANDLE
 0001:0507 GETCODEINFO             GETCODEINFO
 0001:5867 GETCURPID               GETCURPID
 0003:02CE GETCURRENTPDB           GETCURRENTPDB
 0001:870E GETCURRENTTASK          GETCURRENTTASK
 0003:098A GETDOSENVIRONMENT       GETDOSENVIRONMENT
 0001:C942 GETDRIVETYPE            GETDRIVETYPE
 0001:6110 GETEXEPTR               GETEXEPTR
 0003:0895 GETEXEVERSION           GETEXEVERSION
 0001:61A9 GETEXPWINVER            GETEXPWINVER
 0001:179D GETFREEMEMINFO          GETFREEMEMINFO
 0001:0530 GETFREESPACE            GETFREESPACE
 0002:206E GETHEAPSPACES           GETHEAPSPACES
 0002:021D GETINSTANCEDATA         GETINSTANCEDATA
 0001:6F4C GETLASTDISKCHANGE       GETLASTDISKCHANGE
 0001:0E71 GETLPERRMODE            GETLPERRMODE
 0002:01E6 GETMODULEFILENAME       GETMODULEFILENAME
 0002:01BB GETMODULEHANDLE         GETMODULEHANDLE
 0002:01D2 GETMODULEUSAGE          GETMODULEUSAGE
 0003:099E GETNUMTASKS             GETNUMTASKS
 0001:08A3 GETPRIVATEPROFILEINT    GETPRIVATEPROFILEINT
 0001:08D5 GETPRIVATEPROFILESTRING  GETPRIVATEPROFILESTRING
 0002:019E GETPROCADDRESS          GETPROCADDRESS
 0001:C969 GETPROCADDRESS32W       GETPROCADDRESS32W
 0001:082F GETPROFILEINT           GETPROFILEINT
 0001:0855 GETPROFILESTRING        GETPROFILESTRING
 0001:2EF9 GETSELECTORBASE         GETSELECTORBASE
 0001:34BE GETSELECTORLIMIT        GETSELECTORLIMIT
 0001:B52D GETSETKERNELDOSPROC     GETSETKERNELDOSPROC
 0003:00B2 GETSYSTEMDIRECTORY      GETSYSTEMDIRECTORY
 0001:1636 GETTASKDS               GETTASKDS
 0001:813E GETTASKQUEUE            GETTASKQUEUE
 0001:8148 GETTASKQUEUEDS          GETTASKQUEUEDS
 0001:8156 GETTASKQUEUEES          GETTASKQUEUEES
 0003:05C8 GETTEMPDRIVE            GETTEMPDRIVE
 0003:0110 GETTEMPFILENAME         GETTEMPFILENAME
 0001:C976 GETVDMPOINTER32W        GETVDMPOINTER32W
 0003:0882 GETVERSION              GETVERSION
 0001:09CA GETWINDEBUGINFO         GETWINDEBUGINFO
 0003:0088 GETWINDOWSDIRECTORY     GETWINDOWSDIRECTORY
 0003:0867 GETWINFLAGS             GETWINFLAGS
 0002:05CF GETWINOLDAPHOOKS        GETWINOLDAPHOOKS
 0001:0323 GLOBALALLOC             GLOBALALLOC
 0001:1571 GLOBALCOMPACT           GLOBALCOMPACT
 0001:1830 GLOBALDOSALLOC          GLOBALDOSALLOC
 0001:1869 GLOBALDOSFREE           GLOBALDOSFREE
 0001:04B7 GLOBALFIX               GLOBALFIX
 0001:0414 GLOBALFLAGS             GLOBALFLAGS
 0001:0356 GLOBALFREE              GLOBALFREE
 0001:11FD GLOBALFREEALL           GLOBALFREEALL
 0001:0373 GLOBALHANDLE            GLOBALHANDLE
 0001:1291 GLOBALHANDLENORIP       GLOBALHANDLENORIP
 0001:0387 GLOBALLOCK              GLOBALLOCK
 0001:0450 GLOBALLRUNEWEST         GLOBALLRUNEWEST
 0001:0464 GLOBALLRUOLDEST         GLOBALLRUOLDEST
 0001:1627 GLOBALMASTERHANDLE      GLOBALMASTERHANDLE
 0001:0478 GLOBALNOTIFY            GLOBALNOTIFY
 0001:048F GLOBALPAGELOCK          GLOBALPAGELOCK
 0001:04A3 GLOBALPAGEUNLOCK        GLOBALPAGEUNLOCK
 0001:039B GLOBALREALLOC           GLOBALREALLOC
 0001:03E3 GLOBALSIZE              GLOBALSIZE
 0001:04CB GLOBALUNFIX             GLOBALUNFIX
 0001:03F7 GLOBALUNLOCK            GLOBALUNLOCK
 0001:043C GLOBALUNWIRE            GLOBALUNWIRE
 0001:0428 GLOBALWIRE              GLOBALWIRE
 0001:5ED6 HASGPHANDLER            HASGPHANDLER
 0001:5FC2 HMEMCPY                 HMEMCPY
 0003:04C6 INITATOMTABLE           INITATOMTABLE
 0002:2A63 INITLIB                 INITLIB
 0002:294F INITTASK                INITTASK
 0001:8352 INITTASK1               INITTASK1
 0001:5E8C ISBADCODEPTR            ISBADCODEPTR
 0001:5E09 ISBADHUGEREADPTR        ISBADHUGEREADPTR
 0001:5E49 ISBADHUGEWRITEPTR       ISBADHUGEWRITEPTR
 0001:5DC6 ISBADREADPTR            ISBADREADPTR
 0001:5EB2 ISBADSTRINGPTR          ISBADSTRINGPTR
 0001:5DE7 ISBADWRITEPTR           ISBADWRITEPTR
 0001:8707 ISDBCSLEADBYTE          ISDBCSLEADBYTE
 0002:20C1 ISROMFILE               ISROMFILE
 0002:20BC ISROMMODULE             ISROMMODULE
 0001:5F9F ISSHAREDSELECTOR        ISSHAREDSELECTOR
 0001:8196 ISTASK                  ISTASK
 0001:836C ISTASKLOCKED            ISTASKLOCKED
 0001:8191 ISWINOLDAPTASK          ISWINOLDAPTASK
 0001:9D98 K327                    HANDLEPARAMERROR
 0001:9DC2 K329                    DEBUGFILLBUFFER
 0001:36EB K403                    FARSETOWNER
 0001:36C1 K404                    FARGETOWNER
 0001:5866 KBDRST                  KBDRST
 0001:CAD0 KDDBGOUT                KDDBGOUT
 0001:5860 LIMITEMSPAGES           LIMITEMSPAGES
 0002:0231 LOADLIBRARY             LOADLIBRARY
 0001:C94F LOADLIBRARYEX32W        LOADLIBRARYEX32W
 0002:0248 LOADMODULE              LOADMODULE
 0001:01F0 LOADRESOURCE            LOADRESOURCE
 0001:06FB LOCALALLOC              LOCALALLOC
 0001:92D2 LOCALCOMPACT            LOCALCOMPACT
 0002:2CD2 LOCALCOUNTFREE          LOCALCOUNTFREE
 0001:0789 LOCALFLAGS              LOCALFLAGS
 0001:0717 LOCALFREE               LOCALFREE
 0001:92B7 LOCALHANDLE             LOCALHANDLE
 0002:2D15 LOCALHANDLEDELTA        LOCALHANDLEDELTA
 0002:2D0A LOCALHEAPSIZE           LOCALHEAPSIZE
 0002:2B93 LOCALINIT               LOCALINIT
 0001:072B LOCALLOCK               LOCALLOCK
 0002:027C LOCALNOTIFY             LOCALNOTIFY
 0001:073F LOCALREALLOC            LOCALREALLOC
 0001:9312 LOCALSHRINK             LOCALSHRINK
 0001:0761 LOCALSIZE               LOCALSIZE
 0001:0775 LOCALUNLOCK             LOCALUNLOCK
 0001:C9D1 LOCKCURRENTTASK         LOCKCURRENTTASK
 0001:0255 LOCKRESOURCE            LOCKRESOURCE
 0001:04DF LOCKSEGMENT             LOCKSEGMENT
 0001:9E0A LOGERROR                LOGERROR
 0001:9E23 LOGPARAMERROR           LOGPARAMERROR
 0001:33FC LONGPTRADD              LONGPTRADD
 0001:0582 LSTRCAT                 LSTRCAT
 0001:054C LSTRCPY                 LSTRCPY
 0001:85B1 LSTRCPYN                LSTRCPYN
 0001:05E1 LSTRLEN                 LSTRLEN
 0003:00DC MAKEPROCINSTANCE        MAKEPROCINSTANCE
 0001:3D86 MEMORYFREED             MEMORYFREED
 0001:B487 NETBIOSCALL             NETBIOSCALL
 0001:2BBB NOHOOKDOSCALL           NOHOOKDOSCALL
 0001:C9AA OLDYIELD                OLDYIELD
 0001:079D OPENFILE                OPENFILE
 0003:057E OPENPATHNAME            OPENPATHNAME
 0001:AEF9 OUTPUTDEBUGSTRING       OUTPUTDEBUGSTRING
 0001:8010 PATCHCODEHANDLE         PATCHCODEHANDLE
 0001:C990 POSTEVENT               POSTEVENT
 0001:01D6 PRESTOCHANGOSELECTOR    PRESTOCHANGOSELECTOR
 0003:08D9 REGISTERPTRACE          REGISTERPTRACE
 0002:0565 REGISTERWINOLDAPHOOK    REGISTERWINOLDAPHOOK
 0001:B15C REPLACEINST             REPLACEINST
 0001:86AE RESERVED1               ANSINEXT
 0001:86AB RESERVED2               ANSIPREV
 0001:86A5 RESERVED3               ANSIUPPER
 0001:86A8 RESERVED4               ANSILOWER
 0001:05B8 RESERVED5               LSTRORIGINAL
 0001:3515 SELECTORACCESSRIGHTS    SELECTORACCESSRIGHTS
 0003:0166 SETERRORMODE            SETERRORMODE
 0001:0813 SETHANDLECOUNT          SETHANDLECOUNT
 0001:C9B7 SETPRIORITY             SETPRIORITY
 0003:002E SETRESOURCEHANDLER      SETRESOURCEHANDLER
 0001:349E SETSELECTORBASE         SETSELECTORBASE
 0001:34E1 SETSELECTORLIMIT        SETSELECTORLIMIT
 0003:0736 SETSIGHANDLER           SETSIGHANDLER
 0001:3DBD SETSWAPAREASIZE         SETSWAPAREASIZE
 0001:8184 SETTASKQUEUE            SETTASKQUEUE
 0001:8166 SETTASKSIGNALPROC       SETTASKSIGNALPROC
 0001:099F SETWINDEBUGINFO         SETWINDEBUGINFO
 0001:0269 SIZEOFRESOURCE          SIZEOFRESOURCE
 0003:0182 SWAPRECORDING           SWAPRECORDING
 0001:1717 SWITCHSTACKBACK         SWITCHSTACKBACK
 0001:07FF SWITCHSTACKTO           SWITCHSTACKTO
 0004:0238 THHOOK                  THHOOK
 0003:006E THROW                   THROW
 0003:0908 TOOLHELPHOOK            TOOLHELPHOOK
 0001:7694 UNDEFDYNLINK            UNDEFDYNLINK
 0001:04F3 UNLOCKSEGMENT           UNLOCKSEGMENT
 0002:2DBF VALIDATECODESEGMENTS    VALIDATECODESEGMENTS
 0001:5052 VALIDATEFREESPACES      VALIDATEFREESPACES
 0001:C99D WAITEVENT               WAITEVENT
 0002:0293 WINEXEC                 WINEXEC
 0003:08A2 WINOLDAPCALL            WINOLDAPCALL
 0001:C02A WOW16CALL               WOW16CALL
 0001:C747 WOWCLOSECOMPORT         WOWCLOSECOMPORT
 0001:C72D WOWCURSORICONOP         WOWCURSORICONOP
 0001:C73A WOWFAILEDEXEC           WOWFAILEDEXEC
 0001:C865 WOWGETNEXTVDMCOMMAND    WOWGETNEXTVDMCOMMAND
 0001:C8CD WOWKILLREMOTETASK       WOWKILLREMOTETASK
 0001:C87F WOWLOADMODULE           WOWLOADMODULE
 0001:C7FD WOWMSGBOX               WOWMSGBOX
 0001:C527 WOWQUERYDEBUG           WOWQUERYDEBUG
 0001:C899 WOWQUERYPERFORMANCECOUNTER  WOWQUERYPERFORMANCECOUNTER
 0001:C872 WOWREGISTERSHELLWINDOWHANDLE  WOWREGISTERSHELLWINDOWHANDLE
 0001:C649 WOWSETCOMPATHANDLE      WOWSETCOMPATHANDLE
 0001:C5B4 WOWSETEXITONLASTAPP     WOWSETEXITONLASTAPP
 0001:C7F0 WOWWAITFORMSGANDEVENT   WOWWAITFORMSGANDEVENT
 0001:C9DE WRITEOUTPROFILES        WRITEOUTPROFILES
 0001:0961 WRITEPRIVATEPROFILESTRING  WRITEPRIVATEPROFILESTRING
 0001:092F WRITEPROFILESTRING      WRITEPROFILESTRING
 0001:C66A YIELD                   YIELD
 0001:CAB3 _CallProcEx32W          _CallProcEx32W
 0001:9DEB _DebugOutput            _DebugOutput
 0001:605D _HREAD                  _HREAD
 0001:60B0 _HWRITE                 _HWRITE
 0001:0626 _LCLOSE                 _LCLOSE
 0001:0645 _LCREAT                 _LCREAT
 0001:0670 _LLSEEK                 _LLSEEK
 0001:05FB _LOPEN                  _LOPEN
 0001:069E _LREAD                  _LREAD
 0001:06CE _LWRITE                 _LWRITE
 0000:0000 __0000h                 __0000h
 0000:0040 __0040h                 __0040h
 0000:A000 __A000h                 __A000h
 0000:0008 __AHINCR                __AHINCR
 0000:0003 __AHSHIFT               __AHSHIFT
 0000:B000 __B000h                 __B000h
 0000:B800 __B800h                 __B800h
 0000:C000 __C000h                 __C000h
 0000:D000 __D000h                 __D000h
 0000:E000 __E000h                 __E000h
 0000:F000 __F000h                 __F000h
 0001:CB20 __GP                    __GP
 0000:0000 __MOD_COMMDLG           __MOD_COMMDLG
 0000:0000 __MOD_DGDI              __MOD_DGDI
 0000:0000 __MOD_DKERNEL           __MOD_DKERNEL
 0000:0000 __MOD_DUSER             __MOD_DUSER
 0000:0000 __MOD_GDI               __MOD_GDI
 0000:0000 __MOD_KERNEL            __MOD_KERNEL
 0000:0000 __MOD_KEYBOARD          __MOD_KEYBOARD
 0000:0000 __MOD_MMEDIA            __MOD_MMEDIA
 0000:0000 __MOD_SHELL             __MOD_SHELL
 0000:0000 __MOD_SOUND             __MOD_SOUND
 0000:0000 __MOD_TOOLHELP          __MOD_TOOLHELP
 0000:0000 __MOD_USER              __MOD_USER
 0000:0000 __MOD_WINSOCK           __MOD_WINSOCK
 0000:F000 __ROMBIOS               __ROMBIOS
 0000:0001 __WINFLAGS              __WINFLAGS

  Address         Publics by Name

 0001:B614       @LoadWsprintf
 0001:B47A       A20PROC
 0001:020A       ACCESSRESOURCE
 0001:0283       ADDATOM
 0001:4CFC       ADDBLOCKTOHEAP
 0002:0AE7       ADDMODULE
 0001:2BEA       ALLOCALIAS
 0002:216C       ALLOCALLSEGS
 0004:1D26       ALLOCBREAK
 0004:1D22       ALLOCCOUNT
 0001:019A       ALLOCCSTODSALIAS
 0001:4E08       ALLOCDPMIBLOCK
 0001:01AE       ALLOCDSTOCSALIAS
 0004:1D2A       ALLOCMODNAME
 0001:0227       ALLOCRESOURCE
 0001:7AC2       ALLOCSEG
 0001:2BD9       ALLOCSELECTOR
 0001:2C9F       ALLOCSELECTORARRAY
 0001:2BC8       ALLOCSELECTORWOW
 0001:3A12       ALLOCSELECTOR_0X47
 0004:1D20       ALLOCTASK
 0001:2E3B       ALLOC_DATA_SEL
 0001:310C       ALLOC_DATA_SEL_ABOVE
 0001:30D9       ALLOC_DATA_SEL_BELOW
 0001:4628       ALLOC_FIXED
 0001:4603       ALLOC_HIGH
 0001:461A       ALLOC_LOW
 0001:2E3E       ALLOC_SEL
 0001:3851       ALLOC_SPECIAL_SEL
 0001:86A8       ANSILOWER
 0001:86AE       ANSINEXT
 0001:86AB       ANSIPREV
 0001:86A5       ANSIUPPER
 0001:6D1A       APPENDFIRST
 0001:0B94       APPLOADERENTPROCADDRESS
 0001:19FE       ASSIGNCALL
 0001:31DC       ASSOCIATESELECTOR
 0004:05F4       BASEDSC
 0001:CC50       BEG_EMSCODE
 0004:2550       BEG_EMSDATA
 0001:E339       BIGMOVE
 0004:05FA       BLOTDSC
 0002:20C6       BOOTAPPL
 0001:DAB5       BOOTDONE
 0004:2558       BOOTEXECBLOCK
 0004:16E0       BOOTORDER
 0001:843C       BOOTSCHEDULE
 0001:CDA0       BOOTSTRAP
 0001:7270       BREAKPOINT
 0004:059B       BUFPOS
 0002:03EC       BUILDPDB
 0001:7317       BUNNY_351
 0003:04FA       CALCMAXNRSEG
 0001:5B8E       CALLMOVEABLEINSTANCEPROC
 0001:CA12       CALLPROC32W
 0001:5B81       CALLPROCINSTANCE
 0002:1490       CALLWEP
 0001:4821       CAN_WE_CLEAR_THIS_SPACE
 0001:483D       CAN_WE_MOVE_IT
 0003:0054       CATCH
 0004:0408       CBYTESSYS16DIR
 0004:0411       CBYTESSYS16SUFFIX
 0004:0402       CBYTESSYSDIR
 0004:0400       CBYTESWINDIR
 0001:4EAC       CCCC
 0004:035F       CDEVAT
 0001:19C6       CHANGE_DIR
 0001:8799       CHECKGALLOCBREAK
 0001:A7A2       CHECKGLOBALHEAP
 0001:36B8       CHECKKERNELDSPROC
 0001:8799       CHECKLALLOCBREAK
 0001:A8B8       CHECKLOCALHEAP
 0001:4FBE       CHECK_FREE_LIST
 0001:51EF       CHECK_LRU_LIST
 0001:DC6C       CHECK_TEMP
 0001:4F4E       CHECK_THIS_SPACE
 0002:12F9       CLOSEAPPLENV
 0001:65D3       CLOSECACHEDFILEHANDLE
 0001:6630       CLOSECACHEDFILES
 0003:020C       CLP0MISCTEXT
 0002:0329       CLP0NRESTEXT
 0001:0ABB       CLP0TEXT
 0003:0220       CLPEXITMISCTEXT
 0002:033D       CLPEXITNRESTEXT
 0001:0ACF       CLPEXITTEXT
 0003:0212       CLPMISCTEXT
 0002:032F       CLPNRESTEXT
 0003:0282       CLPSTRATOM0MISCTEXT
 0002:039F       CLPSTRATOM0NRESTEXT
 0001:0B31       CLPSTRATOM0TEXT
 0003:0284       CLPSTRATOMMISCTEXT
 0002:03A1       CLPSTRATOMNRESTEXT
 0001:0B33       CLPSTRATOMTEXT
 0003:0290       CLPSZ0MISCTEXT
 0002:03AD       CLPSZ0NRESTEXT
 0001:0B3F       CLPSZ0TEXT
 0003:0296       CLPSZMISCTEXT
 0002:03B3       CLPSZNRESTEXT
 0001:0B45       CLPSZTEXT
 0001:0AC1       CLPTEXT
 0003:0BB5       CMPRESSTR
 0001:313F       CMP_SEL_ADDRESS
 0002:05E2       COPYNAME
 0001:89A6       COPYRESOURCE
 0004:026F       CPLOWHEAP
 0004:05F0       CPSHRINK
 0004:05F2       CPSHRUNK
 0002:2308       CREATETASK
 0004:02B2       CURDOSDRIVE
 0004:02A1       CURDTA
 0004:0248       CURTDB
 0004:02A5       CUR_DOS_PDB
 0004:02A9       CUR_DRIVE_OWNER
 0001:AC63       CVWBREAK
 0001:81C6       CVW_HACK
 0001:1C37       DEALWITHCACHEDMODULE
 0001:9D18       DEBUGBREAK
 0001:EC07       DEBUGDEBUG
 0001:ACB4       DEBUGDEFINESEGMENT
 0001:AF7B       DEBUGEXITCALL
 0001:9DC2       DEBUGFILLBUFFER
 0004:2448       DEBUGFILTER
 0001:AD96       DEBUGFREESEGMENT
 0001:EBE1       DEBUGINIT
 0001:B068       DEBUGLOGERROR
 0001:B072       DEBUGLOGPARAMERROR
 0001:AD8F       DEBUGMOVEDSEGMENT
 0004:2446       DEBUGOPTIONS
 0001:B7EC       DEBUGOUTPUT2
 0001:AF11       DEBUGREAD
 0001:AF64       DEBUGSWITCHIN
 0001:AF4D       DEBUGSWITCHOUT
 0001:EC31       DEBUGSYSREQ
 0004:0687       DEBUGWOW
 0001:ADF3       DEBUGWRITE
 0002:0935       DECEXEUSAGE
 0004:16E3       DEFAULTORDER
 0001:8D04       DEFAULTRESOURCEHANDLER
 0001:7633       DEFAULT_SIG_HANDLER
 0003:0479       DEFINEHANDLETABLE
 0001:5B96       DELATOM
 0001:029A       DELETEATOM
 0003:0576       DELETEPATHNAME
 0001:8770       DELETETASK
 0002:0B74       DELMODULE
 0004:0652       DEM16TO32HANDLE
 0004:05FC       DEMANDLOADSEL
 0004:08E7       DEVENAM1
 0004:0907       DEVENAM2
 0004:0928       DEVENAM3
 0001:BE07       DIAGINIT
 0001:BD8B       DIAGOUTPUT
 0001:BD7C       DIAGQUERY
 0002:04A3       DIBREALLOC
 0001:C9C4       DIRECTEDYIELD
 0001:87EE       DIRECTRESALLOC
 0001:B351       DISABLEDOS
 0001:B369       DISABLEKERNEL
 0001:445E       DISCARDCODESEGMENT
 0001:10F9       DISCARDTHEWORLD
 0001:6FC6       DISPLAY_BOX_OF_DOOM
 0001:72B4       DIVIDE_OVERFLOW
 0001:1B02       DLDRIVECALL1
 0001:1B0C       DLDRIVECALL2
 0001:9D87       DOABORT
 0001:2BC1       DOS3CALL
 0004:02B3       DOSDRIVES
 0001:2099       DOSEXITRETURN
 0001:7642       DOSIGNAL
 0001:23C2       DOSTRAP1
 0004:02AE       DOS_REVISION
 0004:02AD       DOS_VERSION
 0001:46B5       DO_COMPACT
 0002:28F0       DO_LIBINIT
 0004:1002       DPMIBLOCKCOUNT
 0001:1871       DPMIFREESPACE
 0004:0F62       DPMIMEMORY
 0001:37ED       DPMIPROC
 0004:0279       DRESSED_FOR_SUCCESS
 0004:0861       DRVLET1
 0004:087B       DRVLET2
 0004:0894       DRVLET3
 0004:08B2       DRVLET4
 0004:08CC       DRVLET5
 0004:16C2       DTDIRTABLE
 0001:CC50       EMSCOPY
 0001:B345       ENABLEDOS
 0001:B35D       ENABLEKERNEL
 0001:0090       ENTER_GMOVE_STACK
 0001:62A4       ENTPROCADDRESS
 0004:0360       ERRCAP
 0001:6B4B       ERRORRETURN
 0003:02B7       ERRORSTRPTRMISCTEXT
 0002:03D4       ERRORSTRPTRNRESTEXT
 0001:0B66       ERRORSTRPTRTEXT
 0001:7416       EXCEPTIONHANDLERPROC
 0001:1FC4       EXECCALL
 0002:2164       EXITAPPL
 0001:20B1       EXITCALL
 0001:7304       EXITFAULT
 0001:8435       EXITKERNEL
 0001:C9EB       EXITKERNELTHUNK
 0001:8453       EXITSCHEDULE
 0004:0258       F8087
 0001:0BD9       FARALLOCSEG
 0001:31CA       FARASSOCIATESELECTOR
 0001:8783       FARCREATETASK
 0001:AFD6       FARDEBUGDELMODULE
 0001:0BEB       FARDELETETASK
 0001:0B7E       FARENTPROCADDRESS
 0002:045B       FAREXECCALL
 0002:082E       FARFINDEXEINFO
 0001:0BA9       FARFINDORDINAL
 0001:6500       FARGETCACHEDFILEHANDLE
 0001:36C1       FARGETOWNER
 0001:9C8E       FARKERNELERROR
 0001:0BC1       FARLOADSEGMENT
 0001:0C04       FARMYALLOC
 0001:0C19       FARMYALLOCLINEAR
 0001:0C3D       FARMYFREE
 0001:0C2E       FARMYLOCK
 0001:0BFC       FARMYLOWER
 0001:0C00       FARMYUPPER
 0001:36EB       FARSETOWNER
 0001:0BF8       FARUNLINKOBJECT
 0001:3718       FARVALIDATEPOINTER
 0001:2E26       FAR_ALLOC_DATA_SEL
 0001:33B2       FAR_FREE_TEMP_SEL
 0001:0C4C       FAR_GENTER
 0001:3164       FAR_GET_ARENA_POINTER
 0001:336F       FAR_GET_TEMP_SEL
 0001:0C50       FAR_LALIGN
 0001:0C58       FAR_LFILLCC
 0001:0C54       FAR_LREPSETUP
 0001:276D       FAR_REAL_DOS
 0004:0656       FASTBOP
 0004:065A       FASTBOPCS
 0004:026A       FASTFP
 0004:065C       FASTWOW
 0004:0662       FASTWOWCBRET
 0004:0666       FASTWOWCBRETCS
 0004:0660       FASTWOWCS
 0001:0309       FATALAPPEXIT
 0001:9AFA       FATALEXIT
 0001:C9F8       FATALEXITC
 0001:B54D       FATALEXITHOOK
 0004:0334       FATALEXITPROC
 0001:7176       FAULTFILTER
 0004:17A4       FAULTHANDLER
 0004:035C       FBOOTING
 0004:02AB       FBREAK
 0001:1B16       FCBCALL
 0004:035E       FCHECKFREE
 0004:035D       FCHKSUM
 0004:2470       FDIAGMODE
 0004:0637       FDW_INT21H
 0004:066A       FEXITONLASTAPP
 0004:02CE       FFAREAST
 0004:0604       FHCACHE
 0004:0600       FHCACHEEND
 0004:0602       FHCACHELEN
 0004:05FE       FHCSTEALNEXT
 0003:0944       FILECDR
 0001:8268       FILECDR_NOTIFY
 0004:029F       FILEENTRYSIZE
 0001:19EA       FILEHANDLECALL
 0001:2EBA       FILL_IN_SELECTOR_ARRAY
 0004:1090       FINALLOC
 0001:2617       FINAL_CALL_FOR_DOS
 0001:02AE       FINDATOM
 0002:07E6       FINDEXEFILE
 0002:07F8       FINDEXEINFO
 0001:6373       FINDORDINAL
 0003:0008       FINDRESOURCE
 0001:A07A       FINDSEGSYMS
 0001:A3B0       FINDSYMBOL
 0001:E407       FIND_DPMI_BLOCK
 0004:02AF       FINT21
 0002:109E       FIXFLAGS
 0004:0636       FKTRACEOUT
 0004:0262       FLMDEPTH
 0004:0634       FLOADTRACE
 0001:65E0       FLUSHCACHEDFILEHANDLE
 0004:02B0       FNOVELL
 0001:97B0       FOO
 0001:7064       FORMATFAULTSTRING
 0001:4BFD       FORMATHEAPBLOCK
 0004:02B1       FPADCODE
 0004:0363       FPOKEATSEGMENTS
 0004:0635       FPRELOADSEG
 0004:0361       FPROFILEDIRTY
 0004:0362       FPROFILEMAYBESTALE
 0002:018A       FREELIBRARY
 0001:C95C       FREELIBRARY32W
 0002:0176       FREEMODULE
 0001:5A5F       FREENRTABLE
 0003:00F9       FREEPROCINSTANCE
 0001:0241       FREERESOURCE
 0001:2D72       FREESELARRAY
 0001:01C2       FREESELECTOR
 0001:2250       FREETDB
 0001:57A4       FREE_OBJECT
 0001:2D59       FREE_SEL
 0004:0365       FTASKSWITCHCALLED
 0004:0256       FWINX
 0004:0364       FWRITEOUTPROFILESREENTER
 0001:4B7F       GADD_FREE
 0001:5272       GALIGN
 0001:5292       GALLOC
 0001:3A7D       GAVAIL
 0001:429B       GBESTFIT
 0001:0F75       GBTOP
 0001:49A3       GCHECKFREE
 0001:3F3B       GCMPHEAP
 0001:3E76       GCOMPACT
 0004:034C       GCOMPACT_START
 0004:0350       GCOMPACT_TIMER
 0001:4BBA       GDEL_FREE
 0001:43BA       GDISCARD
 0001:0032       GDTDSC
 0001:3A54       GENTER
 0001:3557       GETACCESSWORD
 0001:B569       GETAPPCOMPATFLAGS
 0001:02F5       GETATOMHANDLE
 0001:02C5       GETATOMNAME
 0001:6515       GETCACHEDFILEHANDLE
 0001:5B54       GETCODEHANDLE
 0001:0507       GETCODEINFO
 0001:5867       GETCURPID
 0001:C534       GETCURRENTDIRECTORY
 0003:02CE       GETCURRENTPDB
 0001:870E       GETCURRENTTASK
 0001:9C4A       GETDEBUGSTRING
 0001:1011       GETDEFOWNER
 0003:098A       GETDOSENVIRONMENT
 0001:C942       GETDRIVETYPE
 0001:9C76       GETEXEHEAD
 0001:6110       GETEXEPTR
 0003:0895       GETEXEVERSION
 0001:61A9       GETEXPWINVER
 0001:E09E       GETFILESIZE
 0001:E0D4       GETFILESIZE1
 0001:179D       GETFREEMEMINFO
 0001:0530       GETFREESPACE
 0002:206E       GETHEAPSPACES
 0002:0A9D       GETINSTANCE
 0002:021D       GETINSTANCEDATA
 0001:36A7       GETKERNELDATASEG
 0001:6F4C       GETLASTDISKCHANGE
 0001:0E71       GETLPERRMODE
 0002:01E6       GETMODULEFILENAME
 0002:01BB       GETMODULEHANDLE
 0002:01D2       GETMODULEUSAGE
 0003:099E       GETNUMTASKS
 0001:36D2       GETOWNER
 0001:AA34       GETOWNERNAME
 0001:692A       GETPATH
 0001:6899       GETPOINTER
 0001:08A3       GETPRIVATEPROFILEINT
 0001:08D5       GETPRIVATEPROFILESTRING
 0002:019E       GETPROCADDRESS
 0001:C969       GETPROCADDRESS32W
 0001:A4F2       GETPROCNAME
 0001:082F       GETPROFILEINT
 0001:0855       GETPROFILESTRING
 0001:6D47       GETPURENAME
 0003:0A20       GETRESORD
 0001:5A98       GETSEGPTR
 0001:2EF9       GETSELECTORBASE
 0001:35D0       GETSELECTORCOUNT
 0001:34BE       GETSELECTORLIMIT
 0001:B52D       GETSETKERNELDOSPROC
 0002:0A41       GETSTACKPTR
 0001:5A48       GETSTRINGPTR
 0001:9BEC       GETSYMFILENAME
 0003:00B2       GETSYSTEMDIRECTORY
 0001:1636       GETTASKDS
 0001:87E1       GETTASKMODNAMEPTR
 0001:813E       GETTASKQUEUE
 0001:8148       GETTASKQUEUEDS
 0001:8156       GETTASKQUEUEES
 0003:05C8       GETTEMPDRIVE
 0003:0110       GETTEMPFILENAME
 0001:C976       GETVDMPOINTER32W
 0003:0882       GETVERSION
 0001:09CA       GETWINDEBUGINFO
 0003:0088       GETWINDOWSDIRECTORY
 0003:0867       GETWINFLAGS
 0002:05CF       GETWINOLDAPHOOKS
 0001:3173       GET_ARENA_POINTER
 0001:3325       GET_BLOTTO
 0001:2322       GET_PDB
 0001:2F08       GET_PHYSICAL_ADDRESS
 0001:32EB       GET_ROVER_2
 0001:2CCC       GET_SEL
 0001:3220       GET_SELECTOR_ASSOCIATION
 0001:2F61       GET_SELECTOR_LENGTH16
 0002:0482       GET_SEL_FLAGS
 0001:3373       GET_TEMP_SEL
 0001:1EE3       GET_VECTOR
 0001:DD37       GET_WINDIR
 0001:498A       GFINDFREE
 0001:578A       GFREE
 0001:57C7       GFREEALL
 0003:019E       GHANDLE0MISCTEXT
 0002:02BB       GHANDLE0NRESTEXT
 0001:0A4D       GHANDLE0TEXT
 0003:01A2       GHANDLEMISCTEXT
 0002:02BF       GHANDLENRESTEXT
 0001:0A51       GHANDLETEXT
 0001:E59E       GINIT
 0001:4A83       GJOIN
 0001:3A63       GLEAVE
 0001:0323       GLOBALALLOC
 0001:1571       GLOBALCOMPACT
 0001:1830       GLOBALDOSALLOC
 0001:1869       GLOBALDOSFREE
 0001:04B7       GLOBALFIX
 0001:0414       GLOBALFLAGS
 0001:0356       GLOBALFREE
 0001:11FD       GLOBALFREEALL
 0001:0373       GLOBALHANDLE
 0001:1291       GLOBALHANDLENORIP
 0001:186E       GLOBALHUGE
 0001:E480       GLOBALINIT
 0001:0387       GLOBALLOCK
 0001:0450       GLOBALLRUNEWEST
 0001:0464       GLOBALLRUOLDEST
 0001:1627       GLOBALMASTERHANDLE
 0001:C935       GLOBALMEMORYSTATUS
 0001:0478       GLOBALNOTIFY
 0001:048F       GLOBALPAGELOCK
 0001:04A3       GLOBALPAGEUNLOCK
 0001:E36F       GLOBALPIGALL
 0001:039B       GLOBALREALLOC
 0001:03E3       GLOBALSIZE
 0001:04CB       GLOBALUNFIX
 0001:03F7       GLOBALUNLOCK
 0001:043C       GLOBALUNWIRE
 0001:0428       GLOBALWIRE
 0001:5827       GLOCK
 0001:51C9       GLRUADD
 0001:51B2       GLRUBOT
 0001:51DD       GLRUDEL
 0001:5183       GLRUSETUP
 0001:519B       GLRUTOP
 0001:4B30       GMARKFREE
 0001:417F       GMOVE
 0001:438D       GMOVEABLE
 0001:42D1       GMOVEBUSY
 0004:0230       GMOVE_STACK
 0004:0010       GMOVE_STACK_SIG
 0001:3C82       GNOTIFY
 0001:7443       GPFAULT
 0004:0377       GRAB_NAME
 0004:0268       GRAPHICS
 0001:539B       GREALLOC
 0001:3B43       GRESERVE
 0001:4BD6       GROWHEAP
 0001:2D92       GROWSELARRAY
 0001:E1F2       GROWSFTTOMAX
 0001:46CE       GROW_HEAP
 0001:45C2       GSEARCH
 0001:46E2       GSEARCH_FAIL
 0001:400A       GSLIDE
 0001:402C       GSLIDECOMMON
 0001:4A04       GSPLICE
 0001:5831       GUNLOCK
 0004:1CE0       GWHACKPTDB
 0004:1CE4       GWHACKTASKSP
 0004:1CE2       GWHACKTASKSS
 0001:4ABA       GZERO
 0001:C606       HACKCHECK
 0001:4530       HALLOC
 0001:B5DA       HANDLEABORTPROC
 0001:7339       HANDLEFAULT
 0001:9D98       HANDLEPARAMERROR
 0001:5ED6       HASGPHANDLER
 0004:0242       HEADPDB
 0004:0246       HEADTDB
 0001:458B       HENUM
 0004:023C       HEXEHEAD
 0004:023E       HEXESWEEP
 0003:060F       HEXTOA
 0004:025C       HGDI
 0004:0238       HGLOBALHEAP
 0004:05EA       HLOADBLOCK
 0001:09F2       HLOCAL0TEXT
 0001:09F6       HLOCALTEXT
 0001:5FC2       HMEMCPY
 0004:0004       HOLDSS
 0004:0260       HSHELL
 0001:0A43       HTEXT
 0001:584C       HTHREAD
 0001:A6EA       HTOA
 0001:A73A       HTOA0
 0004:025E       HUSER
 0004:027D       HXMMHEAP
 0001:8A2F       IACCESSRESOURCE
 0001:5B99       IADDATOM
 0001:2BEA       IALLOCCSTODSALIAS
 0001:2C00       IALLOCDSTOCSALIAS
 0001:8854       IALLOCRESOURCE
 0001:C983       ICALLPROC32W
 0003:09AA       ICATCH
 0001:5CDA       IDELETEATOM
 0001:7037       IFATALAPPEXIT
 0001:5B9C       IFINDATOM
 0003:0C6F       IFINDRESOURCE
 0002:0C36       IFREELIBRARY
 0002:0C36       IFREEMODULE
 0003:041D       IFREEPROCINSTANCE
 0001:8C38       IFREERESOURCE
 0001:2D3A       IFREESELECTOR
 0001:5CFD       IGETATOMHANDLE
 0001:5D13       IGETATOMNAME
 0001:5B17       IGETCODEINFO
 0001:17A3       IGETFREESPACE
 0002:07B5       IGETINSTANCEDATA
 0002:072A       IGETMODULEFILENAME
 0002:06A5       IGETMODULEHANDLE
 0002:0798       IGETMODULEUSAGE
 0001:C69E       IGETPRIVATEPROFILEINT
 0001:C691       IGETPRIVATEPROFILESTRING
 0002:061B       IGETPROCADDRESS
 0001:C684       IGETPROFILEINT
 0001:C677       IGETPROFILESTRING
 0003:07F8       IGETSYSTEMDIRECTORY
 0003:062A       IGETTEMPFILENAME
 0001:BBB8       IGETWINDEBUGINFO
 0003:07A0       IGETWINDOWSDIRECTORY
 0001:1030       IGLOBALALLOC
 0001:130C       IGLOBALFIX
 0001:1385       IGLOBALFLAGS
 0001:1126       IGLOBALFREE
 0001:1297       IGLOBALHANDLE
 0001:13A2       IGLOBALLOCK
 0001:1652       IGLOBALLRUNEWEST
 0001:1647       IGLOBALLRUOLDEST
 0001:1608       IGLOBALNOTIFY
 0001:361C       IGLOBALPAGELOCK
 0001:3650       IGLOBALPAGEUNLOCK
 0001:108D       IGLOBALREALLOC
 0001:1351       IGLOBALSIZE
 0001:133D       IGLOBALUNFIX
 0001:1405       IGLOBALUNLOCK
 0001:1530       IGLOBALUNWIRE
 0001:1491       IGLOBALWIRE
 0002:1552       ILOADLIBRARY
 0002:15D2       ILOADMODULE
 0001:8D68       ILOADRESOURCE
 0001:8F3B       ILOCALALLOC
 0001:9211       ILOCALFLAGS
 0001:9191       ILOCALFREE
 0001:922A       ILOCALLOCK
 0002:2B7C       ILOCALNOTIFY
 0001:8FF0       ILOCALREALLOC
 0001:91FA       ILOCALSIZE
 0001:9278       ILOCALUNLOCK
 0001:8AC5       ILOCKRESOURCE
 0001:12F2       ILOCKSEGMENT
 0001:861C       ILSTRCAT
 0001:860C       ILSTRCPY
 0001:8588       ILSTRLEN
 0001:866F       ILSTRORIGINAL
 0003:02E0       IMAKEPROCINSTANCE
 0002:0843       INCEXEUSAGE
 0004:027F       INDOS
 0003:04C6       INITATOMTABLE
 0001:CC60       INITCODE
 0004:2550       INITDATA
 0001:DF85       INITDOSVARP
 0001:DD76       INITFWDREF
 0002:2A63       INITLIB
 0002:294F       INITTASK
 0001:8352       INITTASK1
 0001:E7C9       INIT_ALIAS_LIST
 0001:4F0B       INIT_FREE_TO_CCCC
 0001:2C3D       INNER_ALLOC_SELECTOR
 0004:0267       INSCHEDULER
 0001:871F       INSERTTASK
 0001:1930       INT00HANDLER
 0001:1952       INT02HANDLER
 0001:1958       INT04HANDLER
 0001:195E       INT06HANDLER
 0001:1964       INT07HANDLER
 0001:1976       INT10HANDLER
 0001:251E       INT21ENTRY
 0001:251E       INT21HANDLER
 0001:0C5C       INT24HANDLER
 0001:196A       INT3EHANDLER
 0001:1970       INT75HANDLER
 0001:8A44       INTERNALACCESSRESOURCE
 0001:B253       INTERNALDISABLEDOS
 0001:B160       INTERNALENABLEDOS
 0001:7452       INVALID_OP_CODE_EXCEPTION
 0003:01EE       INVAL_PARAM_MISCTEXT
 0002:030B       INVAL_PARAM_NRESTEXT
 0001:0A9D       INVAL_PARAM_TEXT
 0001:6674       IOPENFILE
 0001:33C1       IPRESTOCHANGOSELECTOR
 0001:5E8C       ISBADCODEPTR
 0001:5E09       ISBADHUGEREADPTR
 0001:5E49       ISBADHUGEWRITEPTR
 0001:5DC6       ISBADREADPTR
 0001:5EB2       ISBADSTRINGPTR
 0001:5DE7       ISBADWRITEPTR
 0001:9CE2       ISCODESELECTOR
 0001:8707       ISDBCSLEADBYTE
 0003:0850       ISETERRORMODE
 0001:B48C       ISETHANDLECOUNT
 0003:0BF9       ISETRESOURCEHANDLER
 0001:BC4E       ISETWINDEBUGINFO
 0001:6CB2       ISFLOPPY
 0001:1F94       ISITINTERCEPTED
 0001:8CDA       ISIZEOFRESOURCE
 0001:1112       ISKERNELCALLING
 0002:20C1       ISROMFILE
 0002:20BC       ISROMMODULE
 0001:5F9F       ISSHAREDSELECTOR
 0001:8196       ISTASK
 0001:836C       ISTASKLOCKED
 0003:079D       ISWAPRECORDING
 0001:8191       ISWINOLDAPTASK
 0001:165D       ISWITCHSTACKTO
 0001:48A5       IS_THERE_HOPE
 0001:47B3       IS_THERE_THEORETICALLY_ENOUGH_S
 0001:7F7B       ITERATED_DATA_SEG
 0003:09E4       ITHROW
 0001:1324       IUNLOCKSEGMENT
 0002:04AC       IWINEXEC
 0001:C6B8       IWRITEPRIVATEPROFILESTRING
 0001:C6AB       IWRITEPROFILESTRING
 0001:0EB0       I_LCLOSE
 0001:0E7E       I_LCREAT
 0001:0EC6       I_LLSEEK
 0001:0E7A       I_LOPEN
 0001:0EEC       I_LREAD
 0001:0EE8       I_LWRITE
 0001:5866       KBDRST
 0002:016E       KDATASEG
 0001:CAD0       KDDBGOUT
 0001:9E6C       KERNELERROR
 0004:0356       KERNEL_FLAGS
 0004:035A       KERNEL_INDOS
 0004:035B       KERNEL_ININT24
 0004:02CF       KEYINFO
 0002:0AC2       KILLLIBRARIES
 0001:AAE8       KOUTDEBUGSTR
 0001:9B13       KOUTDSSTR
 0004:05F6       KR1DSC
 0004:05F8       KR2DSC
 0001:C8E7       KSYSERRORBOX
 0001:8ED0       LALIGN
 0001:98EE       LALLOC
 0001:98D9       LALLOCFILL
 0004:02AC       LASTDRIVESWAPPED
 0004:0638       LASTEXTENDEDERROR
 0001:9520       LBESTFIT
 0001:9AD1       LCHECKCC
 0001:9563       LCOMPACT
 0001:8EEB       LDREF
 0001:EB53       LDT_INIT
 0001:0111       LEAVE_GMOVE_STACK
 0002:1163       LEH_CODE
 0002:1198       LEH_CODE_FIXED
 0002:1148       LEH_DATA
 0002:11A2       LEH_PATCHDONE
 0002:1136       LEH_PATCHNEXT
 0002:1264       LEH_SLOW
 0001:8E76       LENTER
 0001:9AAE       LFILLCC
 0001:97FC       LFIRSTFIT
 0001:9A0E       LFREE
 0001:9A4D       LFREEADD
 0001:9A9D       LFREEDELETE
 0001:4578       LHDREF
 0001:8EA9       LHEXPAND
 0001:455F       LHFREE
 0001:5860       LIMITEMSPAGES
 0001:9886       LJOIN
 0001:E97C       LKALLOCSEGS
 0001:E7F6       LKEXEHEADER
 0001:8E90       LLEAVE
 0002:16FC       LMALREADYLOADED
 0002:18D0       LMCHECKHEADER
 0002:2063       LMCHECKHEAP
 0002:1DCB       LMCLEANUP
 0002:1A76       LMIMPORTS
 0002:1C29       LMLETSGO
 0002:181E       LMLOADEXEFILE
 0001:94EC       LMOVE
 0002:1CBC       LMPREVINSTANCE
 0002:198D       LMRAMNMODS
 0002:1B32       LMSEGS
 0002:1F0E       LM_NTLOADMODULE
 0001:8F2A       LNOTIFY
 0001:7A14       LOADAPPLSEGMENT
 0002:0CAC       LOADEXEHEADER
 0001:D7AC       LOADFAIL
 0002:0231       LOADLIBRARY
 0001:C94F       LOADLIBRARYEX32W
 0002:0248       LOADMODULE
 0001:DA27       LOADNEWEXE
 0001:5878       LOADNRTABLE
 0001:01F0       LOADRESOURCE
 0001:7470       LOADSEGFAILED
 0001:7B3E       LOADSEGMENT
 0004:024A       LOADTDB
 0001:06FB       LOCALALLOC
 0001:92D2       LOCALCOMPACT
 0002:2CD2       LOCALCOUNTFREE
 0001:0789       LOCALFLAGS
 0001:0717       LOCALFREE
 0001:92B7       LOCALHANDLE
 0002:2D15       LOCALHANDLEDELTA
 0002:2D0A       LOCALHEAPSIZE
 0002:2B93       LOCALINIT
 0001:072B       LOCALLOCK
 0002:027C       LOCALNOTIFY
 0001:9359       LOCALNOTIFYDEFAULT
 0001:9425       LOCALNOTIFYDIB
 0001:073F       LOCALREALLOC
 0001:9312       LOCALSHRINK
 0001:0761       LOCALSIZE
 0001:0775       LOCALUNLOCK
 0001:0E80       LOCCOMMON
 0001:C9D1       LOCKCURRENTTASK
 0001:0255       LOCKRESOURCE
 0001:04DF       LOCKSEGMENT
 0004:024C       LOCKTDB
 0001:9E0A       LOGERROR
 0001:9E23       LOGPARAMERROR
 0001:B98A       LOGPARAMERROR2
 0001:33FC       LONGPTRADD
 0001:3401       LONGPTRADDWORKER
 0001:33EF       LONGPTRADDWOW
 0001:5B9E       LOOKUPATOM
 0003:01F6       LP0MISCTEXT
 0002:0313       LP0NRESTEXT
 0001:0AA5       LP0TEXT
 0004:2554       LPBOOTAPP
 0003:0229       LPBUF0MISCTEXT
 0002:0346       LPBUF0NRESTEXT
 0001:0AD8       LPBUF0TEXT
 0003:0258       LPBUFEXITMISCTEXT
 0002:0375       LPBUFEXITNRESTEXT
 0001:0B07       LPBUFEXITTEXT
 0003:022F       LPBUFMISCTEXT
 0002:034C       LPBUFNRESTEXT
 0001:0ADE       LPBUFTEXT
 0003:01BE       LPFN0MISCTEXT
 0002:02DB       LPFN0NRESTEXT
 0001:0A6D       LPFN0TEXT
 0003:01C4       LPFNMISCTEXT
 0002:02E1       LPFNNRESTEXT
 0001:0A73       LPFNTEXT
 0004:0340       LPFNTOOLHELPPROC
 0004:0413       LPGPCHAIN
 0004:032C       LPINT21
 0003:01FC       LPMISCTEXT
 0002:0319       LPNRESTEXT
 0004:0F00       LPPROC
 0004:0404       LPSYSTEM16DIR
 0004:03FC       LPSYSTEMDIR
 0004:0030       LPSZFILENAME
 0001:0AAB       LPTEXT
 0004:03F8       LPWINDOWSDIR
 0004:0287       LPWINSFTLINK
 0001:98BF       LREPSETUP
 0001:513D       LRUDELETE
 0001:5105       LRUINSERT
 0001:5082       LRUSWEEP
 0001:9C81       LSHL
 0001:96E0       LSHRINK
 0001:0582       LSTRCAT
 0001:054C       LSTRCPY
 0001:85B1       LSTRCPYN
 0001:05E1       LSTRLEN
 0001:05B8       LSTRORIGINAL
 0001:98C5       LZERO
 0003:00DC       MAKEPROCINSTANCE
 0002:0170       MAPDSTODATA
 0001:2FC2       MARK_SEL_NP
 0001:3004       MARK_SEL_PRESENT
 0004:026B       MAXCODESWAPAREA
 0001:3D86       MEMORYFREED
 0003:0002       MISCMAPDSTODATA
 0003:0000       MKDATASEG
 0004:0685       MODCOUNT
 0004:0683       MOD_COMMDLG
 0004:0675       MOD_DGDI
 0004:066D       MOD_DKERNEL
 0004:0671       MOD_DUSER
 0004:0673       MOD_GDI
 0004:066B       MOD_KERNEL
 0004:0677       MOD_KEYBOARD
 0004:0681       MOD_MMEDIA
 0004:067B       MOD_SHELL
 0004:0679       MOD_SOUND
 0004:067F       MOD_TOOLHELP
 0004:066F       MOD_USER
 0004:067D       MOD_WINSOCK
 0004:08CF       MSGCANNOTREADDEV
 0004:0864       MSGCANNOTREADDRV
 0004:08F0       MSGCANNOTWRITEDEV
 0004:087E       MSGCANNOTWRITEDRV
 0004:08B5       MSGNETERROR
 0004:0910       MSGNETERRORDEV
 0004:0931       MSGNOPRINTER
 0002:0022       MSGREALMODEAPP1
 0002:0049       MSGREALMODEAPP2
 0004:0897       MSGSHARE
 0004:0843       MSGWRITEPROTECT
 0004:28D0       MS_DOS_NAME_STRING
 0001:61DA       MYALLOC
 0001:61D1       MYALLOCLINEAR
 0001:6C4A       MYANSITOOEM
 0004:05E4       MYCSALIAS
 0001:0030       MYCSDS
 0004:05E6       MYCSSEG
 0001:B086       MYDEBUGCALL
 0004:05E8       MYDSSEG
 0001:B082       MYFARDEBUGCALL
 0001:6249       MYFREE
 0001:B58F       MYGETAPPCOMPATFLAGS
 0001:B5A8       MYGETAPPWOWCOMPATFLAGS
 0001:B5C1       MYGETAPPWOWCOMPATFLAGSEX
 0004:0330       MYINT2F
 0001:12A7       MYLOCK
 0001:86E2       MYLOWER
 0001:6C7E       MYOEMTOANSI
 0001:6F5A       MYOPENFILE
 0001:8821       MYRESALLOC
 0001:7A92       MYSETOWNER
 0001:86CB       MYUPPER
 0002:1F8F       MY_LCLOSE
 0001:1A26       NAMETRANS
 0001:9CB8       NEARKERNELERROR
 0001:7326       NESTEDFAULT
 0001:B487       NETBIOSCALL
 0001:D251       NEW_CODE
 0001:A5B2       NEXTFRAME
 0001:2BBB       NOHOOKDOSCALL
 0001:CD41       NOLOADHEADER
 0001:CD18       NOOPENFILE
 0001:25A8       NOT_SUPPORTED
 0002:2016       NRESGETPURENAME
 0004:0266       NUM_TASKS
 0001:0080       OLDINT00PROC
 0001:C9AA       OLDYIELD
 0004:2552       OMSEG
 0004:2550       ONRSEG
 0004:0002       OOLDSP
 0002:129A       OPENAPPLENV
 0001:69B6       OPENCALL
 0001:079D       OPENFILE
 0003:057E       OPENPATHNAME
 0001:9C24       OPENSYMFILE
 0003:0B7C       ORDINALORSTRING
 0004:059D       OUTBUF
 0001:AEF9       OUTPUTDEBUGSTRING
 0001:7461       PAGE_FAULT
 0001:7634       PANIC
 0001:6D6D       PARSEFILE
 0001:685B       PARSEFILENAME
 0001:260B       PASSONTHROUGH
 0002:2551       PASS_ENVIRONMENT
 0001:8010       PATCHCODEHANDLE
 0001:1BDE       PATHDRVDSDX
 0001:1A8A       PATHDSDXCALL
 0001:1A46       PATHDSSICALL
 0004:0008       PATOMTABLE
 0004:1769       PCURDIRNAME
 0004:0308       PDISABLEPROC
 0004:02F4       PDISPLAYCRITSEC
 0004:028B       PDOSWOWDATA
 0001:3244       PDREF
 0004:0304       PEXITPROC
 0004:029B       PFILETABLE
 0001:6E20       PF_GETPATH
 0004:0328       PGETFREESYSTEMRESOURCES
 0004:023A       PGLOBALHEAP
 0004:02B4       PHANTARRAY
 0004:025A       PHTCOUNT
 0004:0318       PISUSERIDLE
 0004:02F0       PKEYBOARDSYSREQ
 0004:02EC       PKEYBOARDTERMPROC
 0004:02E4       PKEYPROC
 0004:02E8       PKEYPROC1
 0004:0006       PLOCALHEAP
 0004:02FC       PMBOXPROC
 0004:02F8       PMOUSETERMPROC
 0001:C990       POSTEVENT
 0004:028F       PPMDOSCDSCNT
 0004:0293       PPMDOSCURDRV
 0004:0297       PPMDOSPDB
 0004:0310       PPOSTMESSAGE
 0001:2E10       PREALLOCSEL
 0002:2A80       PRELOADRESOURCES
 0001:01D6       PRESTOCHANGOSELECTOR
 0001:0050       PREVINT00PROC
 0001:0084       PREVINT01PROC
 0001:0054       PREVINT02PROC
 0001:0088       PREVINT03PROC
 0001:0058       PREVINT04PROC
 0001:005C       PREVINT06PROC
 0001:0060       PREVINT07PROC
 0001:0070       PREVINT0CPROC
 0001:0074       PREVINT0DPROC
 0001:0078       PREVINT0EPROC
 0001:008C       PREVINT10PROC
 0001:003C       PREVINT21PROC
 0001:0040       PREVINT24PROC
 0001:0044       PREVINT2FPROC
 0001:007C       PREVINT31PROC
 0001:0064       PREVINT3EPROC
 0001:0048       PREVINT3FPROC
 0001:004C       PREVINT67PROC
 0001:0068       PREVINT75PROC
 0001:006C       PREVINTX6PROC
 0004:0232       PREV_GMOVE_SP
 0004:0234       PREV_GMOVE_SS
 0004:04B1       PRIVATEPROINFO
 0001:6CC1       PROMPT
 0004:0300       PSERRPROC
 0004:0283       PSFTLINK
 0004:0314       PSIGNALPROC
 0004:000E       PSTACKBOT
 0004:000C       PSTACKMIN
 0004:000A       PSTACKTOP
 0001:0038       PSTRINGFUNC
 0004:02D8       PSYSPROC
 0004:02E0       PSYSTEMTERMPROC
 0004:02DC       PTIMERPROC
 0004:033C       PTRACE_APP_ENTRY
 0004:0338       PTRACE_DLL_ENTRY
 0004:031C       PUSERGETFOCUS
 0004:0320       PUSERGETWINTASK
 0004:030C       PUSERINITDONE
 0004:0324       PUSERISWINDOW
 0001:0034       PYIELDPROC
 0001:572E       RAGROW
 0001:56BD       RASHRINK
 0001:89E4       READRESOURCE
 0001:2771       REAL_DOS
 0003:08D9       REGISTERPTRACE
 0002:0565       REGISTERWINOLDAPHOOK
 0001:6791       REOPENFILE
 0001:B15C       REPLACEINST
 0001:8907       RESALLOC
 0004:063E       RESERVED
 0001:6480       RESIDENTFINDEXEFILE
 0002:0498       RESTOREDIB
 0001:1D21       RESTOREREGS
 0001:6104       SAFECALL
 0001:1D0E       SAVEREGS
 0001:853F       SAVESTATE
 0001:6A2F       SEARCHFULLPATH
 0001:6BC5       SEARCHPATH
 0002:203C       SEARCH_MOD_DEP_LIST
 0001:7D94       SEGLOAD
 0004:05EC       SEGLOADBLOCK
 0001:75E7       SEGLOADERFAILURE
 0001:747F       SEGMENTNOTPRESENTFAULT
 0001:76BB       SEGRELOC
 0001:3759       SEGTOSELECTOR
 0001:3515       SELECTORACCESSRIGHTS
 0004:1093       SELECTORFREEBLOCK
 0001:1984       SELECT_DISK
 0004:0271       SELHIGHHEAP
 0004:026D       SELLOWHEAP
 0004:024E       SELTABLELEN
 0004:0250       SELTABLESTART
 0001:3745       SELTOSEG
 0004:0273       SELWOAPDB
 0004:0275       SEL_ALIAS_ARRAY
 0001:35A0       SETACCESSWORD
 0002:2D40       SETAPPCOMPATFLAGS
 0001:1B42       SETCARRYRET
 0001:C572       SETCURRENTDIRECTORY
 0001:C58D       SETCURRENTDRIVE
 0001:18D3       SETCURSORICONFLAG
 0001:1901       SETDDEHANDLEFLAG
 0003:02BD       SETEMPTYMISCTEXT
 0002:03DA       SETEMPTYNRESTEXT
 0001:0B6C       SETEMPTYTEXT
 0001:1C00       SETERRORDRVDSDX
 0003:0166       SETERRORMODE
 0001:0813       SETHANDLECOUNT
 0001:3683       SETKERNELCSDWORDPROC
 0001:36AC       SETKERNELDSPROC
 0001:36B2       SETKERNELESPROC
 0001:1D31       SETMAXHANDLECOUNT
 0001:36FD       SETOWNER
 0001:C9B7       SETPRIORITY
 0001:3E47       SETRESERVE
 0003:002E       SETRESOURCEHANDLER
 0001:379D       SETRESOURCEOWNER
 0001:349E       SETSELECTORBASE
 0001:34E1       SETSELECTORLIMIT
 0003:0736       SETSIGHANDLER
 0001:3DBD       SETSWAPAREASIZE
 0001:8184       SETTASKQUEUE
 0001:8166       SETTASKSIGNALPROC
 0001:BCE2       SETUPALLOCBREAK
 0001:EB9C       SETUSERPRO
 0001:099F       SETWINDEBUGINFO
 0001:376B       SET_DISCARDED_SEL_OWNER
 0001:1CE2       SET_DTA
 0001:72F8       SET_GO_BP
 0001:2276       SET_PDB
 0001:2F2F       SET_PHYSICAL_ADDRESS
 0002:048D       SET_SEL_FOR_DIB
 0001:2F70       SET_SEL_LIMIT
 0001:1DEB       SET_VECTOR
 0004:0346       SHELL_FILE_PROC
 0004:034A       SHELL_FILE_TDB
 0001:0E26       SHOWDIALOGBOX
 0001:E2AB       SHRINK
 0001:4486       SHRINKHEAP
 0001:7210       SINGLE_STEP
 0001:0269       SIZEOFRESOURCE
 0001:9818       SLIDE_SENTENAL
 0001:D7E6       SLOWBOOT
 0001:4696       SPACE_NOT_FOUND
 0004:0236       SS_SEL
 0001:7434       STACKFAULT
 0001:A604       STACKWALK
 0002:26A5       STARTLIBRARY
 0002:13DA       STARTMODULE
 0002:0A10       STARTPROCADDRESS
 0002:27BE       STARTTASK
 0001:8370       STARTWOWTASK
 0001:7151       STRCPY
 0001:6D11       STRCPYREG
 0001:6A85       SUCCESSCLEANUP
 0003:0182       SWAPRECORDING
 0001:1717       SWITCHSTACKBACK
 0001:07FF       SWITCHSTACKTO
 0001:8479       SWITCHTASK
 0001:EA23       SWITCHTOPMODE
 0004:040A       SYS16SUFFIX
 0004:0836       SYSERR
 0004:07FC       SZABORT
 0004:06F5       SZABORTCAPTION
 0004:072B       SZAT
 0004:0707       SZBLAME
 0004:06A9       SZBOOTLOAD
 0004:0819       SZBOZO
 0004:069B       SZCANNOTFIND1
 0004:06A8       SZCANNOTFIND2
 0004:0A92       SZCODESTRING
 0004:0A56       SZCRLF
 0004:16E9       SZCURDIR
 0004:0943       SZDEBUGSTR
 0004:0A50       SZDIAGSTART
 0004:0690       SZDISKCAP
 0004:06B8       SZDOSVER
 0004:0A81       SZFAILCODE
 0004:0A35       SZFKE
 0001:CD6A       SZGENBOOTFAIL
 0004:074F       SZGP
 0004:0789       SZII
 0001:CCD7       SZINADEQUATE
 0004:0A97       SZINITSPEW
 0004:0716       SZINMODULE
 0004:07D6       SZLOAD
 0004:0A75       SZLOADFAIL
 0004:0A59       SZLOADSTART
 0004:0A66       SZLOADSUCCESS
 0001:CCF6       SZNOGLOBALINIT
 0001:CC60       SZNOPMODE
 0004:07AD       SZNP
 0004:0730       SZNUKEAPP
 0004:07EB       SZOUTOFSELECTORS
 0004:07A0       SZPF
 0002:0000       SZPROTECTCAP
 0004:077B       SZSF
 0004:070D       SZSNOOZER
 0004:054B       SZUSERPRO
 0004:0742       SZWILLCLOSE
 0004:0277       TEMP_SEL
 0001:206B       TERMINATEPDB
 0001:9D6D       TEXTMODE
 0004:0238       THHOOK
 0003:006E       THROW
 0003:0908       TOOLHELPHOOK
 0004:0240       TOPPDB
 0004:0244       TOPSIZEPDB
 0004:0689       TRACEOFF
 0001:D790       TTYWRITE
 0001:B6F1       TYPEMAP
 0001:7694       UNDEFDYNLINK
 0001:64D6       UNLINKOBJECT
 0001:04F3       UNLOCKSEGMENT
 0004:1091       USERSELARRAY
 0002:2DBF       VALIDATECODESEGMENTS
 0001:5052       VALIDATEFREESPACES
 0001:372A       VALIDATEPOINTER
 0003:02CE       VENDMISCTEXT
 0002:03EB       VENDNRESTEXT
 0001:0B7D       VENDTEXT
 0001:C901       VIRTUALALLOC
 0001:C90E       VIRTUALFREE
 0001:C91B       VIRTUALLOCK
 0001:C928       VIRTUALUNLOCK
 0003:019E       VSTARTMISCTEXT
 0002:02BB       VSTARTNRESTEXT
 0001:09F2       VSTARTTEXT
 0001:C99D       WAITEVENT
 0002:1FA4       WARNREALMODE
 0004:176B       WCURDIRLEN
 0004:0650       WCURTASKBP
 0004:064E       WCURTASKSS
 0004:0264       WDEFRIP
 0004:0344       WEXITINGTDB
 0004:17A0       WFAULTSEGNO
 0001:3BAC       WILL_GI_RESERVE_FIT
 0004:0366       WINAPPHOOKS
 0002:0293       WINEXEC
 0004:0354       WINFLAGS
 0004:0417       WININIINFO
 0003:08A2       WINOLDAPCALL
 0004:0254       WINVER
 0004:02A7       WIN_PDB
 0004:2566       WIN_SHOW
 0004:05EE       WMYOPENFILEREENT
 0004:036A       WOANAME
 0001:C02A       WOW16CALL
 0001:C064       WOW16CALLCONTINUE
 0001:C07B       WOW16CALLNEWTASKRET
 0001:C3AE       WOW16CHANGESELECTOR
 0001:C400       WOW16DEBUG
 0001:C0C3       WOW16DEBUGRETURN
 0001:C401       WOW16DONE
 0001:C410       WOW16DONEBOOT
 0001:C0FF       WOW16ENUMFONTPROC
 0001:C2E5       WOW16ENUMMETAFILEPROC
 0001:C108       WOW16ENUMOBJPROC
 0001:C12C       WOW16ENUMPROPSPROC
 0001:C111       WOW16ENUMWINDOWPROC
 0001:C231       WOW16FINDRESOURCE
 0001:C399       WOW16FORCESEGMENTFAULT
 0001:C350       WOW16FORCETASKEXIT
 0001:C390       WOW16FORCETASKFAULT
 0001:C3A2       WOW16FOREGROUNDIDLE
 0001:C3ED       WOW16FREEDIBSEL
 0001:C265       WOW16FREERESOURCE
 0001:C388       WOW16GETCURDIR
 0001:C3CD       WOW16GETDIBFLAGS
 0001:C3C3       WOW16GETDIBSIZE
 0001:C2C3       WOW16GETDOSPDB
 0001:C2D4       WOW16GETDOSSFT
 0001:C345       WOW16GETEXEPTR
 0001:C37E       WOW16GETEXPWINVER
 0001:C359       WOW16GETMODULEFILENAME
 0001:C1B2       WOW16GLOBALALLOCLOCK
 0001:C1D4       WOW16GLOBALLOCK
 0001:C1F5       WOW16GLOBALUNLOCK
 0001:C206       WOW16GLOBALUNLOCKFREE
 0001:C123       WOW16GRAYSTRINGPROC
 0001:C2EE       WOW16HOOKPROC
 0001:C11A       WOW16LINEDDAPROC
 0001:C256       WOW16LOADRESOURCE
 0001:C13E       WOW16LOCALALLOC
 0001:C1A2       WOW16LOCALFREE
 0001:C18A       WOW16LOCALLOCK
 0001:C172       WOW16LOCALREALLOC
 0001:C190       WOW16LOCALSIZE
 0001:C18D       WOW16LOCALUNLOCK
 0001:C276       WOW16LOCKRESOURCE
 0001:C2A5       WOW16LOCKSEGMENT
 0001:C082       WOW16RETURN
 0001:C2F7       WOW16SETABORTPROC
 0001:C31D       WOW16SETCURDIR
 0001:C337       WOW16SETCURSORICONFLAG
 0001:C329       WOW16SETDDEHANDLEFLAG
 0001:C3D7       WOW16SETDIBSEL
 0001:C297       WOW16SIZEOFRESOURCE
 0001:C061       WOW16SLOWVECTOR
 0001:C2FF       WOW16SUBCLASSPROC
 0001:83E5       WOW16TASKSTARTED
 0001:C0CB       WOW16TASKSTARTEDTMP
 0001:C2B2       WOW16UNLOCKSEGMENT
 0001:C36D       WOW16WINEXEC
 0001:C3A9       WOW16WINSOCKBLOCKHOOK
 0001:C0E8       WOW16WNDPROC
 0001:C135       WOW16WORDBREAKPROC
 0001:C0DD       WOW16WOWCALLBACK16
 0001:C0AF       WOW16_FROM_CALLBACK16
 0001:C858       WOWCHECKUSERGDI
 0001:C747       WOWCLOSECOMPORT
 0001:C72D       WOWCURSORICONOP
 0001:C77B       WOWDDEFREEHANDLE
 0001:C8F4       WOWDELFILE
 0001:C817       WOWDEVICEIOCTL
 0001:C84B       WOWDOSWOWINIT
 0004:068E       WOWERRACTION
 0004:068D       WOWERRCLASS
 0004:068F       WOWERRLOCATION
 0001:C73A       WOWFAILEDEXEC
 0001:C45D       WOWFASTBOPINIT
 0004:0668       WOWFASTBOPPING
 0001:C761       WOWFILECLOSE
 0001:C83E       WOWFILECREATE
 0001:C788       WOWFILEGETATTRIBUTES
 0001:C795       WOWFILEGETDATETIME
 0001:C7A2       WOWFILELOCK
 0001:C706       WOWFILELSEEK
 0001:C754       WOWFILEOPEN
 0001:C6EC       WOWFILEREAD
 0001:C824       WOWFILESETATTRIBUTES
 0001:C831       WOWFILESETDATETIME
 0001:C6F9       WOWFILEWRITE
 0001:C7AF       WOWFINDFIRST
 0001:C7BC       WOWFINDNEXT
 0001:C5C8       WOWFIXWIN32CURDIR
 0001:C6DF       WOWFREERESOURCE
 0001:C80A       WOWGETCURRENTDATE
 0001:C7D6       WOWGETCURRENTDIRECTORY
 0001:C8A6       WOWGETFASTADDRESS
 0001:C8B3       WOWGETFASTCBRETADDRESS
 0001:CAC2       WOWGETFLATADDRESSARRAY
 0001:CA05       WOWGETMODULEFILENAME
 0001:C865       WOWGETNEXTVDMCOMMAND
 0001:C8C0       WOWGETTABLEOFFSETS
 0001:C6C5       WOWINITTASK
 0001:C76E       WOWISKNOWNDLL
 0001:C713       WOWKERNELTRACE
 0001:C8CD       WOWKILLREMOTETASK
 0001:C6D2       WOWKILLTASK
 0004:068B       WOWLASTERROR
 0001:C87F       WOWLOADMODULE
 0001:C7FD       WOWMSGBOX
 0001:C4B6       WOWNOTIFYTHHOOK
 0001:C8DA       WOWNOTIFYWOW32
 0001:C720       WOWOUTPUTDEBUGSTRING
 0001:C527       WOWQUERYDEBUG
 0001:C899       WOWQUERYPERFORMANCECOUNTER
 0001:C872       WOWREGISTERSHELLWINDOWHANDLE
 0001:C649       WOWSETCOMPATHANDLE
 0001:C7E3       WOWSETCURRENTDIRECTORY
 0001:C7C9       WOWSETDEFAULTDRIVE
 0001:C5B4       WOWSETEXITONLASTAPP
 0001:C88C       WOWSETIDLEHOOK
 0001:C7F0       WOWWAITFORMSGANDEVENT
 0001:C9DE       WRITEOUTPROFILES
 0001:0961       WRITEPRIVATEPROFILESTRING
 0001:092F       WRITEPROFILESTRING
 0004:244A       WSPRINTF
 0004:244E       WVSPRINTF
 0001:1B75       XENIXRENAME
 0001:19ED       XENIX_STATUS
 0001:1265       XHANDLE
 0001:B131       XHANDLE_NORIP
 0001:C66A       YIELD
 0001:CAB3       _CallProcEx32W
 0001:9DEB       _DebugOutput
 0001:605D       _HREAD
 0001:60B0       _HWRITE
 0001:9B34       _KRDEBUGTEST
 0001:0626       _LCLOSE
 0001:0645       _LCREAT
 0001:0670       _LLSEEK
 0001:05FB       _LOPEN
 0001:069E       _LREAD
 0001:0EEE       _LRW
 0001:06CE       _LWRITE
 0000:0000  Abs  __0000h
 0000:0040  Abs  __0040h
 0000:A000  Abs  __A000h
 0000:25E1  Abs  __ACRTUSED
 0000:0008  Abs  __AHINCR
 0000:0003  Abs  __AHSHIFT
 0000:B000  Abs  __B000h
 0000:B800  Abs  __B800h
 0000:C000  Abs  __C000h
 0000:D000  Abs  __D000h
 0000:E000  Abs  __E000h
 0000:F000  Abs  __F000h
 0001:CB20       __GP
 0000:0000  Abs  __MOD_COMMDLG
 0000:0000  Abs  __MOD_DGDI
 0000:0000  Abs  __MOD_DKERNEL
 0000:0000  Abs  __MOD_DUSER
 0000:0000  Abs  __MOD_GDI
 0000:0000  Abs  __MOD_KERNEL
 0000:0000  Abs  __MOD_KEYBOARD
 0000:0000  Abs  __MOD_MMEDIA
 0000:0000  Abs  __MOD_SHELL
 0000:0000  Abs  __MOD_SOUND
 0000:0000  Abs  __MOD_TOOLHELP
 0000:0000  Abs  __MOD_USER
 0000:0000  Abs  __MOD_WINSOCK
 0000:F000  Abs  __ROMBIOS
 0000:0001  Abs  __WINFLAGS

  Address         Publics by Value

 0000:0000  Abs  __MOD_KEYBOARD
 0000:0000  Abs  __MOD_MMEDIA
 0000:0000  Abs  __MOD_GDI
 0000:0000  Abs  __MOD_SOUND
 0000:0000  Abs  __MOD_DGDI
 0000:0000  Abs  __MOD_DKERNEL
 0000:0000  Abs  __MOD_COMMDLG
 0000:0000  Abs  __0000h
 0000:0000  Abs  __MOD_TOOLHELP
 0000:0000  Abs  __MOD_WINSOCK
 0000:0000  Abs  __MOD_SHELL
 0000:0000  Abs  __MOD_USER
 0000:0000  Abs  __MOD_DUSER
 0000:0000  Abs  __MOD_KERNEL
 0000:0001  Abs  __WINFLAGS
 0000:0003  Abs  __AHSHIFT
 0000:0008  Abs  __AHINCR
 0000:0040  Abs  __0040h
 0000:25E1  Abs  __ACRTUSED
 0000:A000  Abs  __A000h
 0000:B000  Abs  __B000h
 0000:B800  Abs  __B800h
 0000:C000  Abs  __C000h
 0000:D000  Abs  __D000h
 0000:E000  Abs  __E000h
 0000:F000  Abs  __ROMBIOS
 0000:F000  Abs  __F000h
 0001:0030       MYCSDS
 0001:0032       GDTDSC
 0001:0034       PYIELDPROC
 0001:0038       PSTRINGFUNC
 0001:003C       PREVINT21PROC
 0001:0040       PREVINT24PROC
 0001:0044       PREVINT2FPROC
 0001:0048       PREVINT3FPROC
 0001:004C       PREVINT67PROC
 0001:0050       PREVINT00PROC
 0001:0054       PREVINT02PROC
 0001:0058       PREVINT04PROC
 0001:005C       PREVINT06PROC
 0001:0060       PREVINT07PROC
 0001:0064       PREVINT3EPROC
 0001:0068       PREVINT75PROC
 0001:006C       PREVINTX6PROC
 0001:0070       PREVINT0CPROC
 0001:0074       PREVINT0DPROC
 0001:0078       PREVINT0EPROC
 0001:007C       PREVINT31PROC
 0001:0080       OLDINT00PROC
 0001:0084       PREVINT01PROC
 0001:0088       PREVINT03PROC
 0001:008C       PREVINT10PROC
 0001:0090       ENTER_GMOVE_STACK
 0001:0111       LEAVE_GMOVE_STACK
 0001:019A       ALLOCCSTODSALIAS
 0001:01AE       ALLOCDSTOCSALIAS
 0001:01C2       FREESELECTOR
 0001:01D6       PRESTOCHANGOSELECTOR
 0001:01F0       LOADRESOURCE
 0001:020A       ACCESSRESOURCE
 0001:0227       ALLOCRESOURCE
 0001:0241       FREERESOURCE
 0001:0255       LOCKRESOURCE
 0001:0269       SIZEOFRESOURCE
 0001:0283       ADDATOM
 0001:029A       DELETEATOM
 0001:02AE       FINDATOM
 0001:02C5       GETATOMNAME
 0001:02F5       GETATOMHANDLE
 0001:0309       FATALAPPEXIT
 0001:0323       GLOBALALLOC
 0001:0356       GLOBALFREE
 0001:0373       GLOBALHANDLE
 0001:0387       GLOBALLOCK
 0001:039B       GLOBALREALLOC
 0001:03E3       GLOBALSIZE
 0001:03F7       GLOBALUNLOCK
 0001:0414       GLOBALFLAGS
 0001:0428       GLOBALWIRE
 0001:043C       GLOBALUNWIRE
 0001:0450       GLOBALLRUNEWEST
 0001:0464       GLOBALLRUOLDEST
 0001:0478       GLOBALNOTIFY
 0001:048F       GLOBALPAGELOCK
 0001:04A3       GLOBALPAGEUNLOCK
 0001:04B7       GLOBALFIX
 0001:04CB       GLOBALUNFIX
 0001:04DF       LOCKSEGMENT
 0001:04F3       UNLOCKSEGMENT
 0001:0507       GETCODEINFO
 0001:0530       GETFREESPACE
 0001:054C       LSTRCPY
 0001:0582       LSTRCAT
 0001:05B8       LSTRORIGINAL
 0001:05E1       LSTRLEN
 0001:05FB       _LOPEN
 0001:0626       _LCLOSE
 0001:0645       _LCREAT
 0001:0670       _LLSEEK
 0001:069E       _LREAD
 0001:06CE       _LWRITE
 0001:06FB       LOCALALLOC
 0001:0717       LOCALFREE
 0001:072B       LOCALLOCK
 0001:073F       LOCALREALLOC
 0001:0761       LOCALSIZE
 0001:0775       LOCALUNLOCK
 0001:0789       LOCALFLAGS
 0001:079D       OPENFILE
 0001:07FF       SWITCHSTACKTO
 0001:0813       SETHANDLECOUNT
 0001:082F       GETPROFILEINT
 0001:0855       GETPROFILESTRING
 0001:08A3       GETPRIVATEPROFILEINT
 0001:08D5       GETPRIVATEPROFILESTRING
 0001:092F       WRITEPROFILESTRING
 0001:0961       WRITEPRIVATEPROFILESTRING
 0001:099F       SETWINDEBUGINFO
 0001:09CA       GETWINDEBUGINFO
 0001:09F2       VSTARTTEXT
 0001:09F2       HLOCAL0TEXT
 0001:09F6       HLOCALTEXT
 0001:0A43       HTEXT
 0001:0A4D       GHANDLE0TEXT
 0001:0A51       GHANDLETEXT
 0001:0A6D       LPFN0TEXT
 0001:0A73       LPFNTEXT
 0001:0A9D       INVAL_PARAM_TEXT
 0001:0AA5       LP0TEXT
 0001:0AAB       LPTEXT
 0001:0ABB       CLP0TEXT
 0001:0AC1       CLPTEXT
 0001:0ACF       CLPEXITTEXT
 0001:0AD8       LPBUF0TEXT
 0001:0ADE       LPBUFTEXT
 0001:0B07       LPBUFEXITTEXT
 0001:0B31       CLPSTRATOM0TEXT
 0001:0B33       CLPSTRATOMTEXT
 0001:0B3F       CLPSZ0TEXT
 0001:0B45       CLPSZTEXT
 0001:0B66       ERRORSTRPTRTEXT
 0001:0B6C       SETEMPTYTEXT
 0001:0B7D       VENDTEXT
 0001:0B7E       FARENTPROCADDRESS
 0001:0B94       APPLOADERENTPROCADDRESS
 0001:0BA9       FARFINDORDINAL
 0001:0BC1       FARLOADSEGMENT
 0001:0BD9       FARALLOCSEG
 0001:0BEB       FARDELETETASK
 0001:0BF8       FARUNLINKOBJECT
 0001:0BFC       FARMYLOWER
 0001:0C00       FARMYUPPER
 0001:0C04       FARMYALLOC
 0001:0C19       FARMYALLOCLINEAR
 0001:0C2E       FARMYLOCK
 0001:0C3D       FARMYFREE
 0001:0C4C       FAR_GENTER
 0001:0C50       FAR_LALIGN
 0001:0C54       FAR_LREPSETUP
 0001:0C58       FAR_LFILLCC
 0001:0C5C       INT24HANDLER
 0001:0E26       SHOWDIALOGBOX
 0001:0E71       GETLPERRMODE
 0001:0E7A       I_LOPEN
 0001:0E7E       I_LCREAT
 0001:0E80       LOCCOMMON
 0001:0EB0       I_LCLOSE
 0001:0EC6       I_LLSEEK
 0001:0EE8       I_LWRITE
 0001:0EEC       I_LREAD
 0001:0EEE       _LRW
 0001:0F75       GBTOP
 0001:1011       GETDEFOWNER
 0001:1030       IGLOBALALLOC
 0001:108D       IGLOBALREALLOC
 0001:10F9       DISCARDTHEWORLD
 0001:1112       ISKERNELCALLING
 0001:1126       IGLOBALFREE
 0001:11FD       GLOBALFREEALL
 0001:1265       XHANDLE
 0001:1291       GLOBALHANDLENORIP
 0001:1297       IGLOBALHANDLE
 0001:12A7       MYLOCK
 0001:12F2       ILOCKSEGMENT
 0001:130C       IGLOBALFIX
 0001:1324       IUNLOCKSEGMENT
 0001:133D       IGLOBALUNFIX
 0001:1351       IGLOBALSIZE
 0001:1385       IGLOBALFLAGS
 0001:13A2       IGLOBALLOCK
 0001:1405       IGLOBALUNLOCK
 0001:1491       IGLOBALWIRE
 0001:1530       IGLOBALUNWIRE
 0001:1571       GLOBALCOMPACT
 0001:1608       IGLOBALNOTIFY
 0001:1627       GLOBALMASTERHANDLE
 0001:1636       GETTASKDS
 0001:1647       IGLOBALLRUOLDEST
 0001:1652       IGLOBALLRUNEWEST
 0001:165D       ISWITCHSTACKTO
 0001:1717       SWITCHSTACKBACK
 0001:179D       GETFREEMEMINFO
 0001:17A3       IGETFREESPACE
 0001:1830       GLOBALDOSALLOC
 0001:1869       GLOBALDOSFREE
 0001:186E       GLOBALHUGE
 0001:1871       DPMIFREESPACE
 0001:18D3       SETCURSORICONFLAG
 0001:1901       SETDDEHANDLEFLAG
 0001:1930       INT00HANDLER
 0001:1952       INT02HANDLER
 0001:1958       INT04HANDLER
 0001:195E       INT06HANDLER
 0001:1964       INT07HANDLER
 0001:196A       INT3EHANDLER
 0001:1970       INT75HANDLER
 0001:1976       INT10HANDLER
 0001:1984       SELECT_DISK
 0001:19C6       CHANGE_DIR
 0001:19EA       FILEHANDLECALL
 0001:19ED       XENIX_STATUS
 0001:19FE       ASSIGNCALL
 0001:1A26       NAMETRANS
 0001:1A46       PATHDSSICALL
 0001:1A8A       PATHDSDXCALL
 0001:1B02       DLDRIVECALL1
 0001:1B0C       DLDRIVECALL2
 0001:1B16       FCBCALL
 0001:1B42       SETCARRYRET
 0001:1B75       XENIXRENAME
 0001:1BDE       PATHDRVDSDX
 0001:1C00       SETERRORDRVDSDX
 0001:1C37       DEALWITHCACHEDMODULE
 0001:1CE2       SET_DTA
 0001:1D0E       SAVEREGS
 0001:1D21       RESTOREREGS
 0001:1D31       SETMAXHANDLECOUNT
 0001:1DEB       SET_VECTOR
 0001:1EE3       GET_VECTOR
 0001:1F94       ISITINTERCEPTED
 0001:1FC4       EXECCALL
 0001:206B       TERMINATEPDB
 0001:2099       DOSEXITRETURN
 0001:20B1       EXITCALL
 0001:2250       FREETDB
 0001:2276       SET_PDB
 0001:2322       GET_PDB
 0001:23C2       DOSTRAP1
 0001:251E       INT21ENTRY
 0001:251E       INT21HANDLER
 0001:25A8       NOT_SUPPORTED
 0001:260B       PASSONTHROUGH
 0001:2617       FINAL_CALL_FOR_DOS
 0001:276D       FAR_REAL_DOS
 0001:2771       REAL_DOS
 0001:2BBB       NOHOOKDOSCALL
 0001:2BC1       DOS3CALL
 0001:2BC8       ALLOCSELECTORWOW
 0001:2BD9       ALLOCSELECTOR
 0001:2BEA       IALLOCCSTODSALIAS
 0001:2BEA       ALLOCALIAS
 0001:2C00       IALLOCDSTOCSALIAS
 0001:2C3D       INNER_ALLOC_SELECTOR
 0001:2C9F       ALLOCSELECTORARRAY
 0001:2CCC       GET_SEL
 0001:2D3A       IFREESELECTOR
 0001:2D59       FREE_SEL
 0001:2D72       FREESELARRAY
 0001:2D92       GROWSELARRAY
 0001:2E10       PREALLOCSEL
 0001:2E26       FAR_ALLOC_DATA_SEL
 0001:2E3B       ALLOC_DATA_SEL
 0001:2E3E       ALLOC_SEL
 0001:2EBA       FILL_IN_SELECTOR_ARRAY
 0001:2EF9       GETSELECTORBASE
 0001:2F08       GET_PHYSICAL_ADDRESS
 0001:2F2F       SET_PHYSICAL_ADDRESS
 0001:2F61       GET_SELECTOR_LENGTH16
 0001:2F70       SET_SEL_LIMIT
 0001:2FC2       MARK_SEL_NP
 0001:3004       MARK_SEL_PRESENT
 0001:30D9       ALLOC_DATA_SEL_BELOW
 0001:310C       ALLOC_DATA_SEL_ABOVE
 0001:313F       CMP_SEL_ADDRESS
 0001:3164       FAR_GET_ARENA_POINTER
 0001:3173       GET_ARENA_POINTER
 0001:31CA       FARASSOCIATESELECTOR
 0001:31DC       ASSOCIATESELECTOR
 0001:3220       GET_SELECTOR_ASSOCIATION
 0001:3244       PDREF
 0001:32EB       GET_ROVER_2
 0001:3325       GET_BLOTTO
 0001:336F       FAR_GET_TEMP_SEL
 0001:3373       GET_TEMP_SEL
 0001:33B2       FAR_FREE_TEMP_SEL
 0001:33C1       IPRESTOCHANGOSELECTOR
 0001:33EF       LONGPTRADDWOW
 0001:33FC       LONGPTRADD
 0001:3401       LONGPTRADDWORKER
 0001:349E       SETSELECTORBASE
 0001:34BE       GETSELECTORLIMIT
 0001:34E1       SETSELECTORLIMIT
 0001:3515       SELECTORACCESSRIGHTS
 0001:3557       GETACCESSWORD
 0001:35A0       SETACCESSWORD
 0001:35D0       GETSELECTORCOUNT
 0001:361C       IGLOBALPAGELOCK
 0001:3650       IGLOBALPAGEUNLOCK
 0001:3683       SETKERNELCSDWORDPROC
 0001:36A7       GETKERNELDATASEG
 0001:36AC       SETKERNELDSPROC
 0001:36B2       SETKERNELESPROC
 0001:36B8       CHECKKERNELDSPROC
 0001:36C1       FARGETOWNER
 0001:36D2       GETOWNER
 0001:36EB       FARSETOWNER
 0001:36FD       SETOWNER
 0001:3718       FARVALIDATEPOINTER
 0001:372A       VALIDATEPOINTER
 0001:3745       SELTOSEG
 0001:3759       SEGTOSELECTOR
 0001:376B       SET_DISCARDED_SEL_OWNER
 0001:379D       SETRESOURCEOWNER
 0001:37ED       DPMIPROC
 0001:3851       ALLOC_SPECIAL_SEL
 0001:3A12       ALLOCSELECTOR_0X47
 0001:3A54       GENTER
 0001:3A63       GLEAVE
 0001:3A7D       GAVAIL
 0001:3B43       GRESERVE
 0001:3BAC       WILL_GI_RESERVE_FIT
 0001:3C82       GNOTIFY
 0001:3D86       MEMORYFREED
 0001:3DBD       SETSWAPAREASIZE
 0001:3E47       SETRESERVE
 0001:3E76       GCOMPACT
 0001:3F3B       GCMPHEAP
 0001:400A       GSLIDE
 0001:402C       GSLIDECOMMON
 0001:417F       GMOVE
 0001:429B       GBESTFIT
 0001:42D1       GMOVEBUSY
 0001:438D       GMOVEABLE
 0001:43BA       GDISCARD
 0001:445E       DISCARDCODESEGMENT
 0001:4486       SHRINKHEAP
 0001:4530       HALLOC
 0001:455F       LHFREE
 0001:4578       LHDREF
 0001:458B       HENUM
 0001:45C2       GSEARCH
 0001:4603       ALLOC_HIGH
 0001:461A       ALLOC_LOW
 0001:4628       ALLOC_FIXED
 0001:4696       SPACE_NOT_FOUND
 0001:46B5       DO_COMPACT
 0001:46CE       GROW_HEAP
 0001:46E2       GSEARCH_FAIL
 0001:47B3       IS_THERE_THEORETICALLY_ENOUGH_S
 0001:4821       CAN_WE_CLEAR_THIS_SPACE
 0001:483D       CAN_WE_MOVE_IT
 0001:48A5       IS_THERE_HOPE
 0001:498A       GFINDFREE
 0001:49A3       GCHECKFREE
 0001:4A04       GSPLICE
 0001:4A83       GJOIN
 0001:4ABA       GZERO
 0001:4B30       GMARKFREE
 0001:4B7F       GADD_FREE
 0001:4BBA       GDEL_FREE
 0001:4BD6       GROWHEAP
 0001:4BFD       FORMATHEAPBLOCK
 0001:4CFC       ADDBLOCKTOHEAP
 0001:4E08       ALLOCDPMIBLOCK
 0001:4EAC       CCCC
 0001:4F0B       INIT_FREE_TO_CCCC
 0001:4F4E       CHECK_THIS_SPACE
 0001:4FBE       CHECK_FREE_LIST
 0001:5052       VALIDATEFREESPACES
 0001:5082       LRUSWEEP
 0001:5105       LRUINSERT
 0001:513D       LRUDELETE
 0001:5183       GLRUSETUP
 0001:519B       GLRUTOP
 0001:51B2       GLRUBOT
 0001:51C9       GLRUADD
 0001:51DD       GLRUDEL
 0001:51EF       CHECK_LRU_LIST
 0001:5272       GALIGN
 0001:5292       GALLOC
 0001:539B       GREALLOC
 0001:56BD       RASHRINK
 0001:572E       RAGROW
 0001:578A       GFREE
 0001:57A4       FREE_OBJECT
 0001:57C7       GFREEALL
 0001:5827       GLOCK
 0001:5831       GUNLOCK
 0001:584C       HTHREAD
 0001:5860       LIMITEMSPAGES
 0001:5866       KBDRST
 0001:5867       GETCURPID
 0001:5878       LOADNRTABLE
 0001:5A48       GETSTRINGPTR
 0001:5A5F       FREENRTABLE
 0001:5A98       GETSEGPTR
 0001:5B17       IGETCODEINFO
 0001:5B54       GETCODEHANDLE
 0001:5B81       CALLPROCINSTANCE
 0001:5B8E       CALLMOVEABLEINSTANCEPROC
 0001:5B96       DELATOM
 0001:5B99       IADDATOM
 0001:5B9C       IFINDATOM
 0001:5B9E       LOOKUPATOM
 0001:5CDA       IDELETEATOM
 0001:5CFD       IGETATOMHANDLE
 0001:5D13       IGETATOMNAME
 0001:5DC6       ISBADREADPTR
 0001:5DE7       ISBADWRITEPTR
 0001:5E09       ISBADHUGEREADPTR
 0001:5E49       ISBADHUGEWRITEPTR
 0001:5E8C       ISBADCODEPTR
 0001:5EB2       ISBADSTRINGPTR
 0001:5ED6       HASGPHANDLER
 0001:5F9F       ISSHAREDSELECTOR
 0001:5FC2       HMEMCPY
 0001:605D       _HREAD
 0001:60B0       _HWRITE
 0001:6104       SAFECALL
 0001:6110       GETEXEPTR
 0001:61A9       GETEXPWINVER
 0001:61D1       MYALLOCLINEAR
 0001:61DA       MYALLOC
 0001:6249       MYFREE
 0001:62A4       ENTPROCADDRESS
 0001:6373       FINDORDINAL
 0001:6480       RESIDENTFINDEXEFILE
 0001:64D6       UNLINKOBJECT
 0001:6500       FARGETCACHEDFILEHANDLE
 0001:6515       GETCACHEDFILEHANDLE
 0001:65D3       CLOSECACHEDFILEHANDLE
 0001:65E0       FLUSHCACHEDFILEHANDLE
 0001:6630       CLOSECACHEDFILES
 0001:6674       IOPENFILE
 0001:6791       REOPENFILE
 0001:685B       PARSEFILENAME
 0001:6899       GETPOINTER
 0001:692A       GETPATH
 0001:69B6       OPENCALL
 0001:6A2F       SEARCHFULLPATH
 0001:6A85       SUCCESSCLEANUP
 0001:6B4B       ERRORRETURN
 0001:6BC5       SEARCHPATH
 0001:6C4A       MYANSITOOEM
 0001:6C7E       MYOEMTOANSI
 0001:6CB2       ISFLOPPY
 0001:6CC1       PROMPT
 0001:6D11       STRCPYREG
 0001:6D1A       APPENDFIRST
 0001:6D47       GETPURENAME
 0001:6D6D       PARSEFILE
 0001:6E20       PF_GETPATH
 0001:6F4C       GETLASTDISKCHANGE
 0001:6F5A       MYOPENFILE
 0001:6FC6       DISPLAY_BOX_OF_DOOM
 0001:7037       IFATALAPPEXIT
 0001:7064       FORMATFAULTSTRING
 0001:7151       STRCPY
 0001:7176       FAULTFILTER
 0001:7210       SINGLE_STEP
 0001:7270       BREAKPOINT
 0001:72B4       DIVIDE_OVERFLOW
 0001:72F8       SET_GO_BP
 0001:7304       EXITFAULT
 0001:7317       BUNNY_351
 0001:7326       NESTEDFAULT
 0001:7339       HANDLEFAULT
 0001:7416       EXCEPTIONHANDLERPROC
 0001:7434       STACKFAULT
 0001:7443       GPFAULT
 0001:7452       INVALID_OP_CODE_EXCEPTION
 0001:7461       PAGE_FAULT
 0001:7470       LOADSEGFAILED
 0001:747F       SEGMENTNOTPRESENTFAULT
 0001:75E7       SEGLOADERFAILURE
 0001:7633       DEFAULT_SIG_HANDLER
 0001:7634       PANIC
 0001:7642       DOSIGNAL
 0001:7694       UNDEFDYNLINK
 0001:76BB       SEGRELOC
 0001:7A14       LOADAPPLSEGMENT
 0001:7A92       MYSETOWNER
 0001:7AC2       ALLOCSEG
 0001:7B3E       LOADSEGMENT
 0001:7D94       SEGLOAD
 0001:7F7B       ITERATED_DATA_SEG
 0001:8010       PATCHCODEHANDLE
 0001:813E       GETTASKQUEUE
 0001:8148       GETTASKQUEUEDS
 0001:8156       GETTASKQUEUEES
 0001:8166       SETTASKSIGNALPROC
 0001:8184       SETTASKQUEUE
 0001:8191       ISWINOLDAPTASK
 0001:8196       ISTASK
 0001:81C6       CVW_HACK
 0001:8268       FILECDR_NOTIFY
 0001:8352       INITTASK1
 0001:836C       ISTASKLOCKED
 0001:8370       STARTWOWTASK
 0001:83E5       WOW16TASKSTARTED
 0001:8435       EXITKERNEL
 0001:843C       BOOTSCHEDULE
 0001:8453       EXITSCHEDULE
 0001:8479       SWITCHTASK
 0001:853F       SAVESTATE
 0001:8588       ILSTRLEN
 0001:85B1       LSTRCPYN
 0001:860C       ILSTRCPY
 0001:861C       ILSTRCAT
 0001:866F       ILSTRORIGINAL
 0001:86A5       ANSIUPPER
 0001:86A8       ANSILOWER
 0001:86AB       ANSIPREV
 0001:86AE       ANSINEXT
 0001:86CB       MYUPPER
 0001:86E2       MYLOWER
 0001:8707       ISDBCSLEADBYTE
 0001:870E       GETCURRENTTASK
 0001:871F       INSERTTASK
 0001:8770       DELETETASK
 0001:8783       FARCREATETASK
 0001:8799       CHECKGALLOCBREAK
 0001:8799       CHECKLALLOCBREAK
 0001:87E1       GETTASKMODNAMEPTR
 0001:87EE       DIRECTRESALLOC
 0001:8821       MYRESALLOC
 0001:8854       IALLOCRESOURCE
 0001:8907       RESALLOC
 0001:89A6       COPYRESOURCE
 0001:89E4       READRESOURCE
 0001:8A2F       IACCESSRESOURCE
 0001:8A44       INTERNALACCESSRESOURCE
 0001:8AC5       ILOCKRESOURCE
 0001:8C38       IFREERESOURCE
 0001:8CDA       ISIZEOFRESOURCE
 0001:8D04       DEFAULTRESOURCEHANDLER
 0001:8D68       ILOADRESOURCE
 0001:8E76       LENTER
 0001:8E90       LLEAVE
 0001:8EA9       LHEXPAND
 0001:8ED0       LALIGN
 0001:8EEB       LDREF
 0001:8F2A       LNOTIFY
 0001:8F3B       ILOCALALLOC
 0001:8FF0       ILOCALREALLOC
 0001:9191       ILOCALFREE
 0001:91FA       ILOCALSIZE
 0001:9211       ILOCALFLAGS
 0001:922A       ILOCALLOCK
 0001:9278       ILOCALUNLOCK
 0001:92B7       LOCALHANDLE
 0001:92D2       LOCALCOMPACT
 0001:9312       LOCALSHRINK
 0001:9359       LOCALNOTIFYDEFAULT
 0001:9425       LOCALNOTIFYDIB
 0001:94EC       LMOVE
 0001:9520       LBESTFIT
 0001:9563       LCOMPACT
 0001:96E0       LSHRINK
 0001:97B0       FOO
 0001:97FC       LFIRSTFIT
 0001:9818       SLIDE_SENTENAL
 0001:9886       LJOIN
 0001:98BF       LREPSETUP
 0001:98C5       LZERO
 0001:98D9       LALLOCFILL
 0001:98EE       LALLOC
 0001:9A0E       LFREE
 0001:9A4D       LFREEADD
 0001:9A9D       LFREEDELETE
 0001:9AAE       LFILLCC
 0001:9AD1       LCHECKCC
 0001:9AFA       FATALEXIT
 0001:9B13       KOUTDSSTR
 0001:9B34       _KRDEBUGTEST
 0001:9BEC       GETSYMFILENAME
 0001:9C24       OPENSYMFILE
 0001:9C4A       GETDEBUGSTRING
 0001:9C76       GETEXEHEAD
 0001:9C81       LSHL
 0001:9C8E       FARKERNELERROR
 0001:9CB8       NEARKERNELERROR
 0001:9CE2       ISCODESELECTOR
 0001:9D18       DEBUGBREAK
 0001:9D6D       TEXTMODE
 0001:9D87       DOABORT
 0001:9D98       HANDLEPARAMERROR
 0001:9DC2       DEBUGFILLBUFFER
 0001:9DEB       _DebugOutput
 0001:9E0A       LOGERROR
 0001:9E23       LOGPARAMERROR
 0001:9E6C       KERNELERROR
 0001:A07A       FINDSEGSYMS
 0001:A3B0       FINDSYMBOL
 0001:A4F2       GETPROCNAME
 0001:A5B2       NEXTFRAME
 0001:A604       STACKWALK
 0001:A6EA       HTOA
 0001:A73A       HTOA0
 0001:A7A2       CHECKGLOBALHEAP
 0001:A8B8       CHECKLOCALHEAP
 0001:AA34       GETOWNERNAME
 0001:AAE8       KOUTDEBUGSTR
 0001:AC63       CVWBREAK
 0001:ACB4       DEBUGDEFINESEGMENT
 0001:AD8F       DEBUGMOVEDSEGMENT
 0001:AD96       DEBUGFREESEGMENT
 0001:ADF3       DEBUGWRITE
 0001:AEF9       OUTPUTDEBUGSTRING
 0001:AF11       DEBUGREAD
 0001:AF4D       DEBUGSWITCHOUT
 0001:AF64       DEBUGSWITCHIN
 0001:AF7B       DEBUGEXITCALL
 0001:AFD6       FARDEBUGDELMODULE
 0001:B068       DEBUGLOGERROR
 0001:B072       DEBUGLOGPARAMERROR
 0001:B082       MYFARDEBUGCALL
 0001:B086       MYDEBUGCALL
 0001:B131       XHANDLE_NORIP
 0001:B15C       REPLACEINST
 0001:B160       INTERNALENABLEDOS
 0001:B253       INTERNALDISABLEDOS
 0001:B345       ENABLEDOS
 0001:B351       DISABLEDOS
 0001:B35D       ENABLEKERNEL
 0001:B369       DISABLEKERNEL
 0001:B47A       A20PROC
 0001:B487       NETBIOSCALL
 0001:B48C       ISETHANDLECOUNT
 0001:B52D       GETSETKERNELDOSPROC
 0001:B54D       FATALEXITHOOK
 0001:B569       GETAPPCOMPATFLAGS
 0001:B58F       MYGETAPPCOMPATFLAGS
 0001:B5A8       MYGETAPPWOWCOMPATFLAGS
 0001:B5C1       MYGETAPPWOWCOMPATFLAGSEX
 0001:B5DA       HANDLEABORTPROC
 0001:B614       @LoadWsprintf
 0001:B6F1       TYPEMAP
 0001:B7EC       DEBUGOUTPUT2
 0001:B98A       LOGPARAMERROR2
 0001:BBB8       IGETWINDEBUGINFO
 0001:BC4E       ISETWINDEBUGINFO
 0001:BCE2       SETUPALLOCBREAK
 0001:BD7C       DIAGQUERY
 0001:BD8B       DIAGOUTPUT
 0001:BE07       DIAGINIT
 0001:C02A       WOW16CALL
 0001:C061       WOW16SLOWVECTOR
 0001:C064       WOW16CALLCONTINUE
 0001:C07B       WOW16CALLNEWTASKRET
 0001:C082       WOW16RETURN
 0001:C0AF       WOW16_FROM_CALLBACK16
 0001:C0C3       WOW16DEBUGRETURN
 0001:C0CB       WOW16TASKSTARTEDTMP
 0001:C0DD       WOW16WOWCALLBACK16
 0001:C0E8       WOW16WNDPROC
 0001:C0FF       WOW16ENUMFONTPROC
 0001:C108       WOW16ENUMOBJPROC
 0001:C111       WOW16ENUMWINDOWPROC
 0001:C11A       WOW16LINEDDAPROC
 0001:C123       WOW16GRAYSTRINGPROC
 0001:C12C       WOW16ENUMPROPSPROC
 0001:C135       WOW16WORDBREAKPROC
 0001:C13E       WOW16LOCALALLOC
 0001:C172       WOW16LOCALREALLOC
 0001:C18A       WOW16LOCALLOCK
 0001:C18D       WOW16LOCALUNLOCK
 0001:C190       WOW16LOCALSIZE
 0001:C1A2       WOW16LOCALFREE
 0001:C1B2       WOW16GLOBALALLOCLOCK
 0001:C1D4       WOW16GLOBALLOCK
 0001:C1F5       WOW16GLOBALUNLOCK
 0001:C206       WOW16GLOBALUNLOCKFREE
 0001:C231       WOW16FINDRESOURCE
 0001:C256       WOW16LOADRESOURCE
 0001:C265       WOW16FREERESOURCE
 0001:C276       WOW16LOCKRESOURCE
 0001:C297       WOW16SIZEOFRESOURCE
 0001:C2A5       WOW16LOCKSEGMENT
 0001:C2B2       WOW16UNLOCKSEGMENT
 0001:C2C3       WOW16GETDOSPDB
 0001:C2D4       WOW16GETDOSSFT
 0001:C2E5       WOW16ENUMMETAFILEPROC
 0001:C2EE       WOW16HOOKPROC
 0001:C2F7       WOW16SETABORTPROC
 0001:C2FF       WOW16SUBCLASSPROC
 0001:C31D       WOW16SETCURDIR
 0001:C329       WOW16SETDDEHANDLEFLAG
 0001:C337       WOW16SETCURSORICONFLAG
 0001:C345       WOW16GETEXEPTR
 0001:C350       WOW16FORCETASKEXIT
 0001:C359       WOW16GETMODULEFILENAME
 0001:C36D       WOW16WINEXEC
 0001:C37E       WOW16GETEXPWINVER
 0001:C388       WOW16GETCURDIR
 0001:C390       WOW16FORCETASKFAULT
 0001:C399       WOW16FORCESEGMENTFAULT
 0001:C3A2       WOW16FOREGROUNDIDLE
 0001:C3A9       WOW16WINSOCKBLOCKHOOK
 0001:C3AE       WOW16CHANGESELECTOR
 0001:C3C3       WOW16GETDIBSIZE
 0001:C3CD       WOW16GETDIBFLAGS
 0001:C3D7       WOW16SETDIBSEL
 0001:C3ED       WOW16FREEDIBSEL
 0001:C400       WOW16DEBUG
 0001:C401       WOW16DONE
 0001:C410       WOW16DONEBOOT
 0001:C45D       WOWFASTBOPINIT
 0001:C4B6       WOWNOTIFYTHHOOK
 0001:C527       WOWQUERYDEBUG
 0001:C534       GETCURRENTDIRECTORY
 0001:C572       SETCURRENTDIRECTORY
 0001:C58D       SETCURRENTDRIVE
 0001:C5B4       WOWSETEXITONLASTAPP
 0001:C5C8       WOWFIXWIN32CURDIR
 0001:C606       HACKCHECK
 0001:C649       WOWSETCOMPATHANDLE
 0001:C66A       YIELD
 0001:C677       IGETPROFILESTRING
 0001:C684       IGETPROFILEINT
 0001:C691       IGETPRIVATEPROFILESTRING
 0001:C69E       IGETPRIVATEPROFILEINT
 0001:C6AB       IWRITEPROFILESTRING
 0001:C6B8       IWRITEPRIVATEPROFILESTRING
 0001:C6C5       WOWINITTASK
 0001:C6D2       WOWKILLTASK
 0001:C6DF       WOWFREERESOURCE
 0001:C6EC       WOWFILEREAD
 0001:C6F9       WOWFILEWRITE
 0001:C706       WOWFILELSEEK
 0001:C713       WOWKERNELTRACE
 0001:C720       WOWOUTPUTDEBUGSTRING
 0001:C72D       WOWCURSORICONOP
 0001:C73A       WOWFAILEDEXEC
 0001:C747       WOWCLOSECOMPORT
 0001:C754       WOWFILEOPEN
 0001:C761       WOWFILECLOSE
 0001:C76E       WOWISKNOWNDLL
 0001:C77B       WOWDDEFREEHANDLE
 0001:C788       WOWFILEGETATTRIBUTES
 0001:C795       WOWFILEGETDATETIME
 0001:C7A2       WOWFILELOCK
 0001:C7AF       WOWFINDFIRST
 0001:C7BC       WOWFINDNEXT
 0001:C7C9       WOWSETDEFAULTDRIVE
 0001:C7D6       WOWGETCURRENTDIRECTORY
 0001:C7E3       WOWSETCURRENTDIRECTORY
 0001:C7F0       WOWWAITFORMSGANDEVENT
 0001:C7FD       WOWMSGBOX
 0001:C80A       WOWGETCURRENTDATE
 0001:C817       WOWDEVICEIOCTL
 0001:C824       WOWFILESETATTRIBUTES
 0001:C831       WOWFILESETDATETIME
 0001:C83E       WOWFILECREATE
 0001:C84B       WOWDOSWOWINIT
 0001:C858       WOWCHECKUSERGDI
 0001:C865       WOWGETNEXTVDMCOMMAND
 0001:C872       WOWREGISTERSHELLWINDOWHANDLE
 0001:C87F       WOWLOADMODULE
 0001:C88C       WOWSETIDLEHOOK
 0001:C899       WOWQUERYPERFORMANCECOUNTER
 0001:C8A6       WOWGETFASTADDRESS
 0001:C8B3       WOWGETFASTCBRETADDRESS
 0001:C8C0       WOWGETTABLEOFFSETS
 0001:C8CD       WOWKILLREMOTETASK
 0001:C8DA       WOWNOTIFYWOW32
 0001:C8E7       KSYSERRORBOX
 0001:C8F4       WOWDELFILE
 0001:C901       VIRTUALALLOC
 0001:C90E       VIRTUALFREE
 0001:C91B       VIRTUALLOCK
 0001:C928       VIRTUALUNLOCK
 0001:C935       GLOBALMEMORYSTATUS
 0001:C942       GETDRIVETYPE
 0001:C94F       LOADLIBRARYEX32W
 0001:C95C       FREELIBRARY32W
 0001:C969       GETPROCADDRESS32W
 0001:C976       GETVDMPOINTER32W
 0001:C983       ICALLPROC32W
 0001:C990       POSTEVENT
 0001:C99D       WAITEVENT
 0001:C9AA       OLDYIELD
 0001:C9B7       SETPRIORITY
 0001:C9C4       DIRECTEDYIELD
 0001:C9D1       LOCKCURRENTTASK
 0001:C9DE       WRITEOUTPROFILES
 0001:C9EB       EXITKERNELTHUNK
 0001:C9F8       FATALEXITC
 0001:CA05       WOWGETMODULEFILENAME
 0001:CA12       CALLPROC32W
 0001:CAB3       _CallProcEx32W
 0001:CAC2       WOWGETFLATADDRESSARRAY
 0001:CAD0       KDDBGOUT
 0001:CB20       __GP
 0001:CC50       BEG_EMSCODE
 0001:CC50       EMSCOPY
 0001:CC60       INITCODE
 0001:CC60       SZNOPMODE
 0001:CCD7       SZINADEQUATE
 0001:CCF6       SZNOGLOBALINIT
 0001:CD18       NOOPENFILE
 0001:CD41       NOLOADHEADER
 0001:CD6A       SZGENBOOTFAIL
 0001:CDA0       BOOTSTRAP
 0001:D251       NEW_CODE
 0001:D790       TTYWRITE
 0001:D7AC       LOADFAIL
 0001:D7E6       SLOWBOOT
 0001:DA27       LOADNEWEXE
 0001:DAB5       BOOTDONE
 0001:DC6C       CHECK_TEMP
 0001:DD37       GET_WINDIR
 0001:DD76       INITFWDREF
 0001:DF85       INITDOSVARP
 0001:E09E       GETFILESIZE
 0001:E0D4       GETFILESIZE1
 0001:E1F2       GROWSFTTOMAX
 0001:E2AB       SHRINK
 0001:E339       BIGMOVE
 0001:E36F       GLOBALPIGALL
 0001:E407       FIND_DPMI_BLOCK
 0001:E480       GLOBALINIT
 0001:E59E       GINIT
 0001:E7C9       INIT_ALIAS_LIST
 0001:E7F6       LKEXEHEADER
 0001:E97C       LKALLOCSEGS
 0001:EA23       SWITCHTOPMODE
 0001:EB53       LDT_INIT
 0001:EB9C       SETUSERPRO
 0001:EBE1       DEBUGINIT
 0001:EC07       DEBUGDEBUG
 0001:EC31       DEBUGSYSREQ
 0002:0000       SZPROTECTCAP
 0002:0022       MSGREALMODEAPP1
 0002:0049       MSGREALMODEAPP2
 0002:016E       KDATASEG
 0002:0170       MAPDSTODATA
 0002:0176       FREEMODULE
 0002:018A       FREELIBRARY
 0002:019E       GETPROCADDRESS
 0002:01BB       GETMODULEHANDLE
 0002:01D2       GETMODULEUSAGE
 0002:01E6       GETMODULEFILENAME
 0002:021D       GETINSTANCEDATA
 0002:0231       LOADLIBRARY
 0002:0248       LOADMODULE
 0002:027C       LOCALNOTIFY
 0002:0293       WINEXEC
 0002:02BB       VSTARTNRESTEXT
 0002:02BB       GHANDLE0NRESTEXT
 0002:02BF       GHANDLENRESTEXT
 0002:02DB       LPFN0NRESTEXT
 0002:02E1       LPFNNRESTEXT
 0002:030B       INVAL_PARAM_NRESTEXT
 0002:0313       LP0NRESTEXT
 0002:0319       LPNRESTEXT
 0002:0329       CLP0NRESTEXT
 0002:032F       CLPNRESTEXT
 0002:033D       CLPEXITNRESTEXT
 0002:0346       LPBUF0NRESTEXT
 0002:034C       LPBUFNRESTEXT
 0002:0375       LPBUFEXITNRESTEXT
 0002:039F       CLPSTRATOM0NRESTEXT
 0002:03A1       CLPSTRATOMNRESTEXT
 0002:03AD       CLPSZ0NRESTEXT
 0002:03B3       CLPSZNRESTEXT
 0002:03D4       ERRORSTRPTRNRESTEXT
 0002:03DA       SETEMPTYNRESTEXT
 0002:03EB       VENDNRESTEXT
 0002:03EC       BUILDPDB
 0002:045B       FAREXECCALL
 0002:0482       GET_SEL_FLAGS
 0002:048D       SET_SEL_FOR_DIB
 0002:0498       RESTOREDIB
 0002:04A3       DIBREALLOC
 0002:04AC       IWINEXEC
 0002:0565       REGISTERWINOLDAPHOOK
 0002:05CF       GETWINOLDAPHOOKS
 0002:05E2       COPYNAME
 0002:061B       IGETPROCADDRESS
 0002:06A5       IGETMODULEHANDLE
 0002:072A       IGETMODULEFILENAME
 0002:0798       IGETMODULEUSAGE
 0002:07B5       IGETINSTANCEDATA
 0002:07E6       FINDEXEFILE
 0002:07F8       FINDEXEINFO
 0002:082E       FARFINDEXEINFO
 0002:0843       INCEXEUSAGE
 0002:0935       DECEXEUSAGE
 0002:0A10       STARTPROCADDRESS
 0002:0A41       GETSTACKPTR
 0002:0A9D       GETINSTANCE
 0002:0AC2       KILLLIBRARIES
 0002:0AE7       ADDMODULE
 0002:0B74       DELMODULE
 0002:0C36       IFREEMODULE
 0002:0C36       IFREELIBRARY
 0002:0CAC       LOADEXEHEADER
 0002:109E       FIXFLAGS
 0002:1136       LEH_PATCHNEXT
 0002:1148       LEH_DATA
 0002:1163       LEH_CODE
 0002:1198       LEH_CODE_FIXED
 0002:11A2       LEH_PATCHDONE
 0002:1264       LEH_SLOW
 0002:129A       OPENAPPLENV
 0002:12F9       CLOSEAPPLENV
 0002:13DA       STARTMODULE
 0002:1490       CALLWEP
 0002:1552       ILOADLIBRARY
 0002:15D2       ILOADMODULE
 0002:16FC       LMALREADYLOADED
 0002:181E       LMLOADEXEFILE
 0002:18D0       LMCHECKHEADER
 0002:198D       LMRAMNMODS
 0002:1A76       LMIMPORTS
 0002:1B32       LMSEGS
 0002:1C29       LMLETSGO
 0002:1CBC       LMPREVINSTANCE
 0002:1DCB       LMCLEANUP
 0002:1F0E       LM_NTLOADMODULE
 0002:1F8F       MY_LCLOSE
 0002:1FA4       WARNREALMODE
 0002:2016       NRESGETPURENAME
 0002:203C       SEARCH_MOD_DEP_LIST
 0002:2063       LMCHECKHEAP
 0002:206E       GETHEAPSPACES
 0002:20BC       ISROMMODULE
 0002:20C1       ISROMFILE
 0002:20C6       BOOTAPPL
 0002:2164       EXITAPPL
 0002:216C       ALLOCALLSEGS
 0002:2308       CREATETASK
 0002:2551       PASS_ENVIRONMENT
 0002:26A5       STARTLIBRARY
 0002:27BE       STARTTASK
 0002:28F0       DO_LIBINIT
 0002:294F       INITTASK
 0002:2A63       INITLIB
 0002:2A80       PRELOADRESOURCES
 0002:2B7C       ILOCALNOTIFY
 0002:2B93       LOCALINIT
 0002:2CD2       LOCALCOUNTFREE
 0002:2D0A       LOCALHEAPSIZE
 0002:2D15       LOCALHANDLEDELTA
 0002:2D40       SETAPPCOMPATFLAGS
 0002:2DBF       VALIDATECODESEGMENTS
 0003:0000       MKDATASEG
 0003:0002       MISCMAPDSTODATA
 0003:0008       FINDRESOURCE
 0003:002E       SETRESOURCEHANDLER
 0003:0054       CATCH
 0003:006E       THROW
 0003:0088       GETWINDOWSDIRECTORY
 0003:00B2       GETSYSTEMDIRECTORY
 0003:00DC       MAKEPROCINSTANCE
 0003:00F9       FREEPROCINSTANCE
 0003:0110       GETTEMPFILENAME
 0003:0166       SETERRORMODE
 0003:0182       SWAPRECORDING
 0003:019E       GHANDLE0MISCTEXT
 0003:019E       VSTARTMISCTEXT
 0003:01A2       GHANDLEMISCTEXT
 0003:01BE       LPFN0MISCTEXT
 0003:01C4       LPFNMISCTEXT
 0003:01EE       INVAL_PARAM_MISCTEXT
 0003:01F6       LP0MISCTEXT
 0003:01FC       LPMISCTEXT
 0003:020C       CLP0MISCTEXT
 0003:0212       CLPMISCTEXT
 0003:0220       CLPEXITMISCTEXT
 0003:0229       LPBUF0MISCTEXT
 0003:022F       LPBUFMISCTEXT
 0003:0258       LPBUFEXITMISCTEXT
 0003:0282       CLPSTRATOM0MISCTEXT
 0003:0284       CLPSTRATOMMISCTEXT
 0003:0290       CLPSZ0MISCTEXT
 0003:0296       CLPSZMISCTEXT
 0003:02B7       ERRORSTRPTRMISCTEXT
 0003:02BD       SETEMPTYMISCTEXT
 0003:02CE       VENDMISCTEXT
 0003:02CE       GETCURRENTPDB
 0003:02E0       IMAKEPROCINSTANCE
 0003:041D       IFREEPROCINSTANCE
 0003:0479       DEFINEHANDLETABLE
 0003:04C6       INITATOMTABLE
 0003:04FA       CALCMAXNRSEG
 0003:0576       DELETEPATHNAME
 0003:057E       OPENPATHNAME
 0003:05C8       GETTEMPDRIVE
 0003:060F       HEXTOA
 0003:062A       IGETTEMPFILENAME
 0003:0736       SETSIGHANDLER
 0003:079D       ISWAPRECORDING
 0003:07A0       IGETWINDOWSDIRECTORY
 0003:07F8       IGETSYSTEMDIRECTORY
 0003:0850       ISETERRORMODE
 0003:0867       GETWINFLAGS
 0003:0882       GETVERSION
 0003:0895       GETEXEVERSION
 0003:08A2       WINOLDAPCALL
 0003:08D9       REGISTERPTRACE
 0003:0908       TOOLHELPHOOK
 0003:0944       FILECDR
 0003:098A       GETDOSENVIRONMENT
 0003:099E       GETNUMTASKS
 0003:09AA       ICATCH
 0003:09E4       ITHROW
 0003:0A20       GETRESORD
 0003:0B7C       ORDINALORSTRING
 0003:0BB5       CMPRESSTR
 0003:0BF9       ISETRESOURCEHANDLER
 0003:0C6F       IFINDRESOURCE
 0004:0002       OOLDSP
 0004:0004       HOLDSS
 0004:0006       PLOCALHEAP
 0004:0008       PATOMTABLE
 0004:000A       PSTACKTOP
 0004:000C       PSTACKMIN
 0004:000E       PSTACKBOT
 0004:0010       GMOVE_STACK_SIG
 0004:0030       LPSZFILENAME
 0004:0230       GMOVE_STACK
 0004:0232       PREV_GMOVE_SP
 0004:0234       PREV_GMOVE_SS
 0004:0236       SS_SEL
 0004:0238       HGLOBALHEAP
 0004:0238       THHOOK
 0004:023A       PGLOBALHEAP
 0004:023C       HEXEHEAD
 0004:023E       HEXESWEEP
 0004:0240       TOPPDB
 0004:0242       HEADPDB
 0004:0244       TOPSIZEPDB
 0004:0246       HEADTDB
 0004:0248       CURTDB
 0004:024A       LOADTDB
 0004:024C       LOCKTDB
 0004:024E       SELTABLELEN
 0004:0250       SELTABLESTART
 0004:0254       WINVER
 0004:0256       FWINX
 0004:0258       F8087
 0004:025A       PHTCOUNT
 0004:025C       HGDI
 0004:025E       HUSER
 0004:0260       HSHELL
 0004:0262       FLMDEPTH
 0004:0264       WDEFRIP
 0004:0266       NUM_TASKS
 0004:0267       INSCHEDULER
 0004:0268       GRAPHICS
 0004:026A       FASTFP
 0004:026B       MAXCODESWAPAREA
 0004:026D       SELLOWHEAP
 0004:026F       CPLOWHEAP
 0004:0271       SELHIGHHEAP
 0004:0273       SELWOAPDB
 0004:0275       SEL_ALIAS_ARRAY
 0004:0277       TEMP_SEL
 0004:0279       DRESSED_FOR_SUCCESS
 0004:027D       HXMMHEAP
 0004:027F       INDOS
 0004:0283       PSFTLINK
 0004:0287       LPWINSFTLINK
 0004:028B       PDOSWOWDATA
 0004:028F       PPMDOSCDSCNT
 0004:0293       PPMDOSCURDRV
 0004:0297       PPMDOSPDB
 0004:029B       PFILETABLE
 0004:029F       FILEENTRYSIZE
 0004:02A1       CURDTA
 0004:02A5       CUR_DOS_PDB
 0004:02A7       WIN_PDB
 0004:02A9       CUR_DRIVE_OWNER
 0004:02AB       FBREAK
 0004:02AC       LASTDRIVESWAPPED
 0004:02AD       DOS_VERSION
 0004:02AE       DOS_REVISION
 0004:02AF       FINT21
 0004:02B0       FNOVELL
 0004:02B1       FPADCODE
 0004:02B2       CURDOSDRIVE
 0004:02B3       DOSDRIVES
 0004:02B4       PHANTARRAY
 0004:02CE       FFAREAST
 0004:02CF       KEYINFO
 0004:02D8       PSYSPROC
 0004:02DC       PTIMERPROC
 0004:02E0       PSYSTEMTERMPROC
 0004:02E4       PKEYPROC
 0004:02E8       PKEYPROC1
 0004:02EC       PKEYBOARDTERMPROC
 0004:02F0       PKEYBOARDSYSREQ
 0004:02F4       PDISPLAYCRITSEC
 0004:02F8       PMOUSETERMPROC
 0004:02FC       PMBOXPROC
 0004:0300       PSERRPROC
 0004:0304       PEXITPROC
 0004:0308       PDISABLEPROC
 0004:030C       PUSERINITDONE
 0004:0310       PPOSTMESSAGE
 0004:0314       PSIGNALPROC
 0004:0318       PISUSERIDLE
 0004:031C       PUSERGETFOCUS
 0004:0320       PUSERGETWINTASK
 0004:0324       PUSERISWINDOW
 0004:0328       PGETFREESYSTEMRESOURCES
 0004:032C       LPINT21
 0004:0330       MYINT2F
 0004:0334       FATALEXITPROC
 0004:0338       PTRACE_DLL_ENTRY
 0004:033C       PTRACE_APP_ENTRY
 0004:0340       LPFNTOOLHELPPROC
 0004:0344       WEXITINGTDB
 0004:0346       SHELL_FILE_PROC
 0004:034A       SHELL_FILE_TDB
 0004:034C       GCOMPACT_START
 0004:0350       GCOMPACT_TIMER
 0004:0354       WINFLAGS
 0004:0356       KERNEL_FLAGS
 0004:035A       KERNEL_INDOS
 0004:035B       KERNEL_ININT24
 0004:035C       FBOOTING
 0004:035D       FCHKSUM
 0004:035E       FCHECKFREE
 0004:035F       CDEVAT
 0004:0360       ERRCAP
 0004:0361       FPROFILEDIRTY
 0004:0362       FPROFILEMAYBESTALE
 0004:0363       FPOKEATSEGMENTS
 0004:0364       FWRITEOUTPROFILESREENTER
 0004:0365       FTASKSWITCHCALLED
 0004:0366       WINAPPHOOKS
 0004:036A       WOANAME
 0004:0377       GRAB_NAME
 0004:03F8       LPWINDOWSDIR
 0004:03FC       LPSYSTEMDIR
 0004:0400       CBYTESWINDIR
 0004:0402       CBYTESSYSDIR
 0004:0404       LPSYSTEM16DIR
 0004:0408       CBYTESSYS16DIR
 0004:040A       SYS16SUFFIX
 0004:0411       CBYTESSYS16SUFFIX
 0004:0413       LPGPCHAIN
 0004:0417       WININIINFO
 0004:04B1       PRIVATEPROINFO
 0004:054B       SZUSERPRO
 0004:059B       BUFPOS
 0004:059D       OUTBUF
 0004:05E4       MYCSALIAS
 0004:05E6       MYCSSEG
 0004:05E8       MYDSSEG
 0004:05EA       HLOADBLOCK
 0004:05EC       SEGLOADBLOCK
 0004:05EE       WMYOPENFILEREENT
 0004:05F0       CPSHRINK
 0004:05F2       CPSHRUNK
 0004:05F4       BASEDSC
 0004:05F6       KR1DSC
 0004:05F8       KR2DSC
 0004:05FA       BLOTDSC
 0004:05FC       DEMANDLOADSEL
 0004:05FE       FHCSTEALNEXT
 0004:0600       FHCACHEEND
 0004:0602       FHCACHELEN
 0004:0604       FHCACHE
 0004:0634       FLOADTRACE
 0004:0635       FPRELOADSEG
 0004:0636       FKTRACEOUT
 0004:0637       FDW_INT21H
 0004:0638       LASTEXTENDEDERROR
 0004:063E       RESERVED
 0004:064E       WCURTASKSS
 0004:0650       WCURTASKBP
 0004:0652       DEM16TO32HANDLE
 0004:0656       FASTBOP
 0004:065A       FASTBOPCS
 0004:065C       FASTWOW
 0004:0660       FASTWOWCS
 0004:0662       FASTWOWCBRET
 0004:0666       FASTWOWCBRETCS
 0004:0668       WOWFASTBOPPING
 0004:066A       FEXITONLASTAPP
 0004:066B       MOD_KERNEL
 0004:066D       MOD_DKERNEL
 0004:066F       MOD_USER
 0004:0671       MOD_DUSER
 0004:0673       MOD_GDI
 0004:0675       MOD_DGDI
 0004:0677       MOD_KEYBOARD
 0004:0679       MOD_SOUND
 0004:067B       MOD_SHELL
 0004:067D       MOD_WINSOCK
 0004:067F       MOD_TOOLHELP
 0004:0681       MOD_MMEDIA
 0004:0683       MOD_COMMDLG
 0004:0685       MODCOUNT
 0004:0687       DEBUGWOW
 0004:0689       TRACEOFF
 0004:068B       WOWLASTERROR
 0004:068D       WOWERRCLASS
 0004:068E       WOWERRACTION
 0004:068F       WOWERRLOCATION
 0004:0690       SZDISKCAP
 0004:069B       SZCANNOTFIND1
 0004:06A8       SZCANNOTFIND2
 0004:06A9       SZBOOTLOAD
 0004:06B8       SZDOSVER
 0004:06F5       SZABORTCAPTION
 0004:0707       SZBLAME
 0004:070D       SZSNOOZER
 0004:0716       SZINMODULE
 0004:072B       SZAT
 0004:0730       SZNUKEAPP
 0004:0742       SZWILLCLOSE
 0004:074F       SZGP
 0004:077B       SZSF
 0004:0789       SZII
 0004:07A0       SZPF
 0004:07AD       SZNP
 0004:07D6       SZLOAD
 0004:07EB       SZOUTOFSELECTORS
 0004:07FC       SZABORT
 0004:0819       SZBOZO
 0004:0836       SYSERR
 0004:0843       MSGWRITEPROTECT
 0004:0861       DRVLET1
 0004:0864       MSGCANNOTREADDRV
 0004:087B       DRVLET2
 0004:087E       MSGCANNOTWRITEDRV
 0004:0894       DRVLET3
 0004:0897       MSGSHARE
 0004:08B2       DRVLET4
 0004:08B5       MSGNETERROR
 0004:08CC       DRVLET5
 0004:08CF       MSGCANNOTREADDEV
 0004:08E7       DEVENAM1
 0004:08F0       MSGCANNOTWRITEDEV
 0004:0907       DEVENAM2
 0004:0910       MSGNETERRORDEV
 0004:0928       DEVENAM3
 0004:0931       MSGNOPRINTER
 0004:0943       SZDEBUGSTR
 0004:0A35       SZFKE
 0004:0A50       SZDIAGSTART
 0004:0A56       SZCRLF
 0004:0A59       SZLOADSTART
 0004:0A66       SZLOADSUCCESS
 0004:0A75       SZLOADFAIL
 0004:0A81       SZFAILCODE
 0004:0A92       SZCODESTRING
 0004:0A97       SZINITSPEW
 0004:0F00       LPPROC
 0004:0F62       DPMIMEMORY
 0004:1002       DPMIBLOCKCOUNT
 0004:1090       FINALLOC
 0004:1091       USERSELARRAY
 0004:1093       SELECTORFREEBLOCK
 0004:16C2       DTDIRTABLE
 0004:16E0       BOOTORDER
 0004:16E3       DEFAULTORDER
 0004:16E9       SZCURDIR
 0004:1769       PCURDIRNAME
 0004:176B       WCURDIRLEN
 0004:17A0       WFAULTSEGNO
 0004:17A4       FAULTHANDLER
 0004:1CE0       GWHACKPTDB
 0004:1CE2       GWHACKTASKSS
 0004:1CE4       GWHACKTASKSP
 0004:1D20       ALLOCTASK
 0004:1D22       ALLOCCOUNT
 0004:1D26       ALLOCBREAK
 0004:1D2A       ALLOCMODNAME
 0004:2446       DEBUGOPTIONS
 0004:2448       DEBUGFILTER
 0004:244A       WSPRINTF
 0004:244E       WVSPRINTF
 0004:2470       FDIAGMODE
 0004:2550       BEG_EMSDATA
 0004:2550       INITDATA
 0004:2550       ONRSEG
 0004:2552       OMSEG
 0004:2554       LPBOOTAPP
 0004:2558       BOOTEXECBLOCK
 0004:2566       WIN_SHOW
 0004:28D0       MS_DOS_NAME_STRING

Line numbers for stack.obj(stack.ASM) segment _TEXT

    46 0001:0090    47 0001:0092    48 0001:0097    49 0001:009C
    50 0001:009E    51 0001:00BD    55 0001:00C1    56 0001:00C5
    58 0001:00C9    60 0001:00CF    61 0001:00D1    62 0001:00D4
    63 0001:00FB    64 0001:00FD    68 0001:00FE    69 0001:010F
    76 0001:0111    77 0001:0113    78 0001:0118    79 0001:011D
    81 0001:011F    82 0001:0120    83 0001:0121    84 0001:0122
    85 0001:0123    86 0001:0127    87 0001:0129    88 0001:012C
    89 0001:012F    90 0001:0130    91 0001:0132    92 0001:0133
    93 0001:0134    94 0001:0135    95 0001:0136    96 0001:0138
    97 0001:013C   113 0001:013E   114 0001:015D   116 0001:0161
   117 0001:0165   118 0001:0169   119 0001:016F   120 0001:0196
   121 0001:0198

Line numbers for mapdata.obj(mapdata.ASM) segment _NRESTEXT

    24 0002:0170    25 0002:0175

Line numbers for mapdata.obj(mapdata.ASM) segment _MISCTEXT

    47 0003:0002    48 0003:0007

Line numbers for layer.obj(layer.ASM) segment _TEXT

   397 0001:019A   400 0001:01A6   401 0001:01AE   404 0001:01BA
   409 0001:01C2   412 0001:01CE   413 0001:01D6   414 0001:01E2
   417 0001:01E8   418 0001:01F0   419 0001:01FC   422 0001:0202
   423 0001:020A   424 0001:0216   425 0001:021C   426 0001:0221
   427 0001:0224

Line numbers for layer.obj(layer.ASM) segment _MISCTEXT

   431 0003:0008   432 0003:0014   433 0003:001D   436 0003:0026

Line numbers for layer.obj(layer.ASM) segment _TEXT

   437 0001:0227   438 0001:0233   442 0001:0239   443 0001:0241
   446 0001:024D   447 0001:0255   450 0001:0261

Line numbers for layer.obj(layer.ASM) segment _MISCTEXT

   451 0003:002E   452 0003:003A   453 0003:0043   456 0003:004C

Line numbers for layer.obj(layer.ASM) segment _TEXT

   457 0001:0269   458 0001:0275   461 0001:027B   466 0001:0283
   469 0001:0292   470 0001:029A   473 0001:02A6   474 0001:02AE
   477 0001:02BD   478 0001:02C5   479 0001:02D1   480 0001:02DD
   481 0001:02E2   482 0001:02F2   486 0001:02F5   489 0001:0301

Line numbers for layer.obj(layer.ASM) segment _MISCTEXT

   490 0003:0054   493 0003:0066   494 0003:006E   498 0003:0080

Line numbers for layer.obj(layer.ASM) segment _NRESTEXT

   502 0002:0176   505 0002:0182   506 0002:018A   509 0002:0196

Line numbers for layer.obj(layer.ASM) segment _TEXT

   515 0001:0309   539 0001:031B   540 0001:0323   541 0001:0337
   572 0001:034E   577 0001:0356   580 0001:036B   581 0001:0373
   584 0001:037F   585 0001:0387   629 0001:0393   630 0001:039B
   631 0001:03B0   634 0001:03DB   635 0001:03E3   638 0001:03EF
   639 0001:03F7   642 0001:040C   643 0001:0414   646 0001:0420
   647 0001:0428   650 0001:0434   651 0001:043C   654 0001:0448
   655 0001:0450   658 0001:045C   659 0001:0464   662 0001:0470
   663 0001:0478   666 0001:0487   667 0001:048F   670 0001:049B
   671 0001:04A3   674 0001:04AF   675 0001:04B7   678 0001:04C3
   679 0001:04CB   682 0001:04D7   691 0001:04DF   694 0001:04EB
   695 0001:04F3   698 0001:04FF

Line numbers for layer.obj(layer.ASM) segment _MISCTEXT

   702 0003:0088   703 0003:009A   704 0003:009F   705 0003:00AF
   709 0003:00B2   710 0003:00C4   711 0003:00C9   712 0003:00D9
   733 0003:00DC   734 0003:00EB   737 0003:00F1   738 0003:00F9
   741 0003:0108

Line numbers for layer.obj(layer.ASM) segment _TEXT

   787 0001:0507   788 0001:051C   791 0001:0528

Line numbers for layer.obj(layer.ASM) segment _NRESTEXT

   792 0002:019E   793 0002:01AA   796 0002:01B3   797 0002:01BB
   800 0002:01CA   801 0002:01D2   804 0002:01DE   805 0002:01E6
   806 0002:01F7   807 0002:0203   808 0002:0209   809 0002:0219
   813 0002:021D   817 0002:0229

Line numbers for layer.obj(layer.ASM) segment _TEXT

   818 0001:0530   821 0001:0544

Line numbers for layer.obj(layer.ASM) segment _MISCTEXT

   830 0003:0110   832 0003:0122   833 0003:014E   834 0003:0153
   835 0003:0163

Line numbers for layer.obj(layer.ASM) segment _TEXT

   843 0001:054C   844 0001:055E   845 0001:056A   846 0001:056F
   847 0001:057F   851 0001:0582   852 0001:0594   853 0001:05A0
   854 0001:05A5   855 0001:05B5   859 0001:05B8   860 0001:05CA
   861 0001:05D6   862 0001:05DB   863 0001:05DE   867 0001:05E1
   870 0001:05F3   871 0001:05FB   872 0001:060D   873 0001:061B
   874 0001:0620   875 0001:0623   879 0001:0626   880 0001:063A
   881 0001:063F   882 0001:0642   886 0001:0645   887 0001:0657
   888 0001:0665   889 0001:066A   890 0001:066D   894 0001:0670
   896 0001:0684   897 0001:0692   898 0001:0697   899 0001:069A
   900 0001:069B   913 0001:069E   914 0001:06B3   915 0001:06C4
   918 0001:06CA   922 0001:06CE   923 0001:06E2   924 0001:06F3
   927 0001:06F8

Line numbers for layer.obj(layer.ASM) segment _NRESTEXT

   931 0002:0231   934 0002:0240   935 0002:0248   936 0002:025A
   939 0002:0273

Line numbers for layer.obj(layer.ASM) segment _TEXT

   940 0001:06FB   946 0001:070F   951 0001:0717   955 0001:0723
   970 0001:072B   973 0001:0737   974 0001:073F   976 0001:074B
   981 0001:0759   982 0001:0761   985 0001:076D   986 0001:0775
   989 0001:0781   990 0001:0789   993 0001:0795

Line numbers for layer.obj(layer.ASM) segment _NRESTEXT

   999 0002:027C  1002 0002:028B

Line numbers for layer.obj(layer.ASM) segment _TEXT

  1015 0001:079D  1016 0001:07AF  1017 0001:07E7  1018 0001:07F4
  1019 0001:07F9  1020 0001:07FC  1027 0001:07FF  1032 0001:080B
  1033 0001:0813  1036 0001:0827

Line numbers for layer.obj(layer.ASM) segment _MISCTEXT

  1041 0003:0166  1044 0003:017A  1045 0003:0182  1048 0003:0196

Line numbers for layer.obj(layer.ASM) segment _NRESTEXT

  1054 0002:0293  1055 0002:02A5  1058 0002:02B3

Line numbers for layer.obj(layer.ASM) segment _TEXT

  1059 0001:082F  1060 0001:0841  1064 0001:084D  1065 0001:0855
  1066 0001:0867  1067 0001:0873  1068 0001:087F  1069 0001:088B
  1070 0001:0890  1071 0001:08A0  1075 0001:08A3  1076 0001:08B5
  1078 0001:08C1  1081 0001:08CD  1082 0001:08D5  1083 0001:08E7
  1084 0001:08F3  1085 0001:08FF  1086 0001:090B  1087 0001:0917
  1088 0001:091C  1089 0001:092C  1093 0001:092F  1094 0001:0941
  1095 0001:094D  1098 0001:0959  1099 0001:0961  1100 0001:0973
  1101 0001:097F  1102 0001:098B  1105 0001:0997  1153 0001:099F
  1155 0001:09C2  1156 0001:09CA  1157 0001:09DC    22 0001:09EA
    24 0001:09F2

Line numbers for layer.obj(layer.ASM) segment _NRESTEXT

    25 0002:02BB

Line numbers for layer.obj(layer.ASM) segment _MISCTEXT

    26 0003:019E

Line numbers for ldboot.obj(ldboot.ASM) segment _INITTEXT

   484 0001:CDA0   488 0001:CDB9   489 0001:CDBA   490 0001:CDBB
   491 0001:CDBC   492 0001:CDBE   493 0001:CDC0   494 0001:CDC4
   495 0001:CDC9   496 0001:CDCB   497 0001:CDCD   498 0001:CDCF
   499 0001:CDD3   500 0001:CDD5   502 0001:CDD7   503 0001:CDD8
   504 0001:CDD9   513 0001:CDDA   514 0001:CDDD   515 0001:CDDF
   516 0001:CDE1   521 0001:CDE2   522 0001:CDE6   530 0001:CDEA
   532 0001:CDEF   533 0001:CDF0   534 0001:CDF2   539 0001:CDF4
   540 0001:CDF5   541 0001:CDF6   543 0001:CDFA   544 0001:CDFE
   546 0001:CE02   547 0001:CE06   548 0001:CE0A   549 0001:CE0D
   551 0001:CE13   552 0001:CE17   553 0001:CE1B   554 0001:CE1E
   556 0001:CE24   557 0001:CE27   558 0001:CE2B   559 0001:CE2E
   561 0001:CE34   562 0001:CE35   564 0001:CE36   565 0001:CE39
   566 0001:CE3D   567 0001:CE41   573 0001:CE42   578 0001:CE45
   579 0001:CE49   583 0001:CE4C   584 0001:CE51   592 0001:CE56
   596 0001:CE59   597 0001:CE5C   599 0001:CE68   600 0001:CE6B
   615 0001:CE77   616 0001:CE78   617 0001:CE79   618 0001:CE7D
   619 0001:CE80   620 0001:CE82   621 0001:CE85   622 0001:CE88
   623 0001:CE8B   624 0001:CE8C   626 0001:CE8D   627 0001:CE91
   628 0001:CE95   635 0001:CE9A   636 0001:CE9D   637 0001:CE9F
   638 0001:CEA1   639 0001:CEAA   640 0001:CEAD   644 0001:CEAF
   646 0001:CEB0   653 0001:CEB4   654 0001:CEB6   655 0001:CEB8
   656 0001:CEBA   661 0001:CEBD   664 0001:CEC0   666 0001:CEC4
   670 0001:CEC5   671 0001:CEC6   672 0001:CEC9   674 0001:CECB
   677 0001:CECD   680 0001:CECF   681 0001:CED4   682 0001:CED9
   685 0001:CEDB   686 0001:CEE0   690 0001:CEE5   716 0001:CEE6
   717 0001:CEE8   718 0001:CEEA   719 0001:CEEC   723 0001:CEEF
   725 0001:CEF1   726 0001:CEF5   727 0001:CEF7   732 0001:CEFA
   779 0001:CF02   783 0001:CF05   784 0001:CF08   788 0001:CF0C
   789 0001:CF0F   793 0001:CF13   794 0001:CF16   795 0001:CF1A
   797 0001:CF1E   798 0001:CF22   799 0001:CF24   805 0001:CF27
   806 0001:CF46   807 0001:CF4A   808 0001:CF4C   809 0001:CF4F
   810 0001:CF56   811 0001:CF58   814 0001:CF5C   815 0001:CF5E
   816 0001:CF60   818 0001:CF87   819 0001:CF89   820 0001:CF8D
   821 0001:CF92   822 0001:CF97   824 0001:CF9C   825 0001:CF9D
   861 0001:CFA1   862 0001:CFA4   863 0001:CFA8   864 0001:CFAD
   865 0001:CFB0   867 0001:CFB7   868 0001:CFB9   869 0001:CFBB
   871 0001:CFBD   872 0001:CFC0   873 0001:CFC2   874 0001:CFC4
   875 0001:CFC6   876 0001:CFC9   880 0001:CFCB   885 0001:CFCE
   886 0001:CFD2   890 0001:CFD8   892 0001:CFDC   893 0001:CFDE
   894 0001:CFE2   895 0001:CFE4   897 0001:CFE5   898 0001:CFE6
   899 0001:CFE8   900 0001:CFEA   901 0001:CFEB   902 0001:CFED
   903 0001:CFEF   905 0001:CFF0   907 0001:CFF3   912 0001:CFF5
   913 0001:CFFA   914 0001:CFFC   915 0001:CFFE   916 0001:D002
   917 0001:D006   920 0001:D00A   921 0001:D00B   922 0001:D00C
   923 0001:D00E   924 0001:D011   925 0001:D013   926 0001:D014
   927 0001:D016   928 0001:D017   929 0001:D01A   931 0001:D01C
   932 0001:D01D   933 0001:D021   934 0001:D024   936 0001:D028
   937 0001:D02A   938 0001:D02E   939 0001:D02F   940 0001:D030
   957 0001:D035   958 0001:D039   960 0001:D03B   961 0001:D03E
   963 0001:D048   964 0001:D049   965 0001:D04B   967 0001:D04E
   968 0001:D04F   969 0001:D052   970 0001:D053   971 0001:D055
   972 0001:D057   973 0001:D059   974 0001:D05C   981 0001:D05E
   983 0001:D067   984 0001:D06B   985 0001:D06D   986 0001:D06F
   987 0001:D072   992 0001:D074   993 0001:D077  1015 0001:D079
  1016 0001:D07E  1017 0001:D081  1018 0001:D085  1019 0001:D089
  1020 0001:D08B  1021 0001:D08E  1022 0001:D090  1023 0001:D091
  1032 0001:D095  1034 0001:D09A  1040 0001:D0A0  1041 0001:D0A2
  1043 0001:D0A7  1044 0001:D0AD  1046 0001:D0AF  1047 0001:D0B5
  1048 0001:D0B7  1049 0001:D0BB  1050 0001:D0BE  1051 0001:D0C0
  1052 0001:D0C2  1053 0001:D0C4  1054 0001:D0C6  1055 0001:D0C8
  1056 0001:D0CA  1058 0001:D0CC  1059 0001:D0CF  1061 0001:D0D1
  1062 0001:D0D6  1063 0001:D0D8  1072 0001:D0DC  1073 0001:D0E0
  1074 0001:D0E3  1075 0001:D0E7  1089 0001:D0EB  1090 0001:D0F1
  1095 0001:D0FB  1096 0001:D0FE  1097 0001:D101  1098 0001:D108
  1099 0001:D10A  1100 0001:D10C  1102 0001:D10F  1107 0001:D112
  1108 0001:D115  1109 0001:D118  1110 0001:D122  1111 0001:D124
  1118 0001:D126  1119 0001:D128  1120 0001:D12C  1137 0001:D130
  1138 0001:D134  1139 0001:D138  1140 0001:D13B  1141 0001:D13E
  1142 0001:D141  1143 0001:D144  1144 0001:D163  1145 0001:D167
  1146 0001:D169  1147 0001:D16C  1148 0001:D173  1149 0001:D174
  1150 0001:D176  1151 0001:D178  1152 0001:D17F  1153 0001:D180
  1154 0001:D182  1155 0001:D186  1156 0001:D188  1157 0001:D18A
  1158 0001:D1B1  1163 0001:D1B3  1165 0001:D1B4  1166 0001:D1B8
  1167 0001:D1BC  1173 0001:D1BF  1175 0001:D1C6  1176 0001:D1C8
  1177 0001:D1CA  1178 0001:D1CC  1179 0001:D1CF  1180 0001:D1D0
  1181 0001:D1D2  1185 0001:D1D3  1186 0001:D1D5  1187 0001:D1DA
  1188 0001:D1DF  1189 0001:D1E6  1190 0001:D1EB  1191 0001:D1F0
  1195 0001:D1F5  1196 0001:D1F8  1197 0001:D1FD  1198 0001:D202
  1199 0001:D206  1200 0001:D20B  1201 0001:D212  1202 0001:D217
  1203 0001:D21A  1204 0001:D21F  1205 0001:D226  1206 0001:D22A
  1207 0001:D22F  1211 0001:D236  1212 0001:D237  1213 0001:D23C
  1214 0001:D240  1215 0001:D244  1219 0001:D245  1220 0001:D247
  1222 0001:D24A  1226 0001:D24B  1227 0001:D24C  1228 0001:D24F
  1234 0001:D251  1235 0001:D252  1236 0001:D253  1237 0001:D257
  1239 0001:D261  1241 0001:D265  1242 0001:D267  1244 0001:D26C
  1246 0001:D270  1248 0001:D273  1264 0001:D277  1265 0001:D27B
  1267 0001:D27E  1268 0001:D282  1272 0001:D285  1283 0001:D288
  1326 0001:D28B  1327 0001:D28C  1328 0001:D28F  1329 0001:D292
  1330 0001:D29B  1331 0001:D29D  1332 0001:D29F  1334 0001:D2A7
  1341 0001:D2A8  1342 0001:D2AB  1343 0001:D2AD  1345 0001:D2B1
  1346 0001:D2B5  1347 0001:D2B8  1348 0001:D2BF  1349 0001:D2C1
  1350 0001:D2C5  1351 0001:D2C9  1352 0001:D2CB  1353 0001:D2CC
  1354 0001:D2D0  1355 0001:D2D2  1359 0001:D2D4  1360 0001:D2E4
  1361 0001:D2E6  1362 0001:D2EA  1363 0001:D2EB  1364 0001:D2EE
  1365 0001:D2EF  1369 0001:D2F3  1370 0001:D2FA  1371 0001:D2FD
  1372 0001:D307  1373 0001:D309  1374 0001:D30B  1375 0001:D30C
  1378 0001:D30F  1379 0001:D310  1380 0001:D312  1381 0001:D316
  1382 0001:D318  1399 0001:D31A  1402 0001:D31B  1403 0001:D31E
  1405 0001:D320  1412 0001:D325  1413 0001:D32A  1414 0001:D32F
  1425 0001:D330  1426 0001:D331  1427 0001:D334  1428 0001:D344
  1429 0001:D354  1430 0001:D364  1431 0001:D374  1432 0001:D384
  1433 0001:D394  1437 0001:D3A4  1438 0001:D3A5  1439 0001:D3A6
  1440 0001:D3A9  1441 0001:D3AB  1442 0001:D3AE  1443 0001:D3B4
  1444 0001:D3B7  1445 0001:D3B9  1446 0001:D3BC  1447 0001:D3BE
  1448 0001:D3BF  1451 0001:D3C0  1453 0001:D3C1  1454 0001:D3C5
  1455 0001:D3C6  1456 0001:D3CB  1459 0001:D3CE  1460 0001:D3D1
  1462 0001:D3D7  1468 0001:D3DC  1469 0001:D3E2  1475 0001:D3E6
  1476 0001:D3E8  1477 0001:D3EB  1478 0001:D3ED  1479 0001:D3EE
  1481 0001:D3EF  1482 0001:D3F1  1483 0001:D3F5  1484 0001:D3F7
  1485 0001:D3FA  1487 0001:D3FC  1488 0001:D3FD  1495 0001:D400
  1496 0001:D401  1500 0001:D403  1501 0001:D405  1502 0001:D408
  1507 0001:D40A  1508 0001:D40E  1509 0001:D411  1511 0001:D414
  1512 0001:D417  1513 0001:D41B  1514 0001:D420  1516 0001:D427
  1517 0001:D429  1518 0001:D42A  1523 0001:D42B  1530 0001:D42F
  1531 0001:D432  1532 0001:D434  1533 0001:D436  1534 0001:D43B
  1536 0001:D440  1537 0001:D443  1538 0001:D445  1539 0001:D448
  1543 0001:D44A  1544 0001:D44C  1545 0001:D44F  1546 0001:D451
  1547 0001:D456  1549 0001:D45B  1550 0001:D45E  1551 0001:D460
  1552 0001:D463  1556 0001:D465  1557 0001:D467  1558 0001:D46A
  1559 0001:D46C  1560 0001:D471  1562 0001:D476  1563 0001:D479
  1564 0001:D47B  1565 0001:D47E  1569 0001:D480  1570 0001:D482
  1571 0001:D485  1572 0001:D487  1573 0001:D48C  1575 0001:D491
  1576 0001:D494  1577 0001:D496  1578 0001:D499  1582 0001:D49B
  1583 0001:D49D  1584 0001:D4A0  1585 0001:D4A2  1586 0001:D4A7
  1588 0001:D4AC  1589 0001:D4AF  1590 0001:D4B1  1591 0001:D4B4
  1597 0001:D4B6  1598 0001:D4B8  1599 0001:D4BB  1600 0001:D4BD
  1601 0001:D4C2  1603 0001:D4C7  1604 0001:D4CA  1605 0001:D4CC
  1606 0001:D4CF  1610 0001:D4D1  1611 0001:D4D3  1612 0001:D4D6
  1613 0001:D4D8  1614 0001:D4DD  1616 0001:D4E2  1617 0001:D4E5
  1618 0001:D4E7  1619 0001:D4EA  1623 0001:D4EC  1624 0001:D4EE
  1625 0001:D4F1  1626 0001:D4F3  1627 0001:D4F8  1629 0001:D4FD
  1630 0001:D500  1631 0001:D502  1632 0001:D505  1640 0001:D507
  1641 0001:D509  1642 0001:D50C  1643 0001:D517  1644 0001:D51A
  1651 0001:D51D  1652 0001:D51E  1653 0001:D521  1655 0001:D526
  1656 0001:D529  1657 0001:D52D  1660 0001:D530  1661 0001:D531
  1662 0001:D532  1664 0001:D533  1665 0001:D537  1666 0001:D539
  1667 0001:D53A  1669 0001:D53F  1670 0001:D540  1671 0001:D541
  1672 0001:D542  1673 0001:D544  1675 0001:D547  1676 0001:D548
  1677 0001:D549  1679 0001:D54A  1688 0001:D54C  1689 0001:D55A
  1690 0001:D55C  1691 0001:D55F  1692 0001:D562  1693 0001:D564
  1697 0001:D567  1698 0001:D575  1699 0001:D577  1700 0001:D57A
  1701 0001:D57D  1702 0001:D57F  1706 0001:D582  1707 0001:D590
  1708 0001:D592  1709 0001:D595  1710 0001:D598  1711 0001:D59A
  1715 0001:D59D  1716 0001:D5AB  1717 0001:D5AD  1718 0001:D5B0
  1719 0001:D5B3  1720 0001:D5B5  1724 0001:D5B8  1725 0001:D5C6
  1726 0001:D5C8  1727 0001:D5CB  1728 0001:D5CE  1729 0001:D5D0
  1733 0001:D5D3  1734 0001:D5E1  1735 0001:D5E3  1736 0001:D5E6
  1737 0001:D5E9  1738 0001:D5EB  1742 0001:D5EE  1743 0001:D5FC
  1744 0001:D5FE  1745 0001:D601  1746 0001:D604  1747 0001:D606
  1751 0001:D609  1752 0001:D617  1753 0001:D619  1754 0001:D61C
  1755 0001:D61F  1756 0001:D621  1760 0001:D624  1761 0001:D632
  1762 0001:D634  1763 0001:D637  1764 0001:D63A  1765 0001:D63C
  1769 0001:D63F  1770 0001:D64D  1771 0001:D64F  1772 0001:D652
  1773 0001:D655  1774 0001:D657  1778 0001:D65A  1780 0001:D65D
  1785 0001:D669  1786 0001:D672  1798 0001:D675  1799 0001:D679
  1800 0001:D67B  1801 0001:D67E  1802 0001:D681  1803 0001:D68D
  1804 0001:D690  1805 0001:D694  1806 0001:D698  1807 0001:D69A
  1808 0001:D69D  1809 0001:D69F  1810 0001:D6A0  1837 0001:D6A4
  1838 0001:D6A8  1840 0001:D6AE  1841 0001:D6AF  1842 0001:D6B3
  1843 0001:D6B7  1844 0001:D6BB  1845 0001:D6BF  1846 0001:D6C0
  1848 0001:D6C4  1849 0001:D6C6  1852 0001:D6C7  1853 0001:D6CA
  1854 0001:D6CE  1856 0001:D6D0  1857 0001:D6D4  1858 0001:D6D8
  1865 0001:D6DC  1866 0001:D6DE  1868 0001:D6E0  1869 0001:D6E3
  1871 0001:D6E6  1872 0001:D6E9  1886 0001:D6EB  1887 0001:D6EC
  1888 0001:D6ED  1890 0001:D6F1  1891 0001:D6F2  1892 0001:D6F3
  1893 0001:D6F6  1894 0001:D6F8  1895 0001:D6F9  1896 0001:D6FB
  1897 0001:D6FD  1898 0001:D6FF  1899 0001:D700  1900 0001:D702
  1901 0001:D704  1902 0001:D706  1903 0001:D708  1904 0001:D70B
  1905 0001:D70D  1907 0001:D711  1908 0001:D713  1909 0001:D715
  1910 0001:D717  1912 0001:D719  1913 0001:D71A  1914 0001:D71C
  1915 0001:D71E  1916 0001:D720  1917 0001:D725  1919 0001:D72A
  1924 0001:D72B  1929 0001:D72E  1930 0001:D72F  1931 0001:D730
  1932 0001:D732  1933 0001:D734  1934 0001:D736  1936 0001:D73A
  1937 0001:D73D  1938 0001:D73E  1939 0001:D740  1940 0001:D742
  1941 0001:D744  1942 0001:D745  1943 0001:D747  1944 0001:D749
  1945 0001:D74B  1946 0001:D74C  1947 0001:D74E  1948 0001:D750
  1949 0001:D752  1950 0001:D753  1951 0001:D755  1952 0001:D757
  1954 0001:D759  1957 0001:D75C  1958 0001:D75D  1959 0001:D75E
  1960 0001:D760  1961 0001:D762  1962 0001:D766  1963 0001:D76A
  1965 0001:D76C  1966 0001:D770  1967 0001:D772  1968 0001:D774
  1969 0001:D777  1970 0001:D779  1971 0001:D77A  1974 0001:D77C
  1976 0001:D77D  1977 0001:D77F  1978 0001:D781  1985 0001:D786
  1989 0001:D788  1990 0001:D78A  2125 0001:D790  2132 0001:D795
  2133 0001:D798  2134 0001:D799  2136 0001:D79B  2137 0001:D79C
  2138 0001:D79E  2139 0001:D7A0  2140 0001:D7A2  2141 0001:D7A4
  2143 0001:D7A6  2147 0001:D7AC  2148 0001:D7B0  2149 0001:D7B5
  2150 0001:D7B8  2151 0001:D7BB  2152 0001:D7C0  2153 0001:D7C3
  2154 0001:D7C8  2155 0001:D7CB  2156 0001:D7D0  2157 0001:D7D9
  2158 0001:D7DC  2159 0001:D7E1  2164 0001:D7E6  2244 0001:D7F2
  2245 0001:D7F4  2246 0001:D7F7  2247 0001:D809  2248 0001:D80B
  2267 0001:D80E  2268 0001:D829  2269 0001:D82B  2270 0001:D82D
  2271 0001:D830  2273 0001:D832  2274 0001:D834  2275 0001:D836
  2276 0001:D839  2277 0001:D83E  2279 0001:D840  2280 0001:D842
  2281 0001:D844  2282 0001:D849  2284 0001:D84B  2285 0001:D84E
  2286 0001:D853  2288 0001:D855  2289 0001:D857  2290 0001:D85A
  2291 0001:D85C  2293 0001:D861  2294 0001:D863  2295 0001:D868
  2298 0001:D86E  2299 0001:D881  2300 0001:D884  2301 0001:D886
  2302 0001:D889  2303 0001:D88C  2304 0001:D88E  2305 0001:D891
  2306 0001:D894  2307 0001:D896  2308 0001:D898  2309 0001:D89B
  2311 0001:D89E  2312 0001:D8B1  2315 0001:D8B4  2316 0001:D8C7
  2319 0001:D8CA  2320 0001:D8D0  2321 0001:D8D4  2323 0001:D8D8
  2324 0001:D8DE  2326 0001:D8E2  2327 0001:D8E8  2328 0001:D8EC
  2329 0001:D8F1  2331 0001:D8F3  2332 0001:D8F9  2334 0001:D8FD
  2337 0001:D900  2338 0001:D904  2339 0001:D909  2340 0001:D90C
  2341 0001:D90E  2342 0001:D90F  2343 0001:D911  2344 0001:D915
  2346 0001:D917  2347 0001:D91C  2349 0001:D91E  2353 0001:D920
  2354 0001:D924  2355 0001:D925  2356 0001:D92A  2357 0001:D92D
  2358 0001:D92F  2359 0001:D930  2360 0001:D932  2366 0001:D933
  2367 0001:D937  2369 0001:D939  2370 0001:D93A  2373 0001:D93B
  2374 0001:D93E  2375 0001:D946  2376 0001:D949  2378 0001:D94D
  2379 0001:D950  2380 0001:D958  2381 0001:D95B  2383 0001:D95F
  2384 0001:D960  2387 0001:D961  2388 0001:D965  2395 0001:D967
  2396 0001:D96A  2398 0001:D96F  2402 0001:D972  2403 0001:D975
  2406 0001:D98F  2407 0001:D994  2410 0001:D996  2411 0001:D99A
  2412 0001:D99F  2413 0001:D9A1  2416 0001:D9A6  2417 0001:D9A7
  2418 0001:D9A8  2419 0001:D9A9  2420 0001:D9AC  2421 0001:D9AD
  2422 0001:D9B0  2423 0001:D9B4  2424 0001:D9B5  2425 0001:D9B6
  2426 0001:D9B8  2427 0001:D9BA  2430 0001:D9BF  2432 0001:D9C2
  2433 0001:D9C7  2435 0001:D9C9  2436 0001:D9D8  2437 0001:D9DD
  2438 0001:D9E2  2440 0001:D9E4  2442 0001:D9ED  2443 0001:D9F0
  2446 0001:D9F9  2447 0001:D9FC  2449 0001:D9FE  2450 0001:DA04
  2451 0001:DA07  2455 0001:DA0A  2456 0001:DA0E  2457 0001:DA19
  2463 0001:DA24  2475 0001:DA27  2478 0001:DA2C  2480 0001:DA2F
  2493 0001:DA3B  2497 0001:DA3E  2498 0001:DA40  2499 0001:DA49
  2500 0001:DA4C  2501 0001:DA4E  2503 0001:DA59  2505 0001:DA5B
  2506 0001:DA5E  2507 0001:DA60  2509 0001:DA6B  2511 0001:DA6D
  2512 0001:DA70  2513 0001:DA72  2515 0001:DA7D  2518 0001:DA7F
  2519 0001:DA82  2520 0001:DA84  2522 0001:DA8F  2525 0001:DA91
  2526 0001:DA94  2530 0001:DA96  2532 0001:DAA1  2533 0001:DAA6
  2534 0001:DAA9  2537 0001:DAAF  2616 0001:DAB5  2621 0001:DABA
  2623 0001:DACE  2627 0001:DAE2  2628 0001:DAE4  2629 0001:DAEA
  2630 0001:DAEC  2632 0001:DAED  2633 0001:DAF1  2635 0001:DAF5
  2636 0001:DAFB  2637 0001:DAFD  2646 0001:DB02  2647 0001:DB08
  2649 0001:DB0A  2650 0001:DB0D  2651 0001:DB0F  2652 0001:DB14
  2653 0001:DB19  2655 0001:DB1B  2656 0001:DB1E  2657 0001:DB20
  2658 0001:DB25  2659 0001:DB2A  2661 0001:DB2C  2662 0001:DB2F
  2663 0001:DB31  2664 0001:DB36  2665 0001:DB3B  2692 0001:DB3D
  2693 0001:DB4C  2695 0001:DB4F  2696 0001:DB5E  2697 0001:DB60
  2698 0001:DB62  2699 0001:DB68  2701 0001:DB6D  2702 0001:DB7C
  2704 0001:DB7F  2710 0001:DB8F  2713 0001:DB91  2714 0001:DB93
  2716 0001:DB95  2717 0001:DB9B  2719 0001:DB9D  2721 0001:DBA0
  2722 0001:DBA2  2726 0001:DBAA  2727 0001:DBB9  2728 0001:DBBB
  2729 0001:DBBD  2738 0001:DBC2  2741 0001:DBC7  2748 0001:DBCA
  2750 0001:DBE6  2751 0001:DBEA  2752 0001:DBEB  2753 0001:DBEF
  2754 0001:DBF0  2755 0001:DBF2  2756 0001:DBF7  2760 0001:DBFB
  2762 0001:DBFD  2763 0001:DC1C  2764 0001:DC21  2765 0001:DC24
  2767 0001:DC4B  2772 0001:DC4F  2775 0001:DC52  2777 0001:DC5B
  2783 0001:DC5D  2789 0001:DC60  2790 0001:DC61  2791 0001:DC62
  2792 0001:DC63  2793 0001:DC64  2794 0001:DC65  2795 0001:DC68
  2796 0001:DC69  2834 0001:DC6C  2835 0001:DC6E  2836 0001:DC6F
  2837 0001:DC74  2838 0001:DC78  2839 0001:DC7A  2840 0001:DC86
  2842 0001:DC8A  2843 0001:DC8E  2844 0001:DC90  2845 0001:DC96
  2846 0001:DC98  2847 0001:DC99  2852 0001:DC9A  2853 0001:DC9B
  2859 0001:DC9D  2861 0001:DC9F  2862 0001:DCA2  2863 0001:DCA4
  2864 0001:DCA5  2865 0001:DCA8  2866 0001:DCAA  2867 0001:DCAB
  2868 0001:DCAD  2869 0001:DCAF  2870 0001:DCB0  2871 0001:DCB2
  2872 0001:DCB4  2874 0001:DCB6  2875 0001:DCB7  2877 0001:DCB8
  2879 0001:DCB9  2880 0001:DCBA  2881 0001:DCBC  2882 0001:DCBE
  2883 0001:DCC0  2884 0001:DCC2  2885 0001:DCC3  2886 0001:DCC7
  2887 0001:DCC9  2888 0001:DCCC  2889 0001:DCCD  2891 0001:DCCE
  2892 0001:DCCF  2893 0001:DCD1  2894 0001:DCD3  2895 0001:DCD4
  2898 0001:DCD6  2899 0001:DCD9  2900 0001:DCDD  2901 0001:DCDF
  2911 0001:DCE0  2912 0001:DCE1  2913 0001:DCE3  2914 0001:DCE4
  2915 0001:DCE5  2916 0001:DCE6  2917 0001:DCE8  2918 0001:DCEA
  2919 0001:DCED  2920 0001:DCEF  2921 0001:DCF4  2922 0001:DCF6
  2923 0001:DCF8  2925 0001:DCFA  2926 0001:DCFD  2927 0001:DCFF
  2928 0001:DD02  2929 0001:DD03  2930 0001:DD05  2931 0001:DD07
  2932 0001:DD0C  2935 0001:DD0E  2936 0001:DD10  2937 0001:DD12
  2938 0001:DD17  2939 0001:DD19  2942 0001:DD1E  2943 0001:DD22
  2944 0001:DD23  2946 0001:DD26  2947 0001:DD27  2948 0001:DD28
  2949 0001:DD29  2990 0001:DD37  2991 0001:DD38  2992 0001:DD39
  2993 0001:DD3A  2995 0001:DD3C  2996 0001:DD3E  2997 0001:DD40
  2999 0001:DD43  3000 0001:DD44  3001 0001:DD47  3002 0001:DD49
  3003 0001:DD4B  3004 0001:DD4D  3005 0001:DD4E  3008 0001:DD4F
  3009 0001:DD51  3010 0001:DD53  3012 0001:DD55  3013 0001:DD56
  3014 0001:DD57  3015 0001:DD59  3016 0001:DD5A  3018 0001:DD5B
  3019 0001:DD5D  3020 0001:DD5F  3023 0001:DD61  3024 0001:DD62
  3025 0001:DD64  3026 0001:DD66  3027 0001:DD68  3028 0001:DD6A
  3029 0001:DD6C  3030 0001:DD6E  3031 0001:DD70  3035 0001:DD71
  3036 0001:DD73  3037 0001:DD74  3038 0001:DD75

Program entry point at 0001:CDA0


Line numbers for dosinit.obj(dosinit.ASM) segment _INITTEXT

   233 0001:DD76   234 0001:DD78   236 0001:DD7D   237 0001:DD80
   238 0001:DD81   239 0001:DD86   240 0001:DD8A   244 0001:DD8E
   246 0001:DDA0   252 0001:DDB2   253 0001:DDB5   254 0001:DDBC
   256 0001:DDBE   257 0001:DDC1   258 0001:DDC9   259 0001:DDCC
   268 0001:DDD0   269 0001:DDD3   270 0001:DDD4   271 0001:DDD5
   272 0001:DDD8   273 0001:DDE0   274 0001:DDE1   277 0001:DDE3
   303 0001:DDE6   304 0001:DDE9   305 0001:DDF1   306 0001:DDF4
   308 0001:DDF8   309 0001:DDFB   310 0001:DE03   311 0001:DE06
   313 0001:DE0A   314 0001:DE0F   315 0001:DE11   336 0001:DE14
   337 0001:DE17   338 0001:DE1E   340 0001:DE21   341 0001:DE24
   342 0001:DE2B   343 0001:DE2E   345 0001:DE30   346 0001:DE33
   347 0001:DE3B   348 0001:DE3E   350 0001:DE42   351 0001:DE45
   352 0001:DE4D   353 0001:DE50   355 0001:DE54   356 0001:DE57
   357 0001:DE5F   358 0001:DE62   360 0001:DE66   361 0001:DE69
   362 0001:DE71   363 0001:DE74   365 0001:DE78   366 0001:DE7B
   368 0001:DE83   369 0001:DE86   375 0001:DE8C   376 0001:DE8F
   377 0001:DE97   378 0001:DE9A   380 0001:DE9E   381 0001:DEA1
   382 0001:DEA9   383 0001:DEAC   385 0001:DEB0   386 0001:DEB3
   387 0001:DEBB   388 0001:DEBE   403 0001:DEC2   404 0001:DEC5
   409 0001:DECD   410 0001:DED0   413 0001:DED6   414 0001:DED9
   415 0001:DEE1   416 0001:DEE4   418 0001:DEE8   419 0001:DEEB
   420 0001:DEF3   421 0001:DEF6   423 0001:DEFA   424 0001:DEFD
   425 0001:DF05   426 0001:DF08   428 0001:DF0C   429 0001:DF0F
   430 0001:DF16   432 0001:DF18   433 0001:DF1B   434 0001:DF23
   435 0001:DF26   437 0001:DF2A   438 0001:DF2D   439 0001:DF35
   440 0001:DF38   442 0001:DF3C   443 0001:DF3F   445 0001:DF44
   446 0001:DF47   447 0001:DF48   448 0001:DF49   449 0001:DF4C
   450 0001:DF4D   451 0001:DF4E   452 0001:DF51   453 0001:DF59
   454 0001:DF5A   472 0001:DF5C   473 0001:DF5F   474 0001:DF60
   475 0001:DF62   476 0001:DF64   477 0001:DF65   478 0001:DF67
   479 0001:DF69   504 0001:DF6D   515 0001:DF6F   516 0001:DF70
   522 0001:DF71   523 0001:DF74   524 0001:DF77   525 0001:DF7D
   526 0001:DF7E   532 0001:DF7F   533 0001:DF82   579 0001:DF85
   585 0001:DF8B   586 0001:DF8D   587 0001:DF90   588 0001:DF93
   592 0001:DF9A   593 0001:DF9D   597 0001:DFA0   598 0001:DFA3
   602 0001:DFA9   603 0001:DFAC   604 0001:DFAE   606 0001:DFB2
   607 0001:DFB5   608 0001:DFB7   612 0001:DFB9   613 0001:DFBB
   614 0001:DFBD   615 0001:DFC1   617 0001:DFC5   618 0001:DFC7
   619 0001:DFC9   620 0001:DFCC   621 0001:DFCE   622 0001:DFD0
   623 0001:DFD2   639 0001:DFD5   640 0001:DFD8   645 0001:DFDA
   646 0001:DFDD   654 0001:DFE3   655 0001:DFE6   657 0001:DFE8
   658 0001:DFEB   666 0001:DFF1   667 0001:E003   668 0001:E015
   669 0001:E027   670 0001:E039   671 0001:E04B   675 0001:E05D
   679 0001:E06F   680 0001:E071   681 0001:E073   685 0001:E076
   686 0001:E078   702 0001:E07A   703 0001:E07D   715 0001:E081
   748 0001:E083   750 0001:E087   823 0001:E089   824 0001:E08C
   827 0001:E08E   828 0001:E091   829 0001:E093   830 0001:E095
   832 0001:E097   926 0001:E09E   929 0001:E0AA   930 0001:E0AD
   931 0001:E0B0   932 0001:E0B3   933 0001:E0B5   934 0001:E0B8
   936 0001:E0BB   940 0001:E0BC   941 0001:E0BF   945 0001:E0C2
   946 0001:E0C5   947 0001:E0C7   948 0001:E0C9   949 0001:E0CB
   950 0001:E0CD   951 0001:E0D0   955 0001:E0D2   956 0001:E0D3
   966 0001:E0D4   967 0001:E0D7   969 0001:E0DA   970 0001:E0DD
   971 0001:E0DF   972 0001:E0E1   973 0001:E0E4   975 0001:E0E6
   980 0001:E0E8   981 0001:E0EB   982 0001:E0EE   983 0001:E0F0
   984 0001:E0F2   985 0001:E0F3   986 0001:E0F5   987 0001:E0F7
   988 0001:E0FA   989 0001:E0FB   992 0001:E0FD   993 0001:E100
   994 0001:E103   996 0001:E105   997 0001:E108  1000 0001:E10A
  1001 0001:E10B  1005 0001:E10D  1006 0001:E110  1007 0001:E111
  1008 0001:E114  1009 0001:E115  1010 0001:E117  1011 0001:E118
  1012 0001:E11A  1016 0001:E11C  1017 0001:E11E  1018 0001:E121
  1019 0001:E123  1020 0001:E125  1021 0001:E127  1022 0001:E129
  1023 0001:E12A  1024 0001:E12C  1025 0001:E12D  1026 0001:E130
  1027 0001:E131  1028 0001:E133  1029 0001:E134  1030 0001:E136
  1031 0001:E139  1032 0001:E13C  1033 0001:E13F  1034 0001:E141
  1035 0001:E144  1037 0001:E146  1038 0001:E148  1039 0001:E14A
  1040 0001:E14E  1041 0001:E150  1042 0001:E152  1044 0001:E154
  1045 0001:E157  1046 0001:E15A  1047 0001:E15C  1048 0001:E15F
  1049 0001:E161  1050 0001:E163  1051 0001:E165  1052 0001:E167
  1053 0001:E169  1054 0001:E16D  1055 0001:E16F  1056 0001:E171
  1057 0001:E173  1060 0001:E175  1066 0001:E177  1067 0001:E178
  1068 0001:E179  1069 0001:E17B  1070 0001:E17D  1071 0001:E17F
  1072 0001:E181  1073 0001:E183  1074 0001:E186  1076 0001:E188
  1077 0001:E189  1078 0001:E18A  1081 0001:E18B  1082 0001:E18D
  1083 0001:E18E  1084 0001:E18F  1085 0001:E191  1086 0001:E194
  1087 0001:E196  1088 0001:E197  1089 0001:E198  1090 0001:E19B
  1091 0001:E19D  1092 0001:E19F  1094 0001:E1A2  1095 0001:E1A5
  1096 0001:E1A7  1097 0001:E1A9  1098 0001:E1AB  1099 0001:E1AE
  1102 0001:E1B0  1103 0001:E1B3  1104 0001:E1B6  1105 0001:E1B8
  1106 0001:E1BA  1108 0001:E1BD  1112 0001:E1BE  1113 0001:E1C1
  1125 0001:E1C2  1126 0001:E1C3  1127 0001:E1C6  1128 0001:E1C8
  1129 0001:E1C9  1130 0001:E1CA  1131 0001:E1CC  1132 0001:E1CE
  1133 0001:E1D0  1134 0001:E1D2  1135 0001:E1D4  1136 0001:E1D6
  1137 0001:E1D8  1138 0001:E1DA  1139 0001:E1DC  1140 0001:E1DE
  1141 0001:E1E1  1142 0001:E1E3  1143 0001:E1E4  1144 0001:E1E7
  1145 0001:E1E9  1146 0001:E1EA  1147 0001:E1ED  1148 0001:E1EF
  1149 0001:E1F1  1170 0001:E1F2  1177 0001:E1F9  1178 0001:E1FD
  1179 0001:E1FF  1180 0001:E205  1181 0001:E208  1182 0001:E20A
  1187 0001:E20E  1188 0001:E210  1189 0001:E213  1193 0001:E215
  1194 0001:E216  1195 0001:E218  1196 0001:E21A  1197 0001:E21D
  1198 0001:E221  1199 0001:E224  1204 0001:E225  1205 0001:E227
  1210 0001:E22A  1211 0001:E22C  1215 0001:E22E  1216 0001:E230
  1217 0001:E234  1218 0001:E236  1219 0001:E23A  1220 0001:E23C
  1221 0001:E240  1222 0001:E243  1223 0001:E245  1224 0001:E248
  1230 0001:E24A  1231 0001:E24D  1232 0001:E24F  1235 0001:E251
  1236 0001:E253  1237 0001:E255  1238 0001:E25E  1292 0001:E261
  1304 0001:E266  1308 0001:E267  1309 0001:E269  1310 0001:E26B
  1311 0001:E26D  1312 0001:E26F  1313 0001:E271  1314 0001:E273
  1315 0001:E275  1316 0001:E277  1317 0001:E279  1318 0001:E27B
  1319 0001:E27E  1320 0001:E280  1321 0001:E282  1322 0001:E285
  1323 0001:E287  1324 0001:E288  1325 0001:E28B  1326 0001:E28D
  1328 0001:E28F  1329 0001:E290  1341 0001:E291  1342 0001:E292
  1343 0001:E293  1344 0001:E296  1345 0001:E298  1346 0001:E29A
  1347 0001:E29C  1348 0001:E29E  1349 0001:E2A0  1350 0001:E2A2
  1351 0001:E2A4  1352 0001:E2A6  1353 0001:E2A8  1354 0001:E2A9
  1355 0001:E2AA

Line numbers for ldfastb.obj(ldfastb.ASM) segment _INITTEXT

    98 0001:E2AB   100 0001:E2B7   101 0001:E2B8   102 0001:E2B9
   103 0001:E2BA   104 0001:E2BD   113 0001:E2BF   114 0001:E2C3
   115 0001:E2C5   117 0001:E2CA   118 0001:E2CC   119 0001:E2CE
   120 0001:E2D0   121 0001:E2D4   123 0001:E2D8   124 0001:E2DA
   125 0001:E2DB   140 0001:E2DC   141 0001:E2DD   145 0001:E2DF
   146 0001:E2EF   147 0001:E2F3   148 0001:E2F5   149 0001:E2F7
   150 0001:E2F8   151 0001:E2FB   153 0001:E2FD   154 0001:E2FE
   155 0001:E302   156 0001:E303   160 0001:E306   161 0001:E307
   163 0001:E313   164 0001:E314   165 0001:E317   167 0001:E319
   168 0001:E31B   169 0001:E31D   170 0001:E31F   171 0001:E32B
   172 0001:E332   173 0001:E335   174 0001:E336   175 0001:E337
   179 0001:E338   228 0001:E339   229 0001:E33B   230 0001:E33D
   231 0001:E341   232 0001:E343   233 0001:E345   234 0001:E347
   235 0001:E348   237 0001:E34A   238 0001:E34B   239 0001:E34C
   241 0001:E350   242 0001:E353   247 0001:E355   248 0001:E357
   249 0001:E35A   250 0001:E35C   251 0001:E35E   252 0001:E361
   253 0001:E363   254 0001:E364   256 0001:E366   257 0001:E368
   258 0001:E36A   259 0001:E36C   266 0001:E36E

Line numbers for 2gmemini.obj(2gmemini.ASM) segment _INITTEXT

    73 0001:E36F    74 0001:E37B    75 0001:E37D    81 0001:E382
    82 0001:E385    83 0001:E38B    84 0001:E38E    85 0001:E392
    86 0001:E394    88 0001:E396    89 0001:E39C    91 0001:E3A2
    92 0001:E3A5    94 0001:E3A8    95 0001:E3AB    96 0001:E3AE
    97 0001:E3B4    98 0001:E3B7    99 0001:E3BB   100 0001:E3BD
   101 0001:E3BF   103 0001:E3C1   104 0001:E3C4   105 0001:E3C6
   106 0001:E3C9   108 0001:E3CB   109 0001:E3CD   113 0001:E3CF
   114 0001:E3DF   120 0001:E3E1   121 0001:E3E2   122 0001:E3E8
   124 0001:E3E9   125 0001:E3EB   126 0001:E3EE   127 0001:E3F1
   129 0001:E3F4   130 0001:E3F7   133 0001:E3F9   136 0001:E3FD
   154 0001:E407   155 0001:E411   156 0001:E416   157 0001:E418
   158 0001:E41A   161 0001:E41D   162 0001:E421   163 0001:E423
   164 0001:E426   165 0001:E429   166 0001:E42B   167 0001:E42D
   168 0001:E430   171 0001:E432   174 0001:E434   175 0001:E437
   176 0001:E43B   178 0001:E43D   179 0001:E440   180 0001:E443
   181 0001:E446   183 0001:E449   185 0001:E44B   186 0001:E44E
   187 0001:E451   189 0001:E454   190 0001:E457   191 0001:E45A
   193 0001:E45D   194 0001:E45F   195 0001:E461   197 0001:E463
   200 0001:E465   201 0001:E467   202 0001:E469   203 0001:E46C
   204 0001:E46F   206 0001:E476   209 0001:E478   268 0001:E480
   270 0001:E487   271 0001:E48A   272 0001:E48D   273 0001:E490
   274 0001:E493   276 0001:E496   278 0001:E499   279 0001:E49B
   280 0001:E49E   281 0001:E4A1   282 0001:E4A6   283 0001:E4A8
   284 0001:E4AA   286 0001:E4AF   287 0001:E4B2   288 0001:E4B5
   289 0001:E4B8   291 0001:E4BB   292 0001:E4BF   293 0001:E4C2
   295 0001:E4C5   297 0001:E4CA   298 0001:E4CF   299 0001:E4D4
   300 0001:E4D7   301 0001:E4DA   302 0001:E4DD   303 0001:E4E0
   304 0001:E4E3   305 0001:E4E6   307 0001:E4EB   308 0001:E4ED
   309 0001:E4F2   310 0001:E4F7   312 0001:E4FB   314 0001:E4FD
   315 0001:E501   316 0001:E505   319 0001:E509   321 0001:E50C
   322 0001:E510   323 0001:E513   325 0001:E515   326 0001:E519
   330 0001:E51C   336 0001:E520   337 0001:E525   338 0001:E528
   339 0001:E52B   340 0001:E52D   341 0001:E52E   342 0001:E534
   343 0001:E538   344 0001:E53A   345 0001:E53E   346 0001:E544
   347 0001:E546   348 0001:E54A   355 0001:E54E   356 0001:E551
   357 0001:E553   358 0001:E556   359 0001:E558   360 0001:E55A
   361 0001:E55D   362 0001:E55F   364 0001:E562   370 0001:E565
   371 0001:E568   372 0001:E569   375 0001:E56B   376 0001:E56D
   379 0001:E56E   384 0001:E575   385 0001:E57C   386 0001:E57E
   387 0001:E580   388 0001:E584   389 0001:E586   393 0001:E588
   394 0001:E598   395 0001:E599   396 0001:E59D   456 0001:E59E
   460 0001:E5A2   468 0001:E5AE   469 0001:E5AF   471 0001:E5B0
   475 0001:E5B4   476 0001:E5B7   477 0001:E5BA   479 0001:E5BD
   480 0001:E5C1   481 0001:E5C3   482 0001:E5C6   483 0001:E5C8
   529 0001:E5CC   530 0001:E5CF   531 0001:E5D2   532 0001:E5D4
   533 0001:E5D5   534 0001:E5DC   536 0001:E5DF   537 0001:E5E2
   538 0001:E5E5   540 0001:E5E9   541 0001:E5EC   542 0001:E5F2
   543 0001:E5F4   544 0001:E5F9   545 0001:E5FB   546 0001:E5FD
   547 0001:E600   548 0001:E603   549 0001:E605   551 0001:E607
   552 0001:E60A   553 0001:E60C   554 0001:E60F   556 0001:E612
   557 0001:E613   558 0001:E615   559 0001:E618   560 0001:E619
   561 0001:E61C   562 0001:E61D   563 0001:E61E   564 0001:E621
   565 0001:E624   566 0001:E62A   567 0001:E62D   568 0001:E62E
   569 0001:E62F   570 0001:E631   574 0001:E634   575 0001:E63B
   583 0001:E63D   584 0001:E63E   588 0001:E640   590 0001:E650
   591 0001:E653   592 0001:E656   593 0001:E659   594 0001:E65B
   595 0001:E65D   596 0001:E664   600 0001:E667   601 0001:E668
   602 0001:E66C   603 0001:E66F   604 0001:E672   606 0001:E674
   607 0001:E676   611 0001:E678   612 0001:E688   613 0001:E689
   615 0001:E68C   616 0001:E68D   617 0001:E694   618 0001:E697
   619 0001:E698   620 0001:E69B   621 0001:E69E   622 0001:E69F
   623 0001:E6A7   624 0001:E6AA   626 0001:E6AB   627 0001:E6AE
   628 0001:E6B1   629 0001:E6B3   633 0001:E6B5   634 0001:E6B9
   635 0001:E6BB   639 0001:E6BD   640 0001:E6CD   641 0001:E6D0
   642 0001:E6D3   643 0001:E6D6   645 0001:E6D9   646 0001:E6DC
   647 0001:E6DF   651 0001:E6E2   653 0001:E6E4   654 0001:E6E6
   655 0001:E6E9   656 0001:E6EE   657 0001:E6F3   658 0001:E6F6
   662 0001:E6F9   664 0001:E6FC   665 0001:E6FF   666 0001:E702
   667 0001:E705   671 0001:E706   672 0001:E708   673 0001:E70B
   674 0001:E710   675 0001:E715   676 0001:E718   677 0001:E71B
   678 0001:E71E   679 0001:E721   680 0001:E724   684 0001:E725
   689 0001:E728   693 0001:E72A   695 0001:E72D   696 0001:E730
   697 0001:E733   698 0001:E736   699 0001:E73B   700 0001:E73E
   701 0001:E741   702 0001:E744   706 0001:E747   711 0001:E74A
   716 0001:E74C   718 0001:E74F   720 0001:E752   721 0001:E756
   722 0001:E758   725 0001:E75A   726 0001:E75D   727 0001:E760
   728 0001:E763   729 0001:E766   730 0001:E769   731 0001:E76C
   732 0001:E76F   736 0001:E772   737 0001:E774   741 0001:E777
   743 0001:E77A   744 0001:E77D   745 0001:E780   746 0001:E783
   747 0001:E788   748 0001:E78B   750 0001:E78E   751 0001:E791
   758 0001:E794   760 0001:E797   761 0001:E799   762 0001:E79B
   764 0001:E79D   766 0001:E79E   767 0001:E7A3   768 0001:E7A7
   770 0001:E7A9   771 0001:E7AB   772 0001:E7AD   774 0001:E7AF
   777 0001:E7B1   779 0001:E7B8   780 0001:E7B9   782 0001:E7BB
   783 0001:E7BE   784 0001:E7C5   785 0001:E7C6   787 0001:E7C7
   810 0001:E7C9   811 0001:E7CA   812 0001:E7CF   813 0001:E7DB
   814 0001:E7DD   815 0001:E7DF   816 0001:E7E2   817 0001:E7E4
   818 0001:E7E6   819 0001:E7EB   820 0001:E7F1   822 0001:E7F4
   823 0001:E7F5

Line numbers for ldself.obj(ldself.ASM) segment _TEXT

    40 0001:0B7E    42 0001:0B82    43 0001:0B85    47 0001:0B8F
    60 0001:0B94    61 0001:0B98    62 0001:0B9A    63 0001:0BA4
    73 0001:0BA9    74 0001:0BAD    75 0001:0BBC    84 0001:0BC1
    85 0001:0BC5    86 0001:0BD4    92 0001:0BD9    93 0001:0BDD
    94 0001:0BE6   100 0001:0BEB   101 0001:0BEE   102 0001:0BF4
   108 0001:0BF8   109 0001:0BFB   115 0001:0BFC   116 0001:0BFF
   122 0001:0C00   123 0001:0C03   131 0001:0C04   132 0001:0C08
   133 0001:0C14   140 0001:0C19   141 0001:0C1D   142 0001:0C29
   148 0001:0C2E   149 0001:0C32   150 0001:0C38   156 0001:0C3D
   157 0001:0C41   158 0001:0C47   163 0001:0C4C   164 0001:0C4F
   170 0001:0C50   171 0001:0C53   177 0001:0C54   178 0001:0C57
   186 0001:0C58   187 0001:0C5B

Line numbers for ldself.obj(ldself.ASM) segment _INITTEXT

   231 0001:E7F6   232 0001:E7FD   233 0001:E800   234 0001:E802
   235 0001:E804   236 0001:E805   238 0001:E808   239 0001:E80B
   240 0001:E80D   241 0001:E810   242 0001:E813   243 0001:E814
   246 0001:E817   247 0001:E818   248 0001:E81A   249 0001:E81C
   251 0001:E81E   252 0001:E821   253 0001:E823   254 0001:E826
   258 0001:E828   259 0001:E82A   260 0001:E82C   261 0001:E82E
   262 0001:E830   264 0001:E832   265 0001:E834   266 0001:E836
   267 0001:E839   270 0001:E83B   271 0001:E83D   272 0001:E83F
   275 0001:E841   276 0001:E842   280 0001:E845   281 0001:E847
   285 0001:E849   299 0001:E84B   300 0001:E84E   302 0001:E851
   303 0001:E853   304 0001:E85C   305 0001:E85D   306 0001:E863
   307 0001:E864   308 0001:E865   309 0001:E86B   310 0001:E86C
   311 0001:E86E   312 0001:E870   313 0001:E871   314 0001:E874
   315 0001:E875   316 0001:E877   317 0001:E87C   329 0001:E881
   331 0001:E882   332 0001:E883   334 0001:E884   338 0001:E887
   340 0001:E88A   341 0001:E88B   346 0001:E88C   348 0001:E88E
   350 0001:E88F   353 0001:E891   354 0001:E896   355 0001:E89B
   356 0001:E8A0   358 0001:E8A2   359 0001:E8A7   360 0001:E8AC
   361 0001:E8B1   363 0001:E8B3   364 0001:E8B8   365 0001:E8BD
   366 0001:E8C2   368 0001:E8C4   369 0001:E8C9   370 0001:E8CE
   371 0001:E8D0   373 0001:E8D2   384 0001:E8D7   385 0001:E8DC
   386 0001:E8E1   387 0001:E8E6   388 0001:E8E8   391 0001:E8EA
   393 0001:E8EF   394 0001:E8F1   395 0001:E8F3   396 0001:E8F4
   397 0001:E8F5   400 0001:E8F6   401 0001:E8F7   402 0001:E8F9
   403 0001:E8FB   405 0001:E8FD   406 0001:E8FF   407 0001:E901
   409 0001:E903   410 0001:E907   411 0001:E90A   413 0001:E90C
   414 0001:E90D   415 0001:E910   416 0001:E914   419 0001:E916
   420 0001:E91A   421 0001:E91C   422 0001:E91E   423 0001:E91F
   424 0001:E920   425 0001:E922   426 0001:E923   429 0001:E925
   430 0001:E929   431 0001:E92B   434 0001:E92D   435 0001:E92E
   436 0001:E92F   437 0001:E930   438 0001:E931   439 0001:E933
   442 0001:E935   443 0001:E936   444 0001:E937   445 0001:E93A
   446 0001:E93B   447 0001:E93C   448 0001:E93E   453 0001:E940
   454 0001:E942   455 0001:E948   456 0001:E94C   458 0001:E950
   459 0001:E953   460 0001:E957   461 0001:E95A   463 0001:E95C
   464 0001:E961   465 0001:E964   469 0001:E968   473 0001:E96E
   474 0001:E973   476 0001:E975   485 0001:E97C   486 0001:E983
   487 0001:E986   488 0001:E98A   489 0001:E98D   490 0001:E98F
   491 0001:E992   492 0001:E99A   493 0001:E99C   494 0001:E99E
   495 0001:E9A1   496 0001:E9A4   497 0001:E9A8   499 0001:E9AC
   501 0001:E9B1   502 0001:E9B4   503 0001:E9B6   515 0001:E9BB
   516 0001:E9BE   517 0001:E9C0   518 0001:E9C2   519 0001:E9C4
   520 0001:E9CC   521 0001:E9CE   522 0001:E9D0   523 0001:E9D3
   524 0001:E9D7   525 0001:E9DB   526 0001:E9DD   527 0001:E9DF
   528 0001:E9E4   529 0001:E9E7   530 0001:E9E9   531 0001:E9EC
   532 0001:E9F0   537 0001:E9F2   538 0001:E9F3   539 0001:E9F6
   540 0001:E9F8   541 0001:EA00   542 0001:EA01   543 0001:EA03
   544 0001:EA05   545 0001:EA09   546 0001:EA0C   547 0001:EA10
   549 0001:EA14   551 0001:EA19   553 0001:EA1B   557 0001:EA22

Line numbers for int24.obj(int24.ASM) segment _TEXT

   229 0001:0C5C   230 0001:0C5D   231 0001:0C62   232 0001:0C67
   233 0001:0C6B   234 0001:0C70   235 0001:0C72   238 0001:0C75
   239 0001:0C7A   240 0001:0CA1   241 0001:0CA2   242 0001:0CA3
   243 0001:0CA4   244 0001:0CA5   248 0001:0CA6   249 0001:0CAA
   250 0001:0CAB   252 0001:0CAD   253 0001:0CB2   254 0001:0CB5
   255 0001:0CBA   256 0001:0CBD   257 0001:0CC0   258 0001:0CC3
   259 0001:0CC4   260 0001:0CC6   261 0001:0CC7   262 0001:0CCA
   263 0001:0CCC   264 0001:0CCD   265 0001:0CCF   266 0001:0CD0
   267 0001:0CD3   268 0001:0CD5   269 0001:0CD7   271 0001:0CD8
   277 0001:0CDD   278 0001:0CDF   279 0001:0CE2   280 0001:0CE5
   281 0001:0CE8   282 0001:0CEB   291 0001:0CEE   292 0001:0CF3
   293 0001:0CF5   294 0001:0CF7   296 0001:0CFA   297 0001:0CFD
   300 0001:0CFF   301 0001:0D02   302 0001:0D07   303 0001:0D09
   304 0001:0D0C   307 0001:0D0E   308 0001:0D11   309 0001:0D16
   310 0001:0D18   318 0001:0D1B   319 0001:0D1C   320 0001:0D1D
   321 0001:0D1E   322 0001:0D1F   323 0001:0D21   324 0001:0D23
   325 0001:0D24   326 0001:0D29   327 0001:0D2C   328 0001:0D30
   329 0001:0D34   330 0001:0D35   331 0001:0D36   332 0001:0D37
   334 0001:0D38   335 0001:0D3B   336 0001:0D3E   337 0001:0D40
   338 0001:0D43   339 0001:0D45   340 0001:0D47   341 0001:0D4A
   342 0001:0D4C   343 0001:0D4E   344 0001:0D50   345 0001:0D52
   346 0001:0D55   347 0001:0D5A   348 0001:0D5C   350 0001:0D5F
   351 0001:0D61   352 0001:0D63   353 0001:0D65   354 0001:0D67
   355 0001:0D6C   356 0001:0D6E   360 0001:0D70   362 0001:0D72
   364 0001:0D75   365 0001:0D79   366 0001:0D7D   367 0001:0D7F
   368 0001:0D81   369 0001:0D83   371 0001:0D85   372 0001:0D89
   373 0001:0D8E   374 0001:0D91   375 0001:0D95   376 0001:0D99
   378 0001:0D9E   379 0001:0D9F   380 0001:0DA0   381 0001:0DA1
   382 0001:0DA2   383 0001:0DA4   385 0001:0DA6   386 0001:0DAB
   387 0001:0DAD   388 0001:0DB2   389 0001:0DB4   390 0001:0DB5
   391 0001:0DB7   392 0001:0DB9   393 0001:0DBA   394 0001:0DBC
   395 0001:0DC2   396 0001:0DC4   397 0001:0DCA   398 0001:0DCC
   399 0001:0DD2   400 0001:0DD4   401 0001:0DD9   402 0001:0DDB
   403 0001:0DDD   406 0001:0DDF   411 0001:0DE1   412 0001:0DE6
   413 0001:0DE8   414 0001:0DED   415 0001:0DEF   418 0001:0DF4
   419 0001:0DF9   420 0001:0DFD   422 0001:0DFE   423 0001:0E25
   450 0001:0E26   453 0001:0E32   454 0001:0E35   455 0001:0E37
   456 0001:0E3C   458 0001:0E3E   459 0001:0E3F   460 0001:0E41
   461 0001:0E42   462 0001:0E44   463 0001:0E45   464 0001:0E48
   465 0001:0E49   466 0001:0E4A   467 0001:0E4D   472 0001:0E4E
   473 0001:0E51   474 0001:0E52   482 0001:0E54   484 0001:0E55
   485 0001:0E57   486 0001:0E5C   487 0001:0E5E   489 0001:0E61
   491 0001:0E62   492 0001:0E66   499 0001:0E68   500 0001:0E6A
   501 0001:0E6C   503 0001:0E6E   504 0001:0E6F   506 0001:0E70
   550 0001:0E71   551 0001:0E74   552 0001:0E76   553 0001:0E79

Line numbers for diskio.obj(diskio.ASM) segment _TEXT

    18 0001:0E7A    19 0001:0E7C    27 0001:0E7E    36 0001:0E80
    40 0001:0E85    41 0001:0E86    42 0001:0E89    43 0001:0E94
    44 0001:0E95    45 0001:0E98    46 0001:0E9A    47 0001:0E9C
    48 0001:0E9E    49 0001:0EA1    50 0001:0EA6    51 0001:0EA8
    53 0001:0EAB    59 0001:0EB0    60 0001:0EB2    61 0001:0EB6
    62 0001:0EB8    63 0001:0EBD    64 0001:0EC0    65 0001:0EC2
    67 0001:0EC3    75 0001:0EC6    76 0001:0EC8    77 0001:0ECC
    78 0001:0ED0    79 0001:0ED4    80 0001:0ED8    81 0001:0EDA
    82 0001:0EDF    83 0001:0EE1    84 0001:0EE4    86 0001:0EE5
    94 0001:0EE8    95 0001:0EEA   103 0001:0EEC   110 0001:0EEE
   111 0001:0EF0   112 0001:0EF1   113 0001:0EF3   114 0001:0EF7
   115 0001:0EFB   116 0001:0EFF   117 0001:0F04   118 0001:0F05
   119 0001:0F07   121 0001:0F0A

Line numbers for 2ginterf.obj(2ginterf.ASM) segment _TEXT

   158 0001:0F75   159 0001:0F76   160 0001:0F7A   161 0001:0F7D
   162 0001:0F80   163 0001:0F83   164 0001:0F86   165 0001:0F88
   166 0001:0F89   168 0001:0F8A   169 0001:0F8C   170 0001:0F8E
   171 0001:0F90   172 0001:0F92   173 0001:0F94   175 0001:0F97
   176 0001:0F98   177 0001:0F99   178 0001:0F9B   180 0001:0F9C
   182 0001:0F9D   187 0001:0F9E   188 0001:0FA4   190 0001:0FA6
   192 0001:0FA7   193 0001:0FA8   195 0001:0FAD   196 0001:0FB2
   201 0001:0FB4   202 0001:0FB8   204 0001:0FBC   206 0001:0FBE
   208 0001:0FC2   211 0001:0FC3   212 0001:0FC6   213 0001:0FC8
   216 0001:0FCA   217 0001:0FCC   218 0001:0FCE   219 0001:0FD1
   221 0001:0FD5   222 0001:0FD6   224 0001:0FDB   225 0001:0FDD
   227 0001:0FDF   228 0001:0FE4   230 0001:0FE6   231 0001:0FE9
   233 0001:0FEB   235 0001:0FED   238 0001:0FEE   239 0001:0FEF
   240 0001:0FF1   241 0001:0FF3   242 0001:0FF5   243 0001:0FF6
   244 0001:0FF8   245 0001:0FFB   248 0001:0FFE   249 0001:1001
   250 0001:1003   251 0001:1006   253 0001:1008   254 0001:100A
   257 0001:100C   260 0001:1010   266 0001:1011   267 0001:1012
   268 0001:1017   269 0001:101B   270 0001:101D   271 0001:101F
   272 0001:1023   273 0001:1025   274 0001:1027   275 0001:102C
   276 0001:102D   277 0001:102E   279 0001:102F   303 0001:1030
   304 0001:1036   305 0001:1039   307 0001:1043   308 0001:1046
   309 0001:1048   310 0001:104B   311 0001:104D   312 0001:1050
   313 0001:1052   327 0001:1054   328 0001:1058   329 0001:105A
   330 0001:105E   331 0001:1060   335 0001:1063   336 0001:1065
   337 0001:1068   338 0001:106B   339 0001:106E   340 0001:1081
   341 0001:1084   342 0001:1086   348 0001:108D   353 0001:1093
   354 0001:1097   356 0001:1099   357 0001:10A1   358 0001:10A4
   359 0001:10A7   360 0001:10AC   362 0001:10AD   365 0001:10B0
   366 0001:10B3   368 0001:10BD   369 0001:10C0   370 0001:10C2
   371 0001:10C5   372 0001:10C7   373 0001:10CA   374 0001:10CC
   376 0001:10CE   378 0001:10D1   379 0001:10D4   380 0001:10D7
   382 0001:10DA   383 0001:10ED   384 0001:10F0   385 0001:10F2
   389 0001:10F9   390 0001:10FC   391 0001:1100   392 0001:1103
   393 0001:110B   394 0001:110E   395 0001:1111   403 0001:1112
   404 0001:1115   405 0001:1119   406 0001:111B   407 0001:111F
   408 0001:1121   410 0001:1125   450 0001:1126   451 0001:112C
   452 0001:112F   453 0001:1139   454 0001:113B   455 0001:113E
   456 0001:1140   457 0001:1142   463 0001:1145   464 0001:1148
   466 0001:114A   467 0001:1152   468 0001:1155   469 0001:1158
   470 0001:115D   472 0001:115E   473 0001:115F   479 0001:1162
   480 0001:1163   481 0001:1166   489 0001:1167   490 0001:116A
   491 0001:116C   492 0001:116F   493 0001:1171   494 0001:1173
   496 0001:1176   497 0001:1177   499 0001:1178   501 0001:117A
   502 0001:117C   503 0001:117E   507 0001:1180   508 0001:1182
   509 0001:1184   510 0001:1186   511 0001:1188   512 0001:1189
   513 0001:118B   514 0001:1198   519 0001:1199   520 0001:119C
   521 0001:119E   522 0001:119F   523 0001:11A0   524 0001:11A1
   526 0001:11A2   527 0001:11A5   528 0001:11A7   529 0001:11AC
   531 0001:11AE   532 0001:11AF   533 0001:11B0   534 0001:11B1
   536 0001:11B2   538 0001:11B4   539 0001:11B6   540 0001:11B8
   543 0001:11BA   544 0001:11BD   546 0001:11BF   547 0001:11C0
   548 0001:11C1   549 0001:11C2   551 0001:11C3   552 0001:11C6
   553 0001:11CB   555 0001:11CD   556 0001:11CE   557 0001:11CF
   558 0001:11D0   560 0001:11D1   562 0001:11D3   563 0001:11D5
   564 0001:11D7   570 0001:11D9   571 0001:11DB   575 0001:11DE
   576 0001:11F1   577 0001:11F4   579 0001:11F6   611 0001:11FD
   612 0001:1203   613 0001:1206   614 0001:1210   615 0001:1213
   616 0001:1214   617 0001:1217   618 0001:1219   619 0001:121B
   620 0001:121E   623 0001:1220   624 0001:1223   626 0001:1226
   627 0001:122A   628 0001:122C   629 0001:1230   630 0001:1232
   631 0001:1233   632 0001:1234   633 0001:123A   634 0001:123B
   636 0001:123C   637 0001:1240   640 0001:1242   641 0001:1245
   642 0001:1246   643 0001:1259   644 0001:125C   645 0001:125E
   690 0001:1265   691 0001:1266   692 0001:1268   693 0001:126C
   694 0001:126F   695 0001:1271   696 0001:1273   697 0001:1274
   698 0001:1275   699 0001:1277   700 0001:1278   701 0001:1279
   702 0001:127C   703 0001:127D   704 0001:127F   706 0001:1280
   708 0001:1283   709 0001:1285   710 0001:1287   711 0001:1289
   712 0001:128B   713 0001:128D   716 0001:128F   717 0001:1290
   725 0001:1291   726 0001:1294   733 0001:1297   734 0001:129B
   735 0001:12A1   736 0001:12A2   742 0001:12A7   743 0001:12A9
   744 0001:12AB   745 0001:12AD   746 0001:12B2   747 0001:12B4
   748 0001:12B7   750 0001:12B9   751 0001:12BA   752 0001:12BF
   754 0001:12C3   757 0001:12CA   758 0001:12CC   762 0001:12CE
   763 0001:12CF   771 0001:12D1   772 0001:12D3   774 0001:12D6
   775 0001:12D7   776 0001:12D9   778 0001:12DB   781 0001:12DE
   782 0001:12DF   783 0001:12E0   784 0001:12E1   785 0001:12E4
   786 0001:12EE   787 0001:12EF   794 0001:12F2   795 0001:12F5
   796 0001:12FF   797 0001:1301   798 0001:1304   799 0001:1306
   801 0001:1309   808 0001:130C   809 0001:130F   810 0001:1319
   811 0001:131B   813 0001:131E   814 0001:1321   821 0001:1324
   822 0001:1327   823 0001:1331   824 0001:1333   825 0001:1336
   826 0001:1338   827 0001:133B   834 0001:133D   835 0001:1340
   836 0001:134A   837 0001:134C   838 0001:134F   845 0001:1351
   846 0001:1354   847 0001:135E   848 0001:1360   849 0001:1362
   850 0001:1364   851 0001:1366   852 0001:1368   853 0001:136A
   854 0001:136C   855 0001:136E   856 0001:1372   857 0001:1373
   858 0001:1375   859 0001:1378   860 0001:137A   861 0001:137C
   882 0001:137E   883 0001:137F   884 0001:1381   885 0001:1383
   891 0001:1385   892 0001:1388   893 0001:1392   894 0001:1394
   896 0001:1396   897 0001:1399   898 0001:139B   899 0001:139C
   900 0001:139D   901 0001:139E   902 0001:139F   912 0001:13A2
   914 0001:13A7   916 0001:13AC   917 0001:13AE   918 0001:13B2
   919 0001:13B4   921 0001:13B7   923 0001:13BD   925 0001:13C0
   926 0001:13C2   927 0001:13C4   928 0001:13C7   934 0001:13CA
   935 0001:13CE   936 0001:13D0   938 0001:13D2   940 0001:13D4
   941 0001:13D8   942 0001:13DB   943 0001:13E0   945 0001:13E2
   950 0001:13E7   951 0001:13EC   952 0001:13EE   953 0001:13EF
   954 0001:13F2   955 0001:13F4   956 0001:13F9   960 0001:13FA
   961 0001:13FC   962 0001:13FE   963 0001:1400   972 0001:1405
   973 0001:140A   974 0001:140F   975 0001:1413   976 0001:1415
   982 0001:1418   983 0001:141C   985 0001:141E   986 0001:1426
   987 0001:1429   988 0001:142C   989 0001:1431   991 0001:1432
   993 0001:1435   994 0001:1437   996 0001:143D   998 0001:1440
   999 0001:1442  1005 0001:1444  1006 0001:144A  1007 0001:144C
  1009 0001:144E  1011 0001:1450  1012 0001:1454  1013 0001:1457
  1014 0001:145C  1016 0001:145E  1017 0001:1463  1018 0001:1465
  1019 0001:1468  1020 0001:146A  1021 0001:146F  1024 0001:1471
  1028 0001:1473  1029 0001:1478  1030 0001:147A  1031 0001:147B
  1032 0001:147E  1033 0001:1480  1034 0001:1485  1038 0001:1486
  1039 0001:1488  1040 0001:148A  1041 0001:148C  1076 0001:1491
  1077 0001:1496  1080 0001:149C  1081 0001:149D  1082 0001:14A2
  1083 0001:14A7  1084 0001:14A9  1085 0001:14AA  1086 0001:14AC
  1087 0001:14B0  1088 0001:14BB  1090 0001:14BC  1093 0001:14BD
  1094 0001:14C0  1095 0001:14C1  1096 0001:14C3  1097 0001:14C4
  1098 0001:14C5  1099 0001:14C8  1100 0001:14CA  1101 0001:14CD
  1102 0001:14CF  1103 0001:14D3  1104 0001:14D7  1105 0001:14DA
  1106 0001:14DB  1107 0001:14DC  1108 0001:14DD  1109 0001:14E1
  1110 0001:14E3  1111 0001:14E6  1112 0001:14E8  1116 0001:14EB
  1118 0001:14ED  1119 0001:14EE  1120 0001:14F0  1121 0001:14F1
  1122 0001:14F3  1123 0001:14F4  1124 0001:14F6  1125 0001:14FB
  1126 0001:14FD  1128 0001:14FE  1130 0001:1501  1131 0001:1502
  1132 0001:1505  1133 0001:150A  1134 0001:150C  1135 0001:150F
  1137 0001:1514  1138 0001:1516  1139 0001:151A  1141 0001:151C
  1142 0001:151E  1143 0001:1520  1144 0001:1521  1147 0001:1524
  1148 0001:1525  1149 0001:1526  1150 0001:1528  1151 0001:152A
  1152 0001:152D  1153 0001:152E  1181 0001:1530  1182 0001:1533
  1183 0001:1535  1186 0001:1538  1187 0001:153C  1188 0001:153F
  1189 0001:1541  1190 0001:1543  1191 0001:1545  1192 0001:154A
  1196 0001:154D  1197 0001:1550  1198 0001:1552  1199 0001:1553
  1200 0001:1554  1201 0001:1555  1202 0001:1557  1203 0001:1562
  1204 0001:1563  1205 0001:1564  1208 0001:1565  1209 0001:1568
  1210 0001:156B  1211 0001:156D  1213 0001:156E  1250 0001:1571
  1251 0001:1578  1252 0001:157B  1253 0001:1585  1255 0001:1598
  1256 0001:159B  1257 0001:159E  1258 0001:15A0  1260 0001:15A2
  1261 0001:15A5  1265 0001:15A7  1266 0001:15A8  1267 0001:15A9
  1268 0001:15AC  1269 0001:15AF  1270 0001:15BA  1271 0001:15BB
  1273 0001:15BC  1274 0001:15BF  1275 0001:15C2  1277 0001:15C5
  1278 0001:15C6  1279 0001:15C9  1280 0001:15CC  1281 0001:15CF
  1283 0001:15D0  1284 0001:15D2  1285 0001:15D4  1286 0001:15D6
  1287 0001:15D7  1290 0001:15DA  1291 0001:15DD  1292 0001:15DF
  1294 0001:15E1  1295 0001:15E4  1298 0001:15E6  1299 0001:15E9
  1302 0001:15EC  1303 0001:15EE  1304 0001:15F0  1305 0001:15F3
  1306 0001:15F6  1309 0001:15F8  1310 0001:15FB  1311 0001:15FE
  1312 0001:1600  1347 0001:1608  1348 0001:160C  1349 0001:160D
  1350 0001:1610  1351 0001:1615  1353 0001:1619  1354 0001:161D
  1355 0001:1621  1356 0001:1622  1361 0001:1627  1362 0001:1628
  1363 0001:162D  1364 0001:1630  1366 0001:1634  1367 0001:1635
  1400 0001:1636  1401 0001:1637  1402 0001:163C  1404 0001:1640
  1405 0001:1643  1406 0001:1645  1407 0001:1646  1416 0001:1647
  1417 0001:164A  1418 0001:164C  1420 0001:164F  1427 0001:1652
  1428 0001:1655  1429 0001:1657  1430 0001:165A  1474 0001:165D
  1475 0001:1662  1476 0001:1681  1477 0001:1686  1478 0001:168B
  1479 0001:1690  1481 0001:1695  1482 0001:1696  1483 0001:1697
  1484 0001:1698  1485 0001:169A  1486 0001:169B  1487 0001:169C
  1488 0001:169E  1489 0001:16A0  1490 0001:16A2  1491 0001:16A3
  1492 0001:16A5  1493 0001:16A7  1494 0001:16AB  1495 0001:16AF
  1496 0001:16B2  1497 0001:16B6  1501 0001:16BA  1502 0001:16BC
  1503 0001:16BE  1504 0001:16C0  1505 0001:16C2  1506 0001:16C3
  1508 0001:16C5  1509 0001:16C6  1510 0001:16C7  1511 0001:16CA
  1513 0001:16CC  1514 0001:16D1  1515 0001:16D5  1516 0001:16DA
  1517 0001:16DF  1518 0001:16E3  1519 0001:16E7  1520 0001:16EB
  1521 0001:16EF  1522 0001:1716  1561 0001:1717  1562 0001:1718
  1563 0001:171D  1564 0001:173C  1565 0001:1740  1566 0001:1744
  1567 0001:1748  1568 0001:174A  1569 0001:174C  1570 0001:1751
  1571 0001:1756  1572 0001:1758  1573 0001:175A  1574 0001:175E
  1575 0001:1763  1576 0001:1768  1577 0001:1769  1578 0001:176D
  1579 0001:1771  1581 0001:1775  1582 0001:179C  1592 0001:179D
  1593 0001:17A0  1594 0001:17A2  1633 0001:17A3  1634 0001:17AA
  1635 0001:17AD  1636 0001:17AF  1638 0001:17B1  1640 0001:17B4
  1641 0001:17B8  1642 0001:17BC  1643 0001:17BE  1644 0001:17C2
  1645 0001:17C5  1646 0001:17C7  1647 0001:17C9  1648 0001:17CB
  1649 0001:17D0  1650 0001:17D2  1651 0001:17D6  1652 0001:17D9
  1653 0001:17DB  1654 0001:17DF  1655 0001:17E1  1656 0001:17E5
  1657 0001:17E8  1659 0001:17EA  1660 0001:17EE  1661 0001:17EF
  1662 0001:17F1  1663 0001:17F4  1666 0001:17F6  1667 0001:17FB
  1668 0001:17FD  1669 0001:1800  1671 0001:1803  1676 0001:1805
  1681 0001:1815  1682 0001:1816  1683 0001:1817  1684 0001:1818
  1685 0001:1819  1686 0001:181C  1687 0001:181D  1688 0001:181E
  1689 0001:1820  1690 0001:1822  1691 0001:1823  1692 0001:1824
  1693 0001:1827  1694 0001:1829  1718 0001:1830  1719 0001:1836
  1720 0001:1839  1721 0001:1845  1722 0001:1847  1723 0001:1849
  1724 0001:184B  1725 0001:184C  1729 0001:1850  1730 0001:1860
  1731 0001:1861  1733 0001:1862  1758 0001:1869  1940 0001:186E
  1945 0001:1871  1949 0001:1878  1950 0001:187A  1951 0001:187C
  1952 0001:187F  1953 0001:1885  1958 0001:1887  1959 0001:188A
  1963 0001:188D  1967 0001:18BD  1968 0001:18C0  1969 0001:18C3
  1971 0001:18C6  1972 0001:18C8  1973 0001:18CA  1974 0001:18CC
  1977 0001:18CE  1989 0001:18D3  1990 0001:18D7  1991 0001:18DD
  1992 0001:18DF  1993 0001:18E1  1994 0001:18E3  1995 0001:18E6
  1996 0001:18E8  1997 0001:18EA  1998 0001:18F0  2000 0001:18F2
  2002 0001:18F8  2003 0001:18FA  2004 0001:18FC  2016 0001:1901
  2017 0001:1905  2018 0001:190B  2019 0001:190D  2020 0001:190F
  2022 0001:1911  2023 0001:1914  2024 0001:1916  2025 0001:1918
  2026 0001:191E  2029 0001:1920  2032 0001:1926  2033 0001:1928
  2034 0001:192A

Line numbers for intnn.obj(intnn.ASM) segment _TEXT

    31 0001:1930    32 0001:1931    34 0001:1934    35 0001:1937
    36 0001:1938    37 0001:193A    39 0001:193B    40 0001:1940
    42 0001:1944    43 0001:1946    44 0001:1949    45 0001:194C
    46 0001:194F    47 0001:1950    48 0001:1951    53 0001:1952
    54 0001:1953    55 0001:1956    60 0001:1958    61 0001:1959
    62 0001:195C    67 0001:195E    68 0001:195F    69 0001:1962
    74 0001:1964    75 0001:1965    76 0001:1968    81 0001:196A
    82 0001:196B    83 0001:196E    88 0001:1970    89 0001:1971
    90 0001:1974   110 0001:1976   111 0001:1979   113 0001:197B
   114 0001:197D   117 0001:197E

Line numbers for i21file.obj(i21file.ASM) segment _TEXT

    88 0001:1984    89 0001:1989    90 0001:198D    92 0001:198F
    93 0001:1994    94 0001:1996    95 0001:1997    96 0001:199B
    97 0001:19A2    98 0001:19A4    99 0001:19A5   100 0001:19A9
   101 0001:19AB   102 0001:19AD   103 0001:19AE   104 0001:19AF
   105 0001:19B1   106 0001:19B4   108 0001:19B7   110 0001:19B8
   111 0001:19B9   112 0001:19BA   113 0001:19BD   114 0001:19BE
   115 0001:19C0   116 0001:19C3   151 0001:19C6   152 0001:19C9
   153 0001:19CB   154 0001:19CE   156 0001:19D1   157 0001:19D6
   159 0001:19DA   160 0001:19E0   161 0001:19E2   163 0001:19E7
   208 0001:19EA   244 0001:19ED   245 0001:19EF   246 0001:19F1
   247 0001:19F3   248 0001:19F5   249 0001:19F7   250 0001:19F9
   252 0001:19FC   274 0001:19FE   275 0001:1A01   276 0001:1A03
   277 0001:1A06   278 0001:1A08   279 0001:1A0B   280 0001:1A0D
   281 0001:1A0E   282 0001:1A10   283 0001:1A13   284 0001:1A14
   286 0001:1A16   289 0001:1A19   290 0001:1A1B   291 0001:1A1E
   292 0001:1A21   293 0001:1A23   308 0001:1A26   309 0001:1A27
   310 0001:1A29   311 0001:1A2C   312 0001:1A2D   313 0001:1A2F
   315 0001:1A32   316 0001:1A34   317 0001:1A37   318 0001:1A3A
   319 0001:1A3C   322 0001:1A3F   323 0001:1A42   324 0001:1A43
   327 0001:1A46   328 0001:1A47   329 0001:1A49   330 0001:1A4C
   331 0001:1A4E   332 0001:1A4F   333 0001:1A50   334 0001:1A51
   335 0001:1A54   336 0001:1A55   337 0001:1A58   338 0001:1A59
   339 0001:1A5C   340 0001:1A5E   341 0001:1A61   342 0001:1A62
   344 0001:1A65   345 0001:1A66   346 0001:1A67   347 0001:1A68
   348 0001:1A6A   349 0001:1A6D   350 0001:1A6F   351 0001:1A70
   352 0001:1A72   353 0001:1A77   355 0001:1A78   356 0001:1A7B
   357 0001:1A7E   358 0001:1A81   359 0001:1A84   360 0001:1A85
   361 0001:1A86   362 0001:1A87   377 0001:1A8A   378 0001:1A8D
   379 0001:1A8F   392 0001:1A92   393 0001:1A95   394 0001:1A97
   395 0001:1A99   397 0001:1A9B   403 0001:1A9E   404 0001:1AA1
   406 0001:1AA3   410 0001:1AA6   411 0001:1AA9   412 0001:1AAB
   413 0001:1AAE   414 0001:1AB0   416 0001:1AB3   417 0001:1AB6
   418 0001:1AB8   419 0001:1ABB   420 0001:1ABD   421 0001:1AC0
   422 0001:1AC2   423 0001:1AC3   424 0001:1AC4   425 0001:1AC7
   426 0001:1AC8   427 0001:1ACB   428 0001:1ACC   429 0001:1ACF
   430 0001:1AD1   431 0001:1AD4   433 0001:1AD5   436 0001:1AD8
   440 0001:1ADA   441 0001:1ADB   442 0001:1ADC   443 0001:1ADD
   444 0001:1ADF   445 0001:1AE2   446 0001:1AE4   448 0001:1AE9
   449 0001:1AEC   450 0001:1AEF   451 0001:1AF2   452 0001:1AF5
   453 0001:1AF6   454 0001:1AF7   455 0001:1AF8   469 0001:1AFB
   472 0001:1AFD   473 0001:1B00   489 0001:1B02   490 0001:1B05
   491 0001:1B07   492 0001:1B0A   507 0001:1B0C   508 0001:1B0F
   509 0001:1B11   510 0001:1B14   524 0001:1B16   525 0001:1B17
   526 0001:1B18   527 0001:1B1A   528 0001:1B1D   529 0001:1B1F
   531 0001:1B22   532 0001:1B24   533 0001:1B26   534 0001:1B28
   535 0001:1B2B   537 0001:1B2D   538 0001:1B2E   540 0001:1B2F
   543 0001:1B32   544 0001:1B33   545 0001:1B35   546 0001:1B38
   547 0001:1B3B   548 0001:1B3C   549 0001:1B3E   550 0001:1B3F
   551 0001:1B40   555 0001:1B42   556 0001:1B46   560 0001:1B48
   561 0001:1B49   562 0001:1B4A   563 0001:1B4B   564 0001:1B72
   583 0001:1B75   584 0001:1B78   585 0001:1B7A   586 0001:1B7B
   587 0001:1B7C   588 0001:1B7D   589 0001:1B7E   590 0001:1B80
   592 0001:1B83   593 0001:1B86   594 0001:1B88   596 0001:1B8B
   597 0001:1B8D   598 0001:1B8E   599 0001:1B8F   600 0001:1B90
   602 0001:1B91   603 0001:1B92   604 0001:1B93   605 0001:1B96
   606 0001:1B97   607 0001:1B9A   608 0001:1B9B   609 0001:1B9E
   610 0001:1BA0   611 0001:1BA3   612 0001:1BA4   614 0001:1BA7
   615 0001:1BA8   616 0001:1BA9   617 0001:1BAA   618 0001:1BAC
   619 0001:1BAF   622 0001:1BB1   637 0001:1BB6   638 0001:1BB9
   639 0001:1BBC   640 0001:1BBF   641 0001:1BC2   642 0001:1BC3
   643 0001:1BC4   644 0001:1BC5   647 0001:1BC8   648 0001:1BCA
   649 0001:1BCB   650 0001:1BCC   651 0001:1BCD   656 0001:1BCE
   657 0001:1BD1   658 0001:1BD5   659 0001:1BD8   660 0001:1BDB
   676 0001:1BDE   677 0001:1BDF   678 0001:1BE1   679 0001:1BE3
   680 0001:1BE5   688 0001:1BE7   689 0001:1BE9   690 0001:1BEB
   691 0001:1BEE   692 0001:1BF0   693 0001:1BF3   694 0001:1BF6
   695 0001:1BF9   698 0001:1BFB   700 0001:1BFC   701 0001:1BFE
   702 0001:1BFF   718 0001:1C00   719 0001:1C01   720 0001:1C03
   721 0001:1C05   722 0001:1C08   723 0001:1C0B   724 0001:1C0D
   725 0001:1C0E   741 0001:1C0F   742 0001:1C10   743 0001:1C12
   744 0001:1C15   745 0001:1C16   760 0001:1C17   761 0001:1C18
   762 0001:1C1A   763 0001:1C1C   764 0001:1C1F   765 0001:1C21
   766 0001:1C23   767 0001:1C27   768 0001:1C28   769 0001:1C2D
   770 0001:1C30   772 0001:1C31   773 0001:1C32   775 0001:1C34
   777 0001:1C35   778 0001:1C36   801 0001:1C37   802 0001:1C38
   803 0001:1C39   805 0001:1C3A   806 0001:1C3C   807 0001:1C40
   808 0001:1C42   809 0001:1C43   810 0001:1C44   813 0001:1C45
   814 0001:1C46   815 0001:1C48   816 0001:1C4A   817 0001:1C4C
   818 0001:1C4E   819 0001:1C50   820 0001:1C52   821 0001:1C54
   822 0001:1C56   823 0001:1C59   831 0001:1C5A   833 0001:1C5C
   834 0001:1C5E   836 0001:1C60   837 0001:1C61   839 0001:1C63
   841 0001:1C68   842 0001:1C6F   843 0001:1C71   845 0001:1C73
   847 0001:1C79   849 0001:1C7D   850 0001:1C7E   851 0001:1C7F
   853 0001:1C80   858 0001:1C81

Line numbers for i21task.obj(i21task.ASM) segment _TEXT

   162 0001:1CE2   163 0001:1CE3   164 0001:1CE8   165 0001:1CED
   166 0001:1CF2   168 0001:1CF7   169 0001:1CFE   170 0001:1D00
   171 0001:1D05   173 0001:1D0A   174 0001:1D0B   207 0001:1D0E
   208 0001:1D11   209 0001:1D12   210 0001:1D13   211 0001:1D14
   212 0001:1D15   213 0001:1D16   214 0001:1D17   215 0001:1D1B
   216 0001:1D1C   217 0001:1D1F   219 0001:1D20   251 0001:1D21
   252 0001:1D22   253 0001:1D25   254 0001:1D27   255 0001:1D28
   256 0001:1D29   257 0001:1D2A   258 0001:1D2B   259 0001:1D2C
   260 0001:1D2D   261 0001:1D2E   262 0001:1D2F   263 0001:1D30
   274 0001:1D31   275 0001:1D32   276 0001:1D33   278 0001:1D34
   279 0001:1D38   281 0001:1D3A   282 0001:1D3B   283 0001:1D3C
   285 0001:1D3D   286 0001:1D43   287 0001:1D44   288 0001:1D45
   290 0001:1D46   291 0001:1D48   292 0001:1D4A   293 0001:1D4B
   296 0001:1D4E   297 0001:1D51   298 0001:1D52   301 0001:1D55
   302 0001:1D58   304 0001:1D59   305 0001:1DEA   339 0001:1DEB
   340 0001:1DEC   341 0001:1DED   342 0001:1DF0   343 0001:1DF2
   344 0001:1DF7   346 0001:1DFC   347 0001:1DFF   348 0001:1E03
   350 0001:1E05   351 0001:1E0A   352 0001:1E10   353 0001:1E12
   354 0001:1E18   366 0001:1E1A   367 0001:1E1C   368 0001:1E1E
   369 0001:1E20   371 0001:1E22   372 0001:1E24   373 0001:1E26
   374 0001:1E28   375 0001:1E2A   376 0001:1E2C   377 0001:1E2E
   378 0001:1E2F   379 0001:1E30   380 0001:1E31   381 0001:1E36
   382 0001:1E37   383 0001:1E38   384 0001:1E39   386 0001:1E3C
   387 0001:1E3E   388 0001:1E40   389 0001:1E45   391 0001:1E4A
   394 0001:1E4D   395 0001:1E4E   396 0001:1E4F   397 0001:1E50
   398 0001:1E51   399 0001:1E52   408 0001:1EE3   409 0001:1EE4
   410 0001:1EE5   411 0001:1EE6   412 0001:1EE7   413 0001:1EEA
   414 0001:1EEC   415 0001:1EED   416 0001:1EF2   418 0001:1EF6
   419 0001:1EF8   420 0001:1EFB   421 0001:1EFC   422 0001:1EFD
   424 0001:1EFF   425 0001:1F00   427 0001:1F03   435 0001:1F94
   436 0001:1F97   437 0001:1F99   438 0001:1F9B   439 0001:1F9E
   440 0001:1FA0   441 0001:1FA2   442 0001:1FA5   443 0001:1FA7
   444 0001:1FA9   445 0001:1FAC   446 0001:1FAE   447 0001:1FB0
   448 0001:1FB3   449 0001:1FB5   450 0001:1FB7   451 0001:1FBA
   452 0001:1FBC   453 0001:1FBE   454 0001:1FC1   456 0001:1FC3
   490 0001:1FC4   491 0001:1FC7   492 0001:1FC9   493 0001:1FCC
   495 0001:1FCF   496 0001:1FD2   497 0001:1FD7   498 0001:1FDA
   529 0001:206B   530 0001:2070   531 0001:2072   532 0001:2077
   533 0001:2079   534 0001:207B   535 0001:207C   537 0001:2081
   538 0001:2084   539 0001:2088   541 0001:208C   542 0001:2092
   543 0001:2094   544 0001:2096   562 0001:2099   563 0001:209E
   564 0001:20A4   565 0001:20AA   566 0001:20B0   622 0001:20B1
   624 0001:20B6   625 0001:20B7   626 0001:20B8   627 0001:20B9
   629 0001:20BA   630 0001:20BE   631 0001:20C0   632 0001:20C3
   633 0001:20C5   635 0001:20C8   637 0001:20CB   638 0001:20CE
   640 0001:20CF   641 0001:20D3   642 0001:20D5   643 0001:20D7
   645 0001:20DA   646 0001:20DB   648 0001:20DE   649 0001:20DF
   650 0001:20E0   651 0001:20E1   660 0001:20E2   661 0001:20E6
   662 0001:20EA   683 0001:20ED   684 0001:20EE   691 0001:20F2
   692 0001:20F7   693 0001:20F9   694 0001:20FB   695 0001:20FF
   696 0001:2101   700 0001:2105   701 0001:2109   702 0001:210C
   703 0001:210F   705 0001:2112   709 0001:2114   711 0001:2116
   713 0001:211B   714 0001:2120   716 0001:2122   717 0001:2127
   720 0001:2129   721 0001:212D   737 0001:212F   742 0001:2134
   749 0001:213A   750 0001:213B   751 0001:213F   752 0001:2141
   753 0001:2144   756 0001:2153   758 0001:2154   759 0001:2156
   760 0001:215C   761 0001:215D   763 0001:215E   764 0001:2160
   765 0001:2164   766 0001:2166   768 0001:216C   769 0001:216D
   776 0001:2170   777 0001:2197   781 0001:2199   782 0001:219B
   786 0001:21A1   787 0001:21A4   788 0001:21A7   789 0001:21AA
   794 0001:21AD   795 0001:21B1   796 0001:21B4   798 0001:21B7
   800 0001:21B8   801 0001:21BE   805 0001:21BF   806 0001:21C0
   807 0001:21C4   808 0001:21C5   812 0001:21CA   816 0001:21CD
   817 0001:21CF   823 0001:21D4   824 0001:21D7   825 0001:21DB
   826 0001:21DD   827 0001:21E1   828 0001:21E5   831 0001:21EA
   832 0001:21F3   833 0001:21F5   838 0001:21F8   839 0001:21F9
   840 0001:21FD   841 0001:2202   842 0001:2204   843 0001:2208
   846 0001:220D   848 0001:2212   849 0001:2217   851 0001:2219
   853 0001:2222   854 0001:2226   855 0001:222A   856 0001:222E
   857 0001:2230   858 0001:2231   859 0001:2236   861 0001:2237
   862 0001:223B   864 0001:223F   865 0001:2244   876 0001:2249
   878 0001:224F   887 0001:2250   888 0001:2259   893 0001:225B
   894 0001:2260   895 0001:2264   896 0001:2266   900 0001:226C
   901 0001:226F   902 0001:2275   936 0001:2276   937 0001:227B
   938 0001:227F   939 0001:2283   941 0001:2287   942 0001:228B
   943 0001:228E   944 0001:228F   945 0001:2290   946 0001:2291
   976 0001:2322   977 0001:2327   978 0001:232A   979 0001:232E
   980 0001:232F   981 0001:2330   982 0001:2331

Line numbers for i21task.obj(i21task.ASM) segment _NRESTEXT

  1036 0002:03EC  1037 0002:03F2  1040 0002:03F5  1042 0002:03F9
  1043 0002:03FC  1045 0002:0400  1046 0002:0403  1047 0002:0406
  1048 0002:0408  1050 0002:040A  1051 0002:040D  1052 0002:0410
  1056 0002:0414  1058 0002:0418  1060 0002:041A  1061 0002:041E
  1063 0002:0420  1064 0002:0422  1065 0002:0424  1066 0002:0427
  1067 0002:042A  1069 0002:042D  1070 0002:0432  1074 0002:0435
  1075 0002:0438  1079 0002:043B  1080 0002:043E  1081 0002:0441
  1082 0002:0444  1083 0002:0446  1084 0002:044A  1085 0002:044C
  1086 0002:044E  1087 0002:044F  1088 0002:0450  1089 0002:0451
  1090 0002:0452  1092 0002:0454  1100 0002:045B  1101 0002:045C
  1109 0002:045F  1112 0002:0462  1113 0002:046B  1114 0002:046E
  1115 0002:0470  1265 0002:0472  1266 0002:0476  1267 0002:0478
  1268 0002:047A  1269 0002:047D  1271 0002:0480

Line numbers for i21task.obj(i21task.ASM) segment _MISCTEXT

  1363 0003:02CE  1364 0003:02CF  1366 0003:02D2  1367 0003:02D6
  1369 0003:02DA  1370 0003:02DD  1371 0003:02DE

Line numbers for i21entry.obj(i21entry.ASM) segment _TEXT

   380 0001:251E   381 0001:251F   382 0001:2524   383 0001:2529
   384 0001:252B   386 0001:252C   387 0001:252D   388 0001:252E
   389 0001:2530   390 0001:2531   391 0001:2532   392 0001:2537
   393 0001:253A   394 0001:253C   395 0001:2541   397 0001:2546
   398 0001:254B   399 0001:254D   444 0001:2552   445 0001:2555
   446 0001:2558   447 0001:255A   448 0001:255D   449 0001:255F
   450 0001:2561   451 0001:2563   452 0001:2565   454 0001:256A
   455 0001:256D   458 0001:2570   459 0001:2571   460 0001:2572
   461 0001:2573   462 0001:2576   463 0001:2577   465 0001:2579
   467 0001:25A0   469 0001:25A1   471 0001:25A2   472 0001:25A5
   495 0001:25A8   538 0001:25AA   543 0001:260B   544 0001:2610
   545 0001:2615   549 0001:2617   551 0001:2618   552 0001:261B
   553 0001:2620   554 0001:2621   555 0001:2622   556 0001:2623
   557 0001:2626   558 0001:2627   559 0001:2629   560 0001:262A
   562 0001:262D   563 0001:2632   564 0001:2633   568 0001:2635
   570 0001:265C   576 0001:265F   577 0001:2662   579 0001:2664
   580 0001:2667   581 0001:2669   582 0001:266C   584 0001:266E
   585 0001:2671   586 0001:2673   587 0001:2676   588 0001:2678
   589 0001:267B   590 0001:267D   591 0001:2680   596 0001:2682
   597 0001:2683   598 0001:2684   599 0001:2685   601 0001:2686
   602 0001:268B   603 0001:2691   604 0001:2693   605 0001:2699
   606 0001:269E   607 0001:26A4   609 0001:26A6   614 0001:26A9
   615 0001:26AC   616 0001:26B0   617 0001:26B5   618 0001:26B7
   619 0001:26BC   621 0001:26BE   622 0001:26C2   623 0001:26C7
   624 0001:26C8   625 0001:26CA   626 0001:26CC   627 0001:26CF
   644 0001:26D0   645 0001:26D2   646 0001:26D6   647 0001:26D9
   648 0001:26DB   649 0001:26E7   650 0001:26ED   653 0001:26EF
   654 0001:26F1   655 0001:26F6   657 0001:26F8   659 0001:26FD
   660 0001:2703   661 0001:2705   662 0001:2708   663 0001:270A
   664 0001:2710   665 0001:2713   666 0001:2715   667 0001:2716
   669 0001:271B   670 0001:2722   671 0001:2724   672 0001:2728
   673 0001:272A   674 0001:272C   676 0001:272E   677 0001:272F
   678 0001:2730   679 0001:2731   680 0001:2734   681 0001:2736
   682 0001:2738   683 0001:273B   684 0001:273C   685 0001:273E
   686 0001:2740   688 0001:2742   689 0001:2744   690 0001:2746
   691 0001:2747   692 0001:2748   693 0001:2749   695 0001:274A
   696 0001:274C   700 0001:274E   702 0001:274F   703 0001:2751
   706 0001:2754   707 0001:2757   708 0001:2759   711 0001:275C
   712 0001:2761   716 0001:2766   718 0001:2767   719 0001:2768
   720 0001:2769   721 0001:276A   763 0001:276D   764 0001:2770
   769 0001:2771   770 0001:2772   771 0001:2773   772 0001:2778
   774 0001:277D   776 0001:277E   777 0001:2781   778 0001:2783
   779 0001:2787   780 0001:2789   781 0001:278A   784 0001:278B
   785 0001:278F   786 0001:2793   788 0001:2795   789 0001:2796
   791 0001:279A   807 0001:279D   811 0001:279E   857 0001:279F
   858 0001:27A2   859 0001:27A4   866 0001:27AA   867 0001:27AD
   868 0001:27AF   869 0001:27B2   870 0001:27B4   871 0001:27B5
   872 0001:27B7   873 0001:27B9   874 0001:27BC   875 0001:27BE
   876 0001:27C3   877 0001:27C7   878 0001:27C8   881 0001:27CC
   888 0001:27CF   889 0001:27D0   890 0001:27D1   891 0001:27D2
   892 0001:27D4   894 0001:27D8   899 0001:27DF   900 0001:27E0
   902 0001:27E2   905 0001:27E5   906 0001:27E6   907 0001:27E7
   908 0001:27E8   914 0001:27EB   915 0001:27F0   916 0001:27F2
   919 0001:27F5   920 0001:27F8   921 0001:27FC   922 0001:2800
   923 0001:2804   926 0001:2807   927 0001:280C   928 0001:280D
   929 0001:280F   930 0001:2811   931 0001:2813   932 0001:2815
   933 0001:2817   934 0001:2819   935 0001:281B   936 0001:281C
   940 0001:281F   941 0001:2822   942 0001:2825   945 0001:2828
   946 0001:2829   947 0001:282A   948 0001:282E   949 0001:2831
   950 0001:2832   951 0001:2833   954 0001:2834   955 0001:2837
   958 0001:283A   959 0001:283B   960 0001:283C   961 0001:283D
   962 0001:283E   964 0001:283F   966 0001:2845   967 0001:2847
   968 0001:284A   969 0001:284C   970 0001:284F   971 0001:2851
   973 0001:2853   974 0001:2857   976 0001:285A   977 0001:285B
   978 0001:285C   979 0001:285D   980 0001:285E   981 0001:285F
   984 0001:2860   985 0001:2861   987 0001:2862   988 0001:2865
   989 0001:2867   991 0001:2869   993 0001:286F   995 0001:2872
   996 0001:2873   997 0001:2875   998 0001:2876  1001 0001:2879
  1002 0001:287A  1003 0001:287B  1004 0001:287C  1005 0001:287E
  1007 0001:2882  1009 0001:288A  1010 0001:288B  1011 0001:288C
  1012 0001:288D  1013 0001:288F  1014 0001:2890  1015 0001:2892
  1018 0001:2895  1019 0001:2896  1020 0001:2897  1021 0001:2898
  1022 0001:289A  1024 0001:289E  1026 0001:28A5  1027 0001:28A6
  1028 0001:28A7  1029 0001:28A8  1030 0001:28AA  1031 0001:28AB
  1032 0001:28AD  1035 0001:28B0  1036 0001:28B3  1037 0001:28B6
  1038 0001:28BB  1039 0001:28C0  1040 0001:28C5  1043 0001:28C8
  1044 0001:28CA  1045 0001:28CC  1047 0001:28CF  1049 0001:28D0
  1051 0001:28D7  1052 0001:28D8  1053 0001:28D9  1054 0001:28DB
  1056 0001:28DE  1060 0001:28E1  1061 0001:28E2  1062 0001:28E3
  1063 0001:28E4  1064 0001:28E5  1065 0001:28E9  1066 0001:28ED
  1067 0001:28EF  1081 0001:28F3  1111 0001:28FD  1112 0001:28FE
  1113 0001:28FF  1114 0001:2900  1115 0001:2901  1116 0001:2903
  1117 0001:2905  1120 0001:2908  1121 0001:2909  1123 0001:290A
  1124 0001:290E  1125 0001:2912  1126 0001:2919  1127 0001:291A
  1128 0001:291B  1129 0001:291D  1130 0001:291F  1132 0001:2922
  1133 0001:2925  1134 0001:292A  1135 0001:292F  1136 0001:2934
  1139 0001:2937  1140 0001:2938  1141 0001:2939  1143 0001:293A
  1144 0001:293C  1149 0001:2953  1150 0001:2954  1151 0001:2956
  1153 0001:2959  1154 0001:295A  1155 0001:295D  1158 0001:2960
  1159 0001:2961  1160 0001:2962  1162 0001:2963  1163 0001:2967
  1164 0001:2969  1167 0001:296C  1168 0001:296E  1169 0001:2972
  1175 0001:2988  1176 0001:298B  1177 0001:298D  1179 0001:2990
  1180 0001:2991  1181 0001:2993  1182 0001:2996  1183 0001:2997
  1187 0001:2998  1191 0001:299A  1192 0001:299B  1193 0001:299C
  1195 0001:299D  1196 0001:299F  1197 0001:29A3  1198 0001:29A5
  1204 0001:29BB  1210 0001:29BE  1212 0001:29C0  1213 0001:29C1
  1214 0001:29C3  1215 0001:29C6  1216 0001:29C7  1217 0001:29C8
  1220 0001:29CA  1226 0001:29CD  1228 0001:29CF  1229 0001:29D2
  1231 0001:29D4  1232 0001:29D7  1233 0001:29DC  1234 0001:29E1
  1236 0001:29E6  1237 0001:29E9  1238 0001:29EA  1243 0001:29EB
  1244 0001:29EC  1245 0001:29ED  1246 0001:29EE  1249 0001:29EF
  1250 0001:29F0  1251 0001:29F1  1252 0001:29F2  1257 0001:2A0B
  1258 0001:2A0C  1259 0001:2A0D  1264 0001:2A0F  1265 0001:2A10
  1266 0001:2A11  1267 0001:2A12  1270 0001:2A13  1271 0001:2A14
  1272 0001:2A15  1273 0001:2A16  1278 0001:2A2A  1279 0001:2A2D
  1280 0001:2A2F  1281 0001:2A30  1282 0001:2A32  1283 0001:2A33
  1284 0001:2A34  1285 0001:2A35  1286 0001:2A37  1289 0001:2A39
  1290 0001:2A3A  1291 0001:2A3B  1292 0001:2A3C  1295 0001:2A3F
  1296 0001:2A41  1299 0001:2A44  1300 0001:2A46  1301 0001:2A48
  1302 0001:2A4A  1303 0001:2A4C  1306 0001:2A4F  1307 0001:2A50
  1308 0001:2A51  1310 0001:2A52  1311 0001:2A54  1312 0001:2A58
  1317 0001:2A5F  1318 0001:2A60  1319 0001:2A62  1320 0001:2A64
  1321 0001:2A65  1322 0001:2A66  1323 0001:2A67  1326 0001:2A69
  1327 0001:2A6A  1328 0001:2A6B  1330 0001:2A6C  1331 0001:2A6E
  1332 0001:2A72  1336 0001:2A7A  1337 0001:2A7B  1338 0001:2A7D
  1339 0001:2A7E  1340 0001:2A7F  1341 0001:2A80  1345 0001:2A82
  1346 0001:2A84  1347 0001:2A86  1348 0001:2A88  1349 0001:2A8A
  1352 0001:2A8D  1353 0001:2A8E  1354 0001:2A8F  1355 0001:2A90
  1360 0001:2AA4  1361 0001:2AA7  1362 0001:2AA9  1363 0001:2AAB
  1364 0001:2AAC  1365 0001:2AAD  1366 0001:2AB0  1369 0001:2AB3
  1370 0001:2AB4  1371 0001:2AB5  1372 0001:2AB6  1377 0001:2ACC
  1378 0001:2ACF  1379 0001:2AD1  1381 0001:2AD4  1382 0001:2AD5
  1383 0001:2AD6  1384 0001:2AD7  1387 0001:2ADA  1388 0001:2ADB
  1389 0001:2ADC  1390 0001:2ADD  1395 0001:2AF6  1396 0001:2AF7
  1397 0001:2AF9  1398 0001:2AFC  1399 0001:2AFE  1401 0001:2B01
  1402 0001:2B04  1403 0001:2B05  1404 0001:2B06  1405 0001:2B09
  1406 0001:2B0E  1407 0001:2B13  1408 0001:2B18  1411 0001:2B1B
  1412 0001:2B1E  1413 0001:2B1F  1414 0001:2B20  1417 0001:2B23
  1418 0001:2B24  1419 0001:2B25  1420 0001:2B26  1425 0001:2B3F
  1426 0001:2B40  1427 0001:2B41  1428 0001:2B43  1431 0001:2B46
  1443 0001:2B48  1444 0001:2B4B  1445 0001:2B4D  1446 0001:2B50
  1485 0001:2B52  1495 0001:2B53  1508 0001:2B58  1509 0001:2B59
  1511 0001:2B5E  1512 0001:2B5F  1513 0001:2B62  1514 0001:2B65
  1515 0001:2B66  1516 0001:2B68  1517 0001:2B6A  1518 0001:2B6F
  1520 0001:2B71  1521 0001:2B72  1522 0001:2B76  1523 0001:2B79
  1527 0001:2B7A  1529 0001:2B7F  1530 0001:2B85  1532 0001:2B86
  1533 0001:2B87  1534 0001:2B88  1536 0001:2B89  1540 0001:2B8A
  1541 0001:2B8E  1543 0001:2B90  1546 0001:2B93  1548 0001:2B94
  1549 0001:2B95  1553 0001:2B97  1554 0001:2B9C  1558 0001:2B9E
  1559 0001:2BA3  1561 0001:2BA5  1571 0001:2BA6  1573 0001:2BAB
  1574 0001:2BAC  1575 0001:2BB1  1576 0001:2BB4  1580 0001:2BB6
  1581 0001:2BB9  1643 0001:2BBB  1644 0001:2BBC  1645 0001:2BBF
  1668 0001:2BC1  1669 0001:2BC6

Line numbers for 2protect.obj(2protect.ASM) segment _INITTEXT

   200 0001:EA23   201 0001:EA24   203 0001:EA25   204 0001:EA28
   205 0001:EA2A   206 0001:EA2C   208 0001:EA2E   210 0001:EA31
   211 0001:EA33   212 0001:EA35   213 0001:EA38   214 0001:EA3A
   215 0001:EA3C   216 0001:EA3E   217 0001:EA41   218 0001:EA43
   220 0001:EA45   221 0001:EA49   222 0001:EA4D   223 0001:EA51
   224 0001:EA52   225 0001:EA55   226 0001:EA57   227 0001:EA59
   228 0001:EA5D   230 0001:EA60   231 0001:EA62   232 0001:EA66
   234 0001:EA68   235 0001:EA6A   236 0001:EA6C   237 0001:EA6E
   238 0001:EA70   241 0001:EA73   242 0001:EA75   244 0001:EA7B
   246 0001:EA7E   247 0001:EA80   250 0001:EA82   252 0001:EA86
   255 0001:EA88   256 0001:EA89   257 0001:EA8B   258 0001:EA90
   259 0001:EA92   260 0001:EA96   264 0001:EA98   265 0001:EAA8
   266 0001:EAAA   270 0001:EAAC   271 0001:EABC   273 0001:EABF
   275 0001:EAC1   276 0001:EAC2   277 0001:EAC8   278 0001:EACA
   280 0001:EACD   281 0001:EAD1   282 0001:EAD7   284 0001:EADA
   285 0001:EADB   286 0001:EADC   287 0001:EADF   288 0001:EAE2
   289 0001:EAE4   290 0001:EAE6   292 0001:EAE8   293 0001:EAEC
   295 0001:EAF0   296 0001:EAF3   297 0001:EAF7   301 0001:EAF9
   303 0001:EAFC   305 0001:EAFE   307 0001:EB02   311 0001:EB06
   312 0001:EB07   313 0001:EB08   314 0001:EB0A   315 0001:EB0B
   321 0001:EB0C   322 0001:EB0E   323 0001:EB10   324 0001:EB13
   325 0001:EB16   326 0001:EB1A   327 0001:EB1D   329 0001:EB23
   330 0001:EB25   331 0001:EB28   332 0001:EB2B   333 0001:EB2D
   336 0001:EB2F   337 0001:EB32   338 0001:EB34   339 0001:EB36
   349 0001:EB37   350 0001:EB38   352 0001:EB3B   354 0001:EB3C
   356 0001:EB3F   358 0001:EB41   360 0001:EB44   362 0001:EB46
   364 0001:EB4B   382 0001:EB4E   383 0001:EB51   412 0001:EB53
   415 0001:EB58   417 0001:EB5A   418 0001:EB5B   421 0001:EB5D
   422 0001:EB60   423 0001:EB63   424 0001:EB68   425 0001:EB6B
   426 0001:EB70   427 0001:EB73   428 0001:EB76   430 0001:EB7B
   431 0001:EB7E   432 0001:EB88   433 0001:EB8C   434 0001:EB8E
   436 0001:EB8F

Line numbers for 2protect.obj(2protect.ASM) segment _TEXT

   465 0001:2BC8   467 0001:2BCC   468 0001:2BD4   472 0001:2BD9
   473 0001:2BDD   474 0001:2BE5   509 0001:2BEA   511 0001:2BEE
   513 0001:2BEF   517 0001:2BF7   519 0001:2BFA   521 0001:2BFB
   552 0001:2C00   560 0001:2C07   561 0001:2C0A   563 0001:2C0B
   567 0001:2C10   568 0001:2C13   571 0001:2C15   572 0001:2C16
   573 0001:2C17   574 0001:2C1C   575 0001:2C1E   576 0001:2C1F
   582 0001:2C21   583 0001:2C22   586 0001:2C27   594 0001:2C2F
   599 0001:2C32   600 0001:2C35   625 0001:2C3D   626 0001:2C43
   627 0001:2C46   628 0001:2C49   629 0001:2C4C   631 0001:2C4E
   632 0001:2C51   633 0001:2C53   636 0001:2C55   637 0001:2C58
   638 0001:2C5B   641 0001:2C5D   653 0001:2C63   654 0001:2C66
   655 0001:2C69   657 0001:2C6B   658 0001:2C6E   660 0001:2C70
   661 0001:2C74   663 0001:2C76   664 0001:2C7A   665 0001:2C7C
   666 0001:2C7E   667 0001:2C82   668 0001:2C84   670 0001:2C86
   672 0001:2C89   673 0001:2C8B   675 0001:2C8E   678 0001:2C91
   680 0001:2C94   681 0001:2C96   682 0001:2C99   713 0001:2C9F
   714 0001:2CA4   715 0001:2CA7   716 0001:2CAA   717 0001:2CAC
   719 0001:2CAE   720 0001:2CB1   721 0001:2CB3   722 0001:2CB5
   725 0001:2CB8   726 0001:2CBE   727 0001:2CC1   728 0001:2CC2
   745 0001:2CC4   748 0001:2CC6   753 0001:2CCC   755 0001:2CCF
   756 0001:2CD0   757 0001:2CD1   758 0001:2CD3   759 0001:2CD6
   760 0001:2CD8   761 0001:2CDC   762 0001:2CDE   763 0001:2CE2
   765 0001:2CE4   769 0001:2CEA   770 0001:2CEC   773 0001:2CEF
   774 0001:2CF1   775 0001:2CF2   776 0001:2CF3   777 0001:2CFF
   778 0001:2D00   779 0001:2D01   783 0001:2D03   784 0001:2D05
   785 0001:2D08   786 0001:2D0C   789 0001:2D0E   792 0001:2D13
   793 0001:2D14   794 0001:2D15   795 0001:2D17   799 0001:2D18
   800 0001:2D1D   802 0001:2D1F   804 0001:2D24   805 0001:2D25
   806 0001:2D27   807 0001:2D29   809 0001:2D2C   810 0001:2D32
   811 0001:2D35   812 0001:2D37   813 0001:2D38   845 0001:2D3A
   846 0001:2D40   851 0001:2D48   852 0001:2D4A   853 0001:2D4C
   854 0001:2D52   861 0001:2D59   862 0001:2D5E   863 0001:2D5F
   866 0001:2D62   869 0001:2D65   870 0001:2D6B   871 0001:2D6C
   878 0001:2D72   879 0001:2D78   881 0001:2D7B   882 0001:2D7E
   885 0001:2D80   886 0001:2D86   887 0001:2D89   888 0001:2D8B
   925 0001:2D92   926 0001:2D9A   927 0001:2D9F   929 0001:2DA1
   930 0001:2DA4   932 0001:2DA7   933 0001:2DA9   934 0001:2DAA
   935 0001:2DAD   936 0001:2DAE   937 0001:2DB0   939 0001:2DB2
   940 0001:2DB5   941 0001:2DB7   943 0001:2DB9   944 0001:2DBA
   945 0001:2DBB   946 0001:2DBE   947 0001:2DC0   948 0001:2DC3
   949 0001:2DC4   950 0001:2DC5   951 0001:2DCA   952 0001:2DCF
   954 0001:2DD2   955 0001:2DD5   957 0001:2DD7   958 0001:2DD8
   961 0001:2DD9   962 0001:2DDA   963 0001:2DDD   964 0001:2DE0
   965 0001:2DE6   967 0001:2DE7   968 0001:2DE8   970 0001:2DE9
   971 0001:2DEE   973 0001:2DF2   974 0001:2DF8   975 0001:2DFD
   976 0001:2E02   979 0001:2E04   981 0001:2E06   982 0001:2E08
   984 0001:2E0A   992 0001:2E10   993 0001:2E11   994 0001:2E12
   995 0001:2E13   996 0001:2E16   997 0001:2E19   999 0001:2E1C
  1000 0001:2E20  1001 0001:2E22  1002 0001:2E23  1003 0001:2E24
  1005 0001:2E25  1050 0001:2E26  1051 0001:2E2A  1052 0001:2E36
  1063 0001:2E3B  1072 0001:2E3E  1073 0001:2E49  1074 0001:2E4C
  1075 0001:2E4E  1077 0001:2E50  1078 0001:2E53  1079 0001:2E57
  1080 0001:2E59  1083 0001:2E5C  1084 0001:2E5F  1086 0001:2E61
  1087 0001:2E63  1088 0001:2E66  1089 0001:2E69  1090 0001:2E6B
  1092 0001:2E6C  1093 0001:2E6F  1094 0001:2E72  1095 0001:2E75
  1096 0001:2E78  1098 0001:2E7B  1099 0001:2E7C  1100 0001:2E7E
  1102 0001:2E80  1103 0001:2E83  1104 0001:2E86  1106 0001:2E89
  1126 0001:2E8F  1129 0001:2E91  1130 0001:2E93  1131 0001:2E96
  1132 0001:2E98  1133 0001:2E9A  1134 0001:2E9D  1135 0001:2EA0
  1136 0001:2EA3  1137 0001:2EA4  1139 0001:2EA7  1142 0001:2EAA
  1144 0001:2EAD  1145 0001:2EAF  1178 0001:2EBA  1180 0001:2EC0
  1181 0001:2EC1  1182 0001:2EC4  1183 0001:2EC9  1184 0001:2ECF
  1185 0001:2ED1  1188 0001:2ED6  1189 0001:2ED9  1190 0001:2EDB
  1192 0001:2EDE  1193 0001:2EE4  1194 0001:2EE7  1195 0001:2EEC
  1196 0001:2EF1  1197 0001:2EF5  1199 0001:2EF7  1200 0001:2EF8
  1226 0001:2EF9  1227 0001:2EFD  1228 0001:2F03  1232 0001:2F08
  1233 0001:2F0B  1234 0001:2F0C  1235 0001:2F0D  1236 0001:2F10
  1242 0001:2F16  1243 0001:2F17  1244 0001:2F1C  1245 0001:2F1F
  1246 0001:2F22  1247 0001:2F25  1248 0001:2F28  1250 0001:2F29
  1251 0001:2F2A  1252 0001:2F2B  1274 0001:2F2F  1275 0001:2F36
  1277 0001:2F3E  1279 0001:2F3F  1280 0001:2F40  1281 0001:2F43
  1282 0001:2F46  1283 0001:2F48  1284 0001:2F4A  1287 0001:2F4B
  1288 0001:2F51  1289 0001:2F54  1290 0001:2F55  1291 0001:2F56
  1293 0001:2F58  1295 0001:2F59  1318 0001:2F61  1319 0001:2F64
  1320 0001:2F67  1321 0001:2F6B  1322 0001:2F6C  1348 0001:2F70
  1350 0001:2F77  1351 0001:2F78  1353 0001:2F79  1354 0001:2F7A
  1355 0001:2F7C  1356 0001:2F7F  1357 0001:2F82  1359 0001:2F88
  1371 0001:2F8E  1373 0001:2F8F  1374 0001:2F92  1376 0001:2F95
  1377 0001:2F98  1378 0001:2F9B  1379 0001:2F9E  1381 0001:2FA0
  1382 0001:2FA3  1383 0001:2FA6  1385 0001:2FA9  1387 0001:2FAB
  1388 0001:2FAC  1389 0001:2FAF  1393 0001:2FB1  1414 0001:2FB7
  1415 0001:2FB8  1417 0001:2FB9  1418 0001:2FBB  1443 0001:2FC2
  1444 0001:2FC6  1445 0001:2FC7  1446 0001:2FC8  1447 0001:2FC9
  1449 0001:2FCA  1450 0001:2FCD  1451 0001:2FCF  1452 0001:2FD2
  1453 0001:2FD8  1454 0001:2FDC  1455 0001:2FE0  1456 0001:2FE3
  1457 0001:2FE6  1469 0001:2FEC  1470 0001:2FF1  1472 0001:2FF5
  1473 0001:2FFC  1474 0001:2FFD  1475 0001:2FFE  1476 0001:2FFF
  1477 0001:3000  1509 0001:3004  1510 0001:300E  1511 0001:300F
  1512 0001:3011  1513 0001:3014  1515 0001:3017  1527 0001:301D
  1529 0001:3021  1530 0001:3024  1531 0001:3027  1532 0001:302A
  1533 0001:302C  1534 0001:302F  1535 0001:3031  1536 0001:3032
  1537 0001:3035  1538 0001:3037  1539 0001:3039  1540 0001:303B
  1544 0001:303D  1545 0001:3041  1546 0001:3043  1547 0001:3046
  1548 0001:3048  1549 0001:3049  1550 0001:304B  1552 0001:304E
  1553 0001:3051  1554 0001:3053  1555 0001:3057  1556 0001:305A
  1557 0001:305C  1558 0001:305D  1561 0001:305F  1562 0001:3060
  1563 0001:3062  1564 0001:3068  1565 0001:306B  1566 0001:306E
  1567 0001:306F  1568 0001:3072  1569 0001:3078  1570 0001:307A
  1571 0001:307C  1572 0001:307E  1573 0001:3081  1574 0001:3086
  1575 0001:3088  1576 0001:3089  1578 0001:308C  1579 0001:3091
  1581 0001:3095  1582 0001:309D  1583 0001:30A3  1586 0001:30A5
  1587 0001:30A8  1588 0001:30A9  1589 0001:30AC  1590 0001:30AD
  1591 0001:30AF  1592 0001:30B5  1593 0001:30B8  1594 0001:30BB
  1595 0001:30BE  1596 0001:30C1  1597 0001:30C4  1598 0001:30C5
  1600 0001:30C8  1601 0001:30CB  1603 0001:30CE  1604 0001:30CF
  1627 0001:30D9  1628 0001:30DF  1629 0001:30E2  1633 0001:30E4
  1634 0001:30F4  1635 0001:30FA  1636 0001:30FC  1637 0001:30FE
  1638 0001:3105  1661 0001:310C  1662 0001:3112  1663 0001:3115
  1667 0001:3117  1668 0001:3127  1669 0001:312D  1670 0001:312F
  1671 0001:3131  1672 0001:3138  1697 0001:313F  1698 0001:3146
  1699 0001:314C  1700 0001:314E  1701 0001:3150  1702 0001:3156
  1703 0001:3158  1704 0001:315A  1706 0001:315C  1729 0001:3164
  1730 0001:3168  1731 0001:316E  1735 0001:3173  1736 0001:3176
  1737 0001:3177  1738 0001:3178  1740 0001:3179  1741 0001:317C
  1753 0001:317F  1754 0001:3181  1755 0001:3183  1757 0001:3185
  1758 0001:318B  1759 0001:318D  1760 0001:3193  1761 0001:3195
  1762 0001:3196  1763 0001:319A  1764 0001:31B0  1765 0001:31B2
  1766 0001:31B4  1767 0001:31B9  1768 0001:31BC  1769 0001:31BE
  1770 0001:31C0  1773 0001:31C2  1776 0001:31C3  1777 0001:31C4
  1778 0001:31C5  1779 0001:31C6  1806 0001:31CA  1807 0001:31CE
  1808 0001:31D7  1813 0001:31DC  1814 0001:31E2  1816 0001:31E7
  1817 0001:31F3  1818 0001:31F6  1819 0001:31F9  1821 0001:31FC
  1822 0001:3201  1823 0001:3203  1824 0001:3204  1828 0001:3206
  1829 0001:320B  1832 0001:320E  1833 0001:3210  1834 0001:3212
  1838 0001:3217  1840 0001:3219  1871 0001:3220  1872 0001:3225
  1874 0001:322A  1875 0001:322D  1888 0001:3230  1889 0001:3235
  1890 0001:3237  1891 0001:3238  1892 0001:323A  1897 0001:323C
  1898 0001:3241  1901 0001:3243  1943 0001:3244  1944 0001:3246
  1946 0001:325C  1947 0001:325E  1948 0001:3260  1950 0001:3262
  1951 0001:3266  1952 0001:3268  1956 0001:326A  1957 0001:326C
  1958 0001:326F  1959 0001:3271  1961 0001:3274  1962 0001:3276
  1963 0001:3278  1967 0001:327B  1968 0001:327D  1972 0001:327F
  1976 0001:3282  1978 0001:3285  1979 0001:3289  1980 0001:328B
  1981 0001:328D  1985 0001:328F  1987 0001:3292  1988 0001:3296
  1989 0001:3298  1990 0001:329A  1991 0001:329C  1992 0001:32A0
  1993 0001:32A2  1994 0001:32A4  1996 0001:32A6  1997 0001:32A9
  1998 0001:32AB  1999 0001:32AD  2000 0001:32AF  2001 0001:32B0
  2002 0001:32B2  2003 0001:32B4  2004 0001:32B5  2006 0001:32B7
  2007 0001:32BC  2008 0001:32BF  2009 0001:32C1  2010 0001:32C3
  2011 0001:32C8  2014 0001:32CA  2015 0001:32CC  2019 0001:32CD
  2020 0001:32CF  2023 0001:32D1  2026 0001:32D3  2028 0001:32D5
  2029 0001:32D7  2030 0001:32D9  2034 0001:32DB  2035 0001:32DC
  2036 0001:32E8  2037 0001:32E9  2067 0001:32EB  2068 0001:32F2
  2069 0001:32F4  2070 0001:32F7  2072 0001:32F9  2084 0001:32FF
  2085 0001:3304  2086 0001:3309  2087 0001:330C  2088 0001:3311
  2089 0001:3316  2092 0001:3318  2112 0001:331E  2113 0001:3320
  2137 0001:3325  2138 0001:332C  2139 0001:332E  2140 0001:3331
  2142 0001:3333  2154 0001:3339  2155 0001:333E  2156 0001:3343
  2157 0001:3346  2158 0001:334B  2159 0001:3350  2160 0001:3354
  2161 0001:3358  2162 0001:335C  2163 0001:3360  2166 0001:3362
  2186 0001:3368  2187 0001:336A  2211 0001:336F  2212 0001:3372
  2217 0001:3373  2218 0001:337D  2219 0001:3380  2220 0001:3383
  2221 0001:3385  2223 0001:3387  2224 0001:3389  2225 0001:338B
  2227 0001:338E  2240 0001:3394  2241 0001:3398  2245 0001:339D
  2246 0001:339F  2248 0001:33A2  2268 0001:33A8  2270 0001:33AA
  2274 0001:33B2  2275 0001:33B6  2276 0001:33BC  2300 0001:33C1
  2301 0001:33C8  2302 0001:33CA  2303 0001:33CD  2305 0001:33D0
  2317 0001:33D6  2318 0001:33DA  2320 0001:33DD  2340 0001:33E3
  2341 0001:33E5  2342 0001:33E8  2474 0001:33EF  2475 0001:33F0
  2476 0001:33F1  2477 0001:33F3  2478 0001:33F6  2479 0001:33FA
  2482 0001:33FC  2483 0001:33FF  2492 0001:3401  2493 0001:3408
  2494 0001:340B  2495 0001:340E  2496 0001:3410  2497 0001:3412
  2498 0001:3415  2509 0001:3418  2510 0001:341B  2511 0001:341E
  2513 0001:3420  2525 0001:3426  2526 0001:3429  2528 0001:342C
  2529 0001:342F  2530 0001:3432  2532 0001:3435  2533 0001:3437
  2535 0001:343A  2536 0001:343D  2538 0001:3441  2539 0001:3443
  2540 0001:3448  2541 0001:344A  2547 0001:344C  2548 0001:344F
  2554 0001:3451  2555 0001:3454  2556 0001:3457  2557 0001:3459
  2560 0001:345A  2561 0001:345F  2562 0001:3461  2563 0001:3465
  2564 0001:3467  2565 0001:346A  2568 0001:346D  2569 0001:3470
  2570 0001:3473  2572 0001:3476  2576 0001:3479  2577 0001:347E
  2578 0001:3480  2579 0001:3483  2582 0001:3485  2583 0001:3488
  2584 0001:348B  2585 0001:348E  2588 0001:3490  2589 0001:3492
  2591 0001:3494  2592 0001:3497  2621 0001:349E  2622 0001:34A2
  2623 0001:34A5  2624 0001:34A8  2626 0001:34AB  2638 0001:34B1
  2639 0001:34B4  2640 0001:34B6  2642 0001:34B9  2668 0001:34BE
  2669 0001:34C3  2671 0001:34C6  2672 0001:34C9  2673 0001:34CB
  2674 0001:34D1  2675 0001:34D3  2676 0001:34D6  2677 0001:34D9
  2687 0001:34DC  2716 0001:34E1  2717 0001:34E6  2719 0001:34E9
  2720 0001:34EA  2721 0001:34ED  2722 0001:34EF  2723 0001:34F5
  2724 0001:34F8  2725 0001:34FB  2726 0001:34FE  2727 0001:3500
  2728 0001:3504  2729 0001:3507  2730 0001:350D  2746 0001:350E
  2747 0001:3510  2778 0001:3515  2780 0001:351A  2781 0001:3520
  2782 0001:3524  2784 0001:3526  2785 0001:3529  2788 0001:352B
  2789 0001:352E  2790 0001:3532  2791 0001:3535  2792 0001:3537
  2794 0001:353A  2795 0001:353B  2796 0001:353E  2797 0001:3540
  2798 0001:3546  2799 0001:3549  2800 0001:354F  2808 0001:3550
  2812 0001:3552  2824 0001:3557  2825 0001:355B  2826 0001:355C
  2827 0001:355D  2828 0001:3563  2830 0001:3565  2831 0001:356A
  2832 0001:356D  2833 0001:3581  2834 0001:3585  2837 0001:3587
  2838 0001:3588  2839 0001:358B  2840 0001:358D  2841 0001:3590
  2842 0001:3596  2843 0001:3599  2845 0001:359A  2846 0001:359B
  2848 0001:359C  2857 0001:35A0  2858 0001:35A7  2876 0001:35AA
  2877 0001:35BE  2878 0001:35BF  2879 0001:35C2  2880 0001:35C8
  2882 0001:35C9  2889 0001:35D0  2890 0001:35D6  2891 0001:35D8
  2892 0001:35D9  2893 0001:35DA  2894 0001:35DF  2895 0001:35F3
  2896 0001:35F6  2897 0001:35F7  2898 0001:35F8  2899 0001:35FB
  2900 0001:35FD  2902 0001:35FE  2903 0001:35FF  2904 0001:3600
  2905 0001:3603  2906 0001:3605  2907 0001:3607  2908 0001:360D
  2909 0001:3611  2910 0001:3614  2911 0001:3615  2912 0001:3616
  2913 0001:3619  2914 0001:361B  2944 0001:361C  2945 0001:3622
  2946 0001:362A  2947 0001:3632  2948 0001:3634  2949 0001:3636
  2950 0001:363C  2951 0001:363E  2952 0001:3640  2953 0001:3646
  2954 0001:3649  2983 0001:3650  2984 0001:3656  2985 0001:365E
  2986 0001:3666  2987 0001:3668  2988 0001:366A  2989 0001:3670
  2990 0001:3672  2991 0001:3674  2992 0001:367A  2993 0001:367C
  3145 0001:3683  3146 0001:3689  3147 0001:368E  3149 0001:3692
  3150 0001:3695  3151 0001:3698  3152 0001:369A  3153 0001:369D
  3154 0001:36A0  3158 0001:36A7  3159 0001:36AB  3164 0001:36AC
  3165 0001:36B1  3170 0001:36B2  3171 0001:36B7  3177 0001:36B8
  3178 0001:36BD  3179 0001:36BF  3182 0001:36C0  3190 0001:36C1
  3191 0001:36C6  3192 0001:36CC  3196 0001:36D2  3197 0001:36D6
  3205 0001:36DC  3206 0001:36DE  3208 0001:36E0  3209 0001:36E2
  3211 0001:36E6  3219 0001:36EB  3220 0001:36EF  3221 0001:36F8
  3229 0001:36FD  3230 0001:3702  3231 0001:3708  3232 0001:370A
  3233 0001:370D  3234 0001:3712  3371 0001:3718  3372 0001:371C
  3373 0001:3725  3377 0001:372A  3378 0001:372D  3379 0001:3731
  3380 0001:3733  3381 0001:3736  3383 0001:3738  3384 0001:373A
  3386 0001:373C  3388 0001:373F  3397 0001:3745  3398 0001:3749
  3399 0001:374F  3400 0001:3754  3406 0001:3759  3407 0001:375D
  3408 0001:3760  3409 0001:3766  3438 0001:376B  3439 0001:3771
  3441 0001:3773  3442 0001:3774  3443 0001:3777  3444 0001:3779
  3445 0001:377F  3446 0001:3782  3447 0001:3788  3458 0001:3789
  3459 0001:378E  3461 0001:3792  3462 0001:3797  3463 0001:3799
  3489 0001:379D  3490 0001:37A7  3491 0001:37AA  3494 0001:37AD
  3495 0001:37AF  3496 0001:37B2  3497 0001:37B8  3498 0001:37BB
  3499 0001:37BF  3500 0001:37C2  3501 0001:37C4  3502 0001:37C7
  3503 0001:37CA  3504 0001:37CD  3520 0001:37D3  3521 0001:37D8
  3523 0001:37DC  3524 0001:37E3  3549 0001:37ED  3550 0001:37EF
  3556 0001:37F1  3557 0001:37F8  3558 0001:37FA  3559 0001:37FB
  3560 0001:3800  3576 0001:3801  3577 0001:3807  3579 0001:3809
  3580 0001:380A  3583 0001:380F  3584 0001:3811  3585 0001:3813
  3586 0001:3816  3587 0001:3817  3590 0001:3819  3591 0001:381B
  3593 0001:381D  3594 0001:3821  3602 0001:3823  3603 0001:3824
  3605 0001:3826  3606 0001:3827  3607 0001:3829  3608 0001:382C
  3609 0001:3831  3610 0001:3834  3611 0001:3835  3612 0001:3836
  3649 0001:3837  3650 0001:3839  3651 0001:383B  3652 0001:383C
  3653 0001:383F  3654 0001:3842  3655 0001:3845  3656 0001:3848
  3657 0001:3849  3658 0001:384A  3674 0001:384B  3675 0001:384C
  3678 0001:384E  3679 0001:3850  3765 0001:3851  3771 0001:385B
  3777 0001:3860  3778 0001:3863  3779 0001:3867  3780 0001:3869
  3781 0001:386B  3782 0001:386D  3783 0001:3872  3789 0001:3875
  3790 0001:3878  3791 0001:3879  3798 0001:387C  3800 0001:3882
  3801 0001:3886  3803 0001:3888  3804 0001:388B  3808 0001:388D
  3810 0001:389D  3811 0001:389F  3813 0001:38A1  3814 0001:38A4
  3820 0001:38A7  3821 0001:38AA  3823 0001:38AD  3824 0001:38B0
  3826 0001:38B3  3829 0001:38B5  3830 0001:38B6  3832 0001:38B7
  3833 0001:38BA  3835 0001:38BD  3836 0001:38C0  3838 0001:38C3
  3839 0001:38C4  3841 0001:38C5  3842 0001:38C8  3846 0001:38CA
  3848 0001:38DA  3849 0001:38DC  3851 0001:38DE  3852 0001:38E1
  3861 0001:38E4  3862 0001:38E9  3863 0001:38EC  3864 0001:38EE
  3873 0001:38F3  3874 0001:38F6  3875 0001:38F9  3876 0001:38FB
  3878 0001:38FD  3879 0001:3900  3880 0001:3904  3881 0001:3906
  3884 0001:3909  3885 0001:390A  3886 0001:390D  3893 0001:3910
  3894 0001:3916  3895 0001:3917  3896 0001:3919  3900 0001:391C
  3901 0001:391D  3903 0001:3920  3905 0001:3922  3906 0001:3925
  3907 0001:3928  3908 0001:392A  3909 0001:392D  3910 0001:3930
  3912 0001:3933  3913 0001:3936  3914 0001:3938  3918 0001:393A
  3919 0001:393D  3920 0001:3940  3922 0001:3942  3926 0001:3944
  3927 0001:3946  3928 0001:3949  3929 0001:394B  3930 0001:394D
  3931 0001:3950  3932 0001:3952  3933 0001:3955  3934 0001:3958
  3935 0001:3959  3937 0001:395B  3938 0001:395C  3940 0001:395E
  3941 0001:3961  3942 0001:3964  3943 0001:3967  3945 0001:396A
  3946 0001:396B  3947 0001:3970  3948 0001:3976  3951 0001:3977
  3952 0001:3979  3953 0001:397B  3956 0001:3980  3957 0001:3981
  3958 0001:3984  3959 0001:3986  3961 0001:3987  3962 0001:398A
  3963 0001:398D  3964 0001:398F  3967 0001:3991  3968 0001:3994
  3969 0001:3997  3970 0001:3998  3971 0001:399B  3972 0001:399E
  3973 0001:39A0  3974 0001:39A3  3977 0001:39A5  3978 0001:39A9
  3982 0001:39AB  3983 0001:39AE  3986 0001:39B1  3987 0001:39B4
  3988 0001:39B8  3989 0001:39BB  3990 0001:39BE  3992 0001:39C1
  3993 0001:39C4  3994 0001:39C7  3998 0001:39CA  4000 0001:39CB
  4001 0001:39CC  4002 0001:39CF  4011 0001:39D1  4012 0001:39D7
  4014 0001:39D8  4022 0001:39DD  4023 0001:39DF  4024 0001:39E2
  4025 0001:39E6  4026 0001:39E8  4027 0001:39EA  4030 0001:39EC
  4031 0001:39F0  4032 0001:39F2  4034 0001:39F5  4036 0001:39F8
  4064 0001:3A12  4068 0001:3A16  4069 0001:3A19  4070 0001:3A1F
  4074 0001:3A21  4075 0001:3A24  4076 0001:3A29  4077 0001:3A2D
  4078 0001:3A32  4079 0001:3A36  4081 0001:3A3A  4082 0001:3A3D
  4083 0001:3A40  4087 0001:3A43  4088 0001:3A46  4089 0001:3A49
  4092 0001:3A4F

Line numbers for 2protect.obj(2protect.ASM) segment _NRESTEXT

  4104 0002:0482  4106 0002:0485  4107 0002:0487  4108 0002:0489
  4115 0002:048D  4117 0002:0490  4118 0002:0492  4119 0002:0494
  4125 0002:0498  4127 0002:049B  4128 0002:049D  4129 0002:049F
  4134 0002:04A3  4135 0002:04A7

Line numbers for 2gmoreme.obj(2gmoreme.ASM) segment _TEXT

    83 0001:3A54    84 0001:3A59    86 0001:3A5D    87 0001:3A5F
    88 0001:3A62   119 0001:3A63   120 0001:3A67   121 0001:3A69
   122 0001:3A6F   123 0001:3A71   124 0001:3A76   125 0001:3A77
   126 0001:3A7C   167 0001:3A7D   168 0001:3A81   169 0001:3A84
   170 0001:3A87   172 0001:3A89   173 0001:3A8B   174 0001:3A8F
   175 0001:3A93   176 0001:3A95   178 0001:3A98   179 0001:3A9C
   180 0001:3A9E   181 0001:3AA2   182 0001:3AA4   183 0001:3AA6
   184 0001:3AAA   185 0001:3AAC   186 0001:3AAD   187 0001:3AB1
   188 0001:3AB4   189 0001:3AB5   192 0001:3AB7   194 0001:3ABB
   195 0001:3ABF   196 0001:3AC3   198 0001:3AC5   199 0001:3AC9
   200 0001:3ACB   201 0001:3ACF   202 0001:3AD1   203 0001:3AD3
   204 0001:3AD7   205 0001:3AD9   206 0001:3ADA   207 0001:3ADE
   208 0001:3AE1   209 0001:3AE2   211 0001:3AE4   212 0001:3AE8
   214 0001:3AE9   217 0001:3AEB   218 0001:3AED   219 0001:3AF2
   220 0001:3AF4   221 0001:3AF5   222 0001:3AF6   223 0001:3AFA
   224 0001:3AFD   225 0001:3B00   226 0001:3B02   227 0001:3B03
   228 0001:3B04   234 0001:3B06   235 0001:3B16   236 0001:3B18
   237 0001:3B19   238 0001:3B1A   239 0001:3B1C   242 0001:3B1E
   243 0001:3B20   244 0001:3B22   246 0001:3B24   249 0001:3B27
   250 0001:3B2A   252 0001:3B2C   253 0001:3B2E   255 0001:3B30
   257 0001:3B32   258 0001:3B33   259 0001:3B35   260 0001:3B37
   261 0001:3B38   262 0001:3B3A   263 0001:3B3B   264 0001:3B3D
   266 0001:3B3E   267 0001:3B40   268 0001:3B42   320 0001:3B43
   321 0001:3B4A   322 0001:3B4D   323 0001:3B4F   324 0001:3B52
   325 0001:3B54   326 0001:3B57   328 0001:3B59   329 0001:3B5C
   330 0001:3B5E   331 0001:3B61   333 0001:3B63   334 0001:3B66
   335 0001:3B69   338 0001:3B6B   339 0001:3B6E   340 0001:3B71
   341 0001:3B74   344 0001:3B76   345 0001:3B78   348 0001:3B7A
   349 0001:3B7C   353 0001:3B7E   354 0001:3B8E   355 0001:3B94
   356 0001:3B96   359 0001:3B98   360 0001:3B9B   361 0001:3B9E
   362 0001:3BA1   364 0001:3BA4   365 0001:3BA7   411 0001:3BAC
   413 0001:3BB0   414 0001:3BB2   415 0001:3BB4   416 0001:3BB7
   417 0001:3BBA   418 0001:3BBD   420 0001:3BC0   421 0001:3BC3
   424 0001:3BC6   426 0001:3BCA   427 0001:3BCE   428 0001:3BD0
   429 0001:3BD5   431 0001:3BD7   432 0001:3BDB   433 0001:3BDC
   436 0001:3BDE   437 0001:3BE1   438 0001:3BE3   439 0001:3BE6
   440 0001:3BE9   441 0001:3BEC   443 0001:3BEE   444 0001:3BF1
   445 0001:3BF3   447 0001:3BF6   448 0001:3BF9   449 0001:3BFB
   450 0001:3BFD   451 0001:3BFF   452 0001:3C03   453 0001:3C05
   454 0001:3C07   455 0001:3C09   456 0001:3C0B   457 0001:3C0F
   459 0001:3C11   460 0001:3C13   461 0001:3C16   462 0001:3C1A
   463 0001:3C1D   465 0001:3C1F   467 0001:3C21   468 0001:3C23
   469 0001:3C28   471 0001:3C2A   472 0001:3C2E   473 0001:3C2F
   474 0001:3C33   475 0001:3C38   476 0001:3C3A   479 0001:3C3C
   480 0001:3C3F   481 0001:3C41   482 0001:3C43   483 0001:3C46
   485 0001:3C48   486 0001:3C4B   487 0001:3C4D   489 0001:3C50
   490 0001:3C54   491 0001:3C56   493 0001:3C58   494 0001:3C5A
   495 0001:3C5C   496 0001:3C5D   497 0001:3C5E   498 0001:3C64
   499 0001:3C67   503 0001:3C69   504 0001:3C79   505 0001:3C7B
   506 0001:3C7D   507 0001:3C7E   508 0001:3C7F   510 0001:3C80
   552 0001:3C82   553 0001:3C83   554 0001:3C84   555 0001:3C86
   556 0001:3C88   557 0001:3C8A   558 0001:3C8C   567 0001:3C8E
   568 0001:3C90   569 0001:3C92   571 0001:3C94   575 0001:3C97
   582 0001:3C99   583 0001:3C9B   584 0001:3C9E   585 0001:3CA0
   586 0001:3CA1   587 0001:3CA5   588 0001:3CA8   589 0001:3CA9
   591 0001:3CAB   592 0001:3CB1   593 0001:3CB3   596 0001:3CB6
   597 0001:3CB7   598 0001:3CB8   599 0001:3CB9   600 0001:3CBC
   601 0001:3CC1   602 0001:3CC8   603 0001:3CCA   604 0001:3CCC
   605 0001:3CD1   607 0001:3CD6   608 0001:3CD7   609 0001:3CD9
   611 0001:3CDB   612 0001:3CE0   613 0001:3CE5   614 0001:3CE7
   615 0001:3CE8   616 0001:3CED   617 0001:3CF2   618 0001:3CF4
   619 0001:3CF5   637 0001:3CFA   638 0001:3CFE   640 0001:3D01
   642 0001:3D06   643 0001:3D0B   645 0001:3D10   647 0001:3D11
   648 0001:3D13   649 0001:3D15   651 0001:3D17   652 0001:3D19
   653 0001:3D1D   655 0001:3D20   656 0001:3D25   658 0001:3D2A
   671 0001:3D2E   675 0001:3D2F   676 0001:3D30   677 0001:3D31
   678 0001:3D32   679 0001:3D34   682 0001:3D36   683 0001:3D3A
   684 0001:3D3C   685 0001:3D41   686 0001:3D48   687 0001:3D4A
   688 0001:3D4F   689 0001:3D54   694 0001:3D56   695 0001:3D5A
   696 0001:3D5C   697 0001:3D5F   698 0001:3D61   700 0001:3D63
   704 0001:3D68   706 0001:3D6A   711 0001:3D6F   713 0001:3D72
   714 0001:3D74   715 0001:3D75   716 0001:3D76   719 0001:3D77
   720 0001:3D82   721 0001:3D84   756 0001:3D86   757 0001:3D8A
   758 0001:3D8C   759 0001:3D91   760 0001:3D96   761 0001:3D98
   763 0001:3D9C   764 0001:3D9F   765 0001:3DA1   766 0001:3DA3
   767 0001:3DA8   768 0001:3DAC   769 0001:3DAE   771 0001:3DB3
   773 0001:3DB6   775 0001:3DB8   815 0001:3DBD   816 0001:3DC2
   817 0001:3DC7   818 0001:3DCA   819 0001:3DCC   820 0001:3DD0
   821 0001:3DD3   822 0001:3DD5   823 0001:3DD7   825 0001:3DD9
   827 0001:3DDD   828 0001:3DE0   829 0001:3DE2   830 0001:3DE4
   831 0001:3DE7   832 0001:3DE9   845 0001:3DEB   846 0001:3DEC
   847 0001:3DEE   848 0001:3DF1   849 0001:3DF4   851 0001:3DF6
   852 0001:3DFB   854 0001:3DFD   855 0001:3E02   856 0001:3E04
   857 0001:3E07   858 0001:3E0A   859 0001:3E0D   860 0001:3E0F
   861 0001:3E11   863 0001:3E13   864 0001:3E16   866 0001:3E18
   867 0001:3E1A   868 0001:3E1C   869 0001:3E1D   870 0001:3E1F
   871 0001:3E21   874 0001:3E23   875 0001:3E27   876 0001:3E28
   877 0001:3E2D   878 0001:3E2E   879 0001:3E30   880 0001:3E32
   882 0001:3E36   883 0001:3E39   884 0001:3E3C   885 0001:3E3E
   886 0001:3E40   888 0001:3E42   899 0001:3E47   900 0001:3E4C
   901 0001:3E51   903 0001:3E55   904 0001:3E57   905 0001:3E5A
   906 0001:3E5D   907 0001:3E60   908 0001:3E66   909 0001:3E68
   910 0001:3E6A   911 0001:3E6D   912 0001:3E70

Line numbers for 2gcompac.obj(2gcompac.ASM) segment _TEXT

   105 0001:3E76   106 0001:3E77   107 0001:3E7A   108 0001:3E7C
   109 0001:3E80   110 0001:3E85   113 0001:3E8A   115 0001:3E8F
   116 0001:3E90   117 0001:3E93   118 0001:3E95   119 0001:3E98
   120 0001:3E9B   122 0001:3E9E   123 0001:3EA2   124 0001:3EA4
   125 0001:3EA5   127 0001:3EA7   128 0001:3EAA   129 0001:3EAD
   130 0001:3EB0   131 0001:3EB1   132 0001:3EB3   133 0001:3EB5
   134 0001:3EB7   135 0001:3EBA   137 0001:3EBC   138 0001:3EC0
   139 0001:3EC2   140 0001:3EC5   142 0001:3EC7   143 0001:3EC8
   144 0001:3ECB   146 0001:3ECC   147 0001:3ECE   149 0001:3ED0
   150 0001:3ED1   151 0001:3ED2   152 0001:3ED3   153 0001:3ED6
   154 0001:3ED8   155 0001:3EDC   156 0001:3EDE   157 0001:3EE3
   158 0001:3EE9   159 0001:3EEB   160 0001:3EF0   161 0001:3EF5
   162 0001:3EF8   163 0001:3EFA   164 0001:3EFD   165 0001:3EFF
   166 0001:3F04   167 0001:3F06   168 0001:3F07   169 0001:3F09
   170 0001:3F0B   171 0001:3F0D   172 0001:3F0F   173 0001:3F12
   174 0001:3F14   175 0001:3F16   176 0001:3F19   177 0001:3F1C
   178 0001:3F1E   179 0001:3F1F   180 0001:3F29   181 0001:3F2A
   182 0001:3F2F   183 0001:3F36   184 0001:3F37   185 0001:3F38
   186 0001:3F39   187 0001:3F3A   226 0001:3F3B   227 0001:3F3E
   228 0001:3F40   230 0001:3F41   231 0001:3F45   233 0001:3F47
   234 0001:3F4A   235 0001:3F4C   236 0001:3F4D   239 0001:3F4E
   240 0001:3F52   241 0001:3F54   242 0001:3F57   243 0001:3F59
   244 0001:3F5A   245 0001:3F5D   246 0001:3F5F   247 0001:3F63
   248 0001:3F65   249 0001:3F6A   250 0001:3F6C   251 0001:3F70
   252 0001:3F75   253 0001:3F77   254 0001:3F7C   255 0001:3F7E
   256 0001:3F83   261 0001:3F85   262 0001:3F8A   263 0001:3F8C
   264 0001:3F90   265 0001:3F92   266 0001:3F94   267 0001:3F97
   268 0001:3F99   269 0001:3F9C   270 0001:3F9E   272 0001:3FA0
   273 0001:3FA4   275 0001:3FA6   276 0001:3FA7   277 0001:3FA8
   278 0001:3FAA   281 0001:3FAB   282 0001:3FAC   283 0001:3FAF
   284 0001:3FB1   285 0001:3FB2   286 0001:3FB5   287 0001:3FB6
   289 0001:3FB8   290 0001:3FB9   291 0001:3FBC   292 0001:3FBD
   294 0001:3FBF   295 0001:3FC2   296 0001:3FC4   297 0001:3FC5
   298 0001:3FC7   299 0001:3FC9   300 0001:3FCB   301 0001:3FCF
   302 0001:3FD1   303 0001:3FD2   304 0001:3FD5   305 0001:3FD7
   306 0001:3FDB   307 0001:3FDD   308 0001:3FE1   309 0001:3FE6
   310 0001:3FE8   311 0001:3FED   312 0001:3FEE   313 0001:3FF0
   315 0001:3FF1   316 0001:3FF2   317 0001:3FF4   318 0001:3FF6
   319 0001:3FF7   320 0001:3FF9   321 0001:3FFD   322 0001:3FFE
   323 0001:4002   324 0001:4004   325 0001:4006   326 0001:4007
   366 0001:400A   367 0001:400B   368 0001:400E   369 0001:4010
   370 0001:4014   371 0001:4017   372 0001:4018   373 0001:401A
   374 0001:401D   375 0001:401F   376 0001:4022   378 0001:4024
   379 0001:4025   380 0001:4028   382 0001:402B   389 0001:402C
   390 0001:4030   392 0001:4034   393 0001:4036   394 0001:4037
   395 0001:403A   435 0001:403C   436 0001:4040   437 0001:4041
   438 0001:4046   439 0001:4047   440 0001:404A   441 0001:404C
   442 0001:404D   444 0001:404F   447 0001:4050   448 0001:4052
   449 0001:4054   489 0001:4056   490 0001:4059   491 0001:405B
   492 0001:405F   495 0001:4061   496 0001:4062   497 0001:4064
   498 0001:4068   499 0001:4069   501 0001:406A   502 0001:406F
   503 0001:4070   504 0001:4071   507 0001:4075   508 0001:4076
   510 0001:4077   511 0001:4079   513 0001:407B   514 0001:407E
   515 0001:4082   516 0001:4086   517 0001:408A   518 0001:408E
   519 0001:4092   520 0001:4096   521 0001:409A   523 0001:409C
   525 0001:409F   526 0001:40A3   527 0001:40A7   528 0001:40AB
   529 0001:40AF   530 0001:40B3   531 0001:40B7   532 0001:40BB
   534 0001:40BE   535 0001:40BF   539 0001:40C0   540 0001:40C4
   541 0001:40C6   542 0001:40C8   543 0001:40CB   544 0001:40CD
   546 0001:40D0   547 0001:40D2   548 0001:40D4   549 0001:40D8
   550 0001:40DC   552 0001:40DE   553 0001:40DF   554 0001:40E1
   555 0001:40E4   556 0001:40E8   557 0001:40EB   560 0001:40EC
   561 0001:40EE   562 0001:40EF   563 0001:40F1   564 0001:40F3
   569 0001:40F7   570 0001:40F8   571 0001:40FC   572 0001:40FE
   573 0001:4100   574 0001:4104   575 0001:4105   576 0001:4109
   577 0001:410B   578 0001:410D   579 0001:4111   580 0001:4113
   581 0001:4117   582 0001:4119   583 0001:411B   585 0001:4120
   586 0001:4123   587 0001:4124   588 0001:4125   589 0001:412C
   590 0001:412E   591 0001:4130   592 0001:4134   593 0001:4136
   597 0001:4138   598 0001:4148   599 0001:414A   600 0001:414B
   601 0001:414C   602 0001:414E   603 0001:414F   604 0001:4153
   608 0001:4158   609 0001:4159   610 0001:415A   611 0001:415E
   612 0001:4162   613 0001:4164   614 0001:4168   615 0001:416A
   616 0001:416E   618 0001:4170   619 0001:4174   620 0001:4176
   623 0001:4177   624 0001:417A   625 0001:417C   626 0001:417E
   666 0001:417F   667 0001:4180   669 0001:4181   670 0001:4185
   671 0001:4188   673 0001:418B   674 0001:418C   676 0001:418D
   677 0001:418E   678 0001:418F   679 0001:4194   684 0001:41A0
   685 0001:41A1   686 0001:41A2   687 0001:41A6   688 0001:41A8
   689 0001:41AA   691 0001:41AC   692 0001:41AF   693 0001:41B2
   695 0001:41B3   697 0001:41B5   698 0001:41B9   699 0001:41BD
   702 0001:41C0   703 0001:41C4   704 0001:41C6   705 0001:41C8
   709 0001:41C9   710 0001:41CB   712 0001:41CD   713 0001:41D0
   714 0001:41D3   715 0001:41D4   717 0001:41D5   718 0001:41D6
   720 0001:41D7   721 0001:41DC   722 0001:41E1   723 0001:41E3
   724 0001:41E5   725 0001:41E7   726 0001:41E9   728 0001:41EC
   734 0001:41F1   735 0001:41F2   736 0001:41F3   737 0001:41F4
   738 0001:41F5   740 0001:41FA   741 0001:41FC   746 0001:41FE
   748 0001:420E   749 0001:420F   750 0001:4213   752 0001:4214
   753 0001:4217   759 0001:421A   760 0001:421C   761 0001:421E
   763 0001:4220   765 0001:4222   766 0001:4223   768 0001:4226
   769 0001:422C   773 0001:422E   778 0001:422F   779 0001:4230
   780 0001:4232   781 0001:4234   782 0001:4236   783 0001:4238
   784 0001:4239   786 0001:423B   787 0001:423D   789 0001:423F
   790 0001:4241   791 0001:4245   793 0001:4247   794 0001:4249
   795 0001:424C   796 0001:424E   797 0001:4250   800 0001:4252
   801 0001:4254   804 0001:4256   805 0001:4259   806 0001:425B
   807 0001:425D   809 0001:425F   810 0001:4261   812 0001:4264
   813 0001:4266   814 0001:4269   816 0001:426B   817 0001:426C
   819 0001:426D   820 0001:426F   822 0001:4271   823 0001:4273
   827 0001:4275   828 0001:4277   830 0001:4279   831 0001:427B
   833 0001:427D   836 0001:427F   838 0001:4280   839 0001:4281
   843 0001:4282   845 0001:4286   847 0001:4287   848 0001:428C
   849 0001:4292   850 0001:4294   853 0001:4297   854 0001:4298
   857 0001:4299   858 0001:429A   899 0001:429B   900 0001:429C
   901 0001:429D   902 0001:429F   903 0001:42A1   905 0001:42A5
   906 0001:42A9   907 0001:42AB   908 0001:42AF   909 0001:42B1
   910 0001:42B4   911 0001:42B6   912 0001:42BA   914 0001:42BC
   915 0001:42BE   917 0001:42C2   918 0001:42C5   919 0001:42C7
   920 0001:42C8   921 0001:42C9   922 0001:42CB   923 0001:42CD
   925 0001:42D0   973 0001:42D1   974 0001:42D2   975 0001:42D3
   976 0001:42D5   977 0001:42D9   978 0001:42DD   979 0001:42DF
   980 0001:42E3   981 0001:42E5   982 0001:42E7   984 0001:42E9
   985 0001:42EB   987 0001:42EF   988 0001:42F1   989 0001:42F3
   990 0001:42F6   991 0001:42F8   992 0001:42FB   994 0001:42FD
   996 0001:42FE   997 0001:4301   998 0001:4304  1000 0001:4307
  1001 0001:4308  1002 0001:430B  1003 0001:430E  1004 0001:4310
  1005 0001:4311  1006 0001:4313  1007 0001:4316  1008 0001:4318
  1009 0001:431A  1010 0001:431C  1013 0001:431E  1014 0001:4321
  1015 0001:4325  1016 0001:4329  1017 0001:432D  1018 0001:4331
  1019 0001:4333  1020 0001:4335  1022 0001:4338  1023 0001:433C
  1024 0001:4340  1025 0001:4344  1026 0001:4348  1027 0001:434B
  1028 0001:434F  1029 0001:4351  1030 0001:4354  1031 0001:4356
  1033 0001:4359  1034 0001:435A  1035 0001:435E  1036 0001:4361
  1037 0001:4365  1038 0001:4368  1040 0001:4369  1042 0001:436B
  1043 0001:436E  1044 0001:4370  1045 0001:4372  1046 0001:4375
  1047 0001:4377  1048 0001:4379  1049 0001:437B  1050 0001:437D
  1051 0001:4381  1052 0001:4386  1054 0001:4388  1056 0001:438A
  1057 0001:438B  1058 0001:438C  1099 0001:438D  1100 0001:4393
  1102 0001:4395  1103 0001:4398  1105 0001:439A  1106 0001:439E
  1107 0001:43A0  1108 0001:43A5  1109 0001:43A7  1110 0001:43AA
  1112 0001:43AB  1113 0001:43AE  1114 0001:43B0  1115 0001:43B3
  1117 0001:43B4  1118 0001:43B6  1120 0001:43B7  1121 0001:43B9
  1166 0001:43BA  1167 0001:43BB  1169 0001:43BC  1170 0001:43C0
  1171 0001:43C2  1173 0001:43C5  1174 0001:43C7  1175 0001:43CB
  1177 0001:43CD  1178 0001:43D0  1179 0001:43D2  1180 0001:43D5
  1182 0001:43D6  1183 0001:43DA  1184 0001:43DF  1185 0001:43E1
  1186 0001:43E3  1187 0001:43E7  1188 0001:43EA  1189 0001:43EC
  1190 0001:43EE  1191 0001:43F1  1193 0001:43F3  1195 0001:43F7
  1196 0001:43F9  1199 0001:43FA  1200 0001:43FD  1201 0001:4401
  1202 0001:4403  1203 0001:4407  1205 0001:440A  1206 0001:440B
  1207 0001:440C  1208 0001:440E  1209 0001:4410  1210 0001:4411
  1211 0001:4415  1212 0001:4416  1213 0001:441A  1214 0001:441C
  1215 0001:4420  1216 0001:4422  1217 0001:4427  1218 0001:4429
  1219 0001:442B  1220 0001:442D  1221 0001:4431  1222 0001:4433
  1224 0001:4437  1225 0001:4438  1226 0001:443B  1227 0001:443C
  1228 0001:443E  1229 0001:4442  1230 0001:4444  1232 0001:4446
  1233 0001:444A  1234 0001:444C  1235 0001:4450  1236 0001:4453
  1238 0001:4455  1239 0001:4456  1241 0001:4457  1242 0001:445B
  1243 0001:445C  1244 0001:445D  1287 0001:445E  1288 0001:445F
  1289 0001:4463  1290 0001:4465  1291 0001:4466  1292 0001:4469
  1293 0001:446A  1294 0001:446C  1295 0001:446F  1296 0001:4473
  1297 0001:4477  1298 0001:4479  1299 0001:447C  1300 0001:447E
  1301 0001:447F  1303 0001:4484  1304 0001:4485  1323 0001:4486
  1324 0001:4487  1325 0001:4488  1326 0001:4489  1327 0001:448A
  1328 0001:448B  1329 0001:448C  1330 0001:448D  1331 0001:448F
  1336 0001:4492  1338 0001:4495  1343 0001:449A  1344 0001:449E
  1349 0001:44A1  1350 0001:44A4  1351 0001:44A6  1356 0001:44A8
  1361 0001:44A9  1362 0001:44AC  1363 0001:44AE  1364 0001:44B2
  1365 0001:44B4  1366 0001:44B7  1367 0001:44BB  1374 0001:44BD
  1375 0001:44C1  1376 0001:44C4  1377 0001:44C6  1378 0001:44CB
  1383 0001:44CD  1384 0001:44D0  1386 0001:44D3  1391 0001:44D6
  1396 0001:44DA  1397 0001:44DD  1398 0001:44E1  1399 0001:44E4
  1400 0001:44E7  1401 0001:44EA  1406 0001:44EE  1407 0001:44F4
  1408 0001:44FA  1413 0001:4500  1414 0001:4501  1415 0001:4502
  1416 0001:4507  1417 0001:450A  1418 0001:450D  1419 0001:4513
  1420 0001:4514  1425 0001:4515  1430 0001:4519  1435 0001:451C
  1436 0001:451F  1437 0001:4521  1439 0001:4523  1441 0001:4526
  1442 0001:4528  1443 0001:4529  1444 0001:452A  1445 0001:452B
  1446 0001:452C  1447 0001:452D  1448 0001:452E  1449 0001:452F

Line numbers for lhandle.obj(lhandle.ASM) segment _TEXT

    56 0001:4530    57 0001:4533    58 0001:4535    59 0001:4537
    60 0001:4538    61 0001:4539    62 0001:453C    63 0001:453E
    64 0001:453F    65 0001:4540    66 0001:4543    67 0001:4544
    68 0001:4545    69 0001:4547    70 0001:4549    71 0001:454A
    73 0001:454B    75 0001:454D    78 0001:4550    80 0001:4552
    81 0001:4555    82 0001:4557    83 0001:4559    86 0001:455A
    87 0001:455C    88 0001:455D    89 0001:455E   121 0001:455F
   122 0001:4561   123 0001:4563   124 0001:4566   126 0001:4569
   127 0001:456A   129 0001:456C   130 0001:456E   131 0001:4571
   133 0001:4573   134 0001:4575   136 0001:4576   137 0001:4577
   172 0001:4578   173 0001:457A   176 0001:457D   177 0001:457E
   179 0001:4580   180 0001:4581   181 0001:4584   182 0001:4586
   184 0001:4588   185 0001:458A   224 0001:458B   225 0001:458D
   226 0001:458F   229 0001:4592   230 0001:4594   231 0001:4596
   232 0001:4598   234 0001:4599   236 0001:459B   241 0001:459E
   242 0001:459F   245 0001:45A1   247 0001:45A2   248 0001:45A6
   250 0001:45A8   251 0001:45AA   253 0001:45AC   254 0001:45AE
   255 0001:45B1   257 0001:45B3   258 0001:45B5   261 0001:45B7
   262 0001:45B9   265 0001:45BA   267 0001:45BD   268 0001:45BF
   269 0001:45C0

Line numbers for 2galloc.obj(2galloc.ASM) segment _TEXT

   140 0001:45C2   141 0001:45C7   143 0001:45CD   147 0001:45D1
   148 0001:45D2   149 0001:45D3   150 0001:45D4   151 0001:45D7
   152 0001:45DA   154 0001:45DB   155 0001:45DC   156 0001:45DE
   158 0001:45E1   162 0001:45E2   163 0001:45E4   164 0001:45E5
   165 0001:45E8   166 0001:45EA   168 0001:45ED   169 0001:45F1
   170 0001:45F5   171 0001:45F7   173 0001:45F9   176 0001:45FC
   177 0001:45FF   178 0001:4601   185 0001:4603   186 0001:4606
   188 0001:4609   189 0001:460D   190 0001:4611   191 0001:4613
   193 0001:4616   195 0001:4618   201 0001:461A   202 0001:461C
   203 0001:461E   204 0001:4620   205 0001:4623   206 0001:4625
   212 0001:4628   213 0001:462B   214 0001:462E   216 0001:4631
   217 0001:4632   218 0001:4633   219 0001:4636   220 0001:4638
   221 0001:463A   222 0001:463B   223 0001:463C   224 0001:463F
   225 0001:4641   226 0001:4644   229 0001:4646   230 0001:4647
   233 0001:4648   234 0001:4649   235 0001:464D   236 0001:464F
   237 0001:4653   238 0001:4656   239 0001:4657   241 0001:4659
   242 0001:465C   243 0001:465E   244 0001:465F   245 0001:4662
   246 0001:4663   247 0001:4666   248 0001:4669   249 0001:466A
   252 0001:466C   253 0001:466D   254 0001:466E   255 0001:466F
   257 0001:4670   258 0001:4671   260 0001:4672   261 0001:4675
   262 0001:4677   263 0001:4678   264 0001:4679   265 0001:467D
   266 0001:4680   267 0001:4681   268 0001:4682   271 0001:4684
   273 0001:4687   274 0001:4689   275 0001:468B   276 0001:468C
   277 0001:468D   278 0001:4690   279 0001:4692   282 0001:4694
   283 0001:4695   290 0001:4696   291 0001:4697   292 0001:4698
   293 0001:4699   295 0001:469A   296 0001:469C   297 0001:469E
   298 0001:46A2   299 0001:46A4   302 0001:46A7   303 0001:46AC
   304 0001:46B0   306 0001:46B4   313 0001:46B5   314 0001:46B8
   315 0001:46BD   316 0001:46C3   320 0001:46C7   321 0001:46C8
   322 0001:46C9   323 0001:46CA   324 0001:46CB   331 0001:46CE
   332 0001:46D3   333 0001:46D9   335 0001:46DD   336 0001:46E0
   343 0001:46E2   344 0001:46E4   345 0001:46E7   346 0001:46E9
   348 0001:46EC   349 0001:46F0   350 0001:46F4   351 0001:46F6
   352 0001:46F8   354 0001:46FA   356 0001:46FC   357 0001:46FD
   359 0001:46FE   360 0001:46FF   361 0001:4700   362 0001:4702
   374 0001:4703   375 0001:4704   376 0001:4709   378 0001:470E
   380 0001:470F   383 0001:4711   384 0001:4712   386 0001:4713
   387 0001:4714   389 0001:4715   390 0001:4716   391 0001:4717
   392 0001:471B   393 0001:471C   394 0001:471D   395 0001:471F
   396 0001:4721   397 0001:4722   398 0001:4723   399 0001:4724
   400 0001:4727   401 0001:4729   407 0001:472B   408 0001:472F
   409 0001:4730   410 0001:4732   411 0001:4734   412 0001:4736
   413 0001:4739   415 0001:473B   416 0001:473F   417 0001:4741
   419 0001:4744   420 0001:4745   421 0001:474A   422 0001:474F
   424 0001:4750   425 0001:4752   428 0001:4755   429 0001:4757
   430 0001:475A   432 0001:475C   433 0001:475E   434 0001:4761
   436 0001:4763   437 0001:4767   438 0001:4769   439 0001:476A
   440 0001:476D   441 0001:476F   449 0001:4773   450 0001:4774
   451 0001:4775   452 0001:4779   453 0001:477A   454 0001:477E
   455 0001:4782   456 0001:4783   457 0001:4785   458 0001:4787
   459 0001:478A   460 0001:478C   462 0001:478E   464 0001:4792
   466 0001:4794   467 0001:4797   469 0001:4799   470 0001:479A
   471 0001:479D   473 0001:47A1   474 0001:47A2   475 0001:47A4
   476 0001:47A7   477 0001:47A8   479 0001:47A9   480 0001:47AB
   481 0001:47AC   482 0001:47AD   484 0001:47B0   485 0001:47B2
   524 0001:47B3   526 0001:47B5   527 0001:47B9   528 0001:47BB
   529 0001:47BF   530 0001:47C0   531 0001:47C1   532 0001:47C2
   533 0001:47C3   534 0001:47C6   535 0001:47C9   536 0001:47D0
   537 0001:47D2   538 0001:47D4   539 0001:47D5   540 0001:47D6
   541 0001:47D8   542 0001:47D9   543 0001:47DA   548 0001:47DC
   549 0001:47EC   550 0001:47EE   551 0001:47EF   552 0001:47F0
   553 0001:47F1   554 0001:47F3   555 0001:47F5   557 0001:47F7
   558 0001:47FC   559 0001:47FE   560 0001:4804   561 0001:4806
   562 0001:480A   563 0001:480C   565 0001:4810   566 0001:4811
   567 0001:4813   568 0001:4815   569 0001:481A   582 0001:481C
   584 0001:481F   586 0001:4820   626 0001:4821   627 0001:4822
   628 0001:4823   629 0001:4825   630 0001:4829   631 0001:482B
   632 0001:482D   633 0001:482E   634 0001:4832   635 0001:4834
   636 0001:4836   637 0001:4837   638 0001:4838   640 0001:4839
   644 0001:483D   645 0001:483E   646 0001:483F   647 0001:4840
   648 0001:4841   649 0001:4846   650 0001:4848   651 0001:484A
   652 0001:484D   654 0001:4850   655 0001:4851   656 0001:4856
   657 0001:4858   658 0001:4859   659 0001:485B   660 0001:485D
   661 0001:485E   663 0001:4861   664 0001:4864   665 0001:4866
   666 0001:486A   668 0001:486D   669 0001:4871   670 0001:4873
   671 0001:4878   672 0001:487A   673 0001:487F   675 0001:4881
   676 0001:4882   677 0001:4885   678 0001:4886   679 0001:4888
   680 0001:488C   681 0001:488D   683 0001:488E   684 0001:488F
   685 0001:4892   686 0001:4895   687 0001:4896   688 0001:4897
   689 0001:4898   690 0001:4899   691 0001:489A   694 0001:489C
   697 0001:489E   698 0001:489F   699 0001:48A0   701 0001:48A2
   705 0001:48A5   706 0001:48A6   707 0001:48A7   708 0001:48A8
   709 0001:48AF   710 0001:48B1   711 0001:48B3   712 0001:48B6
   713 0001:48B8   714 0001:48BA   715 0001:48BD   717 0001:48BF
   718 0001:48C2   721 0001:48C5   722 0001:48C9   723 0001:48CB
   725 0001:48CD   726 0001:48CF   727 0001:48D0   732 0001:48D2
   733 0001:48E2   734 0001:48E4   735 0001:48E5   736 0001:48E7
   738 0001:48E9   739 0001:48EB   740 0001:48EF   741 0001:48F1
   745 0001:48F3   746 0001:4903   747 0001:4907   748 0001:4909
   749 0001:490A   753 0001:490B   754 0001:490F   756 0001:4912
   757 0001:4913   758 0001:4918   759 0001:491D   761 0001:491E
   762 0001:4920   765 0001:4923   769 0001:4926   770 0001:492C
   771 0001:4930   772 0001:4934   773 0001:4936   774 0001:4937
   775 0001:4938   777 0001:493B   778 0001:493C   779 0001:493D
   780 0001:493E   781 0001:493F   782 0001:4940   783 0001:4941
   788 0001:4944   790 0001:4945   791 0001:4949   792 0001:494E
   793 0001:4950   794 0001:4952   795 0001:4954   796 0001:4958
   797 0001:495A   799 0001:495C   800 0001:4961   801 0001:4963
   802 0001:4964   803 0001:4966   804 0001:4969   808 0001:496A
   809 0001:496D   811 0001:4970   812 0001:4975   813 0001:4977
   814 0001:4978   815 0001:497C   817 0001:497E   820 0001:4982
   821 0001:4983   822 0001:4984   823 0001:4985   824 0001:4986
   825 0001:4987   826 0001:4989   866 0001:498A   867 0001:498B
   869 0001:498C   870 0001:4990   871 0001:4992   872 0001:4995
   873 0001:4997   875 0001:4999   876 0001:499C   878 0001:499E
   880 0001:49A0   881 0001:49A1   882 0001:49A2   928 0001:49A3
   929 0001:49A4   930 0001:49A8   931 0001:49A9   932 0001:49AD
   937 0001:49AF   939 0001:49B0   940 0001:49B4   941 0001:49B9
   942 0001:49BB   943 0001:49BF   944 0001:49C1   945 0001:49C6
   946 0001:49C7   948 0001:49C9   949 0001:49CA   950 0001:49CB
   951 0001:49CC   952 0001:49CD   953 0001:49D0   954 0001:49D3
   955 0001:49DA   956 0001:49DC   957 0001:49DE   958 0001:49DF
   959 0001:49E0   963 0001:49E2   964 0001:49F2   965 0001:49F4
   966 0001:49F6   968 0001:49F8   971 0001:49FA   972 0001:49FB
   973 0001:49FC   975 0001:49FE   977 0001:4A00   978 0001:4A02
   979 0001:4A03  1016 0001:4A04  1017 0001:4A05  1018 0001:4A06
  1019 0001:4A08  1020 0001:4A0C  1022 0001:4A0E  1023 0001:4A0F
  1024 0001:4A10  1028 0001:4A11  1029 0001:4A12  1030 0001:4A17
  1031 0001:4A1A  1033 0001:4A1C  1034 0001:4A1D  1039 0001:4A1F
  1040 0001:4A21  1044 0001:4A23  1045 0001:4A33  1046 0001:4A37
  1047 0001:4A39  1048 0001:4A3B  1053 0001:4A42  1054 0001:4A44
  1055 0001:4A45  1056 0001:4A46  1057 0001:4A47  1058 0001:4A4A
  1059 0001:4A4B  1060 0001:4A4C  1061 0001:4A4E  1062 0001:4A52
  1063 0001:4A54  1064 0001:4A58  1065 0001:4A5A  1066 0001:4A5E
  1067 0001:4A62  1068 0001:4A63  1069 0001:4A67  1070 0001:4A6B
  1071 0001:4A70  1072 0001:4A74  1073 0001:4A78  1074 0001:4A7A
  1075 0001:4A7B  1076 0001:4A7F  1077 0001:4A80  1078 0001:4A81
  1079 0001:4A82  1117 0001:4A83  1118 0001:4A84  1119 0001:4A85
  1120 0001:4A88  1121 0001:4A8B  1122 0001:4A8F  1123 0001:4A93
  1125 0001:4A97  1126 0001:4A99  1127 0001:4A9D  1128 0001:4A9F
  1131 0001:4AA0  1132 0001:4AA7  1133 0001:4AAB  1134 0001:4AAC
  1135 0001:4AAE  1136 0001:4AB2  1137 0001:4AB3  1138 0001:4AB7
  1139 0001:4AB8  1140 0001:4AB9  1179 0001:4ABA  1180 0001:4ABB
  1181 0001:4AC0  1182 0001:4AC7  1186 0001:4AC9  1187 0001:4ACA
  1188 0001:4ACB  1189 0001:4ACC  1190 0001:4ACD  1192 0001:4ACE
  1193 0001:4ACF  1194 0001:4AD1  1195 0001:4AD3  1197 0001:4AD5
  1198 0001:4AD6  1199 0001:4AD8  1200 0001:4ADA  1201 0001:4ADB
  1202 0001:4ADF  1204 0001:4AE0  1207 0001:4AE2  1208 0001:4AE3
  1209 0001:4AE7  1210 0001:4AE9  1211 0001:4AED  1214 0001:4AEE
  1215 0001:4AF1  1216 0001:4AF3  1217 0001:4AF5  1219 0001:4AF7
  1220 0001:4AF9  1221 0001:4AFC  1222 0001:4AFE  1223 0001:4B00
  1225 0001:4B02  1226 0001:4B04  1229 0001:4B06  1230 0001:4B07
  1231 0001:4B08  1232 0001:4B09  1233 0001:4B0A  1234 0001:4B0B
  1235 0001:4B0C  1243 0001:4B0D  1244 0001:4B0F  1245 0001:4B11
  1247 0001:4B13  1248 0001:4B17  1249 0001:4B1B  1250 0001:4B1D
  1251 0001:4B20  1253 0001:4B23  1254 0001:4B24  1256 0001:4B28
  1257 0001:4B2A  1258 0001:4B2C  1259 0001:4B2E  1260 0001:4B2F
  1315 0001:4B30  1316 0001:4B33  1317 0001:4B35  1318 0001:4B37
  1322 0001:4B39  1323 0001:4B3D  1324 0001:4B41  1328 0001:4B46
  1329 0001:4B47  1330 0001:4B49  1334 0001:4B4D  1335 0001:4B51
  1336 0001:4B55  1337 0001:4B59  1338 0001:4B5B  1340 0001:4B5E
  1341 0001:4B5F  1342 0001:4B63  1343 0001:4B65  1344 0001:4B69
  1346 0001:4B6C  1347 0001:4B6E  1348 0001:4B6F  1349 0001:4B73
  1350 0001:4B75  1353 0001:4B79  1356 0001:4B7C  1357 0001:4B7E
  1393 0001:4B7F  1394 0001:4B83  1396 0001:4B85  1397 0001:4B86
  1398 0001:4B87  1399 0001:4B88  1400 0001:4B8A  1401 0001:4B8C
  1403 0001:4B8E  1412 0001:4B91  1414 0001:4B93  1415 0001:4B96
  1416 0001:4B99  1417 0001:4B9B  1418 0001:4B9E  1421 0001:4BA0
  1422 0001:4BA3  1424 0001:4BA6  1425 0001:4BAA  1427 0001:4BAE
  1428 0001:4BB0  1431 0001:4BB3  1435 0001:4BB6  1436 0001:4BB7
  1437 0001:4BB8  1440 0001:4BB9  1473 0001:4BBA  1474 0001:4BBB
  1475 0001:4BBC  1476 0001:4BBD  1477 0001:4BC1  1478 0001:4BC5
  1479 0001:4BC8  1480 0001:4BCC  1481 0001:4BCD  1483 0001:4BCE
  1485 0001:4BD1  1488 0001:4BD2  1490 0001:4BD5  1505 0001:4BD6
  1506 0001:4BD7  1507 0001:4BD8  1508 0001:4BD9  1510 0001:4BDA
  1515 0001:4BDC  1516 0001:4BDE  1518 0001:4BE1  1519 0001:4BE3
  1524 0001:4BE5  1525 0001:4BE7  1527 0001:4BE9  1528 0001:4BEC
  1529 0001:4BEE  1535 0001:4BF1  1537 0001:4BF4  1538 0001:4BF5
  1539 0001:4BF6  1540 0001:4BF7  1541 0001:4BF8  1542 0001:4BF9
  1544 0001:4BFA  1545 0001:4BFB  1570 0001:4BFD  1571 0001:4BFE
  1573 0001:4BFF  1574 0001:4C01  1576 0001:4C05  1577 0001:4C06
  1579 0001:4C07  1580 0001:4C0A  1581 0001:4C0D  1583 0001:4C10
  1584 0001:4C14  1586 0001:4C16  1587 0001:4C19  1588 0001:4C1B
  1592 0001:4C1F  1593 0001:4C22  1594 0001:4C25  1595 0001:4C28
  1596 0001:4C2F  1600 0001:4C31  1601 0001:4C32  1603 0001:4C33
  1604 0001:4C34  1606 0001:4C35  1607 0001:4C38  1611 0001:4C3B
  1612 0001:4C4B  1613 0001:4C4D  1614 0001:4C4F  1616 0001:4C52
  1617 0001:4C53  1619 0001:4C54  1623 0001:4C5B  1626 0001:4C5D
  1628 0001:4C5F  1629 0001:4C63  1630 0001:4C69  1631 0001:4C6D
  1632 0001:4C71  1633 0001:4C75  1634 0001:4C79  1635 0001:4C7D
  1637 0001:4C81  1639 0001:4C83  1640 0001:4C87  1641 0001:4C8B
  1642 0001:4C8F  1643 0001:4C93  1644 0001:4C97  1645 0001:4C9B
  1646 0001:4C9F  1648 0001:4CA3  1649 0001:4CA4  1650 0001:4CA5
  1652 0001:4CA6  1653 0001:4CAA  1654 0001:4CAC  1658 0001:4CAE
  1659 0001:4CBE  1660 0001:4CC1  1662 0001:4CC4  1663 0001:4CC6
  1664 0001:4CC8  1666 0001:4CCA  1667 0001:4CCC  1668 0001:4CCE
  1670 0001:4CD2  1672 0001:4CD3  1674 0001:4CD5  1675 0001:4CD9
  1676 0001:4CDD  1677 0001:4CE3  1678 0001:4CE7  1679 0001:4CEB
  1680 0001:4CEF  1681 0001:4CF3  1682 0001:4CF7  1684 0001:4CFB
  1698 0001:4CFC  1699 0001:4CFD  1700 0001:4CFE  1701 0001:4D00
  1707 0001:4D03  1708 0001:4D06  1709 0001:4D09  1714 0001:4D0C
  1715 0001:4D10  1716 0001:4D12  1718 0001:4D14  1722 0001:4D16
  1724 0001:4D19  1725 0001:4D1D  1726 0001:4D1F  1727 0001:4D21
  1729 0001:4D23  1730 0001:4D25  1735 0001:4D27  1740 0001:4D2A
  1744 0001:4D2C  1745 0001:4D30  1746 0001:4D34  1753 0001:4D36
  1754 0001:4D3A  1755 0001:4D3D  1756 0001:4D41  1761 0001:4D43
  1762 0001:4D47  1767 0001:4D4A  1768 0001:4D4D  1769 0001:4D51
  1770 0001:4D55  1771 0001:4D57  1772 0001:4D5A  1773 0001:4D5C
  1778 0001:4D60  1779 0001:4D63  1780 0001:4D65  1785 0001:4D69
  1786 0001:4D6C  1788 0001:4D6E  1789 0001:4D70  1790 0001:4D74
  1795 0001:4D77  1796 0001:4D7A  1797 0001:4D80  1798 0001:4D84
  1799 0001:4D88  1800 0001:4D8C  1801 0001:4D90  1806 0001:4D94
  1807 0001:4D97  1808 0001:4D9B  1809 0001:4DA1  1810 0001:4DA4
  1811 0001:4DA8  1812 0001:4DAE  1813 0001:4DB4  1814 0001:4DB7
  1819 0001:4DBB  1820 0001:4DBD  1821 0001:4DC1  1822 0001:4DC3
  1823 0001:4DC7  1824 0001:4DCA  1829 0001:4DCE  1830 0001:4DD4
  1831 0001:4DD7  1833 0001:4DDA  1834 0001:4DDC  1835 0001:4DDE
  1837 0001:4DE4  1838 0001:4DE6  1840 0001:4DE8  1841 0001:4DEB
  1846 0001:4DEE  1851 0001:4DF1  1852 0001:4DF4  1853 0001:4DF7
  1858 0001:4DFA  1859 0001:4DFD  1860 0001:4E00  1862 0001:4E03
  1863 0001:4E05  1864 0001:4E06  1865 0001:4E07  1891 0001:4E08
  1892 0001:4E09  1893 0001:4E0A  1894 0001:4E0B  1895 0001:4E0C
  1896 0001:4E0D  1897 0001:4E0E  1898 0001:4E10  1900 0001:4E13
  1904 0001:4E18  1905 0001:4E1B  1906 0001:4E1E  1907 0001:4E23
  1909 0001:4E25  1910 0001:4E28  1915 0001:4E2A  1916 0001:4E2F
  1921 0001:4E31  1927 0001:4E35  1928 0001:4E37  1929 0001:4E3A
  1930 0001:4E3C  1932 0001:4E3E  1933 0001:4E40  1934 0001:4E43
  1939 0001:4E46  1940 0001:4E47  1941 0001:4E4D  1942 0001:4E4F
  1943 0001:4E50  1948 0001:4E52  1949 0001:4E56  1954 0001:4E5A
  1959 0001:4E61  1964 0001:4E65  1969 0001:4E69  1970 0001:4E6D
  1971 0001:4E6F  1972 0001:4E70  1973 0001:4E71  1974 0001:4E72
  1975 0001:4E73  1976 0001:4E74  1977 0001:4E75  1983 0001:4E76
  1984 0001:4E78  1985 0001:4E7A  1986 0001:4E7D  1987 0001:4E83
  1992 0001:4E85  1993 0001:4E88  1994 0001:4E8C  1995 0001:4E8E
  1996 0001:4E90  1997 0001:4E93  1998 0001:4E96  2006 0001:4E98
  2011 0001:4E9C  2012 0001:4E9D  2013 0001:4EA3  2014 0001:4EA5
  2015 0001:4EA6  2020 0001:4EA8  2021 0001:4EAA  2057 0001:4EAC
  2058 0001:4EAD  2059 0001:4EB2  2060 0001:4EB7  2061 0001:4EB9
  2062 0001:4EBE  2063 0001:4EC0  2064 0001:4EC1  2065 0001:4EC2
  2066 0001:4EC3  2067 0001:4EC4  2068 0001:4EC5  2069 0001:4EC6
  2070 0001:4ECA  2071 0001:4ECC  2072 0001:4ECF  2082 0001:4ED1
  2083 0001:4ED2  2084 0001:4ED4  2085 0001:4ED6  2086 0001:4ED7
  2087 0001:4EDB  2089 0001:4EDC  2092 0001:4EDE  2093 0001:4EDF
  2094 0001:4EE3  2095 0001:4EE5  2096 0001:4EE9  2099 0001:4EEA
  2100 0001:4EED  2101 0001:4EEF  2102 0001:4EF1  2104 0001:4EF3
  2105 0001:4EF5  2106 0001:4EF8  2107 0001:4EFB  2108 0001:4EFD
  2110 0001:4EFF  2111 0001:4F01  2113 0001:4F03  2114 0001:4F04
  2115 0001:4F05  2116 0001:4F06  2117 0001:4F07  2118 0001:4F08
  2120 0001:4F09  2121 0001:4F0A  2157 0001:4F0B  2158 0001:4F0C
  2159 0001:4F11  2160 0001:4F16  2161 0001:4F18  2162 0001:4F19
  2163 0001:4F1A  2164 0001:4F1B  2165 0001:4F1D  2167 0001:4F21
  2168 0001:4F24  2169 0001:4F27  2171 0001:4F2B  2172 0001:4F2E
  2173 0001:4F32  2177 0001:4F34  2178 0001:4F37  2179 0001:4F39
  2180 0001:4F3C  2182 0001:4F40  2183 0001:4F43  2184 0001:4F47
  2186 0001:4F49  2187 0001:4F4A  2188 0001:4F4B  2190 0001:4F4C
  2191 0001:4F4D  2224 0001:4F4E  2225 0001:4F55  2226 0001:4F5A
  2227 0001:4F5F  2228 0001:4F61  2229 0001:4F66  2231 0001:4F68
  2233 0001:4F6A  2234 0001:4F6E  2235 0001:4F70  2236 0001:4F73
  2238 0001:4F75  2239 0001:4F76  2240 0001:4F78  2241 0001:4F7A
  2242 0001:4F7B  2243 0001:4F7F  2245 0001:4F80  2248 0001:4F82
  2249 0001:4F83  2250 0001:4F87  2251 0001:4F89  2252 0001:4F8D
  2255 0001:4F8E  2256 0001:4F91  2257 0001:4F93  2258 0001:4F95
  2260 0001:4F97  2261 0001:4F99  2262 0001:4F9C  2263 0001:4F9F
  2264 0001:4FA1  2265 0001:4FA3  2266 0001:4FA5  2267 0001:4FB0
  2269 0001:4FB2  2270 0001:4FB4  2273 0001:4FB6  2307 0001:4FBE
  2308 0001:4FBF  2309 0001:4FC0  2310 0001:4FC1  2311 0001:4FC2
  2312 0001:4FC3  2313 0001:4FC8  2314 0001:4FCD  2315 0001:4FCF
  2316 0001:4FD4  2318 0001:4FD6  2320 0001:4FD9  2322 0001:4FDD
  2323 0001:4FE0  2324 0001:4FE3  2325 0001:4FE5  2326 0001:4FE7
  2328 0001:4FEA  2329 0001:4FEE  2331 0001:4FF0  2332 0001:4FF4
  2333 0001:4FF8  2334 0001:4FFB  2335 0001:4FFD  2336 0001:4FFF
  2337 0001:5001  2339 0001:5003  2340 0001:5005  2341 0001:5010
  2343 0001:5012  2344 0001:5016  2345 0001:5018  2346 0001:501A
  2347 0001:501C  2350 0001:501E  2351 0001:5020  2353 0001:502B
  2354 0001:502D  2355 0001:502F  2356 0001:5034  2358 0001:5038
  2359 0001:503B  2360 0001:503D  2361 0001:503F  2363 0001:504C
  2364 0001:504D  2365 0001:504E  2366 0001:504F  2367 0001:5050
  2368 0001:5051  2402 0001:5052  2403 0001:5053  2404 0001:5058
  2405 0001:505D  2406 0001:505F  2407 0001:5060  2408 0001:5061
  2409 0001:5062  2410 0001:5064  2412 0001:5068  2413 0001:506B
  2414 0001:506E  2415 0001:5072  2417 0001:5074  2418 0001:5077
  2419 0001:507B  2421 0001:507D  2422 0001:507E  2423 0001:507F
  2425 0001:5080  2426 0001:5081

Line numbers for 2glru.obj(2glru.ASM) segment _TEXT

    75 0001:5082    76 0001:5083    77 0001:5084    78 0001:5085
    79 0001:5086    80 0001:5088    81 0001:508D    82 0001:5092
    83 0001:5094    84 0001:5098    85 0001:509A    87 0001:509E
    88 0001:50A1    90 0001:50A3    93 0001:50A5    94 0001:50A8
    95 0001:50AA    97 0001:50AD    98 0001:50AE   103 0001:50AF
   105 0001:50B4   106 0001:50B6   107 0001:50BA   109 0001:50BE
   112 0001:50D2   113 0001:50D6   114 0001:50D8   117 0001:50D9
   118 0001:50DD   120 0001:50DF   121 0001:50E0   122 0001:50E2
   123 0001:50E5   124 0001:50E8   125 0001:50EE   126 0001:50EF
   127 0001:50F1   133 0001:50F2   134 0001:50F3   135 0001:50F6
   136 0001:50F7   138 0001:50FC   139 0001:50FE   140 0001:50FF
   147 0001:5100   148 0001:5101   149 0001:5102   150 0001:5103
   151 0001:5104   170 0001:5105   171 0001:5108   172 0001:510B
   173 0001:510D   174 0001:510F   176 0001:5112   177 0001:5114
   178 0001:5116   179 0001:511A   180 0001:511E   181 0001:5121
   183 0001:5122   184 0001:5123   185 0001:5124   186 0001:5126
   187 0001:5128   188 0001:5129   189 0001:512D   190 0001:512F
   191 0001:5133   192 0001:5134   193 0001:5138   194 0001:513C
   217 0001:513D   218 0001:513E   219 0001:5142   220 0001:5146
   222 0001:5147   224 0001:5149   225 0001:514C   226 0001:514E
   227 0001:5151   228 0001:5155   229 0001:5159   231 0001:515A
   232 0001:515C   233 0001:515F   234 0001:5161   235 0001:5165
   237 0001:5168   238 0001:516A   240 0001:516E   241 0001:5170
   242 0001:5174   243 0001:5175   244 0001:5177   245 0001:517B
   246 0001:517D   247 0001:5181   249 0001:5182   265 0001:5183
   266 0001:5187   267 0001:5189   268 0001:518B   269 0001:518C
   270 0001:5190   271 0001:5193   272 0001:5194   273 0001:5196
   274 0001:5198   276 0001:519A   314 0001:519B   315 0001:519C
   316 0001:519D   317 0001:519E   318 0001:51A1   320 0001:51A3
   321 0001:51A6   322 0001:51A8   324 0001:51AB   325 0001:51AC
   326 0001:51AD   328 0001:51AE   330 0001:51B1   366 0001:51B2
   367 0001:51B3   368 0001:51B4   369 0001:51B5   370 0001:51B8
   372 0001:51BA   373 0001:51BD   374 0001:51BF   376 0001:51C2
   377 0001:51C3   378 0001:51C4   380 0001:51C5   382 0001:51C8
   422 0001:51C9   423 0001:51CA   424 0001:51CB   426 0001:51CC
   427 0001:51CF   429 0001:51D1   430 0001:51D3   432 0001:51D6
   433 0001:51D7   434 0001:51D8   436 0001:51D9   438 0001:51DC
   474 0001:51DD   475 0001:51DE   476 0001:51DF   478 0001:51E0
   479 0001:51E3   481 0001:51E5   483 0001:51E8   484 0001:51E9
   485 0001:51EA   487 0001:51EB   489 0001:51EE   528 0001:51EF
   529 0001:51F0   530 0001:51F5   531 0001:51FA   532 0001:51FC
   534 0001:51FE   535 0001:51FF   536 0001:5200   537 0001:5201
   538 0001:5202   539 0001:5203   541 0001:5207   543 0001:5209
   544 0001:520C   545 0001:520F   546 0001:5211   547 0001:5213
   549 0001:5215   550 0001:5216   551 0001:5217   553 0001:5219
   554 0001:521D   555 0001:5221   556 0001:5224   557 0001:5226
   558 0001:5228   559 0001:5233   561 0001:5235   562 0001:5239
   563 0001:523B   564 0001:523D   566 0001:5248   567 0001:524A
   568 0001:524C   569 0001:524D   570 0001:524E   571 0001:5251
   572 0001:5253   573 0001:5255   575 0001:5262   576 0001:5264
   577 0001:5266   578 0001:5269   580 0001:526B   581 0001:526C
   582 0001:526D   583 0001:526E   584 0001:526F   586 0001:5270
   587 0001:5271

Line numbers for 2gmem.obj(2gmem.ASM) segment _TEXT

   114 0001:5272   115 0001:5274   116 0001:5277   117 0001:527A
   118 0001:527C   120 0001:527E   122 0001:5281   186 0001:5292
   187 0001:5294   188 0001:5296   189 0001:5299   190 0001:529B
   194 0001:529E   195 0001:52A0   196 0001:52A2   200 0001:52A5
   201 0001:52A6   202 0001:52AB   203 0001:52B0   204 0001:52B6
   206 0001:52BC   208 0001:52BD   209 0001:52C0   210 0001:52C2
   213 0001:52C4   214 0001:52C5   215 0001:52CA   216 0001:52CF
   217 0001:52D5   219 0001:52DB   222 0001:52DC   224 0001:52DD
   225 0001:52DF   229 0001:52E0   230 0001:52E1   231 0001:52E6
   232 0001:52EB   233 0001:52F1   235 0001:52F4   236 0001:52F5
   237 0001:52F7   238 0001:52F9   243 0001:52FB   244 0001:52FD
   245 0001:5301   246 0001:5304   247 0001:5307   249 0001:5309
   250 0001:530D   251 0001:530F   252 0001:5311   253 0001:5313
   254 0001:5318   257 0001:5321   258 0001:5322   259 0001:5324
   260 0001:5326   261 0001:532B   262 0001:532E   263 0001:5330
   264 0001:5333   265 0001:5335   277 0001:5337   279 0001:5339
   280 0001:533D   282 0001:533F   283 0001:5343   285 0001:5345
   286 0001:5348   287 0001:534A   290 0001:534B   291 0001:534D
   293 0001:534F   294 0001:5351   295 0001:5355   296 0001:5357
   297 0001:5359   298 0001:535B   299 0001:5360   300 0001:5362
   301 0001:5364   302 0001:536A   303 0001:536C   305 0001:536E
   306 0001:5373   307 0001:5375   309 0001:5377   310 0001:5379
   313 0001:537A   314 0001:537C   316 0001:537F   317 0001:5395
   318 0001:5397   319 0001:5399   367 0001:539B   368 0001:53A0
   369 0001:53A3   370 0001:53A6   371 0001:53A9   372 0001:53AC
   373 0001:53AF   374 0001:53B2   375 0001:53B4   376 0001:53B7
   377 0001:53BA   378 0001:53BC   380 0001:53BF   381 0001:53C3
   382 0001:53C5   383 0001:53C7   384 0001:53C9   392 0001:53CC
   393 0001:53CE   394 0001:53D0   395 0001:53D4   396 0001:53D6
   397 0001:53D8   398 0001:53DA   399 0001:53DD   400 0001:53DE
   401 0001:53E1   402 0001:53E2   403 0001:53E4   405 0001:53E7
   407 0001:53EF   408 0001:53F1   409 0001:53F4   410 0001:53F7
   411 0001:53F9   412 0001:53FB   413 0001:53FE   416 0001:5401
   417 0001:5417   418 0001:5419   419 0001:541B   433 0001:541E
   434 0001:5421   435 0001:5424   436 0001:5426   437 0001:5428
   438 0001:542A   440 0001:542C   441 0001:542D   442 0001:542E
   443 0001:5432   444 0001:5434   445 0001:5436   446 0001:543A
   447 0001:543E   448 0001:543F   449 0001:5440   454 0001:5442
   455 0001:5445   456 0001:5446   457 0001:5448   458 0001:544C
   459 0001:544F   460 0001:5452   461 0001:5454   463 0001:5457
   464 0001:545C   465 0001:545E   466 0001:545F   467 0001:5462
   468 0001:5464   469 0001:5467   471 0001:5469   472 0001:546A
   473 0001:546B   474 0001:546D   475 0001:546F   476 0001:5474
   477 0001:5475   478 0001:5476   480 0001:5478   483 0001:547B
   484 0001:547E   485 0001:5480   487 0001:5484   488 0001:5487
   495 0001:548A   496 0001:548D   497 0001:548F   498 0001:5491
   499 0001:5494   501 0001:5496   502 0001:5499   503 0001:549B
   504 0001:549E   507 0001:54A0   508 0001:54A3   510 0001:54A6
   511 0001:54A9   512 0001:54AB   513 0001:54AD   514 0001:54AE
   516 0001:54B3   517 0001:54B8   519 0001:54BA   520 0001:54BC
   522 0001:54BE   524 0001:54C0   526 0001:54C1   527 0001:54C4
   528 0001:54C8   529 0001:54C9   530 0001:54CC   531 0001:54CD
   533 0001:54CF   534 0001:54D1   535 0001:54D6   536 0001:54D8
   537 0001:54DA   539 0001:54DB   540 0001:54E0   541 0001:54E2
   542 0001:54E6   543 0001:54EA   544 0001:54ED   547 0001:54EF
   548 0001:54F1   549 0001:54F3   552 0001:54F6   554 0001:54F8
   555 0001:54F9   556 0001:550F   557 0001:5510   559 0001:5512
   569 0001:5515   570 0001:551A   571 0001:551C   574 0001:551D
   575 0001:5521   577 0001:5523   578 0001:5526   579 0001:5528
   580 0001:552B   581 0001:552C   590 0001:552E   591 0001:5532
   592 0001:5536   594 0001:5538   595 0001:553B   596 0001:553E
   599 0001:5541   600 0001:5546   602 0001:5548   603 0001:554B
   605 0001:554D   606 0001:554E   607 0001:5551   608 0001:5554
   609 0001:5556   610 0001:5557   611 0001:5559   612 0001:555C
   613 0001:555F   614 0001:5561   615 0001:5565   617 0001:5567
   618 0001:557D   619 0001:557F   620 0001:5581   629 0001:5584
   630 0001:5589   631 0001:558C   632 0001:5590   633 0001:5592
   634 0001:5596   636 0001:5598   637 0001:559B   638 0001:55A0
   640 0001:55A2   641 0001:55A4   642 0001:55A7   645 0001:55A9
   646 0001:55AE   647 0001:55B0   649 0001:55B3   650 0001:55B5
   651 0001:55B7   652 0001:55BA   653 0001:55BC   654 0001:55BE
   655 0001:55C1   656 0001:55C3   658 0001:55C6   659 0001:55C7
   663 0001:55CB   664 0001:55CD   666 0001:55CE   668 0001:55D1
   669 0001:55D2   670 0001:55D3   671 0001:55D7   675 0001:55D9
   676 0001:55E9   678 0001:55F0   679 0001:55F1   680 0001:55F2
   682 0001:55F4   683 0001:55F6   684 0001:55F8   685 0001:55FD
   686 0001:55FF   697 0001:5601   700 0001:5603   701 0001:5606
   703 0001:5609   704 0001:560C   705 0001:560F   706 0001:5612
   707 0001:5613   709 0001:5615   710 0001:5619   711 0001:561C
   712 0001:561E   715 0001:5621   716 0001:5623   717 0001:5626
   720 0001:5628   721 0001:562E   722 0001:5630   723 0001:5634
   724 0001:5638   725 0001:563C   726 0001:563E   727 0001:5642
   729 0001:5643   730 0001:5645   731 0001:5647   733 0001:5649
   734 0001:564A   735 0001:5660   736 0001:5661   737 0001:5663
   740 0001:5665   741 0001:5666   742 0001:5667   743 0001:5668
   744 0001:5669   745 0001:566C   752 0001:566F   753 0001:5672
   755 0001:5675   756 0001:5677   757 0001:5679   758 0001:567B
   759 0001:567D   760 0001:5681   762 0001:5683   763 0001:5687
   764 0001:568D   765 0001:5693   766 0001:5694   767 0001:5699
   769 0001:569A   770 0001:569D   772 0001:56A0   773 0001:56A4
   774 0001:56A7   776 0001:56A9   777 0001:56AA   778 0001:56AD
   779 0001:56B1   782 0001:56B6   783 0001:56B7   784 0001:56B8
   785 0001:56B9   787 0001:56BA   824 0001:56BD   825 0001:56BF
   829 0001:56C1   830 0001:56D1   831 0001:56D5   832 0001:56D7
   838 0001:56D9   839 0001:56DA   840 0001:56DB   842 0001:56DC
   843 0001:56DE   844 0001:56E2   845 0001:56E4   846 0001:56E6
   847 0001:56E9   848 0001:56EB   850 0001:56ED   851 0001:56F1
   852 0001:56F3   853 0001:56F6   854 0001:56F8   856 0001:56FA
   857 0001:56FC   859 0001:56FF   860 0001:5701   861 0001:5703
   862 0001:5707   863 0001:570A   866 0001:570C   867 0001:570D
   868 0001:570E   872 0001:570F   873 0001:5711   875 0001:5715
   876 0001:5716   879 0001:5717   880 0001:571B   885 0001:571D
   886 0001:5720   888 0001:5722   889 0001:5723   890 0001:5726
   891 0001:5728   892 0001:572A   894 0001:572D   937 0001:572E
   938 0001:572F   939 0001:5730   940 0001:5734   941 0001:5736
   942 0001:5739   943 0001:573A   944 0001:573B   945 0001:573E
   946 0001:573F   947 0001:5740   948 0001:5742   949 0001:5744
   950 0001:5747   951 0001:5749   952 0001:574A   953 0001:574B
   954 0001:574C   955 0001:574F   956 0001:5750   957 0001:5754
   959 0001:5756   960 0001:5758   961 0001:575A   962 0001:575C
   963 0001:575D   964 0001:5762   965 0001:5763   966 0001:5764
   967 0001:5765   968 0001:576F   969 0001:5770   970 0001:5771
   971 0001:5772   972 0001:5774   973 0001:5777   975 0001:577B
   976 0001:577D   977 0001:5781   978 0001:5784   979 0001:5785
   981 0001:5786   982 0001:5787   983 0001:5788   984 0001:5789
  1024 0001:578A  1025 0001:578B  1027 0001:578E  1028 0001:578F
  1029 0001:5791  1030 0001:5794  1033 0001:5796  1034 0001:579B
  1035 0001:579F  1038 0001:57A1  1039 0001:57A3  1073 0001:57A4
  1074 0001:57A6  1075 0001:57A8  1076 0001:57AC  1077 0001:57AE
  1078 0001:57B1  1080 0001:57B3  1081 0001:57B6  1082 0001:57B8
  1083 0001:57BB  1084 0001:57C0  1085 0001:57C4  1087 0001:57C6
  1165 0001:57C7  1166 0001:57CA  1168 0001:57CD  1169 0001:57CE
  1170 0001:57D1  1171 0001:57D2  1172 0001:57D6  1178 0001:57D8
  1179 0001:57D9  1180 0001:57DA  1181 0001:57DB  1182 0001:57E0
  1183 0001:57E5  1184 0001:57EA  1185 0001:57EC  1186 0001:57EE
  1190 0001:57F0  1191 0001:57F2  1192 0001:57F4  1193 0001:57F6
  1194 0001:57F9  1195 0001:57FB  1196 0001:57FE  1199 0001:5801
  1200 0001:5804  1201 0001:5806  1202 0001:5808  1206 0001:5809
  1207 0001:580D  1208 0001:580F  1209 0001:5811  1210 0001:5814
  1211 0001:5816  1212 0001:581A  1213 0001:581F  1214 0001:5821
  1216 0001:5823  1217 0001:5824  1218 0001:5825  1222 0001:5826
  1261 0001:5827  1262 0001:5828  1263 0001:582A  1264 0001:582C
  1267 0001:582F  1268 0001:5830  1302 0001:5831  1303 0001:5832
  1304 0001:5834  1305 0001:5836  1306 0001:5839  1307 0001:583B
  1308 0001:583E  1309 0001:5840  1310 0001:5843  1311 0001:5845
  1313 0001:5848  1315 0001:584A  1316 0001:584B

Line numbers for handle.obj(handle.ASM) segment _TEXT

    51 0001:584C    52 0001:584D    53 0001:584F    57 0001:5850
    58 0001:5853    59 0001:5854    62 0001:5857    65 0001:5858
    67 0001:585A    68 0001:585D    69 0001:585E

Line numbers for emsmisc.obj(emsmisc.ASM) segment _EMS

    52 0001:CC50    54 0001:CC56

Line numbers for emsmisc.obj(emsmisc.ASM) segment _TEXT

    88 0001:5860    90 0001:5862    91 0001:5863   119 0001:5866
   164 0001:5867   165 0001:586D   166 0001:586F   168 0001:5871

Line numbers for winexec.obj(winexec.ASM) segment _NRESTEXT

    48 0002:04AC    52 0002:04B3    53 0002:04B6    54 0002:04B8
    56 0002:04BC    57 0002:04BE    61 0002:04C2    62 0002:04C3
    63 0002:04C5    64 0002:04C7    65 0002:04C9    66 0002:04CB
    67 0002:04CD    68 0002:04CF    72 0002:04D3    73 0002:04D5
    74 0002:04D7    75 0002:04D9    77 0002:04DB    79 0002:04E0
    85 0002:04E1    88 0002:04E3    92 0002:04E5    93 0002:04EA
    95 0002:04EC    96 0002:04EF    97 0002:04F0    98 0002:04F3
   101 0002:04F4   102 0002:04F6   104 0002:04F7   105 0002:04FB
   106 0002:04FC   107 0002:04FE   108 0002:04FF   110 0002:0500
   111 0002:0502   116 0002:0504   117 0002:0505   118 0002:0507
   119 0002:0509   120 0002:050A   126 0002:050C   127 0002:050E
   131 0002:050F   132 0002:0513   133 0002:0515   134 0002:0517
   135 0002:0518   136 0002:0519   141 0002:051C   142 0002:0522
   143 0002:0525   144 0002:0529   145 0002:052B   146 0002:052F
   147 0002:0533   148 0002:0537   149 0002:053B   150 0002:053F
   151 0002:0543   152 0002:0547   153 0002:054B   157 0002:054F
   158 0002:0551   159 0002:0555   160 0002:0559   161 0002:055C
   162 0002:055E   175 0002:0565   176 0002:056D   177 0002:0572
   178 0002:0575   179 0002:0578   180 0002:057B   181 0002:057D
   182 0002:0581   183 0002:0584   184 0002:0588   186 0002:058A
   187 0002:058C   188 0002:058F   189 0002:0592   190 0002:0596
   191 0002:0598   192 0002:059A   193 0002:059D   194 0002:05A0
   197 0002:05A2   199 0002:05A4   200 0002:05A6   201 0002:05A8
   202 0002:05AB   203 0002:05AD   204 0002:05B0   205 0002:05B2
   206 0002:05B6   207 0002:05B9   208 0002:05BC   210 0002:05BE
   211 0002:05C0   212 0002:05C2   213 0002:05C4   216 0002:05C6
   229 0002:05CF   230 0002:05D1   231 0002:05D6   232 0002:05DA
   233 0002:05DC   235 0002:05DF

Line numbers for ldfile.obj(ldfile.ASM) segment _TEXT

    68 0001:5878    69 0001:587E    70 0001:5881    71 0001:5884
    72 0001:5886    73 0001:5889    74 0001:588B    77 0001:588F
    79 0001:5892    80 0001:5895    81 0001:5898    82 0001:589B
    83 0001:589F    84 0001:58A2    85 0001:58A3    86 0001:58A5
    90 0001:58A9    93 0001:58AC    94 0001:58AF    97 0001:58BA
    98 0001:58BB    99 0001:58BC   100 0001:58C6   101 0001:58C7
   109 0001:58C8   110 0001:58CB   111 0001:58CC   112 0001:58CE
   114 0001:58D1   115 0001:58DC   116 0001:58DD   117 0001:58E0
   118 0001:58E4   119 0001:58E8   120 0001:58EA   122 0001:58ED
   123 0001:58EF   124 0001:58F1   126 0001:58F3   127 0001:58F6
   128 0001:58F9   129 0001:58FD   130 0001:58FF   131 0001:5902
   133 0001:5905   134 0001:5908   135 0001:590B   136 0001:590D
   137 0001:5910   138 0001:5915   139 0001:5917   140 0001:591A
   141 0001:591B   142 0001:591C   143 0001:5920   145 0001:5922
   146 0001:5925   147 0001:5928   148 0001:592B   149 0001:592E
   150 0001:5931   151 0001:5935   152 0001:5937   153 0001:593A
   154 0001:593C   155 0001:593F   157 0001:5942   158 0001:5945
   159 0001:5947   160 0001:5949   163 0001:594B   164 0001:594F
   165 0001:5953   166 0001:5956   167 0001:5959   168 0001:595C
   170 0001:595E   171 0001:5966   172 0001:5968   173 0001:596A
   175 0001:596C   176 0001:596F   177 0001:5972   178 0001:5975
   179 0001:5978   180 0001:597C   183 0001:597E   184 0001:5982
   186 0001:5984   187 0001:5985   188 0001:5987   189 0001:5988
   190 0001:5989   191 0001:598B   192 0001:598F   193 0001:5991
   194 0001:5993   195 0001:5995   196 0001:5996   197 0001:5997
   198 0001:5999   199 0001:599C   200 0001:599D   201 0001:59A0
   202 0001:59A2   203 0001:59A3   204 0001:59A5   205 0001:59A7
   206 0001:59AC   207 0001:59AD   208 0001:59AE   209 0001:59B0
   210 0001:59B2   212 0001:59B4   213 0001:59B8   214 0001:59BA
   215 0001:59BB   216 0001:59BC   217 0001:59BE   218 0001:59C0
   219 0001:59C3   220 0001:59C4   221 0001:59C8   222 0001:59CA
   223 0001:59CC   224 0001:59CF   225 0001:59D2   227 0001:59D4
   228 0001:59D6   229 0001:59D9   230 0001:59DB   231 0001:59DE
   232 0001:59E0   233 0001:59E2   234 0001:59E4   235 0001:59E8
   236 0001:59EB   238 0001:59EF   239 0001:59F0   240 0001:59F3
   241 0001:59F5   242 0001:59F9   243 0001:59FB   246 0001:59FD
   247 0001:59FE   248 0001:5A02   249 0001:5A03   250 0001:5A05
   252 0001:5A08   253 0001:5A0A   254 0001:5A0C   255 0001:5A0E
   256 0001:5A11   257 0001:5A13   258 0001:5A16   261 0001:5A18
   262 0001:5A19   264 0001:5A28   266 0001:5A29   267 0001:5A2B
   269 0001:5A2D   270 0001:5A30   271 0001:5A32   272 0001:5A33
   273 0001:5A35   274 0001:5A3A   276 0001:5A3B   277 0001:5A3E
   278 0001:5A41   279 0001:5A42   290 0001:5A48   291 0001:5A4D
   292 0001:5A50   293 0001:5A52   294 0001:5A56   295 0001:5A59
   304 0001:5A5F   305 0001:5A65   306 0001:5A68   307 0001:5A6B
   308 0001:5A6D   309 0001:5A71   310 0001:5A75   311 0001:5A77
   312 0001:5A79   313 0001:5A7A   314 0001:5A7E   315 0001:5A7F
   316 0001:5A82   317 0001:5A83   318 0001:5A85   319 0001:5A87
   320 0001:5A88   321 0001:5A89   322 0001:5A8A   323 0001:5A8B
   325 0001:5A91

Line numbers for ldaux.obj(ldaux.ASM) segment _TEXT

    90 0001:5A98    91 0001:5A9A    92 0001:5A9E    93 0001:5AA0
    94 0001:5AA1    95 0001:5AA4    96 0001:5AA6    97 0001:5AA8
    98 0001:5AAA    99 0001:5AAB   104 0001:5AAD   105 0001:5AAE
   106 0001:5AAF   107 0001:5AB1   108 0001:5AB3   109 0001:5AB5
   110 0001:5AB7   112 0001:5AB9   113 0001:5ABC   114 0001:5ABD
   121 0001:5ABF   122 0001:5AC2   123 0001:5AC4   124 0001:5AC8
   125 0001:5ACA   126 0001:5AD0   127 0001:5AD2   128 0001:5AD8
   130 0001:5ADA   131 0001:5ADD   134 0001:5ADF   135 0001:5AE0
   136 0001:5AE2   137 0001:5AE4   138 0001:5AE8   139 0001:5AEA
   140 0001:5AEC   141 0001:5AED   144 0001:5AEF   145 0001:5AF3
   148 0001:5AF5   149 0001:5AF8   151 0001:5AFB   152 0001:5AFE
   153 0001:5B00   154 0001:5B01   155 0001:5B04   156 0001:5B06
   157 0001:5B07   158 0001:5B0A   160 0001:5B0C   161 0001:5B0E
   163 0001:5B10   164 0001:5B13   165 0001:5B15   167 0001:5B16
   177 0001:5B17   178 0001:5B1D   179 0001:5B20   180 0001:5B23
   181 0001:5B25   182 0001:5B27   183 0001:5B2A   184 0001:5B2D
   185 0001:5B2E   186 0001:5B30   187 0001:5B33   188 0001:5B34
   189 0001:5B37   190 0001:5B3A   191 0001:5B3D   192 0001:5B3F
   193 0001:5B42   194 0001:5B45   196 0001:5B49   198 0001:5B4B
   202 0001:5B4D   209 0001:5B54   210 0001:5B5A   211 0001:5B5D
   212 0001:5B60   213 0001:5B62   214 0001:5B64   217 0001:5B67
   218 0001:5B6A   219 0001:5B71   220 0001:5B75   221 0001:5B76
   222 0001:5B78   225 0001:5B7A   233 0001:5B81   234 0001:5B83
   235 0001:5B86   236 0001:5B88   237 0001:5B89   238 0001:5B8B
   239 0001:5B8D   241 0001:5B8E   242 0001:5B8F   243 0001:5B90
   244 0001:5B92

Line numbers for ldaux.obj(ldaux.ASM) segment _NRESTEXT

   266 0002:05E2   267 0002:05E6   268 0002:05E9   269 0002:05EC
   270 0002:05EF   272 0002:05F2   273 0002:05F4   274 0002:05F6
   275 0002:05F8   276 0002:05FA   288 0002:05FC   290 0002:0601
   291 0002:0602   292 0002:0605   294 0002:0607   295 0002:060C
   296 0002:060E   297 0002:0611   298 0002:0613   299 0002:0616
   309 0002:061B   310 0002:0621   311 0002:0624   312 0002:0626
   313 0002:062C   314 0002:062E   315 0002:0630   316 0002:0632
   317 0002:0634   318 0002:063B   319 0002:063D   321 0002:063F
   323 0002:064C   324 0002:064E   326 0002:0650   328 0002:0652
   330 0002:0655   332 0002:0659   334 0002:065E   335 0002:0662
   336 0002:0664   337 0002:0667   339 0002:0669   340 0002:066D
   341 0002:066F   342 0002:067A   343 0002:067E   344 0002:0681
   346 0002:068A   347 0002:068B   348 0002:068D   351 0002:068F
   353 0002:0696   354 0002:0698   355 0002:069A   397 0002:06A5
   398 0002:06AC   400 0002:06AF   401 0002:06B3   403 0002:06B5
   404 0002:06B9   405 0002:06BB   406 0002:06C6   407 0002:06C7
   408 0002:06C8   409 0002:06CE   410 0002:06CF   411 0002:06D1
   413 0002:06D3   414 0002:06D7   415 0002:06DA   416 0002:06E5
   417 0002:06E6   418 0002:06E7   419 0002:06ED   420 0002:06EE
   421 0002:06F0   423 0002:06F2   424 0002:06F4   425 0002:06F7
   429 0002:06FC   430 0002:06FE   439 0002:0700   440 0002:0703
   441 0002:0707   442 0002:0708   443 0002:070A   444 0002:070C
   445 0002:070F   446 0002:0711   447 0002:0712   448 0002:0714
   449 0002:0715   451 0002:0717   453 0002:071F   454 0002:0723
   466 0002:072A   476 0002:0731   477 0002:0734   478 0002:0736
   479 0002:0738   480 0002:073A   481 0002:073C   483 0002:073F
   484 0002:0743   485 0002:0747   486 0002:0750   487 0002:0752
   491 0002:0754   492 0002:0757   493 0002:0759   494 0002:075B
   495 0002:0763   496 0002:0765   497 0002:0767   498 0002:0769
   499 0002:076D   500 0002:076F   501 0002:0771   502 0002:0774
   506 0002:0777   507 0002:077A   508 0002:077D   509 0002:077F
   510 0002:0782   512 0002:0783   513 0002:0784   514 0002:0786
   515 0002:0788   517 0002:078B   522 0002:078D   523 0002:0790
   531 0002:0798   532 0002:079C   533 0002:07A4   534 0002:07A6
   536 0002:07A8   537 0002:07AA   538 0002:07AE   539 0002:07B0
   549 0002:07B5   550 0002:07BB   551 0002:07BC   552 0002:07C4
   553 0002:07C5   554 0002:07C7   555 0002:07C9   556 0002:07CB
   557 0002:07CE   558 0002:07D0   559 0002:07D3   560 0002:07D5
   561 0002:07D7   562 0002:07D8   563 0002:07DA   564 0002:07DB
   565 0002:07DC   566 0002:07DE

Line numbers for ldaux.obj(ldaux.ASM) segment _MISCTEXT

   628 0003:02E0   629 0003:02E6   635 0003:02EB   636 0003:02EE
   637 0003:02F1   638 0003:02F3   639 0003:02F5   640 0003:02F6
   641 0003:02FC   642 0003:02FD   643 0003:02FF   644 0003:0301
   645 0003:0303   646 0003:030E   652 0003:0311   653 0003:0317
   654 0003:0319   655 0003:0323   656 0003:0326   657 0003:0329
   658 0003:0330   659 0003:0332   664 0003:0335   665 0003:0338
   666 0003:033B   667 0003:033D   668 0003:0341   669 0003:0343
   670 0003:0347   671 0003:0349   672 0003:034B   673 0003:034E
   674 0003:0351   675 0003:0353   676 0003:0355   680 0003:0357
   681 0003:035A   682 0003:035D   683 0003:0365   686 0003:0367
   688 0003:0369   689 0003:036B   690 0003:036F   691 0003:0374
   695 0003:0376   696 0003:037B   697 0003:0382   698 0003:0385
   699 0003:0388   701 0003:038B   702 0003:038E   703 0003:0390
   704 0003:0392   705 0003:0395   706 0003:0396   707 0003:039C
   708 0003:039D   709 0003:039F   711 0003:03A1   712 0003:03A6
   713 0003:03A8   714 0003:03AC   715 0003:03B1   717 0003:03B7
   718 0003:03C2   719 0003:03C4   720 0003:03C5   722 0003:03C7
   723 0003:03C9   724 0003:03CA   725 0003:03D1   726 0003:03D7
   727 0003:03D8   728 0003:03DA   732 0003:03DD   736 0003:03DE
   737 0003:03DF   738 0003:03E3   739 0003:03E6   740 0003:03ED
   741 0003:03EF   742 0003:03F0   743 0003:03F3   744 0003:03F7
   746 0003:03FA   747 0003:03FB   748 0003:03FD   749 0003:03FF
   750 0003:0400   751 0003:0403   752 0003:0404   753 0003:0406
   754 0003:0407   755 0003:040A   756 0003:040B   757 0003:040E
   758 0003:040F   759 0003:0411   761 0003:0412   762 0003:0414
   763 0003:0416   802 0003:041D   804 0003:0422   806 0003:0425
   807 0003:0428   808 0003:042A   809 0003:042E   811 0003:0431
   812 0003:0433   813 0003:0435   814 0003:0437   815 0003:043A
   816 0003:043C   817 0003:043F   818 0003:0441   821 0003:0443
   822 0003:0444   823 0003:0447   824 0003:0449   825 0003:0450
   826 0003:0452   827 0003:0453   828 0003:0456   829 0003:0458
   830 0003:0459   831 0003:045A   832 0003:045B   833 0003:045C
   834 0003:045E   835 0003:0462   836 0003:0463   838 0003:0466
   840 0003:0471   843 0003:0473   851 0003:0479   852 0003:047E
   853 0003:0484   854 0003:0486   855 0003:0488   856 0003:048B
   858 0003:048E   859 0003:048F   861 0003:0493   862 0003:0495
   863 0003:0497   864 0003:0499   865 0003:049D   866 0003:04A1
   868 0003:04A2   869 0003:04A4   870 0003:04A6   871 0003:04AA
   873 0003:04AC   875 0003:04B0   876 0003:04B2   877 0003:04B5
   879 0003:04B8   880 0003:04BA   881 0003:04BB   882 0003:04BC
   883 0003:04BE   885 0003:04BF

Line numbers for atom.obj(atom.ASM) segment _MISCTEXT

    49 0003:04C6    50 0003:04CA    51 0003:04CD    52 0003:04CF
    53 0003:04D1    54 0003:04D4    55 0003:04D6    56 0003:04D8
    58 0003:04DA    59 0003:04DB    60 0003:04DC    61 0003:04DE
    62 0003:04E1    63 0003:04E8    64 0003:04E9    65 0003:04EB
    66 0003:04EE    67 0003:04F0    69 0003:04F2    70 0003:04F4

Line numbers for atom.obj(atom.ASM) segment _TEXT

    83 0001:5B96    87 0001:5B99    91 0001:5B9C   102 0001:5B9E
   105 0001:5BA5   107 0001:5BA8   114 0001:5BAB   116 0001:5BAD
   117 0001:5BB0   118 0001:5BB3   119 0001:5BB7   120 0001:5BB9
   121 0001:5BBB   122 0001:5BBF   123 0001:5BC1   124 0001:5BC7
   126 0001:5BC9   128 0001:5BCC   129 0001:5BCE   130 0001:5BD0
   131 0001:5BD2   133 0001:5BD3   134 0001:5BD5   135 0001:5BD7
   136 0001:5BD9   137 0001:5BDB   142 0001:5BDD   159 0001:5BE0
   160 0001:5BE2   161 0001:5BE4   162 0001:5BE6   163 0001:5BE8
   164 0001:5BEA   165 0001:5BEC   169 0001:5BEE   170 0001:5BEF
   171 0001:5BF1   173 0001:5BF3   174 0001:5BF5   175 0001:5BF7
   176 0001:5BF9   177 0001:5BFB   178 0001:5BFD   179 0001:5BFF
   180 0001:5C02   181 0001:5C04   183 0001:5C06   185 0001:5C09
   186 0001:5C0B   187 0001:5C0F   188 0001:5C11   189 0001:5C13
   192 0001:5C16   193 0001:5C18   196 0001:5C1B   197 0001:5C1D
   198 0001:5C1E   199 0001:5C22   200 0001:5C24   201 0001:5C27
   202 0001:5C29   203 0001:5C2B   204 0001:5C2D   205 0001:5C2F
   207 0001:5C31   208 0001:5C33   209 0001:5C35   211 0001:5C37
   212 0001:5C3A   213 0001:5C3C   214 0001:5C3F   215 0001:5C42
   217 0001:5C44   218 0001:5C46   219 0001:5C47   239 0001:5C48
   240 0001:5C4B   241 0001:5C4D   242 0001:5C50   243 0001:5C53
   244 0001:5C54   245 0001:5C56   247 0001:5C58   248 0001:5C5A
   250 0001:5C5C   251 0001:5C5E   255 0001:5C60   256 0001:5C62
   257 0001:5C65   259 0001:5C67   263 0001:5C69   264 0001:5C6B
   266 0001:5C6D   267 0001:5C70   271 0001:5C72   272 0001:5C74
   273 0001:5C76   274 0001:5C79   275 0001:5C7B   276 0001:5C7D
   277 0001:5C7F   278 0001:5C81   281 0001:5C87   282 0001:5C89
   285 0001:5C8B   286 0001:5C8D   287 0001:5C8E   288 0001:5C91
   289 0001:5C94   290 0001:5C9B   291 0001:5C9C   292 0001:5C9E
   293 0001:5CA0   294 0001:5CA2   295 0001:5CA4   296 0001:5CA7
   297 0001:5CAA   298 0001:5CAC   299 0001:5CAD   300 0001:5CAE
   301 0001:5CB1   302 0001:5CB3   303 0001:5CB6   304 0001:5CB7
   305 0001:5CBA   306 0001:5CBB   307 0001:5CBD   308 0001:5CBE
   309 0001:5CBF   311 0001:5CC1   312 0001:5CC3   313 0001:5CC5
   314 0001:5CC7   315 0001:5CC9   318 0001:5CCC   320 0001:5CD3
   321 0001:5CD6   322 0001:5CD8   327 0001:5CDA   328 0001:5CDE
   329 0001:5CE1   330 0001:5CE5   331 0001:5CE7   332 0001:5CEA
   333 0001:5CED   334 0001:5CF4   336 0001:5CF6   338 0001:5CF8
   343 0001:5CFD   344 0001:5D01   345 0001:5D04   346 0001:5D07
   347 0001:5D09   348 0001:5D0B   349 0001:5D0E   355 0001:5D13
   357 0001:5D19   358 0001:5D1A   359 0001:5D1D   360 0001:5D21
   361 0001:5D23   362 0001:5D25   363 0001:5D28   364 0001:5D2B
   365 0001:5D2F   366 0001:5D31   371 0001:5D34   372 0001:5D37
   373 0001:5D39   374 0001:5D3C   375 0001:5D3E   376 0001:5D41
   377 0001:5D43   378 0001:5D48   381 0001:5D4A   382 0001:5D4D
   384 0001:5D4F   385 0001:5D52   386 0001:5D54   387 0001:5D57
   388 0001:5D59   389 0001:5D5C   391 0001:5D5D   392 0001:5D60
   393 0001:5D62   394 0001:5D64   395 0001:5D68   398 0001:5D6A
   400 0001:5D6D   401 0001:5D70   402 0001:5D7B   403 0001:5D7D
   409 0001:5D7F   410 0001:5D82   411 0001:5D85   412 0001:5D87
   413 0001:5D8A   415 0001:5D8D   416 0001:5D8F   417 0001:5D91
   418 0001:5D93   419 0001:5D94   420 0001:5D96   421 0001:5D99
   422 0001:5D9C   424 0001:5D9E   425 0001:5DA0   426 0001:5DA2
   427 0001:5DA3   428 0001:5DA4   429 0001:5DA6   430 0001:5DA8
   431 0001:5DAA   433 0001:5DAC   434 0001:5DAF   436 0001:5DB2
   437 0001:5DB3   438 0001:5DB5   439 0001:5DB6   441 0001:5DB8
   442 0001:5DBA   443 0001:5DBB   444 0001:5DBE   447 0001:5DBF

Line numbers for gpfix.obj(gpfix.ASM) segment _TEXT

    58 0001:5DC6    60 0001:5DC9    61 0001:5DCC    62 0001:5DCF
    63 0001:5DD1    64 0001:5DD2    65 0001:5DD4    66 0001:5DD6
    69 0001:5DD9    71 0001:5DDB    74 0001:5DDF    76 0001:5DE2
    77 0001:5DE5    85 0001:5DE7    87 0001:5DEA    88 0001:5DED
    89 0001:5DF0    90 0001:5DF2    91 0001:5DF3    92 0001:5DF5
    93 0001:5DF7    96 0001:5DFB    98 0001:5DFD   101 0001:5E01
   103 0001:5E04   104 0001:5E07   112 0001:5E09   114 0001:5E0C
   116 0001:5E0F   117 0001:5E12   119 0001:5E15   120 0001:5E17
   121 0001:5E19   123 0001:5E1B   124 0001:5E1E   126 0001:5E21
   127 0001:5E23   128 0001:5E26   130 0001:5E28   132 0001:5E2A
   133 0001:5E2E   134 0001:5E30   135 0001:5E34   136 0001:5E36
   138 0001:5E38   140 0001:5E3B   143 0001:5E3D   146 0001:5E41
   148 0001:5E44   149 0001:5E47   157 0001:5E49   159 0001:5E4C
   161 0001:5E4F   162 0001:5E52   164 0001:5E55   165 0001:5E57
   166 0001:5E59   168 0001:5E5B   169 0001:5E5E   171 0001:5E61
   172 0001:5E63   173 0001:5E66   175 0001:5E68   177 0001:5E6A
   178 0001:5E70   179 0001:5E72   180 0001:5E76   181 0001:5E78
   183 0001:5E7A   185 0001:5E7E   188 0001:5E80   191 0001:5E84
   193 0001:5E87   194 0001:5E8A   201 0001:5E8C   203 0001:5E8F
   204 0001:5E92   205 0001:5E95   207 0001:5E97   208 0001:5E9A
   210 0001:5E9C   211 0001:5E9E   212 0001:5EA1   215 0001:5EA4
   217 0001:5EA6   220 0001:5EAA   222 0001:5EAD   223 0001:5EB0
   233 0001:5EB2   235 0001:5EB6   236 0001:5EB9   237 0001:5EBB
   238 0001:5EBE   239 0001:5EBF   241 0001:5EC1   242 0001:5EC3
   243 0001:5EC4   244 0001:5EC7   246 0001:5EC9   249 0001:5ECE
   251 0001:5ED1   252 0001:5ED4   312 0001:5ED6   313 0001:5EDC
   314 0001:5EE2   315 0001:5EE4   317 0001:5EE6   318 0001:5EE9
   319 0001:5EEB   320 0001:5EEF   322 0001:5EF1   323 0001:5EF3
   324 0001:5EFA   326 0001:5EFC   330 0001:5EFF   331 0001:5F04
   332 0001:5F09   333 0001:5F0B   334 0001:5F0C   335 0001:5F0E
   336 0001:5F10   337 0001:5F13   338 0001:5F16   340 0001:5F17
   341 0001:5F19   342 0001:5F1B   343 0001:5F1D   344 0001:5F1F
   345 0001:5F21   346 0001:5F22   347 0001:5F24   348 0001:5F26
   350 0001:5F27   351 0001:5F29   352 0001:5F2A   355 0001:5F2C
   356 0001:5F2E   357 0001:5F33   360 0001:5F35   361 0001:5F37
   362 0001:5F3A   363 0001:5F3D   364 0001:5F3F   365 0001:5F42
   366 0001:5F44   367 0001:5F4A   368 0001:5F4C   369 0001:5F52
   370 0001:5F54   372 0001:5F58   376 0001:5F5F   377 0001:5F61
   378 0001:5F63   380 0001:5F65   381 0001:5F68   382 0001:5F6A
   383 0001:5F6E   385 0001:5F70   386 0001:5F72   387 0001:5F74
   388 0001:5F77   390 0001:5F7A   391 0001:5F7C   392 0001:5F7E
   393 0001:5F80   394 0001:5F82   395 0001:5F85   396 0001:5F87
   397 0001:5F8A   398 0001:5F8C   399 0001:5F8F   402 0001:5F91
   403 0001:5F94   406 0001:5F96   408 0001:5F98   420 0001:5F9F
   421 0001:5FA3   422 0001:5FA6   423 0001:5FAB   424 0001:5FAD
   425 0001:5FAF   426 0001:5FB1   427 0001:5FB3   428 0001:5FBA
   429 0001:5FBC   432 0001:5FBD

Line numbers for hmem.obj(hmem.ASM) segment _TEXT

    36 0001:5FC2    37 0001:5FC9    38 0001:5FCE    39 0001:5FD2
    40 0001:5FD5    41 0001:5FD8    42 0001:5FDB    44 0001:5FDD
    45 0001:5FE0    46 0001:5FE3    48 0001:5FE4    50 0001:5FE7
    51 0001:5FE9    52 0001:5FEB    54 0001:5FED    55 0001:5FEF
    56 0001:5FF1    58 0001:5FF3    60 0001:5FF5    61 0001:5FF7
    63 0001:5FF9    64 0001:5FFB    65 0001:5FFD    67 0001:5FFF
    68 0001:6001    70 0001:6004    71 0001:6009    73 0001:600B
    74 0001:600D    75 0001:600F    76 0001:6012    77 0001:6014
    81 0001:6016    82 0001:6017    83 0001:601A    84 0001:601D
    85 0001:601E    86 0001:6021    90 0001:6023    91 0001:6025
    92 0001:6027    94 0001:6029    95 0001:602B    96 0001:602D
    97 0001:602F    98 0001:6033   100 0001:6035   101 0001:6037
   102 0001:6039   103 0001:603B   104 0001:603F   106 0001:6041
   109 0001:6043   110 0001:6046   111 0001:6051   112 0001:6053
   115 0001:6056   122 0001:605D   123 0001:6061   124 0001:6066
   125 0001:6067   126 0001:606B   127 0001:606F   129 0001:6071
   130 0001:6072   131 0001:6076   132 0001:6078   133 0001:6079
   134 0001:607E   136 0001:607F   138 0001:6080   143 0001:60A2
   144 0001:60A3   146 0001:60A5   147 0001:60A7   149 0001:60AA
   150 0001:60AB   156 0001:60B0   157 0001:60B4   159 0001:60B9
   160 0001:60BA   161 0001:60BE   162 0001:60C2   164 0001:60C4
   165 0001:60C5   166 0001:60C9   167 0001:60CB   168 0001:60CC
   169 0001:60D1   171 0001:60D2   173 0001:60D3   178 0001:60F5
   179 0001:60F6   181 0001:60F8   182 0001:60FA   184 0001:60FD
   185 0001:60FE

Line numbers for ldutil.obj(ldutil.ASM) segment _TEXT

    70 0001:6104    71 0001:6108    72 0001:610B   106 0001:6110
   107 0001:6114   108 0001:6117   109 0001:611A   110 0001:611C
   111 0001:611E   112 0001:6125   115 0001:6127   116 0001:612C
   119 0001:6131   120 0001:6133   121 0001:6135   122 0001:613A
   123 0001:613C   124 0001:6141   126 0001:6143   127 0001:6147
   130 0001:6149   131 0001:614D   132 0001:614F   133 0001:6151
   134 0001:6153   135 0001:615A   137 0001:615C   138 0001:6160
   139 0001:6162   140 0001:6164   141 0001:6166   142 0001:616D
   145 0001:616F   146 0001:6174   149 0001:6179   150 0001:617B
   151 0001:617D   152 0001:6182   153 0001:6184   154 0001:6189
   156 0001:618B   157 0001:618F   162 0001:6191   163 0001:6193
   165 0001:61A0   166 0001:61A2   168 0001:61A4   202 0001:61A9
   203 0001:61AF   204 0001:61B7   205 0001:61B9   206 0001:61BB
   207 0001:61BD   208 0001:61C1   209 0001:61C6   218 0001:61CA
   260 0001:61D1   261 0001:61D4   262 0001:61D6   273 0001:61DA
   274 0001:61DD   275 0001:61DF   276 0001:61E2   277 0001:61E5
   279 0001:61E7   280 0001:61E9   281 0001:61EB   283 0001:61ED
   284 0001:61F0   286 0001:61F3   287 0001:61F8   288 0001:61FB
   289 0001:61FD   290 0001:61FF   291 0001:6202   292 0001:6204
   293 0001:6206   294 0001:6208   295 0001:620A   296 0001:620C
   297 0001:620E   298 0001:6210   299 0001:6212   302 0001:6215
   303 0001:6217   304 0001:6219   305 0001:621D   308 0001:6220
   309 0001:6223   310 0001:6225   313 0001:6228   314 0001:622A
   315 0001:622C   318 0001:622F   321 0001:623B   322 0001:623C
   323 0001:623E   324 0001:6240   326 0001:6244   327 0001:6245
   371 0001:6249   372 0001:624D   373 0001:6250   374 0001:6252
   375 0001:6254   376 0001:6256   377 0001:6258   378 0001:625B
   380 0001:625D   381 0001:625E   382 0001:6264   383 0001:6266
   384 0001:6268   385 0001:6269   386 0001:626B   387 0001:626E
   388 0001:6270   389 0001:6272   393 0001:6273   395 0001:6274
   396 0001:6277   397 0001:6279   400 0001:627B   404 0001:6283
   405 0001:6284   406 0001:6286   408 0001:6288   409 0001:6289
   410 0001:6291   411 0001:6292   412 0001:6294   413 0001:6296
   416 0001:6298   418 0001:62A0   448 0001:62A4   449 0001:62A9
   450 0001:62AC   451 0001:62AF   452 0001:62B3   453 0001:62B5
   454 0001:62B6   457 0001:62BB   458 0001:62BE   459 0001:62C0
   460 0001:62C2   461 0001:62C6   462 0001:62C8   463 0001:62CA
   464 0001:62CC   465 0001:62CE   466 0001:62D0   467 0001:62D2
   468 0001:62D5   469 0001:62D7   471 0001:62D9   472 0001:62DD
   473 0001:62DF   474 0001:62E1   478 0001:62E3   479 0001:62E7
   480 0001:62E9   481 0001:62EC   485 0001:62F7   486 0001:62F9
   487 0001:62FB   492 0001:62FD   493 0001:6300   494 0001:6303
   497 0001:6305   498 0001:6307   499 0001:630A   500 0001:630E
   501 0001:6310   503 0001:6312   504 0001:6314   508 0001:6316
   509 0001:6317   510 0001:631C   511 0001:631E   512 0001:631F
   513 0001:6321   514 0001:6323   515 0001:6326   516 0001:6328
   517 0001:632E   518 0001:632F   520 0001:6331   521 0001:6334
   522 0001:633B   523 0001:633D   524 0001:633F   525 0001:6341
   528 0001:6343   529 0001:6345   530 0001:6349   531 0001:634A
   532 0001:634C   533 0001:634E   534 0001:6351   536 0001:6353
   538 0001:6358   539 0001:635C   540 0001:635E   541 0001:6360
   542 0001:6362   545 0001:6364   548 0001:6367   551 0001:6369
   552 0001:636B   553 0001:636D   605 0001:6373   606 0001:6379
   607 0001:637B   608 0001:637E   612 0001:6381   613 0001:6384
   614 0001:6389   616 0001:638B   617 0001:638C   624 0001:638F
   625 0001:6393   627 0001:6394   628 0001:6396   629 0001:6397
   630 0001:6399   631 0001:639A   633 0001:639B   634 0001:639C
   635 0001:639F   636 0001:63A1   637 0001:63A3   638 0001:63A6
   639 0001:63A8   641 0001:63A9   642 0001:63AC   643 0001:63AF
   644 0001:63B1   645 0001:63B2   646 0001:63B3   647 0001:63B5
   648 0001:63B7   651 0001:63B9   652 0001:63BA   653 0001:63BC
   654 0001:63BD   655 0001:63C0   656 0001:63C2   658 0001:63C5
   660 0001:63C8   661 0001:63C9   662 0001:63CB   663 0001:63CC
   664 0001:63CD   668 0001:63CF   669 0001:63D1   670 0001:63D3
   672 0001:63D5   673 0001:63D6   675 0001:63D7   676 0001:63D9
   677 0001:63DB   678 0001:63DD   679 0001:63DF   680 0001:63E1
   681 0001:63E3   682 0001:63E5   683 0001:63E7   684 0001:63E9
   685 0001:63EB   686 0001:63ED   687 0001:63EF   689 0001:63F2
   690 0001:63F4   692 0001:63F5   693 0001:63F8   694 0001:63FB
   695 0001:63FD   699 0001:6400   718 0001:6402   719 0001:6404
   723 0001:6407   733 0001:640C   736 0001:6411   737 0001:6414
   739 0001:641C   740 0001:641D   741 0001:6421   742 0001:6424
   744 0001:6434   745 0001:6435   746 0001:6436   747 0001:6439
   748 0001:6444   749 0001:6445   751 0001:6446   752 0001:6447
   753 0001:6449   761 0001:644B   762 0001:644C   763 0001:6451
   764 0001:6456   766 0001:6457   767 0001:645A   768 0001:645D
   769 0001:645E   770 0001:6460   771 0001:6462   772 0001:6464
   773 0001:6466   774 0001:6468   775 0001:646B   776 0001:646C
   784 0001:646D   785 0001:6470   787 0001:6479   801 0001:647A
   852 0001:6480   853 0001:6486   855 0001:648B   857 0001:648E
   858 0001:6490   859 0001:6492   860 0001:6494   861 0001:6499
   862 0001:649B   900 0001:649D   901 0001:649F   902 0001:64A1
   903 0001:64A4   904 0001:64A6   905 0001:64A7   906 0001:64A8
   908 0001:64AA   909 0001:64AC   910 0001:64AE   911 0001:64B0
   912 0001:64B2   913 0001:64B4   914 0001:64B5   915 0001:64B7
   917 0001:64B8   918 0001:64BA   919 0001:64BB   922 0001:64BC
   924 0001:64BF   925 0001:64C1   926 0001:64C2   927 0001:64C4
   928 0001:64C6   930 0001:64C8   931 0001:64CC   933 0001:64CE

Line numbers for ldutil.obj(ldutil.ASM) segment _NRESTEXT

   949 0002:07E6   950 0002:07E9   951 0002:07F4   959 0002:07F8
   961 0002:07FE   964 0002:0801   965 0002:0804   967 0002:0807
   968 0002:0809   969 0002:080B   970 0002:080D   971 0002:0812
   972 0002:0815   973 0002:0817   974 0002:0818   976 0002:081B
   977 0002:081D   978 0002:081F   980 0002:0821   981 0002:0825
   983 0002:0827   988 0002:082E   989 0002:0832   990 0002:083E
  1000 0002:0843  1001 0002:0848  1002 0002:084B  1003 0002:084D
  1004 0002:084F  1005 0002:0856  1006 0002:0858  1007 0002:085F
  1009 0002:0861  1010 0002:086C  1013 0002:086F  1014 0002:0876
  1015 0002:0878  1023 0002:0883  1025 0002:088A  1026 0002:0891
  1033 0002:0896  1034 0002:089B  1035 0002:089D  1037 0002:08A2
  1038 0002:08A3  1039 0002:08A7  1040 0002:08A9  1041 0002:08AD
  1042 0002:08AF  1043 0002:08B2  1044 0002:08B9  1045 0002:08BB
  1046 0002:08C2  1047 0002:08C4  1048 0002:08C5  1049 0002:08C6
  1051 0002:08C8  1052 0002:08C9  1054 0002:08CA  1055 0002:08CB
  1056 0002:08CE  1059 0002:08D0  1060 0002:08D2  1061 0002:08D5
  1064 0002:08D7  1065 0002:08DE  1066 0002:08E3  1067 0002:08E5
  1069 0002:08EA  1070 0002:08EB  1071 0002:08EF  1072 0002:08F1
  1073 0002:08F5  1074 0002:08F7  1075 0002:08FA  1076 0002:0901
  1077 0002:0903  1078 0002:090A  1079 0002:090C  1080 0002:0913
  1081 0002:0915  1082 0002:0916  1083 0002:0917  1085 0002:0919
  1086 0002:091A  1088 0002:091B  1089 0002:091C  1090 0002:091F
  1093 0002:0921  1094 0002:0923  1095 0002:0926  1097 0002:0928
  1099 0002:092F  1133 0002:0935  1134 0002:093B  1137 0002:093E
  1138 0002:0940  1139 0002:0943  1140 0002:0945  1141 0002:0947
  1142 0002:0949  1143 0002:094E  1144 0002:0950  1145 0002:0956
  1147 0002:0958  1148 0002:0963  1156 0002:0966  1157 0002:096A
  1165 0002:0970  1166 0002:0976  1167 0002:097A  1168 0002:097C
  1170 0002:0980  1171 0002:0981  1172 0002:0984  1173 0002:0986
  1174 0002:098A  1175 0002:098C  1176 0002:098F  1177 0002:0994
  1178 0002:0996  1179 0002:099C  1180 0002:099E  1181 0002:099F
  1182 0002:09A0  1184 0002:09A2  1185 0002:09A3  1187 0002:09A4
  1188 0002:09A5  1189 0002:09A8  1192 0002:09AA  1193 0002:09AC
  1194 0002:09AF  1196 0002:09B1  1197 0002:09B3  1198 0002:09B4
  1200 0002:09B8  1201 0002:09BA  1202 0002:09BC  1203 0002:09BE
  1204 0002:09C2  1205 0002:09C8  1206 0002:09CA  1207 0002:09D0
  1208 0002:09D6  1210 0002:09D8  1211 0002:09DC  1212 0002:09DE
  1213 0002:09DF  1217 0002:09E1  1219 0002:09E3  1220 0002:09E6
  1221 0002:09E9  1222 0002:09EB  1223 0002:09EC  1224 0002:09F4
  1225 0002:09F5  1229 0002:09F7  1230 0002:09F8  1231 0002:09FA
  1232 0002:09FE  1235 0002:0A00  1236 0002:0A03  1238 0002:0A09
  1248 0002:0A10  1249 0002:0A14  1250 0002:0A17  1251 0002:0A1A
  1252 0002:0A1C  1253 0002:0A20  1254 0002:0A22  1255 0002:0A24
  1256 0002:0A27  1257 0002:0A34  1258 0002:0A36  1260 0002:0A38
  1261 0002:0A3A  1262 0002:0A3C  1270 0002:0A41  1271 0002:0A45
  1273 0002:0A48  1274 0002:0A4E  1275 0002:0A50  1276 0002:0A53
  1279 0002:0A5F  1280 0002:0A65  1281 0002:0A67  1282 0002:0A6C
  1283 0002:0A71  1284 0002:0A73  1285 0002:0A75  1286 0002:0A79
  1287 0002:0A7C  1289 0002:0A81  1290 0002:0A86  1291 0002:0A8A
  1292 0002:0A8B  1293 0002:0A8E  1294 0002:0A97  1295 0002:0A98
  1306 0002:0A9D  1307 0002:0AA0  1308 0002:0AA3  1309 0002:0AA7
  1310 0002:0AAA  1311 0002:0AAC  1312 0002:0AAE  1313 0002:0AB3
  1314 0002:0AB5  1315 0002:0AB7  1317 0002:0ABB  1318 0002:0ABD

Line numbers for module.obj(module.ASM) segment _TEXT

    79 0001:64D6    80 0001:64D7    84 0001:64D9    88 0001:64DC
    89 0001:64DD    90 0001:64E2    91 0001:64E4    92 0001:64E6
    93 0001:64E8    94 0001:64EA    95 0001:64EC    97 0001:64ED
    99 0001:64EF   105 0001:64F0   106 0001:64F2   107 0001:64F4
   108 0001:64F7   109 0001:64F9   110 0001:64FB   112 0001:64FE
   113 0001:64FF

Line numbers for module.obj(module.ASM) segment _NRESTEXT

   165 0002:0AC2   166 0002:0AC7   167 0002:0ACC   170 0002:0AD0
   171 0002:0AD2   172 0002:0AD6   173 0002:0AD8   174 0002:0AD9
   175 0002:0AE1   176 0002:0AE2   178 0002:0AE4   233 0002:0AE7
   234 0002:0AEC   235 0002:0AF1   236 0002:0AF3   238 0002:0AF7
   239 0002:0AF9   240 0002:0AFD   241 0002:0AFF   245 0002:0B01
   246 0002:0B04   247 0002:0B07   248 0002:0B0B   249 0002:0B0D
   253 0002:0B11   254 0002:0B13   255 0002:0B17   256 0002:0B1B
   258 0002:0B1D   259 0002:0B23   261 0002:0B25   262 0002:0B2B
   263 0002:0B2D   264 0002:0B31   265 0002:0B34   266 0002:0B36
   268 0002:0B39   269 0002:0B3C   270 0002:0B3E   271 0002:0B40
   273 0002:0B42   274 0002:0B45   277 0002:0B47   278 0002:0B4C
   279 0002:0B4E   282 0002:0B52   283 0002:0B54   284 0002:0B58
   285 0002:0B5A   286 0002:0B5F   287 0002:0B61   288 0002:0B63
   289 0002:0B66   290 0002:0B6A   292 0002:0B6C   294 0002:0B6F
   336 0002:0B74   337 0002:0B79   340 0002:0B7E   341 0002:0B81
   344 0002:0B86   346 0002:0B90   347 0002:0B93   348 0002:0B9A
   352 0002:0B9C   353 0002:0BA3   354 0002:0BA5   355 0002:0BAA
   356 0002:0BAC   357 0002:0BAE   358 0002:0BB1   359 0002:0BB8
   360 0002:0BB9   361 0002:0BC4   362 0002:0BC5   368 0002:0BCC
   369 0002:0BCF   370 0002:0BD4   371 0002:0BD6   372 0002:0BD8
   375 0002:0BE1   376 0002:0BE4   377 0002:0BEB   379 0002:0BED
   383 0002:0BF1   384 0002:0BF9   385 0002:0BFE   386 0002:0C03
   387 0002:0C06   388 0002:0C09   389 0002:0C0C   390 0002:0C11
   391 0002:0C15   392 0002:0C17   394 0002:0C1B   395 0002:0C1E
   396 0002:0C21   397 0002:0C29   398 0002:0C2E   399 0002:0C30
   442 0002:0C36   443 0002:0C3C   444 0002:0C44   445 0002:0C46
   446 0002:0C48   447 0002:0C4A   448 0002:0C4E   455 0002:0C50
   457 0002:0C51   459 0002:0C55   463 0002:0C56   465 0002:0C58
   466 0002:0C5A   467 0002:0C60   468 0002:0C62   469 0002:0C67
   470 0002:0C6B   471 0002:0C73   472 0002:0C74   473 0002:0C77
   475 0002:0C79   477 0002:0C7C   478 0002:0C7E   479 0002:0C80
   481 0002:0C84   482 0002:0C86   483 0002:0C88   484 0002:0C8C
   485 0002:0C8F   487 0002:0C91   488 0002:0C95   489 0002:0C98
   491 0002:0C9A   492 0002:0C9C   493 0002:0CA0   496 0002:0CA4

Line numbers for module.obj(module.ASM) segment _MISCTEXT

   551 0003:04FA   552 0003:04FB   553 0003:0500   554 0003:0502
   555 0003:0506   557 0003:0508   559 0003:050C   560 0003:050E
   561 0003:0510   562 0003:051A   563 0003:0521   564 0003:0523
   565 0003:0528   566 0003:052A   567 0003:052C   569 0003:052E
   570 0003:0533   573 0003:0535   575 0003:0539   576 0003:053B
   577 0003:053D   578 0003:0547   579 0003:054C   580 0003:0552
   581 0003:0554   582 0003:0559   583 0003:0560   584 0003:0562
   585 0003:0567   586 0003:0569   587 0003:056B   588 0003:056D
   591 0003:056F   594 0003:0574

Line numbers for ldheader.obj(ldheader.ASM) segment _NRESTEXT

   100 0002:0CAC   101 0002:0CB3   102 0002:0CB5   103 0002:0CB8
   104 0002:0CBB   105 0002:0CBE   106 0002:0CC1   109 0002:0CC3
   110 0002:0CD1   111 0002:0CD3   113 0002:0CD5   114 0002:0CD8
   115 0002:0CDA   117 0002:0CDB   118 0002:0CDE   119 0002:0CE1
   120 0002:0CE4   121 0002:0CE6   122 0002:0CE8   123 0002:0CEA
   126 0002:0CED   127 0002:0CEE   128 0002:0CEF   129 0002:0CF2
   130 0002:0CF4   131 0002:0CF7   132 0002:0CFA   133 0002:0CFC
   134 0002:0D02   136 0002:0D04   138 0002:0D06   139 0002:0D08
   140 0002:0D0A   141 0002:0D0E   142 0002:0D10   143 0002:0D14
   144 0002:0D16   145 0002:0D1B   146 0002:0D1D   147 0002:0D22
   148 0002:0D24   149 0002:0D29   150 0002:0D2B   151 0002:0D2E
   153 0002:0D31   154 0002:0D34   155 0002:0D37   156 0002:0D3A
   157 0002:0D3C   159 0002:0D3E   160 0002:0D41   161 0002:0D44
   162 0002:0D47   163 0002:0D4A   164 0002:0D50   165 0002:0D52
   166 0002:0D55   167 0002:0D57   168 0002:0D59   169 0002:0D5F
   170 0002:0D61   171 0002:0D63   172 0002:0D65   173 0002:0D69
   174 0002:0D6B   175 0002:0D6F   176 0002:0D71   177 0002:0D74
   179 0002:0D76   180 0002:0D79   183 0002:0D7C   184 0002:0D7F
   185 0002:0D82   186 0002:0D85   188 0002:0D88   189 0002:0D8B
   190 0002:0D8E   191 0002:0D90   192 0002:0D92   193 0002:0D94
   194 0002:0D96   195 0002:0D98   197 0002:0D9A   201 0002:0D9D
   202 0002:0D9F   208 0002:0DA1   210 0002:0DA4   211 0002:0DA6
   212 0002:0DA9   213 0002:0DB1   214 0002:0DB3   215 0002:0DB5
   217 0002:0DB7   218 0002:0DB8   219 0002:0DBE   220 0002:0DBF
   221 0002:0DC0   222 0002:0DC6   223 0002:0DC7   224 0002:0DCA
   225 0002:0DCD   226 0002:0DCF   227 0002:0DD0   228 0002:0DD3
   229 0002:0DD6   230 0002:0DD8   231 0002:0DDB   232 0002:0DDE
   233 0002:0DE0   234 0002:0DE3   235 0002:0DE5   236 0002:0DE7
   237 0002:0DE9   238 0002:0DEB   239 0002:0DED   240 0002:0DEF
   241 0002:0DF5   242 0002:0DF7   243 0002:0DF9   244 0002:0DFC
   245 0002:0DFE   247 0002:0E00   249 0002:0E03   250 0002:0E04
   251 0002:0E09   252 0002:0E11   253 0002:0E12   257 0002:0E15
   258 0002:0E1A   260 0002:0E1C   261 0002:0E20   262 0002:0E22
   263 0002:0E25   264 0002:0E28   265 0002:0E2B   266 0002:0E2E
   267 0002:0E31   268 0002:0E34   270 0002:0E37   271 0002:0E3A
   272 0002:0E3C   273 0002:0E3F   274 0002:0E41   275 0002:0E44
   276 0002:0E47   277 0002:0E49   278 0002:0E4C   279 0002:0E4E
   280 0002:0E53   281 0002:0E57   282 0002:0E5C   284 0002:0E5E
   285 0002:0E63   286 0002:0E65   288 0002:0E67   289 0002:0E68
   290 0002:0E6B   291 0002:0E6D   292 0002:0E6E   298 0002:0E76
   299 0002:0E79   300 0002:0E7B   301 0002:0E7E   302 0002:0E7F
   303 0002:0E81   307 0002:0E84   308 0002:0E88   309 0002:0E8B
   310 0002:0E8F   311 0002:0E92   312 0002:0E97   313 0002:0E9C
   314 0002:0EA1   332 0002:0EA3   334 0002:0EA4   335 0002:0EA5
   344 0002:0EA6   348 0002:0EA9   349 0002:0EAC   350 0002:0EAE
   352 0002:0EB1   353 0002:0EB4   354 0002:0EBB   355 0002:0EBD
   356 0002:0EC0   364 0002:0EC3   365 0002:0EC4   370 0002:0EC5
   372 0002:0EC7   374 0002:0EC8   377 0002:0ECA   378 0002:0ED0
   379 0002:0ED2   380 0002:0ED5   381 0002:0ED8   383 0002:0EDA
   384 0002:0EDE   385 0002:0EE0   386 0002:0EE2   387 0002:0EE5
   388 0002:0EE9   389 0002:0EEB   390 0002:0EED   391 0002:0EF2
   393 0002:0EF4   394 0002:0EF6   395 0002:0EF8   397 0002:0EFA
   398 0002:0EFD   400 0002:0EFF   403 0002:0F02   404 0002:0F05
   405 0002:0F08   406 0002:0F0A   407 0002:0F0C   408 0002:0F0D
   409 0002:0F15   410 0002:0F16   411 0002:0F18   412 0002:0F1A
   413 0002:0F1D   414 0002:0F1E   415 0002:0F24   416 0002:0F25
   417 0002:0F28   418 0002:0F2B   419 0002:0F30   421 0002:0F32
   422 0002:0F34   423 0002:0F36   425 0002:0F38   427 0002:0F3A
   428 0002:0F3D   429 0002:0F40   430 0002:0F46   432 0002:0F48
   433 0002:0F4B   435 0002:0F4D   436 0002:0F5D   437 0002:0F60
   438 0002:0F62   439 0002:0F65   475 0002:0F67   476 0002:0F6F
   477 0002:0F77   478 0002:0F7C   481 0002:0F7E   483 0002:0F81
   492 0002:0F84   494 0002:0F87   495 0002:0F8C   496 0002:0F91
   497 0002:0F94   498 0002:0F99   499 0002:0F9E   502 0002:0FA0
   503 0002:0FA5   504 0002:0FAA   505 0002:0FAF   507 0002:0FB1
   508 0002:0FB2   509 0002:0FB7   510 0002:0FB9   511 0002:0FBC
   513 0002:0FBD   514 0002:0FC0   515 0002:0FC5   516 0002:0FC6
   517 0002:0FC8   519 0002:0FC9   520 0002:0FCE   521 0002:0FD3
   522 0002:0FD8   524 0002:0FDA   525 0002:0FDF   526 0002:0FE4
   527 0002:0FE9   528 0002:0FEE   529 0002:0FF3   530 0002:0FF5
   533 0002:0FF7   535 0002:0FFC   536 0002:0FFE   537 0002:1000
   538 0002:1001   539 0002:1002   542 0002:1003   543 0002:1004
   544 0002:1006   545 0002:1008   547 0002:100A   548 0002:100C
   549 0002:100E   551 0002:1010   552 0002:1014   553 0002:1017
   555 0002:1019   556 0002:101C   557 0002:1020   560 0002:1022
   561 0002:1026   562 0002:1028   563 0002:102A   564 0002:102B
   565 0002:102C   566 0002:102E   567 0002:102F   570 0002:1031
   571 0002:1035   572 0002:1037   577 0002:1039   578 0002:103A
   579 0002:103B   580 0002:103C   581 0002:103D   582 0002:103F
   585 0002:1041   586 0002:1042   587 0002:1043   588 0002:1046
   589 0002:1047   590 0002:1048   591 0002:104A   594 0002:104C
   595 0002:104E   596 0002:1053   597 0002:1055   598 0002:1059
   602 0002:105D   603 0002:105E   604 0002:105F   605 0002:1060
   606 0002:1061   607 0002:1065   608 0002:1069   609 0002:106B
   610 0002:106E   612 0002:1071   613 0002:1075   614 0002:1077
   615 0002:107B   617 0002:107E   618 0002:107F   619 0002:1083
   620 0002:1086   621 0002:1088   623 0002:108B   624 0002:108E
   625 0002:1092   626 0002:1093   627 0002:1096   629 0002:1098
   631 0002:109A   632 0002:109B   633 0002:109C   634 0002:109D
   642 0002:109E   643 0002:10A2   644 0002:10A6   645 0002:10AA
   646 0002:10AE   647 0002:10B0   649 0002:10B6   650 0002:10B9
   651 0002:10BB   652 0002:10BF   653 0002:10C2   655 0002:10C4
   656 0002:10C8   657 0002:10CA   658 0002:10CC   659 0002:10CD
   660 0002:10CF   661 0002:10D1   662 0002:10D3   663 0002:10D5
   665 0002:10D7   667 0002:10DC   669 0002:10E1   673 0002:10E6
   674 0002:10EA   675 0002:10EC   676 0002:10EE   677 0002:10F1
   679 0002:10F5   680 0002:10F9   681 0002:10FB   682 0002:1103
   683 0002:1106   685 0002:1109   686 0002:110E   687 0002:1110
   688 0002:1113   691 0002:1115   692 0002:111A   694 0002:111C
   696 0002:1121   697 0002:1125   699 0002:1127   700 0002:1132
   703 0002:1136   704 0002:1139   705 0002:113A   706 0002:113F
   707 0002:1141   708 0002:1146   712 0002:1148   713 0002:114E
   714 0002:1150   717 0002:115B   718 0002:1161   721 0002:1163
   722 0002:1168   726 0002:116A   727 0002:1171   728 0002:1173
   729 0002:1178   730 0002:117A   731 0002:1180   732 0002:1182
   735 0002:118D   736 0002:1193   737 0002:1195   740 0002:1198
   741 0002:119D   742 0002:119F   745 0002:11A2   746 0002:11A7
   747 0002:11A9   748 0002:11AB   749 0002:11AC   750 0002:11AE
   751 0002:11B0   752 0002:11B2   753 0002:11B4   755 0002:11B6
   757 0002:11BB   758 0002:11C0   759 0002:11C2   760 0002:11CD
   763 0002:11D1   765 0002:11D6   766 0002:11DC   767 0002:11DE
   768 0002:11E4   770 0002:11E9   771 0002:11EE   772 0002:11F0
   773 0002:11F4   774 0002:11F6   775 0002:1201   778 0002:1205
   780 0002:120A   781 0002:1211   782 0002:1213   783 0002:121A
   784 0002:121C   786 0002:1223   787 0002:1228   789 0002:122A
   793 0002:122D   794 0002:122F   795 0002:1231   797 0002:1235
   798 0002:1237   800 0002:123E   801 0002:1241   802 0002:1244
   803 0002:1246   822 0002:124D   823 0002:124E   824 0002:1251
   825 0002:1253   826 0002:1255   827 0002:1256   828 0002:125C
   829 0002:125D   830 0002:125E   831 0002:1262   833 0002:1264
   834 0002:126F   835 0002:1277   837 0002:127C   838 0002:127D
   839 0002:1280   840 0002:1282   841 0002:1283   842 0002:128B
   844 0002:128C   845 0002:128F   847 0002:1292   849 0002:1293

Line numbers for ld.obj(ld.ASM) segment _NRESTEXT

   196 0002:129A   199 0002:12A0   200 0002:12B1   201 0002:12B3
   203 0002:12B5   204 0002:12BA   206 0002:12BC   207 0002:12BE
   208 0002:12C1   209 0002:12C4   210 0002:12CC   211 0002:12CE
   212 0002:12D0   213 0002:12D6   214 0002:12D8   215 0002:12D9
   216 0002:12DD   217 0002:12E1   218 0002:12E8   219 0002:12EA
   220 0002:12F1   222 0002:12F2   264 0002:12F9   269 0002:1300
   270 0002:1304   271 0002:1307   272 0002:130B   273 0002:130E
   275 0002:1311   276 0002:1314   277 0002:1316   278 0002:1318
   279 0002:131A   280 0002:131D   281 0002:131F   282 0002:1321
   283 0002:1323   284 0002:1328   285 0002:132A   286 0002:132D
   287 0002:132E   288 0002:1334   290 0002:1339   291 0002:133C
   292 0002:133F   297 0002:1345   298 0002:134A   299 0002:134C
   301 0002:1350   302 0002:1353   303 0002:1356   305 0002:1358
   311 0002:135A   312 0002:135B   313 0002:1362   315 0002:1366
   316 0002:136C   317 0002:136E   318 0002:1373   319 0002:1375
   323 0002:1379   324 0002:1389   325 0002:138B   327 0002:138D
   329 0002:1390   330 0002:1391   331 0002:1395   335 0002:1397
   336 0002:139C   337 0002:139E   341 0002:13A3   342 0002:13A4
   346 0002:13A6   347 0002:13A8   348 0002:13AA   350 0002:13AC
   351 0002:13AF   352 0002:13B5   353 0002:13B9   354 0002:13BC
   355 0002:13BF   356 0002:13C4   359 0002:13C9   360 0002:13CB
   367 0002:13CD   368 0002:13D0   369 0002:13D3   409 0002:13DA
   410 0002:13E0   411 0002:13E3   413 0002:13E5   414 0002:13EB
   418 0002:13ED   419 0002:13F2   420 0002:13F4   421 0002:1401
   422 0002:1403   423 0002:1405   424 0002:1408   425 0002:1409
   426 0002:140B   427 0002:140C   428 0002:1412   430 0002:1414
   433 0002:1416   434 0002:141F   435 0002:1422   436 0002:1425
   437 0002:1427   438 0002:1428   439 0002:142B   440 0002:142E
   441 0002:1430   443 0002:1436   444 0002:1437   446 0002:143A
   447 0002:1441   448 0002:1443   449 0002:1445   450 0002:1447
   451 0002:144B   452 0002:145C   455 0002:145E   456 0002:1461
   457 0002:1468   458 0002:147A   461 0002:147C   462 0002:147F
   463 0002:1486   464 0002:1488   466 0002:148A   542 0002:1490
   543 0002:1495   546 0002:1498   547 0002:149B   548 0002:14A1
   551 0002:14A3   552 0002:14A4   553 0002:14AA   556 0002:14AC
   557 0002:14AD   558 0002:14B2   561 0002:14B4   562 0002:14B5
   563 0002:14B9   564 0002:14BB   565 0002:14BD   566 0002:14C2
   570 0002:14C4   572 0002:14C5   573 0002:14CA   574 0002:14CF
   575 0002:14D2   576 0002:14D3   577 0002:14DB   578 0002:14DE
   579 0002:14E1   580 0002:14E3   581 0002:14E4   583 0002:14E6
   586 0002:14E8   587 0002:14EC   589 0002:14EE   590 0002:14EF
   591 0002:14F5   593 0002:14F7   595 0002:14FD   596 0002:1502
   597 0002:1503   598 0002:1507   599 0002:150B   600 0002:150C
   601 0002:150F   602 0002:1513   605 0002:1517   606 0002:1519
   607 0002:151B   608 0002:151D   611 0002:1520   613 0002:1526
   615 0002:1529   617 0002:152C   618 0002:1531   619 0002:1535
   620 0002:1539   623 0002:153A   626 0002:153C   627 0002:1540
   628 0002:1542   629 0002:1544   630 0002:1546   631 0002:1549
   632 0002:154B   635 0002:154D   724 0002:1552   725 0002:1557
   726 0002:155A   727 0002:1567   728 0002:156A   729 0002:156C
   732 0002:156F   733 0002:1574   734 0002:1579   735 0002:157B
   736 0002:157E   738 0002:1580   739 0002:1581   740 0002:1587
   741 0002:1589   742 0002:1590   743 0002:1592   744 0002:1598
   745 0002:159A   746 0002:159B   747 0002:159C   748 0002:15A4
   749 0002:15A6   750 0002:15A7   751 0002:15A8   752 0002:15AA
   755 0002:15B2   759 0002:15B3   809 0002:15D2   810 0002:15D9
   812 0002:15DE   813 0002:15E1   814 0002:15E4   815 0002:15E7
   817 0002:15EC   820 0002:15F0   821 0002:15F3   822 0002:15F7
   825 0002:15F9   826 0002:15FC   827 0002:1603   828 0002:1606
   829 0002:1609   830 0002:160E   831 0002:1611   834 0002:1618
   836 0002:161A   837 0002:161D   838 0002:1620   839 0002:1623
   843 0002:1626   844 0002:1629   852 0002:162C   853 0002:162D
   854 0002:1630   857 0002:1633   858 0002:1636   859 0002:1638
   860 0002:163A   861 0002:163C   862 0002:1642   863 0002:1644
   864 0002:1646   865 0002:1648   868 0002:164A   869 0002:164D
   870 0002:1650   872 0002:1652   873 0002:1655   876 0002:1657
   877 0002:165A   878 0002:165C   903 0002:165E   904 0002:1662
   905 0002:166B   906 0002:166E   911 0002:1670   912 0002:1673
   913 0002:1676   916 0002:1678   917 0002:167B   918 0002:167E
   921 0002:1680   922 0002:1683   923 0002:1686   926 0002:1688
   927 0002:168B   928 0002:168E   931 0002:1690   935 0002:1693
   936 0002:1696   940 0002:1699   942 0002:169D   943 0002:16A2
   944 0002:16A4   946 0002:16AA   947 0002:16B0   948 0002:16B3
   949 0002:16B8   950 0002:16BC   951 0002:16C1   953 0002:16C2
   954 0002:16C6   955 0002:16C8   956 0002:16CB   957 0002:16CE
   958 0002:16CF   959 0002:16D1   960 0002:16D2   962 0002:16D6
   963 0002:16DA   964 0002:16E0   965 0002:16E7   966 0002:16EB
   967 0002:16EE   997 0002:16FC   998 0002:1707   999 0002:170E
  1000 0002:1710  1001 0002:1712  1002 0002:1714  1037 0002:1715
  1038 0002:1717  1039 0002:1719  1040 0002:171A  1042 0002:171B
  1043 0002:171D  1044 0002:171F  1045 0002:1721  1046 0002:1723
  1047 0002:1725  1048 0002:1727  1049 0002:1729  1050 0002:172B
  1058 0002:172C  1059 0002:172D  1060 0002:172E  1062 0002:172F
  1063 0002:1731  1065 0002:1733  1066 0002:1735  1067 0002:1737
  1068 0002:1739  1069 0002:173B  1070 0002:173D  1094 0002:1741
  1095 0002:1746  1097 0002:174A  1098 0002:174B  1103 0002:174D
  1104 0002:1753  1105 0002:1755  1106 0002:175B  1107 0002:175D
  1109 0002:1760  1110 0002:1766  1111 0002:1768  1112 0002:176E
  1113 0002:1770  1137 0002:1773  1138 0002:1779  1139 0002:177B
  1140 0002:1781  1142 0002:1783  1146 0002:1786  1147 0002:1789
  1148 0002:178B  1149 0002:1791  1150 0002:1793  1151 0002:1799
  1152 0002:179B  1153 0002:17A1  1154 0002:17A3  1155 0002:17A9
  1159 0002:17AB  1160 0002:17AE  1161 0002:17B4  1163 0002:17BA
  1164 0002:17BB  1165 0002:17BE  1166 0002:17C2  1167 0002:17C5
  1168 0002:17C6  1171 0002:17C9  1172 0002:17CA  1173 0002:17CB
  1174 0002:17CC  1175 0002:17CD  1177 0002:17CE  1178 0002:17D0
  1179 0002:17D4  1180 0002:17D6  1181 0002:17DA  1182 0002:17DD
  1184 0002:17DF  1185 0002:17E0  1187 0002:17E2  1188 0002:17E8
  1190 0002:17EE  1191 0002:17F1  1192 0002:17F5  1195 0002:17F8
  1196 0002:17F9  1197 0002:17FA  1198 0002:17FB  1201 0002:17FC
  1202 0002:1800  1203 0002:1804  1204 0002:1805  1205 0002:180A
  1206 0002:180B  1207 0002:180D  1208 0002:180F  1209 0002:1811
  1210 0002:1813  1211 0002:1815  1213 0002:1817  1215 0002:181D
  1275 0002:181E  1276 0002:1821  1277 0002:1825  1278 0002:1828
  1283 0002:182A  1284 0002:182D  1285 0002:182F  1286 0002:1832
  1287 0002:1836  1288 0002:183D  1289 0002:183F  1294 0002:1842
  1311 0002:1845  1312 0002:1846  1313 0002:184B  1315 0002:184D
  1316 0002:1852  1320 0002:1854  1321 0002:1855  1322 0002:1857
  1323 0002:185A  1324 0002:1867  1325 0002:186A  1326 0002:186D
  1327 0002:186E  1329 0002:1870  1330 0002:1871  1331 0002:187F
  1334 0002:1881  1335 0002:1882  1354 0002:1890  1355 0002:1892
  1356 0002:1896  1357 0002:1899  1358 0002:189C  1359 0002:189E
  1360 0002:189F  1361 0002:18A2  1363 0002:18A4  1364 0002:18A8
  1365 0002:18AA  1366 0002:18AC  1369 0002:18AF  1370 0002:18B0
  1371 0002:18B3  1372 0002:18B6  1374 0002:18B8  1375 0002:18B9
  1376 0002:18BA  1378 0002:18BB  1379 0002:18BD  1380 0002:18C0
  1382 0002:18CB  1383 0002:18CC  1384 0002:18CD  1386 0002:18CE
  1388 0002:18CF  1404 0002:18D0  1405 0002:18D3  1406 0002:18D6
  1407 0002:18D9  1408 0002:18DB  1409 0002:18DD  1410 0002:18E2
  1411 0002:18E4  1412 0002:18E6  1413 0002:18E8  1414 0002:18EB
  1416 0002:18ED  1417 0002:18F0  1515 0002:18F3  1516 0002:18FA
  1517 0002:18FC  1518 0002:18FF  1519 0002:1901  1520 0002:1905
  1521 0002:1907  1522 0002:1909  1523 0002:190D  1524 0002:1910
  1525 0002:1913  1526 0002:1915  1527 0002:1918  1534 0002:1919
  1535 0002:191D  1537 0002:191F  1538 0002:1920  1539 0002:1921
  1540 0002:1922  1541 0002:1927  1542 0002:1928  1543 0002:192B
  1544 0002:192E  1545 0002:1930  1546 0002:1931  1547 0002:1932
  1548 0002:1934  1549 0002:1937  1556 0002:1938  1557 0002:193F
  1558 0002:1941  1559 0002:1947  1560 0002:194A  1561 0002:194D
  1562 0002:194E  1563 0002:1950  1564 0002:1953  1568 0002:1954
  1569 0002:1957  1570 0002:195E  1571 0002:1960  1572 0002:1967
  1573 0002:1969  1575 0002:196C  1579 0002:196D  1580 0002:1970
  1581 0002:1972  1582 0002:1974  1583 0002:1983  1584 0002:1986
  1585 0002:1988  1587 0002:198A  1605 0002:198D  1606 0002:198E
  1607 0002:1994  1608 0002:1995  1609 0002:1997  1610 0002:1999
  1611 0002:199E  1612 0002:19A1  1613 0002:19A4  1614 0002:19A9
  1615 0002:19AA  1617 0002:19AD  1622 0002:19B0  1623 0002:19BA
  1624 0002:19BD  1625 0002:19C0  1626 0002:19C4  1627 0002:19C6
  1628 0002:19CB  1629 0002:19CF  1630 0002:19D1  1631 0002:19D6
  1632 0002:19D8  1634 0002:19DD  1636 0002:19DF  1637 0002:19E6
  1639 0002:19E8  1640 0002:19ED  1641 0002:19EF  1642 0002:19F0
  1643 0002:19F7  1644 0002:19FB  1645 0002:19FC  1646 0002:1A03
  1647 0002:1A04  1648 0002:1A06  1650 0002:1A09  1652 0002:1A0A
  1654 0002:1A0D  1655 0002:1A0F  1656 0002:1A13  1657 0002:1A17
  1658 0002:1A19  1669 0002:1A1B  1670 0002:1A21  1671 0002:1A23
  1672 0002:1A26  1673 0002:1A28  1674 0002:1A2A  1675 0002:1A2B
  1676 0002:1A2D  1677 0002:1A30  1678 0002:1A33  1679 0002:1A36
  1680 0002:1A37  1681 0002:1A39  1682 0002:1A3E  1692 0002:1A41
  1693 0002:1A47  1695 0002:1A49  1696 0002:1A4A  1697 0002:1A4C
  1698 0002:1A4F  1699 0002:1A52  1700 0002:1A55  1701 0002:1A56
  1702 0002:1A58  1703 0002:1A59  1704 0002:1A5A  1705 0002:1A61
  1706 0002:1A64  1707 0002:1A66  1708 0002:1A69  1709 0002:1A6A
  1712 0002:1A6B  1713 0002:1A6F  1714 0002:1A73  1715 0002:1A75
  1723 0002:1A76  1724 0002:1A78  1725 0002:1A7A  1727 0002:1A7D
  1728 0002:1A7E  1729 0002:1A81  1730 0002:1A82  1731 0002:1A84
  1732 0002:1A86  1733 0002:1A8B  1734 0002:1A8D  1735 0002:1A90
  1736 0002:1A91  1737 0002:1A93  1741 0002:1A95  1742 0002:1A96
  1743 0002:1A97  1744 0002:1A99  1746 0002:1A9B  1747 0002:1A9F
  1748 0002:1AA1  1749 0002:1AA2  1750 0002:1AA4  1751 0002:1AA8
  1752 0002:1AA9  1753 0002:1AAA  1754 0002:1AB1  1755 0002:1AB2
  1756 0002:1AB3  1757 0002:1AB5  1758 0002:1AB7  1759 0002:1AB8
  1760 0002:1AB9  1762 0002:1ABB  1763 0002:1AC1  1765 0002:1AC3
  1766 0002:1AC8  1767 0002:1ACE  1769 0002:1AD0  1770 0002:1AD5
  1772 0002:1ADB  1774 0002:1AE0  1775 0002:1AE1  1777 0002:1AE2
  1778 0002:1AE9  1779 0002:1AEC  1780 0002:1AEE  1781 0002:1AF1
  1783 0002:1AF3  1791 0002:1AF5  1792 0002:1AFB  1794 0002:1AFD
  1797 0002:1B03  1799 0002:1B04  1800 0002:1B07  1801 0002:1B08
  1802 0002:1B09  1803 0002:1B0A  1804 0002:1B0B  1805 0002:1B0D
  1808 0002:1B10  1809 0002:1B17  1810 0002:1B1C  1811 0002:1B1E
  1812 0002:1B1F  1813 0002:1B23  1815 0002:1B24  1816 0002:1B27
  1817 0002:1B28  1818 0002:1B2A  1819 0002:1B2B  1821 0002:1B2E
  1823 0002:1B31  1834 0002:1B32  1835 0002:1B39  1837 0002:1B3B
  1838 0002:1B3F  1839 0002:1B43  1840 0002:1B49  1841 0002:1B4C
  1843 0002:1B54  1844 0002:1B5B  1845 0002:1B61  1846 0002:1B65
  1847 0002:1B69  1848 0002:1B6B  1849 0002:1B6D  1854 0002:1B70
  1855 0002:1B73  1859 0002:1B75  1860 0002:1B7A  1861 0002:1B7F
  1863 0002:1B81  1870 0002:1B82  1871 0002:1B88  1876 0002:1B8A
  1877 0002:1B90  1878 0002:1B92  1879 0002:1B96  1880 0002:1B98
  1883 0002:1B9A  1884 0002:1B9D  1886 0002:1B9F  1897 0002:1BA0
  1898 0002:1BA1  1899 0002:1BA2  1900 0002:1BAF  1903 0002:1BB1
  1904 0002:1BB2  1905 0002:1BB3  1906 0002:1BBB  1907 0002:1BBD
  1908 0002:1BBF  1909 0002:1BC7  1910 0002:1BCC  1911 0002:1BCD
  1912 0002:1BCE  1916 0002:1BD0  1917 0002:1BD6  1921 0002:1BD9
  1922 0002:1BDA  1923 0002:1BDD  1924 0002:1BDF  1925 0002:1BE4
  1927 0002:1BE5  1928 0002:1BE7  1929 0002:1BE9  1931 0002:1BEB
  1932 0002:1BEE  1933 0002:1BF1  1934 0002:1BF2  1938 0002:1BF3
  1942 0002:1C01  1943 0002:1C02  1944 0002:1C03  1945 0002:1C0C
  1946 0002:1C0D  1947 0002:1C0E  1948 0002:1C14  1949 0002:1C1C
  1951 0002:1C1D  1952 0002:1C1E  1953 0002:1C1F  1954 0002:1C21
  1955 0002:1C23  1957 0002:1C26  1965 0002:1C29  1966 0002:1C2A
  1967 0002:1C2E  1968 0002:1C32  2057 0002:1C36  2058 0002:1C39
  2062 0002:1C41  2063 0002:1C45  2068 0002:1C47  2070 0002:1C55
  2073 0002:1C57  2077 0002:1C59  2080 0002:1C61  2081 0002:1C65
  2082 0002:1C66  2083 0002:1C69  2084 0002:1C6C  2085 0002:1C6E
  2086 0002:1C6F  2087 0002:1C71  2088 0002:1C74  2089 0002:1C77
  2090 0002:1C79  2091 0002:1C7D  2092 0002:1C83  2093 0002:1C84
  2094 0002:1C92  2095 0002:1C93  2096 0002:1C96  2097 0002:1C98
  2098 0002:1C9A  2100 0002:1C9D  2101 0002:1CA4  2103 0002:1CA6
  2104 0002:1CA7  2105 0002:1CB0  2106 0002:1CB1  2107 0002:1CB4
  2109 0002:1CB7  2110 0002:1CBB  2127 0002:1CBC  2128 0002:1CBE
  2129 0002:1CC3  2130 0002:1CC5  2131 0002:1CC8  2152 0002:1CCD
  2153 0002:1CD0  2154 0002:1CD3  2155 0002:1CD4  2156 0002:1CD6
  2157 0002:1CDA  2158 0002:1CDC  2159 0002:1CDF  2161 0002:1CE0
  2162 0002:1CE3  2164 0002:1CE6  2165 0002:1CEA  2166 0002:1CEC
  2167 0002:1CEF  2168 0002:1CF2  2169 0002:1CF4  2170 0002:1CF6
  2171 0002:1CF9  2178 0002:1CFA  2179 0002:1CFE  2181 0002:1D00
  2182 0002:1D01  2183 0002:1D02  2184 0002:1D03  2185 0002:1D08
  2186 0002:1D09  2187 0002:1D0C  2188 0002:1D0F  2189 0002:1D11
  2190 0002:1D12  2191 0002:1D13  2192 0002:1D15  2193 0002:1D18
  2207 0002:1D19  2208 0002:1D1C  2209 0002:1D1E  2210 0002:1D23
  2212 0002:1D28  2213 0002:1D2E  2214 0002:1D30  2215 0002:1D36
  2216 0002:1D38  2217 0002:1D39  2218 0002:1D3B  2219 0002:1D3E
  2221 0002:1D3F  2222 0002:1D42  2225 0002:1D44  2226 0002:1D51
  2227 0002:1D55  2228 0002:1D57  2229 0002:1D5B  2230 0002:1D5F
  2231 0002:1D60  2232 0002:1D62  2233 0002:1D66  2235 0002:1D68
  2236 0002:1D6B  2238 0002:1D77  2239 0002:1D79  2240 0002:1D7B
  2241 0002:1D7D  2242 0002:1D82  2243 0002:1D8B  2244 0002:1D8E
  2246 0002:1D8F  2247 0002:1D93  2248 0002:1D99  2249 0002:1DA0
  2250 0002:1DA4  2251 0002:1DA7  2254 0002:1DA8  2255 0002:1DAC
  2256 0002:1DAE  2257 0002:1DB0  2258 0002:1DB3  2259 0002:1DB4
  2260 0002:1DBD  2261 0002:1DBE  2262 0002:1DC0  2264 0002:1DC2
  2265 0002:1DC3  2266 0002:1DC7  2268 0002:1DCA  2276 0002:1DCB
  2277 0002:1DCC  2278 0002:1DCF  2279 0002:1DD1  2280 0002:1DD7
  2283 0002:1DDB  2284 0002:1DDE  2285 0002:1DE1  2286 0002:1DE2
  2287 0002:1DE4  2288 0002:1DE5  2291 0002:1DE8  2292 0002:1DEC
  2293 0002:1DEE  2294 0002:1DF6  2307 0002:1DFB  2308 0002:1DFC
  2309 0002:1DFF  2310 0002:1E01  2311 0002:1E04  2312 0002:1E06
  2313 0002:1E09  2315 0002:1E0B  2316 0002:1E0C  2317 0002:1E0D
  2318 0002:1E0E  2319 0002:1E11  2321 0002:1E27  2322 0002:1E28
  2323 0002:1E29  2326 0002:1E2A  2327 0002:1E2F  2328 0002:1E31
  2329 0002:1E34  2330 0002:1E37  2331 0002:1E39  2332 0002:1E3B
  2333 0002:1E42  2334 0002:1E44  2335 0002:1E48  2336 0002:1E4E
  2337 0002:1E53  2343 0002:1E57  2344 0002:1E58  2345 0002:1E5B
  2346 0002:1E5D  2347 0002:1E61  2348 0002:1E63  2349 0002:1E69
  2353 0002:1E6F  2354 0002:1E74  2355 0002:1E76  2356 0002:1E7B
  2358 0002:1E7D  2359 0002:1E7E  2361 0002:1E7F  2362 0002:1E80
  2363 0002:1E81  2366 0002:1E82  2367 0002:1E84  2368 0002:1E87
  2369 0002:1E89  2370 0002:1E8C  2372 0002:1E8E  2374 0002:1E91
  2375 0002:1E98  2376 0002:1EA3  2377 0002:1EA6  2380 0002:1EA8
  2381 0002:1EAA  2382 0002:1EAD  2383 0002:1EB0  2384 0002:1EB3
  2385 0002:1EB6  2386 0002:1EB8  2388 0002:1EB9  2389 0002:1EBB
  2390 0002:1EBD  2391 0002:1EBF  2392 0002:1EC1  2393 0002:1EC3
  2394 0002:1EC5  2396 0002:1EC6  2397 0002:1EC9  2399 0002:1ED0
  2400 0002:1ED3  2402 0002:1EDA  2403 0002:1EDB  2404 0002:1EDC
  2407 0002:1EDD  2408 0002:1EDE  2409 0002:1EE2  2410 0002:1EE5
  2425 0002:1EE6  2426 0002:1EE9  2428 0002:1EEB  2437 0002:1EEE
  2438 0002:1EF1  2445 0002:1EF3  2446 0002:1EF6  2447 0002:1EF8
  2448 0002:1EFD  2449 0002:1F02  2453 0002:1F04  2454 0002:1F07
  2456 0002:1F09  2457 0002:1F0C  2469 0002:1F0E  2470 0002:1F0F
  2471 0002:1F12  2472 0002:1F15  2473 0002:1F16  2474 0002:1F17
  2476 0002:1F19  2477 0002:1F1C  2478 0002:1F1E  2479 0002:1F20
  2481 0002:1F25  2486 0002:1F38  2487 0002:1F3B  2489 0002:1F3D
  2490 0002:1F42  2491 0002:1F44  2492 0002:1F47  2493 0002:1F4B
  2494 0002:1F4F  2496 0002:1F52  2497 0002:1F5F  2498 0002:1F62
  2504 0002:1F64  2505 0002:1F65  2507 0002:1F67  2508 0002:1F76
  2510 0002:1F77  2511 0002:1F7A  2512 0002:1F7C  2514 0002:1F7E
  2515 0002:1F80  2516 0002:1F82  2518 0002:1F85  2523 0002:1F88
  2547 0002:1F8F  2548 0002:1F92  2549 0002:1F95  2550 0002:1F96
  2552 0002:1F98  2554 0002:1FA0  2767 0002:1FA4  2768 0002:1FA8
  2769 0002:1FAC  2770 0002:1FAD  2771 0002:1FB0  2772 0002:1FB5
  2773 0002:1FB7  2774 0002:1FBC  2775 0002:1FBE  2776 0002:1FBF
  2777 0002:1FC0  2778 0002:1FC1  2787 0002:1FC3  2789 0002:1FC7
  2790 0002:1FC9  2791 0002:1FCC  2792 0002:1FCD  2794 0002:1FCF
  2795 0002:1FD2  2796 0002:1FD4  2797 0002:1FD7  2798 0002:1FDA
  2801 0002:1FDB  2802 0002:1FDD  2803 0002:1FDF  2804 0002:1FE0
  2805 0002:1FE1  2806 0002:1FE2  2807 0002:1FE3  2808 0002:1FE6
  2809 0002:1FE7  2810 0002:1FEA  2811 0002:1FEB  2815 0002:1FEF
  2817 0002:1FF3  2818 0002:1FF4  2819 0002:1FF5  2822 0002:1FF6
  2823 0002:1FFA  2824 0002:1FFE  2833 0002:1FFF  2837 0002:2002
  2838 0002:2003  2840 0002:2006  2841 0002:2009  2842 0002:200B
  2843 0002:200D  2850 0002:200E  2851 0002:200F  2852 0002:2010
  2853 0002:2012  2854 0002:2014  2855 0002:2015  2911 0002:2016
  2912 0002:2017  2913 0002:2019  2914 0002:201C  2915 0002:201E
  2916 0002:2020  2917 0002:2021  2918 0002:2022  2919 0002:2024
  2920 0002:2026  2921 0002:2028  2922 0002:202C  2923 0002:202E
  2924 0002:2030  2925 0002:2032  2926 0002:2034  2927 0002:2036
  2928 0002:2038  2929 0002:2039  2930 0002:203B  2963 0002:203C
  2964 0002:203D  2965 0002:203E  2966 0002:203F  2969 0002:2041
  2970 0002:2044  2971 0002:2049  2972 0002:204C  2974 0002:204E
  2975 0002:204F  2976 0002:2050  2977 0002:2051  2978 0002:2053
  2979 0002:2055  2980 0002:2056  2981 0002:2057  2982 0002:2058
  2985 0002:205A  2986 0002:205B  2987 0002:205C  2988 0002:205E
  2989 0002:205F  2990 0002:2060  2991 0002:2061  2992 0002:2062
  3024 0002:2063  3025 0002:2064  3028 0002:2069  3045 0002:206C
  3123 0002:206E  3124 0002:2074  3126 0002:2077  3127 0002:207F
  3128 0002:2081  3129 0002:2083  3130 0002:2085  3131 0002:208B
  3132 0002:208D  3133 0002:2091  3134 0002:2099  3136 0002:209B
  3137 0002:20A0  3138 0002:20A2  3139 0002:20A8  3140 0002:20AA
  3141 0002:20AC  3142 0002:20AE  3143 0002:20B1  3147 0002:20B5
  3467 0002:20BC  3468 0002:20BE  3561 0002:20C1  3562 0002:20C3

Line numbers for ldcache.obj(ldcache.ASM) segment _TEXT

    76 0001:6500    77 0001:6504    78 0001:6510    86 0001:6515
    87 0001:651D    88 0001:6522    90 0001:6527   100 0001:652B
   102 0001:652F   103 0001:6532   104 0001:6534   105 0001:6538
   107 0001:653B   108 0001:653E   109 0001:6540   110 0001:6542
   112 0001:6544   113 0001:6546   114 0001:6548   115 0001:654B
   116 0001:654D   118 0001:6550   119 0001:6553   121 0001:6555
   122 0001:6558   123 0001:655A   124 0001:655C   125 0001:6561
   128 0001:6563   130 0001:6567   131 0001:6569   132 0001:656C
   133 0001:6570   134 0001:6572   136 0001:6575   137 0001:6577
   138 0001:6579   139 0001:657B   140 0001:657E   141 0001:6580
   143 0001:6584   144 0001:6586   145 0001:658B   148 0001:658E
   149 0001:658F   150 0001:6592   151 0001:6595   153 0001:6597
   158 0001:659C   159 0001:659E   165 0001:65A1   167 0001:65A4
   168 0001:65A9   170 0001:65AB   171 0001:65AE   172 0001:65B3
   181 0001:65B5   182 0001:65B6   183 0001:65BA   184 0001:65BC
   185 0001:65BF   187 0001:65C1   188 0001:65C3   190 0001:65C5
   191 0001:65C6   192 0001:65C8   195 0001:65CB   230 0001:65D3
   241 0001:65D9   272 0001:65E0   273 0001:65E8   274 0001:65ED
   275 0001:65F0   276 0001:65F2   277 0001:65F4   278 0001:65F8
   280 0001:65FB   281 0001:65FE   282 0001:6600   283 0001:6603
   284 0001:6605   295 0001:6607   297 0001:660B   298 0001:660F
   300 0001:6613   301 0001:6615   302 0001:6617   303 0001:661C
   304 0001:661E   305 0001:6620   318 0001:6623   321 0001:6627
   353 0001:6630   354 0001:6638   355 0001:663D   356 0001:6640
   360 0001:6644   361 0001:6646   362 0001:664A   364 0001:664D
   365 0001:664F   366 0001:6651   367 0001:6653   368 0001:6655
   370 0001:6658   371 0001:665C   372 0001:665E   373 0001:6660
   374 0001:6662   377 0001:6665   378 0001:6668   380 0001:666A

Line numbers for ldopen.obj(ldopen.ASM) segment _TEXT

   186 0001:6674   187 0001:667B   190 0001:6680   191 0001:6684
   192 0001:6686   193 0001:6689   194 0001:6691   198 0001:6694
   199 0001:6697   200 0001:669A   201 0001:669D   202 0001:66A0
   206 0001:66A3   207 0001:66A6   211 0001:66A9   214 0001:66B3
   215 0001:66B5   217 0001:66B7   218 0001:66BA   219 0001:66BD
   220 0001:66D2   223 0001:66D5   224 0001:66D9   225 0001:66DB
   226 0001:66DE   227 0001:66E0   228 0001:66E2   231 0001:66E5
   232 0001:66E9   235 0001:66ED   236 0001:66EF   239 0001:66F1
   240 0001:66F4   241 0001:66F7   242 0001:66FF   243 0001:6707
   244 0001:6709   248 0001:670B   249 0001:6710   250 0001:6713
   251 0001:6718   252 0001:671A   254 0001:671D   255 0001:671F
   256 0001:6720   263 0001:6723   264 0001:6726   265 0001:672D
   266 0001:672F   269 0001:6731   270 0001:6739   271 0001:673B
   272 0001:673E   276 0001:6740   277 0001:6743   278 0001:6744
   279 0001:6746   280 0001:6747   281 0001:6749   284 0001:674B
   285 0001:674E   286 0001:6752   287 0001:675C   292 0001:675E
   293 0001:6761   295 0001:6764   296 0001:6767   297 0001:6772
   301 0001:6774   302 0001:6777   303 0001:677A   306 0001:678A
   323 0001:6791   325 0001:6798   326 0001:679B   327 0001:679E
   328 0001:67A1   331 0001:67A3   332 0001:67A6   333 0001:67AA
   334 0001:67AC   335 0001:67AE   337 0001:67B0   338 0001:67B2
   339 0001:67B4   340 0001:67B7   341 0001:67B9   344 0001:67BB
   345 0001:67BE   346 0001:67C1   347 0001:67C4   349 0001:67C7
   350 0001:67C9   352 0001:67CC   353 0001:67CE   354 0001:67D0
   355 0001:67D1   356 0001:67D6   357 0001:67DA   359 0001:67DB
   361 0001:67DD   362 0001:67E0   364 0001:67E5   365 0001:67E7
   366 0001:67EB   367 0001:67ED   368 0001:67F0   369 0001:67F2
   370 0001:67F5   372 0001:67F7   373 0001:67FB   376 0001:67FF
   377 0001:6803   382 0001:6805   383 0001:6808   384 0001:680A
   387 0001:680F   388 0001:6813   389 0001:6815   391 0001:6817
   392 0001:681A   393 0001:681C   394 0001:6821   398 0001:6823
   399 0001:6825   400 0001:6827   401 0001:6828   402 0001:6829
   403 0001:682A   404 0001:682F   405 0001:6830   406 0001:6831
   407 0001:6832   408 0001:6835   409 0001:6838   412 0001:683A
   413 0001:683D   414 0001:683F   415 0001:6844   416 0001:6847
   417 0001:684A   418 0001:684F   421 0001:6851   423 0001:6854
   446 0001:685B   448 0001:6862   449 0001:6865   450 0001:6868
   452 0001:686B   453 0001:686D   454 0001:686F   459 0001:6872
   460 0001:6876   461 0001:6878   465 0001:687A   466 0001:687D
   469 0001:6884   470 0001:6887   471 0001:688A   472 0001:688D
   473 0001:688F   474 0001:6890   477 0001:6892   495 0001:6899
   496 0001:689E   500 0001:68AA   501 0001:68AD   502 0001:68AE
   503 0001:68B0   504 0001:68B1   509 0001:68B3   510 0001:68B4
   511 0001:68B6   512 0001:68B7   518 0001:68B9   519 0001:68BE
   520 0001:68C0   521 0001:68C2   530 0001:68C4   531 0001:68C9
   532 0001:68CB   533 0001:68CE   534 0001:68D0   538 0001:68D2
   540 0001:68D5   541 0001:68D7   545 0001:68DC   546 0001:68E3
   547 0001:68E5   548 0001:68E7   551 0001:68E9   554 0001:68EE
   555 0001:68F1   556 0001:68F2   557 0001:68F5   558 0001:68F6
   559 0001:68F7   560 0001:68F9   561 0001:68FB   565 0001:68FD
   566 0001:68FF   567 0001:6902   568 0001:6906   571 0001:6908
   572 0001:690C   573 0001:6910   576 0001:6912   577 0001:6916
   579 0001:691A   582 0001:691C   583 0001:6920   589 0001:6924
   611 0001:692A   612 0001:692F   615 0001:693B   617 0001:6941
   618 0001:6943   619 0001:6945   620 0001:6947   624 0001:6949
   625 0001:694C   626 0001:694E   627 0001:6951   630 0001:6954
   631 0001:6956   633 0001:6959   634 0001:695B   637 0001:695D
   638 0001:6960   639 0001:6962   640 0001:6964   641 0001:6965
   642 0001:6966   643 0001:6967   644 0001:6969   645 0001:696B
   646 0001:696D   647 0001:696E   648 0001:696F   649 0001:6970
   650 0001:6972   651 0001:6974   653 0001:6976   654 0001:6979
   657 0001:697B   658 0001:697F   659 0001:6984   660 0001:6989
   661 0001:698B   665 0001:698D   666 0001:698E   667 0001:6990
   668 0001:6993   669 0001:6995   670 0001:6997   684 0001:6998
   685 0001:699D   686 0001:699F   687 0001:69A4   689 0001:69A6
   690 0001:69A8   694 0001:69A9   695 0001:69AD   703 0001:69B0
   721 0001:69B6   724 0001:69BD   725 0001:69C1   726 0001:69C3
   727 0001:69C6   731 0001:69C8   732 0001:69CB   733 0001:69CF
   734 0001:69D1   735 0001:69D3   736 0001:69D6   738 0001:69D8
   739 0001:69DA   740 0001:69DC   741 0001:69DF   743 0001:69E1
   744 0001:69E6   745 0001:69EB   750 0001:69ED   751 0001:69F0
   752 0001:69F3   753 0001:69F8   758 0001:69FA   759 0001:69FC
   760 0001:69FF   761 0001:6A02   762 0001:6A07   763 0001:6A09
   766 0001:6A0B   767 0001:6A0E   768 0001:6A10   769 0001:6A15
   770 0001:6A1A   771 0001:6A1C   772 0001:6A1E   773 0001:6A20
   774 0001:6A21   775 0001:6A26   777 0001:6A27   781 0001:6A28
   799 0001:6A2F   801 0001:6A36   802 0001:6A39   803 0001:6A3D
   804 0001:6A3F   805 0001:6A41   806 0001:6A43   809 0001:6A46
   810 0001:6A47   811 0001:6A4A   813 0001:6A4D   814 0001:6A57
   816 0001:6A58   817 0001:6A5B   818 0001:6A5D   819 0001:6A5F
   820 0001:6A62   823 0001:6A64   824 0001:6A69   825 0001:6A6B
   827 0001:6A6E   828 0001:6A70   829 0001:6A73   830 0001:6A78
   833 0001:6A7A   834 0001:6A7B   837 0001:6A7D   840 0001:6A7E
   856 0001:6A85   858 0001:6A8B   859 0001:6A8E   860 0001:6A90
   861 0001:6A92   862 0001:6A93   863 0001:6A95   864 0001:6A97
   865 0001:6A99   868 0001:6A9C   869 0001:6A9D   870 0001:6AA0
   871 0001:6AA3   872 0001:6AA6   873 0001:6AA8   874 0001:6AAA
   875 0001:6AAD   877 0001:6AAF   879 0001:6AB2   883 0001:6AB4
   884 0001:6AB7   885 0001:6ABA   886 0001:6AC0   887 0001:6AC3
   888 0001:6AC6   889 0001:6AC8   890 0001:6ACA   891 0001:6ACD
   892 0001:6ACF   893 0001:6AD1   894 0001:6AD2   895 0001:6AD4
   896 0001:6AD7   897 0001:6AD9   898 0001:6ADB   900 0001:6ADD
   902 0001:6AE1   903 0001:6AE4   905 0001:6AE7   906 0001:6AE9
   907 0001:6AEB   908 0001:6AEC   909 0001:6AF1   910 0001:6AF5
   912 0001:6AF6   914 0001:6AF8   916 0001:6AFD   917 0001:6B01
   920 0001:6B05   921 0001:6B09   926 0001:6B0B   927 0001:6B0E
   928 0001:6B10   933 0001:6B15   934 0001:6B19   935 0001:6B1B
   937 0001:6B1D   938 0001:6B20   939 0001:6B22   940 0001:6B27
   941 0001:6B2A   943 0001:6B2C   944 0001:6B2E   945 0001:6B30
   946 0001:6B31   947 0001:6B32   948 0001:6B37   949 0001:6B38
   950 0001:6B39   951 0001:6B3C   952 0001:6B3F   955 0001:6B41
   958 0001:6B44   975 0001:6B4B   977 0001:6B51   978 0001:6B55
   979 0001:6B57   980 0001:6B5C   981 0001:6B5E   982 0001:6B62
   983 0001:6B64   984 0001:6B67   985 0001:6B69   986 0001:6B6C
   987 0001:6B6F   989 0001:6B71   992 0001:6B76   993 0001:6B7B
   994 0001:6B7E   995 0001:6B81   996 0001:6B85   997 0001:6B88
   998 0001:6B8B  1005 0001:6B8E  1006 0001:6B91  1019 0001:6B98
  1020 0001:6B99  1021 0001:6B9E  1022 0001:6BA3  1024 0001:6BA4
  1035 0001:6BA5  1036 0001:6BAA  1037 0001:6BAE  1038 0001:6BB0
  1039 0001:6BB2  1041 0001:6BB4  1043 0001:6BB8  1044 0001:6BBC
  1045 0001:6BBE  1048 0001:6BBF  1050 0001:6BC3  1092 0001:6BC5
  1093 0001:6BCA  1094 0001:6BCD  1095 0001:6BD0  1096 0001:6BD3
  1098 0001:6BD6  1099 0001:6BD7  1100 0001:6BDA  1101 0001:6BDD
  1102 0001:6BE0  1104 0001:6BE2  1105 0001:6BE3  1106 0001:6BE6
  1107 0001:6BE8  1108 0001:6BE9  1109 0001:6BEC  1110 0001:6BEE
  1111 0001:6BEF  1112 0001:6BF1  1113 0001:6BF3  1114 0001:6BF4
  1115 0001:6BF6  1116 0001:6BF8  1118 0001:6BFA  1119 0001:6BFD
  1120 0001:6BFE  1121 0001:6BFF  1122 0001:6C01  1123 0001:6C03
  1124 0001:6C05  1125 0001:6C07  1127 0001:6C08  1138 0001:6C0A
  1139 0001:6C0E  1140 0001:6C10  1141 0001:6C11  1142 0001:6C15
  1143 0001:6C16  1144 0001:6C17  1148 0001:6C22  1149 0001:6C25
  1150 0001:6C28  1151 0001:6C2F  1152 0001:6C31  1153 0001:6C32
  1154 0001:6C33  1155 0001:6C35  1156 0001:6C38  1158 0001:6C3A
  1163 0001:6C3D  1164 0001:6C40  1165 0001:6C42  1167 0001:6C45
  1180 0001:6C4A  1181 0001:6C50  1182 0001:6C55  1183 0001:6C5A
  1184 0001:6C5C  1186 0001:6C5F  1187 0001:6C62  1193 0001:6C65
  1197 0001:6C67  1199 0001:6C77  1208 0001:6C7E  1209 0001:6C84
  1210 0001:6C89  1211 0001:6C8E  1212 0001:6C90  1214 0001:6C93
  1215 0001:6C96  1221 0001:6C99  1225 0001:6C9B  1227 0001:6CAB
  1237 0001:6CB2  1238 0001:6CB3  1239 0001:6CB9  1250 0001:6CBA
  1251 0001:6CBC  1254 0001:6CBD  1255 0001:6CC0  1268 0001:6CC1
  1269 0001:6CC7  1270 0001:6CCC  1271 0001:6CCF  1272 0001:6CD4
  1275 0001:6CD6  1276 0001:6CD7  1277 0001:6CD8  1278 0001:6CDB
  1279 0001:6CDE  1281 0001:6CE1  1282 0001:6CE4  1284 0001:6CE6
  1285 0001:6CEA  1287 0001:6CED  1288 0001:6CEE  1290 0001:6CEF
  1291 0001:6CF2  1294 0001:6CF5  1295 0001:6CF6  1297 0001:6CF9
  1298 0001:6CFA  1300 0001:6CFD  1302 0001:6CFF  1304 0001:6D02
  1306 0001:6D04  1309 0001:6D08  1310 0001:6D0A  1325 0001:6D11
  1326 0001:6D12  1327 0001:6D13  1328 0001:6D14  1329 0001:6D16
  1330 0001:6D18  1331 0001:6D19  1372 0001:6D1A  1374 0001:6D26
  1378 0001:6D2C  1379 0001:6D2D  1380 0001:6D2E  1381 0001:6D33
  1382 0001:6D38  1383 0001:6D3A  1388 0001:6D3D  1389 0001:6D3E
  1390 0001:6D43  1391 0001:6D44  1392 0001:6D45  1393 0001:6D46
  1434 0001:6D47  1435 0001:6D48  1436 0001:6D4A  1437 0001:6D4D
  1438 0001:6D4F  1439 0001:6D51  1440 0001:6D52  1441 0001:6D53
  1442 0001:6D55  1443 0001:6D57  1444 0001:6D59  1445 0001:6D5D
  1446 0001:6D5F  1447 0001:6D61  1448 0001:6D63  1449 0001:6D65
  1450 0001:6D67  1451 0001:6D69  1452 0001:6D6A  1456 0001:6D6C
  1482 0001:6D6D  1483 0001:6D71  1484 0001:6D76  1485 0001:6D7B
  1486 0001:6D80  1490 0001:6D81  1491 0001:6D85  1492 0001:6D87
  1493 0001:6D88  1494 0001:6D89  1495 0001:6D8B  1496 0001:6D8D
  1497 0001:6D8F  1498 0001:6D91  1499 0001:6D93  1501 0001:6D96
  1502 0001:6D98  1504 0001:6D9D  1505 0001:6D9F  1506 0001:6DA1
  1507 0001:6DA3  1511 0001:6DA5  1513 0001:6DAA  1517 0001:6DAF
  1518 0001:6DB3  1519 0001:6DB5  1520 0001:6DB9  1521 0001:6DBB
  1523 0001:6DC0  1528 0001:6DC5  1529 0001:6DC6  1531 0001:6DCA
  1536 0001:6DCB  1537 0001:6DCE  1538 0001:6DD0  1539 0001:6DD2
  1540 0001:6DD4  1541 0001:6DD6  1542 0001:6DD8  1543 0001:6DDA
  1544 0001:6DDB  1545 0001:6DDE  1546 0001:6DE0  1547 0001:6DE2
  1548 0001:6DE4  1549 0001:6DE6  1550 0001:6DE8  1551 0001:6DED
  1552 0001:6DEF  1554 0001:6DF2  1555 0001:6DF3  1556 0001:6DF4
  1557 0001:6DFB  1558 0001:6DFC  1559 0001:6DFD  1560 0001:6DFF
  1561 0001:6E01  1562 0001:6E04  1563 0001:6E06  1564 0001:6E08
  1565 0001:6E09  1566 0001:6E0A  1567 0001:6E0D  1580 0001:6E0E
  1581 0001:6E12  1582 0001:6E14  1583 0001:6E16  1584 0001:6E18
  1588 0001:6E1A  1589 0001:6E1C  1590 0001:6E1D  1596 0001:6E20
  1597 0001:6E22  1599 0001:6E24  1600 0001:6E25  1601 0001:6E27
  1602 0001:6E29  1603 0001:6E2B  1608 0001:6E2D  1609 0001:6E31
  1610 0001:6E33  1611 0001:6E37  1612 0001:6E39  1613 0001:6E3A
  1614 0001:6E3B  1615 0001:6E3E  1618 0001:6E40  1619 0001:6E42
  1620 0001:6E44  1621 0001:6E46  1624 0001:6E48  1625 0001:6E4B
  1626 0001:6E4D  1637 0001:6E52  1638 0001:6E55  1639 0001:6E57
  1641 0001:6E59  1642 0001:6E5B  1646 0001:6E5D  1650 0001:6E5F
  1651 0001:6E62  1653 0001:6E64  1657 0001:6E65  1658 0001:6E67
  1691 0001:6E69  1693 0001:6E6B  1694 0001:6E6C  1695 0001:6E70
  1696 0001:6E72  1697 0001:6E74  1698 0001:6E76  1701 0001:6E78
  1703 0001:6E79  1704 0001:6E7B  1706 0001:6E7E  1707 0001:6E80
  1708 0001:6E81  1709 0001:6E84  1711 0001:6E86  1712 0001:6E88
  1713 0001:6E8A  1716 0001:6E8D  1717 0001:6E8F  1718 0001:6E91
  1720 0001:6E93  1721 0001:6E94  1727 0001:6E96  1729 0001:6E98
  1730 0001:6E9A  1731 0001:6E9C  1733 0001:6E9E  1734 0001:6EA0
  1735 0001:6EA2  1736 0001:6EA4  1737 0001:6EA6  1738 0001:6EA8
  1739 0001:6EAA  1740 0001:6EAC  1741 0001:6EAE  1742 0001:6EB0
  1743 0001:6EB2  1744 0001:6EB4  1745 0001:6EB6  1746 0001:6EB8
  1747 0001:6EBA  1748 0001:6EBC  1749 0001:6EBE  1750 0001:6EC0
  1751 0001:6EC2  1752 0001:6EC4  1753 0001:6EC6  1754 0001:6EC8
  1756 0001:6ECA  1767 0001:6ECC  1769 0001:6ECF  1770 0001:6ED3
  1772 0001:6ED5  1773 0001:6ED6  1774 0001:6ED9  1775 0001:6EDB
  1776 0001:6EDD  1777 0001:6EDF  1778 0001:6EE1  1782 0001:6EE3
  1783 0001:6EE7  1792 0001:6EE9  1801 0001:6EEC  1802 0001:6EEF
  1803 0001:6EF1  1804 0001:6EF4  1805 0001:6EF6  1806 0001:6EF8
  1807 0001:6EFA  1808 0001:6EFC  1809 0001:6EFE  1811 0001:6F01
  1812 0001:6F04  1813 0001:6F06  1817 0001:6F09  1818 0001:6F0D
  1819 0001:6F0F  1820 0001:6F13  1823 0001:6F15  1824 0001:6F18
  1825 0001:6F1A  1826 0001:6F1C  1828 0001:6F1E  1829 0001:6F21
  1831 0001:6F23  1832 0001:6F25  1833 0001:6F27  1835 0001:6F2A
  1836 0001:6F2D  1838 0001:6F2F  1839 0001:6F30  1840 0001:6F32
  1843 0001:6F33  1844 0001:6F37  1845 0001:6F39  1846 0001:6F3A
  1847 0001:6F3B  1848 0001:6F3D  1849 0001:6F3F  1850 0001:6F41
  1851 0001:6F44  1852 0001:6F46  1855 0001:6F47  1856 0001:6F4A
  1864 0001:6F4C  1865 0001:6F4E  1866 0001:6F4F  1867 0001:6F54
  1868 0001:6F58  1870 0001:6F59  1880 0001:6F5A  1881 0001:6F60
  1882 0001:6F65  1883 0001:6F67  1884 0001:6F6B  1887 0001:6F6D
  1890 0001:6F72  1891 0001:6F76  1892 0001:6F7A  1893 0001:6F80
  1894 0001:6F83  1896 0001:6F89  1898 0001:6F9D  1899 0001:6FA1
  1900 0001:6FA5  1902 0001:6FAA  1903 0001:6FB0  1906 0001:6FB2
  1907 0001:6FBD  1910 0001:6FBE

Line numbers for ldopen.obj(ldopen.ASM) segment _MISCTEXT

  1925 0003:0576  1926 0003:0577  1927 0003:0578  1928 0003:057B
  1929 0003:057C  1930 0003:057D  1939 0003:057E  1940 0003:0585
  1941 0003:0588  1942 0003:058A  1943 0003:058C  1944 0003:058E
  1951 0003:0590  1953 0003:0593  1954 0003:0598  1956 0003:059B
  1957 0003:059D  1958 0003:05A0  1959 0003:05A6  1961 0003:05A8
  1962 0003:05AA  1963 0003:05B0  1965 0003:05B2  1968 0003:05B5
  1969 0003:05BF  1970 0003:05C1  1980 0003:05C8  1981 0003:05CA
  1982 0003:05CB  1983 0003:05CC  1984 0003:05D0  1985 0003:05D2
  1986 0003:05D4  1987 0003:05D6  1988 0003:05DC  1989 0003:05DE
  1990 0003:05E0  1991 0003:05E5  1992 0003:05E7  1993 0003:05E9
  1994 0003:05EA  1995 0003:05EC  1996 0003:05EE  1997 0003:05F3
  1998 0003:05F5  1999 0003:05F8  2000 0003:05FA  2001 0003:05FB
  2002 0003:05FE  2003 0003:0600  2004 0003:0602  2006 0003:0604
  2007 0003:0606  2009 0003:0608  2010 0003:060A  2011 0003:060B
  2012 0003:060C  2017 0003:060F  2018 0003:0611  2019 0003:0613
  2020 0003:0615  2021 0003:0618  2022 0003:061B  2023 0003:061D
  2024 0003:061F  2026 0003:0621  2027 0003:0624  2028 0003:0626
  2030 0003:0629  2043 0003:062A  2044 0003:0631  2045 0003:0635
  2046 0003:0637  2047 0003:063A  2048 0003:0642  2050 0003:0645
  2051 0003:0647  2052 0003:0648  2053 0003:064B  2054 0003:064D
  2055 0003:064F  2057 0003:0654  2058 0003:0655  2059 0003:0657
  2061 0003:0659  2062 0003:065C  2063 0003:065E  2064 0003:065F
  2065 0003:0662  2066 0003:0664  2067 0003:0665  2068 0003:0667
  2069 0003:0669  2070 0003:066A  2071 0003:066C  2072 0003:066E
  2081 0003:0670  2082 0003:0674  2083 0003:0676  2084 0003:0677
  2086 0003:0678  2087 0003:0679  2088 0003:067B  2089 0003:067D
  2090 0003:067E  2093 0003:0680  2094 0003:0682  2095 0003:0683
  2098 0003:0685  2099 0003:0686  2100 0003:0687  2101 0003:0691
  2104 0003:0693  2105 0003:0696  2106 0003:069A  2107 0003:069C
  2109 0003:069D  2111 0003:069E  2112 0003:06A1  2114 0003:06A4
  2115 0003:06A5  2116 0003:06A7  2117 0003:06A9  2118 0003:06AA
  2120 0003:06AC  2121 0003:06AF  2122 0003:06B1  2123 0003:06B3
  2124 0003:06B5  2125 0003:06BB  2127 0003:06BD  2128 0003:06C0
  2129 0003:06C2  2130 0003:06C3  2132 0003:06C5  2133 0003:06C7
  2134 0003:06CA  2135 0003:06CB  2136 0003:06CD  2137 0003:06D0
  2138 0003:06D1  2139 0003:06D4  2140 0003:06D5  2141 0003:06D8
  2142 0003:06D9  2143 0003:06DB  2148 0003:06DC  2149 0003:06E0
  2151 0003:06E2  2152 0003:06E5  2153 0003:06E7  2154 0003:06EA
  2155 0003:06EC  2156 0003:06F2  2157 0003:06F4  2158 0003:06F6
  2159 0003:06F8  2160 0003:06FB  2161 0003:06FE  2162 0003:06FF
  2165 0003:0701  2166 0003:0703  2167 0003:0705  2168 0003:070B
  2171 0003:070D  2172 0003:070F  2174 0003:0712  2175 0003:0715
  2177 0003:0717  2178 0003:0724  2179 0003:0727  2180 0003:072A
  2181 0003:072E

Line numbers for ldint.obj(ldint.ASM) segment _TEXT

   194 0001:6FC6   195 0001:6FC9   197 0001:6FCE   198 0001:6FD0
   199 0001:6FD3   200 0001:6FD5   203 0001:6FE0   204 0001:6FE1
   205 0001:6FE5   206 0001:6FEC   207 0001:6FED   209 0001:6FEF
   210 0001:6FF4   213 0001:6FF6   214 0001:6FF9   215 0001:6FFE
   216 0001:7000   217 0001:7001   220 0001:7003   221 0001:7004
   222 0001:7007   223 0001:7009   224 0001:700B   225 0001:700C
   226 0001:700F   229 0001:7011   230 0001:7012   231 0001:7015
   234 0001:7016   235 0001:7017   236 0001:701A   238 0001:701B
   239 0001:701D   240 0001:701F   241 0001:7024   242 0001:7026
   244 0001:7029   246 0001:702A   247 0001:702D   249 0001:702E
   250 0001:7032   254 0001:7033   283 0001:7037   285 0001:703B
   286 0001:703F   287 0001:7041   288 0001:7046   290 0001:704B
   291 0001:7057   292 0001:705A   293 0001:705C   295 0001:705F
   308 0001:7064   309 0001:706B   310 0001:7070   311 0001:7071
   312 0001:7074   313 0001:7077   314 0001:707B   315 0001:707E
   316 0001:7081   317 0001:7084   318 0001:7088   320 0001:708B
   321 0001:708C   323 0001:708D   324 0001:7093   325 0001:7095
   326 0001:7097   327 0001:7099   328 0001:70A0   330 0001:70A2
   331 0001:70A5   332 0001:70A8   333 0001:70AD   334 0001:70B0
   336 0001:70B5   337 0001:70B9   338 0001:70BC   339 0001:70BE
   340 0001:70C0   341 0001:70C3   342 0001:70C4   343 0001:70C6
   345 0001:70C8   348 0001:70CB   349 0001:70D0   350 0001:70D3
   351 0001:70D6   352 0001:70D8   354 0001:70DA   355 0001:70DB
   356 0001:70DC   358 0001:70DF   359 0001:70E2   360 0001:70E7
   363 0001:70E9   364 0001:70EA   366 0001:70EB   367 0001:70EF
   368 0001:70F2   369 0001:70FA   370 0001:70FC   371 0001:70FE
   372 0001:7102   373 0001:7103   374 0001:710B   375 0001:710D
   376 0001:710F   377 0001:7113   378 0001:7116   379 0001:7119
   380 0001:711D   381 0001:7120   384 0001:7128   385 0001:712D
   386 0001:7131   387 0001:7136   388 0001:7138   390 0001:713C
   392 0001:713F   394 0001:7142   395 0001:7143   396 0001:7144
   397 0001:7146   398 0001:7148   399 0001:714A   402 0001:714B
   403 0001:7150   408 0001:7151   409 0001:7152   410 0001:7153
   411 0001:7155   412 0001:7157   413 0001:7158   430 0001:7159
   432 0001:715E   433 0001:7163   434 0001:7165   435 0001:7168
   437 0001:716E   438 0001:7171   455 0001:7176   456 0001:7179
   457 0001:717B   459 0001:717D   468 0001:717F   469 0001:7182
   471 0001:7183   472 0001:7184   474 0001:7187   475 0001:718B
   476 0001:718C   479 0001:7192   480 0001:7196   481 0001:7198
   484 0001:71A0   485 0001:71A5   487 0001:71A7   488 0001:71B2
   489 0001:71B4   490 0001:71B6   491 0001:71B9   492 0001:71BC
   493 0001:71C0   494 0001:71C3   495 0001:71C6   496 0001:71C9
   497 0001:71CC   498 0001:71CF   503 0001:71D1   504 0001:71D7
   506 0001:71D9   507 0001:71DB   509 0001:71DD   511 0001:71FD
   512 0001:7200   514 0001:7202   530 0001:7204   533 0001:7206
   534 0001:720B   535 0001:720F   545 0001:7210   546 0001:7211
   548 0001:7216   558 0001:7217   559 0001:721D   561 0001:721F
   562 0001:7225   564 0001:7227   565 0001:7229   567 0001:722B
   569 0001:724B   570 0001:724E   572 0001:7250   578 0001:7252
   579 0001:7253   580 0001:7254   586 0001:7259   587 0001:725C
   588 0001:725D   589 0001:725F   590 0001:7264   591 0001:7269
   592 0001:726A   594 0001:726D   595 0001:726E   597 0001:726F
   611 0001:7270   612 0001:7271   613 0001:7276   615 0001:7277
   616 0001:727D   618 0001:727F   619 0001:7281   621 0001:7283
   623 0001:72A3   624 0001:72A6   626 0001:72A8   632 0001:72AA
   633 0001:72AB   634 0001:72AC   637 0001:72B1   638 0001:72B2
   640 0001:72B3   648 0001:72B4   649 0001:72B5   650 0001:72BA
   652 0001:72BB   653 0001:72C1   655 0001:72C3   656 0001:72C5
   659 0001:72C7   661 0001:72E7   662 0001:72EA   664 0001:72EC
   670 0001:72EE   671 0001:72EF   672 0001:72F0   675 0001:72F5
   676 0001:72F6   678 0001:72F7   690 0001:72F8   691 0001:72FB
   692 0001:72FE   698 0001:7303   717 0001:7304   723 0001:730C
   724 0001:7311   725 0001:7313   727 0001:7315   732 0001:7317
   733 0001:7318   734 0001:731D   735 0001:7323   736 0001:7324
   746 0001:7325   765 0001:7326   771 0001:732E   772 0001:7333
   773 0001:7335   775 0001:7337   799 0001:7339   800 0001:733C
   801 0001:7342   802 0001:7345   804 0001:7347   805 0001:734C
   806 0001:734E   808 0001:7351   811 0001:7353   812 0001:7357
   813 0001:735A   814 0001:735D   816 0001:7362   817 0001:7367
   818 0001:7369   819 0001:736A   820 0001:736B   821 0001:7379
   822 0001:737A   826 0001:737B   827 0001:737D   828 0001:7381
   829 0001:7384   832 0001:738F   835 0001:7392   836 0001:7396
   838 0001:7398   840 0001:73A6   841 0001:73A7   842 0001:73A9
   843 0001:73B0   845 0001:73B1   847 0001:73B5   848 0001:73B7
   849 0001:73B9   851 0001:73BA   852 0001:73BD   853 0001:73BF
   856 0001:73C2   857 0001:73C7   859 0001:73C9   863 0001:73CD
   864 0001:73D2   865 0001:73D4   866 0001:73D7   868 0001:73DA
   874 0001:73E9   875 0001:73EC   876 0001:73FB   880 0001:7401
   881 0001:7406   882 0001:740B   884 0001:740E   885 0001:7412
   887 0001:7415   899 0001:7416   900 0001:7417   901 0001:7419
   902 0001:741A   903 0001:741B   904 0001:7420   906 0001:7421
   908 0001:7424   909 0001:7425   911 0001:7426   912 0001:7427
   913 0001:7428   914 0001:742B   916 0001:742C   917 0001:742D
   918 0001:742E   919 0001:742F   920 0001:7430   921 0001:7433
   976 0001:7434   977 0001:7443   978 0001:7452   979 0001:7461
   980 0001:7470   989 0001:747F   991 0001:748C   992 0001:748D
   993 0001:748F   994 0001:7490   995 0001:7491   996 0001:7496
   998 0001:7497   999 0001:749A  1000 0001:749C  1002 0001:749E
  1003 0001:74A0  1005 0001:74A2  1006 0001:74A5  1008 0001:74A7
  1009 0001:74A9  1013 0001:74AC  1014 0001:74B0  1015 0001:74B2
  1018 0001:74BA  1022 0001:74E1  1023 0001:74E9  1024 0001:74EC
  1025 0001:74EE  1028 0001:74F4  1030 0001:74F7  1031 0001:74FA
  1033 0001:74FD  1047 0001:7501  1048 0001:7504  1050 0001:7506
  1052 0001:7508  1053 0001:750F  1055 0001:7511  1056 0001:7516
  1057 0001:7519  1058 0001:751E  1060 0001:7520  1061 0001:7524
  1062 0001:7526  1063 0001:7529  1064 0001:752A  1069 0001:752C
  1079 0001:752F  1080 0001:7530  1081 0001:7532  1082 0001:7535
  1083 0001:7536  1084 0001:7538  1085 0001:7539  1086 0001:753A
  1087 0001:753B  1088 0001:753E  1089 0001:7540  1090 0001:7541
  1092 0001:7542  1093 0001:7545  1094 0001:7546  1095 0001:7547
  1096 0001:7549  1097 0001:754B  1098 0001:754C  1099 0001:754D
  1104 0001:754E  1107 0001:7551  1108 0001:7552  1110 0001:7554
  1111 0001:7556  1112 0001:7558  1113 0001:755B  1114 0001:755C
  1115 0001:755D  1119 0001:755E  1120 0001:7561  1121 0001:7564
  1125 0001:7566  1126 0001:7569  1127 0001:756C  1129 0001:756E
  1133 0001:756F  1134 0001:7570  1135 0001:7572  1136 0001:7573
  1137 0001:7576  1138 0001:7577  1139 0001:7578  1140 0001:7579
  1144 0001:757A  1148 0001:757D  1149 0001:7580  1150 0001:7585
  1153 0001:7588  1154 0001:758D  1157 0001:7591  1159 0001:7592
  1161 0001:7597  1162 0001:7599  1163 0001:759D  1164 0001:759F
  1166 0001:75A5  1168 0001:75A8  1169 0001:75A9  1170 0001:75B0
  1171 0001:75B3  1172 0001:75B4  1175 0001:75B6  1176 0001:75B7
  1177 0001:75BB  1178 0001:75C6  1180 0001:75C7  1181 0001:75C8
  1183 0001:75C9  1184 0001:75CA  1191 0001:75CB  1192 0001:75CC
  1193 0001:75CE  1194 0001:75CF  1195 0001:75D2  1196 0001:75D5
  1197 0001:75D8  1198 0001:75DA  1199 0001:75DC  1201 0001:75E4
  1202 0001:75E5  1204 0001:75E6  1216 0001:75E7  1217 0001:75E8
  1219 0001:75E9  1221 0001:75EA  1222 0001:75ED  1223 0001:75EF
  1224 0001:75F2  1225 0001:75F3  1226 0001:75F6  1227 0001:75F9
  1228 0001:75FC  1229 0001:75FF  1230 0001:7602  1231 0001:7605
  1232 0001:7608  1233 0001:760B  1234 0001:760E  1235 0001:760F
  1237 0001:7610  1239 0001:7615  1240 0001:7616  1241 0001:7618
  1242 0001:761B  1243 0001:761E  1244 0001:7621  1245 0001:7624
  1246 0001:7627  1247 0001:762A  1248 0001:762D  1249 0001:762E
  1250 0001:762F  1251 0001:7632  1279 0001:7633  1296 0001:7634
  1298 0001:763C  1299 0001:763E  1300 0001:7641  1321 0001:7642
  1322 0001:764A  1323 0001:764F  1324 0001:7654  1325 0001:7656
  1326 0001:765A  1327 0001:765C  1328 0001:765E  1329 0001:7660
  1330 0001:7665  1331 0001:7667  1332 0001:7669  1333 0001:766E
  1334 0001:7670  1335 0001:7679  1336 0001:767E  1337 0001:7680
  1338 0001:7683  1339 0001:7685  1342 0001:768A

Line numbers for ldint.obj(ldint.ASM) segment _MISCTEXT

  1389 0003:0736  1390 0003:073C  1392 0003:073F  1393 0003:0743
  1395 0003:0745  1396 0003:0749  1398 0003:074B  1399 0003:074C
  1401 0003:0750  1402 0003:0753  1403 0003:0757  1404 0003:075A
  1405 0003:075C  1406 0003:075E  1407 0003:0760  1409 0003:0763
  1410 0003:0766  1411 0003:0769  1412 0003:076D  1413 0003:076F
  1414 0003:0772  1416 0003:0775  1417 0003:0779  1418 0003:077D
  1419 0003:0781  1420 0003:0783  1421 0003:0786  1422 0003:0788
  1423 0003:078A  1424 0003:078C  1425 0003:0790  1426 0003:0793
  1430 0003:0794  1434 0003:0796  1452 0003:079D

Line numbers for userpro.obj(userpro.ASM) segment _MISCTEXT

  1647 0003:07A0  1648 0003:07A6  1650 0003:07A9  1651 0003:07AD
  1652 0003:07B1  1653 0003:07B2  1654 0003:07B4  1655 0003:07B7
  1661 0003:07B9  1662 0003:07BD  1663 0003:07BF  1665 0003:07C0
  1666 0003:07C3  1667 0003:07C5  1668 0003:07C6  1669 0003:07C9
  1673 0003:07CA  1675 0003:07CB  1676 0003:07CC  1677 0003:07D1
  1683 0003:07D2  1684 0003:07D4  1688 0003:07D5  1689 0003:07D8
  1690 0003:07D9  1691 0003:07DC  1692 0003:07DE  1698 0003:07E1
  1699 0003:07E6  1700 0003:07E8  1701 0003:07ED  1703 0003:07F1
  1727 0003:07F8  1728 0003:07FE  1734 0003:0801  1735 0003:0805
  1737 0003:0809  1738 0003:080A  1739 0003:080C  1740 0003:080F
  1746 0003:0811  1747 0003:0815  1748 0003:0817  1750 0003:0818
  1751 0003:081B  1752 0003:081D  1753 0003:081E  1754 0003:0821
  1758 0003:0822  1760 0003:0823  1761 0003:0824  1762 0003:0829
  1768 0003:082A  1769 0003:082C  1773 0003:082D  1774 0003:0830
  1775 0003:0831  1776 0003:0834  1777 0003:0836  1783 0003:0839
  1784 0003:083E  1785 0003:0840  1786 0003:0845  1788 0003:0849

Line numbers for userpro.obj(userpro.ASM) segment _INITTEXT

  1824 0001:EB9C  1825 0001:EBA2  1826 0001:EBA7  1827 0001:EBAC
  1828 0001:EBB0  1829 0001:EBB1  1831 0001:EBB3  1835 0001:EBB5
  1836 0001:EBB8  1837 0001:EBBA  1838 0001:EBBD  1839 0001:EBC0
  1840 0001:EBC2  1841 0001:EBC4  1843 0001:EBC5  1844 0001:EBC6
  1845 0001:EBC8  1846 0001:EBCA  1849 0001:EBCC  1851 0001:EBD1
  1853 0001:EBD4  1854 0001:EBD5  1855 0001:EBD6  1856 0001:EBD8
  1859 0001:EBDA

Line numbers for ldreloc.obj(ldreloc.ASM) segment _TEXT

    81 0001:7694    82 0001:7699    84 0001:769E    85 0001:76A4
    86 0001:76A7    87 0001:76AA    88 0001:76AD    96 0001:76B8
   143 0001:76BB   144 0001:76C2   145 0001:76C5   146 0001:76C9
   147 0001:76CC   148 0001:76CF   149 0001:76D1   152 0001:76D7
   162 0001:76DA   164 0001:76DE   165 0001:76E1   166 0001:76E3
   167 0001:76E5   168 0001:76E7   170 0001:76E9   171 0001:76EB
   184 0001:76F1   185 0001:76F6   186 0001:76F9   187 0001:76FC
   188 0001:76FE   189 0001:7700   192 0001:7703   193 0001:7705
   194 0001:7707   195 0001:770A   196 0001:770D   197 0001:7712
   198 0001:7714   200 0001:771F   202 0001:7721   203 0001:7724
   205 0001:7727   206 0001:772A   207 0001:772C   210 0001:772E
   211 0001:7731   212 0001:7734   213 0001:7737   214 0001:773A
   215 0001:773F   216 0001:7741   219 0001:774C   221 0001:774F
   222 0001:7750   223 0001:7751   224 0001:7754   225 0001:7757
   226 0001:775A   227 0001:775E   228 0001:7760   229 0001:7765
   230 0001:7767   232 0001:7772   234 0001:7774   235 0001:7776
   236 0001:7778   237 0001:7783   240 0001:7786   243 0001:7789
   244 0001:778B   247 0001:778D   248 0001:778F   249 0001:7792
   250 0001:7795   251 0001:7798   252 0001:779A   253 0001:779C
   254 0001:779F   256 0001:77A1   257 0001:77A4   258 0001:77A7
   259 0001:77A9   260 0001:77B4   262 0001:77B6   263 0001:77B8
   264 0001:77BB   265 0001:77C0   266 0001:77C3   267 0001:77C6
   268 0001:77C8   269 0001:77CA   270 0001:77CB   275 0001:77CD
   276 0001:77D7   277 0001:77E2   278 0001:77E5   279 0001:77E7
   282 0001:77E9   286 0001:77F0   287 0001:77F2   291 0001:77F5
   292 0001:77F8   293 0001:77FB   295 0001:7806   296 0001:7808
   297 0001:780B   300 0001:780E   303 0001:7811   306 0001:7814
   307 0001:7816   308 0001:7818   309 0001:781B   310 0001:781D
   311 0001:781F   312 0001:782A   314 0001:782C   315 0001:782F
   316 0001:7832   317 0001:7834   318 0001:7836   319 0001:7838
   320 0001:7839   321 0001:783E   322 0001:7840   323 0001:784B
   325 0001:784D   326 0001:784E   327 0001:7850   328 0001:7852
   329 0001:7854   330 0001:7856   332 0001:7858   333 0001:785D
   334 0001:7860   338 0001:7862   340 0001:7867   341 0001:7869
   342 0001:786D   343 0001:786F   344 0001:7871   345 0001:787C
   348 0001:787E   349 0001:7880   350 0001:7882   351 0001:7883
   352 0001:7885   355 0001:7887   358 0001:7889   359 0001:788A
   360 0001:788B   362 0001:7896   363 0001:7898   364 0001:7899
   365 0001:789B   366 0001:789D   367 0001:78A8   371 0001:78AA
   372 0001:78AB   373 0001:78AC   374 0001:78AF   375 0001:78B1
   376 0001:78B3   378 0001:78B5   379 0001:78B7   380 0001:78B9
   381 0001:78BB   382 0001:78BE   383 0001:78C1   399 0001:78C4
   401 0001:78C7   402 0001:78C8   403 0001:78C9   404 0001:78CC
   405 0001:78CE   406 0001:78D1   407 0001:78D3   408 0001:78D6
   409 0001:78D8   410 0001:78DB   412 0001:78DD   418 0001:78E8
   420 0001:78EA   423 0001:78ED   424 0001:78F0   425 0001:78F3
   426 0001:78F6   427 0001:78F8   429 0001:78FB   440 0001:78FE
   442 0001:7900   446 0001:7902   447 0001:7906   449 0001:7908
   453 0001:790A   457 0001:790C   459 0001:790E   462 0001:7910
   464 0001:7913   470 0001:7915   471 0001:7917   473 0001:7919
   474 0001:791A   475 0001:791C   479 0001:791E   484 0001:7920
   485 0001:7922   487 0001:7925   490 0001:7927   492 0001:792A
   499 0001:792C   500 0001:792E   501 0001:7931   503 0001:7933
   504 0001:7934   505 0001:7936   549 0001:7968   550 0001:796A
   552 0001:796D   553 0001:7972   558 0001:7975   559 0001:7976
   560 0001:7977   563 0001:7982   565 0001:7985   568 0001:7990
   569 0001:7992   593 0001:7994   594 0001:7997   595 0001:799E
   596 0001:79A0   597 0001:79A5   598 0001:79A8   599 0001:79AB
   600 0001:79AD   601 0001:79B3   602 0001:79B5   603 0001:79BB
   604 0001:79BD   605 0001:79BE   606 0001:79C1   607 0001:79C4
   608 0001:79C6   609 0001:79C9   613 0001:79CB   616 0001:79CE
   617 0001:79CF   618 0001:79D1   619 0001:79D3   620 0001:79D6
   621 0001:79D8   622 0001:79DD   623 0001:79E2   624 0001:79E7
   627 0001:79EA   631 0001:79ED   633 0001:79EE   634 0001:79F1
   635 0001:79F4   636 0001:79F6   639 0001:79F9   650 0001:79FF
   651 0001:7A02   652 0001:7A04   653 0001:7A06   655 0001:7A0C
   656 0001:7A0D

Line numbers for ldappl.obj(ldappl.ASM) segment _NRESTEXT

    81 0002:20C6    83 0002:20CA    84 0002:20CD    85 0002:20D2
    86 0002:20D6    87 0002:20D9    88 0002:20DB    91 0002:20DE
    92 0002:20E1    95 0002:20E3    96 0002:20E6    97 0002:20EA
    98 0002:20ED    99 0002:20FA   102 0002:20FC   103 0002:20FE
   104 0002:20FF   105 0002:2104   106 0002:2106   108 0002:210B
   111 0002:210D   112 0002:2113   114 0002:2116   115 0002:2117
   116 0002:211A   117 0002:211E   119 0002:211F   120 0002:2125
   129 0002:2129   133 0002:212F   135 0002:2133   136 0002:2139
   138 0002:213D   139 0002:213F   140 0002:2140   142 0002:2146
   145 0002:2151   149 0002:2156   150 0002:2158   151 0002:2159
   154 0002:215F   157 0002:2160   158 0002:2162   180 0002:2164
   234 0002:2167

Line numbers for ldappl.obj(ldappl.ASM) segment _TEXT

   280 0001:7A14   282 0001:7A19   283 0001:7A1C   284 0001:7A21
   287 0001:7A24   289 0001:7A29   290 0001:7A2D   291 0001:7A2E
   293 0001:7A30   295 0001:7A37   298 0001:7A39   300 0001:7A45
   301 0001:7A47   303 0001:7A49   304 0001:7A4D   306 0001:7A4F
   307 0001:7A52   312 0001:7A57   314 0001:7A5A   316 0001:7A5B
   317 0001:7A67   318 0001:7A68   319 0001:7A6B   320 0001:7A6E
   324 0001:7A70   325 0001:7A79   328 0001:7A7B   329 0001:7A7E
   330 0001:7A7F   331 0001:7A81   332 0001:7A82   333 0001:7A83
   334 0001:7A85   335 0001:7A8A   337 0001:7A8B   338 0001:7A8D
   364 0001:7A92   365 0001:7A98   366 0001:7AA0   367 0001:7AA2
   369 0001:7AA4   370 0001:7AAD   374 0001:7AAF   375 0001:7AB2
   376 0001:7AB5   379 0001:7ABA

Line numbers for ldseg.obj(ldseg.ASM) segment _TEXT

   145 0001:7AC2   146 0001:7AC7   147 0001:7ACC   151 0001:7ACF
   153 0001:7AD3   154 0001:7AD6   155 0001:7AD8   156 0001:7ADA
   157 0001:7ADE   158 0001:7AE0   159 0001:7AE3   160 0001:7AE5
   161 0001:7AE8   165 0001:7AEB   166 0001:7AF0   167 0001:7AF2
   168 0001:7AF7   169 0001:7AF9   170 0001:7AFE   172 0001:7B00
   173 0001:7B0B   174 0001:7B0D   178 0001:7B0F   179 0001:7B10
   180 0001:7B11   181 0001:7B17   182 0001:7B18   183 0001:7B19
   184 0001:7B1B   205 0001:7B1D   206 0001:7B21   207 0001:7B26
   209 0001:7B2B   210 0001:7B2D   212 0001:7B32   214 0001:7B36
   216 0001:7B38   284 0001:7B3E   285 0001:7B44   286 0001:7B49
   287 0001:7B4B   288 0001:7B4E   289 0001:7B51   290 0001:7B54
   294 0001:7B57   295 0001:7B59   296 0001:7B5C   297 0001:7B5F
   298 0001:7B62   299 0001:7B63   300 0001:7B68   301 0001:7B6A
   303 0001:7B6D   304 0001:7B6F   305 0001:7B71   306 0001:7B73
   307 0001:7B75   309 0001:7B77   310 0001:7B7C   311 0001:7B7F
   314 0001:7B82   315 0001:7B89   319 0001:7B8B   320 0001:7B8F
   321 0001:7B91   322 0001:7B94   348 0001:7B97   349 0001:7B9A
   350 0001:7B9C   351 0001:7B9D   352 0001:7BA2   353 0001:7BA3
   354 0001:7BA5   355 0001:7BA7   356 0001:7BAB   357 0001:7BAE
   358 0001:7BB1   359 0001:7BB3   363 0001:7BB6   364 0001:7BB9
   365 0001:7BBC   366 0001:7BBE   367 0001:7BC4   368 0001:7BC6
   369 0001:7BD0   372 0001:7BD3   373 0001:7BD7   374 0001:7BDA
   378 0001:7BDD   379 0001:7BE0   380 0001:7BE1   381 0001:7BE3
   382 0001:7BE4   383 0001:7BE7   384 0001:7BE9   386 0001:7BEB
   387 0001:7BF0   388 0001:7BF3   389 0001:7BF6   390 0001:7BF9
   392 0001:7C01   393 0001:7C04   394 0001:7C07   395 0001:7C08
   396 0001:7C0A   397 0001:7C0D   398 0001:7C0F   399 0001:7C12
   401 0001:7C16   403 0001:7C19   405 0001:7C1A   406 0001:7C1B
   407 0001:7C27   408 0001:7C28   409 0001:7C2D   410 0001:7C2F
   412 0001:7C31   413 0001:7C32   414 0001:7C34   415 0001:7C37
   416 0001:7C38   417 0001:7C3A   418 0001:7C3B   419 0001:7C3E
   421 0001:7C40   422 0001:7C43   423 0001:7C47   424 0001:7C4F
   425 0001:7C52   426 0001:7C54   429 0001:7C56   431 0001:7C61
   434 0001:7C64   435 0001:7C67   436 0001:7C6B   437 0001:7C6F
   438 0001:7C71   440 0001:7C74   441 0001:7C77   442 0001:7C7A
   443 0001:7C7D   444 0001:7C7E   445 0001:7C80   446 0001:7C82
   447 0001:7C84   448 0001:7C85   449 0001:7C87   450 0001:7C8A
   452 0001:7C8C   453 0001:7C8D   454 0001:7C90   455 0001:7C92
   456 0001:7C94   458 0001:7C96   459 0001:7C97   460 0001:7C98
   461 0001:7C9B   478 0001:7C9D   479 0001:7CA5   480 0001:7CA8
   481 0001:7CAA   483 0001:7CAC   484 0001:7CB2   485 0001:7CB4
   486 0001:7CB6   487 0001:7CB7   488 0001:7CB8   489 0001:7CB9
   491 0001:7CBB   492 0001:7CBD   493 0001:7CBF   494 0001:7CC4
   496 0001:7CC5   497 0001:7CC7   498 0001:7CC9   499 0001:7CCB
   502 0001:7CCD   503 0001:7CCE   504 0001:7CCF   505 0001:7CD1
   508 0001:7CD3   510 0001:7CEA   511 0001:7CED   512 0001:7CEF
   513 0001:7CF0   514 0001:7CF8   516 0001:7CF9   517 0001:7CFC
   518 0001:7CFE   520 0001:7D00   523 0001:7D02   524 0001:7D0D
   525 0001:7D0F   528 0001:7D11   529 0001:7D14   530 0001:7D16
   531 0001:7D1A   532 0001:7D1C   545 0001:7D22   556 0001:7D25
   557 0001:7D29   558 0001:7D2B   559 0001:7D30   560 0001:7D31
   561 0001:7D35   562 0001:7D37   563 0001:7D39   564 0001:7D3D
   565 0001:7D3F   566 0001:7D45   567 0001:7D47   568 0001:7D4B
   570 0001:7D4C   571 0001:7D4F   573 0001:7D50   587 0001:7D59
   588 0001:7D5C   589 0001:7D5E   590 0001:7D60   591 0001:7D62
   592 0001:7D64   593 0001:7D68   594 0001:7D6A   604 0001:7D6E
   605 0001:7D71   606 0001:7D72   607 0001:7D74   608 0001:7D75
   609 0001:7D78   610 0001:7D7A   611 0001:7D7B   613 0001:7D80
   615 0001:7D83   616 0001:7D85   617 0001:7D87   620 0001:7D88
   622 0001:7D8B   624 0001:7D8C   625 0001:7D8E   711 0001:7D94
   712 0001:7D9A   713 0001:7D9F   714 0001:7DA4   715 0001:7DA9
   716 0001:7DAC   717 0001:7DB0   718 0001:7DB3   719 0001:7DB5
   720 0001:7DBA   721 0001:7DC0   722 0001:7DC2   723 0001:7DC7
   724 0001:7DC8   725 0001:7DCC   726 0001:7DCD   727 0001:7DCF
   729 0001:7DD1   732 0001:7DD3   733 0001:7DD4   734 0001:7DD6
   735 0001:7DDA   736 0001:7DDC   737 0001:7DDF   738 0001:7DE1
   739 0001:7DE4   743 0001:7DE7   744 0001:7DE8   746 0001:7DED
   747 0001:7DF2   748 0001:7DF4   749 0001:7DF7   751 0001:7DFA
   754 0001:7DFB   755 0001:7E06   756 0001:7E07   757 0001:7E0A
   759 0001:7E0C   760 0001:7E12   761 0001:7E14   762 0001:7E15
   763 0001:7E18   764 0001:7E19   765 0001:7E1C   766 0001:7E1E
   768 0001:7E29   771 0001:7E2C   772 0001:7E2E   773 0001:7E32
   774 0001:7E34   775 0001:7E35   776 0001:7E3B   777 0001:7E3C
   778 0001:7E3E   781 0001:7E40   782 0001:7E43   785 0001:7E46
   786 0001:7E47   787 0001:7E48   789 0001:7E49   790 0001:7E4A
   791 0001:7E4E   793 0001:7E50   794 0001:7E56   821 0001:7E58
   822 0001:7E5B   823 0001:7E5D   824 0001:7E5F   825 0001:7E61
   826 0001:7E64   827 0001:7E67   828 0001:7E69   829 0001:7E6B
   830 0001:7E6D   834 0001:7E70   838 0001:7E74   839 0001:7E77
   840 0001:7E7A   843 0001:7E7C   844 0001:7E7D   845 0001:7E80
   846 0001:7E83   856 0001:7E84   883 0001:7E86   884 0001:7E89
   885 0001:7E8C   886 0001:7E8E   893 0001:7E90   896 0001:7E93
   897 0001:7E95   898 0001:7E97   899 0001:7E99   915 0001:7E9B
   918 0001:7E9E   919 0001:7EA0   942 0001:7EA3   943 0001:7EA6
   944 0001:7EA8   946 0001:7EAD   947 0001:7EAF   948 0001:7EB1
   950 0001:7EB3   951 0001:7EB5   952 0001:7EB7   953 0001:7EBA
   954 0001:7EBF   955 0001:7EC1   956 0001:7EC3   957 0001:7EC9
   958 0001:7ECB   960 0001:7ECE   961 0001:7ED1   962 0001:7ED3
   963 0001:7ED5   964 0001:7EDB   965 0001:7EDD   966 0001:7EE0
   968 0001:7EE2   969 0001:7EE4   971 0001:7EE6   972 0001:7EEB
   975 0001:7EED   976 0001:7EF0   977 0001:7EF5   978 0001:7EF7
   979 0001:7EF9   980 0001:7EFB   981 0001:7F00   982 0001:7F02
   983 0001:7F04   984 0001:7F06   987 0001:7F08   989 0001:7F0D
   990 0001:7F0F   991 0001:7F11   992 0001:7F13   993 0001:7F19
   994 0001:7F1B   995 0001:7F1D   996 0001:7F20   998 0001:7F22
   999 0001:7F23  1000 0001:7F24  1001 0001:7F25  1002 0001:7F28
  1027 0001:7F2B  1029 0001:7F31  1030 0001:7F33  1061 0001:7F35
  1062 0001:7F38  1063 0001:7F3B  1064 0001:7F3D  1065 0001:7F3F
  1066 0001:7F40  1067 0001:7F42  1068 0001:7F44  1069 0001:7F46
  1073 0001:7F48  1087 0001:7F4B  1088 0001:7F4F  1089 0001:7F51
  1090 0001:7F52  1091 0001:7F5A  1093 0001:7F5B  1094 0001:7F5C
  1095 0001:7F5D  1096 0001:7F5E  1097 0001:7F62  1099 0001:7F65
  1131 0001:7F67  1132 0001:7F6A  1133 0001:7F6D  1134 0001:7F70
  1135 0001:7F73  1136 0001:7F75  1179 0001:7F7B  1183 0001:7F84
  1184 0001:7F86  1185 0001:7F8C  1186 0001:7F8E  1187 0001:7F8F
  1191 0001:7F92  1192 0001:7F93  1193 0001:7F94  1194 0001:7F9E
  1195 0001:7FA1  1196 0001:7FA2  1197 0001:7FA3  1198 0001:7FA5
  1199 0001:7FA6  1200 0001:7FA8  1201 0001:7FA9  1205 0001:7FAA
  1206 0001:7FAC  1207 0001:7FAE  1208 0001:7FB0  1209 0001:7FB5
  1210 0001:7FB6  1211 0001:7FB7  1212 0001:7FB9  1213 0001:7FBB
  1217 0001:7FBD  1218 0001:7FC1  1219 0001:7FC3  1220 0001:7FC6
  1221 0001:7FC8  1222 0001:7FCA  1223 0001:7FCC  1224 0001:7FCF
  1225 0001:7FD1  1227 0001:7FD2  1228 0001:7FD3  1229 0001:7FD5
  1230 0001:7FD6  1231 0001:7FD7  1232 0001:7FD8  1233 0001:7FDA
  1234 0001:7FDC  1235 0001:7FDD  1236 0001:7FDE  1237 0001:7FE0
  1238 0001:7FE2  1239 0001:7FE4  1243 0001:7FE6  1244 0001:7FEA
  1245 0001:7FEC  1246 0001:7FED  1247 0001:7FF0  1248 0001:7FF3
  1249 0001:7FF5  1250 0001:7FF7  1253 0001:7FF8  1254 0001:7FF9
  1255 0001:7FFA  1256 0001:7FFB  1257 0001:7FFE  1258 0001:8006
  1259 0001:8007  1260 0001:8008  1264 0001:8009  1311 0001:8010
  1312 0001:8017  1313 0001:801C  1314 0001:8022  1315 0001:8025
  1316 0001:8027  1318 0001:8029  1319 0001:802B  1321 0001:802E
  1322 0001:802F  1323 0001:8035  1324 0001:8037  1327 0001:8038
  1329 0001:803D  1331 0001:803F  1332 0001:804A  1335 0001:804C
  1336 0001:804E  1337 0001:8051  1338 0001:8055  1340 0001:8059
  1341 0001:805D  1342 0001:805F  1343 0001:8062  1345 0001:8064
  1347 0001:8067  1349 0001:806A  1350 0001:806F  1351 0001:8071
  1352 0001:8072  1354 0001:8075  1355 0001:807B  1358 0001:807D
  1359 0001:807E  1360 0001:8083  1361 0001:8085  1362 0001:8087
  1363 0001:808E  1376 0001:8090  1377 0001:8093  1379 0001:8096
  1381 0001:8099  1382 0001:809D  1384 0001:809E  1385 0001:80A0
  1387 0001:80A2  1388 0001:80A3  1389 0001:80A5  1390 0001:80A6
  1391 0001:80A8  1392 0001:80AA  1393 0001:80AC  1394 0001:80AE
  1395 0001:80B1  1398 0001:80B3  1399 0001:80B6  1400 0001:80B9
  1433 0001:80BB  1434 0001:80BE  1436 0001:80C1  1437 0001:80C6
  1438 0001:80C8  1439 0001:80CD  1441 0001:80CF  1442 0001:80D4
  1444 0001:80D6  1445 0001:80DB  1447 0001:80DD  1448 0001:80DF
  1449 0001:80E1  1450 0001:80E6  1451 0001:80E8  1452 0001:80EA
  1453 0001:80EC  1454 0001:80F1  1456 0001:80F3  1457 0001:80F7
  1460 0001:80FB  1461 0001:80FE  1462 0001:8100  1463 0001:8101
  1464 0001:8103  1466 0001:8105  1467 0001:8108  1469 0001:8109
  1489 0001:810E  1490 0001:8111  1491 0001:8114

Line numbers for ldseg.obj(ldseg.ASM) segment _NRESTEXT

  1556 0002:216C  1557 0002:2173  1559 0002:2176  1560 0002:2179
  1561 0002:217E  1562 0002:2180  1563 0002:2183  1564 0002:2184
  1565 0002:2189  1566 0002:218B  1567 0002:2190  1568 0002:2195
  1569 0002:2199  1570 0002:21A0  1571 0002:21A2  1572 0002:21A4
  1574 0002:21A7  1577 0002:21AA  1578 0002:21AD  1579 0002:21B2
  1580 0002:21B6  1583 0002:21B9  1584 0002:21BE  1585 0002:21C0
  1589 0002:21C3  1590 0002:21C7  1591 0002:21CA  1592 0002:21CC
  1593 0002:21CF  1601 0002:21D1  1602 0002:21D4  1618 0002:21D6
  1619 0002:21D9  1620 0002:21DB  1621 0002:21DE  1623 0002:21E0
  1624 0002:21E2  1625 0002:21E3  1626 0002:21EB  1627 0002:21EC
  1628 0002:21EE  1646 0002:21F0  1647 0002:21F4  1648 0002:21F9
  1650 0002:21FE  1651 0002:2200  1652 0002:2205  1662 0002:2207
  1663 0002:220C  1664 0002:220E  1667 0002:2210  1668 0002:2217
  1669 0002:2219  1670 0002:221B  1672 0002:221E  1673 0002:2221
  1674 0002:2222  1679 0002:2224  1680 0002:2229  1682 0002:222E
  1683 0002:222F  1684 0002:2233  1685 0002:2235  1687 0002:2236
  1688 0002:223C  1689 0002:223D  1691 0002:2243  1692 0002:2248
  1693 0002:224B  1694 0002:224C  1696 0002:224E  1697 0002:2253
  1702 0002:2256  1703 0002:225B  1705 0002:2260  1706 0002:2263
  1707 0002:2268  1708 0002:226C  1709 0002:226F  1711 0002:2272
  1712 0002:2276  1713 0002:2279  1714 0002:227B  1715 0002:227D
  1716 0002:2280  1717 0002:2283  1719 0002:2289  1720 0002:228E
  1722 0002:2290  1723 0002:2295  1725 0002:2297  1726 0002:2299
  1727 0002:229C  1728 0002:22A1  1730 0002:22A3  1731 0002:22A6
  1732 0002:22AA  1734 0002:22AC  1735 0002:22AF  1736 0002:22B0
  1737 0002:22B3  1740 0002:22B5  1741 0002:22B6  1742 0002:22B7
  1743 0002:22BB  1744 0002:22C9  1745 0002:22CA  1746 0002:22CC
  1747 0002:22CE  1750 0002:22D1  1751 0002:22D4  1753 0002:22DA
  1754 0002:22DE  1755 0002:22E3  1756 0002:22E8  1757 0002:22EF
  1758 0002:22F2  1759 0002:22F6  1760 0002:22F9  1764 0002:22FB
  1767 0002:22FE  1768 0002:2301

Line numbers for context.obj(context.ASM) segment _TEXT

   374 0001:811C   375 0001:811E   376 0001:8122   377 0001:8126
   379 0001:8128   380 0001:812A   382 0001:812E   383 0001:8130
   384 0001:8132   385 0001:8137   386 0001:813B   390 0001:813D
   425 0001:813E   426 0001:8141   427 0001:8145   439 0001:8148
   440 0001:814D   442 0001:8151   443 0001:8155   455 0001:8156
   456 0001:815B   458 0001:8160   459 0001:8165   469 0001:8166
   470 0001:8168   471 0001:816C   472 0001:816F   473 0001:8173
   474 0001:8177   475 0001:817C   476 0001:8181   490 0001:8184
   491 0001:8187   492 0001:8189   493 0001:818E   563 0001:8191
   570 0001:8193   595 0001:8196   596 0001:8198   598 0001:819C
   599 0001:819E   602 0001:81A0   603 0001:81A2   606 0001:81A4
   607 0001:81A7   613 0001:81A9   614 0001:81AC   615 0001:81AE
   616 0001:81B2   617 0001:81B4   618 0001:81B6   619 0001:81BD
   620 0001:81BF   623 0001:81C1   626 0001:81C3   660 0001:81C6
   662 0001:81C9   663 0001:81CA   664 0001:81CF   665 0001:81D4
   666 0001:81D6   667 0001:81D7   668 0001:81D8   670 0001:81D9
   671 0001:81DD   672 0001:81E2   673 0001:81E4   674 0001:81E5
   675 0001:81E9   676 0001:81EE   677 0001:81F2   679 0001:81F3
   680 0001:81F6   681 0001:81FA   683 0001:81FE   685 0001:8202
   687 0001:8206   688 0001:8207   689 0001:8208   695 0001:8209
   696 0001:820E   700 0001:8210   701 0001:8211   702 0001:8213
   703 0001:8214   704 0001:8217   705 0001:821A   706 0001:821D
   707 0001:8220   708 0001:8221   709 0001:8222   710 0001:8223
   713 0001:8224   714 0001:8225   717 0001:8228   718 0001:8229
   719 0001:822A   720 0001:822B   721 0001:822C   722 0001:822E
   723 0001:8233   724 0001:8237   726 0001:823B   727 0001:823C
   731 0001:823F   732 0001:8243   734 0001:8247   735 0001:824B
   736 0001:824F   738 0001:8251   739 0001:8254   740 0001:8255
   741 0001:8256   743 0001:8257   744 0001:8259   745 0001:825D
   746 0001:8261   747 0001:8265   772 0001:8268   773 0001:8274
   774 0001:8279   775 0001:827C   776 0001:827F   777 0001:8281
   778 0001:8286   779 0001:828C   781 0001:828E   783 0001:8291
   784 0001:8294   785 0001:8297   787 0001:8299   788 0001:829C
   789 0001:829E   790 0001:82A1   791 0001:82A9   792 0001:82AB
   793 0001:82AD   794 0001:82B0   795 0001:82B6   797 0001:82B8
   798 0001:82BA   801 0001:82BC   802 0001:82BD   803 0001:82BE
   804 0001:82BF   805 0001:82C0   806 0001:82C4   812 0001:82C6
   813 0001:82C7   814 0001:82C8   815 0001:82CA   816 0001:82CC
   818 0001:82CE   819 0001:82D0   821 0001:82D5   822 0001:82D7
   823 0001:82D9   824 0001:82DB   825 0001:82DD   826 0001:82DE
   827 0001:82E1   829 0001:82E3   830 0001:82E5   831 0001:82E7
   832 0001:82E9   833 0001:82EB   834 0001:82ED   835 0001:82EE
   836 0001:82F0   837 0001:82F2   838 0001:82F4   839 0001:82F6
   840 0001:82FB   841 0001:82FD   842 0001:82FF   860 0001:8301
   861 0001:8304   862 0001:8306   864 0001:8307   865 0001:830B
   866 0001:830D   867 0001:830F   868 0001:8311   869 0001:8313
   870 0001:8315   873 0001:8316   874 0001:8317   875 0001:8319
   876 0001:831A   878 0001:831C   879 0001:8320   881 0001:8322
   883 0001:8325   884 0001:8326   885 0001:8327   886 0001:8329
   889 0001:832B   893 0001:8330   923 0001:8335   924 0001:8338
   925 0001:833A   926 0001:833C   927 0001:8342   930 0001:8348
   954 0001:8352   955 0001:8354   956 0001:8355   957 0001:835A
   958 0001:835E   959 0001:8361   960 0001:8365   961 0001:8368
   962 0001:8369   985 0001:836C   986 0001:836E

Line numbers for context.obj(context.ASM) segment _MISCTEXT

  1024 0003:0850  1025 0003:0854  1027 0003:0857  1028 0003:085A
  1030 0003:085E  1031 0003:0862  1056 0003:0867  1057 0003:0868
  1059 0003:086B  1060 0003:086D  1061 0003:086E  1062 0003:0873
  1063 0003:0876  1064 0003:0879  1067 0003:087B  1073 0003:087E
  1074 0003:0880  1075 0003:0881  1084 0003:0882  1085 0003:0883
  1087 0003:0886  1088 0003:0889  1089 0003:088B  1090 0003:088F
  1091 0003:0893  1093 0003:0894  1115 0003:0895  1116 0003:0896
  1118 0003:0899  1120 0003:089D  1121 0003:08A0  1122 0003:08A1
  1171 0003:08A2  1172 0003:08A3  1174 0003:08A6  1175 0003:08A8
  1176 0003:08AD  1178 0003:08AF  1179 0003:08B3  1180 0003:08BC
  1185 0003:08C0  1189 0003:08C2  1190 0003:08C5  1191 0003:08C9
  1192 0003:08CD  1194 0003:08D1  1197 0003:08D5  1198 0003:08D6
  1230 0003:08D9  1231 0003:08DA  1233 0003:08DD  1234 0003:08DF
  1235 0003:08E4  1236 0003:08E8  1237 0003:08EB  1238 0003:08EF
  1239 0003:08F3  1241 0003:08F6  1245 0003:08F8  1246 0003:08FD
  1247 0003:08FF  1249 0003:0904  1250 0003:0905  1270 0003:0908
  1271 0003:090E  1277 0003:0913  1278 0003:0918  1279 0003:091B
  1280 0003:091E  1281 0003:0920  1282 0003:0922  1283 0003:0924
  1284 0003:0929  1285 0003:092E  1286 0003:0930  1290 0003:0935
  1291 0003:0939  1292 0003:093D  1317 0003:0944  1318 0003:0946
  1319 0003:0947  1321 0003:094A  1322 0003:094E  1323 0003:0951
  1324 0003:0953  1325 0003:0956  1326 0003:095A  1329 0003:095C
  1330 0003:0960  1331 0003:0962  1332 0003:0964  1333 0003:0968
  1334 0003:096C  1335 0003:096E  1336 0003:0972  1337 0003:0975
  1338 0003:0978  1339 0003:097B  1340 0003:097E  1343 0003:0980
  1344 0003:0984  1347 0003:0986  1349 0003:0987

Line numbers for tasking.obj(tasking.ASM) segment _TEXT

   141 0001:8370   142 0001:8374   144 0001:8379   145 0001:837C
   146 0001:8380   147 0001:8381   148 0001:8383   152 0001:8385
   154 0001:83A4   155 0001:83A7   156 0001:83AA   158 0001:83AC
   160 0001:83B0   161 0001:83B1   162 0001:83B2   163 0001:83B5
   165 0001:83B6   167 0001:83B7   169 0001:83BC   170 0001:83C0
   171 0001:83C5   173 0001:83C9   174 0001:83CA   175 0001:83CB
   176 0001:83D0   177 0001:83D1   179 0001:83D6   180 0001:83D7
   182 0001:83D8   187 0001:83DC   188 0001:83DD   190 0001:83E0
   194 0001:83E5   195 0001:83E7   196 0001:83E9   197 0001:83EA
   198 0001:83EE   200 0001:8415   208 0001:841A   209 0001:841D
   210 0001:841E   211 0001:8420   212 0001:8423   213 0001:8426
   214 0001:8429   215 0001:842B   216 0001:842C   217 0001:842D
   218 0001:842E   219 0001:842F   220 0001:8430   221 0001:8431
   222 0001:8432   223 0001:8433   224 0001:8434   236 0001:8435
   238 0001:843B   247 0001:843C   248 0001:8448   249 0001:844E
   258 0001:8453   260 0001:845F   261 0001:8462   262 0001:8466
   263 0001:8468   265 0001:846E   273 0001:8474   307 0001:8479
   310 0001:8485   312 0001:8489   313 0001:848E   316 0001:8490
   317 0001:8492   318 0001:8494   321 0001:8496   332 0001:8497
   334 0001:849B   335 0001:849D   336 0001:849F   338 0001:84A1
   339 0001:84A4   340 0001:84A8   341 0001:84AB   342 0001:84AE
   345 0001:84B2   352 0001:84B3   353 0001:84B6   354 0001:84B8
   355 0001:84BA   361 0001:84BC   362 0001:84BE   364 0001:84C0
   365 0001:84C2   366 0001:84C4   368 0001:84C6   369 0001:84CD
   370 0001:84CF   373 0001:84D1   375 0001:84D5   376 0001:84D6
   377 0001:84D8   378 0001:84DB   381 0001:84DC   382 0001:84E1
   384 0001:84E6   385 0001:84E9   387 0001:84ED   389 0001:84F2
   390 0001:84F5   395 0001:84F7   397 0001:84FD   402 0001:8500
   403 0001:8505   405 0001:850A   421 0001:850F   422 0001:8511
   423 0001:8515   425 0001:8517   426 0001:851A   429 0001:851E
   430 0001:8520   431 0001:8524   432 0001:8526   440 0001:8527
   441 0001:852B   442 0001:852F   444 0001:8531   445 0001:8534
   446 0001:8539   449 0001:853A   493 0001:853F   494 0001:8545
   498 0001:8546   499 0001:854B   501 0001:854E   502 0001:8551
   509 0001:8553   510 0001:8558   511 0001:855A   512 0001:855C
   513 0001:8561   514 0001:8563   515 0001:8565   516 0001:8567
   517 0001:856A   518 0001:856D   519 0001:8570   520 0001:8571
   521 0001:8573   522 0001:8578   523 0001:857A   524 0001:857E
   525 0001:8580

Line numbers for lstring.obj(lstring.ASM) segment _TEXT

    48 0001:8588    49 0001:858A    51 0001:858B    52 0001:858F
    53 0001:8590    54 0001:8592    55 0001:8595    56 0001:8597
    57 0001:8599    58 0001:859B    59 0001:859C    62 0001:859D
    63 0001:859E    67 0001:85A1    68 0001:85A4    69 0001:85A6
    72 0001:85A8    75 0001:85AB    76 0001:85AC    77 0001:85AD
    78 0001:85AE    88 0001:85B1    89 0001:85B7    91 0001:85B8
    92 0001:85BB    93 0001:85BE    94 0001:85C0    95 0001:85C2
    97 0001:85C4    98 0001:85C7    99 0001:85C9   101 0001:85CC
   102 0001:85CF   103 0001:85D2   104 0001:85D3   105 0001:85D5
   106 0001:85D7   107 0001:85D9   109 0001:85DB   112 0001:85DC
   113 0001:85DF   115 0001:85E1   118 0001:85E8   119 0001:85EB
   120 0001:85F6   121 0001:85F8   122 0001:85F9   166 0001:85FB
   167 0001:85FC   169 0001:85FE   170 0001:85FF   171 0001:8600
   174 0001:8601   175 0001:8605   176 0001:8609   177 0001:860A
   186 0001:860C   187 0001:860F   189 0001:8611   190 0001:8612
   191 0001:8613   192 0001:8615   194 0001:8617   195 0001:8618
   196 0001:861A   208 0001:861C   209 0001:861F   210 0001:8621
   211 0001:8623   212 0001:8626   213 0001:8628   217 0001:8629
   218 0001:862A   219 0001:862B   220 0001:862D   242 0001:862F
   243 0001:8632   244 0001:8636   245 0001:8638   246 0001:863C
   247 0001:863E   248 0001:8643   255 0001:8645   256 0001:8646
   257 0001:8649   258 0001:864E   259 0001:864F   260 0001:8651
   273 0001:8657   274 0001:8658   275 0001:8659   276 0001:865B
   278 0001:865D   279 0001:865E   280 0001:8660   281 0001:8662
   282 0001:8663   283 0001:8665   285 0001:8667   286 0001:8668
   287 0001:866A   302 0001:866F   304 0001:8672   305 0001:8674
   306 0001:8677   307 0001:8679   308 0001:867B   309 0001:867D
   317 0001:867E   318 0001:8681   320 0001:8683   321 0001:8685
   322 0001:8688   330 0001:8689   331 0001:868C   333 0001:868E
   334 0001:8690   335 0001:8692   336 0001:8695   338 0001:8697
   339 0001:8698   341 0001:869A   342 0001:869D   344 0001:869F
   347 0001:86A0   360 0001:86A5   363 0001:86A8   366 0001:86AB
   369 0001:86AE   372 0001:86B0   377 0001:86B2   378 0001:86B8
   389 0001:86BA   394 0001:86BF   400 0001:86C0   401 0001:86C3
   402 0001:86C5   403 0001:86C8   412 0001:86CB   413 0001:86CD
   414 0001:86CF   415 0001:86D1   424 0001:86D3   425 0001:86D5
   426 0001:86D7   427 0001:86D9   428 0001:86DB   429 0001:86DD
   430 0001:86DF   431 0001:86E1   439 0001:86E2   440 0001:86E4
   441 0001:86E6   442 0001:86E8   444 0001:86EA   445 0001:86EB
   446 0001:86F0   447 0001:86F5   449 0001:86F6   451 0001:86F8
   452 0001:86FA   454 0001:86FC   455 0001:86FE   457 0001:8700
   458 0001:8702   459 0001:8704   460 0001:8706   496 0001:8707
   498 0001:8709

Line numbers for task.obj(task.ASM) segment _TEXT

   155 0001:870E   156 0001:870F   157 0001:8714   158 0001:8718
   161 0001:871D   162 0001:871E   199 0001:871F   200 0001:8723
   201 0001:8726   202 0001:872B   204 0001:872E   205 0001:8730
   207 0001:8732   208 0001:8734   209 0001:8739   210 0001:873D
   211 0001:873F   212 0001:8743   213 0001:8748   215 0001:874C
   217 0001:874E   218 0001:8750   219 0001:8753   220 0001:8755
   221 0001:8757   222 0001:8759   223 0001:875E   224 0001:8760
   225 0001:8763   226 0001:8767   228 0001:876B   262 0001:8770
   263 0001:8773   264 0001:8776   265 0001:8779   266 0001:877C
   267 0001:877F   272 0001:8783   273 0001:8784   274 0001:8788
   275 0001:878D   276 0001:8792   277 0001:8796   278 0001:8797
   296 0001:8799   297 0001:879B   300 0001:87A0   301 0001:87A3
   302 0001:87A5   303 0001:87A7   304 0001:87AB   306 0001:87AD
   307 0001:87B0   308 0001:87B4   309 0001:87B6   310 0001:87B9
   311 0001:87BD   313 0001:87BF   314 0001:87C3   316 0001:87C5
   318 0001:87D0   319 0001:87D1   322 0001:87D3   323 0001:87D7
   324 0001:87D9   326 0001:87DD   329 0001:87DE

Line numbers for task.obj(task.ASM) segment _NRESTEXT

   401 0002:2308   402 0002:230F   404 0002:2312   405 0002:2313
   406 0002:2315   407 0002:2318   408 0002:231B   409 0002:231E
   410 0002:2320   411 0002:232C   412 0002:232D   413 0002:232F
   414 0002:2332   415 0002:2333   416 0002:2336   417 0002:2339
   418 0002:233C   419 0002:2340   420 0002:2342   421 0002:2345
   422 0002:2349   423 0002:234C   424 0002:234F   425 0002:2351
   426 0002:2353   427 0002:2356   429 0002:2359   433 0002:235D
   434 0002:2360   435 0002:2362   436 0002:2364   437 0002:2366
   439 0002:2368   440 0002:236F   441 0002:2371   442 0002:2373
   444 0002:2376   445 0002:2378   446 0002:237A   447 0002:237C
   448 0002:237E   449 0002:2380   451 0002:2382   454 0002:2384
   455 0002:238B   456 0002:238F   458 0002:2391   459 0002:2393
   464 0002:2398   465 0002:239B   466 0002:239E   467 0002:23A0
   468 0002:23A2   469 0002:23A4   471 0002:23A7   472 0002:23A9
   473 0002:23AA   474 0002:23AC   475 0002:23AD   476 0002:23B0
   477 0002:23B5   478 0002:23B6   479 0002:23BA   480 0002:23BC
   481 0002:23C1   483 0002:23C7   485 0002:23CA   486 0002:23CE
   487 0002:23D2   489 0002:23D4   491 0002:23D8   494 0002:23D9
   495 0002:23DA   496 0002:23DB   498 0002:23DE   499 0002:23E4
   500 0002:23E6   501 0002:23E8   502 0002:23EA   503 0002:23EC
   504 0002:23F2   505 0002:23F3   506 0002:23F4   507 0002:23F6
   510 0002:23F9   511 0002:23FB   512 0002:2404   513 0002:2406
   514 0002:2407   516 0002:2408   517 0002:240A   518 0002:240D
   519 0002:241A   520 0002:241C   521 0002:241D   523 0002:2420
   524 0002:2424   525 0002:2426   527 0002:242A   528 0002:242D
   529 0002:242E   531 0002:2432   532 0002:2435   533 0002:2436
   534 0002:2438   535 0002:243A   536 0002:243C   537 0002:243E
   538 0002:243F   539 0002:2440   540 0002:2443   541 0002:2445
   542 0002:2448   543 0002:244A   544 0002:244C   546 0002:244D
   547 0002:2450   548 0002:2452   549 0002:2454   552 0002:2458
   553 0002:245B   555 0002:245F   556 0002:2462   558 0002:2465
   559 0002:2466   560 0002:2467   561 0002:2468   562 0002:2469
   563 0002:246A   565 0002:246B   566 0002:246E   567 0002:2472
   568 0002:2473   569 0002:2474   570 0002:2477   571 0002:2479
   572 0002:247B   573 0002:2486   574 0002:2489   575 0002:248B
   576 0002:248C   580 0002:248E   581 0002:2491   584 0002:2494
   586 0002:2498   590 0002:249B   591 0002:249E   593 0002:24A0
   594 0002:24A1   596 0002:24A2   597 0002:24A7   598 0002:24A9
   600 0002:24AC   601 0002:24AD   603 0002:24B0   604 0002:24B4
   607 0002:24B5   608 0002:24B9   609 0002:24BB   610 0002:24BD
   611 0002:24C2   612 0002:24C6   616 0002:24CA   617 0002:24CE
   618 0002:24D1   619 0002:24D5   620 0002:24D8   621 0002:24DC
   622 0002:24DF   623 0002:24E3   625 0002:24E6   626 0002:24EA
   627 0002:24F0   628 0002:24F4   630 0002:24FA   631 0002:24FD
   632 0002:2500   633 0002:2503   637 0002:2506   638 0002:250C
   639 0002:250F   640 0002:2515   641 0002:251B   642 0002:251E
   643 0002:2521   644 0002:2523   646 0002:2526   647 0002:2528
   648 0002:252A   649 0002:252C   651 0002:252E   652 0002:2530
   653 0002:2532   655 0002:2535   663 0002:2539   664 0002:253F
   666 0002:2546   667 0002:2548   669 0002:254A   700 0002:2551
   704 0002:2558   705 0002:2559   706 0002:255E   707 0002:2560
   708 0002:2562   710 0002:2565   711 0002:2569   725 0002:256E
   726 0002:2571   727 0002:2574   728 0002:2576   730 0002:2578
   732 0002:257C   735 0002:257F   736 0002:2582   737 0002:2584
   738 0002:2586   739 0002:2589   740 0002:258B   741 0002:258D
   742 0002:2590   743 0002:2592   745 0002:2594   746 0002:2595
   749 0002:2597   750 0002:259A   751 0002:25A1   753 0002:25A3
   754 0002:25A6   755 0002:25A8   757 0002:25AB   760 0002:25AE
   761 0002:25B1   762 0002:25B4   763 0002:25B6   764 0002:25BA
   765 0002:25BD   766 0002:25BF   767 0002:25C1   768 0002:25C3
   769 0002:25C5   770 0002:25C6   771 0002:25C9   772 0002:25CA
   775 0002:25CC   776 0002:25D0   777 0002:25D4   778 0002:25D6
   779 0002:25DA   780 0002:25DC   781 0002:25DD   784 0002:25DE
   785 0002:25E1   786 0002:25E6   787 0002:25E9   788 0002:25EC
   789 0002:25EE   790 0002:25F0   791 0002:25F1   792 0002:25F2
   793 0002:25F4   795 0002:25F6   796 0002:25FE   797 0002:2600
   798 0002:2602   799 0002:2603   800 0002:260C   802 0002:260D
   803 0002:260F   804 0002:2610   805 0002:2611   806 0002:2612
   807 0002:2614   809 0002:2616   810 0002:2619   811 0002:261B
   812 0002:261D   814 0002:261F   818 0002:2622   819 0002:2628
   821 0002:262A   822 0002:262D   825 0002:262E   826 0002:2632
   827 0002:2635   828 0002:2637   829 0002:2639   831 0002:263B
   832 0002:263E   833 0002:2640   834 0002:2644   835 0002:2647
   836 0002:2649   838 0002:264B   839 0002:264E   840 0002:2651
   841 0002:2654   842 0002:2656   843 0002:2658   844 0002:265C
   845 0002:265E   846 0002:2660   849 0002:2662   852 0002:2664
   853 0002:2667   854 0002:266A   855 0002:266C   856 0002:266E
   857 0002:2671   858 0002:2673   859 0002:2675   860 0002:2677
   861 0002:2678   862 0002:2679   863 0002:267B   864 0002:267E
   865 0002:2680   867 0002:2682   868 0002:2683   869 0002:268B
   870 0002:268C   871 0002:268D   872 0002:268E   873 0002:2690
   874 0002:2692   875 0002:2694   876 0002:2696   877 0002:2697
   878 0002:2699   881 0002:269B   885 0002:269E   931 0002:26A5
   932 0002:26AC   934 0002:26AF   935 0002:26B4   936 0002:26B6
   937 0002:26BB   938 0002:26BD   939 0002:26C1   940 0002:26C7
   941 0002:26C9   942 0002:26CC   943 0002:26D1   944 0002:26D6
   945 0002:26DA   946 0002:26DD   947 0002:26E3   948 0002:26E6
   951 0002:26E9   952 0002:26EC   953 0002:26EE   954 0002:26F5
   955 0002:26F7   956 0002:26FC   957 0002:26FE   958 0002:2700
   959 0002:2703   961 0002:270E   962 0002:2712   971 0002:2714
   972 0002:271C   973 0002:271F   980 0002:2722   981 0002:2725
   982 0002:2728   983 0002:272B   985 0002:2730   986 0002:2734
   987 0002:2736   988 0002:2738   990 0002:273B   991 0002:2741
   993 0002:2743   994 0002:2747   995 0002:2749   996 0002:274C
   997 0002:274E   998 0002:2750   999 0002:2752  1001 0002:2756
  1002 0002:2759  1004 0002:275A  1005 0002:275B  1006 0002:275E
  1007 0002:275F  1008 0002:2762  1010 0002:2765  1012 0002:2766
  1014 0002:2767  1015 0002:2768  1016 0002:276B  1017 0002:276D
  1019 0002:276E  1021 0002:2770  1023 0002:2771  1024 0002:2772
  1025 0002:2776  1026 0002:2777  1028 0002:277B  1030 0002:277E
  1032 0002:2780  1033 0002:2786  1035 0002:2788  1039 0002:27A8
  1041 0002:27AB  1043 0002:27AC  1044 0002:27AD  1051 0002:27AE
  1052 0002:27AF  1053 0002:27B1  1054 0002:27B3  1056 0002:27B5
  1063 0002:27B6  1065 0002:27B7  1116 0002:27BE  1117 0002:27C3
  1119 0002:27C6  1120 0002:27C8  1121 0002:27CC  1122 0002:27CE
  1125 0002:27D1  1126 0002:27D3  1127 0002:27D4  1129 0002:27D7
  1130 0002:27D8  1131 0002:27DB  1133 0002:27DD  1134 0002:27E0
  1136 0002:27E2  1138 0002:27E6  1139 0002:27EC  1143 0002:27EE
  1144 0002:27F6  1145 0002:27FA  1146 0002:27FD  1147 0002:2800
  1151 0002:2803  1152 0002:2809  1153 0002:280B  1157 0002:280E
  1158 0002:2816  1159 0002:2818  1160 0002:281A  1164 0002:281D
  1165 0002:2823  1171 0002:2825  1177 0002:282B  1178 0002:282E
  1179 0002:2833  1180 0002:2837  1181 0002:283C  1187 0002:2841
  1188 0002:2848  1190 0002:284A  1191 0002:284E  1192 0002:2854
  1193 0002:2857  1194 0002:285B  1195 0002:285F  1196 0002:2863
  1197 0002:2866  1198 0002:286A  1199 0002:286E  1200 0002:2872
  1201 0002:2878  1204 0002:287A  1205 0002:287B  1206 0002:287F
  1207 0002:2884  1208 0002:2888  1209 0002:288C  1210 0002:288F
  1211 0002:2892  1212 0002:2893  1213 0002:2897  1214 0002:289A
  1215 0002:289E  1216 0002:28A2  1217 0002:28A6  1218 0002:28AC
  1219 0002:28B2  1220 0002:28B4  1221 0002:28B8  1222 0002:28BC
  1226 0002:28BD  1227 0002:28BE  1230 0002:28BF  1231 0002:28C4
  1233 0002:28C6  1234 0002:28C9  1235 0002:28CC  1236 0002:28CF
  1238 0002:28D2  1239 0002:28D5  1241 0002:28D7  1242 0002:28DA
  1245 0002:28DC  1248 0002:28DF  1249 0002:28E3  1250 0002:28E7
  1253 0002:28E8  1255 0002:28EA  1329 0002:28F0  1330 0002:28F1
  1331 0002:28F2  1332 0002:28F7  1334 0002:28F9  1335 0002:28FA
  1336 0002:28FC  1337 0002:28FE  1338 0002:2900  1339 0002:2901
  1340 0002:2903  1341 0002:290A  1342 0002:290C  1343 0002:290F
  1344 0002:2910  1345 0002:2915  1347 0002:2916  1348 0002:2918
  1349 0002:2920  1350 0002:2922  1351 0002:2924  1352 0002:2927
  1354 0002:292D  1355 0002:292E  1358 0002:2930  1359 0002:2932
  1360 0002:2938  1361 0002:293E  1362 0002:293F  1363 0002:2946
  1364 0002:294D  1365 0002:294E  1374 0002:294F  1375 0002:2950
  1376 0002:2951  1377 0002:2956  1378 0002:295B  1379 0002:295D
  1380 0002:295F  1381 0002:2963  1383 0002:2968  1384 0002:296A
  1385 0002:296B  1386 0002:296D  1387 0002:296E  1388 0002:296F
  1389 0002:2970  1390 0002:2971  1391 0002:2973  1392 0002:2974
  1393 0002:2976  1394 0002:2978  1395 0002:2979  1396 0002:2981
  1397 0002:2982  1398 0002:2984  1399 0002:2986  1400 0002:2987
  1402 0002:298A  1403 0002:298B  1404 0002:2990  1405 0002:2992
  1406 0002:2997  1407 0002:2999  1409 0002:299C  1410 0002:299F
  1411 0002:29A3  1413 0002:29A8  1414 0002:29AA  1415 0002:29AC
  1416 0002:29AE  1419 0002:29B9  1421 0002:29BA  1422 0002:29BB
  1424 0002:29BE  1425 0002:29C3  1426 0002:29C5  1427 0002:29CA
  1428 0002:29CF  1430 0002:29D1  1432 0002:29D2  1433 0002:29D3
  1434 0002:29D4  1435 0002:29D5  1436 0002:29DB  1437 0002:29DC
  1438 0002:29E2  1439 0002:29E7  1440 0002:29E9  1441 0002:29F0
  1442 0002:29F2  1443 0002:29F9  1444 0002:29FE  1445 0002:2A00
  1447 0002:2A06  1448 0002:2A07  1449 0002:2A08  1451 0002:2A0A
  1452 0002:2A0F  1453 0002:2A11  1455 0002:2A15  1457 0002:2A16
  1458 0002:2A17  1459 0002:2A18  1470 0002:2A19  1471 0002:2A1C
  1472 0002:2A1E  1473 0002:2A21  1474 0002:2A23  1475 0002:2A24
  1476 0002:2A27  1477 0002:2A29  1478 0002:2A2B  1479 0002:2A2D
  1480 0002:2A2F  1481 0002:2A31  1482 0002:2A32  1483 0002:2A34
  1484 0002:2A36  1485 0002:2A3A  1487 0002:2A3C  1489 0002:2A40
  1490 0002:2A42  1491 0002:2A47  1492 0002:2A4A  1493 0002:2A50
  1494 0002:2A52  1496 0002:2A57  1498 0002:2A59  1503 0002:2A5A
  1504 0002:2A5D  1505 0002:2A5F  1506 0002:2A60  1507 0002:2A61
  1508 0002:2A62  1546 0002:2A63  1547 0002:2A65  1548 0002:2A67
  1549 0002:2A69  1550 0002:2A71  1551 0002:2A73  1553 0002:2A75
  1554 0002:2A76  1555 0002:2A79  1556 0002:2A7A  1557 0002:2A7B
  1558 0002:2A7C  1559 0002:2A7F

Line numbers for task.obj(task.ASM) segment _TEXT

  1752 0001:87E1  1753 0001:87E4  1754 0001:87E7  1755 0001:87EA

Line numbers for task.obj(task.ASM) segment _MISCTEXT

  1793 0003:098A  1794 0003:098B  1795 0003:0990  1796 0003:0992
  1797 0003:0996  1798 0003:099A  1799 0003:099C  1800 0003:099D
  1837 0003:099E  1838 0003:09A0  1839 0003:09A1  1841 0003:09A4
  1842 0003:09A7  1844 0003:09A8

Line numbers for ldstack.obj(ldstack.ASM) segment _MISCTEXT

    59 0003:09AA    60 0003:09B0    61 0003:09B3    62 0003:09B6
    63 0003:09B9    64 0003:09BC    65 0003:09C0    66 0003:09C4
    67 0003:09C8    68 0003:09CC    69 0003:09D0    70 0003:09D3
    71 0003:09D7    72 0003:09DB    74 0003:09DD    80 0003:09E4
    81 0003:09E6    82 0003:09EA    84 0003:09EE    85 0003:09F1
    86 0003:09F4    87 0003:09F6    88 0003:09F9    89 0003:09FC
    90 0003:09FF    91 0003:0A02    92 0003:0A05    93 0003:0A08
    94 0003:0A0B    95 0003:0A0E    96 0003:0A11    97 0003:0A14
    98 0003:0A17    99 0003:0A19   100 0003:0A1C   101 0003:0A1E

Line numbers for resaux.obj(resaux.ASM) segment _TEXT

   125 0001:87EE   126 0001:87F4   127 0001:87FC   128 0001:87FE
   129 0001:8800   131 0001:8801   132 0001:8803   133 0001:880E
   134 0001:880F   135 0001:8810   136 0001:8812   137 0001:8814
   138 0001:8819   140 0001:881A   148 0001:8821   149 0001:8824
   150 0001:8827   151 0001:882A   152 0001:8834   153 0001:8837
   154 0001:8839   156 0001:883B   157 0001:883C   158 0001:883F
   159 0001:8841   160 0001:8844   161 0001:8846   162 0001:8847
   163 0001:884A   166 0001:884F   167 0001:8850   173 0001:8854
   174 0001:8859   175 0001:8861   176 0001:8863   177 0001:8865
   178 0001:8867   179 0001:8868   180 0001:886B   181 0001:886C
   182 0001:8870   183 0001:8873   184 0001:8874   185 0001:8878
   186 0001:887D   187 0001:8880   188 0001:8883   189 0001:8886
   190 0001:8888   191 0001:8889   192 0001:888A   193 0001:888D
   194 0001:888F   195 0001:8891   196 0001:8893   197 0001:8895
   198 0001:8898   200 0001:889B   201 0001:889D   202 0001:889F
   203 0001:88A1   204 0001:88A2   206 0001:88A3   207 0001:88A8
   208 0001:88AA   209 0001:88AB   210 0001:88AE   211 0001:88B0
   213 0001:88B2   214 0001:88B4   215 0001:88B6   217 0001:88B8
   218 0001:88BA   219 0001:88C6   220 0001:88C7   221 0001:88C9
   223 0001:88CB   224 0001:88D1   226 0001:88D3   227 0001:88D4
   229 0001:88D7   230 0001:88D8   231 0001:88D9   232 0001:88DB
   233 0001:88DD   234 0001:88E2   236 0001:88E3   237 0001:88E5
   238 0001:88E7   239 0001:88FD   241 0001:88FF   242 0001:8901
   254 0001:8907   255 0001:890E   256 0001:8910   257 0001:891D
   258 0001:8920   259 0001:8923   260 0001:8925   261 0001:892A
   262 0001:892D   263 0001:8931   264 0001:8933   266 0001:8936
   268 0001:8938   269 0001:893A   270 0001:893C   281 0001:893E
   282 0001:893F   283 0001:8941   284 0001:8943   285 0001:8946
   286 0001:8949   289 0001:894B   290 0001:894F   291 0001:8951
   292 0001:8952   293 0001:8954   294 0001:8957   295 0001:8959
   297 0001:895A   301 0001:8968   303 0001:896A   304 0001:8975
   305 0001:8977   306 0001:8979   307 0001:897B   316 0001:897D
   318 0001:897E   319 0001:8981   321 0001:8983   322 0001:8985
   324 0001:8986   326 0001:898E   327 0001:8990   329 0001:899D
   331 0001:899F   337 0001:89A6   338 0001:89A9   339 0001:89AA
   340 0001:89AD   341 0001:89B0   342 0001:89B2   343 0001:89B4
   345 0001:89B5   346 0001:89B8   347 0001:89BC   348 0001:89BD
   349 0001:89BF   350 0001:89C2   352 0001:89C4   353 0001:89C6
   354 0001:89C8   356 0001:89CA   357 0001:89CD   359 0001:89CF
   360 0001:89D1   361 0001:89D4   362 0001:89D6   363 0001:89D8
   364 0001:89DB   365 0001:89DD   368 0001:89DF   369 0001:89E0
   375 0001:89E4   376 0001:89E7   377 0001:89EA   378 0001:89EC
   379 0001:89EF   380 0001:89F2   382 0001:89F5   383 0001:89F8
   384 0001:89FA   385 0001:89FC   386 0001:89FE   387 0001:8A00
   389 0001:8A02   390 0001:8A04   391 0001:8A09   392 0001:8A0B
   393 0001:8A0D   395 0001:8A0F   396 0001:8A11   397 0001:8A14
   398 0001:8A16   399 0001:8A18   401 0001:8A1A   402 0001:8A1C
   403 0001:8A1E   404 0001:8A20   405 0001:8A23   406 0001:8A25
   409 0001:8A27   410 0001:8A28   412 0001:8A2A   414 0001:8A2B
   419 0001:8A2F   420 0001:8A33   421 0001:8A35   422 0001:8A3F
   428 0001:8A44   429 0001:8A47   430 0001:8A4F   431 0001:8A51
   432 0001:8A54   445 0001:8A58   446 0001:8A5C   447 0001:8A5F
   448 0001:8A64   449 0001:8A69   450 0001:8A6C   451 0001:8A6D
   452 0001:8A6E   453 0001:8A72   454 0001:8A74   455 0001:8A77
   456 0001:8A7D   457 0001:8A7F   462 0001:8A81   465 0001:8A84
   466 0001:8A85   467 0001:8A86   468 0001:8A90   469 0001:8A91
   477 0001:8A92   478 0001:8A93   479 0001:8A94   480 0001:8A95
   481 0001:8A96   482 0001:8A98   484 0001:8A99   485 0001:8A9C
   487 0001:8A9E   488 0001:8AA0   490 0001:8AA1   491 0001:8AA3
   492 0001:8AA5   493 0001:8AA7   494 0001:8AA9   495 0001:8AAC
   496 0001:8AB1   497 0001:8AB2   498 0001:8AB3   499 0001:8AB5
   501 0001:8AB7   502 0001:8AB9   503 0001:8ABB   504 0001:8ABD
   506 0001:8ABF   507 0001:8AC1   512 0001:8AC5   513 0001:8ACB
   514 0001:8ACE   515 0001:8AD0   517 0001:8AD2   521 0001:8AD5
   522 0001:8AD8   523 0001:8ADA   528 0001:8ADD   529 0001:8AE3
   530 0001:8AE5   541 0001:8AE8   542 0001:8AEB   543 0001:8AEE
   545 0001:8AF0   555 0001:8AF1   556 0001:8AF4   558 0001:8AF6
   560 0001:8AF8   561 0001:8AFF   562 0001:8B01   563 0001:8B06
   564 0001:8B0B   565 0001:8B0D   566 0001:8B0E   567 0001:8B13
   569 0001:8B14   570 0001:8B17   572 0001:8B1A   573 0001:8B1D
   574 0001:8B1F   575 0001:8B22   576 0001:8B26   578 0001:8B29
   579 0001:8B2D   580 0001:8B2F   581 0001:8B32   582 0001:8B34
   584 0001:8B36   585 0001:8B3B   588 0001:8B3D   591 0001:8B40
   592 0001:8B41   593 0001:8B42   595 0001:8B43   596 0001:8B46
   597 0001:8B49   598 0001:8B4D   600 0001:8B50   602 0001:8B52
   603 0001:8B54   604 0001:8B56   606 0001:8B58   608 0001:8B5E
   609 0001:8B5F   611 0001:8B61   613 0001:8B67   614 0001:8B68
   615 0001:8B69   616 0001:8B6A   617 0001:8B6C   618 0001:8B71
   620 0001:8B73   621 0001:8B89   622 0001:8B8B   624 0001:8B8C
   645 0001:8C04   646 0001:8C05   647 0001:8C09   648 0001:8C0C
   649 0001:8C0F   650 0001:8C10   651 0001:8C14   652 0001:8C16
   653 0001:8C17   654 0001:8C1B   655 0001:8C1D   656 0001:8C1F
   658 0001:8C22   661 0001:8C26   662 0001:8C29   668 0001:8C34
   669 0001:8C35   675 0001:8C38   676 0001:8C3D   677 0001:8C40
   678 0001:8C42   680 0001:8C44   681 0001:8C47   682 0001:8C49
   683 0001:8C4F   684 0001:8C51   688 0001:8C54   689 0001:8C58
   690 0001:8C5A   691 0001:8C5C   693 0001:8C5F   694 0001:8C62
   695 0001:8C64   696 0001:8C65   697 0001:8C68   698 0001:8C6A
   699 0001:8C6D   710 0001:8C6F   711 0001:8C72   713 0001:8C74
   715 0001:8C76   718 0001:8C78   719 0001:8C7C   720 0001:8C7E
   723 0001:8C80   724 0001:8C86   725 0001:8C88   726 0001:8C8C
   727 0001:8C90   728 0001:8C92   729 0001:8C95   731 0001:8C98
   732 0001:8C9A   733 0001:8C9C   734 0001:8C9F   736 0001:8CA2
   737 0001:8CA5   738 0001:8CA7   739 0001:8CAA   740 0001:8CAC
   742 0001:8CAE   743 0001:8CB1   744 0001:8CB3   745 0001:8CB6
   746 0001:8CB8   747 0001:8CBD   749 0001:8CBF   750 0001:8CC2
   760 0001:8CC6   762 0001:8CCE   764 0001:8CD1   766 0001:8CD4
   772 0001:8CDA   773 0001:8CDE   774 0001:8CE6   775 0001:8CE8
   776 0001:8CEB   777 0001:8CEF   778 0001:8CF1   779 0001:8CF6
   780 0001:8CF9   781 0001:8CFB   782 0001:8CFD   783 0001:8CFF
   791 0001:8D04   792 0001:8D0B   793 0001:8D13   794 0001:8D15
   795 0001:8D17   796 0001:8D19   797 0001:8D1C   798 0001:8D1E
   799 0001:8D24   800 0001:8D26   811 0001:8D28   812 0001:8D2D
   813 0001:8D30   814 0001:8D33   815 0001:8D36   816 0001:8D3E
   817 0001:8D40   818 0001:8D41   820 0001:8D43   824 0001:8D52
   826 0001:8D53   827 0001:8D54   828 0001:8D58   829 0001:8D5B
   830 0001:8D5F   831 0001:8D60   833 0001:8D61   957 0001:8D68
   958 0001:8D6F   959 0001:8D72   960 0001:8D74   961 0001:8D76
   964 0001:8D79   965 0001:8D81   966 0001:8D83   967 0001:8D85
   970 0001:8D88   971 0001:8D8A   972 0001:8D8E   973 0001:8D92
   974 0001:8D94   980 0001:8D97   981 0001:8D9A   982 0001:8D9C
   983 0001:8D9E   984 0001:8DA1   985 0001:8DA4   998 0001:8DA7
   999 0001:8DAA  1000 0001:8DAC  1001 0001:8DB1  1002 0001:8DB3
  1003 0001:8DBB  1004 0001:8DBE  1005 0001:8DC0  1008 0001:8DC2
  1009 0001:8DC7  1013 0001:8DC9  1014 0001:8DCA  1015 0001:8DCD
  1016 0001:8DCF  1017 0001:8DD3  1019 0001:8DD5  1020 0001:8DD7
  1021 0001:8DD9  1023 0001:8DDB  1024 0001:8DDE  1025 0001:8DE1
  1026 0001:8DE3  1032 0001:8DE4  1033 0001:8DE5  1034 0001:8DEB
  1035 0001:8DEC  1036 0001:8DEE  1037 0001:8DF0  1038 0001:8DF2
  1040 0001:8DF8  1042 0001:8DFA  1043 0001:8DFB  1044 0001:8DFE
  1046 0001:8E00  1048 0001:8E03  1049 0001:8E06  1050 0001:8E08
  1051 0001:8E0B  1052 0001:8E0E  1053 0001:8E11  1054 0001:8E13
  1055 0001:8E16  1057 0001:8E18  1058 0001:8E1A  1060 0001:8E1C
  1062 0001:8E1D  1063 0001:8E20  1064 0001:8E23  1065 0001:8E26
  1067 0001:8E29  1068 0001:8E2C  1069 0001:8E2F  1071 0001:8E32
  1072 0001:8E34  1073 0001:8E36  1075 0001:8E38  1077 0001:8E3B
  1079 0001:8E3C  1080 0001:8E3E  1081 0001:8E40  1082 0001:8E43
  1083 0001:8E47  1086 0001:8E4A  1087 0001:8E4D  1088 0001:8E4F
  1091 0001:8E51  1092 0001:8E54  1093 0001:8E57  1094 0001:8E59
  1097 0001:8E5B  1098 0001:8E5D  1103 0001:8E5F  1104 0001:8E61
  1106 0001:8E6C  1109 0001:8E6E

Line numbers for resaux.obj(resaux.ASM) segment _MISCTEXT

  1126 0003:0A20  1127 0003:0A26  1128 0003:0A2F  1129 0003:0A31
  1130 0003:0A3A  1137 0003:0A3C  1138 0003:0A3E  1139 0003:0A40
  1140 0003:0A42  1141 0003:0A44  1142 0003:0A46  1143 0003:0A49
  1146 0003:0A4B  1149 0003:0A4E  1150 0003:0A56  1151 0003:0A58
  1152 0003:0A5D  1153 0003:0A62  1155 0003:0A64  1158 0003:0A67
  1159 0003:0A6B  1160 0003:0A6D  1161 0003:0A72  1163 0003:0A74
  1164 0003:0A78  1170 0003:0A7B  1171 0003:0A7D  1172 0003:0A7F
  1173 0003:0A81  1174 0003:0A83  1175 0003:0A85  1179 0003:0A87
  1180 0003:0A8A  1181 0003:0A8E  1182 0003:0A90  1184 0003:0A92
  1185 0003:0A94  1186 0003:0A97  1187 0003:0A9A  1188 0003:0AA6
  1189 0003:0AA8  1191 0003:0AAA  1192 0003:0AAB  1193 0003:0AAE
  1194 0003:0AB7  1195 0003:0AB8  1196 0003:0ABA  1198 0003:0ABC
  1202 0003:0ABF  1203 0003:0AC2  1204 0003:0AC3  1205 0003:0AC6
  1206 0003:0ACC  1208 0003:0ACD  1209 0003:0ACF  1210 0003:0AD1
  1212 0003:0AD3  1213 0003:0AD5  1223 0003:0AD7  1224 0003:0AD9
  1226 0003:0ADB  1227 0003:0ADF  1228 0003:0AE1  1232 0003:0AE3
  1233 0003:0AE4  1235 0003:0AE5  1236 0003:0AE8  1237 0003:0AE9
  1238 0003:0AEA  1239 0003:0AED  1240 0003:0AF0  1242 0003:0AF5
  1243 0003:0AF6  1245 0003:0AF7  1246 0003:0AF9  1250 0003:0AFB
  1251 0003:0AFD  1253 0003:0AFF  1254 0003:0B03  1255 0003:0B05
  1259 0003:0B07  1260 0003:0B0B  1261 0003:0B0D  1262 0003:0B11
  1265 0003:0B13  1266 0003:0B14  1268 0003:0B15  1269 0003:0B16
  1270 0003:0B17  1272 0003:0B1A  1273 0003:0B1B  1274 0003:0B1C
  1276 0003:0B21  1277 0003:0B23  1278 0003:0B26  1279 0003:0B2A
  1280 0003:0B2D  1281 0003:0B30  1283 0003:0B35  1284 0003:0B36
  1286 0003:0B37  1287 0003:0B39  1291 0003:0B3B  1292 0003:0B3E
  1293 0003:0B42  1294 0003:0B44  1298 0003:0B46  1299 0003:0B4A
  1300 0003:0B4D  1301 0003:0B4F  1305 0003:0B51  1306 0003:0B55
  1307 0003:0B58  1308 0003:0B5A  1312 0003:0B5C  1313 0003:0B5F
  1316 0003:0B64  1317 0003:0B66  1318 0003:0B67  1319 0003:0B69
  1320 0003:0B6B  1323 0003:0B6E  1324 0003:0B70  1325 0003:0B72
  1328 0003:0B76  1332 0003:0B7C  1333 0003:0B80  1334 0003:0B83
  1335 0003:0B85  1336 0003:0B87  1337 0003:0B89  1338 0003:0B8B
  1339 0003:0B8D  1340 0003:0B8E  1341 0003:0B90  1342 0003:0B92
  1344 0003:0B94  1345 0003:0B96  1346 0003:0B98  1347 0003:0B9A
  1348 0003:0B9C  1349 0003:0B9E  1350 0003:0BA0  1351 0003:0BA2
  1352 0003:0BA4  1353 0003:0BA6  1354 0003:0BA8  1355 0003:0BAA
  1356 0003:0BAC  1358 0003:0BAE  1360 0003:0BB0  1366 0003:0BB5
  1367 0003:0BBA  1368 0003:0BBD  1369 0003:0BC0  1370 0003:0BC2
  1371 0003:0BC5  1372 0003:0BC7  1373 0003:0BC9  1374 0003:0BCA
  1375 0003:0BCB  1376 0003:0BCD  1378 0003:0BD0  1379 0003:0BD3
  1380 0003:0BD4  1381 0003:0BD6  1382 0003:0BD8  1383 0003:0BDD
  1384 0003:0BDF  1385 0003:0BE0  1386 0003:0BE2  1387 0003:0BE4
  1388 0003:0BE6  1389 0003:0BE8  1390 0003:0BEB  1391 0003:0BED
  1392 0003:0BEF  1394 0003:0BF1  1396 0003:0BF3  1438 0003:0BF9
  1439 0003:0BFF  1440 0003:0C07  1441 0003:0C09  1442 0003:0C0D
  1443 0003:0C11  1449 0003:0C13  1450 0003:0C16  1451 0003:0C19
  1452 0003:0C1C  1453 0003:0C1E  1454 0003:0C1F  1455 0003:0C20
  1457 0003:0C23  1459 0003:0C26  1460 0003:0C28  1461 0003:0C2A
  1462 0003:0C2B  1463 0003:0C2D  1464 0003:0C2F  1465 0003:0C31
  1466 0003:0C33  1468 0003:0C35  1469 0003:0C41  1470 0003:0C43
  1472 0003:0C45  1473 0003:0C48  1474 0003:0C4B  1475 0003:0C4D
  1476 0003:0C50  1477 0003:0C52  1478 0003:0C53  1481 0003:0C55
  1482 0003:0C56  1483 0003:0C59  1484 0003:0C5C  1485 0003:0C5F
  1486 0003:0C62  1489 0003:0C64  1490 0003:0C66  1493 0003:0C68
  1545 0003:0C6F  1546 0003:0C76  1547 0003:0C7E  1548 0003:0C80
  1549 0003:0C84  1550 0003:0C88  1556 0003:0C8A  1557 0003:0C9C
  1558 0003:0C9F  1562 0003:0CA2  1564 0003:0CA5  1565 0003:0CA7
  1566 0003:0CA9  1567 0003:0CAC  1568 0003:0CAE  1569 0003:0CB0
  1570 0003:0CB2  1571 0003:0CB4  1573 0003:0CB6  1574 0003:0CC2
  1575 0003:0CC4  1577 0003:0CC6  1578 0003:0CC9  1579 0003:0CCC
  1580 0003:0CCE  1581 0003:0CD1  1582 0003:0CD3  1587 0003:0CD5
  1588 0003:0CD8  1590 0003:0CDB  1591 0003:0CDE  1592 0003:0CE0
  1593 0003:0CE3  1594 0003:0CE5  1595 0003:0CE7  1596 0003:0CE9
  1598 0003:0CEB  1599 0003:0CEC  1600 0003:0CF8  1601 0003:0CF9
  1602 0003:0CFB  1604 0003:0CFD  1605 0003:0D00  1607 0003:0D02
  1608 0003:0D04  1611 0003:0D06  1613 0003:0D08

Line numbers for resaux.obj(resaux.ASM) segment _NRESTEXT

  1639 0002:2A80  1640 0002:2A86  1641 0002:2A89  1642 0002:2A8B
  1643 0002:2A8F  1644 0002:2A93  1646 0002:2A95  1649 0002:2A98
  1653 0002:2A9B  1654 0002:2A9E  1656 0002:2AA1  1657 0002:2AA5
  1658 0002:2AA7  1659 0002:2AAB  1660 0002:2AB1  1665 0002:2AB7
  1667 0002:2ABA  1668 0002:2ABB  1677 0002:2ABF  1679 0002:2AC2
  1680 0002:2AC9  1681 0002:2ACB  1743 0002:2ACE  1744 0002:2AD2
  1745 0002:2AD4  1747 0002:2AD6  1748 0002:2AD9  1749 0002:2ADC
  1751 0002:2ADE  1752 0002:2AE1  1754 0002:2AE3  1755 0002:2AE4
  1757 0002:2AEC  1760 0002:2AEE  1761 0002:2AF0  1762 0002:2AF2
  1770 0002:2AF3  1771 0002:2AF4  1772 0002:2AF7  1773 0002:2AF9
  1775 0002:2AFB  1776 0002:2AFD  1777 0002:2AFF  1779 0002:2B01
  1780 0002:2B04  1785 0002:2B07  1786 0002:2B0A  1787 0002:2B0D
  1788 0002:2B0E  1789 0002:2B0F  1790 0002:2B1C  1791 0002:2B1D
  1792 0002:2B1E  1793 0002:2B2D  1794 0002:2B2E  1806 0002:2B2F
  1807 0002:2B37  1808 0002:2B38  1811 0002:2B3A  1812 0002:2B3D
  1813 0002:2B3F  1815 0002:2B41  1816 0002:2B43  1817 0002:2B45
  1818 0002:2B47  1819 0002:2B49  1820 0002:2B4C  1821 0002:2B4F
  1823 0002:2B55  1829 0002:2B62  1830 0002:2B65  1832 0002:2B69
  1833 0002:2B6A  1834 0002:2B6D  1835 0002:2B6E  1836 0002:2B70
  1838 0002:2B73  1840 0002:2B76

Line numbers for linterf.obj(linterf.ASM) segment _TEXT

    91 0001:8E76    92 0001:8E7A    93 0001:8E7D    94 0001:8E80
    99 0001:8E82   100 0001:8E84   103 0001:8E8F   138 0001:8E90
   139 0001:8E94   140 0001:8E96   141 0001:8E99   142 0001:8E9B
   147 0001:8E9C   183 0001:8EA9   184 0001:8EAB   185 0001:8EAD
   186 0001:8EAE   187 0001:8EB0   189 0001:8EB2   190 0001:8EB3
   191 0001:8EB6   192 0001:8EB7   193 0001:8EB9   194 0001:8EBB
   195 0001:8EBD   196 0001:8EC0   197 0001:8EC1   198 0001:8EC3
   199 0001:8EC5   200 0001:8EC6   201 0001:8EC7   202 0001:8ECA
   203 0001:8ECC   204 0001:8ECD   205 0001:8ECF   243 0001:8ED0
   244 0001:8ED2   245 0001:8ED5   246 0001:8ED8   247 0001:8EDA
   248 0001:8EDD   249 0001:8EE0   250 0001:8EE3   251 0001:8EE5
   252 0001:8EE7   253 0001:8EEA   290 0001:8EEB   291 0001:8EED
   292 0001:8EEF   293 0001:8EF1   294 0001:8EF3   295 0001:8EF5
   296 0001:8EF7   297 0001:8EF9   298 0001:8EFB   299 0001:8EFE
   300 0001:8F01   302 0001:8F02   310 0001:8F05   311 0001:8F08
   312 0001:8F0A   313 0001:8F0C   314 0001:8F0E   315 0001:8F10
   316 0001:8F13   317 0001:8F16   318 0001:8F18   319 0001:8F1A
   320 0001:8F25   321 0001:8F27   322 0001:8F29   359 0001:8F2A
   360 0001:8F2E   361 0001:8F30   362 0001:8F32   364 0001:8F38
   365 0001:8F3A   394 0001:8F3B   396 0001:8F41   397 0001:8F56
   398 0001:8F59   399 0001:8F5B   400 0001:8F5D   402 0001:8F60
   403 0001:8F63   404 0001:8F65   405 0001:8F67   406 0001:8F6A
   407 0001:8F6D   408 0001:8F6F   409 0001:8F71   410 0001:8F74
   411 0001:8F76   412 0001:8F79   413 0001:8F7B   414 0001:8F7D
   415 0001:8F80   416 0001:8F84   418 0001:8F86   419 0001:8F88
   420 0001:8F8A   421 0001:8F8B   422 0001:8F8C   424 0001:8F8F
   425 0001:8F91   426 0001:8F93   427 0001:8F94   428 0001:8F95
   430 0001:8F97   431 0001:8F98   437 0001:8F99   438 0001:8F9A
   439 0001:8F9D   440 0001:8F9E   441 0001:8FA0   442 0001:8FA3
   445 0001:8FA5   446 0001:8FA7   447 0001:8FA9   448 0001:8FAC
   449 0001:8FB0   450 0001:8FB2   451 0001:8FB5   452 0001:8FB7
   453 0001:8FBA   456 0001:8FBC   457 0001:8FBF   458 0001:8FC3
   459 0001:8FC5   460 0001:8FC8   462 0001:8FCB   463 0001:8FCD
   464 0001:8FCF   465 0001:8FE5   467 0001:8FE7   469 0001:8FE9
   476 0001:8FF0   478 0001:8FF6   479 0001:900B   480 0001:900E
   481 0001:9010   482 0001:9012   484 0001:9015   485 0001:9019
   486 0001:901B   488 0001:901E   489 0001:9021   490 0001:9024
   491 0001:9026   492 0001:902A   493 0001:902C   494 0001:902E
   495 0001:9030   496 0001:9033   497 0001:9036   498 0001:9038
   499 0001:903B   500 0001:903D   501 0001:9040   502 0001:9043
   503 0001:9047   504 0001:9049   506 0001:904B   507 0001:9061
   508 0001:9063   515 0001:9066   516 0001:906A   517 0001:906C
   518 0001:906E   519 0001:9070   520 0001:9073   521 0001:9076
   522 0001:9078   523 0001:907A   524 0001:907C   525 0001:907F
   526 0001:9081   527 0001:9083   528 0001:9087   532 0001:9089
   533 0001:908C   534 0001:908E   535 0001:9090   536 0001:9094
   537 0001:9097   538 0001:909A   541 0001:909C   542 0001:909F
   543 0001:90A1   544 0001:90A4   545 0001:90A5   546 0001:90A8
   547 0001:90AB   548 0001:90AE   549 0001:90AF   550 0001:90B1
   551 0001:90B5   560 0001:90B8   561 0001:90BA   567 0001:90BC
   568 0001:90BD   569 0001:90BF   570 0001:90C2   571 0001:90C4
   572 0001:90C5   573 0001:90C8   574 0001:90CA   575 0001:90CB
   577 0001:90CD   578 0001:90CF   579 0001:90D2   580 0001:90D4
   581 0001:90D6   582 0001:90D9   583 0001:90DB   584 0001:90DE
   591 0001:90E0   592 0001:90E2   593 0001:90E5   594 0001:90E7
   595 0001:90EA   598 0001:90ED   599 0001:90EF   600 0001:90F1
   601 0001:90F4   602 0001:90F6   603 0001:90F8   605 0001:90FB
   606 0001:90FE   615 0001:9100   616 0001:9103   619 0001:9105
   620 0001:9108   621 0001:910A   622 0001:910D   623 0001:910F
   624 0001:9111   625 0001:9114   626 0001:9119   627 0001:911B
   629 0001:911E   636 0001:9120   637 0001:9123   638 0001:9126
   639 0001:9128   640 0001:912A   641 0001:912C   643 0001:912F
   644 0001:9131   645 0001:9134   646 0001:9136   647 0001:9139
   648 0001:913B   653 0001:913D   654 0001:9140   655 0001:9142
   657 0001:9143   658 0001:9145   659 0001:9148   661 0001:914B
   662 0001:914C   663 0001:914E   665 0001:914F   666 0001:9150
   667 0001:9152   668 0001:9155   669 0001:9157   670 0001:915A
   671 0001:915D   672 0001:9160   673 0001:9162   675 0001:9163
   678 0001:9164   679 0001:9167   680 0001:9168   681 0001:916A
   682 0001:916C   683 0001:916D   684 0001:9170   686 0001:9172
   687 0001:9174   689 0001:9175   690 0001:9179   692 0001:917C
   693 0001:9180   694 0001:9182   696 0001:9185   698 0001:9188
   700 0001:918A   705 0001:9191   707 0001:9197   708 0001:919A
   709 0001:919C   710 0001:919E   712 0001:91A1   713 0001:91B6
   714 0001:91B9   715 0001:91BC   717 0001:91BE   718 0001:91BF
   719 0001:91C4   721 0001:91C8   722 0001:91CE   723 0001:91CF
   725 0001:91D1   726 0001:91D3   727 0001:91D5   728 0001:91D7
   729 0001:91E4   730 0001:91E7   734 0001:91EA   735 0001:91ED
   736 0001:91F0   739 0001:91F3   745 0001:91FA   746 0001:91FB
   747 0001:91FD   748 0001:9201   749 0001:9204   750 0001:9206
   751 0001:9209   752 0001:920B   753 0001:920D   754 0001:920E
   762 0001:9211   763 0001:9212   764 0001:9214   765 0001:9218
   766 0001:921B   767 0001:921D   768 0001:921F   770 0001:9222
   771 0001:9224   772 0001:9226   773 0001:9227   781 0001:922A
   784 0001:922F   785 0001:9232   786 0001:9235   787 0001:9237
   788 0001:9239   790 0001:923B   791 0001:923E   792 0001:9240
   793 0001:9242   794 0001:924F   795 0001:9252   797 0001:9254
   798 0001:9256   799 0001:9258   800 0001:926E   801 0001:9270
   803 0001:9272   833 0001:9278   836 0001:927D   837 0001:9280
   838 0001:9283   839 0001:9285   840 0001:9287   841 0001:9289
   843 0001:928B   844 0001:928D   845 0001:928F   846 0001:9291
   847 0001:9294   848 0001:9296   850 0001:9299   851 0001:929B
   852 0001:929C   854 0001:929E   855 0001:92A0   856 0001:92AD
   858 0001:92AF   860 0001:92B1   894 0001:92B7   895 0001:92B9
   896 0001:92BD   897 0001:92C0   898 0001:92C2   899 0001:92C4
   900 0001:92C7   901 0001:92C9   902 0001:92CB   904 0001:92CD
   905 0001:92CF   911 0001:92D2   912 0001:92D8   913 0001:92ED
   914 0001:92F0   915 0001:92F2   916 0001:92F4   918 0001:92F7
   919 0001:92FA   920 0001:92FB   921 0001:92FE   922 0001:9301
   923 0001:9303   924 0001:9305   926 0001:9308   928 0001:930B
   934 0001:9312   935 0001:9318   936 0001:931B   937 0001:931D
   940 0001:931F   941 0001:9320   942 0001:9325   943 0001:9327
   944 0001:9329   947 0001:932B   948 0001:9340   949 0001:9343
   950 0001:9345   951 0001:9347   954 0001:9349   955 0001:934C
   957 0001:934F   961 0001:9352   968 0001:9359   969 0001:935F
   970 0001:9362   971 0001:9364   972 0001:9366   973 0001:936C
   974 0001:936E   986 0001:9370   987 0001:9372   988 0001:9378
   989 0001:937A   990 0001:937B   991 0001:9381   992 0001:9384
   993 0001:9385   994 0001:9387   995 0001:938A   996 0001:938C
   997 0001:938E   998 0001:9391   999 0001:9393  1000 0001:9395
  1001 0001:9398  1002 0001:939A  1003 0001:939C  1004 0001:939F
  1005 0001:93A1  1006 0001:93A3  1007 0001:93A6  1008 0001:93A8
  1009 0001:93AB  1010 0001:93AD  1012 0001:93AF  1014 0001:93B1
  1016 0001:93B4  1017 0001:93B8  1018 0001:93BA  1019 0001:93BD
  1020 0001:93BF  1022 0001:93C2  1024 0001:93C3  1025 0001:93CC
  1026 0001:93CD  1027 0001:93CF  1028 0001:93D0  1030 0001:93D6
  1031 0001:93D8  1032 0001:93DA  1034 0001:93DD  1035 0001:93DF
  1036 0001:93E2  1037 0001:93E5  1038 0001:93E9  1039 0001:93EC
  1040 0001:93EF  1041 0001:93F1  1042 0001:93F4  1046 0001:93F7
  1047 0001:93FA  1048 0001:93FD  1049 0001:9400  1050 0001:9405
  1051 0001:9406  1052 0001:9408  1053 0001:940B  1055 0001:940C
  1056 0001:940F  1057 0001:9412  1058 0001:9414  1065 0001:9417
  1066 0001:941A  1067 0001:941B  1069 0001:941E  1075 0001:9425
  1076 0001:942B  1077 0001:942E  1078 0001:9430  1079 0001:9432
  1080 0001:9438  1081 0001:943A  1093 0001:943C  1094 0001:943E
  1095 0001:9444  1096 0001:9446  1097 0001:9447  1098 0001:944D
  1099 0001:9450  1100 0001:9451  1101 0001:9453  1102 0001:9456
  1103 0001:9458  1104 0001:945A  1105 0001:945D  1106 0001:945F
  1107 0001:9461  1108 0001:9464  1109 0001:9466  1110 0001:9468
  1111 0001:946B  1112 0001:946D  1113 0001:946F  1114 0001:9472
  1115 0001:9474  1116 0001:9477  1117 0001:9479  1119 0001:947B
  1121 0001:947D  1123 0001:9480  1124 0001:9484  1125 0001:9486
  1126 0001:9489  1127 0001:948B  1129 0001:948E  1130 0001:948F
  1131 0001:9496  1132 0001:9498  1133 0001:949A  1135 0001:94A0
  1136 0001:94A2  1137 0001:94A4  1139 0001:94A7  1140 0001:94A9
  1141 0001:94AC  1142 0001:94AF  1143 0001:94B3  1144 0001:94B6
  1145 0001:94B9  1146 0001:94BB  1147 0001:94BE  1151 0001:94C1
  1152 0001:94C4  1153 0001:94C7  1154 0001:94CA  1155 0001:94CF
  1156 0001:94D0  1157 0001:94D2  1158 0001:94D5  1160 0001:94D6
  1161 0001:94D9  1162 0001:94DC  1163 0001:94DE  1171 0001:94E1
  1173 0001:94E4  1175 0001:94E5

Line numbers for linterf.obj(linterf.ASM) segment _NRESTEXT

  1193 0002:2B7C  1194 0002:2B7E  1195 0002:2B82  1196 0002:2B86
  1197 0002:2B8A  1198 0002:2B8D  1199 0002:2B90  1207 0002:2B93
  1211 0002:2B99  1212 0002:2B9C  1213 0002:2B9E  1218 0002:2BA0
  1219 0002:2BA3  1220 0002:2BA5  1221 0002:2BA7  1228 0002:2BAD
  1229 0002:2BAF  1230 0002:2BB1  1232 0002:2BB4  1233 0002:2BB6
  1234 0002:2BB7  1235 0002:2BBA  1236 0002:2BBD  1238 0002:2BBF
  1239 0002:2BC0  1240 0002:2BC5  1251 0002:2BC7  1252 0002:2BCA
  1253 0002:2BCB  1254 0002:2BCC  1255 0002:2BD1  1256 0002:2BD3
  1257 0002:2BD4  1258 0002:2BD5  1262 0002:2BD6  1263 0002:2BD9
  1264 0002:2BDB  1265 0002:2BDE  1268 0002:2BE0  1269 0002:2BE2
  1270 0002:2BE3  1271 0002:2BE4  1273 0002:2BE7  1274 0002:2BE9
  1275 0002:2BEE  1276 0002:2BEF  1277 0002:2BF1  1278 0002:2BF2
  1280 0002:2BF5  1281 0002:2BF8  1295 0002:2BFB  1296 0002:2BFC
  1297 0002:2BFF  1308 0002:2C00  1309 0002:2C02  1310 0002:2C09
  1311 0002:2C0B  1312 0002:2C0C  1313 0002:2C13  1314 0002:2C15
  1317 0002:2C16  1319 0002:2C17  1324 0002:2C19  1325 0002:2C1D
  1326 0002:2C21  1327 0002:2C24  1328 0002:2C29  1329 0002:2C2E
  1330 0002:2C33  1331 0002:2C38  1335 0002:2C3D  1336 0002:2C3E
  1337 0002:2C43  1341 0002:2C45  1342 0002:2C48  1343 0002:2C4B
  1345 0002:2C4E  1346 0002:2C50  1347 0002:2C52  1348 0002:2C54
  1353 0002:2C57  1354 0002:2C5A  1371 0002:2C5E  1372 0002:2C5F
  1376 0002:2C60  1377 0002:2C62  1378 0002:2C65  1379 0002:2C67
  1380 0002:2C6A  1381 0002:2C6D  1382 0002:2C70  1383 0002:2C75
  1387 0002:2C77  1388 0002:2C79  1389 0002:2C7C  1390 0002:2C7E
  1391 0002:2C80  1395 0002:2C83  1396 0002:2C85  1397 0002:2C88
  1398 0002:2C8B  1399 0002:2C8E  1400 0002:2C90  1401 0002:2C92
  1404 0002:2C95  1405 0002:2C97  1406 0002:2C9C  1411 0002:2C9E
  1412 0002:2CA1  1413 0002:2CA4  1414 0002:2CA6  1415 0002:2CA9
  1416 0002:2CAC  1420 0002:2CB1  1421 0002:2CB5  1422 0002:2CB8
  1423 0002:2CBB  1424 0002:2CBE  1426 0002:2CC1  1428 0002:2CC7
  1430 0002:2CC9  1431 0002:2CCB  1465 0002:2CD2  1466 0002:2CD3
  1467 0002:2CD4  1468 0002:2CD8  1469 0002:2CDB  1470 0002:2CE2
  1471 0002:2CE4  1472 0002:2CE6  1473 0002:2CE8  1474 0002:2CED
  1475 0002:2CEF  1476 0002:2CF2  1477 0002:2CF5  1479 0002:2CF8
  1480 0002:2CFA  1481 0002:2CFC  1482 0002:2CFF  1483 0002:2D02
  1484 0002:2D05  1486 0002:2D07  1487 0002:2D08  1488 0002:2D09
  1523 0002:2D0A  1524 0002:2D0E  1525 0002:2D11  1526 0002:2D14
  1559 0002:2D15  1560 0002:2D19  1561 0002:2D1D  1562 0002:2D20
  1563 0002:2D22  1564 0002:2D24  1565 0002:2D27  1567 0002:2D2A
  1568 0002:2D2D

Line numbers for lcompact.obj(lcompact.ASM) segment _TEXT

    54 0001:94EC    55 0001:94EF    57 0001:94F1    58 0001:94F3
    59 0001:94F6    60 0001:94F8    61 0001:94FA    62 0001:94FC
    63 0001:94FE    64 0001:9501    65 0001:9503    66 0001:9505
    67 0001:9507    68 0001:9509    69 0001:950B    71 0001:950D
    73 0001:950F    74 0001:9510    75 0001:9511    76 0001:9512
    77 0001:9513    78 0001:9515    79 0001:9516    80 0001:9517
    81 0001:9518    82 0001:951A    83 0001:951B    84 0001:951C
    85 0001:951D    86 0001:951E    88 0001:951F   120 0001:9520
   121 0001:9521   122 0001:9522   123 0001:9523   124 0001:9525
   125 0001:9526   126 0001:9529   128 0001:952B   129 0001:952D
   130 0001:952F   131 0001:9531   132 0001:9533   133 0001:9535
   134 0001:9538   135 0001:953C   136 0001:953E   137 0001:9541
   138 0001:9543   139 0001:9545   140 0001:9547   141 0001:9548
   142 0001:954A   143 0001:954C   144 0001:954E   145 0001:9551
   146 0001:9553   147 0001:9555   148 0001:9556   150 0001:9558
   151 0001:955A   152 0001:955C   154 0001:955E   155 0001:955F
   156 0001:9560   157 0001:9561   158 0001:9562   198 0001:9563
   199 0001:9566   200 0001:9567   202 0001:956C   203 0001:9570
   204 0001:9572   206 0001:9575   207 0001:9578   208 0001:9579
   209 0001:957B   210 0001:957C   211 0001:957F   215 0001:9582
   216 0001:9585   217 0001:9587   218 0001:9589   219 0001:958B
   220 0001:958D   222 0001:958F   225 0001:9591   226 0001:9592
   227 0001:9593   228 0001:9595   229 0001:9597   230 0001:9599
   231 0001:959C   232 0001:959E   233 0001:95A1   234 0001:95A3
   235 0001:95A5   238 0001:95A7   239 0001:95A8   242 0001:95A9
   243 0001:95AA   245 0001:95AB   246 0001:95AE   247 0001:95B0
   248 0001:95B3   250 0001:95B5   251 0001:95B8   252 0001:95BA
   253 0001:95BB   254 0001:95BD   255 0001:95BE   256 0001:95C0
   257 0001:95C3   258 0001:95C4   259 0001:95C6   260 0001:95C8
   261 0001:95CA   262 0001:95CD   263 0001:95D0   264 0001:95D2
   265 0001:95D4   266 0001:95D8   267 0001:95DC   269 0001:95DE
   270 0001:95E2   271 0001:95E4   272 0001:95E8   273 0001:95E9
   274 0001:95EA   283 0001:95EC   284 0001:95EF   285 0001:95F3
   288 0001:95F5   289 0001:95F7   290 0001:95FA   291 0001:95FC
   292 0001:95FF   293 0001:9603   299 0001:9605   300 0001:9606
   301 0001:9607   302 0001:9609   303 0001:960C   304 0001:960F
   305 0001:9611   306 0001:9614   307 0001:9616   308 0001:9619
   309 0001:961C   311 0001:961E   312 0001:9621   314 0001:9624
   315 0001:9625   316 0001:9626   317 0001:9628   318 0001:962A
   319 0001:962D   320 0001:962E   322 0001:962F   323 0001:9632
   324 0001:9635   326 0001:9637   327 0001:9638   328 0001:963B
   329 0001:963D   330 0001:9640   332 0001:9643   333 0001:9644
   334 0001:9646   335 0001:9648   336 0001:964B   337 0001:964D
   341 0001:9650   347 0001:9653   348 0001:9654   349 0001:9656
   350 0001:9658   351 0001:965C   352 0001:965E   353 0001:9660
   354 0001:9662   355 0001:9665   356 0001:9667   357 0001:9669
   358 0001:966C   359 0001:966E   360 0001:9670   361 0001:9671
   362 0001:9673   363 0001:9676   372 0001:9678   373 0001:967B
   374 0001:967D   375 0001:967F   376 0001:9680   377 0001:9681
   378 0001:9683   379 0001:9686   384 0001:9689   385 0001:968A
   386 0001:968C   387 0001:968E   388 0001:9690   390 0001:9693
   391 0001:9695   392 0001:9698   393 0001:969B   394 0001:969C
   395 0001:969F   396 0001:96A1   398 0001:96A2   400 0001:96A5
   401 0001:96A7   402 0001:96A9   403 0001:96AA   404 0001:96AC
   405 0001:96AF   408 0001:96B0   410 0001:96B2   411 0001:96B4
   412 0001:96B7   413 0001:96B9   414 0001:96BA   415 0001:96BB
   416 0001:96BD   417 0001:96BE   419 0001:96C1   420 0001:96C2
   421 0001:96C3   422 0001:96C5   423 0001:96C8   424 0001:96CB
   425 0001:96CC   426 0001:96CF   427 0001:96D1   428 0001:96D4
   429 0001:96D7   430 0001:96D8   431 0001:96DB   432 0001:96DD
   433 0001:96DE   471 0001:96E0   472 0001:96E3   473 0001:96E5
   474 0001:96E7   476 0001:96E9   477 0001:96EA   478 0001:96ED
   479 0001:96F0   480 0001:96F3   481 0001:96F5   482 0001:96F7
   486 0001:96FA   487 0001:96FB   488 0001:96FE   489 0001:9701
   492 0001:9703   507 0001:9706   508 0001:9708   509 0001:970B
   510 0001:970D   511 0001:9710   512 0001:9712   513 0001:9715
   514 0001:9717   515 0001:971A   516 0001:971E   518 0001:9720
   519 0001:9723   524 0001:9725   525 0001:9728   528 0001:972A
   529 0001:972C   532 0001:972E   533 0001:972F   534 0001:9730
   535 0001:9731   536 0001:9734   537 0001:9737   538 0001:9738
   539 0001:9739   540 0001:973C   545 0001:973E   546 0001:9741
   552 0001:9744   553 0001:9746   554 0001:9749   555 0001:974C
   563 0001:974E   564 0001:9751   565 0001:9753   566 0001:9756
   567 0001:9758   568 0001:975B   569 0001:975D   570 0001:975F
   571 0001:9760   572 0001:9761   573 0001:9763   575 0001:9765
   576 0001:9767   577 0001:976A   578 0001:976D   579 0001:9770
   580 0001:9771   581 0001:9774   582 0001:9776   583 0001:9778
   584 0001:977B   585 0001:977E   586 0001:977F   587 0001:9780
   596 0001:9783   597 0001:9785   598 0001:9788   600 0001:978A
   601 0001:978B   603 0001:978C   604 0001:978F   605 0001:9792
   608 0001:9795   609 0001:9797   610 0001:9798   611 0001:9799
   612 0001:979A   613 0001:979C   614 0001:979D   620 0001:979E
   621 0001:979F   622 0001:97A2   623 0001:97A5   624 0001:97A7
   627 0001:97A8   628 0001:97AB   629 0001:97AE   638 0001:97B0
   639 0001:97B3   640 0001:97B5   641 0001:97B7   642 0001:97B9
   643 0001:97BC   644 0001:97BF   645 0001:97C0   646 0001:97C1
   647 0001:97C3   648 0001:97C5   649 0001:97C7   656 0001:97CA
   657 0001:97CB   658 0001:97CC   661 0001:97CF   662 0001:97D0
   663 0001:97D5   664 0001:97D7   665 0001:97D9   668 0001:97DA
   669 0001:97DD   670 0001:97E0   671 0001:97E2   672 0001:97E3
   673 0001:97E4   674 0001:97E5   678 0001:97EA   679 0001:97EB
   680 0001:97EE   681 0001:97F1   682 0001:97F2   683 0001:97F5
   684 0001:97F8   685 0001:97FB   713 0001:97FC   715 0001:97FD
   716 0001:9800   720 0001:9803   722 0001:9806   723 0001:9808
   724 0001:980B   725 0001:980D   727 0001:9810   729 0001:9812
   730 0001:9813   732 0001:9815   734 0001:9816   735 0001:9817
   772 0001:9818   775 0001:9819   778 0001:981C   779 0001:981E
   783 0001:9820   784 0001:9821   786 0001:9823   787 0001:9825
   788 0001:9827   789 0001:9828   790 0001:982B   792 0001:982D
   794 0001:982E   799 0001:9831   800 0001:9833   801 0001:9836
   802 0001:9839   803 0001:983A   804 0001:983C   805 0001:983E
   806 0001:9840   807 0001:9843   808 0001:9845   809 0001:9846
   810 0001:9849   812 0001:984B   813 0001:984D   814 0001:9850
   815 0001:9853   816 0001:9855   817 0001:9857   818 0001:985A
   819 0001:985D   820 0001:985F   824 0001:9861   825 0001:9864
   826 0001:9867   827 0001:986A   828 0001:986D   829 0001:9870
   830 0001:9873   831 0001:9876   832 0001:9879   833 0001:987C
   838 0001:987F   841 0001:9882   844 0001:9884   846 0001:9885

Line numbers for lalloc.obj(lalloc.ASM) segment _TEXT

    62 0001:9886    64 0001:9889    65 0001:988A    66 0001:988D
    67 0001:988F    68 0001:9892    69 0001:9895    70 0001:9897
    74 0001:989A    75 0001:989E    76 0001:98A0    77 0001:98A2
    78 0001:98A5    85 0001:98A7    86 0001:98AB    88 0001:98AD
    89 0001:98AE    90 0001:98B0    91 0001:98B2    92 0001:98B5
    98 0001:98B6    99 0001:98B8   100 0001:98BB   104 0001:98BD
   105 0001:98BE   141 0001:98BF   142 0001:98C1   143 0001:98C2
   144 0001:98C3   145 0001:98C4   180 0001:98C5   181 0001:98C6
   182 0001:98C8   183 0001:98CA   184 0001:98CC   185 0001:98CD
   186 0001:98CF   187 0001:98D1   188 0001:98D4   189 0001:98D6
   191 0001:98D7   192 0001:98D8   213 0001:98D9   214 0001:98DA
   215 0001:98DC   216 0001:98DE   217 0001:98E0   218 0001:98E1
   219 0001:98E3   220 0001:98E6   221 0001:98E9   222 0001:98EB
   224 0001:98EC   225 0001:98ED   272 0001:98EE   273 0001:98F1
   274 0001:98F3   275 0001:98F5   279 0001:98F6   280 0001:98F7
   281 0001:98F8   282 0001:98F9   284 0001:98FB   285 0001:98FD
   287 0001:9900   288 0001:9903   289 0001:9906   290 0001:9909
   294 0001:990C   295 0001:990F   296 0001:9911   298 0001:9913
   299 0001:9916   300 0001:9918   301 0001:991B   313 0001:991D
   314 0001:9920   315 0001:9922   320 0001:992F   321 0001:9932
   322 0001:9935   323 0001:9938   324 0001:993B   325 0001:993D
   326 0001:993F   328 0001:9941   329 0001:9943   336 0001:9946
   337 0001:9949   338 0001:994A   342 0001:994D   343 0001:9950
   344 0001:9953   345 0001:9955   347 0001:9957   348 0001:9958
   350 0001:995A   351 0001:995B   352 0001:995D   353 0001:9960
   354 0001:9961   355 0001:9962   356 0001:9963   358 0001:9964
   359 0001:9966   361 0001:9968   362 0001:996B   363 0001:996D
   367 0001:996E   368 0001:9971   369 0001:9974   370 0001:9977
   375 0001:997A   376 0001:997D   377 0001:9980   378 0001:9982
   380 0001:9984   381 0001:9986   382 0001:9989   383 0001:998B
   388 0001:998D   389 0001:9990   390 0001:9993   391 0001:9995
   392 0001:9997   400 0001:9999   401 0001:999C   402 0001:999E
   406 0001:99AB   407 0001:99AE   408 0001:99B1   409 0001:99B4
   411 0001:99B6   412 0001:99B8   413 0001:99BA   414 0001:99BD
   415 0001:99BF   417 0001:99C0   425 0001:99C3   426 0001:99C5
   427 0001:99C8   428 0001:99CA   435 0001:99CD   436 0001:99CF
   437 0001:99D2   438 0001:99D4   439 0001:99D7   440 0001:99D9
   441 0001:99DB   442 0001:99DE   443 0001:99E0   444 0001:99E3
   447 0001:99E4   448 0001:99E7   449 0001:99E9   450 0001:99EC
   451 0001:99ED   453 0001:99EE   454 0001:99F1   455 0001:99F3
   456 0001:99F5   457 0001:99F8   458 0001:99FB   461 0001:99FD
   462 0001:9A00   463 0001:9A02   464 0001:9A04   465 0001:9A07
   467 0001:9A0A   468 0001:9A0B   469 0001:9A0D   511 0001:9A0E
   512 0001:9A10   513 0001:9A12   514 0001:9A14   516 0001:9A15
   520 0001:9A18   521 0001:9A19   522 0001:9A1B   523 0001:9A1E
   527 0001:9A1F   528 0001:9A22   529 0001:9A24   530 0001:9A26
   531 0001:9A29   532 0001:9A2A   533 0001:9A2C   535 0001:9A2E
   536 0001:9A31   537 0001:9A34   538 0001:9A36   539 0001:9A38
   540 0001:9A3B   542 0001:9A3D   543 0001:9A3F   544 0001:9A42
   545 0001:9A44   547 0001:9A47   548 0001:9A49   550 0001:9A4A
   551 0001:9A4C   591 0001:9A4D   592 0001:9A4E   593 0001:9A4F
   594 0001:9A50   596 0001:9A51   597 0001:9A53   602 0001:9A55
   608 0001:9A59   609 0001:9A5C   610 0001:9A5E   611 0001:9A61
   613 0001:9A63   617 0001:9A70   619 0001:9A73   620 0001:9A76
   621 0001:9A78   622 0001:9A7A   623 0001:9A7C   628 0001:9A7E
   629 0001:9A81   630 0001:9A84   632 0001:9A87   633 0001:9A8A
   635 0001:9A8D   636 0001:9A90   637 0001:9A92   643 0001:9A95
   646 0001:9A98   647 0001:9A99   648 0001:9A9A   649 0001:9A9B
   650 0001:9A9C   686 0001:9A9D   687 0001:9A9E   689 0001:9A9F
   690 0001:9AA2   692 0001:9AA5   693 0001:9AA8   695 0001:9AAB
   696 0001:9AAC   697 0001:9AAD   734 0001:9AAE   735 0001:9AAF
   736 0001:9AB0   740 0001:9AB1   741 0001:9AB5   742 0001:9AB8
   744 0001:9ABA   745 0001:9ABD   746 0001:9AC0   747 0001:9AC2
   748 0001:9AC4   749 0001:9AC6   750 0001:9AC8   751 0001:9AC9
   752 0001:9ACA   753 0001:9ACB   756 0001:9ACD   757 0001:9ACE
   758 0001:9ACF   759 0001:9AD0   798 0001:9AD1   799 0001:9AD2
   800 0001:9AD3   804 0001:9AD4   805 0001:9AD8   806 0001:9ADA
   807 0001:9ADD   809 0001:9ADF   810 0001:9AE2   811 0001:9AE5
   812 0001:9AE7   813 0001:9AE9   814 0001:9AEB   815 0001:9AEC
   816 0001:9AED   818 0001:9AEE   819 0001:9AEF   820 0001:9AF1
   823 0001:9AF3   825 0001:9AF5   826 0001:9AF6   827 0001:9AF7
   828 0001:9AF8

Line numbers for ripaux.obj(ripaux.ASM) segment _TEXT

   137 0001:9AFA   138 0001:9AFB   139 0001:9AFD   140 0001:9AFE
   141 0001:9AFF   142 0001:9B04   143 0001:9B07   144 0001:9B0C
   145 0001:9B0D   146 0001:9B0E   147 0001:9B0F   148 0001:9B10
   160 0001:9B13   169 0001:9B17   170 0001:9B18   171 0001:9B19
   172 0001:9B1A   173 0001:9B1B   174 0001:9B1C   175 0001:9B1D
   177 0001:9B22   178 0001:9B25   179 0001:9B2A   180 0001:9B2B
   181 0001:9B2E   189 0001:9B2F   198 0001:9B34   200 0001:9B39
   201 0001:9B3C   202 0001:9B3F   207 0001:9B42   208 0001:9B46
   209 0001:9B49   210 0001:9B4B   212 0001:9B4E   224 0001:9B50
   225 0001:9B55   226 0001:9B58   227 0001:9B5B   228 0001:9B5D
   229 0001:9B60   231 0001:9B62   232 0001:9B63   233 0001:9B69
   234 0001:9B6C   235 0001:9B6F   236 0001:9B74   237 0001:9B75
   238 0001:9B77   239 0001:9B79   241 0001:9B7B   242 0001:9B7F
   243 0001:9B81   246 0001:9B83   247 0001:9B86   248 0001:9B88
   249 0001:9B8C   250 0001:9B8E   252 0001:9B90   253 0001:9B93
   254 0001:9B95   255 0001:9B99   256 0001:9B9B   258 0001:9B9D
   259 0001:9BA1   262 0001:9BA3   267 0001:9BA5   268 0001:9BA9
   269 0001:9BAB   271 0001:9BAD   276 0001:9BB0   277 0001:9BB2
   280 0001:9BB4   281 0001:9BB7   282 0001:9BBA   283 0001:9BBD
   284 0001:9BC0   292 0001:9BC5   293 0001:9BC9   295 0001:9BCB
   297 0001:9BD3   298 0001:9BD8   300 0001:9BDE   301 0001:9BE1
   302 0001:9BE4   303 0001:9BE7   533 0001:9BEC   534 0001:9BF2
   535 0001:9BF3   536 0001:9BF6   563 0001:9BFB   564 0001:9BFE
   566 0001:9C02   568 0001:9C05   569 0001:9C06   570 0001:9C08
   571 0001:9C0A   572 0001:9C0B   574 0001:9C0D   575 0001:9C10
   576 0001:9C11   577 0001:9C14   578 0001:9C15   579 0001:9C17
   580 0001:9C18   581 0001:9C1B   582 0001:9C1D   600 0001:9C24
   601 0001:9C2B   602 0001:9C2E   609 0001:9C31   610 0001:9C34
   611 0001:9C36   612 0001:9C38   613 0001:9C3A   614 0001:9C3C
   616 0001:9C3E   617 0001:9C41   618 0001:9C43   639 0001:9C4A
   640 0001:9C4E   641 0001:9C53   642 0001:9C56   643 0001:9C59
   645 0001:9C5A   646 0001:9C5B   647 0001:9C5D   648 0001:9C5F
   649 0001:9C62   650 0001:9C64   651 0001:9C67   652 0001:9C69
   653 0001:9C6B   655 0001:9C6D   656 0001:9C6F   658 0001:9C71
   673 0001:9C76   674 0001:9C77   675 0001:9C7C   676 0001:9C7F
   678 0001:9C80   694 0001:9C81   695 0001:9C82   696 0001:9C83
   697 0001:9C84   699 0001:9C86   700 0001:9C88   701 0001:9C8A
   702 0001:9C8C   723 0001:9C8E   724 0001:9C8F   726 0001:9C91
   727 0001:9C94   728 0001:9C97   730 0001:9C99   731 0001:9C9C
   732 0001:9C9D   733 0001:9CA0   734 0001:9CA3   735 0001:9CA6
   736 0001:9CA9   737 0001:9CAC   738 0001:9CAE   739 0001:9CB1
   740 0001:9CB2   741 0001:9CB4   743 0001:9CB5   757 0001:9CB8
   758 0001:9CB9   760 0001:9CBB   761 0001:9CBE   762 0001:9CC1
   765 0001:9CC3   766 0001:9CC6   767 0001:9CC7   768 0001:9CCA
   769 0001:9CCD   770 0001:9CD0   771 0001:9CD3   772 0001:9CD6
   773 0001:9CD8   774 0001:9CDB   775 0001:9CDC   776 0001:9CDE
   778 0001:9CDF   792 0001:9CE2   793 0001:9CE5   794 0001:9CE8
   795 0001:9CEB   796 0001:9CED   797 0001:9CEF   799 0001:9CF2
   800 0001:9CF4   801 0001:9CF7   802 0001:9CF9   803 0001:9CFA
   804 0001:9CFB   805 0001:9CFE   806 0001:9D02   807 0001:9D05
   808 0001:9D07   810 0001:9D08   833 0001:9D18   834 0001:9D1B
   835 0001:9D1D   836 0001:9D20   837 0001:9D22   838 0001:9D24
   839 0001:9D29   840 0001:9D34   841 0001:9D36   842 0001:9D41
   843 0001:9D43   844 0001:9D4E   845 0001:9D50   846 0001:9D5B
   847 0001:9D5D   848 0001:9D69   852 0001:9D6B   854 0001:9D6C
   867 0001:9D6D   868 0001:9D6E   869 0001:9D73   870 0001:9D78
   871 0001:9D7A   872 0001:9D7E   874 0001:9D80   875 0001:9D83
   877 0001:9D85   894 0001:9D87   895 0001:9D8C   900 0001:9D8F
   901 0001:9D92   923 0001:9D98   924 0001:9D99   925 0001:9D9B
   927 0001:9D9C   929 0001:9D9D   930 0001:9DA0   932 0001:9DA3
   933 0001:9DA4   934 0001:9DA5   936 0001:9DAA   937 0001:9DAB
   939 0001:9DAC   941 0001:9DAF   943 0001:9DB1   944 0001:9DB2
   946 0001:9DB3   948 0001:9DB4   949 0001:9DB5   951 0001:9DB8
   952 0001:9DB9   954 0001:9DBA   955 0001:9DBC   956 0001:9DBD
   958 0001:9DBF   961 0001:9DC1   966 0001:9DC2   969 0001:9DC6
   970 0001:9DC9   971 0001:9DCB   973 0001:9DD2   974 0001:9DD4
   975 0001:9DD7   976 0001:9DDA   977 0001:9DDD   978 0001:9DDE
   979 0001:9DE0   980 0001:9DE2   981 0001:9DE4   984 0001:9DE6
   998 0001:9DEB   999 0001:9DEC  1001 0001:9DEE  1003 0001:9DF1
  1004 0001:9DF2  1006 0001:9DF7  1007 0001:9DFA  1008 0001:9DFB
  1009 0001:9DFC  1012 0001:9DFF  1013 0001:9E00  1014 0001:9E02
  1016 0001:9E05  1018 0001:9E06  1019 0001:9E08  1022 0001:9E09
  1031 0001:9E0A  1032 0001:9E0D  1035 0001:9E10  1037 0001:9E1C
  1038 0001:9E1F  1048 0001:9E23  1050 0001:9E26  1054 0001:9E29
  1057 0001:9E3B  1058 0001:9E3C  1060 0001:9E41  1061 0001:9E44
  1063 0001:9E47  1064 0001:9E4B  1066 0001:9E5E  1068 0001:9E5F
  1070 0001:9E61  1072 0001:9E64  1073 0001:9E66  1076 0001:9E67

Line numbers for rip.obj(rip.c) segment _TEXT

   141 0001:9E6C   151 0001:9E70   152 0001:9E78   155 0001:9E83
   159 0001:9E8E   162 0001:9EA9   163 0001:9EB4   166 0001:9EBE
   167 0001:9ECB   169 0001:9EDD   170 0001:9EE5   174 0001:9EF1
   179 0001:9EF7   180 0001:9F05   181 0001:9F0A   183 0001:9F0C
   184 0001:9F17   185 0001:9F21   187 0001:9F2D   192 0001:9F31
   193 0001:9F3D   194 0001:9F42   195 0001:9F44   197 0001:9F53
   198 0001:9F5F   202 0001:9F6B   203 0001:9F74   204 0001:9F7E
   205 0001:9F90   206 0001:9F9A   207 0001:9FAC   208 0001:9FB6
   209 0001:9FC0   210 0001:9FCA   214 0001:9FD4   215 0001:9FDC
   218 0001:9FE0   220 0001:9FE5   221 0001:9FEA   222 0001:9FEF
   223 0001:A000   224 0001:A006   225 0001:A00B   226 0001:A017
   227 0001:A01D   228 0001:A026   229 0001:A032   230 0001:A03B
   231 0001:A042   232 0001:A062   233 0001:A06B   234 0001:A074
   243 0001:A07A   255 0001:A07E   257 0001:A089   258 0001:A093
   261 0001:A09D   264 0001:A0A4   265 0001:A0AF   267 0001:A0BF
   296 0001:A0C8   297 0001:A0CE   299 0001:A0E2   300 0001:A0F6
   301 0001:A10B   302 0001:A114   304 0001:A11E   305 0001:A13F
   306 0001:A14F   307 0001:A163   308 0001:A16F   310 0001:A18F
   314 0001:A196   315 0001:A1A2   316 0001:A1B8   317 0001:A1CC
   318 0001:A1EE   319 0001:A202   320 0001:A20E   322 0001:A211
   270 0001:A228   275 0001:A239   276 0001:A24C   277 0001:A25F
   279 0001:A285   280 0001:A296   282 0001:A2B3   285 0001:A2BE
   286 0001:A2CA   287 0001:A2DE   288 0001:A2EA   289 0001:A2F0
   290 0001:A303   291 0001:A317   293 0001:A320   294 0001:A327
   323 0001:A32A   324 0001:A331   325 0001:A338   327 0001:A34B
   328 0001:A36B   329 0001:A37F   330 0001:A38B   331 0001:A396
   332 0001:A3A0   334 0001:A3AA   335 0001:A3AC   344 0001:A3B0
   350 0001:A3B4   352 0001:A3C2   353 0001:A3E4   354 0001:A3EE
   356 0001:A3F8   357 0001:A40C   364 0001:A417   365 0001:A42C
   366 0001:A440   367 0001:A453   368 0001:A465   369 0001:A46C
   371 0001:A474   372 0001:A47E   374 0001:A494   375 0001:A49B
   360 0001:A4A2   362 0001:A4AE   363 0001:A4CA   376 0001:A4CD
   378 0001:A4CE   379 0001:A4E4   380 0001:A4EB   381 0001:A4ED
   384 0001:A4F2   390 0001:A4FD   391 0001:A50F   392 0001:A51E
   393 0001:A520   394 0001:A528   396 0001:A52D   397 0001:A53F
   399 0001:A551   400 0001:A557   401 0001:A55F   403 0001:A564
   404 0001:A573   407 0001:A580   409 0001:A586   410 0001:A58D
   412 0001:A592   413 0001:A59A   415 0001:A5AB   424 0001:A5B2
   428 0001:A5B6   431 0001:A5C1   434 0001:A5C5   438 0001:A5C9
   440 0001:A5D5   444 0001:A5E4   454 0001:A5F0   451 0001:A5FC
   456 0001:A5FF   465 0001:A604   477 0001:A608   478 0001:A610
   481 0001:A615   483 0001:A61F   484 0001:A624   487 0001:A63E
   488 0001:A648   492 0001:A64F   495 0001:A656   498 0001:A674
   499 0001:A67B   503 0001:A68D   505 0001:A6A2   506 0001:A6A6
   507 0001:A6A8   509 0001:A6AC   511 0001:A6BE   513 0001:A6C9
   514 0001:A6D5   515 0001:A6D8   516 0001:A6DE   517 0001:A6E6
   647 0001:A6EA   654 0001:A6EE   655 0001:A6F3   656 0001:A6F9
   658 0001:A6FC   659 0001:A704   660 0001:A708   661 0001:A70C
   662 0001:A710   663 0001:A712   664 0001:A716   665 0001:A722
   667 0001:A72C   668 0001:A735   673 0001:A73A   679 0001:A73E
   681 0001:A743   682 0001:A748   684 0001:A74A   685 0001:A757
   686 0001:A75B   687 0001:A75F   688 0001:A763   689 0001:A766
   690 0001:A76A   691 0001:A77C   692 0001:A788   694 0001:A78D
   696 0001:A797   697 0001:A79D

Line numbers for gacheck.obj(gacheck.ASM) segment _TEXT

    77 0001:A7A2    78 0001:A7A3    79 0001:A7A4    80 0001:A7A5
    81 0001:A7A6    82 0001:A7A7    83 0001:A7A8    84 0001:A7A9
    86 0001:A7AA    87 0001:A7AC    88 0001:A7AE    89 0001:A7B0
    90 0001:A7B5    91 0001:A7B9    92 0001:A7BB    94 0001:A7BE
    95 0001:A7C3    96 0001:A7C5    98 0001:A7C9    99 0001:A7CB
   101 0001:A7CD   103 0001:A7D0   104 0001:A7D3   105 0001:A7D6
   107 0001:A7D8   108 0001:A7D9   109 0001:A7DD   110 0001:A7E0
   111 0001:A7E3   112 0001:A7E7   116 0001:A7E9   117 0001:A7F9
   118 0001:A7FD   119 0001:A7FF   120 0001:A803   121 0001:A805
   122 0001:A806   123 0001:A807   124 0001:A808   125 0001:A809
   126 0001:A80F   127 0001:A813   128 0001:A829   129 0001:A82C
   130 0001:A82F   131 0001:A831   132 0001:A833   134 0001:A836
   135 0001:A838   136 0001:A83A   137 0001:A83D   138 0001:A841
   139 0001:A843   141 0001:A845   143 0001:A84E   144 0001:A84F
   145 0001:A850   146 0001:A851   149 0001:A852   150 0001:A857
   151 0001:A859   152 0001:A85A   155 0001:A85C   156 0001:A85E
   157 0001:A860   158 0001:A867   159 0001:A869   160 0001:A86A
   161 0001:A86C   162 0001:A86D   163 0001:A86F   164 0001:A871
   167 0001:A873   168 0001:A875   169 0001:A879   170 0001:A87B
   171 0001:A87F   173 0001:A881   174 0001:A884   176 0001:A886
   177 0001:A888   178 0001:A88B   180 0001:A88D   181 0001:A896
   182 0001:A898   183 0001:A89B   185 0001:A89E   189 0001:A8A1
   191 0001:A8A3   193 0001:A8A5   194 0001:A8A6   195 0001:A8A7
   196 0001:A8A8   197 0001:A8A9   198 0001:A8AA   199 0001:A8AB
   200 0001:A8AD   201 0001:A8AF   202 0001:A8B0   203 0001:A8B1
   205 0001:A8B2   206 0001:A8B3   207 0001:A8B6   208 0001:A8B7

Line numbers for lacheck.obj(lacheck.ASM) segment _TEXT

    53 0001:A8B8    55 0001:A8BE    56 0001:A8C0    57 0001:A8C2
    58 0001:A8C6    59 0001:A8C8    60 0001:A8CA    63 0001:A8CD
    64 0001:A8CF    65 0001:A8D1    68 0001:A8D4    69 0001:A8D7
    70 0001:A8DA    71 0001:A8DE    72 0001:A8E0    76 0001:A8E3
    77 0001:A8E6    78 0001:A8E8    79 0001:A8EA    80 0001:A8EC
    83 0001:A8EE    84 0001:A8F1    85 0001:A8F3    86 0001:A8F6
    89 0001:A8F8    92 0001:A8FB    93 0001:A8FE    94 0001:A901
    95 0001:A905    96 0001:A907   100 0001:A90A   101 0001:A90C
   102 0001:A90F   103 0001:A911   104 0001:A913   105 0001:A915
   108 0001:A917   109 0001:A91A   110 0001:A91C   111 0001:A91F
   114 0001:A921   117 0001:A924   118 0001:A927   119 0001:A92A
   121 0001:A92F   122 0001:A933   123 0001:A935   124 0001:A939
   125 0001:A93B   126 0001:A93E   127 0001:A942   128 0001:A944
   129 0001:A947   131 0001:A949   132 0001:A94B   133 0001:A94E
   134 0001:A950   135 0001:A952   136 0001:A955   138 0001:A957
   140 0001:A95A   141 0001:A95D   143 0001:A95F   144 0001:A962
   145 0001:A967   146 0001:A96C   147 0001:A971   150 0001:A976
   151 0001:A978   152 0001:A97A   153 0001:A97D   154 0001:A97F
   157 0001:A982   158 0001:A984   159 0001:A985   160 0001:A989
   161 0001:A98B   162 0001:A98E   164 0001:A990   165 0001:A994
   166 0001:A996   167 0001:A999   169 0001:A99B   171 0001:A99E
   172 0001:A9A1   174 0001:A9A3   175 0001:A9A5   179 0001:A9A7
   180 0001:A9AA   181 0001:A9AD   182 0001:A9AF   184 0001:A9B2
   185 0001:A9B5   186 0001:A9B8   187 0001:A9BB   188 0001:A9BD
   191 0001:A9C0   192 0001:A9C2   194 0001:A9C5   195 0001:A9C7
   196 0001:A9C9   197 0001:A9CA   198 0001:A9CC   200 0001:A9CE
   201 0001:A9D1   202 0001:A9D3   207 0001:A9D6   208 0001:A9D9
   209 0001:A9DC   210 0001:A9DF   213 0001:A9E2   214 0001:A9E5
   215 0001:A9E7   216 0001:A9EA   217 0001:A9EC   218 0001:A9EF
   220 0001:A9F1   221 0001:A9F4   223 0001:A9F6   224 0001:A9F8
   225 0001:A9FB   226 0001:A9FE   227 0001:AA00   228 0001:AA02
   229 0001:AA04   230 0001:AA06   232 0001:AA08   233 0001:AA0B
   234 0001:AA0D   235 0001:AA0F   236 0001:AA11   237 0001:AA14
   240 0001:AA16   241 0001:AA21   247 0001:AA25   248 0001:AA27
   250 0001:AA2B   251 0001:AA2E   252 0001:AA31

Line numbers for lddebug.obj(lddebug.ASM) segment _INITTEXT

   119 0001:EBE1   121 0001:EBE4   124 0001:EBF0   126 0001:EBF5
   127 0001:EBF8   128 0001:EBFA   129 0001:EBFE   132 0001:EC03
   157 0001:EC07   158 0001:EC08   161 0001:EC0D   164 0001:EC12
   165 0001:EC17   169 0001:EC19   170 0001:EC1A   171 0001:EC1B
   172 0001:EC1C   173 0001:EC1D   174 0001:EC21   175 0001:EC24
   176 0001:EC26   177 0001:EC2B   178 0001:EC2C   179 0001:EC2D
   180 0001:EC2E   183 0001:EC2F   184 0001:EC30   210 0001:EC31
   212 0001:EC3D   213 0001:EC40   214 0001:EC42   215 0001:EC44
   216 0001:EC49   217 0001:EC4B   218 0001:EC4E   220 0001:EC53

Line numbers for lddebug.obj(lddebug.ASM) segment _TEXT

   258 0001:AA34   259 0001:AA3A   260 0001:AA3D   261 0001:AA40
   262 0001:AA42   264 0001:AA44   265 0001:AA46   266 0001:AA48
   267 0001:AA4E   268 0001:AA50   269 0001:AA54   270 0001:AA55
   271 0001:AA58   272 0001:AA5A   273 0001:AA5D   274 0001:AA5E
   275 0001:AA60   276 0001:AA61   277 0001:AA64   278 0001:AA66
   280 0001:AA6A   333 0001:AA89   335 0001:AA8A   336 0001:AA8B
   337 0001:AA8D   338 0001:AA94   339 0001:AA96   340 0001:AA97
   341 0001:AA99   342 0001:AA9E   343 0001:AA9F   344 0001:AAA0
   347 0001:AAA3   348 0001:AAA4   349 0001:AAA5   350 0001:AAA7
   351 0001:AAAC   352 0001:AAAF   353 0001:AAB0   358 0001:AABB
   359 0001:AABC   360 0001:AABD   361 0001:AABE   362 0001:AAC1
   363 0001:AAC2   364 0001:AAC4   365 0001:AAC6   366 0001:AAC8
   367 0001:AACB   370 0001:AACE   371 0001:AAD1   372 0001:AAD3
   373 0001:AAD5   374 0001:AAD7   375 0001:AAD8   376 0001:AAD9
   377 0001:AADB   378 0001:AADD   379 0001:AADF   380 0001:AAE1
   381 0001:AAE3   382 0001:AAE5   383 0001:AAE6   390 0001:AAE8
   391 0001:AAE9   392 0001:AAEB   397 0001:AAEE   398 0001:AAF3
   399 0001:AAF4   401 0001:AAF5   402 0001:AAF6   406 0001:AAF7
   407 0001:AAF8   410 0001:AB17   411 0001:AB18   412 0001:AB1A
   413 0001:AB1C   414 0001:AB1F   415 0001:AB21   416 0001:AB23
   417 0001:AB25   418 0001:AB27   419 0001:AB29   420 0001:AB2B
   421 0001:AB2D   423 0001:AB2F   424 0001:AB31   427 0001:AB34
   428 0001:AB37   430 0001:AB39   431 0001:AB3B   433 0001:AB3D
   436 0001:AB40   437 0001:AB42   440 0001:AB45   441 0001:AB48
   443 0001:AB4A   444 0001:AB4B   447 0001:AB4D   448 0001:AB4F
   449 0001:AB52   450 0001:AB54   451 0001:AB55   452 0001:AB58
   454 0001:AB5A   456 0001:AB5C   459 0001:AB5F   460 0001:AB62
   461 0001:AB64   462 0001:AB66   463 0001:AB69   464 0001:AB6B
   465 0001:AB6C   466 0001:AB6D   467 0001:AB70   468 0001:AB71
   469 0001:AB72   470 0001:AB74   472 0001:AB76   474 0001:AB78
   477 0001:AB7B   478 0001:AB7D   479 0001:AB80   486 0001:AB81
   487 0001:AB82   488 0001:AB83   511 0001:AB84   512 0001:AB85
   513 0001:AB87   514 0001:AB8B   515 0001:AB8E   516 0001:AB91
   517 0001:AB93   518 0001:AB96   519 0001:AB98   520 0001:AB9A
   521 0001:AB9C   523 0001:AB9E   524 0001:ABA0   527 0001:ABA3
   528 0001:ABA8   529 0001:ABAA   530 0001:ABAD   531 0001:ABAF
   532 0001:ABB2   535 0001:ABB3   536 0001:ABB6   537 0001:ABB8
   538 0001:ABB9   552 0001:ABBA   553 0001:ABBC   554 0001:ABC0
   557 0001:ABC2   558 0001:ABC6   559 0001:ABC8   560 0001:ABCB
   561 0001:ABCD   562 0001:ABD0   563 0001:ABD2   564 0001:ABD5
   566 0001:ABD7   567 0001:ABD9   568 0001:ABDC   569 0001:ABDE
   572 0001:ABE0   573 0001:ABE2   574 0001:ABE5   576 0001:ABE7
   577 0001:ABE8   578 0001:ABEB   579 0001:ABEE   581 0001:ABEF
   582 0001:ABF0   583 0001:ABF2   584 0001:ABF4   585 0001:ABF6
   586 0001:ABF8   587 0001:ABFA   588 0001:ABFD   589 0001:ABFE
   609 0001:ABFF   610 0001:AC00   611 0001:AC03   612 0001:AC06
   613 0001:AC08   614 0001:AC0A   615 0001:AC0D   616 0001:AC10
   619 0001:AC12   620 0001:AC16   621 0001:AC19   622 0001:AC21
   624 0001:AC26   625 0001:AC27   648 0001:AC28   649 0001:AC29
   650 0001:AC2A   651 0001:AC2B   652 0001:AC2D   653 0001:AC2F
   654 0001:AC32   655 0001:AC34   656 0001:AC35   657 0001:AC36
   658 0001:AC37   679 0001:AC38   680 0001:AC39   681 0001:AC3A
   683 0001:AC3B   684 0001:AC3D   685 0001:AC3F   686 0001:AC41
   687 0001:AC44   689 0001:AC46   690 0001:AC47   691 0001:AC49
   692 0001:AC4B   693 0001:AC4E   695 0001:AC50   696 0001:AC51
   697 0001:AC52   699 0001:AC53   702 0001:AC54   703 0001:AC55
   704 0001:AC56   705 0001:AC58   706 0001:AC5A   707 0001:AC5B
   708 0001:AC5E   709 0001:AC60   710 0001:AC61   744 0001:AC63
   745 0001:AC64   746 0001:AC65   747 0001:AC66   748 0001:AC6B
   749 0001:AC70   750 0001:AC72   751 0001:AC77   757 0001:AC79
   764 0001:AC7C   765 0001:AC7F   766 0001:AC81   767 0001:AC85
   770 0001:AC87   771 0001:AC8C   772 0001:AC91   777 0001:AC93
   778 0001:AC98   779 0001:AC9A   780 0001:AC9D   781 0001:ACA1
   785 0001:ACA3   787 0001:ACA4   788 0001:ACA5   790 0001:ACA6
   791 0001:ACA8   796 0001:ACA9   797 0001:ACAC   799 0001:ACB0
   801 0001:ACB1   802 0001:ACB2   803 0001:ACB3   853 0001:ACB4
   854 0001:ACB9   855 0001:ACBE   856 0001:ACC4   857 0001:ACC6
   858 0001:ACC7   859 0001:ACC8   860 0001:ACC9   861 0001:ACCA
   862 0001:ACCB   864 0001:ACCE   865 0001:ACD1   866 0001:ACD4
   867 0001:ACD7   868 0001:ACDA   869 0001:ACDD   870 0001:ACE0
   871 0001:ACE1   872 0001:ACE2   873 0001:ACE3   874 0001:ACE4
   879 0001:ACE5   880 0001:ACEA   881 0001:ACF1   882 0001:ACF3
   886 0001:ACF6   887 0001:ACF7   888 0001:ACF8   889 0001:ACF9
   890 0001:ACFA   891 0001:ACFB   893 0001:ACFC   894 0001:ACFF
   895 0001:AD03   896 0001:AD07   897 0001:AD09   899 0001:AD0C
   900 0001:AD0E   901 0001:AD10   902 0001:AD14   903 0001:AD16
   904 0001:AD19   905 0001:AD1D   906 0001:AD1F   908 0001:AD22
   910 0001:AD24   912 0001:AD26   914 0001:AD27   915 0001:AD2B
   916 0001:AD2D   917 0001:AD30   918 0001:AD33   919 0001:AD37
   920 0001:AD3B   921 0001:AD3D   923 0001:AD40   925 0001:AD42
   927 0001:AD43   929 0001:AD48   930 0001:AD4B   931 0001:AD4F
   932 0001:AD50   933 0001:AD51   934 0001:AD55   935 0001:AD56
   936 0001:AD57   937 0001:AD5A   938 0001:AD5D   942 0001:AD5F
   944 0001:AD81   947 0001:AD84   948 0001:AD85   949 0001:AD86
   950 0001:AD87   951 0001:AD88   952 0001:AD89   959 0001:AD8A
   990 0001:AD8F   991 0001:AD92  1025 0001:AD96  1026 0001:AD9A
  1027 0001:AD9B  1029 0001:ADA0  1030 0001:ADA6  1032 0001:ADA8
  1033 0001:ADAB  1034 0001:ADAE  1035 0001:ADB1  1039 0001:ADB2
  1041 0001:ADD2  1045 0001:ADD5  1046 0001:ADDA  1048 0001:ADDB
  1049 0001:ADDD  1050 0001:ADE0  1051 0001:ADE3  1052 0001:ADE6
  1053 0001:ADE8  1055 0001:ADEB  1057 0001:ADEE  1094 0001:ADF3
  1097 0001:ADF9  1098 0001:ADFC  1099 0001:ADFF  1100 0001:AE01
  1108 0001:AE04  1109 0001:AE07  1110 0001:AE08  1111 0001:AE0B
  1118 0001:AE0D  1119 0001:AE0F  1120 0001:AE12  1121 0001:AE15
  1122 0001:AE18  1123 0001:AE1A  1126 0001:AE1C  1127 0001:AE1E
  1129 0001:AE1F  1130 0001:AE20  1131 0001:AE22  1132 0001:AE24
  1133 0001:AE26  1134 0001:AE28  1138 0001:AE29  1139 0001:AE2E
  1140 0001:AE30  1141 0001:AE31  1145 0001:AE32  1146 0001:AE33
  1147 0001:AE38  1148 0001:AE3D  1150 0001:AE3E  1153 0001:AE40
  1154 0001:AE41  1155 0001:AE46  1156 0001:AE47  1160 0001:AE4C
  1161 0001:AE4D  1162 0001:AE52  1163 0001:AE57  1165 0001:AE58
  1167 0001:AE5A  1168 0001:AE5B  1170 0001:AE60  1171 0001:AE64
  1172 0001:AE69  1173 0001:AE6B  1174 0001:AE6C  1175 0001:AE70
  1176 0001:AE75  1177 0001:AE79  1179 0001:AE7A  1180 0001:AE7D
  1182 0001:AE81  1184 0001:AE85  1186 0001:AE87  1188 0001:AE88
  1192 0001:AE8A  1193 0001:AE8F  1194 0001:AE95  1199 0001:AE97
  1200 0001:AE98  1201 0001:AE9C  1202 0001:AEA1  1203 0001:AEA2
  1208 0001:AEA4  1209 0001:AEAA  1213 0001:AEAC  1214 0001:AEB1
  1215 0001:AEB2  1216 0001:AEB3  1217 0001:AEB4  1218 0001:AEB5
  1219 0001:AEB6  1220 0001:AEB9  1221 0001:AEBE  1222 0001:AEBF
  1223 0001:AEC0  1224 0001:AEC1  1225 0001:AEC2  1229 0001:AEC3
  1230 0001:AEC7  1232 0001:AEC9  1233 0001:AECE  1235 0001:AED0
  1236 0001:AED4  1237 0001:AED9  1240 0001:AEDC  1247 0001:AEE7
  1248 0001:AEEA  1251 0001:AEEE  1255 0001:AEF3  1289 0001:AEF9
  1290 0001:AEFE  1291 0001:AEFF  1292 0001:AF0A  1293 0001:AF0B
  1324 0001:AF11  1325 0001:AF12  1328 0001:AF17  1338 0001:AF1A
  1339 0001:AF1F  1340 0001:AF21  1341 0001:AF23  1342 0001:AF26
  1345 0001:AF28  1348 0001:AF2B  1349 0001:AF2D  1351 0001:AF2F
  1352 0001:AF32  1353 0001:AF34  1355 0001:AF36  1356 0001:AF38
  1357 0001:AF39  1358 0001:AF3B  1359 0001:AF3C  1360 0001:AF3D
  1363 0001:AF3E  1365 0001:AF3F  1366 0001:AF42  1367 0001:AF44
  1368 0001:AF46  1369 0001:AF48  1370 0001:AF4A  1373 0001:AF4B
  1374 0001:AF4C  1503 0001:AF4D  1504 0001:AF4E  1505 0001:AF53
  1506 0001:AF58  1508 0001:AF59  1510 0001:AF5B  1511 0001:AF5C
  1512 0001:AF5F  1513 0001:AF62  1515 0001:AF63  1544 0001:AF64
  1545 0001:AF65  1546 0001:AF6A  1547 0001:AF6F  1549 0001:AF70
  1551 0001:AF72  1552 0001:AF73  1553 0001:AF76  1554 0001:AF79
  1556 0001:AF7A  1587 0001:AF7B  1588 0001:AF7C  1589 0001:AF81
  1590 0001:AF87  1592 0001:AF89  1593 0001:AF8A  1594 0001:AF8B
  1595 0001:AF8D  1596 0001:AF8E  1597 0001:AF92  1599 0001:AF94
  1601 0001:AF95  1602 0001:AF96  1603 0001:AF9B  1604 0001:AF9C
  1606 0001:AFA1  1607 0001:AFA4  1608 0001:AFA5  1609 0001:AFC5
  1611 0001:AFC8  1612 0001:AFC9  1615 0001:AFCA  1619 0001:AFCB
  1620 0001:AFCC  1621 0001:AFCE  1622 0001:AFD1  1623 0001:AFD4
  1626 0001:AFD5  1658 0001:AFD6  1660 0001:AFD7  1661 0001:AFD8
  1663 0001:AFD9  1665 0001:AFDE  1666 0001:AFE4  1667 0001:AFE6
  1669 0001:AFE9  1670 0001:AFEA  1671 0001:AFEB  1672 0001:AFEC
  1673 0001:AFEE  1674 0001:AFF0  1675 0001:AFF2  1676 0001:AFF7
  1677 0001:AFF9  1678 0001:AFFA  1679 0001:AFFD  1680 0001:AFFF
  1682 0001:B001  1683 0001:B003  1684 0001:B005  1685 0001:B009
  1686 0001:B00B  1687 0001:B00F  1688 0001:B011  1690 0001:B013
  1691 0001:B017  1692 0001:B018  1693 0001:B019  1694 0001:B01A
  1695 0001:B01D  1696 0001:B01E  1698 0001:B023  1699 0001:B028
  1700 0001:B02C  1701 0001:B02D  1702 0001:B02E  1703 0001:B032
  1704 0001:B033  1705 0001:B034  1709 0001:B036  1711 0001:B056
  1712 0001:B059  1713 0001:B05A  1714 0001:B05B  1716 0001:B05C
  1717 0001:B05D  1720 0001:B05E  1721 0001:B061  1722 0001:B064
  1723 0001:B067  1739 0001:B068  1741 0001:B069  1742 0001:B06A
  1744 0001:B06B  1746 0001:B06C  1747 0001:B06D  1748 0001:B070
  1772 0001:B072  1773 0001:B074  1774 0001:B077  1775 0001:B078
  1776 0001:B079  1777 0001:B07C  1778 0001:B07F  1795 0001:B082
  1796 0001:B085  1802 0001:B086  1803 0001:B087  1805 0001:B08C
  1806 0001:B091  1808 0001:B093  1809 0001:B096  1810 0001:B098
  1811 0001:B09B  1813 0001:B09D  1816 0001:B09E  1818 0001:B0A0
  1819 0001:B0A1  1825 0001:B0A6  1826 0001:B0AB  1828 0001:B0AD
  1830 0001:B0AE  1831 0001:B0B2  1832 0001:B0B7  1833 0001:B0B9
  1834 0001:B0BA  1835 0001:B0BE  1836 0001:B0C3  1837 0001:B0C7
  1843 0001:B0C8  1845 0001:B0CC  1847 0001:B0D0  1849 0001:B0D2
  1850 0001:B0D4  1851 0001:B0D7  1852 0001:B0D9  1859 0001:B0DA
  1860 0001:B0DD  1862 0001:B0DF  1863 0001:B0E4  1875 0001:B0E6
  1876 0001:B0E9  1877 0001:B0EA  1881 0001:B0EC  1883 0001:B0EF
  1884 0001:B0F2  1886 0001:B0F5  1887 0001:B0F8  1888 0001:B0FB
  1890 0001:B0FE  1891 0001:B101  1892 0001:B104  1893 0001:B107
  1897 0001:B10A  1898 0001:B10B  1899 0001:B10C  1901 0001:B10D
  1904 0001:B10E  1907 0001:B10F  1947 0001:B110  1951 0001:B112
  1952 0001:B114  1954 0001:B116  1955 0001:B118  1956 0001:B11A
  1957 0001:B11B  1958 0001:B11D  1959 0001:B11E  1961 0001:B122
  1962 0001:B124  1963 0001:B126  1964 0001:B128  1965 0001:B129
  1966 0001:B12B  1967 0001:B12C  1968 0001:B130  2184 0001:B131
  2185 0001:B132  2186 0001:B134  2187 0001:B138  2188 0001:B13B
  2189 0001:B13D  2190 0001:B13F  2191 0001:B140  2192 0001:B141
  2193 0001:B143  2194 0001:B144  2195 0001:B145  2196 0001:B148
  2197 0001:B149  2198 0001:B14B  2200 0001:B14C  2201 0001:B14F
  2202 0001:B150  2203 0001:B152  2204 0001:B154  2205 0001:B156
  2206 0001:B158  2208 0001:B15A  2209 0001:B15B  2224 0001:B15C

Line numbers for enable.obj(enable.ASM) segment _TEXT

   133 0001:B160   134 0001:B161   135 0001:B162   137 0001:B167
   138 0001:B169   139 0001:B16D   140 0001:B16F   141 0001:B171
   149 0001:B174   150 0001:B179   151 0001:B17B   152 0001:B17C
   153 0001:B180   154 0001:B184   155 0001:B188   156 0001:B18A
   157 0001:B18D   165 0001:B18E   166 0001:B191   167 0001:B193
   169 0001:B196   170 0001:B19A   171 0001:B19C   180 0001:B19F
   181 0001:B1A3   182 0001:B1A8   183 0001:B1AA   185 0001:B1AC
   186 0001:B1AD   187 0001:B1B1   188 0001:B1B4   190 0001:B1B6
   192 0001:B1B8   193 0001:B1C4   194 0001:B1D0   195 0001:B1DC
   196 0001:B1E8   197 0001:B1F4   198 0001:B200   199 0001:B20C
   200 0001:B218   203 0001:B219   204 0001:B21C   205 0001:B21E
   209 0001:B224   210 0001:B227   212 0001:B22A   213 0001:B22B
   214 0001:B22C   215 0001:B22D   216 0001:B230   217 0001:B236
   218 0001:B237   219 0001:B238   220 0001:B23B   221 0001:B23E
   224 0001:B240   226 0001:B242   227 0001:B243   228 0001:B245
   231 0001:B247   233 0001:B24B   234 0001:B24E   236 0001:B250
   237 0001:B251   238 0001:B252   286 0001:B253   287 0001:B254
   288 0001:B259   289 0001:B25B   290 0001:B260   291 0001:B262
   292 0001:B264   294 0001:B267   295 0001:B26A   296 0001:B26D
   297 0001:B26E   298 0001:B275   300 0001:B276   301 0001:B279
   302 0001:B27B   304 0001:B27C   306 0001:B29B   308 0001:B2A0
   309 0001:B2A3   310 0001:B2A8   312 0001:B2A9   314 0001:B2C8
   316 0001:B2CD   317 0001:B2CE   318 0001:B2D1   319 0001:B2D3
   320 0001:B2D5   321 0001:B2D6   322 0001:B2DA   324 0001:B2DF
   325 0001:B2E9   326 0001:B2F3   327 0001:B2FD   328 0001:B307
   329 0001:B311   330 0001:B31B   331 0001:B325   332 0001:B32F
   334 0001:B339   335 0001:B33E   336 0001:B341   339 0001:B343
   350 0001:B345   352 0001:B350   363 0001:B351   365 0001:B35C
   376 0001:B35D   378 0001:B368   421 0001:B369   423 0001:B36C
   424 0001:B371   425 0001:B376   426 0001:B37C   427 0001:B37E
   430 0001:B383   431 0001:B388   432 0001:B38B   433 0001:B38D
   434 0001:B392   435 0001:B397   437 0001:B399   438 0001:B39C
   439 0001:B39E   440 0001:B3A3   441 0001:B3A8   443 0001:B3AA
   444 0001:B3AD   445 0001:B3AF   446 0001:B3B4   447 0001:B3B9
   449 0001:B3BB   450 0001:B3BE   451 0001:B3C0   452 0001:B3C5
   453 0001:B3CA   455 0001:B3CC   456 0001:B3CF   457 0001:B3D1
   458 0001:B3D6   459 0001:B3DB   462 0001:B3DD   463 0001:B3E0
   464 0001:B3E2   465 0001:B3E7   466 0001:B3EC   468 0001:B3EE
   469 0001:B3F1   470 0001:B3F3   471 0001:B3F8   472 0001:B3FD
   474 0001:B3FF   475 0001:B402   476 0001:B404   477 0001:B409
   478 0001:B40E   481 0001:B410   482 0001:B414   485 0001:B419
   486 0001:B41B   487 0001:B420   489 0001:B422   490 0001:B423
   491 0001:B426   494 0001:B427   495 0001:B42B   496 0001:B42D
   498 0001:B42F   499 0001:B434   500 0001:B436   501 0001:B438
   506 0001:B43E   507 0001:B443   508 0001:B447   509 0001:B449
   510 0001:B44A   511 0001:B44D   512 0001:B44F   513 0001:B451
   514 0001:B453   520 0001:B455   522 0001:B45A   523 0001:B45C
   524 0001:B45E   525 0001:B460   526 0001:B463   527 0001:B467
   528 0001:B46C   529 0001:B471   533 0001:B476

Line numbers for miscapi.obj(miscapi.ASM) segment _TEXT

    72 0001:B47A    73 0001:B480    95 0001:B487    96 0001:B488
    97 0001:B48A   119 0001:B48C   120 0001:B492   121 0001:B497
   122 0001:B49B   124 0001:B49D   129 0001:B4A1   130 0001:B4A4
   131 0001:B4A9   134 0001:B4AB   135 0001:B4AC   136 0001:B4BA
   138 0001:B4BB   139 0001:B4C0   140 0001:B4C3   141 0001:B4C5
   144 0001:B4C7   145 0001:B4CA   146 0001:B4D2   147 0001:B4D4
   148 0001:B4D6   149 0001:B4D9   153 0001:B4DB   154 0001:B4E0
   155 0001:B4E2   156 0001:B4E6   157 0001:B4E8   158 0001:B4EC
   159 0001:B4F0   160 0001:B4F4   161 0001:B4F7   162 0001:B4FB
   168 0001:B4FC   169 0001:B4FE   170 0001:B500   174 0001:B504
   175 0001:B505   176 0001:B507   177 0001:B509   178 0001:B50C
   179 0001:B50E   180 0001:B510   181 0001:B512   182 0001:B513
   183 0001:B515   186 0001:B519   187 0001:B51B   188 0001:B51D
   191 0001:B523   193 0001:B526   222 0001:B52D   223 0001:B531
   225 0001:B536   228 0001:B53A   229 0001:B53D   230 0001:B541
   231 0001:B544   232 0001:B548   262 0001:B54D   263 0001:B551
   264 0001:B556   265 0001:B559   266 0001:B55D   267 0001:B560
   268 0001:B564   338 0001:B569   339 0001:B56D   340 0001:B572
   341 0001:B575   342 0001:B577   343 0001:B579   344 0001:B57C
   345 0001:B57D   346 0001:B57F   348 0001:B581   350 0001:B583
   351 0001:B586   354 0001:B58A   362 0001:B58F   363 0001:B590
   365 0001:B595   366 0001:B598   367 0001:B599   368 0001:B59B
   370 0001:B59D   372 0001:B59F   373 0001:B5A2   376 0001:B5A6
   378 0001:B5A7   389 0001:B5A8   390 0001:B5A9   392 0001:B5AE
   393 0001:B5B1   394 0001:B5B2   395 0001:B5B4   397 0001:B5B6
   399 0001:B5B8   400 0001:B5BB   403 0001:B5BF   405 0001:B5C0
   417 0001:B5C1   418 0001:B5C2   420 0001:B5C7   421 0001:B5CA
   422 0001:B5CB   423 0001:B5CD   425 0001:B5CF   427 0001:B5D1
   428 0001:B5D4   431 0001:B5D8   433 0001:B5D9   453 0001:B5DA
   454 0001:B5DF   456 0001:B5E4   457 0001:B5E7   458 0001:B5E9
   460 0001:B5EB   462 0001:B5ED   463 0001:B5F0   464 0001:B5F2
   465 0001:B5F4   466 0001:B5F7   467 0001:B5F9   468 0001:B5FC
   469 0001:B5FF   471 0001:B601   472 0001:B607   475 0001:B60D

Line numbers for miscapi.obj(miscapi.ASM) segment _NRESTEXT

   490 0002:2D40   491 0002:2D48   492 0002:2D4A   493 0002:2D4B
   494 0002:2D52   496 0002:2D54   497 0002:2D55   498 0002:2D56
   499 0002:2D5A   500 0002:2D5B   501 0002:2D5C   502 0002:2D5F
   503 0002:2D62   504 0002:2D63   505 0002:2D65   507 0002:2D66
   508 0002:2D67   510 0002:2D6A   511 0002:2D6B   512 0002:2D6E
   514 0002:2D6F   515 0002:2D70   517 0002:2D73   518 0002:2D74
   519 0002:2D77   521 0002:2D78   523 0002:2D7A   524 0002:2D7F
   525 0002:2D80   526 0002:2D82   527 0002:2D84   528 0002:2D86
   529 0002:2D88   530 0002:2D89   531 0002:2D8A   533 0002:2D8D
   534 0002:2D8E   535 0002:2D91   536 0002:2D94   538 0002:2D96
   539 0002:2D97   540 0002:2D99   541 0002:2D9B   542 0002:2D9D
   543 0002:2D9F   546 0002:2DA1   547 0002:2DA3   548 0002:2DA5
   549 0002:2DA7   550 0002:2DA9   551 0002:2DAB   552 0002:2DAD
   553 0002:2DAF   555 0002:2DB1   556 0002:2DB3   557 0002:2DB5
   560 0002:2DB7   563 0002:2DB9   568 0002:2DBF

Line numbers for error.obj(error.c) segment _TEXT

    94 0001:B614    99 0001:B618   101 0001:B624   102 0001:B628
   104 0001:B62C   105 0001:B63E   107 0001:B652   110 0001:B659
   113 0001:B664   114 0001:B667   126 0001:B7EC   127 0001:B7F0
   128 0001:B7FA   129 0001:B800   134 0001:B805   141 0001:B828
   142 0001:B832   143 0001:B83F   144 0001:B844   145 0001:B84D
   169 0001:B853   170 0001:B85A   173 0001:B85F   175 0001:B898
   177 0001:B89F   149 0001:B8CA   150 0001:B8D4   155 0001:B8DC
   156 0001:B8E6   161 0001:B8EE   162 0001:B8F8   178 0001:B906
   179 0001:B91D   180 0001:B929   181 0001:B949   182 0001:B954
   185 0001:B95D   189 0001:B964   190 0001:B96B   192 0001:B972
   193 0001:B97F   194 0001:B980   195 0001:B982   198 0001:B98A
   201 0001:B98F   202 0001:B994   204 0001:B99A   209 0001:B9A4
   210 0001:B9AB   215 0001:B9B0   216 0001:B9BD   218 0001:B9C4
   229 0001:B9D5   231 0001:B9E8   233 0001:BA0C   234 0001:BA12
   237 0001:BA25   238 0001:BA2A   239 0001:BA30   240 0001:BA3A
   248 0001:BA42   242 0001:BA4D   244 0001:BA60   245 0001:BA72
   249 0001:BA85   250 0001:BA8B   251 0001:BA9A   253 0001:BAA0
   254 0001:BAAF   256 0001:BABB   257 0001:BAC1   258 0001:BAD2
   259 0001:BAE9   260 0001:BAF5   261 0001:BB01   263 0001:BB17
   265 0001:BB23   266 0001:BB2A   267 0001:BB4E   268 0001:BB5E
   270 0001:BB66   272 0001:BB87   275 0001:BB92   279 0001:BB9B
   280 0001:BBA2   282 0001:BBAA   296 0001:BBB8   299 0001:BBC3
   301 0001:BBCC   302 0001:BBD2   304 0001:BBE2   305 0001:BBE8
   307 0001:BBF8   309 0001:BBFE   310 0001:BC10   311 0001:BC22
   312 0001:BC2A   314 0001:BC44   315 0001:BC47   318 0001:BC4E
   321 0001:BC59   322 0001:BC62   324 0001:BC69   325 0001:BC6F
   327 0001:BC76   329 0001:BC7C   330 0001:BC82   331 0001:BC91
   333 0001:BC99   334 0001:BC9F   343 0001:BCBA   344 0001:BCD1
   347 0001:BCD8   348 0001:BCDB   351 0001:BCE2   358 0001:BCEC
   363 0001:BCF6   366 0001:BCFD   367 0001:BD05   369 0001:BD11
   385 0001:BD18   371 0001:BD25   372 0001:BD2E   374 0001:BD37
   375 0001:BD43   377 0001:BD47   378 0001:BD53   380 0001:BD57
   383 0001:BD5F   389 0001:BD69   390 0001:BD6F   391 0001:BD77

Line numbers for diag.obj(diag.ASM) segment _TEXT

    50 0001:BD7C    51 0001:BD7F    53 0001:BD84    54 0001:BD87
    67 0001:BD8B    68 0001:BD92    71 0001:BD97    72 0001:BD9C
    75 0001:BD9E    76 0001:BDA0    77 0001:BDA2    78 0001:BDA5
    79 0001:BDAA    80 0001:BDAC    83 0001:BDAF    84 0001:BDB2
    85 0001:BDB5    86 0001:BDB7    87 0001:BDB9    88 0001:BDBE
    91 0001:BDC0    92 0001:BDC2    93 0001:BDC3    94 0001:BDC6
    95 0001:BDC8    96 0001:BDCA    97 0001:BDCC    98 0001:BDCD
   102 0001:BDCE   103 0001:BDCF   104 0001:BDD2   105 0001:BDD5
   106 0001:BDDA   110 0001:BDDB   111 0001:BDDC   112 0001:BDDE
   113 0001:BDE1   115 0001:BDE4   116 0001:BDE9   118 0001:BDEA
   121 0001:BDEC   125 0001:BDF2   126 0001:BDF5   127 0001:BDF7
   128 0001:BDF9   129 0001:BDFB   132 0001:BE00   142 0001:BE07
   143 0001:BE0E   144 0001:BE13   147 0001:BE15   148 0001:BE18
   149 0001:BE1C   151 0001:BE20   152 0001:BE22   154 0001:BE24
   155 0001:BE27   156 0001:BE2B   157 0001:BE2D   158 0001:BE2F
   159 0001:BE32   160 0001:BE34   162 0001:BE35   163 0001:BE36
   164 0001:BE37   165 0001:BE39   169 0001:BE3B   170 0001:BE3C
   171 0001:BE3F   172 0001:BE44   173 0001:BE45   174 0001:BE48
   175 0001:BE4D   176 0001:BE4E   177 0001:BE51   181 0001:BE56
   182 0001:BE58   183 0001:BE5A   184 0001:BE5C   185 0001:BE5F
   186 0001:BE64   187 0001:BE66   190 0001:BE69   191 0001:BE6C
   192 0001:BE6F   193 0001:BE71   194 0001:BE73   195 0001:BE78
   199 0001:BE7A   200 0001:BE7C   201 0001:BE7E   202 0001:BE81
   203 0001:BE86   206 0001:BE89   208 0001:BE8B   211 0001:BE91
   212 0001:BE94   213 0001:BE96   216 0001:BE9B   217 0001:BE9E
   220 0001:BEA5

Line numbers for wow16cal.obj(wow16cal.ASM) segment _TEXT

   211 0001:BF2A   300 0001:C02A   301 0001:C02B   302 0001:C02D
   303 0001:C02E   304 0001:C02F   305 0001:C030   306 0001:C031
   307 0001:C034   308 0001:C035   311 0001:C036   312 0001:C037
   313 0001:C039   314 0001:C03E   315 0001:C042   316 0001:C044
   317 0001:C048   322 0001:C04C   324 0001:C052   325 0001:C058
   330 0001:C05A   332 0001:C05F   341 0001:C064   343 0001:C069
   344 0001:C06B   345 0001:C06F   346 0001:C072   350 0001:C074
   351 0001:C075   352 0001:C079   357 0001:C07B   358 0001:C07C
   359 0001:C07D   360 0001:C080   375 0001:C082   376 0001:C083
   377 0001:C084   378 0001:C085   379 0001:C086   381 0001:C087
   382 0001:C088   383 0001:C089   385 0001:C08C   386 0001:C08E
   387 0001:C090   388 0001:C094   389 0001:C096   391 0001:C097
   392 0001:C09A   393 0001:C09C   396 0001:C09D   397 0001:C0A0
   398 0001:C0A4   406 0001:C0A6   407 0001:C0A7   408 0001:C0A8
   409 0001:C0AB   410 0001:C0AC   411 0001:C0AD   416 0001:C0AF
   417 0001:C0B1   419 0001:C0B3   420 0001:C0B5   421 0001:C0B7
   423 0001:C0B9   424 0001:C0BC   425 0001:C0BE   431 0001:C0C3
   432 0001:C0C5   433 0001:C0C6   436 0001:C0C8   441 0001:C0CB
   443 0001:C0CD   444 0001:C0CE   445 0001:C0CF   446 0001:C0D0
   447 0001:C0D1   449 0001:C0D2   450 0001:C0D3   451 0001:C0D4
   452 0001:C0D5   453 0001:C0DA   464 0001:C0DD   465 0001:C0E0
   466 0001:C0E3   467 0001:C0E5   478 0001:C0E8   479 0001:C0EB
   480 0001:C0ED   481 0001:C0EF   485 0001:C0F2   486 0001:C0F4
   487 0001:C0F7   488 0001:C0FA   489 0001:C0FC   494 0001:C0FF
   495 0001:C102   496 0001:C105   500 0001:C108   501 0001:C10B
   502 0001:C10E   506 0001:C111   507 0001:C114   508 0001:C117
   512 0001:C11A   513 0001:C11D   514 0001:C120   518 0001:C123
   519 0001:C126   520 0001:C129   524 0001:C12C   525 0001:C12F
   526 0001:C132   530 0001:C135   531 0001:C138   532 0001:C13B
   571 0001:C13E   572 0001:C141   574 0001:C143   575 0001:C148
   580 0001:C14A   581 0001:C14B   582 0001:C150   584 0001:C153
   585 0001:C154   586 0001:C156   587 0001:C157   589 0001:C15C
   590 0001:C15D   594 0001:C162   595 0001:C165   596 0001:C168
   597 0001:C16D   598 0001:C16F   601 0001:C172   602 0001:C175
   604 0001:C177   605 0001:C17A   606 0001:C17D   607 0001:C180
   608 0001:C185   609 0001:C187   636 0001:C18A   660 0001:C18D
   663 0001:C190   664 0001:C193   666 0001:C195   667 0001:C198
   668 0001:C19D   669 0001:C19F   672 0001:C1A2   673 0001:C1A5
   675 0001:C1A7   676 0001:C1AA   677 0001:C1AF   680 0001:C1B2
   681 0001:C1B5   682 0001:C1B8   683 0001:C1BB   684 0001:C1C0
   685 0001:C1C2   686 0001:C1C4   687 0001:C1C6   688 0001:C1C7
   689 0001:C1C8   690 0001:C1CD   692 0001:C1CE   693 0001:C1D1
   696 0001:C1D4   697 0001:C1D7   698 0001:C1DC   699 0001:C1DD
   700 0001:C1DE   701 0001:C1E0   702 0001:C1E2   703 0001:C1E5
   705 0001:C1EA   706 0001:C1ED   707 0001:C1F0   708 0001:C1F1
   709 0001:C1F2   712 0001:C1F5   713 0001:C1F8   714 0001:C1FD
   715 0001:C200   716 0001:C202   717 0001:C203   720 0001:C206
   721 0001:C209   722 0001:C20E   723 0001:C210   724 0001:C212
   725 0001:C213   726 0001:C214   727 0001:C219   728 0001:C21A
   729 0001:C21C   730 0001:C21E   731 0001:C21F   733 0001:C224
   734 0001:C226   735 0001:C229   737 0001:C22B   739 0001:C22D
   740 0001:C22E   743 0001:C231   744 0001:C234   745 0001:C239
   747 0001:C23A   748 0001:C23D   749 0001:C240   750 0001:C243
   751 0001:C246   752 0001:C249   756 0001:C24E   757 0001:C24F
   758 0001:C250   759 0001:C253   762 0001:C256   763 0001:C259
   764 0001:C25C   765 0001:C261   766 0001:C262   769 0001:C265
   770 0001:C268   771 0001:C26D   772 0001:C270   773 0001:C272
   774 0001:C273   777 0001:C276   778 0001:C279   779 0001:C27E
   780 0001:C27F   781 0001:C280   782 0001:C282   783 0001:C284
   784 0001:C287   786 0001:C28C   787 0001:C28F   788 0001:C292
   789 0001:C293   790 0001:C294   793 0001:C297   794 0001:C29A
   795 0001:C29D   796 0001:C2A2   799 0001:C2A5   800 0001:C2A8
   801 0001:C2AD   802 0001:C2AF   805 0001:C2B2   806 0001:C2B5
   807 0001:C2BA   808 0001:C2BD   809 0001:C2BF   810 0001:C2C0
   815 0001:C2C3   816 0001:C2C4   817 0001:C2C9   818 0001:C2CD
   820 0001:C2D0   821 0001:C2D1   824 0001:C2D4   825 0001:C2D5
   826 0001:C2DA   827 0001:C2DE   829 0001:C2E1   830 0001:C2E2
   835 0001:C2E5   836 0001:C2E8   837 0001:C2EB   841 0001:C2EE
   842 0001:C2F1   843 0001:C2F4   847 0001:C2F7   862 0001:C2FA
   863 0001:C2FC   868 0001:C2FF   869 0001:C300   870 0001:C305
   871 0001:C306   872 0001:C309   873 0001:C30E   875 0001:C30F
   876 0001:C310   877 0001:C311   878 0001:C312   879 0001:C314
   880 0001:C315   881 0001:C31A   884 0001:C31D   885 0001:C320
   886 0001:C323   887 0001:C326   891 0001:C329   892 0001:C32C
   893 0001:C32F   894 0001:C334   898 0001:C337   899 0001:C33A
   900 0001:C33D   901 0001:C342   905 0001:C345   906 0001:C348
   907 0001:C34D   911 0001:C350   912 0001:C353   913 0001:C358
   916 0001:C359   917 0001:C35C   918 0001:C35F   919 0001:C362
   920 0001:C365   921 0001:C36A   924 0001:C36D   925 0001:C370
   926 0001:C373   927 0001:C376   928 0001:C37B   931 0001:C37E
   932 0001:C381   933 0001:C386   936 0001:C388   937 0001:C38B
   938 0001:C38E   943 0001:C390   944 0001:C397   947 0001:C399
   948 0001:C39A   949 0001:C39B   950 0001:C39E   951 0001:C39F
   952 0001:C3A0   955 0001:C3A2   956 0001:C3A5   957 0001:C3A7
   960 0001:C3A9   961 0001:C3AC   964 0001:C3AE   965 0001:C3B1
   966 0001:C3B4   967 0001:C3B9   968 0001:C3C1   971 0001:C3C3
   972 0001:C3C6   973 0001:C3CB   976 0001:C3CD   977 0001:C3D5
   980 0001:C3D7   981 0001:C3EB   984 0001:C3ED   985 0001:C3FE
   988 0001:C400   992 0001:C401   993 0001:C404   994 0001:C407
   995 0001:C40A   996 0001:C40D  1004 0001:C410  1005 0001:C411
  1006 0001:C413  1007 0001:C418  1008 0001:C41C  1009 0001:C420
  1010 0001:C424  1012 0001:C42A  1013 0001:C430  1016 0001:C432
  1023 0001:C437  1031 0001:C43A  1034 0001:C45A  1044 0001:C45D
  1046 0001:C45E  1047 0001:C45F  1048 0001:C460  1049 0001:C461
  1052 0001:C466  1057 0001:C472  1058 0001:C476  1059 0001:C47A
  1060 0001:C47E  1061 0001:C480  1063 0001:C482  1064 0001:C487
  1065 0001:C48A  1067 0001:C48E  1068 0001:C490  1070 0001:C492
  1071 0001:C496  1073 0001:C49C  1074 0001:C4A1  1075 0001:C4A4
  1077 0001:C4A8  1078 0001:C4AA  1080 0001:C4AC  1090 0001:C4B0
  1091 0001:C4B1  1092 0001:C4B2  1093 0001:C4B3  1096 0001:C4B4
  1099 0001:C4B6  1100 0001:C4B7  1103 0001:C4C3  1108 0001:C4C9
  1110 0001:C4CB  1111 0001:C4CE  1112 0001:C4D1  1113 0001:C4D3
  1114 0001:C4F3  1116 0001:C4F6  1117 0001:C4F9  1119 0001:C4FC
  1120 0001:C500  1122 0001:C502  1123 0001:C505  1125 0001:C508
  1126 0001:C50B  1128 0001:C50E  1129 0001:C511  1131 0001:C514
  1132 0001:C517  1134 0001:C51A  1135 0001:C51D  1137 0001:C520
  1140 0001:C525  1143 0001:C527  1144 0001:C528  1146 0001:C529
  1148 0001:C52E  1150 0001:C531  1153 0001:C532  1167 0001:C534
  1168 0001:C539  1169 0001:C53A  1170 0001:C53D  1171 0001:C53E
  1172 0001:C53F  1173 0001:C540  1174 0001:C543  1175 0001:C545
  1176 0001:C547  1177 0001:C549  1178 0001:C54E  1180 0001:C550
  1181 0001:C552  1182 0001:C554  1183 0001:C556  1184 0001:C557
  1185 0001:C559  1186 0001:C55A  1187 0001:C55E  1188 0001:C560
  1189 0001:C562  1190 0001:C567  1191 0001:C569  1193 0001:C56B
  1194 0001:C56C  1207 0001:C572  1208 0001:C577  1209 0001:C578
  1210 0001:C57B  1211 0001:C57D  1212 0001:C582  1213 0001:C584
  1215 0001:C586  1216 0001:C587  1231 0001:C58D  1232 0001:C592
  1233 0001:C595  1234 0001:C597  1235 0001:C59C  1236 0001:C59E
  1245 0001:C5A4  1246 0001:C5A6  1247 0001:C5A8  1248 0001:C5AD
  1249 0001:C5B1  1253 0001:C5B3  1271 0001:C5B4  1272 0001:C5B8
  1274 0001:C5BD  1275 0001:C5C0  1276 0001:C5C3  1292 0001:C5C8
  1293 0001:C5C9  1294 0001:C5CE  1295 0001:C5D1  1296 0001:C5D3
  1297 0001:C5D5  1299 0001:C5D7  1300 0001:C5DD  1301 0001:C5DF
  1302 0001:C5E3  1303 0001:C5E6  1304 0001:C5E8  1305 0001:C5ED
  1306 0001:C5F0  1307 0001:C5F2  1309 0001:C5F7  1310 0001:C5F9
  1313 0001:C604  1314 0001:C605  1326 0001:C606  1327 0001:C609
  1328 0001:C60A  1330 0001:C60F  1331 0001:C613  1332 0001:C615
  1333 0001:C617  1334 0001:C61E  1335 0001:C620  1336 0001:C626
  1340 0001:C628  1341 0001:C630  1342 0001:C632  1343 0001:C634
  1344 0001:C636  1345 0001:C63A  1346 0001:C63D  1348 0001:C644
  1349 0001:C645  1364 0001:C649  1365 0001:C64D  1366 0001:C64E
  1367 0001:C653  1368 0001:C657  1369 0001:C659  1370 0001:C65B
  1372 0001:C65D  1373 0001:C660  1375 0001:C664  1376 0001:C665

Line numbers for kthunks.obj(kthunks.ASM) segment _TEXT

    43 0001:C66A    44 0001:C677    45 0001:C684    46 0001:C691
    47 0001:C69E    48 0001:C6AB    49 0001:C6B8    53 0001:C6C5
    54 0001:C6D2    55 0001:C6DF    56 0001:C6EC    57 0001:C6F9
    58 0001:C706    59 0001:C713    60 0001:C720    61 0001:C72D
    62 0001:C73A    63 0001:C747    64 0001:C754    65 0001:C761
    66 0001:C76E    67 0001:C77B    68 0001:C788    69 0001:C795
    70 0001:C7A2    71 0001:C7AF    72 0001:C7BC    73 0001:C7C9
    74 0001:C7D6    75 0001:C7E3    76 0001:C7F0    77 0001:C7FD
    78 0001:C80A    79 0001:C817    80 0001:C824    81 0001:C831
    82 0001:C83E    83 0001:C84B    84 0001:C858   112 0001:C865
   138 0001:C872   165 0001:C87F   190 0001:C88C   216 0001:C899
   242 0001:C8A6   244 0001:C8B3   245 0001:C8C0   271 0001:C8CD
   296 0001:C8DA   298 0001:C8E7   300 0001:C8F4   301 0001:C901
   302 0001:C90E   303 0001:C91B   304 0001:C928   305 0001:C935
   306 0001:C942   307 0001:C94F   308 0001:C95C   309 0001:C969
   310 0001:C976   311 0001:C983   317 0001:C990   320 0001:C99D
   321 0001:C9AA   323 0001:C9B7   325 0001:C9C4   326 0001:C9D1
   327 0001:C9DE   338 0001:C9EB   344 0001:C9F8   349 0001:CA05
   392 0001:CA12   393 0001:CA13   396 0001:CA15   398 0001:CA1A
   402 0001:CA1F   403 0001:CA22   404 0001:CA25   405 0001:CA29
   406 0001:CA2A   419 0001:CA2C   421 0001:CAAC   426 0001:CAB3
   427 0001:CAB4   430 0001:CAB6   432 0001:CABB   434 0001:CAC0
   435 0001:CAC1   439 0001:CAC2

Line numbers for wowdeb.obj(wowdeb.ASM) segment _TEXT

    75 0001:CAD0    76 0001:CAD7    77 0001:CADC    78 0001:CADF
    79 0001:CAE2    83 0001:CAE4    84 0001:CAE6    88 0001:CAE7
    89 0001:CAED    93 0001:CAEF    94 0001:CAF1    95 0001:CAF4
    97 0001:CAF7    98 0001:CAFD   100 0001:CAFF   101 0001:CB02
   104 0001:CB04   105 0001:CB07   108 0001:CB17