 MFC42UD

 Timestamp is 31c84135 (Wed Jun 19 11:04:37 1996)

 Preferred load address is 5f400000

 Start         Length     Name                   Class
 0001:00000000 000187dcH .text                   CODE
 0001:000187e0 0000767fH .text$AFX_AUX           CODE
 0001:0001fe60 00008867H .text$AFX_COL1          CODE
 0001:000286d0 00004e43H .text$AFX_COL2          CODE
 0001:0002d520 00016e5eH .text$AFX_CORE1         CODE
 0001:00044380 0000f61cH .text$AFX_CORE2         CODE
 0001:000539a0 00018750H .text$AFX_CORE3         CODE
 0001:0006c0f0 0001524eH .text$AFX_CORE4         CODE
 0001:00081340 00006432H .text$AFX_DBG1          CODE
 0001:00087780 0000ea06H .text$AFX_DBG2          CODE
 0001:00096190 0000caa6H .text$AFX_INIT          CODE
 0001:000a2c40 0000091fH .text$AFX_MAPI          CODE
 0001:000a3560 00007bc7H .text$AFX_PRNT          CODE
 0001:000ab130 00000701H .text$AFX_TERM          CODE
 0001:000ab840 00004e1bH .text$AFX_VDEL          CODE
 0002:00000000 0001072dH .rdata                  DATA
 0002:00010730 00003388H .rdata$r                DATA
 0002:00013ab8 00007008H .xdata$x                DATA
 0002:0001aac0 00004887H .edata                  DATA
 0003:00000000 00000004H .CRT$XCA                DATA
 0003:00000004 0000000cH .CRT$XCC                DATA
 0003:00000010 00000028H .CRT$XCL                DATA
 0003:00000038 00000090H .CRT$XCU                DATA
 0003:000000c8 00000004H .CRT$XCZ                DATA
 0003:000000cc 00000004H .CRT$XIA                DATA
 0003:000000d0 00000004H .CRT$XIZ                DATA
 0003:000000e0 00001e94H .data                   DATA
 0003:00001f78 000021e8H .bss                    DATA
 0004:00000000 00000050H .idata$2                DATA
 0004:00000050 00000014H .idata$3                DATA
 0004:00000064 000009e8H .idata$4                DATA
 0004:00000a4c 000009e8H .idata$5                DATA
 0004:00001434 00002860H .idata$6                DATA
 0005:00000000 00000e98H .rsrc$01                DATA
 0005:00000ea0 000062ecH .rsrc$02                DATA

  Address         Publics by Value              Rva+Base   Lib:Object

 0001:00000000       ?AddHead@?$CTypedSimpleList@PAUCRuntimeClass@@@@QAEXPAUCRuntimeClass@@@Z 5f401000 f objcore.obj
 0001:00000030       ??B?$CTypedSimpleList@PAUCRuntimeClass@@@@QAEPAUCRuntimeClass@@XZ 5f401030 f objcore.obj
 0001:00000050       ?GetHead@CSimpleList@@QBEPAXXZ 5f401050 f objcore.obj
 0001:00000070       ??B?$CTypedSimpleList@PAVCDynLinkLibrary@@@@QAEPAVCDynLinkLibrary@@XZ 5f401070 f objcore.obj
 0001:00000090       ??C?$CThreadLocal@V_AFX_THREAD_STATE@@@@QAEPAV_AFX_THREAD_STATE@@XZ 5f401090 f except.obj
 0001:000000b0       ?GetData@?$CThreadLocal@V_AFX_THREAD_STATE@@@@QAEPAV_AFX_THREAD_STATE@@XZ 5f4010b0 f except.obj
 0001:00000100       ?CreateObject@?$CThreadLocal@V_AFX_THREAD_STATE@@@@SGPAVCNoTrackObject@@XZ 5f401100 f except.obj
 0001:00000190       ??0CArchiveStream@@QAE@PAVCArchive@@@Z 5f401190 f arcstrm.obj
 0001:000001c5       ?AddRef@CArchiveStream@@UAGKXZ 5f4011c5 f arcstrm.obj
 0001:000001dc       ?Release@CArchiveStream@@UAGKXZ 5f4011dc f arcstrm.obj
 0001:000001f0       ?QueryInterface@CArchiveStream@@UAGJABU_GUID@@PAPAX@Z 5f4011f0 f arcstrm.obj
 0001:00000248       ?Read@CArchiveStream@@UAGJPAXKPAK@Z 5f401248 f arcstrm.obj
 0001:00000367       ?Write@CArchiveStream@@UAGJPBXKPAK@Z 5f401367 f arcstrm.obj
 0001:00000489       ?Seek@CArchiveStream@@UAGJT_LARGE_INTEGER@@KPAT_ULARGE_INTEGER@@@Z 5f401489 f arcstrm.obj
 0001:000005c8       ?SetSize@CArchiveStream@@UAGJT_ULARGE_INTEGER@@@Z 5f4015c8 f arcstrm.obj
 0001:000005df       ?CopyTo@CArchiveStream@@UAGJPAUIStream@@T_ULARGE_INTEGER@@PAT3@2@Z 5f4015df f arcstrm.obj
 0001:000005f6       ?Commit@CArchiveStream@@UAGJK@Z 5f4015f6 f arcstrm.obj
 0001:0000060d       ?Revert@CArchiveStream@@UAGJXZ 5f40160d f arcstrm.obj
 0001:00000624       ?LockRegion@CArchiveStream@@UAGJT_ULARGE_INTEGER@@0K@Z 5f401624 f arcstrm.obj
 0001:0000063b       ?UnlockRegion@CArchiveStream@@UAGJT_ULARGE_INTEGER@@0K@Z 5f40163b f arcstrm.obj
 0001:00000652       ?Stat@CArchiveStream@@UAGJPAUtagSTATSTG@@K@Z 5f401652 f arcstrm.obj
 0001:00000669       ?Clone@CArchiveStream@@UAGJPAPAUIStream@@@Z 5f401669 f arcstrm.obj
 0001:00000680       ??0IStream@@QAE@XZ         5f401680 f arcstrm.obj
 0001:000006b0       ??0ISequentialStream@@QAE@XZ 5f4016b0 f arcstrm.obj
 0001:000006e0       ??0IUnknown@@QAE@XZ        5f4016e0 f arcstrm.obj
 0001:00000710       ??8@YAHABU_GUID@@0@Z       5f401710 f arcstrm.obj
 0001:00000750       ??1CNoTrackObject@@UAE@XZ  5f401750 f dumpinit.obj
 0001:00000770       ??_GCNoTrackObject@@UAEPAXI@Z 5f401770 f dumpinit.obj
 0001:00000770       ??_ECNoTrackObject@@UAEPAXI@Z 5f401770 f dumpinit.obj
 0001:000007b0       ?GetData@?$CProcessLocal@V_AFX_DEBUG_STATE@@@@QAEPAV_AFX_DEBUG_STATE@@XZ 5f4017b0 f dumpinit.obj
 0001:00000800       ?CreateObject@?$CProcessLocal@V_AFX_DEBUG_STATE@@@@SGPAVCNoTrackObject@@XZ 5f401800 f dumpinit.obj
 0001:00000890       ??0CNoTrackObject@@QAE@XZ  5f401890 f dumpinit.obj
 0001:000008c0       ?DrawState@@YGHPAUHDC__@@PAUHBRUSH__@@P6GH0JIHH@ZJIHHHHI@Z 5f4018c0 f afxinl2.obj
 0001:00000900       ?GetNextWindow@@YAPAUHWND__@@PAU1@I@Z 5f401900 f afxinl3.obj
 0001:00000920       __wcsinc                   5f401920 f filecore.obj
 0001:00000940       ?T2COLE@@YAPBGPBG@Z        5f401940 f filecore.obj
 0001:00000960       ??0AFX_COM@@QAE@XZ         5f401960 f filecore.obj
 0001:00000990       ?data@CPlex@@QAEPAXXZ      5f401990 f list_o.obj
 0001:000009b0       ?data@CStringData@@QAEPAGXZ 5f4019b0 f strcore.obj
 0001:000009d0       ?wcschr@@YAPAGPAGG@Z       5f4019d0 f strcore.obj
 0001:00000a00       ?wcspbrk@@YAPAGPAGPBG@Z    5f401a00 f strcore.obj
 0001:00000a30       ?wcsrchr@@YAPAGPAGG@Z      5f401a30 f strex.obj
 0001:00000a60       ?wcsstr@@YAPAGPAGPBG@Z     5f401a60 f strex.obj
 0001:00000a90       __tclen                    5f401a90 f strex.obj
 0001:00000ab0       ?Construct@CSimpleList@@QAEXH@Z 5f401ab0 f afxstate.obj
 0001:00000b00       ?GetData@?$CProcessLocal@V_AFX_BASE_MODULE_STATE@@@@QAEPAV_AFX_BASE_MODULE_STATE@@XZ 5f401b00 f afxstate.obj
 0001:00000b50       ?CreateObject@?$CProcessLocal@V_AFX_BASE_MODULE_STATE@@@@SGPAVCNoTrackObject@@XZ 5f401b50 f afxstate.obj
 0001:00000be0       ??0_AFX_BASE_MODULE_STATE@@QAE@XZ 5f401be0 f afxstate.obj
 0001:00000c60       ??0CTypeLibCache@@QAE@XZ   5f401c60 f afxstate.obj
 0001:00000cb0       ??0?$CTypedSimpleList@PAVCFrameWnd@@@@QAE@H@Z 5f401cb0 f afxstate.obj
 0001:00000ce0       ??0CSimpleList@@QAE@H@Z    5f401ce0 f afxstate.obj
 0001:00000d10       ??0?$CTypedSimpleList@PAUCRuntimeClass@@@@QAE@H@Z 5f401d10 f afxstate.obj
 0001:00000d40       ??0?$CTypedSimpleList@PAVCOleObjectFactory@@@@QAE@H@Z 5f401d40 f afxstate.obj
 0001:00000d70       ??0?$CTypedSimpleList@PAVCDynLinkLibrary@@@@QAE@H@Z 5f401d70 f afxstate.obj
 0001:00000da0       ??0?$CTypedSimpleList@PAVCOleControlLock@@@@QAE@H@Z 5f401da0 f afxstate.obj
 0001:00000dd0       ?GetData@?$CThreadLocal@VAFX_MODULE_THREAD_STATE@@@@QAEPAVAFX_MODULE_THREAD_STATE@@XZ 5f401dd0 f afxstate.obj
 0001:00000e20       ?CreateObject@?$CThreadLocal@VAFX_MODULE_THREAD_STATE@@@@SGPAVCNoTrackObject@@XZ 5f401e20 f afxstate.obj
 0001:00000eb0       ??B?$CThreadLocal@V_AFX_THREAD_STATE@@@@QAEPAV_AFX_THREAD_STATE@@XZ 5f401eb0 f afxstate.obj
 0001:00000ed0       ??1CHandleMap@@QAE@XZ      5f401ed0 f afxstate.obj
 0001:00000f50       ??2@YAPAXIPAX@Z            5f401f50 f afxstate.obj
 0001:00000f70       ?GetNextPtr@CSimpleList@@QBEPAPAXPAX@Z 5f401f70 f afxtls.obj
 0001:00000fb0       ??0?$CTypedSimpleList@PAUCThreadData@@@@QAE@H@Z 5f401fb0 f afxtls.obj
 0001:00000fe0       ?AddHead@?$CTypedSimpleList@PAUCThreadData@@@@QAEXPAUCThreadData@@@Z 5f401fe0 f afxtls.obj
 0001:00001010       ??B?$CTypedSimpleList@PAUCThreadData@@@@QAEPAUCThreadData@@XZ 5f402010 f afxtls.obj
 0001:00001030       ?Remove@?$CTypedSimpleList@PAUCThreadData@@@@QAEHPAUCThreadData@@@Z 5f402030 f afxtls.obj
 0001:00001060       ??2CThreadSlotData@@SGPAXIPAX@Z 5f402060 f afxtls.obj
 0001:00001080       ??0CSyncObject@@QAE@PBG@Z  5f402080 f mtcore.obj
 0001:00001125       ??1CSyncObject@@UAE@XZ     5f402125 f mtcore.obj
 0001:000011ca       ?Lock@CSyncObject@@UAEHK@Z 5f4021ca f mtcore.obj
 0001:0000120c       ?Dump@CSyncObject@@UBEXAAVCDumpContext@@@Z 5f40220c f mtcore.obj
 0001:00001272       ?AssertValid@CSyncObject@@UBEXXZ 5f402272 f mtcore.obj
 0001:00001290       ??BCSyncObject@@QBEPAXXZ   5f402290 f mtcore.obj
 0001:000012ac       ?Unlock@CSemaphore@@UAEHXZ 5f4022ac f mtcore.obj
 0001:000012d1       ?SetEvent@CEvent@@QAEHXZ   5f4022d1 f mtcore.obj
 0001:00001316       ?PulseEvent@CEvent@@QAEHXZ 5f402316 f mtcore.obj
 0001:0000135b       ?ResetEvent@CEvent@@QAEHXZ 5f40235b f mtcore.obj
 0001:000013a0       ??1CSingleLock@@QAE@XZ     5f4023a0 f mtcore.obj
 0001:000013be       ?IsLocked@CSingleLock@@QAEHXZ 5f4023be f mtcore.obj
 0001:000013da       ?IsLocked@CMultiLock@@QAEHK@Z 5f4023da f mtcore.obj
 0001:0000142c       ??0CCriticalSection@@QAE@XZ 5f40242c f mtcore.obj
 0001:000014aa       ??BCCriticalSection@@QAEPAU_RTL_CRITICAL_SECTION@@XZ 5f4024aa f mtcore.obj
 0001:000014c6       ??1CCriticalSection@@UAE@XZ 5f4024c6 f mtcore.obj
 0001:0000153b       ?Lock@CCriticalSection@@QAEHXZ 5f40253b f mtcore.obj
 0001:00001563       ?Lock@CCriticalSection@@UAEHK@Z 5f402563 f mtcore.obj
 0001:00001583       ?Unlock@CCriticalSection@@UAEHXZ 5f402583 f mtcore.obj
 0001:000015b0       ??_GCSyncObject@@UAEPAXI@Z 5f4025b0 f mtcore.obj
 0001:000015b0       ??_ECSyncObject@@UAEPAXI@Z 5f4025b0 f mtcore.obj
 0001:000015f0       ??_GCCriticalSection@@UAEPAXI@Z 5f4025f0 f mtcore.obj
 0001:00001630       ?Unlock@CSyncObject@@UAEHJPAJ@Z 5f402630 f mtcore.obj
 0001:00001650       ??0CSemaphore@@QAE@JJPBGPAU_SECURITY_ATTRIBUTES@@@Z 5f402650 f mtex.obj
 0001:00001733       ??1CSemaphore@@UAE@XZ      5f402733 f mtex.obj
 0001:0000179b       ?Unlock@CSemaphore@@UAEHJPAJ@Z 5f40279b f mtex.obj
 0001:000017c8       ??0CMutex@@QAE@HPBGPAU_SECURITY_ATTRIBUTES@@@Z 5f4027c8 f mtex.obj
 0001:00001867       ??1CMutex@@UAE@XZ          5f402867 f mtex.obj
 0001:000018cf       ?Unlock@CMutex@@UAEHXZ     5f4028cf f mtex.obj
 0001:000018f2       ??0CEvent@@QAE@HHPBGPAU_SECURITY_ATTRIBUTES@@@Z 5f4028f2 f mtex.obj
 0001:00001995       ??1CEvent@@UAE@XZ          5f402995 f mtex.obj
 0001:000019fd       ?Unlock@CEvent@@UAEHXZ     5f4029fd f mtex.obj
 0001:00001a18       ??0CSingleLock@@QAE@PAVCSyncObject@@H@Z 5f402a18 f mtex.obj
 0001:00001aae       ?Lock@CSingleLock@@QAEHK@Z 5f402aae f mtex.obj
 0001:00001b35       ?Unlock@CSingleLock@@QAEHXZ 5f402b35 f mtex.obj
 0001:00001bc2       ?Unlock@CSingleLock@@QAEHJPAJ@Z 5f402bc2 f mtex.obj
 0001:00001c59       ??0CMultiLock@@QAE@QAPAVCSyncObject@@KH@Z 5f402c59 f mtex.obj
 0001:00001e21       ??1CMultiLock@@QAE@XZ      5f402e21 f mtex.obj
 0001:00001e84       ?Lock@CMultiLock@@QAEKKHK@Z 5f402e84 f mtex.obj
 0001:00001f7d       ?Unlock@CMultiLock@@QAEHXZ 5f402f7d f mtex.obj
 0001:00002018       ?Unlock@CMultiLock@@QAEHJPAJ@Z 5f403018 f mtex.obj
 0001:000020f0       ??_GCSemaphore@@UAEPAXI@Z  5f4030f0 f mtex.obj
 0001:00002130       ??_GCMutex@@UAEPAXI@Z      5f403130 f mtex.obj
 0001:00002170       ??_GCEvent@@UAEPAXI@Z      5f403170 f mtex.obj
 0001:000021b0       ??B?$CProcessLocal@V_AFX_WIN_STATE@@@@QAEPAV_AFX_WIN_STATE@@XZ 5f4031b0 f wincore.obj
 0001:000021d0       ?GetData@?$CProcessLocal@V_AFX_WIN_STATE@@@@QAEPAV_AFX_WIN_STATE@@XZ 5f4031d0 f wincore.obj
 0001:00002220       ?CreateObject@?$CProcessLocal@V_AFX_WIN_STATE@@@@SGPAVCNoTrackObject@@XZ 5f403220 f wincore.obj
 0001:000022b0       ?GetDataNA@?$CProcessLocal@V_AFX_CTL3D_STATE@@@@QAEPAV_AFX_CTL3D_STATE@@XZ 5f4032b0 f wincore.obj
 0001:000022d0       ?LookupPermanent@CHandleMap@@QAEPAVCObject@@PAX@Z 5f4032d0 f wincore.obj
 0001:00002300       ?LookupTemporary@CHandleMap@@QAEPAVCObject@@PAX@Z 5f403300 f wincore.obj
 0001:00002330       ??B?$CProcessLocal@V_AFX_CTL3D_STATE@@@@QAEPAV_AFX_CTL3D_STATE@@XZ 5f403330 f wincore.obj
 0001:00002350       ?GetData@?$CProcessLocal@V_AFX_CTL3D_STATE@@@@QAEPAV_AFX_CTL3D_STATE@@XZ 5f403350 f wincore.obj
 0001:000023a0       ?CreateObject@?$CProcessLocal@V_AFX_CTL3D_STATE@@@@SGPAVCNoTrackObject@@XZ 5f4033a0 f wincore.obj
 0001:00002430       ??0_AFX_CTL3D_STATE@@QAE@XZ 5f403430 f wincore.obj
 0001:000024a0       ??_G_AFX_CTL3D_STATE@@UAEPAXI@Z 5f4034a0 f wincore.obj
 0001:000024a0       ??_E_AFX_CTL3D_STATE@@UAEPAXI@Z 5f4034a0 f wincore.obj
 0001:000024e0       ?UnlockResource@@YGHPAX@Z  5f4034e0 f wincore.obj
 0001:00002500       ?AddHead@?$CTypedSimpleList@PAVCFrameWnd@@@@QAEXPAVCFrameWnd@@@Z 5f403500 f winfrm.obj
 0001:00002530       ?Remove@?$CTypedSimpleList@PAVCFrameWnd@@@@QAEHPAVCFrameWnd@@@Z 5f403530 f winfrm.obj
 0001:00002560       ??B?$CThreadLocal@VAFX_MODULE_THREAD_STATE@@@@QAEPAVAFX_MODULE_THREAD_STATE@@XZ 5f403560 f winfrm.obj
 0001:00002580       ?GetWindowTask@@YAPAUHTASK__@@PAUHWND__@@@Z 5f403580 f winfrmx.obj
 0001:000025a0       ?_GetBaseMessageMap@CToolTipCtrl@@KGPBUAFX_MSGMAP@@XZ 5f4035a0 f tooltip.obj
 0001:000025b5       ?GetMessageMap@CToolTipCtrl@@MBEPBUAFX_MSGMAP@@XZ 5f4035b5 f tooltip.obj
 0001:000025d0       ??0CToolTipCtrl@@QAE@XZ    5f4035d0 f tooltip.obj
 0001:0000265c       ?Create@CToolTipCtrl@@QAEHPAVCWnd@@K@Z 5f40365c f tooltip.obj
 0001:000026cb       ??1CToolTipCtrl@@UAE@XZ    5f4036cb f tooltip.obj
 0001:00002754       ?DestroyToolTipCtrl@CToolTipCtrl@@QAEHXZ 5f403754 f tooltip.obj
 0001:000027ce       ?OnAddTool@CToolTipCtrl@@IAEJIJ@Z 5f4037ce f tooltip.obj
 0001:00002888       ?OnDisableModal@CToolTipCtrl@@IAEJIJ@Z 5f403888 f tooltip.obj
 0001:000028b3       ?OnWindowFromPoint@CToolTipCtrl@@IAEJIJ@Z 5f4038b3 f tooltip.obj
 0001:00002999       ?AddTool@CToolTipCtrl@@QAEHPAVCWnd@@PBGPBUtagRECT@@I@Z 5f403999 f tooltip.obj
 0001:00002aa4       ?AddTool@CToolTipCtrl@@QAEHPAVCWnd@@IPBUtagRECT@@I@Z 5f403aa4 f tooltip.obj
 0001:00002bf7       ?DelTool@CToolTipCtrl@@QAEXPAVCWnd@@I@Z 5f403bf7 f tooltip.obj
 0001:00002c8a       ?GetText@CToolTipCtrl@@QBEXAAVCString@@PAVCWnd@@I@Z 5f403c8a f tooltip.obj
 0001:00002d37       ?GetToolInfo@CToolTipCtrl@@QBEHAAVCToolInfo@@PAVCWnd@@I@Z 5f403d37 f tooltip.obj
 0001:00002dd6       ?HitTest@CToolTipCtrl@@QBEHPAVCWnd@@VCPoint@@PAUtagTOOLINFOW@@@Z 5f403dd6 f tooltip.obj
 0001:00002ecb       ?SetToolRect@CToolTipCtrl@@QAEXPAVCWnd@@IPBUtagRECT@@@Z 5f403ecb f tooltip.obj
 0001:00002f92       ?UpdateTipText@CToolTipCtrl@@QAEXPBGPAVCWnd@@I@Z 5f403f92 f tooltip.obj
 0001:0000302b       ?UpdateTipText@CToolTipCtrl@@QAEXIPAVCWnd@@I@Z 5f40402b f tooltip.obj
 0001:000030f6       ?FillInToolInfo@CToolTipCtrl@@QBEXAAUtagTOOLINFOW@@PAVCWnd@@I@Z 5f4040f6 f tooltip.obj
 0001:00003180       ?EnableToolTips@CWnd@@QAEHH@Z 5f404180 f tooltip.obj
 0001:00003279       ?_FilterToolTipMessage@CWnd@@SGXPAUtagMSG@@PAV1@@Z 5f404279 f tooltip.obj
 0001:00003297       ?FilterToolTipMessage@CWnd@@QAEXPAUtagMSG@@@Z 5f404297 f tooltip.obj
 0001:000038b0       ??_GCToolTipCtrl@@UAEPAXI@Z 5f4048b0 f tooltip.obj
 0001:000038f0       ??1_AFX_WINMINI_TERM@@QAE@XZ 5f4048f0 f winmini.obj
 0001:00003920       ?items@CToolBarData@@QAEPAGXZ 5f404920 f bartool.obj
 0001:00003940       ??1_AFX_TRACKER_TERM@@QAE@XZ 5f404940 f trckrect.obj
 0001:00003970       ??1CDragListBox@@UAE@XZ    5f404970 f winctrl2.obj
 0001:000039e0       ?PreSubclassWindow@CDragListBox@@UAEXXZ 5f4049e0 f winctrl2.obj
 0001:00003a52       ?BeginDrag@CDragListBox@@UAEHVCPoint@@@Z 5f404a52 f winctrl2.obj
 0001:00003a9a       ?CancelDrag@CDragListBox@@UAEXVCPoint@@@Z 5f404a9a f winctrl2.obj
 0001:00003ac2       ?Dragging@CDragListBox@@UAEIVCPoint@@@Z 5f404ac2 f winctrl2.obj
 0001:00003b2c       ?Dropped@CDragListBox@@UAEXHVCPoint@@@Z 5f404b2c f winctrl2.obj
 0001:00003c8f       ?DrawInsert@CDragListBox@@UAEXH@Z 5f404c8f f winctrl2.obj
 0001:00003cda       ?DrawSingle@CDragListBox@@QAEXH@Z 5f404cda f winctrl2.obj
 0001:00003df7       ?OnChildNotify@CDragListBox@@MAEHIIJPAJ@Z 5f404df7 f winctrl2.obj
 0001:00003f92       ?_GetBaseMessageMap@CToolBarCtrl@@KGPBUAFX_MSGMAP@@XZ 5f404f92 f winctrl2.obj
 0001:00003fa7       ?GetMessageMap@CToolBarCtrl@@MBEPBUAFX_MSGMAP@@XZ 5f404fa7 f winctrl2.obj
 0001:00003fc2       ?Create@CToolBarCtrl@@QAEHKABUtagRECT@@PAVCWnd@@I@Z 5f404fc2 f winctrl2.obj
 0001:0000404d       ??1CToolBarCtrl@@UAE@XZ    5f40504d f winctrl2.obj
 0001:000040bd       ?AddBitmap@CToolBarCtrl@@QAEHHPAVCBitmap@@@Z 5f4050bd f winctrl2.obj
 0001:0000412e       ?AddBitmap@CToolBarCtrl@@QAEHHI@Z 5f40512e f winctrl2.obj
 0001:000041d4       ?SaveState@CToolBarCtrl@@QAEXPAUHKEY__@@PBG1@Z 5f4051d4 f winctrl2.obj
 0001:00004243       ?RestoreState@CToolBarCtrl@@QAEXPAUHKEY__@@PBG1@Z 5f405243 f winctrl2.obj
 0001:000042b2       ?AddString@CToolBarCtrl@@QAEHI@Z 5f4052b2 f winctrl2.obj
 0001:00004359       ?OnCreate@CToolBarCtrl@@IAEHPAUtagCREATESTRUCTW@@@Z 5f405359 f winctrl2.obj
 0001:0000439c       ?Create@CStatusBarCtrl@@QAEHKABUtagRECT@@PAVCWnd@@I@Z 5f40539c f winctrl2.obj
 0001:00004427       ??1CStatusBarCtrl@@UAE@XZ  5f405427 f winctrl2.obj
 0001:00004497       ?GetText@CStatusBarCtrl@@QBEHPBGHPAH@Z 5f405497 f winctrl2.obj
 0001:00004543       ?GetText@CStatusBarCtrl@@QBE?AVCString@@HPAH@Z 5f405543 f winctrl2.obj
 0001:00004690       ?GetTextLength@CStatusBarCtrl@@QBEHHPAH@Z 5f405690 f winctrl2.obj
 0001:0000473a       ?GetBorders@CStatusBarCtrl@@QBEHAAH00@Z 5f40573a f winctrl2.obj
 0001:000047bf       ?DrawItem@CStatusBarCtrl@@UAEXPAUtagDRAWITEMSTRUCT@@@Z 5f4057bf f winctrl2.obj
 0001:000047ef       ?OnChildNotify@CStatusBarCtrl@@MAEHIIJPAJ@Z 5f4057ef f winctrl2.obj
 0001:00004867       ?_GetBaseMessageMap@CListCtrl@@KGPBUAFX_MSGMAP@@XZ 5f405867 f winctrl2.obj
 0001:0000487c       ?GetMessageMap@CListCtrl@@MBEPBUAFX_MSGMAP@@XZ 5f40587c f winctrl2.obj
 0001:00004897       ?Create@CListCtrl@@QAEHKABUtagRECT@@PAVCWnd@@I@Z 5f405897 f winctrl2.obj
 0001:00004922       ??1CListCtrl@@UAE@XZ       5f405922 f winctrl2.obj
 0001:00004992       ?GetItemRect@CListCtrl@@QBEHHPAUtagRECT@@I@Z 5f405992 f winctrl2.obj
 0001:000049f9       ?InsertColumn@CListCtrl@@QAEHHPBGHHH@Z 5f4059f9 f winctrl2.obj
 0001:00004a5c       ?InsertItem@CListCtrl@@QAEHIHPBGIIHJ@Z 5f405a5c f winctrl2.obj
 0001:00004ade       ?HitTest@CListCtrl@@QBEHVCPoint@@PAI@Z 5f405ade f winctrl2.obj
 0001:00004b5f       ?SetItem@CListCtrl@@QAEHHHIPBGHIIJ@Z 5f405b5f f winctrl2.obj
 0001:00004bec       ?GetItemText@CListCtrl@@QBE?AVCString@@HH@Z 5f405bec f winctrl2.obj
 0001:00004d12       ?GetItemText@CListCtrl@@QBEHHHPAGH@Z 5f405d12 f winctrl2.obj
 0001:00004d93       ?GetItemData@CListCtrl@@QBEKH@Z 5f405d93 f winctrl2.obj
 0001:00004e30       ?DrawItem@CListCtrl@@UAEXPAUtagDRAWITEMSTRUCT@@@Z 5f405e30 f winctrl2.obj
 0001:00004e60       ?OnChildNotify@CListCtrl@@MAEHIIJPAJ@Z 5f405e60 f winctrl2.obj
 0001:00004ed8       ?RemoveImageList@CListCtrl@@IAEXH@Z 5f405ed8 f winctrl2.obj
 0001:00004f2a       ?OnNcDestroy@CListCtrl@@IAEXXZ 5f405f2a f winctrl2.obj
 0001:00004f66       ?CreateDragImage@CListCtrl@@QAEPAVCImageList@@HPAUtagPOINT@@@Z 5f405f66 f winctrl2.obj
 0001:0000503d       ?_GetBaseMessageMap@CTreeCtrl@@KGPBUAFX_MSGMAP@@XZ 5f40603d f winctrl2.obj
 0001:00005052       ?GetMessageMap@CTreeCtrl@@MBEPBUAFX_MSGMAP@@XZ 5f406052 f winctrl2.obj
 0001:0000506d       ?Create@CTreeCtrl@@QAEHKABUtagRECT@@PAVCWnd@@I@Z 5f40606d f winctrl2.obj
 0001:000050f8       ??1CTreeCtrl@@UAE@XZ       5f4060f8 f winctrl2.obj
 0001:00005168       ?GetItemRect@CTreeCtrl@@QBEHPAU_TREEITEM@@PAUtagRECT@@H@Z 5f406168 f winctrl2.obj
 0001:000051cf       ?GetItemText@CTreeCtrl@@QBE?AVCString@@PAU_TREEITEM@@@Z 5f4061cf f winctrl2.obj
 0001:000052f4       ?GetItemImage@CTreeCtrl@@QBEHPAU_TREEITEM@@AAH1@Z 5f4062f4 f winctrl2.obj
 0001:0000537e       ?GetItemState@CTreeCtrl@@QBEIPAU_TREEITEM@@I@Z 5f40637e f winctrl2.obj
 0001:00005418       ?GetItemData@CTreeCtrl@@QBEKPAU_TREEITEM@@@Z 5f406418 f winctrl2.obj
 0001:000054a5       ?ItemHasChildren@CTreeCtrl@@QBEHPAU_TREEITEM@@@Z 5f4064a5 f winctrl2.obj
 0001:00005512       ?SetItem@CTreeCtrl@@QAEHPAU_TREEITEM@@IPBGHHIIJ@Z 5f406512 f winctrl2.obj
 0001:0000559f       ?InsertItem@CTreeCtrl@@QAEPAU_TREEITEM@@IPBGHHIIJPAU2@1@Z 5f40659f f winctrl2.obj
 0001:00005632       ?HitTest@CTreeCtrl@@QBEPAU_TREEITEM@@VCPoint@@PAI@Z 5f406632 f winctrl2.obj
 0001:000056b3       ?RemoveImageList@CTreeCtrl@@IAEXH@Z 5f4066b3 f winctrl2.obj
 0001:00005705       ?OnDestroy@CTreeCtrl@@QAEXXZ 5f406705 f winctrl2.obj
 0001:00005737       ?CreateDragImage@CTreeCtrl@@QAEPAVCImageList@@PAU_TREEITEM@@@Z 5f406737 f winctrl2.obj
 0001:0000580c       ?Create@CSpinButtonCtrl@@QAEHKABUtagRECT@@PAVCWnd@@I@Z 5f40680c f winctrl2.obj
 0001:00005897       ??1CSpinButtonCtrl@@UAE@XZ 5f406897 f winctrl2.obj
 0001:00005907       ?GetRange@CSpinButtonCtrl@@QBEXAAH0@Z 5f406907 f winctrl2.obj
 0001:00005981       ?Create@CSliderCtrl@@QAEHKABUtagRECT@@PAVCWnd@@I@Z 5f406981 f winctrl2.obj
 0001:00005a0c       ??1CSliderCtrl@@UAE@XZ     5f406a0c f winctrl2.obj
 0001:00005a7c       ?GetRange@CSliderCtrl@@QBEXAAH0@Z 5f406a7c f winctrl2.obj
 0001:00005adb       ?SetRange@CSliderCtrl@@QAEXHHH@Z 5f406adb f winctrl2.obj
 0001:00005b13       ?GetSelection@CSliderCtrl@@QBEXAAH0@Z 5f406b13 f winctrl2.obj
 0001:00005b8e       ?SetSelection@CSliderCtrl@@QAEXHH@Z 5f406b8e f winctrl2.obj
 0001:00005c03       ?Create@CProgressCtrl@@QAEHKABUtagRECT@@PAVCWnd@@I@Z 5f406c03 f winctrl2.obj
 0001:00005c8e       ??1CProgressCtrl@@UAE@XZ   5f406c8e f winctrl2.obj
 0001:00005cfe       ?Create@CHeaderCtrl@@QAEHKABUtagRECT@@PAVCWnd@@I@Z 5f406cfe f winctrl2.obj
 0001:00005d89       ??1CHeaderCtrl@@UAE@XZ     5f406d89 f winctrl2.obj
 0001:00005df9       ?DrawItem@CHeaderCtrl@@UAEXPAUtagDRAWITEMSTRUCT@@@Z 5f406df9 f winctrl2.obj
 0001:00005e29       ?OnChildNotify@CHeaderCtrl@@MAEHIIJPAJ@Z 5f406e29 f winctrl2.obj
 0001:00005ea1       ?Create@CHotKeyCtrl@@QAEHKABUtagRECT@@PAVCWnd@@I@Z 5f406ea1 f winctrl2.obj
 0001:00005f2c       ??1CHotKeyCtrl@@UAE@XZ     5f406f2c f winctrl2.obj
 0001:00005f9c       ?GetHotKey@CHotKeyCtrl@@QBEXAAG0@Z 5f406f9c f winctrl2.obj
 0001:00006010       ?_GetBaseMessageMap@CTabCtrl@@KGPBUAFX_MSGMAP@@XZ 5f407010 f winctrl2.obj
 0001:00006025       ?GetMessageMap@CTabCtrl@@MBEPBUAFX_MSGMAP@@XZ 5f407025 f winctrl2.obj
 0001:00006040       ?Create@CTabCtrl@@QAEHKABUtagRECT@@PAVCWnd@@I@Z 5f407040 f winctrl2.obj
 0001:000060cb       ??1CTabCtrl@@UAE@XZ        5f4070cb f winctrl2.obj
 0001:0000613b       ?DrawItem@CTabCtrl@@UAEXPAUtagDRAWITEMSTRUCT@@@Z 5f40713b f winctrl2.obj
 0001:0000616b       ?OnChildNotify@CTabCtrl@@MAEHIIJPAJ@Z 5f40716b f winctrl2.obj
 0001:000061e3       ?OnDestroy@CTabCtrl@@IAEXXZ 5f4071e3 f winctrl2.obj
 0001:00006237       ?Create@CAnimateCtrl@@QAEHKABUtagRECT@@PAVCWnd@@I@Z 5f407237 f winctrl2.obj
 0001:000062c2       ??1CAnimateCtrl@@UAE@XZ    5f4072c2 f winctrl2.obj
 0001:00006332       ??1CRichEditCtrl@@UAE@XZ   5f407332 f winctrl2.obj
 0001:000063a2       ??0CImageList@@QAE@XZ      5f4073a2 f winctrl2.obj
 0001:0000641b       ??1CImageList@@UAE@XZ      5f40741b f winctrl2.obj
 0001:0000648b       ?Detach@CImageList@@QAEPAU_IMAGELIST@@XZ 5f40748b f winctrl2.obj
 0001:0000658f       ?DeleteImageList@CImageList@@QAEHXZ 5f40758f f winctrl2.obj
 0001:000065c8       ?DeleteTempMap@CImageList@@SGXXZ 5f4075c8 f winctrl2.obj
 0001:000065fa       ?FromHandle@CImageList@@SGPAV1@PAU_IMAGELIST@@@Z 5f4075fa f winctrl2.obj
 0001:00006681       ?FromHandlePermanent@CImageList@@SGPAV1@PAU_IMAGELIST@@@Z 5f407681 f winctrl2.obj
 0001:000066f7       ?Create@CImageList@@QAEHHHIHH@Z 5f4076f7 f winctrl2.obj
 0001:00006732       ?Create@CImageList@@QAEHIHHK@Z 5f407732 f winctrl2.obj
 0001:000067a7       ?Create@CImageList@@QAEHPBGHHK@Z 5f4077a7 f winctrl2.obj
 0001:000067ee       ?Create@CImageList@@QAEHAAV1@H0HHH@Z 5f4077ee f winctrl2.obj
 0001:00006833       ?Attach@CImageList@@QAEHPAU_IMAGELIST@@@Z 5f407833 f winctrl2.obj
 0001:000068fa       ?Read@CImageList@@QAEHPAVCArchive@@@Z 5f4078fa f winctrl2.obj
 0001:000069b6       ?Write@CImageList@@QAEHPAVCArchive@@@Z 5f4079b6 f winctrl2.obj
 0001:00006a5a       ?Dump@CImageList@@UBEXAAVCDumpContext@@@Z 5f407a5a f winctrl2.obj
 0001:00006aa6       ?AssertValid@CImageList@@UBEXXZ 5f407aa6 f winctrl2.obj
 0001:00006b79       ??0CDragListBox@@QAE@XZ    5f407b79 f winctrl2.obj
 0001:00006bf2       ?ItemFromPt@CDragListBox@@QBEHVCPoint@@H@Z 5f407bf2 f winctrl2.obj
 0001:00006c4d       ??0CToolBarCtrl@@QAE@XZ    5f407c4d f winctrl2.obj
 0001:00006cbc       ?EnableButton@CToolBarCtrl@@QAEHHH@Z 5f407cbc f winctrl2.obj
 0001:00006d1d       ?CheckButton@CToolBarCtrl@@QAEHHH@Z 5f407d1d f winctrl2.obj
 0001:00006d7e       ?PressButton@CToolBarCtrl@@QAEHHH@Z 5f407d7e f winctrl2.obj
 0001:00006ddf       ?HideButton@CToolBarCtrl@@QAEHHH@Z 5f407ddf f winctrl2.obj
 0001:00006e40       ?Indeterminate@CToolBarCtrl@@QAEHHH@Z 5f407e40 f winctrl2.obj
 0001:00006ea1       ?IsButtonEnabled@CToolBarCtrl@@QBEHH@Z 5f407ea1 f winctrl2.obj
 0001:00006efb       ?IsButtonChecked@CToolBarCtrl@@QBEHH@Z 5f407efb f winctrl2.obj
 0001:00006f55       ?IsButtonPressed@CToolBarCtrl@@QBEHH@Z 5f407f55 f winctrl2.obj
 0001:00006faf       ?IsButtonHidden@CToolBarCtrl@@QBEHH@Z 5f407faf f winctrl2.obj
 0001:00007009       ?IsButtonIndeterminate@CToolBarCtrl@@QBEHH@Z 5f408009 f winctrl2.obj
 0001:00007063       ?SetState@CToolBarCtrl@@QAEHHI@Z 5f408063 f winctrl2.obj
 0001:000070c4       ?GetState@CToolBarCtrl@@QBEHH@Z 5f4080c4 f winctrl2.obj
 0001:0000711e       ?AddButtons@CToolBarCtrl@@QAEHHPAU_TBBUTTON@@@Z 5f40811e f winctrl2.obj
 0001:0000717a       ?InsertButton@CToolBarCtrl@@QAEHHPAU_TBBUTTON@@@Z 5f40817a f winctrl2.obj
 0001:000071d6       ?DeleteButton@CToolBarCtrl@@QAEHH@Z 5f4081d6 f winctrl2.obj
 0001:00007230       ?GetButton@CToolBarCtrl@@QBEHHPAU_TBBUTTON@@@Z 5f408230 f winctrl2.obj
 0001:0000728c       ?GetButtonCount@CToolBarCtrl@@QBEHXZ 5f40828c f winctrl2.obj
 0001:000072e2       ?CommandToIndex@CToolBarCtrl@@QBEII@Z 5f4082e2 f winctrl2.obj
 0001:0000733c       ?Customize@CToolBarCtrl@@QAEXXZ 5f40833c f winctrl2.obj
 0001:00007392       ?AddStrings@CToolBarCtrl@@QAEHPBG@Z 5f408392 f winctrl2.obj
 0001:000073ec       ?GetItemRect@CToolBarCtrl@@QBEHHPAUtagRECT@@@Z 5f4083ec f winctrl2.obj
 0001:00007448       ?SetButtonStructSize@CToolBarCtrl@@QAEXH@Z 5f408448 f winctrl2.obj
 0001:000074a2       ?SetButtonSize@CToolBarCtrl@@QAEHVCSize@@@Z 5f4084a2 f winctrl2.obj
 0001:0000750f       ?SetBitmapSize@CToolBarCtrl@@QAEHVCSize@@@Z 5f40850f f winctrl2.obj
 0001:0000757c       ?AutoSize@CToolBarCtrl@@QAEXXZ 5f40857c f winctrl2.obj
 0001:000075d2       ?GetToolTips@CToolBarCtrl@@QBEPAVCToolTipCtrl@@XZ 5f4085d2 f winctrl2.obj
 0001:0000762e       ?SetToolTips@CToolBarCtrl@@QAEXPAVCToolTipCtrl@@@Z 5f40862e f winctrl2.obj
 0001:0000768b       ?SetOwner@CToolBarCtrl@@QAEXPAVCWnd@@@Z 5f40868b f winctrl2.obj
 0001:000076e8       ?SetRows@CToolBarCtrl@@QAEXHHPAUtagRECT@@@Z 5f4086e8 f winctrl2.obj
 0001:00007757       ?GetRows@CToolBarCtrl@@QBEHXZ 5f408757 f winctrl2.obj
 0001:000077ad       ?SetCmdID@CToolBarCtrl@@QAEHHI@Z 5f4087ad f winctrl2.obj
 0001:00007809       ?GetBitmapFlags@CToolBarCtrl@@QBEIXZ 5f408809 f winctrl2.obj
 0001:0000785f       ??0CStatusBarCtrl@@QAE@XZ  5f40885f f winctrl2.obj
 0001:000078ce       ?SetText@CStatusBarCtrl@@QAEHPBGHH@Z 5f4088ce f winctrl2.obj
 0001:0000794f       ?SetParts@CStatusBarCtrl@@QAEHHPAH@Z 5f40894f f winctrl2.obj
 0001:000079ab       ?GetParts@CStatusBarCtrl@@QBEHHPAH@Z 5f4089ab f winctrl2.obj
 0001:00007a07       ?GetBorders@CStatusBarCtrl@@QBEHPAH@Z 5f408a07 f winctrl2.obj
 0001:00007a61       ?SetMinHeight@CStatusBarCtrl@@QAEXH@Z 5f408a61 f winctrl2.obj
 0001:00007abb       ?SetSimple@CStatusBarCtrl@@QAEHH@Z 5f408abb f winctrl2.obj
 0001:00007b15       ?GetRect@CStatusBarCtrl@@QBEHHPAUtagRECT@@@Z 5f408b15 f winctrl2.obj
 0001:00007b71       ??0CListCtrl@@QAE@XZ       5f408b71 f winctrl2.obj
 0001:00007be0       ?GetBkColor@CListCtrl@@QBEKXZ 5f408be0 f winctrl2.obj
 0001:00007c36       ?SetBkColor@CListCtrl@@QAEHK@Z 5f408c36 f winctrl2.obj
 0001:00007c90       ?GetImageList@CListCtrl@@QBEPAVCImageList@@H@Z 5f408c90 f winctrl2.obj
 0001:00007cf0       ?SetImageList@CListCtrl@@QAEPAVCImageList@@PAV2@H@Z 5f408cf0 f winctrl2.obj
 0001:00007d57       ?GetItemCount@CListCtrl@@QBEHXZ 5f408d57 f winctrl2.obj
 0001:00007dad       ?GetItem@CListCtrl@@QBEHPAUtagLVITEMW@@@Z 5f408dad f winctrl2.obj
 0001:00007e07       ?SetItem@CListCtrl@@QAEHPBUtagLVITEMW@@@Z 5f408e07 f winctrl2.obj
 0001:00007e61       ?SetItemState@CListCtrl@@QAEHHII@Z 5f408e61 f winctrl2.obj
 0001:00007ec4       ?SetItemText@CListCtrl@@QAEHHHPBG@Z 5f408ec4 f winctrl2.obj
 0001:00007f27       ?SetItemData@CListCtrl@@QAEHHK@Z 5f408f27 f winctrl2.obj
 0001:00007f88       ?InsertItem@CListCtrl@@QAEHPBUtagLVITEMW@@@Z 5f408f88 f winctrl2.obj
 0001:00007fe5       ?InsertItem@CListCtrl@@QAEHHPBG@Z 5f408fe5 f winctrl2.obj
 0001:00008044       ?InsertItem@CListCtrl@@QAEHHPBGH@Z 5f409044 f winctrl2.obj
 0001:000080a5       ?DeleteItem@CListCtrl@@QAEHH@Z 5f4090a5 f winctrl2.obj
 0001:00008102       ?DeleteAllItems@CListCtrl@@QAEHXZ 5f409102 f winctrl2.obj
 0001:0000815b       ?GetCallbackMask@CListCtrl@@QBEIXZ 5f40915b f winctrl2.obj
 0001:000081b4       ?SetCallbackMask@CListCtrl@@QAEHI@Z 5f4091b4 f winctrl2.obj
 0001:00008211       ?GetNextItem@CListCtrl@@QBEHHH@Z 5f409211 f winctrl2.obj
 0001:00008275       ?FindItem@CListCtrl@@QBEHPAUtagLVFINDINFOW@@H@Z 5f409275 f winctrl2.obj
 0001:000082d4       ?HitTest@CListCtrl@@QBEHPAUtagLVHITTESTINFO@@@Z 5f4092d4 f winctrl2.obj
 0001:00008331       ?SetItemPosition@CListCtrl@@QAEHHUtagPOINT@@@Z 5f409331 f winctrl2.obj
 0001:00008390       ?GetItemPosition@CListCtrl@@QBEHHPAUtagPOINT@@@Z 5f409390 f winctrl2.obj
 0001:000083ef       ?GetStringWidth@CListCtrl@@QBEHPBG@Z 5f4093ef f winctrl2.obj
 0001:0000844c       ?EnsureVisible@CListCtrl@@QAEHHH@Z 5f40944c f winctrl2.obj
 0001:000084b0       ?Scroll@CListCtrl@@QAEHVCSize@@@Z 5f4094b0 f winctrl2.obj
 0001:0000850f       ?RedrawItems@CListCtrl@@QAEHHH@Z 5f40950f f winctrl2.obj
 0001:0000856e       ?Arrange@CListCtrl@@QAEHI@Z 5f40956e f winctrl2.obj
 0001:000085cb       ?EditLabel@CListCtrl@@QAEPAVCEdit@@H@Z 5f4095cb f winctrl2.obj
 0001:0000862e       ?GetEditControl@CListCtrl@@QBEPAVCEdit@@XZ 5f40962e f winctrl2.obj
 0001:0000868d       ?GetColumn@CListCtrl@@QBEHHPAUtagLVCOLUMNW@@@Z 5f40968d f winctrl2.obj
 0001:000086ec       ?SetColumn@CListCtrl@@QAEHHPBUtagLVCOLUMNW@@@Z 5f4096ec f winctrl2.obj
 0001:0000874b       ?InsertColumn@CListCtrl@@QAEHHPBUtagLVCOLUMNW@@@Z 5f40974b f winctrl2.obj
 0001:000087aa       ?DeleteColumn@CListCtrl@@QAEHH@Z 5f4097aa f winctrl2.obj
 0001:00008807       ?GetColumnWidth@CListCtrl@@QBEHH@Z 5f409807 f winctrl2.obj
 0001:00008864       ?SetColumnWidth@CListCtrl@@QAEHHH@Z 5f409864 f winctrl2.obj
 0001:000088c8       ?GetViewRect@CListCtrl@@QBEHPAUtagRECT@@@Z 5f4098c8 f winctrl2.obj
 0001:00008925       ?GetTextColor@CListCtrl@@QBEKXZ 5f409925 f winctrl2.obj
 0001:0000897e       ?SetTextColor@CListCtrl@@QAEHK@Z 5f40997e f winctrl2.obj
 0001:000089db       ?GetTextBkColor@CListCtrl@@QBEKXZ 5f4099db f winctrl2.obj
 0001:00008a34       ?SetTextBkColor@CListCtrl@@QAEHK@Z 5f409a34 f winctrl2.obj
 0001:00008a91       ?GetTopIndex@CListCtrl@@QBEHXZ 5f409a91 f winctrl2.obj
 0001:00008aea       ?GetCountPerPage@CListCtrl@@QBEHXZ 5f409aea f winctrl2.obj
 0001:00008b43       ?GetOrigin@CListCtrl@@QBEHPAUtagPOINT@@@Z 5f409b43 f winctrl2.obj
 0001:00008ba0       ?Update@CListCtrl@@QAEHH@Z 5f409ba0 f winctrl2.obj
 0001:00008bfd       ?SetItemState@CListCtrl@@QAEHHPAUtagLVITEMW@@@Z 5f409bfd f winctrl2.obj
 0001:00008c5c       ?GetItemState@CListCtrl@@QBEIHI@Z 5f409c5c f winctrl2.obj
 0001:00008cbb       ?SetItemCount@CListCtrl@@QAEXH@Z 5f409cbb f winctrl2.obj
 0001:00008d18       ?SortItems@CListCtrl@@QAEHP6GHJJJ@ZK@Z 5f409d18 f winctrl2.obj
 0001:00008d77       ?GetSelectedCount@CListCtrl@@QBEIXZ 5f409d77 f winctrl2.obj
 0001:00008dd0       ??0CTreeCtrl@@QAE@XZ       5f409dd0 f winctrl2.obj
 0001:00008e3f       ?InsertItem@CTreeCtrl@@QAEPAU_TREEITEM@@PAUtagTVINSERTSTRUCTW@@@Z 5f409e3f f winctrl2.obj
 0001:00008e9c       ?InsertItem@CTreeCtrl@@QAEPAU_TREEITEM@@PBGHHPAU2@1@Z 5f409e9c f winctrl2.obj
 0001:00008f05       ?InsertItem@CTreeCtrl@@QAEPAU_TREEITEM@@PBGPAU2@1@Z 5f409f05 f winctrl2.obj
 0001:00008f6a       ?DeleteItem@CTreeCtrl@@QAEHPAU_TREEITEM@@@Z 5f409f6a f winctrl2.obj
 0001:00008fc7       ?DeleteAllItems@CTreeCtrl@@QAEHXZ 5f409fc7 f winctrl2.obj
 0001:00009023       ?Expand@CTreeCtrl@@QAEHPAU_TREEITEM@@I@Z 5f40a023 f winctrl2.obj
 0001:00009082       ?GetCount@CTreeCtrl@@QBEIXZ 5f40a082 f winctrl2.obj
 0001:000090db       ?GetIndent@CTreeCtrl@@QBEIXZ 5f40a0db f winctrl2.obj
 0001:00009134       ?SetIndent@CTreeCtrl@@QAEXI@Z 5f40a134 f winctrl2.obj
 0001:00009191       ?GetImageList@CTreeCtrl@@QBEPAVCImageList@@I@Z 5f40a191 f winctrl2.obj
 0001:000091f4       ?SetImageList@CTreeCtrl@@QAEPAVCImageList@@PAV2@H@Z 5f40a1f4 f winctrl2.obj
 0001:0000925e       ?GetNextItem@CTreeCtrl@@QBEPAU_TREEITEM@@PAU2@I@Z 5f40a25e f winctrl2.obj
 0001:000092bd       ?GetChildItem@CTreeCtrl@@QBEPAU_TREEITEM@@PAU2@@Z 5f40a2bd f winctrl2.obj
 0001:0000931a       ?GetNextSiblingItem@CTreeCtrl@@QBEPAU_TREEITEM@@PAU2@@Z 5f40a31a f winctrl2.obj
 0001:00009377       ?GetPrevSiblingItem@CTreeCtrl@@QBEPAU_TREEITEM@@PAU2@@Z 5f40a377 f winctrl2.obj
 0001:000093d4       ?GetParentItem@CTreeCtrl@@QBEPAU_TREEITEM@@PAU2@@Z 5f40a3d4 f winctrl2.obj
 0001:00009431       ?GetFirstVisibleItem@CTreeCtrl@@QBEPAU_TREEITEM@@XZ 5f40a431 f winctrl2.obj
 0001:0000948a       ?GetNextVisibleItem@CTreeCtrl@@QBEPAU_TREEITEM@@PAU2@@Z 5f40a48a f winctrl2.obj
 0001:000094e7       ?GetPrevVisibleItem@CTreeCtrl@@QBEPAU_TREEITEM@@PAU2@@Z 5f40a4e7 f winctrl2.obj
 0001:00009544       ?GetSelectedItem@CTreeCtrl@@QBEPAU_TREEITEM@@XZ 5f40a544 f winctrl2.obj
 0001:0000959d       ?GetDropHilightItem@CTreeCtrl@@QBEPAU_TREEITEM@@XZ 5f40a59d f winctrl2.obj
 0001:000095f6       ?GetRootItem@CTreeCtrl@@QBEPAU_TREEITEM@@XZ 5f40a5f6 f winctrl2.obj
 0001:0000964f       ?Select@CTreeCtrl@@QAEHPAU_TREEITEM@@I@Z 5f40a64f f winctrl2.obj
 0001:000096ae       ?SelectItem@CTreeCtrl@@QAEHPAU_TREEITEM@@@Z 5f40a6ae f winctrl2.obj
 0001:0000970b       ?SelectDropTarget@CTreeCtrl@@QAEHPAU_TREEITEM@@@Z 5f40a70b f winctrl2.obj
 0001:00009768       ?SelectSetFirstVisible@CTreeCtrl@@QAEHPAU_TREEITEM@@@Z 5f40a768 f winctrl2.obj
 0001:000097c5       ?GetItem@CTreeCtrl@@QBEHPAUtagTVITEMW@@@Z 5f40a7c5 f winctrl2.obj
 0001:00009822       ?SetItem@CTreeCtrl@@QAEHPAUtagTVITEMW@@@Z 5f40a822 f winctrl2.obj
 0001:0000987f       ?SetItemText@CTreeCtrl@@QAEHPAU_TREEITEM@@PBG@Z 5f40a87f f winctrl2.obj
 0001:000098e0       ?SetItemImage@CTreeCtrl@@QAEHPAU_TREEITEM@@HH@Z 5f40a8e0 f winctrl2.obj
 0001:00009943       ?SetItemState@CTreeCtrl@@QAEHPAU_TREEITEM@@II@Z 5f40a943 f winctrl2.obj
 0001:000099a6       ?SetItemData@CTreeCtrl@@QAEHPAU_TREEITEM@@K@Z 5f40a9a6 f winctrl2.obj
 0001:00009a07       ?EditLabel@CTreeCtrl@@QAEPAVCEdit@@PAU_TREEITEM@@@Z 5f40aa07 f winctrl2.obj
 0001:00009a6a       ?HitTest@CTreeCtrl@@QBEPAU_TREEITEM@@PAUtagTVHITTESTINFO@@@Z 5f40aa6a f winctrl2.obj
 0001:00009ac7       ?GetEditControl@CTreeCtrl@@QBEPAVCEdit@@XZ 5f40aac7 f winctrl2.obj
 0001:00009b26       ?GetVisibleCount@CTreeCtrl@@QBEIXZ 5f40ab26 f winctrl2.obj
 0001:00009b7f       ?SortChildren@CTreeCtrl@@QAEHPAU_TREEITEM@@@Z 5f40ab7f f winctrl2.obj
 0001:00009bdc       ?EnsureVisible@CTreeCtrl@@QAEHPAU_TREEITEM@@@Z 5f40abdc f winctrl2.obj
 0001:00009c39       ?SortChildrenCB@CTreeCtrl@@QAEHPAUtagTVSORTCB@@@Z 5f40ac39 f winctrl2.obj
 0001:00009c96       ??0CHotKeyCtrl@@QAE@XZ     5f40ac96 f winctrl2.obj
 0001:00009d05       ?SetHotKey@CHotKeyCtrl@@QAEXGG@Z 5f40ad05 f winctrl2.obj
 0001:00009d71       ?GetHotKey@CHotKeyCtrl@@QBEKXZ 5f40ad71 f winctrl2.obj
 0001:00009dca       ?SetRules@CHotKeyCtrl@@QAEXGG@Z 5f40adca f winctrl2.obj
 0001:00009e33       ?Activate@CToolTipCtrl@@QAEXH@Z 5f40ae33 f winctrl2.obj
 0001:00009e90       ?SetToolInfo@CToolTipCtrl@@QAEXPAUtagTOOLINFOW@@@Z 5f40ae90 f winctrl2.obj
 0001:00009eed       ?RelayEvent@CToolTipCtrl@@QAEXPAUtagMSG@@@Z 5f40aeed f winctrl2.obj
 0001:00009f4a       ?SetDelayTime@CToolTipCtrl@@QAEXI@Z 5f40af4a f winctrl2.obj
 0001:00009fa7       ?GetToolCount@CToolTipCtrl@@QBEHXZ 5f40afa7 f winctrl2.obj
 0001:0000a000       ??0CSpinButtonCtrl@@QAE@XZ 5f40b000 f winctrl2.obj
 0001:0000a06f       ?GetAccel@CSpinButtonCtrl@@QBEIHPAU_UDACCEL@@@Z 5f40b06f f winctrl2.obj
 0001:0000a0d1       ?GetBase@CSpinButtonCtrl@@QBEIXZ 5f40b0d1 f winctrl2.obj
 0001:0000a12d       ?GetBuddy@CSpinButtonCtrl@@QBEPAVCWnd@@XZ 5f40b12d f winctrl2.obj
 0001:0000a18c       ?GetPos@CSpinButtonCtrl@@QBEHXZ 5f40b18c f winctrl2.obj
 0001:0000a1e8       ?GetRange@CSpinButtonCtrl@@QBEKXZ 5f40b1e8 f winctrl2.obj
 0001:0000a241       ?SetAccel@CSpinButtonCtrl@@QAEHHPAU_UDACCEL@@@Z 5f40b241 f winctrl2.obj
 0001:0000a2a3       ?SetBase@CSpinButtonCtrl@@QAEHH@Z 5f40b2a3 f winctrl2.obj
 0001:0000a300       ?SetBuddy@CSpinButtonCtrl@@QAEPAVCWnd@@PAV2@@Z 5f40b300 f winctrl2.obj
 0001:0000a366       ?SetPos@CSpinButtonCtrl@@QAEHH@Z 5f40b366 f winctrl2.obj
 0001:0000a3cb       ?SetRange@CSpinButtonCtrl@@QAEXHH@Z 5f40b3cb f winctrl2.obj
 0001:0000a43b       ??0CSliderCtrl@@QAE@XZ     5f40b43b f winctrl2.obj
 0001:0000a4aa       ?GetLineSize@CSliderCtrl@@QBEHXZ 5f40b4aa f winctrl2.obj
 0001:0000a503       ?SetLineSize@CSliderCtrl@@QAEHH@Z 5f40b503 f winctrl2.obj
 0001:0000a560       ?GetPageSize@CSliderCtrl@@QBEHXZ 5f40b560 f winctrl2.obj
 0001:0000a5b9       ?SetPageSize@CSliderCtrl@@QAEHH@Z 5f40b5b9 f winctrl2.obj
 0001:0000a616       ?GetRangeMax@CSliderCtrl@@QBEHXZ 5f40b616 f winctrl2.obj
 0001:0000a66f       ?GetRangeMin@CSliderCtrl@@QBEHXZ 5f40b66f f winctrl2.obj
 0001:0000a6c8       ?SetRangeMin@CSliderCtrl@@QAEXHH@Z 5f40b6c8 f winctrl2.obj
 0001:0000a727       ?SetRangeMax@CSliderCtrl@@QAEXHH@Z 5f40b727 f winctrl2.obj
 0001:0000a786       ?ClearSel@CSliderCtrl@@QAEXH@Z 5f40b786 f winctrl2.obj
 0001:0000a7e3       ?GetChannelRect@CSliderCtrl@@QBEXPAUtagRECT@@@Z 5f40b7e3 f winctrl2.obj
 0001:0000a840       ?GetThumbRect@CSliderCtrl@@QBEXPAUtagRECT@@@Z 5f40b840 f winctrl2.obj
 0001:0000a89d       ?GetPos@CSliderCtrl@@QBEHXZ 5f40b89d f winctrl2.obj
 0001:0000a8f6       ?SetPos@CSliderCtrl@@QAEXH@Z 5f40b8f6 f winctrl2.obj
 0001:0000a953       ?VerifyPos@CSliderCtrl@@QAEXXZ 5f40b953 f winctrl2.obj
 0001:0000a9ac       ?ClearTics@CSliderCtrl@@QAEXH@Z 5f40b9ac f winctrl2.obj
 0001:0000aa09       ?GetNumTics@CSliderCtrl@@QBEIXZ 5f40ba09 f winctrl2.obj
 0001:0000aa62       ?GetTicArray@CSliderCtrl@@QBEPAKXZ 5f40ba62 f winctrl2.obj
 0001:0000aabb       ?GetTic@CSliderCtrl@@QBEHH@Z 5f40babb f winctrl2.obj
 0001:0000ab18       ?GetTicPos@CSliderCtrl@@QBEHH@Z 5f40bb18 f winctrl2.obj
 0001:0000ab75       ?SetTic@CSliderCtrl@@QAEHH@Z 5f40bb75 f winctrl2.obj
 0001:0000abd2       ?SetTicFreq@CSliderCtrl@@QAEXH@Z 5f40bbd2 f winctrl2.obj
 0001:0000ac2f       ??0CProgressCtrl@@QAE@XZ   5f40bc2f f winctrl2.obj
 0001:0000ac9e       ?SetRange@CProgressCtrl@@QAEXHH@Z 5f40bc9e f winctrl2.obj
 0001:0000ad0e       ?SetPos@CProgressCtrl@@QAEHH@Z 5f40bd0e f winctrl2.obj
 0001:0000ad6e       ?OffsetPos@CProgressCtrl@@QAEHH@Z 5f40bd6e f winctrl2.obj
 0001:0000adce       ?SetStep@CProgressCtrl@@QAEHH@Z 5f40bdce f winctrl2.obj
 0001:0000ae2e       ?StepIt@CProgressCtrl@@QAEHXZ 5f40be2e f winctrl2.obj
 0001:0000ae8a       ??0CHeaderCtrl@@QAE@XZ     5f40be8a f winctrl2.obj
 0001:0000aef9       ?GetItemCount@CHeaderCtrl@@QBEHXZ 5f40bef9 f winctrl2.obj
 0001:0000af52       ?InsertItem@CHeaderCtrl@@QAEHHPAU_HD_ITEMW@@@Z 5f40bf52 f winctrl2.obj
 0001:0000afb1       ?DeleteItem@CHeaderCtrl@@QAEHH@Z 5f40bfb1 f winctrl2.obj
 0001:0000b00e       ?GetItem@CHeaderCtrl@@QBEHHPAU_HD_ITEMW@@@Z 5f40c00e f winctrl2.obj
 0001:0000b06d       ?SetItem@CHeaderCtrl@@QAEHHPAU_HD_ITEMW@@@Z 5f40c06d f winctrl2.obj
 0001:0000b0cc       ?Layout@CHeaderCtrl@@QAEHPAU_HD_LAYOUT@@@Z 5f40c0cc f winctrl2.obj
 0001:0000b129       ??BCImageList@@QBEPAU_IMAGELIST@@XZ 5f40c129 f winctrl2.obj
 0001:0000b145       ?GetSafeHandle@CImageList@@QBEPAU_IMAGELIST@@XZ 5f40c145 f winctrl2.obj
 0001:0000b172       ?GetImageCount@CImageList@@QBEHXZ 5f40c172 f winctrl2.obj
 0001:0000b1ba       ?Add@CImageList@@QAEHPAVCBitmap@@0@Z 5f40c1ba f winctrl2.obj
 0001:0000b216       ?Add@CImageList@@QAEHPAVCBitmap@@K@Z 5f40c216 f winctrl2.obj
 0001:0000b26d       ?Remove@CImageList@@QAEHH@Z 5f40c26d f winctrl2.obj
 0001:0000b2bb       ?Replace@CImageList@@QAEHHPAVCBitmap@@0@Z 5f40c2bb f winctrl2.obj
 0001:0000b31b       ?Add@CImageList@@QAEHPAUHICON__@@@Z 5f40c31b f winctrl2.obj
 0001:0000b36b       ?Replace@CImageList@@QAEHHPAUHICON__@@@Z 5f40c36b f winctrl2.obj
 0001:0000b3bd       ?ExtractIconW@CImageList@@QAEPAUHICON__@@H@Z 5f40c3bd f winctrl2.obj
 0001:0000b40d       ?Draw@CImageList@@QAEHPAVCDC@@HUtagPOINT@@I@Z 5f40c40d f winctrl2.obj
 0001:0000b492       ?SetBkColor@CImageList@@QAEKK@Z 5f40c492 f winctrl2.obj
 0001:0000b4e0       ?GetBkColor@CImageList@@QBEKXZ 5f40c4e0 f winctrl2.obj
 0001:0000b528       ?SetOverlayImage@CImageList@@QAEHHH@Z 5f40c528 f winctrl2.obj
 0001:0000b57a       ?GetImageInfo@CImageList@@QBEHHPAU_IMAGEINFO@@@Z 5f40c57a f winctrl2.obj
 0001:0000b5cc       ?BeginDrag@CImageList@@QAEHHVCPoint@@@Z 5f40c5cc f winctrl2.obj
 0001:0000b622       ?EndDrag@CImageList@@SGXXZ 5f40c622 f winctrl2.obj
 0001:0000b638       ?DragMove@CImageList@@SGHVCPoint@@@Z 5f40c638 f winctrl2.obj
 0001:0000b658       ?SetDragCursorImage@CImageList@@QAEHHVCPoint@@@Z 5f40c658 f winctrl2.obj
 0001:0000b6ae       ?DragShowNolock@CImageList@@SGHH@Z 5f40c6ae f winctrl2.obj
 0001:0000b6ca       ?GetDragImage@CImageList@@SGPAV1@PAUtagPOINT@@0@Z 5f40c6ca f winctrl2.obj
 0001:0000b6f0       ?DragEnter@CImageList@@SGHPAVCWnd@@VCPoint@@@Z 5f40c6f0 f winctrl2.obj
 0001:0000b719       ?DragLeave@CImageList@@SGHPAVCWnd@@@Z 5f40c719 f winctrl2.obj
 0001:0000b73a       ??0CTabCtrl@@QAE@XZ        5f40c73a f winctrl2.obj
 0001:0000b7a9       ?GetImageList@CTabCtrl@@QBEPAVCImageList@@XZ 5f40c7a9 f winctrl2.obj
 0001:0000b808       ?SetImageList@CTabCtrl@@QAEPAVCImageList@@PAV2@@Z 5f40c808 f winctrl2.obj
 0001:0000b870       ?GetItemCount@CTabCtrl@@QBEHXZ 5f40c870 f winctrl2.obj
 0001:0000b8c9       ?GetItem@CTabCtrl@@QBEHHPAUtagTCITEMW@@@Z 5f40c8c9 f winctrl2.obj
 0001:0000b928       ?SetItem@CTabCtrl@@QAEHHPAUtagTCITEMW@@@Z 5f40c928 f winctrl2.obj
 0001:0000b987       ?InsertItem@CTabCtrl@@QAEHHPAUtagTCITEMW@@@Z 5f40c987 f winctrl2.obj
 0001:0000b9e6       ?DeleteItem@CTabCtrl@@QAEHH@Z 5f40c9e6 f winctrl2.obj
 0001:0000ba43       ?DeleteAllItems@CTabCtrl@@QAEHXZ 5f40ca43 f winctrl2.obj
 0001:0000ba9c       ?GetItemRect@CTabCtrl@@QBEHHPAUtagRECT@@@Z 5f40ca9c f winctrl2.obj
 0001:0000bafb       ?GetCurSel@CTabCtrl@@QBEHXZ 5f40cafb f winctrl2.obj
 0001:0000bb54       ?SetCurSel@CTabCtrl@@QAEHH@Z 5f40cb54 f winctrl2.obj
 0001:0000bbb1       ?HitTest@CTabCtrl@@QBEHPAUtagTCHITTESTINFO@@@Z 5f40cbb1 f winctrl2.obj
 0001:0000bc0e       ?AdjustRect@CTabCtrl@@QAEXHPAUtagRECT@@@Z 5f40cc0e f winctrl2.obj
 0001:0000bc6d       ?SetItemSize@CTabCtrl@@QAE?AVCSize@@V2@@Z 5f40cc6d f winctrl2.obj
 0001:0000bce9       ?RemoveImage@CTabCtrl@@QAEXH@Z 5f40cce9 f winctrl2.obj
 0001:0000bd46       ?SetPadding@CTabCtrl@@QAEXVCSize@@@Z 5f40cd46 f winctrl2.obj
 0001:0000bdb6       ?GetRowCount@CTabCtrl@@QBEHXZ 5f40cdb6 f winctrl2.obj
 0001:0000be0f       ?GetTooltips@CTabCtrl@@QBEPAVCToolTipCtrl@@XZ 5f40ce0f f winctrl2.obj
 0001:0000be6e       ?SetTooltips@CTabCtrl@@QAEXPAVCToolTipCtrl@@@Z 5f40ce6e f winctrl2.obj
 0001:0000bece       ?GetCurFocus@CTabCtrl@@QBEHXZ 5f40cece f winctrl2.obj
 0001:0000bf27       ??0CAnimateCtrl@@QAE@XZ    5f40cf27 f winctrl2.obj
 0001:0000bf96       ?Open@CAnimateCtrl@@QAEHPBG@Z 5f40cf96 f winctrl2.obj
 0001:0000bff3       ?Open@CAnimateCtrl@@QAEHI@Z 5f40cff3 f winctrl2.obj
 0001:0000c050       ?Play@CAnimateCtrl@@QAEHIII@Z 5f40d050 f winctrl2.obj
 0001:0000c0c2       ?Stop@CAnimateCtrl@@QAEHXZ 5f40d0c2 f winctrl2.obj
 0001:0000c11b       ?Close@CAnimateCtrl@@QAEHXZ 5f40d11b f winctrl2.obj
 0001:0000c174       ?Seek@CAnimateCtrl@@QAEHI@Z 5f40d174 f winctrl2.obj
 0001:0000c1e4       ??0CRichEditCtrl@@QAE@XZ   5f40d1e4 f winctrl2.obj
 0001:0000c253       ?CanUndo@CRichEditCtrl@@QBEHXZ 5f40d253 f winctrl2.obj
 0001:0000c2ac       ?GetLineCount@CRichEditCtrl@@QBEHXZ 5f40d2ac f winctrl2.obj
 0001:0000c305       ?GetModify@CRichEditCtrl@@QBEHXZ 5f40d305 f winctrl2.obj
 0001:0000c35e       ?SetModify@CRichEditCtrl@@QAEXH@Z 5f40d35e f winctrl2.obj
 0001:0000c3bb       ?GetRect@CRichEditCtrl@@QBEXPAUtagRECT@@@Z 5f40d3bb f winctrl2.obj
 0001:0000c418       ?GetCharPos@CRichEditCtrl@@QBE?AVCPoint@@J@Z 5f40d418 f winctrl2.obj
 0001:0000c490       ?SetOptions@CRichEditCtrl@@QAEXGK@Z 5f40d490 f winctrl2.obj
 0001:0000c4f4       ?EmptyUndoBuffer@CRichEditCtrl@@QAEXXZ 5f40d4f4 f winctrl2.obj
 0001:0000c54d       ?ReplaceSel@CRichEditCtrl@@QAEXPBGH@Z 5f40d54d f winctrl2.obj
 0001:0000c5ac       ?SetRect@CRichEditCtrl@@QAEXPBUtagRECT@@@Z 5f40d5ac f winctrl2.obj
 0001:0000c609       ?Undo@CRichEditCtrl@@QAEHXZ 5f40d609 f winctrl2.obj
 0001:0000c662       ?Clear@CRichEditCtrl@@QAEXXZ 5f40d662 f winctrl2.obj
 0001:0000c6bb       ?Copy@CRichEditCtrl@@QAEXXZ 5f40d6bb f winctrl2.obj
 0001:0000c714       ?Cut@CRichEditCtrl@@QAEXXZ 5f40d714 f winctrl2.obj
 0001:0000c76d       ?Paste@CRichEditCtrl@@QAEXXZ 5f40d76d f winctrl2.obj
 0001:0000c7c6       ?SetReadOnly@CRichEditCtrl@@QAEHH@Z 5f40d7c6 f winctrl2.obj
 0001:0000c823       ?GetFirstVisibleLine@CRichEditCtrl@@QBEHXZ 5f40d823 f winctrl2.obj
 0001:0000c87c       ?DisplayBand@CRichEditCtrl@@QAEHPAUtagRECT@@@Z 5f40d87c f winctrl2.obj
 0001:0000c8d9       ?GetSel@CRichEditCtrl@@QBEXAAU_charrange@@@Z 5f40d8d9 f winctrl2.obj
 0001:0000c936       ?LimitText@CRichEditCtrl@@QAEXJ@Z 5f40d936 f winctrl2.obj
 0001:0000c993       ?LineFromChar@CRichEditCtrl@@QBEJJ@Z 5f40d993 f winctrl2.obj
 0001:0000c9f0       ?SetSel@CRichEditCtrl@@QAEXAAU_charrange@@@Z 5f40d9f0 f winctrl2.obj
 0001:0000ca4d       ?FindTextW@CRichEditCtrl@@QBEJKPAU_findtextexw@@@Z 5f40da4d f winctrl2.obj
 0001:0000caac       ?FormatRange@CRichEditCtrl@@QAEJPAU_formatrange@@H@Z 5f40daac f winctrl2.obj
 0001:0000cb0b       ?GetEventMask@CRichEditCtrl@@QBEJXZ 5f40db0b f winctrl2.obj
 0001:0000cb64       ?GetLimitText@CRichEditCtrl@@QBEJXZ 5f40db64 f winctrl2.obj
 0001:0000cbbd       ?GetSelText@CRichEditCtrl@@QBEJPAD@Z 5f40dbbd f winctrl2.obj
 0001:0000cc1a       ?HideSelection@CRichEditCtrl@@QAEXHH@Z 5f40dc1a f winctrl2.obj
 0001:0000cc79       ?RequestResize@CRichEditCtrl@@QAEXXZ 5f40dc79 f winctrl2.obj
 0001:0000ccd2       ?GetSelectionType@CRichEditCtrl@@QBEGXZ 5f40dcd2 f winctrl2.obj
 0001:0000cd2b       ?SetBackgroundColor@CRichEditCtrl@@QAEKHK@Z 5f40dd2b f winctrl2.obj
 0001:0000cd8a       ?SetEventMask@CRichEditCtrl@@QAEKK@Z 5f40dd8a f winctrl2.obj
 0001:0000cde7       ?SetOLECallback@CRichEditCtrl@@QAEHPAUIRichEditOleCallback@@@Z 5f40dde7 f winctrl2.obj
 0001:0000ce44       ?SetTargetDevice@CRichEditCtrl@@QAEHPAUHDC__@@J@Z 5f40de44 f winctrl2.obj
 0001:0000cea3       ?SetTargetDevice@CRichEditCtrl@@QAEHAAVCDC@@J@Z 5f40dea3 f winctrl2.obj
 0001:0000cf05       ?StreamIn@CRichEditCtrl@@QAEJHAAU_editstream@@@Z 5f40df05 f winctrl2.obj
 0001:0000cf64       ?StreamOut@CRichEditCtrl@@QAEJHAAU_editstream@@@Z 5f40df64 f winctrl2.obj
 0001:0000cfc3       ?GetTextLength@CRichEditCtrl@@QBEJXZ 5f40dfc3 f winctrl2.obj
 0001:0000d020       ??_GCDragListBox@@UAEPAXI@Z 5f40e020 f winctrl2.obj
 0001:0000d060       ??_GCToolBarCtrl@@UAEPAXI@Z 5f40e060 f winctrl2.obj
 0001:0000d0a0       ??_GCStatusBarCtrl@@UAEPAXI@Z 5f40e0a0 f winctrl2.obj
 0001:0000d0e0       ??_GCListCtrl@@UAEPAXI@Z   5f40e0e0 f winctrl2.obj
 0001:0000d120       ??_GCTreeCtrl@@UAEPAXI@Z   5f40e120 f winctrl2.obj
 0001:0000d160       ??_GCSpinButtonCtrl@@UAEPAXI@Z 5f40e160 f winctrl2.obj
 0001:0000d1a0       ??_GCSliderCtrl@@UAEPAXI@Z 5f40e1a0 f winctrl2.obj
 0001:0000d1e0       ??_GCProgressCtrl@@UAEPAXI@Z 5f40e1e0 f winctrl2.obj
 0001:0000d220       ??_GCHeaderCtrl@@UAEPAXI@Z 5f40e220 f winctrl2.obj
 0001:0000d260       ??_GCHotKeyCtrl@@UAEPAXI@Z 5f40e260 f winctrl2.obj
 0001:0000d2a0       ??_GCTabCtrl@@UAEPAXI@Z    5f40e2a0 f winctrl2.obj
 0001:0000d2e0       ??_GCAnimateCtrl@@UAEPAXI@Z 5f40e2e0 f winctrl2.obj
 0001:0000d320       ??_GCRichEditCtrl@@UAEPAXI@Z 5f40e320 f winctrl2.obj
 0001:0000d360       ??_GCImageList@@UAEPAXI@Z  5f40e360 f winctrl2.obj
 0001:0000d3a0       ??0AFX_CHECK_DATA@@QAE@XZ  5f40e3a0 f winctrl3.obj
 0001:0000d3e0       ??B?$CProcessLocal@V_AFX_CHECKLIST_STATE@@@@QAEPAV_AFX_CHECKLIST_STATE@@XZ 5f40e3e0 f winctrl3.obj
 0001:0000d400       ?GetData@?$CProcessLocal@V_AFX_CHECKLIST_STATE@@@@QAEPAV_AFX_CHECKLIST_STATE@@XZ 5f40e400 f winctrl3.obj
 0001:0000d450       ?CreateObject@?$CProcessLocal@V_AFX_CHECKLIST_STATE@@@@SGPAVCNoTrackObject@@XZ 5f40e450 f winctrl3.obj
 0001:0000d4e0       ??1_AFX_RICHEDIT_STATE@@UAE@XZ 5f40e4e0 f winctrl4.obj
 0001:0000d562       ?AfxGetRichEditState@@YAPAV_AFX_RICHEDIT_STATE@@XZ 5f40e562 f winctrl4.obj
 0001:0000d57c       ?Create@CRichEditCtrl@@QAEHKABUtagRECT@@PAVCWnd@@I@Z 5f40e57c f winctrl4.obj
 0001:0000d5fd       ?GetLine@CRichEditCtrl@@QBEHHPAG@Z 5f40e5fd f winctrl4.obj
 0001:0000d659       ?LineIndex@CRichEditCtrl@@QBEHH@Z 5f40e659 f winctrl4.obj
 0001:0000d6b3       ?LineLength@CRichEditCtrl@@QBEHH@Z 5f40e6b3 f winctrl4.obj
 0001:0000d70d       ?LineScroll@CRichEditCtrl@@QAEXHH@Z 5f40e70d f winctrl4.obj
 0001:0000d769       ?SetSel@CRichEditCtrl@@QAEXJJ@Z 5f40e769 f winctrl4.obj
 0001:0000d7cf       ?CanPaste@CRichEditCtrl@@QBEHI@Z 5f40e7cf f winctrl4.obj
 0001:0000d861       ?PasteSpecial@CRichEditCtrl@@QAEXIKPAUHMETAFILE__@@@Z 5f40e861 f winctrl4.obj
 0001:0000d8c9       ?GetLine@CRichEditCtrl@@QBEHHPAGH@Z 5f40e8c9 f winctrl4.obj
 0001:0000d930       ?GetSel@CRichEditCtrl@@QBEXAAJ0@Z 5f40e930 f winctrl4.obj
 0001:0000d99d       ?GetSelText@CRichEditCtrl@@QBE?AVCString@@XZ 5f40e99d f winctrl4.obj
 0001:0000da96       ?GetIRichEditOle@CRichEditCtrl@@QBEPAUIRichEditOle@@XZ 5f40ea96 f winctrl4.obj
 0001:0000dafb       ?SetDefaultCharFormat@CRichEditCtrl@@QAEHAAU_charformatw@@@Z 5f40eafb f winctrl4.obj
 0001:0000db61       ?SetSelectionCharFormat@CRichEditCtrl@@QAEHAAU_charformatw@@@Z 5f40eb61 f winctrl4.obj
 0001:0000dbc7       ?SetWordCharFormat@CRichEditCtrl@@QAEHAAU_charformatw@@@Z 5f40ebc7 f winctrl4.obj
 0001:0000dc2d       ?GetDefaultCharFormat@CRichEditCtrl@@QBEKAAU_charformatw@@@Z 5f40ec2d f winctrl4.obj
 0001:0000dc93       ?GetSelectionCharFormat@CRichEditCtrl@@QBEKAAU_charformatw@@@Z 5f40ec93 f winctrl4.obj
 0001:0000dcf9       ?GetParaFormat@CRichEditCtrl@@QBEKAAU_paraformat@@@Z 5f40ecf9 f winctrl4.obj
 0001:0000dd5f       ?SetParaFormat@CRichEditCtrl@@QAEHAAU_paraformat@@@Z 5f40ed5f f winctrl4.obj
 0001:0000de30       ??1?$CProcessLocal@V_AFX_RICHEDIT_STATE@@@@QAE@XZ 5f40ee30 f winctrl4.obj
 0001:0000de90       ?GetData@?$CProcessLocal@V_AFX_RICHEDIT_STATE@@@@QAEPAV_AFX_RICHEDIT_STATE@@XZ 5f40ee90 f winctrl4.obj
 0001:0000dee0       ??B?$CProcessLocal@V_AFX_RICHEDIT_STATE@@@@QAEPAV_AFX_RICHEDIT_STATE@@XZ 5f40eee0 f winctrl4.obj
 0001:0000df00       ?CreateObject@?$CProcessLocal@V_AFX_RICHEDIT_STATE@@@@SGPAVCNoTrackObject@@XZ 5f40ef00 f winctrl4.obj
 0001:0000df90       ??0_AFX_RICHEDIT_STATE@@QAE@XZ 5f40ef90 f winctrl4.obj
 0001:0000e000       ??_G_AFX_RICHEDIT_STATE@@UAEPAXI@Z 5f40f000 f winctrl4.obj
 0001:0000e000       ??_E_AFX_RICHEDIT_STATE@@UAEPAXI@Z 5f40f000 f winctrl4.obj
 0001:0000e040       ??_9@$BNA@AE               5f40f040 f dlgcore.obj
 0001:0000e050       ??_9@$BMM@AE               5f40f050 f dlgcore.obj
 0001:0000e060       ??C?$CProcessLocal@V_AFX_COLOR_STATE@@@@QAEPAV_AFX_COLOR_STATE@@XZ 5f40f060 f dlgclr.obj
 0001:0000e080       ?GetData@?$CProcessLocal@V_AFX_COLOR_STATE@@@@QAEPAV_AFX_COLOR_STATE@@XZ 5f40f080 f dlgclr.obj
 0001:0000e0d0       ?CreateObject@?$CProcessLocal@V_AFX_COLOR_STATE@@@@SGPAVCNoTrackObject@@XZ 5f40f0d0 f dlgclr.obj
 0001:0000e160       _FindTextW@4               5f40f160 f dlgfr.obj
 0001:0000e180       ?GetData@?$CProcessLocal@U_AFX_PROPPAGEFONTINFO@@@@QAEPAU_AFX_PROPPAGEFONTINFO@@XZ 5f40f180 f ccdata.obj
 0001:0000e1d0       ?CreateObject@?$CProcessLocal@U_AFX_PROPPAGEFONTINFO@@@@SGPAVCNoTrackObject@@XZ 5f40f1d0 f ccdata.obj
 0001:0000e260       ??0_AFX_PROPPAGEFONTINFO@@QAE@XZ 5f40f260 f ccdata.obj
 0001:0000e2f0       ??1_AFX_PROPPAGEFONTINFO@@UAE@XZ 5f40f2f0 f ccdata.obj
 0001:0000e370       ??C?$CProcessLocal@V_AFX_EXTDLL_STATE@@@@QAEPAV_AFX_EXTDLL_STATE@@XZ 5f40f370 f ccdata.obj
 0001:0000e390       ?GetData@?$CProcessLocal@V_AFX_EXTDLL_STATE@@@@QAEPAV_AFX_EXTDLL_STATE@@XZ 5f40f390 f ccdata.obj
 0001:0000e3e0       ?CreateObject@?$CProcessLocal@V_AFX_EXTDLL_STATE@@@@SGPAVCNoTrackObject@@XZ 5f40f3e0 f ccdata.obj
 0001:0000e470       ??0_AFX_EXTDLL_STATE@@QAE@XZ 5f40f470 f ccdata.obj
 0001:0000e4e0       ??_E_AFX_EXTDLL_STATE@@UAEPAXI@Z 5f40f4e0 f ccdata.obj
 0001:0000e4e0       ??_G_AFX_EXTDLL_STATE@@UAEPAXI@Z 5f40f4e0 f ccdata.obj
 0001:0000e520       ??1_AFX_WINGDIX_TERM@@QAE@XZ 5f40f520 f wingdix.obj
 0001:0000e540       ?IsEqualGUID@@YAHABU_GUID@@0@Z 5f40f540 f cmdtarg.obj
 0001:0000e580       ??0CNewTypeDlg@@QAE@PAVCPtrList@@@Z 5f40f580 f docmgr.obj
 0001:0000e610       ??1CNewTypeDlg@@UAE@XZ     5f40f610 f docmgr.obj
 0001:0000e680       ??_9@$BOI@AE               5f40f680 f viewcore.obj
 0001:0000e690       ??0CPrintingDialog@@QAE@PAVCWnd@@@Z 5f40f690 f viewprnt.obj
 0001:0000e730       ??1CPrintingDialog@@UAE@XZ 5f40f730 f viewprnt.obj
 0001:0000e7a0       ??C?$CProcessLocal@V_AFX_WIN_STATE@@@@QAEPAV_AFX_WIN_STATE@@XZ 5f40f7a0 f viewprnt.obj
 0001:0000e7c0       ??1_AFX_EDITVIEW_TERM@@QAE@XZ 5f40f7c0 f viewedit.obj
 0001:0000e7e0       ??B?$CProcessLocal@V_AFX_EDIT_STATE@@@@QAEPAV_AFX_EDIT_STATE@@XZ 5f40f7e0 f viewedit.obj
 0001:0000e800       ?GetData@?$CProcessLocal@V_AFX_EDIT_STATE@@@@QAEPAV_AFX_EDIT_STATE@@XZ 5f40f800 f viewedit.obj
 0001:0000e850       ?CreateObject@?$CProcessLocal@V_AFX_EDIT_STATE@@@@SGPAVCNoTrackObject@@XZ 5f40f850 f viewedit.obj
 0001:0000e8e0       __wcsdec                   5f40f8e0 f viewedit.obj
 0001:0000e900       ??B?$CProcessLocal@V_AFX_MAIL_STATE@@@@QAEPAV_AFX_MAIL_STATE@@XZ 5f40f900 f docmapi.obj
 0001:0000e920       ?GetData@?$CProcessLocal@V_AFX_MAIL_STATE@@@@QAEPAV_AFX_MAIL_STATE@@XZ 5f40f920 f docmapi.obj
 0001:0000e970       ?CreateObject@?$CProcessLocal@V_AFX_MAIL_STATE@@@@SGPAVCNoTrackObject@@XZ 5f40f970 f docmapi.obj
 0001:0000ea00       ??B?$CTypedSimpleList@PAVCFrameWnd@@@@QAEPAVCFrameWnd@@XZ 5f40fa00 f thrdcore.obj
 0001:0000ea20       ?GetDataNA@?$CThreadLocal@V_AFX_THREAD_STATE@@@@QAEPAV_AFX_THREAD_STATE@@XZ 5f40fa20 f thrdcore.obj
 0001:0000ea50       ??B?$CThreadLocal@V_AFX_CTL3D_THREAD@@@@QAEPAV_AFX_CTL3D_THREAD@@XZ 5f40fa50 f thrdcore.obj
 0001:0000ea70       ?GetData@?$CThreadLocal@V_AFX_CTL3D_THREAD@@@@QAEPAV_AFX_CTL3D_THREAD@@XZ 5f40fa70 f thrdcore.obj
 0001:0000eac0       ?CreateObject@?$CThreadLocal@V_AFX_CTL3D_THREAD@@@@SGPAVCNoTrackObject@@XZ 5f40fac0 f thrdcore.obj
 0001:0000eb50       ??0_AFX_CTL3D_THREAD@@QAE@XZ 5f40fb50 f thrdcore.obj
 0001:0000ebc0       ??_E_AFX_CTL3D_THREAD@@UAEPAXI@Z 5f40fbc0 f thrdcore.obj
 0001:0000ebc0       ??_G_AFX_CTL3D_THREAD@@UAEPAXI@Z 5f40fbc0 f thrdcore.obj
 0001:0000ec00       ?GetSize@CRecentFileList@@QBEHXZ 5f40fc00 f appcore.obj
 0001:0000ec20       ??ACRecentFileList@@QAEAAVCString@@H@Z 5f40fc20 f appcore.obj
 0001:0000ec70       ?AfxParseURL@@YGHPBGAAKAAVCString@@2AAG@Z 5f40fc70 f inet.obj
 0001:0000ef06       ?AfxGetInternetHandleType@@YGKPAX@Z 5f40ff06 f inet.obj
 0001:0000ef5a       ?AfxInternetStatusCallbackDebug@@YGXPAXKK0K@Z 5f40ff5a f inet.obj
 0001:0000f198       ?AfxInternetStatusCallback@@YGXPAXKK0K@Z 5f410198 f inet.obj
 0001:0000f208       ??1CInternetSession@@UAE@XZ 5f410208 f inet.obj
 0001:0000f278       ??0CInternetSession@@QAE@PBGKK00K@Z 5f410278 f inet.obj
 0001:0000f36d       ?Close@CInternetSession@@UAEXXZ 5f41036d f inet.obj
 0001:0000f3cf       ?GetGopherConnection@CInternetSession@@QAEPAVCGopherConnection@@PBG00G@Z 5f4103cf f inet.obj
 0001:0000f499       ?GetFtpConnection@CInternetSession@@QAEPAVCFtpConnection@@PBG00GH@Z 5f410499 f inet.obj
 0001:0000f567       ?GetHttpConnection@CInternetSession@@QAEPAVCHttpConnection@@PBGG00@Z 5f410567 f inet.obj
 0001:0000f631       ?OpenURL@CInternetSession@@QAEPAVCStdioFile@@PBGKK0K@Z 5f410631 f inet.obj
 0001:0000f99e       ?SetOption@CInternetSession@@QAEHKPAXKK@Z 5f41099e f inet.obj
 0001:0000fa74       ?QueryOption@CInternetSession@@QBEHKPAXPAK@Z 5f410a74 f inet.obj
 0001:0000fb39       ?QueryOption@CInternetSession@@QBEHKAAK@Z 5f410b39 f inet.obj
 0001:0000fb71       ?QueryOption@CInternetSession@@QBEHKAAVCString@@@Z 5f410b71 f inet.obj
 0001:0000fc66       ?OnStatusCallback@CInternetSession@@UAEXKKPAXK@Z 5f410c66 f inet.obj
 0001:0000fccd       ?EnableStatusCallback@CInternetSession@@QAEHH@Z 5f410ccd f inet.obj
 0001:0000fe03       ?Dump@CInternetSession@@UBEXAAVCDumpContext@@@Z 5f410e03 f inet.obj
 0001:0000fe5d       ??0CInternetFile@@IAE@PAX0PBG1KH@Z 5f410e5d f inet.obj
 0001:0000ffe0       ??0CInternetFile@@IAE@PAXPBGPAVCInternetConnection@@H@Z 5f410fe0 f inet.obj
 0001:0001019f       ?QueryOption@CInternetFile@@QBEHKPAXPAK@Z 5f41119f f inet.obj
 0001:00010289       ?QueryOption@CInternetFile@@QBEHKAAK@Z 5f411289 f inet.obj
 0001:000102e6       ?QueryOption@CInternetFile@@QBEHKAAVCString@@@Z 5f4112e6 f inet.obj
 0001:00010366       ?SetOption@CInternetFile@@QAEHKPAXKK@Z 5f411366 f inet.obj
 0001:0001043c       ?SetReadBufferSize@CInternetFile@@QAEHI@Z 5f41143c f inet.obj
 0001:0001055c       ?SetWriteBufferSize@CInternetFile@@QAEHI@Z 5f41155c f inet.obj
 0001:00010668       ?Seek@CInternetFile@@UAEJJI@Z 5f411668 f inet.obj
 0001:000107c1       ??1CInternetFile@@UAE@XZ   5f4117c1 f inet.obj
 0001:0001092b       ?Abort@CInternetFile@@UAEXXZ 5f41192b f inet.obj
 0001:00010977       ?Flush@CInternetFile@@UAEXXZ 5f411977 f inet.obj
 0001:00010a03       ?Close@CInternetFile@@UAEXXZ 5f411a03 f inet.obj
 0001:00010abd       ?Read@CInternetFile@@UAEIPAXI@Z 5f411abd f inet.obj
 0001:00010d41       ?Write@CInternetFile@@UAEXPBXI@Z 5f411d41 f inet.obj
 0001:00010ef6       ?WriteString@CInternetFile@@UAEXPBG@Z 5f411ef6 f inet.obj
 0001:00010fc2       ?ReadString@CInternetFile@@UAEPAGPAGI@Z 5f411fc2 f inet.obj
 0001:0001118b       ?ReadString@CInternetFile@@UAEHAAVCString@@@Z 5f41218b f inet.obj
 0001:000112f5       ?GetLength@CInternetFile@@UBEKXZ 5f4122f5 f inet.obj
 0001:0001137e       ?LockRange@CInternetFile@@UAEXKK@Z 5f41237e f inet.obj
 0001:000113d3       ?UnlockRange@CInternetFile@@UAEXKK@Z 5f4123d3 f inet.obj
 0001:00011428       ?SetLength@CInternetFile@@UAEXK@Z 5f412428 f inet.obj
 0001:0001147d       ?Duplicate@CInternetFile@@UBEPAVCFile@@XZ 5f41247d f inet.obj
 0001:000114d2       ?AssertValid@CInternetFile@@MBEXXZ 5f4124d2 f inet.obj
 0001:000115fd       ?Dump@CInternetFile@@MBEXAAVCDumpContext@@@Z 5f4125fd f inet.obj
 0001:0001165d       ??0CInternetConnection@@QAE@PAVCInternetSession@@PBGGK@Z 5f41265d f inet.obj
 0001:00011780       ??1CInternetConnection@@UAE@XZ 5f412780 f inet.obj
 0001:000118a1       ?SetOption@CInternetConnection@@QAEHKPAXKK@Z 5f4128a1 f inet.obj
 0001:00011977       ?QueryOption@CInternetConnection@@QBEHKPAXPAK@Z 5f412977 f inet.obj
 0001:00011a3c       ?QueryOption@CInternetConnection@@QBEHKAAK@Z 5f412a3c f inet.obj
 0001:00011a74       ?QueryOption@CInternetConnection@@QBEHKAAVCString@@@Z 5f412a74 f inet.obj
 0001:00011acf       ?Close@CInternetConnection@@MAEXXZ 5f412acf f inet.obj
 0001:00011b1a       ?Dump@CInternetConnection@@UBEXAAVCDumpContext@@@Z 5f412b1a f inet.obj
 0001:00011b59       ?AssertValid@CInternetConnection@@UBEXXZ 5f412b59 f inet.obj
 0001:00011b77       ??1CFtpConnection@@UAE@XZ  5f412b77 f inet.obj
 0001:00011bf8       ??0CFtpConnection@@QAE@PAVCInternetSession@@PAXPBGK@Z 5f412bf8 f inet.obj
 0001:00011d4b       ??0CFtpConnection@@QAE@PAVCInternetSession@@PBG11KGH@Z 5f412d4b f inet.obj
 0001:00011ec2       ?Close@CFtpConnection@@UAEXXZ 5f412ec2 f inet.obj
 0001:00011ee0       ?Remove@CFtpConnection@@QAEHPBG@Z 5f412ee0 f inet.obj
 0001:00011f41       ?Rename@CFtpConnection@@QAEHPBG0@Z 5f412f41 f inet.obj
 0001:00011fa6       ?CreateDirectoryW@CFtpConnection@@QAEHPBG@Z 5f412fa6 f inet.obj
 0001:00012007       ?RemoveDirectoryW@CFtpConnection@@QAEHPBG@Z 5f413007 f inet.obj
 0001:00012068       ?SetCurrentDirectoryW@CFtpConnection@@QAEHPBG@Z 5f413068 f inet.obj
 0001:000120c9       ?GetCurrentDirectoryW@CFtpConnection@@QBEHPAGPAK@Z 5f4130c9 f inet.obj
 0001:00012150       ?GetCurrentDirectoryAsURL@CFtpConnection@@QBEHAAVCString@@@Z 5f413150 f inet.obj
 0001:00012277       ?GetCurrentDirectoryAsURL@CFtpConnection@@QBEHPAGPAK@Z 5f413277 f inet.obj
 0001:00012377       ?GetCurrentDirectoryW@CFtpConnection@@QBEHAAVCString@@@Z 5f413377 f inet.obj
 0001:0001241d       ?OpenFile@CFtpConnection@@QAEPAVCInternetFile@@PBGKKK@Z 5f41341d f inet.obj
 0001:0001259d       ?PutFile@CFtpConnection@@QAEHPBG0KK@Z 5f41359d f inet.obj
 0001:00012661       ?GetFile@CFtpConnection@@QAEHPBG0HKKK@Z 5f413661 f inet.obj
 0001:0001274f       ?Dump@CFtpConnection@@UBEXAAVCDumpContext@@@Z 5f41374f f inet.obj
 0001:0001278d       ?AssertValid@CFtpConnection@@UBEXXZ 5f41378d f inet.obj
 0001:00012802       ??1CGopherConnection@@UAE@XZ 5f413802 f inet.obj
 0001:0001286a       ??0CGopherConnection@@QAE@PAVCInternetSession@@PBG11KG@Z 5f41386a f inet.obj
 0001:000129c4       ??0CGopherConnection@@QAE@PAVCInternetSession@@PAXPBGK@Z 5f4139c4 f inet.obj
 0001:00012b0a       ?CreateLocator@CGopherConnection@@SA?AVCGopherLocator@@PBG@Z 5f413b0a f inet.obj
 0001:00012ba6       ?CreateLocator@CGopherConnection@@SA?AVCGopherLocator@@PBG00KG@Z 5f413ba6 f inet.obj
 0001:00012c84       ?CreateLocator@CGopherConnection@@QAE?AVCGopherLocator@@PBG0K@Z 5f413c84 f inet.obj
 0001:00012d84       ?GetAttribute@CGopherConnection@@QAEHAAVCGopherLocator@@VCString@@AAV3@@Z 5f413d84 f inet.obj
 0001:00012e5e       ?OpenFile@CGopherConnection@@QAEPAVCGopherFile@@AAVCGopherLocator@@KPBGK@Z 5f413e5e f inet.obj
 0001:00012f7c       ?Close@CGopherConnection@@UAEXXZ 5f413f7c f inet.obj
 0001:00012f9a       ?Dump@CGopherConnection@@UBEXAAVCDumpContext@@@Z 5f413f9a f inet.obj
 0001:00012fd8       ?AssertValid@CGopherConnection@@UBEXXZ 5f413fd8 f inet.obj
 0001:0001304d       ??1CHttpConnection@@UAE@XZ 5f41404d f inet.obj
 0001:000130ce       ??0CHttpConnection@@QAE@PAVCInternetSession@@PAXPBGK@Z 5f4140ce f inet.obj
 0001:0001322f       ??0CHttpConnection@@QAE@PAVCInternetSession@@PBGG11K@Z 5f41422f f inet.obj
 0001:00013382       ?Close@CHttpConnection@@UAEXXZ 5f414382 f inet.obj
 0001:000133a0       ?OpenRequest@CHttpConnection@@QAEPAVCHttpFile@@PBG00KPAPBG0K@Z 5f4143a0 f inet.obj
 0001:000134c5       ?OpenRequest@CHttpConnection@@QAEPAVCHttpFile@@HPBG0KPAPBG0K@Z 5f4144c5 f inet.obj
 0001:00013592       ?Dump@CHttpConnection@@UBEXAAVCDumpContext@@@Z 5f414592 f inet.obj
 0001:000135d0       ?AssertValid@CHttpConnection@@UBEXXZ 5f4145d0 f inet.obj
 0001:00013645       ??0CHttpFile@@IAE@PAX0PBG11K@Z 5f414645 f inet.obj
 0001:00013728       ??0CHttpFile@@IAE@PAXPBG1PAVCHttpConnection@@@Z 5f414728 f inet.obj
 0001:00013838       ??1CHttpFile@@UAE@XZ       5f414838 f inet.obj
 0001:000138d2       ?Close@CHttpFile@@UAEXXZ   5f4148d2 f inet.obj
 0001:000138f0       ?ErrorDlg@CHttpFile@@QAEKPAVCWnd@@KKPAPAX@Z 5f4148f0 f inet.obj
 0001:00013975       ?GetVerb@CHttpFile@@QBE?AVCString@@XZ 5f414975 f inet.obj
 0001:00013a1e       ?GetObjectW@CHttpFile@@QBE?AVCString@@XZ 5f414a1e f inet.obj
 0001:00013ac7       ?GetFileURL@CHttpFile@@UBE?AVCString@@XZ 5f414ac7 f inet.obj
 0001:00013c04       ?AddRequestHeaders@CHttpFile@@QAEHPBGKH@Z 5f414c04 f inet.obj
 0001:00013cc9       ?AddRequestHeaders@CHttpFile@@QAEHAAVCString@@K@Z 5f414cc9 f inet.obj
 0001:00013cff       ?SendRequest@CHttpFile@@QAEHPBGKPAXK@Z 5f414cff f inet.obj
 0001:00013de2       ?SendRequest@CHttpFile@@QAEHAAVCString@@PAXK@Z 5f414de2 f inet.obj
 0001:00013e80       ?QueryInfo@CHttpFile@@QBEHKPAXPAK1@Z 5f414e80 f inet.obj
 0001:00013f47       ?QueryInfo@CHttpFile@@QBEHKPAU_SYSTEMTIME@@PAK@Z 5f414f47 f inet.obj
 0001:00013fa0       ?QueryInfoStatusCode@CHttpFile@@QBEHAAK@Z 5f414fa0 f inet.obj
 0001:00014047       ?QueryInfo@CHttpFile@@QBEHKAAVCString@@PAK@Z 5f415047 f inet.obj
 0001:00014156       ?Dump@CHttpFile@@MBEXAAVCDumpContext@@@Z 5f415156 f inet.obj
 0001:000141a2       ?AssertValid@CHttpFile@@MBEXXZ 5f4151a2 f inet.obj
 0001:000141c0       ??0CGopherFile@@IAE@PAXAAVCGopherLocator@@PAVCGopherConnection@@@Z 5f4151c0 f inet.obj
 0001:00014294       ??0CGopherFile@@IAE@PAX0PBGKK@Z 5f415294 f inet.obj
 0001:00014340       ??1CGopherFile@@UAE@XZ     5f415340 f inet.obj
 0001:000143c1       ?Close@CGopherFile@@UAEXXZ 5f4153c1 f inet.obj
 0001:000143df       ?Write@CGopherFile@@UAEXPBXI@Z 5f4153df f inet.obj
 0001:00014414       ?WriteString@CGopherFile@@UAEXPBG@Z 5f415414 f inet.obj
 0001:00014449       ?Dump@CGopherFile@@UBEXAAVCDumpContext@@@Z 5f415449 f inet.obj
 0001:0001446d       ?AssertValid@CGopherFile@@UBEXXZ 5f41546d f inet.obj
 0001:0001448b       ??0CFtpFileFind@@QAE@PAVCFtpConnection@@K@Z 5f41548b f inet.obj
 0001:0001457b       ??1CFtpFileFind@@UAE@XZ    5f41557b f inet.obj
 0001:000145e3       ?FindFile@CFtpFileFind@@UAEHPBGK@Z 5f4155e3 f inet.obj
 0001:00014809       ?FindNextFileW@CFtpFileFind@@UAEHXZ 5f415809 f inet.obj
 0001:000148bd       ?CloseContext@CFtpFileFind@@MAEXXZ 5f4158bd f inet.obj
 0001:00014904       ?GetFileURL@CFtpFileFind@@UBE?AVCString@@XZ 5f415904 f inet.obj
 0001:00014a41       ?Dump@CFtpFileFind@@UBEXAAVCDumpContext@@@Z 5f415a41 f inet.obj
 0001:00014a80       ?AssertValid@CFtpFileFind@@UBEXXZ 5f415a80 f inet.obj
 0001:00014a9e       ??0CGopherFileFind@@QAE@PAVCGopherConnection@@K@Z 5f415a9e f inet.obj
 0001:00014b85       ??1CGopherFileFind@@UAE@XZ 5f415b85 f inet.obj
 0001:00014bed       ?FindFile@CGopherFileFind@@UAEHPBGK@Z 5f415bed f inet.obj
 0001:00014c88       ?FindFile@CGopherFileFind@@UAEHAAVCGopherLocator@@PBGK@Z 5f415c88 f inet.obj
 0001:00014d3d       ?FindNextFileW@CGopherFileFind@@UAEHXZ 5f415d3d f inet.obj
 0001:00014df1       ?CloseContext@CGopherFileFind@@MAEXXZ 5f415df1 f inet.obj
 0001:00014e38       ?GetFileName@CGopherFileFind@@UBE?AVCString@@XZ 5f415e38 f inet.obj
 0001:00014ea7       ?GetFilePath@CGopherFileFind@@UBE?AVCString@@XZ 5f415ea7 f inet.obj
 0001:00014f16       ?GetFileTitle@CGopherFileFind@@UBE?AVCString@@XZ 5f415f16 f inet.obj
 0001:00014f85       ?IsDots@CGopherFileFind@@UBEHXZ 5f415f85 f inet.obj
 0001:00014f9d       ?GetLastWriteTime@CGopherFileFind@@UBEHPAU_FILETIME@@@Z 5f415f9d f inet.obj
 0001:0001504f       ?GetLastAccessTime@CGopherFileFind@@UBEHPAU_FILETIME@@@Z 5f41604f f inet.obj
 0001:00015076       ?GetCreationTime@CGopherFileFind@@UBEHPAU_FILETIME@@@Z 5f416076 f inet.obj
 0001:0001509d       ?GetLastWriteTime@CGopherFileFind@@UBEHAAVCTime@@@Z 5f41609d f inet.obj
 0001:0001512a       ?GetCreationTime@CGopherFileFind@@UBEHAAVCTime@@@Z 5f41612a f inet.obj
 0001:00015151       ?GetLastAccessTime@CGopherFileFind@@UBEHAAVCTime@@@Z 5f416151 f inet.obj
 0001:00015178       ?GetFileURL@CGopherFileFind@@UBE?AVCString@@XZ 5f416178 f inet.obj
 0001:000151e7       ?GetRoot@CGopherFileFind@@UBE?AVCString@@XZ 5f4161e7 f inet.obj
 0001:00015256       ?GetLocator@CGopherFileFind@@QBE?AVCGopherLocator@@XZ 5f416256 f inet.obj
 0001:00015315       ?GetScreenName@CGopherFileFind@@QBE?AVCString@@XZ 5f416315 f inet.obj
 0001:000153f8       ?GetLength@CGopherFileFind@@UBEKXZ 5f4163f8 f inet.obj
 0001:00015446       ?GetLength64@CGopherFileFind@@UBE_JXZ 5f416446 f inet.obj
 0001:000154a7       ?Dump@CGopherFileFind@@UBEXAAVCDumpContext@@@Z 5f4164a7 f inet.obj
 0001:000154e6       ?AssertValid@CGopherFileFind@@UBEXXZ 5f4164e6 f inet.obj
 0001:00015504       ??0CGopherLocator@@AAE@PBGK@Z 5f416504 f inet.obj
 0001:000155ce       ??1CGopherLocator@@UAE@XZ  5f4165ce f inet.obj
 0001:0001564f       ?AfxThrowInternetException@@YGXKK@Z 5f41664f f inet.obj
 0001:0001571a       ?GetErrorMessage@CInternetException@@UAEHPAGIPAI@Z 5f41671a f inet.obj
 0001:000158ea       ??0CInternetException@@QAE@K@Z 5f4168ea f inet.obj
 0001:00015964       ??1CInternetException@@UAE@XZ 5f416964 f inet.obj
 0001:000159cc       ?Dump@CInternetException@@UBEXAAVCDumpContext@@@Z 5f4169cc f inet.obj
 0001:00015a26       ?GetContext@CInternetSession@@QBEKXZ 5f416a26 f inet.obj
 0001:00015a42       ?GetServerName@CInternetConnection@@QBE?AVCString@@XZ 5f416a42 f inet.obj
 0001:00015ab3       ?GetSession@CInternetConnection@@QBEPAVCInternetSession@@XZ 5f416ab3 f inet.obj
 0001:00015acf       ??BCInternetSession@@QBEPAXXZ 5f416acf f inet.obj
 0001:00015aeb       ?SetOption@CInternetSession@@QAEHKKK@Z 5f416aeb f inet.obj
 0001:00015b19       ??BCGopherLocator@@QBEPBGXZ 5f416b19 f inet.obj
 0001:00015b3a       ?GetLocatorType@CGopherLocator@@QBEHAAK@Z 5f416b3a f inet.obj
 0001:00015b68       ??0CGopherLocator@@QAE@ABV0@@Z 5f416b68 f inet.obj
 0001:00015c12       ??BCInternetConnection@@QBEPAXXZ 5f416c12 f inet.obj
 0001:00015c2e       ?GetContext@CInternetConnection@@QBEKXZ 5f416c2e f inet.obj
 0001:00015c4a       ?SetOption@CInternetConnection@@QAEHKKK@Z 5f416c4a f inet.obj
 0001:00015c78       ?GetContext@CInternetFile@@QBEKXZ 5f416c78 f inet.obj
 0001:00015c94       ??BCInternetFile@@QBEPAXXZ 5f416c94 f inet.obj
 0001:00015cb0       ?SetOption@CInternetFile@@QAEHKKK@Z 5f416cb0 f inet.obj
 0001:00015ce0       ??_GCInternetSession@@UAEPAXI@Z 5f416ce0 f inet.obj
 0001:00015d20       ??_GCInternetFile@@UAEPAXI@Z 5f416d20 f inet.obj
 0001:00015d20       ??_ECInternetFile@@UAEPAXI@Z 5f416d20 f inet.obj
 0001:00015d60       ??_GCInternetConnection@@UAEPAXI@Z 5f416d60 f inet.obj
 0001:00015d60       ??_ECInternetConnection@@UAEPAXI@Z 5f416d60 f inet.obj
 0001:00015da0       ??_GCFtpConnection@@UAEPAXI@Z 5f416da0 f inet.obj
 0001:00015da0       ??_ECFtpConnection@@UAEPAXI@Z 5f416da0 f inet.obj
 0001:00015de0       ??_ECGopherConnection@@UAEPAXI@Z 5f416de0 f inet.obj
 0001:00015de0       ??_GCGopherConnection@@UAEPAXI@Z 5f416de0 f inet.obj
 0001:00015e20       ??_GCHttpConnection@@UAEPAXI@Z 5f416e20 f inet.obj
 0001:00015e20       ??_ECHttpConnection@@UAEPAXI@Z 5f416e20 f inet.obj
 0001:00015e60       ??_GCHttpFile@@UAEPAXI@Z   5f416e60 f inet.obj
 0001:00015e60       ??_ECHttpFile@@UAEPAXI@Z   5f416e60 f inet.obj
 0001:00015ea0       ??_GCGopherFile@@UAEPAXI@Z 5f416ea0 f inet.obj
 0001:00015ea0       ??_ECGopherFile@@UAEPAXI@Z 5f416ea0 f inet.obj
 0001:00015ee0       ??_GCFtpFileFind@@UAEPAXI@Z 5f416ee0 f inet.obj
 0001:00015ee0       ??_ECFtpFileFind@@UAEPAXI@Z 5f416ee0 f inet.obj
 0001:00015f20       ??_ECGopherFileFind@@UAEPAXI@Z 5f416f20 f inet.obj
 0001:00015f20       ??_GCGopherFileFind@@UAEPAXI@Z 5f416f20 f inet.obj
 0001:00015f60       ??_GCGopherLocator@@UAEPAXI@Z 5f416f60 f inet.obj
 0001:00015f60       ??_ECGopherLocator@@UAEPAXI@Z 5f416f60 f inet.obj
 0001:00015fa0       ??_ECInternetException@@UAEPAXI@Z 5f416fa0 f inet.obj
 0001:00015fa0       ??_GCInternetException@@UAEPAXI@Z 5f416fa0 f inet.obj
 0001:00015fe0       ??0CFileFind@@QAE@XZ       5f416fe0 f filefind.obj
 0001:00016091       ??1CFileFind@@UAE@XZ       5f417091 f filefind.obj
 0001:0001611a       ?Close@CFileFind@@QAEXXZ   5f41711a f filefind.obj
 0001:000161c3       ?CloseContext@CFileFind@@MAEXXZ 5f4171c3 f filefind.obj
 0001:000161e6       ?FindFile@CFileFind@@UAEHPBGK@Z 5f4171e6 f filefind.obj
 0001:00016398       ?MatchesMask@CFileFind@@UBEHK@Z 5f417398 f filefind.obj
 0001:00016418       ?GetLastAccessTime@CFileFind@@UBEHPAU_FILETIME@@@Z 5f417418 f filefind.obj
 0001:000164c8       ?GetLastWriteTime@CFileFind@@UBEHPAU_FILETIME@@@Z 5f4174c8 f filefind.obj
 0001:00016578       ?GetCreationTime@CFileFind@@UBEHPAU_FILETIME@@@Z 5f417578 f filefind.obj
 0001:00016606       ?GetLastAccessTime@CFileFind@@UBEHAAVCTime@@@Z 5f417606 f filefind.obj
 0001:00016691       ?GetLastWriteTime@CFileFind@@UBEHAAVCTime@@@Z 5f417691 f filefind.obj
 0001:0001671c       ?GetCreationTime@CFileFind@@UBEHAAVCTime@@@Z 5f41771c f filefind.obj
 0001:000167a7       ?IsDots@CFileFind@@UBEHXZ  5f4177a7 f filefind.obj
 0001:00016872       ?FindNextFileW@CFileFind@@UAEHXZ 5f417872 f filefind.obj
 0001:00016926       ?GetFileURL@CFileFind@@UBE?AVCString@@XZ 5f417926 f filefind.obj
 0001:00016a20       ?GetRoot@CFileFind@@UBE?AVCString@@XZ 5f417a20 f filefind.obj
 0001:00016ac9       ?GetFilePath@CFileFind@@UBE?AVCString@@XZ 5f417ac9 f filefind.obj
 0001:00016c11       ?GetFileTitle@CFileFind@@UBE?AVCString@@XZ 5f417c11 f filefind.obj
 0001:00016d28       ?GetFileName@CFileFind@@UBE?AVCString@@XZ 5f417d28 f filefind.obj
 0001:00016e0e       ?GetLength@CFileFind@@QBEKXZ 5f417e0e f filefind.obj
 0001:00016e7e       ?GetLength64@CFileFind@@QBE_JXZ 5f417e7e f filefind.obj
 0001:00016efe       ?Dump@CFileFind@@MBEXAAVCDumpContext@@@Z 5f417efe f filefind.obj
 0001:00016f3d       ?AssertValid@CFileFind@@MBEXXZ 5f417f3d f filefind.obj
 0001:00016fd0       ??_GCFileFind@@UAEPAXI@Z   5f417fd0 f filefind.obj
 0001:00017010       ?IsEmpty@CSimpleList@@QBEHXZ 5f418010 f dllinit.obj
 0001:00017040       ?GetHead@?$CTypedSimpleList@PAUCRuntimeClass@@@@QAEPAUCRuntimeClass@@XZ 5f418040 f dllinit.obj
 0001:00017060       ?GetHead@?$CTypedSimpleList@PAVCOleObjectFactory@@@@QAEPAVCOleObjectFactory@@XZ 5f418060 f dllinit.obj
 0001:00017080       ?AddHead@?$CTypedSimpleList@PAVCDynLinkLibrary@@@@QAEXPAVCDynLinkLibrary@@@Z 5f418080 f dllinit.obj
 0001:000170b0       ?Remove@?$CTypedSimpleList@PAVCDynLinkLibrary@@@@QAEHPAVCDynLinkLibrary@@@Z 5f4180b0 f dllinit.obj
 0001:000170e0       ??0type_info@@AAE@ABV0@@Z  5f4180e0 f msvcrtd:ti_inst.obj
 0001:00017110       ??_Gtype_info@@UAEPAXI@Z   5f418110 f msvcrtd:ti_inst.obj
 0001:00017110       ??_Etype_info@@UAEPAXI@Z   5f418110 f msvcrtd:ti_inst.obj
 0001:00017150       ??4type_info@@AAEAAV0@ABV0@@Z 5f418150 f msvcrtd:ti_inst.obj
 0001:00017170       ___CxxFrameHandler         5f418170 f msvcrtd:MSVCRTD.dll
 0001:00017180       __onexit                   5f418180 f msvcrtd:atonexit.obj
 0001:00017250       _atexit                    5f418250 f msvcrtd:atonexit.obj
 0001:00017280       __CxxThrowException@8      5f418280 f msvcrtd:MSVCRTD.dll
 0001:00017286       __CrtDbgReport             5f418286 f msvcrtd:MSVCRTD.dll
 0001:00017290       __alloca_probe             5f418290   msvcrtd:chkstk.obj
 0001:00017290       __chkstk                   5f418290   msvcrtd:chkstk.obj
 0001:000172c0       _wcslen                    5f4182c0 f msvcrtd:MSVCRTD.dll
 0001:000172c6       __gcvt                     5f4182c6 f msvcrtd:MSVCRTD.dll
 0001:000172cc       _memcpy                    5f4182cc f msvcrtd:MSVCRTD.dll
 0001:000172d2       _memmove                   5f4182d2 f msvcrtd:MSVCRTD.dll
 0001:000172d8       __purecall                 5f4182d8 f msvcrtd:MSVCRTD.dll
 0001:000172de       _memcmp                    5f4182de f msvcrtd:MSVCRTD.dll
 0001:000172e4       __except_handler3          5f4182e4 f msvcrtd:MSVCRTD.dll
 0001:000172ea       __CrtSetReportMode         5f4182ea f msvcrtd:MSVCRTD.dll
 0001:000172f0       __CrtSetReportHook         5f4182f0 f msvcrtd:MSVCRTD.dll
 0001:000172f6       __CrtSetDumpClient         5f4182f6 f msvcrtd:MSVCRTD.dll
 0001:000172fc       __CrtSetDbgFlag            5f4182fc f msvcrtd:MSVCRTD.dll
 0001:00017302       __CrtDumpMemoryLeaks       5f418302 f msvcrtd:MSVCRTD.dll
 0001:00017308       _vswprintf                 5f418308 f msvcrtd:MSVCRTD.dll
 0001:0001730e       __free_dbg                 5f41830e f msvcrtd:MSVCRTD.dll
 0001:00017314       __malloc_dbg               5f418314 f msvcrtd:MSVCRTD.dll
 0001:0001731a       __CrtSetAllocHook          5f41831a f msvcrtd:MSVCRTD.dll
 0001:00017320       __CrtSetBreakAlloc         5f418320 f msvcrtd:MSVCRTD.dll
 0001:00017326       __CrtCheckMemory           5f418326 f msvcrtd:MSVCRTD.dll
 0001:0001732c       __CrtIsMemoryBlock         5f41832c f msvcrtd:MSVCRTD.dll
 0001:00017332       _memset                    5f418332 f msvcrtd:MSVCRTD.dll
 0001:00017338       __CrtMemDifference         5f418338 f msvcrtd:MSVCRTD.dll
 0001:0001733e       __CrtMemDumpStatistics     5f41833e f msvcrtd:MSVCRTD.dll
 0001:00017344       __CrtMemCheckpoint         5f418344 f msvcrtd:MSVCRTD.dll
 0001:0001734a       __CrtMemDumpAllObjectsSince 5f41834a f msvcrtd:MSVCRTD.dll
 0001:00017350       __CrtDoForAllClientObjects 5f418350 f msvcrtd:MSVCRTD.dll
 0001:00017356       _abort                     5f418356 f msvcrtd:MSVCRTD.dll
 0001:0001735c       _wcscmp                    5f41835c f msvcrtd:MSVCRTD.dll
 0001:00017362       __wcsicmp                  5f418362 f msvcrtd:MSVCRTD.dll
 0001:00017368       _wcscoll                   5f418368 f msvcrtd:MSVCRTD.dll
 0001:0001736e       __get_osfhandle            5f41836e f msvcrtd:MSVCRTD.dll
 0001:00017374       ___doserrno                5f418374 f msvcrtd:MSVCRTD.dll
 0001:0001737a       __fdopen                   5f41837a f msvcrtd:MSVCRTD.dll
 0001:00017380       __open_osfhandle           5f418380 f msvcrtd:MSVCRTD.dll
 0001:00017386       _clearerr                  5f418386 f msvcrtd:MSVCRTD.dll
 0001:0001738c       _fread                     5f41838c f msvcrtd:MSVCRTD.dll
 0001:00017392       _fwrite                    5f418392 f msvcrtd:MSVCRTD.dll
 0001:00017398       _fputws                    5f418398 f msvcrtd:MSVCRTD.dll
 0001:0001739e       _fgetws                    5f41839e f msvcrtd:MSVCRTD.dll
 0001:000173a4       _ftell                     5f4183a4 f msvcrtd:MSVCRTD.dll
 0001:000173aa       _fseek                     5f4183aa f msvcrtd:MSVCRTD.dll
 0001:000173b0       _fflush                    5f4183b0 f msvcrtd:MSVCRTD.dll
 0001:000173b6       _fclose                    5f4183b6 f msvcrtd:MSVCRTD.dll
 0001:000173bc       _malloc                    5f4183bc f msvcrtd:MSVCRTD.dll
 0001:000173c2       _realloc                   5f4183c2 f msvcrtd:MSVCRTD.dll
 0001:000173c8       _free                      5f4183c8 f msvcrtd:MSVCRTD.dll
 0001:000173ce       _wcschr                    5f4183ce f msvcrtd:MSVCRTD.dll
 0001:000173d4       _wcspbrk                   5f4183d4 f msvcrtd:MSVCRTD.dll
 0001:000173da       __wcsrev                   5f4183da f msvcrtd:MSVCRTD.dll
 0001:000173e0       _wcsspn                    5f4183e0 f msvcrtd:MSVCRTD.dll
 0001:000173e6       _wcscspn                   5f4183e6 f msvcrtd:MSVCRTD.dll
 0001:000173ec       _wcsrchr                   5f4183ec f msvcrtd:MSVCRTD.dll
 0001:000173f2       _wcsstr                    5f4183f2 f msvcrtd:MSVCRTD.dll
 0001:000173f8       _iswdigit                  5f4183f8 f msvcrtd:MSVCRTD.dll
 0001:000173fe       __wtoi                     5f4183fe f msvcrtd:MSVCRTD.dll
 0001:00017404       _iswspace                  5f418404 f msvcrtd:MSVCRTD.dll
 0001:0001740a       _mktime                    5f41840a f msvcrtd:MSVCRTD.dll
 0001:00017410       _time                      5f418410 f msvcrtd:MSVCRTD.dll
 0001:00017416       _gmtime                    5f418416 f msvcrtd:MSVCRTD.dll
 0001:0001741c       _localtime                 5f41841c f msvcrtd:MSVCRTD.dll
 0001:00017422       _ctime                     5f418422 f msvcrtd:MSVCRTD.dll
 0001:00017428       _wcsftime                  5f418428 f msvcrtd:MSVCRTD.dll
 0001:0001742e       __msize                    5f41842e f msvcrtd:MSVCRTD.dll
 0001:00017434       _calloc                    5f418434 f msvcrtd:MSVCRTD.dll
 0001:00017440       __alldiv                   5f418440 f msvcrtd:lldiv.obj
 0001:000174f0       __allmul                   5f4184f0 f msvcrtd:llmul.obj
 0001:00017524       _abs                       5f418524 f msvcrtd:MSVCRTD.dll
 0001:0001752a       _wcstoul                   5f41852a f msvcrtd:MSVCRTD.dll
 0001:00017530       _wcstol                    5f418530 f msvcrtd:MSVCRTD.dll
 0001:00017536       _swprintf                  5f418536 f msvcrtd:MSVCRTD.dll
 0001:0001753c       _wcstod                    5f41853c f msvcrtd:MSVCRTD.dll
 0001:00017542       __expand                   5f418542 f msvcrtd:MSVCRTD.dll
 0001:00017548       __endthreadex              5f418548 f msvcrtd:MSVCRTD.dll
 0001:0001754e       __beginthreadex            5f41854e f msvcrtd:MSVCRTD.dll
 0001:00017554       __wcsdup                   5f418554 f msvcrtd:MSVCRTD.dll
 0001:0001755a       ___p___argc                5f41855a f msvcrtd:MSVCRTD.dll
 0001:00017560       ___p___wargv               5f418560 f msvcrtd:MSVCRTD.dll
 0001:00017570       ??_L@YGXPAXIHP6EX0@Z1@Z    5f418570 f msvcrtd:ehvecctr.obj
 0001:00017630       ??_M@YGXPAXIHP6EX0@Z@Z     5f418630 f msvcrtd:ehvecdtr.obj
 0001:000176e0       ?__ArrayUnwind@@YGXPAXIHP6EX0@Z@Z 5f4186e0 f msvcrtd:ehvecdtr.obj
 0001:000177b6       _wcsncmp                   5f4187b6 f msvcrtd:MSVCRTD.dll
 0001:000177bc       __wtol                     5f4187bc f msvcrtd:MSVCRTD.dll
 0001:000177c2       _wcscpy                    5f4187c2 f msvcrtd:MSVCRTD.dll
 0001:000177c8       __wfullpath                5f4187c8 f msvcrtd:MSVCRTD.dll
 0001:000177d0       __CRT_INIT@12              5f4187d0 f msvcrtd:crtdll.obj
 0001:000179d0       __DllMainCRTStartup@12     5f4189d0 f msvcrtd:crtdll.obj
 0001:00017b0a       ??1type_info@@UAE@XZ       5f418b0a f msvcrtd:MSVCRTD.dll
 0001:00017b10       ___dllonexit               5f418b10 f msvcrtd:MSVCRTD.dll
 0001:00017b16       ?terminate@@YAXXZ          5f418b16 f msvcrtd:MSVCRTD.dll
 0001:00017b1c       __initterm                 5f418b1c f msvcrtd:MSVCRTD.dll
 0001:00017b22       _SetLastError@4            5f418b22 f kernel32:KERNEL32.dll
 0001:00017b28       _GetLastError@0            5f418b28 f kernel32:KERNEL32.dll
 0001:00017b2e       _lstrcpynW@12              5f418b2e f kernel32:KERNEL32.dll
 0001:00017b34       _IsBadStringPtrW@8         5f418b34 f kernel32:KERNEL32.dll
 0001:00017b3a       _IsBadStringPtrA@8         5f418b3a f kernel32:KERNEL32.dll
 0001:00017b40       _IsBadWritePtr@8           5f418b40 f kernel32:KERNEL32.dll
 0001:00017b46       _IsBadReadPtr@8            5f418b46 f kernel32:KERNEL32.dll
 0001:00017b4c       _lstrlenW@4                5f418b4c f kernel32:KERNEL32.dll
 0001:00017b52       _lstrcmpA@8                5f418b52 f kernel32:KERNEL32.dll
 0001:00017b58       _lstrlenA@4                5f418b58 f kernel32:KERNEL32.dll
 0001:00017b5e       _GetPrivateProfileIntW@16  5f418b5e f kernel32:KERNEL32.dll
 0001:00017b64       _SetThreadPriority@8       5f418b64 f kernel32:KERNEL32.dll
 0001:00017b6a       _GetThreadPriority@4       5f418b6a f kernel32:KERNEL32.dll
 0001:00017b70       _ResumeThread@4            5f418b70 f kernel32:KERNEL32.dll
 0001:00017b76       _SuspendThread@4           5f418b76 f kernel32:KERNEL32.dll
 0001:00017b7c       _DuplicateHandle@28        5f418b7c f kernel32:KERNEL32.dll
 0001:00017b82       _GetCurrentProcess@0       5f418b82 f kernel32:KERNEL32.dll
 0001:00017b88       _CreateFileW@28            5f418b88 f kernel32:KERNEL32.dll
 0001:00017b8e       _ReadFile@20               5f418b8e f kernel32:KERNEL32.dll
 0001:00017b94       _WriteFile@20              5f418b94 f kernel32:KERNEL32.dll
 0001:00017b9a       _SetFilePointer@16         5f418b9a f kernel32:KERNEL32.dll
 0001:00017ba0       _FlushFileBuffers@4        5f418ba0 f kernel32:KERNEL32.dll
 0001:00017ba6       _CloseHandle@4             5f418ba6 f kernel32:KERNEL32.dll
 0001:00017bac       _LockFile@20               5f418bac f kernel32:KERNEL32.dll
 0001:00017bb2       _UnlockFile@20             5f418bb2 f kernel32:KERNEL32.dll
 0001:00017bb8       _SetEndOfFile@4            5f418bb8 f kernel32:KERNEL32.dll
 0001:00017bbe       _MoveFileW@8               5f418bbe f kernel32:KERNEL32.dll
 0001:00017bc4       _DeleteFileW@4             5f418bc4 f kernel32:KERNEL32.dll
 0001:00017bca       _FreeLibrary@4             5f418bca f kernel32:KERNEL32.dll
 0001:00017bd0       _GetProcAddress@8          5f418bd0 f kernel32:KERNEL32.dll
 0001:00017bd6       _LoadLibraryW@4            5f418bd6 f kernel32:KERNEL32.dll
 0001:00017bdc       _lstrcpyW@8                5f418bdc f kernel32:KERNEL32.dll
 0001:00017be2       _FindClose@4               5f418be2 f kernel32:KERNEL32.dll
 0001:00017be8       _FindFirstFileW@8          5f418be8 f kernel32:KERNEL32.dll
 0001:00017bee       _GetVolumeInformationW@32  5f418bee f kernel32:KERNEL32.dll
 0001:00017bf4       _GetFullPathNameW@16       5f418bf4 f kernel32:KERNEL32.dll
 0001:00017bfa       _GetStringTypeExW@20       5f418bfa f kernel32:KERNEL32.dll
 0001:00017c00       _GetThreadLocale@0         5f418c00 f kernel32:KERNEL32.dll
 0001:00017c06       _lstrcmpiW@8               5f418c06 f kernel32:KERNEL32.dll
 0001:00017c0c       _GetShortPathNameW@12      5f418c0c f kernel32:KERNEL32.dll
 0001:00017c12       _GetModuleFileNameW@12     5f418c12 f kernel32:KERNEL32.dll
 0001:00017c18       _GlobalSize@4              5f418c18 f kernel32:KERNEL32.dll
 0001:00017c1e       _GlobalLock@4              5f418c1e f kernel32:KERNEL32.dll
 0001:00017c24       _GlobalAlloc@8             5f418c24 f kernel32:KERNEL32.dll
 0001:00017c2a       _GlobalReAlloc@12          5f418c2a f kernel32:KERNEL32.dll
 0001:00017c30       _GlobalUnlock@4            5f418c30 f kernel32:KERNEL32.dll
 0001:00017c36       _GlobalFree@4              5f418c36 f kernel32:KERNEL32.dll
 0001:00017c3c       _GetFileSize@8             5f418c3c f kernel32:KERNEL32.dll
 0001:00017c42       _GetFileTime@16            5f418c42 f kernel32:KERNEL32.dll
 0001:00017c48       _LocalFileTimeToFileTime@8 5f418c48 f kernel32:KERNEL32.dll
 0001:00017c4e       _SystemTimeToFileTime@8    5f418c4e f kernel32:KERNEL32.dll
 0001:00017c54       _SetFileAttributesW@8      5f418c54 f kernel32:KERNEL32.dll
 0001:00017c5a       _SetFileTime@16            5f418c5a f kernel32:KERNEL32.dll
 0001:00017c60       _GetFileAttributesW@4      5f418c60 f kernel32:KERNEL32.dll
 0001:00017c66       _InterlockedIncrement@4    5f418c66 f kernel32:KERNEL32.dll
 0001:00017c6c       _InterlockedDecrement@4    5f418c6c f kernel32:KERNEL32.dll
 0001:00017c72       _WideCharToMultiByte@32    5f418c72 f kernel32:KERNEL32.dll
 0001:00017c78       _MultiByteToWideChar@24    5f418c78 f kernel32:KERNEL32.dll
 0001:00017c7e       _LocalFree@4               5f418c7e f kernel32:KERNEL32.dll
 0001:00017c84       _FormatMessageW@28         5f418c84 f kernel32:KERNEL32.dll
 0001:00017c8a       _FileTimeToSystemTime@8    5f418c8a f kernel32:KERNEL32.dll
 0001:00017c90       _FileTimeToLocalFileTime@8 5f418c90 f kernel32:KERNEL32.dll
 0001:00017c96       _LocalAlloc@8              5f418c96 f kernel32:KERNEL32.dll
 0001:00017c9c       _InitializeCriticalSection@4 5f418c9c f kernel32:KERNEL32.dll
 0001:00017ca2       _TlsAlloc@0                5f418ca2 f kernel32:KERNEL32.dll
 0001:00017ca8       _DeleteCriticalSection@4   5f418ca8 f kernel32:KERNEL32.dll
 0001:00017cae       _GlobalHandle@4            5f418cae f kernel32:KERNEL32.dll
 0001:00017cb4       _TlsFree@4                 5f418cb4 f kernel32:KERNEL32.dll
 0001:00017cba       _LeaveCriticalSection@4    5f418cba f kernel32:KERNEL32.dll
 0001:00017cc0       _EnterCriticalSection@4    5f418cc0 f kernel32:KERNEL32.dll
 0001:00017cc6       _TlsSetValue@8             5f418cc6 f kernel32:KERNEL32.dll
 0001:00017ccc       _LocalReAlloc@12           5f418ccc f kernel32:KERNEL32.dll
 0001:00017cd2       _TlsGetValue@4             5f418cd2 f kernel32:KERNEL32.dll
 0001:00017cd8       _WaitForSingleObject@8     5f418cd8 f kernel32:KERNEL32.dll
 0001:00017cde       _SetEvent@4                5f418cde f kernel32:KERNEL32.dll
 0001:00017ce4       _PulseEvent@4              5f418ce4 f kernel32:KERNEL32.dll
 0001:00017cea       _ResetEvent@4              5f418cea f kernel32:KERNEL32.dll
 0001:00017cf0       _CreateSemaphoreW@16       5f418cf0 f kernel32:KERNEL32.dll
 0001:00017cf6       _ReleaseSemaphore@12       5f418cf6 f kernel32:KERNEL32.dll
 0001:00017cfc       _CreateMutexW@12           5f418cfc f kernel32:KERNEL32.dll
 0001:00017d02       _ReleaseMutex@4            5f418d02 f kernel32:KERNEL32.dll
 0001:00017d08       _CreateEventW@16           5f418d08 f kernel32:KERNEL32.dll
 0001:00017d0e       _WaitForMultipleObjects@16 5f418d0e f kernel32:KERNEL32.dll
 0001:00017d14       _GetCurrentThreadId@0      5f418d14 f kernel32:KERNEL32.dll
 0001:00017d1a       _lstrcatW@8                5f418d1a f kernel32:KERNEL32.dll
 0001:00017d20       _FreeResource@4            5f418d20 f kernel32:KERNEL32.dll
 0001:00017d26       _LockResource@4            5f418d26 f kernel32:KERNEL32.dll
 0001:00017d2c       _LoadResource@8            5f418d2c f kernel32:KERNEL32.dll
 0001:00017d32       _FindResourceW@12          5f418d32 f kernel32:KERNEL32.dll
 0001:00017d38       _GlobalAddAtomW@4          5f418d38 f kernel32:KERNEL32.dll
 0001:00017d3e       _GlobalGetAtomNameW@12     5f418d3e f kernel32:KERNEL32.dll
 0001:00017d44       _MulDiv@12                 5f418d44 f kernel32:KERNEL32.dll
 0001:00017d4a       _GetProfileIntW@12         5f418d4a f kernel32:KERNEL32.dll
 0001:00017d50       _LoadLibraryA@4            5f418d50 f kernel32:KERNEL32.dll
 0001:00017d56       _VirtualProtect@16         5f418d56 f kernel32:KERNEL32.dll
 0001:00017d5c       _SizeofResource@8          5f418d5c f kernel32:KERNEL32.dll
 0001:00017d62       _GetProcessVersion@4       5f418d62 f kernel32:KERNEL32.dll
 0001:00017d68       _GetVersion@0              5f418d68 f kernel32:KERNEL32.dll
 0001:00017d6e       _lstrcmpW@8                5f418d6e f kernel32:KERNEL32.dll
 0001:00017d74       _GlobalFlags@4             5f418d74 f kernel32:KERNEL32.dll
 0001:00017d7a       _GetTempFileNameW@16       5f418d7a f kernel32:KERNEL32.dll
 0001:00017d80       _GetDiskFreeSpaceW@20      5f418d80 f kernel32:KERNEL32.dll
 0001:00017d86       _LocalUnlock@4             5f418d86 f kernel32:KERNEL32.dll
 0001:00017d8c       _LocalLock@4               5f418d8c f kernel32:KERNEL32.dll
 0001:00017d92       _GetTempPathW@8            5f418d92 f kernel32:KERNEL32.dll
 0001:00017d98       _SearchPathW@24            5f418d98 f kernel32:KERNEL32.dll
 0001:00017d9e       _GetCurrentThread@0        5f418d9e f kernel32:KERNEL32.dll
 0001:00017da4       _GlobalDeleteAtom@4        5f418da4 f kernel32:KERNEL32.dll
 0001:00017daa       _SetErrorMode@4            5f418daa f kernel32:KERNEL32.dll
 0001:00017db0       _GetPrivateProfileStringW@24 5f418db0 f kernel32:KERNEL32.dll
 0001:00017db6       _WritePrivateProfileStringW@16 5f418db6 f kernel32:KERNEL32.dll
 0001:00017dbc       _GetCurrentDirectoryW@8    5f418dbc f kernel32:KERNEL32.dll
 0001:00017dc2       _FindNextFileW@8           5f418dc2 f kernel32:KERNEL32.dll
 0001:00017dc8       _GetModuleHandleA@4        5f418dc8 f kernel32:KERNEL32.dll
 0001:00017dce       _lstrcatA@8                5f418dce f kernel32:KERNEL32.dll
 0001:00017dd4       _GetSystemDirectoryA@8     5f418dd4 f kernel32:KERNEL32.dll
 0001:00017dda       _Sleep@4                   5f418dda f kernel32:KERNEL32.dll
 0001:00017de0       _CreateMetaFileW@4         5f418de0 f gdi32:GDI32.dll
 0001:00017de6       _CloseMetaFile@4           5f418de6 f gdi32:GDI32.dll
 0001:00017dec       _CreateEnhMetaFileW@16     5f418dec f gdi32:GDI32.dll
 0001:00017df2       _CloseEnhMetaFile@4        5f418df2 f gdi32:GDI32.dll
 0001:00017df8       _ExtTextOutW@32            5f418df8 f gdi32:GDI32.dll
 0001:00017dfe       _GetObjectW@12             5f418dfe f gdi32:GDI32.dll
 0001:00017e04       _GetStockObject@4          5f418e04 f gdi32:GDI32.dll
 0001:00017e0a       _UnrealizeObject@4         5f418e0a f gdi32:GDI32.dll
 0001:00017e10       _GetObjectType@4           5f418e10 f gdi32:GDI32.dll
 0001:00017e16       _CreatePen@12              5f418e16 f gdi32:GDI32.dll
 0001:00017e1c       _CreatePenIndirect@4       5f418e1c f gdi32:GDI32.dll
 0001:00017e22       _ExtCreatePen@20           5f418e22 f gdi32:GDI32.dll
 0001:00017e28       _CreateSolidBrush@4        5f418e28 f gdi32:GDI32.dll
 0001:00017e2e       _CreateHatchBrush@8        5f418e2e f gdi32:GDI32.dll
 0001:00017e34       _CreateBrushIndirect@4     5f418e34 f gdi32:GDI32.dll
 0001:00017e3a       _CreatePatternBrush@4      5f418e3a f gdi32:GDI32.dll
 0001:00017e40       _CreateDIBPatternBrushPt@8 5f418e40 f gdi32:GDI32.dll
 0001:00017e46       _CreateFontIndirectW@4     5f418e46 f gdi32:GDI32.dll
 0001:00017e4c       _CreateFontW@56            5f418e4c f gdi32:GDI32.dll
 0001:00017e52       _CreateBitmap@20           5f418e52 f gdi32:GDI32.dll
 0001:00017e58       _CreateBitmapIndirect@4    5f418e58 f gdi32:GDI32.dll
 0001:00017e5e       _SetBitmapBits@12          5f418e5e f gdi32:GDI32.dll
 0001:00017e64       _GetBitmapBits@12          5f418e64 f gdi32:GDI32.dll
 0001:00017e6a       _SetBitmapDimensionEx@16   5f418e6a f gdi32:GDI32.dll
 0001:00017e70       _GetBitmapDimensionEx@8    5f418e70 f gdi32:GDI32.dll
 0001:00017e76       _CreateCompatibleBitmap@12 5f418e76 f gdi32:GDI32.dll
 0001:00017e7c       _CreateDiscardableBitmap@12 5f418e7c f gdi32:GDI32.dll
 0001:00017e82       _CreatePalette@4           5f418e82 f gdi32:GDI32.dll
 0001:00017e88       _CreateHalftonePalette@4   5f418e88 f gdi32:GDI32.dll
 0001:00017e8e       _GetPaletteEntries@16      5f418e8e f gdi32:GDI32.dll
 0001:00017e94       _SetPaletteEntries@16      5f418e94 f gdi32:GDI32.dll
 0001:00017e9a       _AnimatePalette@16         5f418e9a f gdi32:GDI32.dll
 0001:00017ea0       _GetNearestPaletteIndex@8  5f418ea0 f gdi32:GDI32.dll
 0001:00017ea6       _ResizePalette@8           5f418ea6 f gdi32:GDI32.dll
 0001:00017eac       _CreateRectRgn@16          5f418eac f gdi32:GDI32.dll
 0001:00017eb2       _CreateRectRgnIndirect@4   5f418eb2 f gdi32:GDI32.dll
 0001:00017eb8       _CreateEllipticRgn@16      5f418eb8 f gdi32:GDI32.dll
 0001:00017ebe       _CreateEllipticRgnIndirect@4 5f418ebe f gdi32:GDI32.dll
 0001:00017ec4       _CreatePolygonRgn@12       5f418ec4 f gdi32:GDI32.dll
 0001:00017eca       _CreatePolyPolygonRgn@16   5f418eca f gdi32:GDI32.dll
 0001:00017ed0       _CreateRoundRectRgn@24     5f418ed0 f gdi32:GDI32.dll
 0001:00017ed6       _PathToRegion@4            5f418ed6 f gdi32:GDI32.dll
 0001:00017edc       _ExtCreateRegion@12        5f418edc f gdi32:GDI32.dll
 0001:00017ee2       _GetRegionData@12          5f418ee2 f gdi32:GDI32.dll
 0001:00017ee8       _SetRectRgn@20             5f418ee8 f gdi32:GDI32.dll
 0001:00017eee       _CombineRgn@16             5f418eee f gdi32:GDI32.dll
 0001:00017ef4       _EqualRgn@8                5f418ef4 f gdi32:GDI32.dll
 0001:00017efa       _OffsetRgn@12              5f418efa f gdi32:GDI32.dll
 0001:00017f00       _GetRgnBox@8               5f418f00 f gdi32:GDI32.dll
 0001:00017f06       _PtInRegion@12             5f418f06 f gdi32:GDI32.dll
 0001:00017f0c       _RectInRegion@8            5f418f0c f gdi32:GDI32.dll
 0001:00017f12       _CreateDCW@16              5f418f12 f gdi32:GDI32.dll
 0001:00017f18       _CreateICW@16              5f418f18 f gdi32:GDI32.dll
 0001:00017f1e       _CreateCompatibleDC@4      5f418f1e f gdi32:GDI32.dll
 0001:00017f24       _GetDeviceCaps@8           5f418f24 f gdi32:GDI32.dll
 0001:00017f2a       _GetBrushOrgEx@8           5f418f2a f gdi32:GDI32.dll
 0001:00017f30       _SetBrushOrgEx@16          5f418f30 f gdi32:GDI32.dll
 0001:00017f36       _EnumObjects@16            5f418f36 f gdi32:GDI32.dll
 0001:00017f3c       _SelectObject@8            5f418f3c f gdi32:GDI32.dll
 0001:00017f42       _GetNearestColor@8         5f418f42 f gdi32:GDI32.dll
 0001:00017f48       _RealizePalette@4          5f418f48 f gdi32:GDI32.dll
 0001:00017f4e       _UpdateColors@4            5f418f4e f gdi32:GDI32.dll
 0001:00017f54       _GetBkColor@4              5f418f54 f gdi32:GDI32.dll
 0001:00017f5a       _GetBkMode@4               5f418f5a f gdi32:GDI32.dll
 0001:00017f60       _GetPolyFillMode@4         5f418f60 f gdi32:GDI32.dll
 0001:00017f66       _GetROP2@4                 5f418f66 f gdi32:GDI32.dll
 0001:00017f6c       _GetStretchBltMode@4       5f418f6c f gdi32:GDI32.dll
 0001:00017f72       _GetTextColor@4            5f418f72 f gdi32:GDI32.dll
 0001:00017f78       _GetMapMode@4              5f418f78 f gdi32:GDI32.dll
 0001:00017f7e       _GetViewportOrgEx@8        5f418f7e f gdi32:GDI32.dll
 0001:00017f84       _GetViewportExtEx@8        5f418f84 f gdi32:GDI32.dll
 0001:00017f8a       _GetWindowOrgEx@8          5f418f8a f gdi32:GDI32.dll
 0001:00017f90       _GetWindowExtEx@8          5f418f90 f gdi32:GDI32.dll
 0001:00017f96       _DPtoLP@12                 5f418f96 f gdi32:GDI32.dll
 0001:00017f9c       _LPtoDP@12                 5f418f9c f gdi32:GDI32.dll
 0001:00017fa2       _FillRgn@12                5f418fa2 f gdi32:GDI32.dll
 0001:00017fa8       _FrameRgn@20               5f418fa8 f gdi32:GDI32.dll
 0001:00017fae       _InvertRgn@8               5f418fae f gdi32:GDI32.dll
 0001:00017fb4       _PaintRgn@8                5f418fb4 f gdi32:GDI32.dll
 0001:00017fba       _PtVisible@12              5f418fba f gdi32:GDI32.dll
 0001:00017fc0       _RectVisible@8             5f418fc0 f gdi32:GDI32.dll
 0001:00017fc6       _GetCurrentPositionEx@8    5f418fc6 f gdi32:GDI32.dll
 0001:00017fcc       _Arc@36                    5f418fcc f gdi32:GDI32.dll
 0001:00017fd2       _Polyline@12               5f418fd2 f gdi32:GDI32.dll
 0001:00017fd8       _Chord@36                  5f418fd8 f gdi32:GDI32.dll
 0001:00017fde       _Ellipse@20                5f418fde f gdi32:GDI32.dll
 0001:00017fe4       _Pie@36                    5f418fe4 f gdi32:GDI32.dll
 0001:00017fea       _Polygon@12                5f418fea f gdi32:GDI32.dll
 0001:00017ff0       _PolyPolygon@16            5f418ff0 f gdi32:GDI32.dll
 0001:00017ff6       _Rectangle@20              5f418ff6 f gdi32:GDI32.dll
 0001:00017ffc       _RoundRect@28              5f418ffc f gdi32:GDI32.dll
 0001:00018002       _PatBlt@24                 5f419002 f gdi32:GDI32.dll
 0001:00018008       _BitBlt@36                 5f419008 f gdi32:GDI32.dll
 0001:0001800e       _StretchBlt@44             5f41900e f gdi32:GDI32.dll
 0001:00018014       _GetPixel@12               5f419014 f gdi32:GDI32.dll
 0001:0001801a       _SetPixel@16               5f41901a f gdi32:GDI32.dll
 0001:00018020       _FloodFill@16              5f419020 f gdi32:GDI32.dll
 0001:00018026       _ExtFloodFill@20           5f419026 f gdi32:GDI32.dll
 0001:0001802c       _TextOutW@20               5f41902c f gdi32:GDI32.dll
 0001:00018032       _GetTextExtentPointW@16    5f419032 f gdi32:GDI32.dll
 0001:00018038       _GetTextAlign@4            5f419038 f gdi32:GDI32.dll
 0001:0001803e       _GetTextFaceW@12           5f41903e f gdi32:GDI32.dll
 0001:00018044       _GetTextMetricsW@8         5f419044 f gdi32:GDI32.dll
 0001:0001804a       _GetTextCharacterExtra@4   5f41904a f gdi32:GDI32.dll
 0001:00018050       _GetCharWidthW@16          5f419050 f gdi32:GDI32.dll
 0001:00018056       _GetAspectRatioFilterEx@8  5f419056 f gdi32:GDI32.dll
 0001:0001805c       _Escape@20                 5f41905c f gdi32:GDI32.dll
 0001:00018062       _SetBoundsRect@12          5f419062 f gdi32:GDI32.dll
 0001:00018068       _GetBoundsRect@12          5f419068 f gdi32:GDI32.dll
 0001:0001806e       _ResetDCW@8                5f41906e f gdi32:GDI32.dll
 0001:00018074       _GetOutlineTextMetricsW@12 5f419074 f gdi32:GDI32.dll
 0001:0001807a       _GetCharABCWidthsW@16      5f41907a f gdi32:GDI32.dll
 0001:00018080       _GetFontData@20            5f419080 f gdi32:GDI32.dll
 0001:00018086       _GetKerningPairsW@12       5f419086 f gdi32:GDI32.dll
 0001:0001808c       _GetGlyphOutlineW@28       5f41908c f gdi32:GDI32.dll
 0001:00018092       _StartDocW@8               5f419092 f gdi32:GDI32.dll
 0001:00018098       _StartPage@4               5f419098 f gdi32:GDI32.dll
 0001:0001809e       _EndPage@4                 5f41909e f gdi32:GDI32.dll
 0001:000180a4       _SetAbortProc@8            5f4190a4 f gdi32:GDI32.dll
 0001:000180aa       _AbortDoc@4                5f4190aa f gdi32:GDI32.dll
 0001:000180b0       _EndDoc@4                  5f4190b0 f gdi32:GDI32.dll
 0001:000180b6       _MaskBlt@48                5f4190b6 f gdi32:GDI32.dll
 0001:000180bc       _PlgBlt@40                 5f4190bc f gdi32:GDI32.dll
 0001:000180c2       _SetPixelV@16              5f4190c2 f gdi32:GDI32.dll
 0001:000180c8       _AngleArc@24               5f4190c8 f gdi32:GDI32.dll
 0001:000180ce       _GetArcDirection@4         5f4190ce f gdi32:GDI32.dll
 0001:000180d4       _PolyPolyline@16           5f4190d4 f gdi32:GDI32.dll
 0001:000180da       _GetColorAdjustment@8      5f4190da f gdi32:GDI32.dll
 0001:000180e0       _GetCurrentObject@8        5f4190e0 f gdi32:GDI32.dll
 0001:000180e6       _PolyBezier@12             5f4190e6 f gdi32:GDI32.dll
 0001:000180ec       _DrawEscape@16             5f4190ec f gdi32:GDI32.dll
 0001:000180f2       _ExtEscape@24              5f4190f2 f gdi32:GDI32.dll
 0001:000180f8       _GetCharABCWidthsFloatW@16 5f4190f8 f gdi32:GDI32.dll
 0001:000180fe       _GetCharWidthFloatW@16     5f4190fe f gdi32:GDI32.dll
 0001:00018104       _AbortPath@4               5f419104 f gdi32:GDI32.dll
 0001:0001810a       _BeginPath@4               5f41910a f gdi32:GDI32.dll
 0001:00018110       _CloseFigure@4             5f419110 f gdi32:GDI32.dll
 0001:00018116       _EndPath@4                 5f419116 f gdi32:GDI32.dll
 0001:0001811c       _FillPath@4                5f41911c f gdi32:GDI32.dll
 0001:00018122       _FlattenPath@4             5f419122 f gdi32:GDI32.dll
 0001:00018128       _GetMiterLimit@8           5f419128 f gdi32:GDI32.dll
 0001:0001812e       _GetPath@16                5f41912e f gdi32:GDI32.dll
 0001:00018134       _SetMiterLimit@12          5f419134 f gdi32:GDI32.dll
 0001:0001813a       _StrokeAndFillPath@4       5f41913a f gdi32:GDI32.dll
 0001:00018140       _StrokePath@4              5f419140 f gdi32:GDI32.dll
 0001:00018146       _WidenPath@4               5f419146 f gdi32:GDI32.dll
 0001:0001814c       _GdiComment@12             5f41914c f gdi32:GDI32.dll
 0001:00018152       _PlayEnhMetaFile@12        5f419152 f gdi32:GDI32.dll
 0001:00018158       _SetTextColor@8            5f419158 f gdi32:GDI32.dll
 0001:0001815e       _SetBkColor@8              5f41915e f gdi32:GDI32.dll
 0001:00018164       _DeleteDC@4                5f419164 f gdi32:GDI32.dll
 0001:0001816a       _StretchDIBits@52          5f41916a f gdi32:GDI32.dll
 0001:00018170       _SaveDC@4                  5f419170 f gdi32:GDI32.dll
 0001:00018176       _RestoreDC@8               5f419176 f gdi32:GDI32.dll
 0001:0001817c       _DeleteObject@4            5f41917c f gdi32:GDI32.dll
 0001:00018182       _SetMapMode@8              5f419182 f gdi32:GDI32.dll
 0001:00018188       _SetViewportOrgEx@16       5f419188 f gdi32:GDI32.dll
 0001:0001818e       _OffsetViewportOrgEx@16    5f41918e f gdi32:GDI32.dll
 0001:00018194       _SetViewportExtEx@16       5f419194 f gdi32:GDI32.dll
 0001:0001819a       _ScaleViewportExtEx@24     5f41919a f gdi32:GDI32.dll
 0001:000181a0       _SetWindowExtEx@16         5f4191a0 f gdi32:GDI32.dll
 0001:000181a6       _ScaleWindowExtEx@24       5f4191a6 f gdi32:GDI32.dll
 0001:000181ac       _MoveToEx@16               5f4191ac f gdi32:GDI32.dll
 0001:000181b2       _GetTextExtentPointA@16    5f4191b2 f gdi32:GDI32.dll
 0001:000181b8       _SetWindowOrgEx@16         5f4191b8 f gdi32:GDI32.dll
 0001:000181be       _IntersectClipRect@20      5f4191be f gdi32:GDI32.dll
 0001:000181c4       _DeleteMetaFile@4          5f4191c4 f gdi32:GDI32.dll
 0001:000181ca       _GetClipBox@8              5f4191ca f gdi32:GDI32.dll
 0001:000181d0       _SelectPalette@12          5f4191d0 f gdi32:GDI32.dll
 0001:000181d6       _SetBkMode@8               5f4191d6 f gdi32:GDI32.dll
 0001:000181dc       _SetPolyFillMode@8         5f4191dc f gdi32:GDI32.dll
 0001:000181e2       _SetROP2@8                 5f4191e2 f gdi32:GDI32.dll
 0001:000181e8       _SetStretchBltMode@8       5f4191e8 f gdi32:GDI32.dll
 0001:000181ee       _OffsetWindowOrgEx@16      5f4191ee f gdi32:GDI32.dll
 0001:000181f4       _SelectClipRgn@8           5f4191f4 f gdi32:GDI32.dll
 0001:000181fa       _ExcludeClipRect@20        5f4191fa f gdi32:GDI32.dll
 0001:00018200       _OffsetClipRgn@12          5f419200 f gdi32:GDI32.dll
 0001:00018206       _LineTo@12                 5f419206 f gdi32:GDI32.dll
 0001:0001820c       _SetTextAlign@8            5f41920c f gdi32:GDI32.dll
 0001:00018212       _SetTextJustification@12   5f419212 f gdi32:GDI32.dll
 0001:00018218       _SetTextCharacterExtra@8   5f419218 f gdi32:GDI32.dll
 0001:0001821e       _SetMapperFlags@8          5f41921e f gdi32:GDI32.dll
 0001:00018224       _ArcTo@36                  5f419224 f gdi32:GDI32.dll
 0001:0001822a       _SetArcDirection@8         5f41922a f gdi32:GDI32.dll
 0001:00018230       _PolyDraw@16               5f419230 f gdi32:GDI32.dll
 0001:00018236       _PolylineTo@12             5f419236 f gdi32:GDI32.dll
 0001:0001823c       _SetColorAdjustment@8      5f41923c f gdi32:GDI32.dll
 0001:00018242       _PolyBezierTo@12           5f419242 f gdi32:GDI32.dll
 0001:00018248       _GetClipRgn@8              5f419248 f gdi32:GDI32.dll
 0001:0001824e       _SelectClipPath@8          5f41924e f gdi32:GDI32.dll
 0001:00018254       _ExtSelectClipRgn@12       5f419254 f gdi32:GDI32.dll
 0001:0001825a       _PlayMetaFileRecord@16     5f41925a f gdi32:GDI32.dll
 0001:00018260       _EnumMetaFile@16           5f419260 f gdi32:GDI32.dll
 0001:00018266       _PlayMetaFile@8            5f419266 f gdi32:GDI32.dll
 0001:0001826c       _wsprintfW                 5f41926c f user32:USER32.dll
 0001:00018272       _wsprintfA                 5f419272 f user32:USER32.dll
 0001:00018278       _PostQuitMessage@4         5f419278 f user32:USER32.dll
 0001:0001827e       _PeekMessageW@20           5f41927e f user32:USER32.dll
 0001:00018284       _SendMessageW@16           5f419284 f user32:USER32.dll
 0001:0001828a       _IsWindow@4                5f41928a f user32:USER32.dll
 0001:00018290       _TabbedTextOutW@32         5f419290 f user32:USER32.dll
 0001:00018296       _CopyRect@8                5f419296 f user32:USER32.dll
 0001:0001829c       _IsRectEmpty@4             5f41929c f user32:USER32.dll
 0001:000182a2       _PtInRect@12               5f4192a2 f user32:USER32.dll
 0001:000182a8       _SetRect@20                5f4192a8 f user32:USER32.dll
 0001:000182ae       _SetRectEmpty@4            5f4192ae f user32:USER32.dll
 0001:000182b4       _EqualRect@8               5f4192b4 f user32:USER32.dll
 0001:000182ba       _InflateRect@12            5f4192ba f user32:USER32.dll
 0001:000182c0       _OffsetRect@12             5f4192c0 f user32:USER32.dll
 0001:000182c6       _IntersectRect@12          5f4192c6 f user32:USER32.dll
 0001:000182cc       _UnionRect@12              5f4192cc f user32:USER32.dll
 0001:000182d2       _SubtractRect@12           5f4192d2 f user32:USER32.dll
 0001:000182d8       _GetSysColorBrush@4        5f4192d8 f user32:USER32.dll
 0001:000182de       _LoadBitmapW@8             5f4192de f user32:USER32.dll
 0001:000182e4       _WindowFromDC@4            5f4192e4 f user32:USER32.dll
 0001:000182ea       _ExcludeUpdateRgn@8        5f4192ea f user32:USER32.dll
 0001:000182f0       _FillRect@12               5f4192f0 f user32:USER32.dll
 0001:000182f6       _FrameRect@12              5f4192f6 f user32:USER32.dll
 0001:000182fc       _InvertRect@8              5f4192fc f user32:USER32.dll
 0001:00018302       _DrawIcon@16               5f419302 f user32:USER32.dll
 0001:00018308       _DrawStateW@40             5f419308 f user32:USER32.dll
 0001:0001830e       _DrawEdge@16               5f41930e f user32:USER32.dll
 0001:00018314       _DrawFrameControl@16       5f419314 f user32:USER32.dll
 0001:0001831a       _DrawFocusRect@8           5f41931a f user32:USER32.dll
 0001:00018320       _DrawTextW@20              5f419320 f user32:USER32.dll
 0001:00018326       _GetTabbedTextExtentW@20   5f419326 f user32:USER32.dll
 0001:0001832c       _GrayStringW@36            5f41932c f user32:USER32.dll
 0001:00018332       _ScrollDC@28               5f419332 f user32:USER32.dll
 0001:00018338       _CreateMenu@0              5f419338 f user32:USER32.dll
 0001:0001833e       _CreatePopupMenu@0         5f41933e f user32:USER32.dll
 0001:00018344       _IsMenu@4                  5f419344 f user32:USER32.dll
 0001:0001834a       _DeleteMenu@12             5f41934a f user32:USER32.dll
 0001:00018350       _AppendMenuW@16            5f419350 f user32:USER32.dll
 0001:00018356       _CheckMenuItem@12          5f419356 f user32:USER32.dll
 0001:0001835c       _EnableMenuItem@12         5f41935c f user32:USER32.dll
 0001:00018362       _GetMenuItemCount@4        5f419362 f user32:USER32.dll
 0001:00018368       _GetMenuItemID@8           5f419368 f user32:USER32.dll
 0001:0001836e       _GetMenuState@12           5f41936e f user32:USER32.dll
 0001:00018374       _GetMenuStringW@20         5f419374 f user32:USER32.dll
 0001:0001837a       _GetSubMenu@8              5f41937a f user32:USER32.dll
 0001:00018380       _InsertMenuW@20            5f419380 f user32:USER32.dll
 0001:00018386       _ModifyMenuW@20            5f419386 f user32:USER32.dll
 0001:0001838c       _RemoveMenu@12             5f41938c f user32:USER32.dll
 0001:00018392       _SetMenuItemBitmaps@20     5f419392 f user32:USER32.dll
 0001:00018398       _LoadMenuW@8               5f419398 f user32:USER32.dll
 0001:0001839e       _LoadMenuIndirectW@4       5f41939e f user32:USER32.dll
 0001:000183a4       _SetMenuContextHelpId@8    5f4193a4 f user32:USER32.dll
 0001:000183aa       _GetMenuContextHelpId@4    5f4193aa f user32:USER32.dll
 0001:000183b0       _CheckMenuRadioItem@20     5f4193b0 f user32:USER32.dll
 0001:000183b6       _PostMessageW@16           5f4193b6 f user32:USER32.dll
 0001:000183bc       _GetMenu@4                 5f4193bc f user32:USER32.dll
 0001:000183c2       _SetMenu@8                 5f4193c2 f user32:USER32.dll
 0001:000183c8       _DrawMenuBar@4             5f4193c8 f user32:USER32.dll
 0001:000183ce       _GetSystemMenu@8           5f4193ce f user32:USER32.dll
 0001:000183d4       _HiliteMenuItem@16         5f4193d4 f user32:USER32.dll
 0001:000183da       _IsIconic@4                5f4193da f user32:USER32.dll
 0001:000183e0       _IsZoomed@4                5f4193e0 f user32:USER32.dll
 0001:000183e6       _ArrangeIconicWindows@4    5f4193e6 f user32:USER32.dll
 0001:000183ec       _BringWindowToTop@4        5f4193ec f user32:USER32.dll
 0001:000183f2       _GetWindowRect@8           5f4193f2 f user32:USER32.dll
 0001:000183f8       _GetClientRect@8           5f4193f8 f user32:USER32.dll
 0001:000183fe       _MapWindowPoints@16        5f4193fe f user32:USER32.dll
 0001:00018404       _ClientToScreen@8          5f419404 f user32:USER32.dll
 0001:0001840a       _ScreenToClient@8          5f41940a f user32:USER32.dll
 0001:00018410       _BeginPaint@8              5f419410 f user32:USER32.dll
 0001:00018416       _EndPaint@8                5f419416 f user32:USER32.dll
 0001:0001841c       _GetDC@4                   5f41941c f user32:USER32.dll
 0001:00018422       _GetWindowDC@4             5f419422 f user32:USER32.dll
 0001:00018428       _ReleaseDC@8               5f419428 f user32:USER32.dll
 0001:0001842e       _UpdateWindow@4            5f41942e f user32:USER32.dll
 0001:00018434       _GetUpdateRect@12          5f419434 f user32:USER32.dll
 0001:0001843a       _GetUpdateRgn@12           5f41943a f user32:USER32.dll
 0001:00018440       _InvalidateRect@12         5f419440 f user32:USER32.dll
 0001:00018446       _InvalidateRgn@12          5f419446 f user32:USER32.dll
 0001:0001844c       _ValidateRect@8            5f41944c f user32:USER32.dll
 0001:00018452       _ValidateRgn@8             5f419452 f user32:USER32.dll
 0001:00018458       _IsWindowVisible@4         5f419458 f user32:USER32.dll
 0001:0001845e       _ShowOwnedPopups@8         5f41945e f user32:USER32.dll
 0001:00018464       _GetDCEx@12                5f419464 f user32:USER32.dll
 0001:0001846a       _LockWindowUpdate@4        5f41946a f user32:USER32.dll
 0001:00018470       _RedrawWindow@16           5f419470 f user32:USER32.dll
 0001:00018476       _EnableScrollBar@12        5f419476 f user32:USER32.dll
 0001:0001847c       _SetTimer@16               5f41947c f user32:USER32.dll
 0001:00018482       _KillTimer@8               5f419482 f user32:USER32.dll
 0001:00018488       _GetActiveWindow@0         5f419488 f user32:USER32.dll
 0001:0001848e       _SetActiveWindow@4         5f41948e f user32:USER32.dll
 0001:00018494       _GetCapture@0              5f419494 f user32:USER32.dll
 0001:0001849a       _SetCapture@4              5f41949a f user32:USER32.dll
 0001:000184a0       _GetFocus@0                5f4194a0 f user32:USER32.dll
 0001:000184a6       _GetDesktopWindow@0        5f4194a6 f user32:USER32.dll
 0001:000184ac       _DlgDirListW@20            5f4194ac f user32:USER32.dll
 0001:000184b2       _DlgDirListComboBoxW@20    5f4194b2 f user32:USER32.dll
 0001:000184b8       _DlgDirSelectExW@16        5f4194b8 f user32:USER32.dll
 0001:000184be       _DlgDirSelectComboBoxExW@16 5f4194be f user32:USER32.dll
 0001:000184c4       _GetNextDlgGroupItem@12    5f4194c4 f user32:USER32.dll
 0001:000184ca       _GetNextDlgTabItem@12      5f4194ca f user32:USER32.dll
 0001:000184d0       _ShowScrollBar@12          5f4194d0 f user32:USER32.dll
 0001:000184d6       _ChildWindowFromPoint@12   5f4194d6 f user32:USER32.dll
 0001:000184dc       _ChildWindowFromPointEx@16 5f4194dc f user32:USER32.dll
 0001:000184e2       _FindWindowW@8             5f4194e2 f user32:USER32.dll
 0001:000184e8       _GetWindow@8               5f4194e8 f user32:USER32.dll
 0001:000184ee       _GetTopWindow@4            5f4194ee f user32:USER32.dll
 0001:000184f4       _GetLastActivePopup@4      5f4194f4 f user32:USER32.dll
 0001:000184fa       _IsChild@8                 5f4194fa f user32:USER32.dll
 0001:00018500       _GetParent@4               5f419500 f user32:USER32.dll
 0001:00018506       _SetParent@8               5f419506 f user32:USER32.dll
 0001:0001850c       _WindowFromPoint@8         5f41950c f user32:USER32.dll
 0001:00018512       _FlashWindow@8             5f419512 f user32:USER32.dll
 0001:00018518       _ChangeClipboardChain@8    5f419518 f user32:USER32.dll
 0001:0001851e       _SetClipboardViewer@4      5f41951e f user32:USER32.dll
 0001:00018524       _OpenClipboard@4           5f419524 f user32:USER32.dll
 0001:0001852a       _GetOpenClipboardWindow@0  5f41952a f user32:USER32.dll
 0001:00018530       _GetClipboardOwner@0       5f419530 f user32:USER32.dll
 0001:00018536       _GetClipboardViewer@0      5f419536 f user32:USER32.dll
 0001:0001853c       _CreateCaret@16            5f41953c f user32:USER32.dll
 0001:00018542       _GetCaretPos@4             5f419542 f user32:USER32.dll
 0001:00018548       _SetCaretPos@8             5f419548 f user32:USER32.dll
 0001:0001854e       _HideCaret@4               5f41954e f user32:USER32.dll
 0001:00018554       _ShowCaret@4               5f419554 f user32:USER32.dll
 0001:0001855a       _SetForegroundWindow@4     5f41955a f user32:USER32.dll
 0001:00018560       _GetForegroundWindow@0     5f419560 f user32:USER32.dll
 0001:00018566       _SendNotifyMessageW@16     5f419566 f user32:USER32.dll
 0001:0001856c       _SetWindowContextHelpId@8  5f41956c f user32:USER32.dll
 0001:00018572       _GetWindowContextHelpId@4  5f419572 f user32:USER32.dll
 0001:00018578       _EnableWindow@8            5f419578 f user32:USER32.dll
 0001:0001857e       _MapDialogRect@8           5f41957e f user32:USER32.dll
 0001:00018584       _GetWindowLongW@8          5f419584 f user32:USER32.dll
 0001:0001858a       _GetScrollPos@8            5f41958a f user32:USER32.dll
 0001:00018590       _SetScrollPos@16           5f419590 f user32:USER32.dll
 0001:00018596       _GetScrollRange@16         5f419596 f user32:USER32.dll
 0001:0001859c       _SetScrollRange@20         5f41959c f user32:USER32.dll
 0001:000185a2       _PostThreadMessageW@16     5f4195a2 f user32:USER32.dll
 0001:000185a8       _LoadCursorW@8             5f4195a8 f user32:USER32.dll
 0001:000185ae       _LoadIconW@8               5f4195ae f user32:USER32.dll
 0001:000185b4       _CloseWindow@4             5f4195b4 f user32:USER32.dll
 0001:000185ba       _OpenIcon@4                5f4195ba f user32:USER32.dll
 0001:000185c0       _CharUpperW@4              5f4195c0 f user32:USER32.dll
 0001:000185c6       _GetSystemMetrics@4        5f4195c6 f user32:USER32.dll
 0001:000185cc       _CharLowerW@4              5f4195cc f user32:USER32.dll
 0001:000185d2       _UnhookWindowsHookEx@4     5f4195d2 f user32:USER32.dll
 0001:000185d8       _MsgWaitForMultipleObjects@20 5f4195d8 f user32:USER32.dll
 0001:000185de       _RegisterWindowMessageW@4  5f4195de f user32:USER32.dll
 0001:000185e4       _SetWindowPos@28           5f4195e4 f user32:USER32.dll
 0001:000185ea       _SetWindowLongW@12         5f4195ea f user32:USER32.dll
 0001:000185f0       _GetMessagePos@0           5f4195f0 f user32:USER32.dll
 0001:000185f6       _GetMessageTime@0          5f4195f6 f user32:USER32.dll
 0001:000185fc       _CallWindowProcW@20        5f4195fc f user32:USER32.dll
 0001:00018602       _RemovePropW@8             5f419602 f user32:USER32.dll
 0001:00018608       _GetPropW@8                5f419608 f user32:USER32.dll
 0001:0001860e       _CallNextHookEx@16         5f41960e f user32:USER32.dll
 0001:00018614       _SetPropW@12               5f419614 f user32:USER32.dll
 0001:0001861a       _SetWindowsHookExW@16      5f41961a f user32:USER32.dll
 0001:00018620       _CreateWindowExW@48        5f419620 f user32:USER32.dll
 0001:00018626       _GetDlgCtrlID@4            5f419626 f user32:USER32.dll
 0001:0001862c       _GetClassNameW@12          5f41962c f user32:USER32.dll
 0001:00018632       _DefWindowProcW@16         5f419632 f user32:USER32.dll
 0001:00018638       _DestroyWindow@4           5f419638 f user32:USER32.dll
 0001:0001863e       _GetKeyState@4             5f41963e f user32:USER32.dll
 0001:00018644       _GetWindowTextW@12         5f419644 f user32:USER32.dll
 0001:0001864a       _GetWindowTextLengthW@4    5f41964a f user32:USER32.dll
 0001:00018650       _GetDlgItem@8              5f419650 f user32:USER32.dll
 0001:00018656       _GetWindowPlacement@8      5f419656 f user32:USER32.dll
 0001:0001865c       _SetWindowPlacement@8      5f41965c f user32:USER32.dll
 0001:00018662       _TrackPopupMenu@28         5f419662 f user32:USER32.dll
 0001:00018668       _RegisterClassW@4          5f419668 f user32:USER32.dll
 0001:0001866e       _GetClassInfoW@12          5f41966e f user32:USER32.dll
 0001:00018674       _WinHelpW@16               5f419674 f user32:USER32.dll
 0001:0001867a       _IsWindowEnabled@4         5f41967a f user32:USER32.dll
 0001:00018680       _SetScrollInfo@16          5f419680 f user32:USER32.dll
 0001:00018686       _GetScrollInfo@12          5f419686 f user32:USER32.dll
 0001:0001868c       _ScrollWindow@20           5f41968c f user32:USER32.dll
 0001:00018692       _EndDeferWindowPos@4       5f419692 f user32:USER32.dll
 0001:00018698       _BeginDeferWindowPos@4     5f419698 f user32:USER32.dll
 0001:0001869e       _DeferWindowPos@32         5f41969e f user32:USER32.dll
 0001:000186a4       _AdjustWindowRectEx@16     5f4196a4 f user32:USER32.dll
 0001:000186aa       _SetFocus@4                5f4196aa f user32:USER32.dll
 0001:000186b0       _DispatchMessageW@4        5f4196b0 f user32:USER32.dll
 0001:000186b6       _GetSysColor@4             5f4196b6 f user32:USER32.dll
 0001:000186bc       _SystemParametersInfoW@16  5f4196bc f user32:USER32.dll
 0001:000186c2       _SendDlgItemMessageA@20    5f4196c2 f user32:USER32.dll
 0001:000186c8       _LoadAcceleratorsW@8       5f4196c8 f user32:USER32.dll
 0001:000186ce       _TranslateAcceleratorW@12  5f4196ce f user32:USER32.dll
 0001:000186d4       _ReleaseCapture@0          5f4196d4 f user32:USER32.dll
 0001:000186da       _SetCursor@4               5f4196da f user32:USER32.dll
 0001:000186e0       _ShowWindow@8              5f4196e0 f user32:USER32.dll
 0001:000186e6       _DestroyMenu@4             5f4196e6 f user32:USER32.dll
 0001:000186ec       _ReuseDDElParam@20         5f4196ec f user32:USER32.dll
 0001:000186f2       _UnpackDDElParam@16        5f4196f2 f user32:USER32.dll
 0001:000186f8       _WaitMessage@0             5f4196f8 f user32:USER32.dll
 0001:000186fe       _GetCursorPos@4            5f4196fe f user32:USER32.dll
 0001:00018704       _GetWindowThreadProcessId@8 5f419704 f user32:USER32.dll
 0001:0001870a       _TranslateMessage@4        5f41970a f user32:USER32.dll
 0001:00018710       _GetMessageW@16            5f419710 f user32:USER32.dll
 0001:00018716       _DefFrameProcW@20          5f419716 f user32:USER32.dll
 0001:0001871c       _TranslateMDISysAccel@8    5f41971c f user32:USER32.dll
 0001:00018722       _DefMDIChildProcW@16       5f419722 f user32:USER32.dll
 0001:00018728       _GetTabbedTextExtentA@20   5f419728 f user32:USER32.dll
 0001:0001872e       _CreateDialogIndirectParamW@20 5f41972e f user32:USER32.dll
 0001:00018734       _EndDialog@8               5f419734 f user32:USER32.dll
 0001:0001873a       _wvsprintfW@12             5f41973a f user32:USER32.dll
 0001:00018740       _GetAsyncKeyState@4        5f419740 f user32:USER32.dll
 0001:00018746       _GetDialogBaseUnits@0      5f419746 f user32:USER32.dll
 0001:0001874c       _GetClipboardFormatNameA@12 5f41974c f user32:USER32.dll
 0001:00018752       _GetClipboardFormatNameW@12 5f419752 f user32:USER32.dll
 0001:00018758       _SetWindowTextW@8          5f419758 f user32:USER32.dll
 0001:0001875e       _CheckDlgButton@12         5f41975e f user32:USER32.dll
 0001:00018764       _CheckRadioButton@16       5f419764 f user32:USER32.dll
 0001:0001876a       _GetDlgItemInt@16          5f41976a f user32:USER32.dll
 0001:00018770       _GetDlgItemTextW@16        5f419770 f user32:USER32.dll
 0001:00018776       _SendDlgItemMessageW@20    5f419776 f user32:USER32.dll
 0001:0001877c       _SetDlgItemInt@16          5f41977c f user32:USER32.dll
 0001:00018782       _SetDlgItemTextW@12        5f419782 f user32:USER32.dll
 0001:00018788       _IsDlgButtonChecked@8      5f419788 f user32:USER32.dll
 0001:0001878e       _ScrollWindowEx@32         5f41978e f user32:USER32.dll
 0001:00018794       _IsDialogMessageW@8        5f419794 f user32:USER32.dll
 0001:0001879a       _MoveWindow@24             5f41979a f user32:USER32.dll
 0001:000187a0       _GetMenuCheckMarkDimensions@0 5f4197a0 f user32:USER32.dll
 0001:000187a6       _DestroyIcon@4             5f4197a6 f user32:USER32.dll
 0001:000187ac       _SetCursorPos@8            5f4197ac f user32:USER32.dll
 0001:000187b2       _DestroyCursor@4           5f4197b2 f user32:USER32.dll
 0001:000187b8       _IsClipboardFormatAvailable@4 5f4197b8 f user32:USER32.dll
 0001:000187be       _MessageBeep@4             5f4197be f user32:USER32.dll
 0001:000187c4       _UnregisterClassW@8        5f4197c4 f user32:USER32.dll
 0001:000187ca       _MessageBoxW@16            5f4197ca f user32:USER32.dll
 0001:000187d0       _LoadStringW@16            5f4197d0 f user32:USER32.dll
 0001:000187d6       _MessageBoxA@16            5f4197d6 f user32:USER32.dll
 0001:000187e0       ?InitString@CSimpleException@@QAEXXZ 5f4197e0 f except.obj
 0001:0001883c       ?GetErrorMessage@CSimpleException@@UAEHPAGIPAI@Z 5f41983c f except.obj
 0001:000188e8       ?AfxThrowMemoryException@@YGXXZ 5f4198e8 f except.obj
 0001:00018910       ?AfxThrowNotSupportedException@@YGXXZ 5f419910 f except.obj
 0001:00018940       ?AfxIsValidString@@YGHPBGH@Z 5f419940 f validadd.obj
 0001:00018992       ?AfxIsValidString@@YGHPBDH@Z 5f419992 f validadd.obj
 0001:000189d7       ?AfxIsValidAddress@@YGHPBXIH@Z 5f4199d7 f validadd.obj
 0001:00018aa0       ?_AfxCrtDumpClient@@YAXPAXI@Z 5f419aa0 f dumpinit.obj
 0001:00018c35       ?_AfxCrtReportHook@@YAHHPADPAH@Z 5f419c35 f dumpinit.obj
 0001:00018cb3       ??0_AFX_DEBUG_STATE@@QAE@XZ 5f419cb3 f dumpinit.obj
 0001:00018dd1       ??1_AFX_DEBUG_STATE@@UAE@XZ 5f419dd1 f dumpinit.obj
 0001:00018edc       ?AfxDiagnosticInit@@YGHXZ  5f419edc f dumpinit.obj
 0001:00018f30       ??_E_AFX_DEBUG_STATE@@UAEPAXI@Z 5f419f30 f dumpinit.obj
 0001:00018f30       ??_G_AFX_DEBUG_STATE@@UAEPAXI@Z 5f419f30 f dumpinit.obj
 0001:00018f70       ??1?$CProcessLocal@V_AFX_DEBUG_STATE@@@@QAE@XZ 5f419f70 f dumpinit.obj
 0001:00018fd0       ?AfxDump@@YGXPBVCObject@@@Z 5f419fd0 f dumpout.obj
 0001:00018ff0       ?AfxTrace@@YAXPBGZZ        5f419ff0 f dumpout.obj
 0001:000190c0       ?AfxAbort@@YGXXZ           5f41a0c0 f afxabort.obj
 0001:000190f0       ??0CString@@QAE@GH@Z       5f41a0f0 f strex.obj
 0001:0001915f       ??0CString@@QAE@PBGH@Z     5f41a15f f strex.obj
 0001:000191dc       ??4CString@@QAEABV0@G@Z    5f41a1dc f strex.obj
 0001:0001920b       ??H@YG?AVCString@@ABV0@G@Z 5f41a20b f strex.obj
 0001:000192b7       ??H@YG?AVCString@@GABV0@@Z 5f41a2b7 f strex.obj
 0001:00019363       ?Mid@CString@@QBE?AV1@H@Z  5f41a363 f strex.obj
 0001:000193e4       ?Mid@CString@@QBE?AV1@HH@Z 5f41a3e4 f strex.obj
 0001:000194ee       ?Right@CString@@QBE?AV1@H@Z 5f41a4ee f strex.obj
 0001:000195d6       ?Left@CString@@QBE?AV1@H@Z 5f41a5d6 f strex.obj
 0001:000196b1       ?SpanIncluding@CString@@QBE?AV1@PBG@Z 5f41a6b1 f strex.obj
 0001:0001975e       ?SpanExcluding@CString@@QBE?AV1@PBG@Z 5f41a75e f strex.obj
 0001:0001980b       ?ReverseFind@CString@@QBEHG@Z 5f41a80b f strex.obj
 0001:00019857       ?Find@CString@@QBEHPBG@Z   5f41a857 f strex.obj
 0001:000198ce       ?FormatV@CString@@IAEXPBGPAD@Z 5f41a8ce f strex.obj
 0001:0001a01a       ?Format@CString@@QAAXPBGZZ 5f41b01a f strex.obj
 0001:0001a075       ?Format@CString@@QAAXIZZ   5f41b075 f strex.obj
 0001:0001a122       ?FormatMessageW@CString@@QAAXPBGZZ 5f41b122 f strex.obj
 0001:0001a184       ?FormatMessageW@CString@@QAAXIZZ 5f41b184 f strex.obj
 0001:0001a263       ?TrimRight@CString@@QAEXXZ 5f41b263 f strex.obj
 0001:0001a316       ?TrimLeft@CString@@QAEXXZ  5f41b316 f strex.obj
 0001:0001a3b5       ?ConstructElements@@YGXPAVCString@@H@Z 5f41b3b5 f strex.obj
 0001:0001a43b       ?DestructElements@@YGXPAVCString@@H@Z 5f41b43b f strex.obj
 0001:0001a4b7       ?CopyElements@@YGXPAVCString@@PBV1@H@Z 5f41b4b7 f strex.obj
 0001:0001a575       ?HashKey@@YGIPBG@Z         5f41b575 f strex.obj
 0001:0001a5c0       ??0CTime@@QAE@HHHHHHH@Z    5f41b5c0 f timecore.obj
 0001:0001a6b2       ??0CTime@@QAE@GGH@Z        5f41b6b2 f timecore.obj
 0001:0001a756       ??0CTime@@QAE@ABU_SYSTEMTIME@@H@Z 5f41b756 f timecore.obj
 0001:0001a7fc       ??0CTime@@QAE@ABU_FILETIME@@H@Z 5f41b7fc f timecore.obj
 0001:0001a87b       ?GetTickCount@CTime@@SG?AV1@XZ 5f41b87b f timecore.obj
 0001:0001a8a4       ?GetGmtTm@CTime@@QBEPAUtm@@PAU2@@Z 5f41b8a4 f timecore.obj
 0001:0001a8f9       ?GetLocalTm@CTime@@QBEPAUtm@@PAU2@@Z 5f41b8f9 f timecore.obj
 0001:0001a963       ??6@YGAAVCDumpContext@@AAV0@VCTime@@@Z 5f41b963 f timecore.obj
 0001:0001a9f0       ??6@YGAAVCArchive@@AAV0@VCTime@@@Z 5f41b9f0 f timecore.obj
 0001:0001aa0e       ??5@YGAAVCArchive@@AAV0@AAVCTime@@@Z 5f41ba0e f timecore.obj
 0001:0001aa2c       ??6@YGAAVCDumpContext@@AAV0@VCTimeSpan@@@Z 5f41ba2c f timecore.obj
 0001:0001aabb       ??6@YGAAVCArchive@@AAV0@VCTimeSpan@@@Z 5f41babb f timecore.obj
 0001:0001aad9       ??5@YGAAVCArchive@@AAV0@AAVCTimeSpan@@@Z 5f41bad9 f timecore.obj
 0001:0001aaf7       ?Format@CTimeSpan@@QBE?AVCString@@PBG@Z 5f41baf7 f timecore.obj
 0001:0001add9       ?Format@CTimeSpan@@QBE?AVCString@@I@Z 5f41bdd9 f timecore.obj
 0001:0001ae9d       ?Format@CTime@@QBE?AVCString@@PBG@Z 5f41be9d f timecore.obj
 0001:0001af71       ?FormatGmt@CTime@@QBE?AVCString@@PBG@Z 5f41bf71 f timecore.obj
 0001:0001b045       ?Format@CTime@@QBE?AVCString@@I@Z 5f41c045 f timecore.obj
 0001:0001b109       ?FormatGmt@CTime@@QBE?AVCString@@I@Z 5f41c109 f timecore.obj
 0001:0001b1cd       ?Format@CTime@@QBE?AVCString@@PBD@Z 5f41c1cd f timecore.obj
 0001:0001b269       ?FormatGmt@CTime@@QBE?AVCString@@PBD@Z 5f41c269 f timecore.obj
 0001:0001b305       ?Format@CTimeSpan@@QBE?AVCString@@PBD@Z 5f41c305 f timecore.obj
 0001:0001b3b0       ?LoadBitmaps@CBitmapButton@@QAEHPBG000@Z 5f41c3b0 f winbtn.obj
 0001:0001b4b8       ?SizeToContent@CBitmapButton@@QAEXXZ 5f41c4b8 f winbtn.obj
 0001:0001b55c       ?AutoLoad@CBitmapButton@@QAEHIPAVCWnd@@@Z 5f41c55c f winbtn.obj
 0001:0001b713       ?DrawItem@CBitmapButton@@MAEXPAUtagDRAWITEMSTRUCT@@@Z 5f41c713 f winbtn.obj
 0001:0001b8cb       ?AssertValid@CBitmapButton@@UBEXXZ 5f41c8cb f winbtn.obj
 0001:0001b925       ?Dump@CBitmapButton@@UBEXAAVCDumpContext@@@Z 5f41c925 f winbtn.obj
 0001:0001bb0e       ?_GetBaseMessageMap@CCommonDialog@@KGPBUAFX_MSGMAP@@XZ 5f41cb0e f dlgcomm.obj
 0001:0001bb23       ?GetMessageMap@CCommonDialog@@MBEPBUAFX_MSGMAP@@XZ 5f41cb23 f dlgcomm.obj
 0001:0001bb3e       ?_AfxCommDlgProc@@YGIPAUHWND__@@IIJ@Z 5f41cb3e f dlgcomm.obj
 0001:0001be9a       ?OnOK@CCommonDialog@@MAEXXZ 5f41ce9a f dlgcomm.obj
 0001:0001bef4       ?OnCancel@CCommonDialog@@MAEXXZ 5f41cef4 f dlgcomm.obj
 0001:0001bf25       ?OnHelpInfo@CCommonDialog@@IAEHPAUtagHELPINFO@@@Z 5f41cf25 f dlgcomm.obj
 0001:0001bf50       ??0CFileDialog@@QAE@HPBG0K0PAVCWnd@@@Z 5f41cf50 f dlgfile.obj
 0001:0001c192       ?DoModal@CFileDialog@@UAEHXZ 5f41d192 f dlgfile.obj
 0001:0001c36d       ?GetPathName@CFileDialog@@QBE?AVCString@@XZ 5f41d36d f dlgfile.obj
 0001:0001c506       ?GetFileName@CFileDialog@@QBE?AVCString@@XZ 5f41d506 f dlgfile.obj
 0001:0001c64c       ?GetFileExt@CFileDialog@@QBE?AVCString@@XZ 5f41d64c f dlgfile.obj
 0001:0001c899       ?GetFileTitle@CFileDialog@@QBE?AVCString@@XZ 5f41d899 f dlgfile.obj
 0001:0001c968       ?GetNextPathName@CFileDialog@@QBE?AVCString@@AAPAU__POSITION@@@Z 5f41d968 f dlgfile.obj
 0001:0001cd7e       ?SetTemplate@CFileDialog@@QAEXPBG0@Z 5f41dd7e f dlgfile.obj
 0001:0001cdcd       ?GetFolderPath@CFileDialog@@QBE?AVCString@@XZ 5f41ddcd f dlgfile.obj
 0001:0001cef7       ?SetControlText@CFileDialog@@QAEXHPBD@Z 5f41def7 f dlgfile.obj
 0001:0001cf80       ?HideControl@CFileDialog@@QAEXH@Z 5f41df80 f dlgfile.obj
 0001:0001d007       ?SetDefExt@CFileDialog@@QAEXPBD@Z 5f41e007 f dlgfile.obj
 0001:0001d08e       ?OnShareViolation@CFileDialog@@MAEIPBG@Z 5f41e08e f dlgfile.obj
 0001:0001d0bb       ?OnFileNameOK@CFileDialog@@MAEHXZ 5f41e0bb f dlgfile.obj
 0001:0001d0e6       ?OnLBSelChangedNotify@CFileDialog@@MAEXIII@Z 5f41e0e6 f dlgfile.obj
 0001:0001d111       ?OnInitDone@CFileDialog@@MAEXXZ 5f41e111 f dlgfile.obj
 0001:0001d14b       ?OnFileNameChange@CFileDialog@@MAEXXZ 5f41e14b f dlgfile.obj
 0001:0001d174       ?OnFolderChange@CFileDialog@@MAEXXZ 5f41e174 f dlgfile.obj
 0001:0001d19d       ?OnTypeChange@CFileDialog@@MAEXXZ 5f41e19d f dlgfile.obj
 0001:0001d1c6       ?OnNotify@CFileDialog@@MAEHIJPAJ@Z 5f41e1c6 f dlgfile.obj
 0001:0001d350       ?Dump@CFileDialog@@UBEXAAVCDumpContext@@@Z 5f41e350 f dlgfile.obj
 0001:0001d620       ??_ECFileDialog@@UAEPAXI@Z 5f41e620 f dlgfile.obj
 0001:0001d620       ??_GCFileDialog@@UAEPAXI@Z 5f41e620 f dlgfile.obj
 0001:0001d660       ??1CFileDialog@@UAE@XZ     5f41e660 f dlgfile.obj
 0001:0001d6e0       ??0CPageSetupDialog@@QAE@KPAVCWnd@@@Z 5f41e6e0 f dlgprnt.obj
 0001:0001d7be       ?DoModal@CPageSetupDialog@@UAEHXZ 5f41e7be f dlgprnt.obj
 0001:0001d8af       ?GetDevMode@CPageSetupDialog@@QBEPAU_devicemodeW@@XZ 5f41e8af f dlgprnt.obj
 0001:0001d8e6       ?GetDriverName@CPageSetupDialog@@QBE?AVCString@@XZ 5f41e8e6 f dlgprnt.obj
 0001:0001d99a       ?GetDeviceName@CPageSetupDialog@@QBE?AVCString@@XZ 5f41e99a f dlgprnt.obj
 0001:0001da4f       ?GetPortName@CPageSetupDialog@@QBE?AVCString@@XZ 5f41ea4f f dlgprnt.obj
 0001:0001db04       ?CreatePrinterDC@CPageSetupDialog@@QAEPAUHDC__@@XZ 5f41eb04 f dlgprnt.obj
 0001:0001db3d       ?GetMargins@CPageSetupDialog@@QBEXPAUtagRECT@@0@Z 5f41eb3d f dlgprnt.obj
 0001:0001db95       ?Dump@CPageSetupDialog@@UBEXAAVCDumpContext@@@Z 5f41eb95 f dlgprnt.obj
 0001:0001dcb4       ?PreDrawPage@CPageSetupDialog@@UAEIGGPAUtagPSDW@@@Z 5f41ecb4 f dlgprnt.obj
 0001:0001dcce       ?OnDrawPage@CPageSetupDialog@@UAEIPAVCDC@@IPAUtagRECT@@@Z 5f41ecce f dlgprnt.obj
 0001:0001dce8       ?PaintHookProc@CPageSetupDialog@@KGIPAUHWND__@@IIJ@Z 5f41ece8 f dlgprnt.obj
 0001:0001ddd4       ?_GetBaseMessageMap@CPrintDialog@@KGPBUAFX_MSGMAP@@XZ 5f41edd4 f dlgprnt.obj
 0001:0001dde9       ?GetMessageMap@CPrintDialog@@MBEPBUAFX_MSGMAP@@XZ 5f41ede9 f dlgprnt.obj
 0001:0001de04       ??0CPrintDialog@@QAE@HKPAVCWnd@@@Z 5f41ee04 f dlgprnt.obj
 0001:0001df3d       ??0CPrintDialog@@IAE@AAUtagPDW@@@Z 5f41ef3d f dlgprnt.obj
 0001:0001dfb9       ?AttachOnSetup@CPrintDialog@@MAEPAV1@XZ 5f41efb9 f dlgprnt.obj
 0001:0001e044       ?OnPrintSetup@CPrintDialog@@IAEXXZ 5f41f044 f dlgprnt.obj
 0001:0001e0de       ?DoModal@CPrintDialog@@UAEHXZ 5f41f0de f dlgprnt.obj
 0001:0001e1e7       ?CreatePrinterDC@CPrintDialog@@QAEPAUHDC__@@XZ 5f41f1e7 f dlgprnt.obj
 0001:0001e23b       ?GetCopies@CPrintDialog@@QBEHXZ 5f41f23b f dlgprnt.obj
 0001:0001e298       ?GetDevMode@CPrintDialog@@QBEPAU_devicemodeW@@XZ 5f41f298 f dlgprnt.obj
 0001:0001e2d5       ?GetDriverName@CPrintDialog@@QBE?AVCString@@XZ 5f41f2d5 f dlgprnt.obj
 0001:0001e38f       ?GetDeviceName@CPrintDialog@@QBE?AVCString@@XZ 5f41f38f f dlgprnt.obj
 0001:0001e44a       ?GetPortName@CPrintDialog@@QBE?AVCString@@XZ 5f41f44a f dlgprnt.obj
 0001:0001e505       ?GetDefaults@CPrintDialog@@QAEHXZ 5f41f505 f dlgprnt.obj
 0001:0001e535       ?Dump@CPrintDialog@@UBEXAAVCDumpContext@@@Z 5f41f535 f dlgprnt.obj
 0001:0001e6d5       ?AfxCreateDC@@YGPAUHDC__@@PAX0@Z 5f41f6d5 f dlgprnt.obj
 0001:0001e7b0       ??_GCPageSetupDialog@@UAEPAXI@Z 5f41f7b0 f dlgprnt.obj
 0001:0001e7f0       ??1CPageSetupDialog@@UAE@XZ 5f41f7f0 f dlgprnt.obj
 0001:0001e850       ??_GCPrintDialog@@UAEPAXI@Z 5f41f850 f dlgprnt.obj
 0001:0001e850       ??_ECPrintDialog@@UAEPAXI@Z 5f41f850 f dlgprnt.obj
 0001:0001e890       ??1CPrintDialog@@UAE@XZ    5f41f890 f dlgprnt.obj
 0001:0001e8f0       ??0_AFX_COLOR_STATE@@QAE@XZ 5f41f8f0 f dlgclr.obj
 0001:0001e98b       ?_GetBaseMessageMap@CColorDialog@@KGPBUAFX_MSGMAP@@XZ 5f41f98b f dlgclr.obj
 0001:0001e9a0       ?GetMessageMap@CColorDialog@@MBEPBUAFX_MSGMAP@@XZ 5f41f9a0 f dlgclr.obj
 0001:0001e9bb       ??0CColorDialog@@QAE@KKPAVCWnd@@@Z 5f41f9bb f dlgclr.obj
 0001:0001eab6       ?DoModal@CColorDialog@@UAEHXZ 5f41fab6 f dlgclr.obj
 0001:0001eb5d       ?OnColorOK@CColorDialog@@MAEHXZ 5f41fb5d f dlgclr.obj
 0001:0001eb85       ?SetCurrentColor@CColorDialog@@QAEXK@Z 5f41fb85 f dlgclr.obj
 0001:0001ebe3       ?GetSavedCustomColors@CColorDialog@@SGPAKXZ 5f41fbe3 f dlgclr.obj
 0001:0001ec00       ?OnCtlColor@CColorDialog@@IAEPAUHBRUSH__@@PAVCDC@@PAVCWnd@@I@Z 5f41fc00 f dlgclr.obj
 0001:0001ec20       ?Dump@CColorDialog@@UBEXAAVCDumpContext@@@Z 5f41fc20 f dlgclr.obj
 0001:0001ed20       ??_G_AFX_COLOR_STATE@@UAEPAXI@Z 5f41fd20 f dlgclr.obj
 0001:0001ed20       ??_E_AFX_COLOR_STATE@@UAEPAXI@Z 5f41fd20 f dlgclr.obj
 0001:0001ed60       ??1_AFX_COLOR_STATE@@UAE@XZ 5f41fd60 f dlgclr.obj
 0001:0001edc0       ??_GCColorDialog@@UAEPAXI@Z 5f41fdc0 f dlgclr.obj
 0001:0001edc0       ??_ECColorDialog@@UAEPAXI@Z 5f41fdc0 f dlgclr.obj
 0001:0001ee00       ??1CColorDialog@@UAE@XZ    5f41fe00 f dlgclr.obj
 0001:0001ee60       ??0CFontDialog@@QAE@PAUtagLOGFONTW@@KPAVCDC@@PAVCWnd@@@Z 5f41fe60 f dlgfnt.obj
 0001:0001effa       ??0CFontDialog@@QAE@ABU_charformatw@@KPAVCDC@@PAVCWnd@@@Z 5f41fffa f dlgfnt.obj
 0001:0001f186       ?DoModal@CFontDialog@@UAEHXZ 5f420186 f dlgfnt.obj
 0001:0001f25e       ?GetCurrentFont@CFontDialog@@QAEXPAUtagLOGFONTW@@@Z 5f42025e f dlgfnt.obj
 0001:0001f2cd       ?FillInLogFont@CFontDialog@@QAEKABU_charformatw@@@Z 5f4202cd f dlgfnt.obj
 0001:0001f560       ?GetCharFormat@CFontDialog@@QBEXAAU_charformatw@@@Z 5f420560 f dlgfnt.obj
 0001:0001f71e       ?Dump@CFontDialog@@UBEXAAVCDumpContext@@@Z 5f42071e f dlgfnt.obj
 0001:0001f890       ??_GCFontDialog@@UAEPAXI@Z 5f420890 f dlgfnt.obj
 0001:0001f890       ??_ECFontDialog@@UAEPAXI@Z 5f420890 f dlgfnt.obj
 0001:0001f8d0       ??1CFontDialog@@UAE@XZ     5f4208d0 f dlgfnt.obj
 0001:0001f930       ??0CFindReplaceDialog@@QAE@XZ 5f420930 f dlgfr.obj
 0001:0001fa1f       ?PostNcDestroy@CFindReplaceDialog@@MAEXXZ 5f420a1f f dlgfr.obj
 0001:0001fa7f       ?Create@CFindReplaceDialog@@QAEHHPBG0KPAVCWnd@@@Z 5f420a7f f dlgfr.obj
 0001:0001fc73       ?GetNotifier@CFindReplaceDialog@@SGPAV1@J@Z 5f420c73 f dlgfr.obj
 0001:0001fced       ?Dump@CFindReplaceDialog@@UBEXAAVCDumpContext@@@Z 5f420ced f dlgfr.obj
 0001:0001fdc0       ??_GCFindReplaceDialog@@UAEPAXI@Z 5f420dc0 f dlgfr.obj
 0001:0001fdc0       ??_ECFindReplaceDialog@@UAEPAXI@Z 5f420dc0 f dlgfr.obj
 0001:0001fe00       ??1CFindReplaceDialog@@UAE@XZ 5f420e00 f dlgfr.obj
 0001:0001fe60       ??0CByteArray@@QAE@XZ      5f420e60 f array_b.obj
 0001:0001fefb       ??1CByteArray@@UAE@XZ      5f420efb f array_b.obj
 0001:0001ff8e       ?SetSize@CByteArray@@QAEXHH@Z 5f420f8e f array_b.obj
 0001:0002024a       ?Append@CByteArray@@QAEHABV1@@Z 5f42124a f array_b.obj
 0001:000202dc       ?Copy@CByteArray@@QAEXABV1@@Z 5f4212dc f array_b.obj
 0001:00020359       ?FreeExtra@CByteArray@@QAEXXZ 5f421359 f array_b.obj
 0001:00020433       ?SetAtGrow@CByteArray@@QAEXHE@Z 5f421433 f array_b.obj
 0001:000204ad       ?InsertAt@CByteArray@@QAEXHEH@Z 5f4214ad f array_b.obj
 0001:000205f1       ?RemoveAt@CByteArray@@QAEXHH@Z 5f4215f1 f array_b.obj
 0001:000206d5       ?InsertAt@CByteArray@@QAEXHPAV1@@Z 5f4216d5 f array_b.obj
 0001:000207f5       ?Serialize@CByteArray@@UAEXAAVCArchive@@@Z 5f4217f5 f array_b.obj
 0001:00020895       ?Dump@CByteArray@@UBEXAAVCDumpContext@@@Z 5f421895 f array_b.obj
 0001:00020958       ?AssertValid@CByteArray@@UBEXXZ 5f421958 f array_b.obj
 0001:00020a80       ??_GCByteArray@@UAEPAXI@Z  5f421a80 f array_b.obj
 0001:00020ac0       ??0CDWordArray@@QAE@XZ     5f421ac0 f array_d.obj
 0001:00020b5b       ??1CDWordArray@@UAE@XZ     5f421b5b f array_d.obj
 0001:00020bee       ?SetSize@CDWordArray@@QAEXHH@Z 5f421bee f array_d.obj
 0001:00020ec8       ?Append@CDWordArray@@QAEHABV1@@Z 5f421ec8 f array_d.obj
 0001:00020f60       ?Copy@CDWordArray@@QAEXABV1@@Z 5f421f60 f array_d.obj
 0001:00020fe0       ?FreeExtra@CDWordArray@@QAEXXZ 5f421fe0 f array_d.obj
 0001:000210c3       ?SetAtGrow@CDWordArray@@QAEXHK@Z 5f4220c3 f array_d.obj
 0001:0002113d       ?InsertAt@CDWordArray@@QAEXHKH@Z 5f42213d f array_d.obj
 0001:00021290       ?RemoveAt@CDWordArray@@QAEXHH@Z 5f422290 f array_d.obj
 0001:0002137d       ?InsertAt@CDWordArray@@QAEXHPAV1@@Z 5f42237d f array_d.obj
 0001:0002149d       ?Serialize@CDWordArray@@UAEXAAVCArchive@@@Z 5f42249d f array_d.obj
 0001:00021543       ?Dump@CDWordArray@@UBEXAAVCDumpContext@@@Z 5f422543 f array_d.obj
 0001:00021606       ?AssertValid@CDWordArray@@UBEXXZ 5f422606 f array_d.obj
 0001:00021730       ??_GCDWordArray@@UAEPAXI@Z 5f422730 f array_d.obj
 0001:00021770       ??0CPtrArray@@QAE@XZ       5f422770 f array_p.obj
 0001:0002180b       ??1CPtrArray@@UAE@XZ       5f42280b f array_p.obj
 0001:0002189e       ?SetSize@CPtrArray@@QAEXHH@Z 5f42289e f array_p.obj
 0001:00021b78       ?Append@CPtrArray@@QAEHABV1@@Z 5f422b78 f array_p.obj
 0001:00021c10       ?Copy@CPtrArray@@QAEXABV1@@Z 5f422c10 f array_p.obj
 0001:00021c90       ?FreeExtra@CPtrArray@@QAEXXZ 5f422c90 f array_p.obj
 0001:00021d73       ?SetAtGrow@CPtrArray@@QAEXHPAX@Z 5f422d73 f array_p.obj
 0001:00021ded       ?InsertAt@CPtrArray@@QAEXHPAXH@Z 5f422ded f array_p.obj
 0001:00021f40       ?RemoveAt@CPtrArray@@QAEXHH@Z 5f422f40 f array_p.obj
 0001:0002202d       ?InsertAt@CPtrArray@@QAEXHPAV1@@Z 5f42302d f array_p.obj
 0001:0002214d       ?Dump@CPtrArray@@UBEXAAVCDumpContext@@@Z 5f42314d f array_p.obj
 0001:00022210       ?AssertValid@CPtrArray@@UBEXXZ 5f423210 f array_p.obj
 0001:00022340       ??_GCPtrArray@@UAEPAXI@Z   5f423340 f array_p.obj
 0001:00022380       ??0CObArray@@QAE@XZ        5f423380 f array_o.obj
 0001:0002241b       ??1CObArray@@UAE@XZ        5f42341b f array_o.obj
 0001:000224ae       ?SetSize@CObArray@@QAEXHH@Z 5f4234ae f array_o.obj
 0001:00022788       ?Append@CObArray@@QAEHABV1@@Z 5f423788 f array_o.obj
 0001:00022820       ?Copy@CObArray@@QAEXABV1@@Z 5f423820 f array_o.obj
 0001:000228a0       ?FreeExtra@CObArray@@QAEXXZ 5f4238a0 f array_o.obj
 0001:00022983       ?SetAtGrow@CObArray@@QAEXHPAVCObject@@@Z 5f423983 f array_o.obj
 0001:000229fd       ?InsertAt@CObArray@@QAEXHPAVCObject@@H@Z 5f4239fd f array_o.obj
 0001:00022b50       ?RemoveAt@CObArray@@QAEXHH@Z 5f423b50 f array_o.obj
 0001:00022c3d       ?InsertAt@CObArray@@QAEXHPAV1@@Z 5f423c3d f array_o.obj
 0001:00022d5d       ?Serialize@CObArray@@UAEXAAVCArchive@@@Z 5f423d5d f array_o.obj
 0001:00022e43       ?Dump@CObArray@@UBEXAAVCDumpContext@@@Z 5f423e43 f array_o.obj
 0001:00022f06       ?AssertValid@CObArray@@UBEXXZ 5f423f06 f array_o.obj
 0001:00023030       ??_GCObArray@@UAEPAXI@Z    5f424030 f array_o.obj
 0001:00023070       ??0CStringArray@@QAE@XZ    5f424070 f array_s.obj
 0001:0002310b       ??1CStringArray@@UAE@XZ    5f42410b f array_s.obj
 0001:00023228       ?SetSize@CStringArray@@QAEXHH@Z 5f424228 f array_s.obj
 0001:000235c6       ?Append@CStringArray@@QAEHABV1@@Z 5f4245c6 f array_s.obj
 0001:000236b9       ?Copy@CStringArray@@QAEXABV1@@Z 5f4246b9 f array_s.obj
 0001:00023736       ?FreeExtra@CStringArray@@QAEXXZ 5f424736 f array_s.obj
 0001:00023819       ?SetAtGrow@CStringArray@@QAEXHPBG@Z 5f424819 f array_s.obj
 0001:00023899       ?InsertAt@CStringArray@@QAEXHPBGH@Z 5f424899 f array_s.obj
 0001:000239f3       ?RemoveAt@CStringArray@@QAEXHH@Z 5f4249f3 f array_s.obj
 0001:00023af9       ?InsertAt@CStringArray@@QAEXHPAV1@@Z 5f424af9 f array_s.obj
 0001:00023c8f       ?Serialize@CStringArray@@UAEXAAVCArchive@@@Z 5f424c8f f array_s.obj
 0001:00023d75       ?Dump@CStringArray@@UBEXAAVCDumpContext@@@Z 5f424d75 f array_s.obj
 0001:00023e37       ?AssertValid@CStringArray@@UBEXXZ 5f424e37 f array_s.obj
 0001:00023f60       ??_GCStringArray@@UAEPAXI@Z 5f424f60 f array_s.obj
 0001:00023fa0       ??_GCString@@QAEPAXI@Z     5f424fa0 f array_s.obj
 0001:00023fe0       ??0CUIntArray@@QAE@XZ      5f424fe0 f array_u.obj
 0001:0002407b       ??1CUIntArray@@UAE@XZ      5f42507b f array_u.obj
 0001:0002410e       ?SetSize@CUIntArray@@QAEXHH@Z 5f42510e f array_u.obj
 0001:000243e8       ?Append@CUIntArray@@QAEHABV1@@Z 5f4253e8 f array_u.obj
 0001:00024480       ?Copy@CUIntArray@@QAEXABV1@@Z 5f425480 f array_u.obj
 0001:00024500       ?FreeExtra@CUIntArray@@QAEXXZ 5f425500 f array_u.obj
 0001:000245e3       ?SetAtGrow@CUIntArray@@QAEXHI@Z 5f4255e3 f array_u.obj
 0001:0002465d       ?InsertAt@CUIntArray@@QAEXHIH@Z 5f42565d f array_u.obj
 0001:000247b0       ?RemoveAt@CUIntArray@@QAEXHH@Z 5f4257b0 f array_u.obj
 0001:0002489d       ?InsertAt@CUIntArray@@QAEXHPAV1@@Z 5f42589d f array_u.obj
 0001:000249bd       ?Dump@CUIntArray@@UBEXAAVCDumpContext@@@Z 5f4259bd f array_u.obj
 0001:00024a80       ?AssertValid@CUIntArray@@UBEXXZ 5f425a80 f array_u.obj
 0001:00024bb0       ??_GCUIntArray@@UAEPAXI@Z  5f425bb0 f array_u.obj
 0001:00024bf0       ??0CWordArray@@QAE@XZ      5f425bf0 f array_w.obj
 0001:00024c8b       ??1CWordArray@@UAE@XZ      5f425c8b f array_w.obj
 0001:00024d1e       ?SetSize@CWordArray@@QAEXHH@Z 5f425d1e f array_w.obj
 0001:00024ff0       ?Append@CWordArray@@QAEHABV1@@Z 5f425ff0 f array_w.obj
 0001:00025087       ?Copy@CWordArray@@QAEXABV1@@Z 5f426087 f array_w.obj
 0001:00025106       ?FreeExtra@CWordArray@@QAEXXZ 5f426106 f array_w.obj
 0001:000251e7       ?SetAtGrow@CWordArray@@QAEXHG@Z 5f4261e7 f array_w.obj
 0001:00025263       ?InsertAt@CWordArray@@QAEXHGH@Z 5f426263 f array_w.obj
 0001:000253b5       ?RemoveAt@CWordArray@@QAEXHH@Z 5f4263b5 f array_w.obj
 0001:000254a0       ?InsertAt@CWordArray@@QAEXHPAV1@@Z 5f4264a0 f array_w.obj
 0001:000255c0       ?Serialize@CWordArray@@UAEXAAVCArchive@@@Z 5f4265c0 f array_w.obj
 0001:00025664       ?Dump@CWordArray@@UBEXAAVCDumpContext@@@Z 5f426664 f array_w.obj
 0001:00025728       ?AssertValid@CWordArray@@UBEXXZ 5f426728 f array_w.obj
 0001:00025850       ??_GCWordArray@@UAEPAXI@Z  5f426850 f array_w.obj
 0001:00025890       ??0CObList@@QAE@H@Z        5f426890 f list_o.obj
 0001:0002595f       ?RemoveAll@CObList@@QAEXXZ 5f42695f f list_o.obj
 0001:000259c6       ??1CObList@@UAE@XZ         5f4269c6 f list_o.obj
 0001:00025a58       ?NewNode@CObList@@IAEPAUCNode@1@PAU21@0@Z 5f426a58 f list_o.obj
 0001:00025b68       ?FreeNode@CObList@@IAEXPAUCNode@1@@Z 5f426b68 f list_o.obj
 0001:00025bd1       ?AddHead@CObList@@QAEPAU__POSITION@@PAVCObject@@@Z 5f426bd1 f list_o.obj
 0001:00025c4c       ?AddTail@CObList@@QAEPAU__POSITION@@PAVCObject@@@Z 5f426c4c f list_o.obj
 0001:00025cc6       ?AddHead@CObList@@QAEXPAV1@@Z 5f426cc6 f list_o.obj
 0001:00025d84       ?AddTail@CObList@@QAEXPAV1@@Z 5f426d84 f list_o.obj
 0001:00025e42       ?RemoveHead@CObList@@QAEPAVCObject@@XZ 5f426e42 f list_o.obj
 0001:00025f15       ?RemoveTail@CObList@@QAEPAVCObject@@XZ 5f426f15 f list_o.obj
 0001:00025fe8       ?InsertBefore@CObList@@QAEPAU__POSITION@@PAU2@PAVCObject@@@Z 5f426fe8 f list_o.obj
 0001:000260dc       ?InsertAfter@CObList@@QAEPAU__POSITION@@PAU2@PAVCObject@@@Z 5f4270dc f list_o.obj
 0001:000261f9       ?RemoveAt@CObList@@QAEXPAU__POSITION@@@Z 5f4271f9 f list_o.obj
 0001:0002631c       ?FindIndex@CObList@@QBEPAU__POSITION@@H@Z 5f42731c f list_o.obj
 0001:000263d8       ?Find@CObList@@QBEPAU__POSITION@@PAVCObject@@PAU2@@Z 5f4273d8 f list_o.obj
 0001:0002648b       ?Serialize@CObList@@UAEXAAVCArchive@@@Z 5f42748b f list_o.obj
 0001:00026584       ?Dump@CObList@@UBEXAAVCDumpContext@@@Z 5f427584 f list_o.obj
 0001:00026627       ?AssertValid@CObList@@UBEXXZ 5f427627 f list_o.obj
 0001:00026710       ??_GCObList@@UAEPAXI@Z     5f427710 f list_o.obj
 0001:00026750       ??0CPtrList@@QAE@H@Z       5f427750 f list_p.obj
 0001:0002681f       ?RemoveAll@CPtrList@@QAEXXZ 5f42781f f list_p.obj
 0001:00026886       ??1CPtrList@@UAE@XZ        5f427886 f list_p.obj
 0001:00026918       ?NewNode@CPtrList@@IAEPAUCNode@1@PAU21@0@Z 5f427918 f list_p.obj
 0001:00026a28       ?FreeNode@CPtrList@@IAEXPAUCNode@1@@Z 5f427a28 f list_p.obj
 0001:00026a91       ?AddHead@CPtrList@@QAEPAU__POSITION@@PAX@Z 5f427a91 f list_p.obj
 0001:00026b0c       ?AddTail@CPtrList@@QAEPAU__POSITION@@PAX@Z 5f427b0c f list_p.obj
 0001:00026b86       ?AddHead@CPtrList@@QAEXPAV1@@Z 5f427b86 f list_p.obj
 0001:00026c44       ?AddTail@CPtrList@@QAEXPAV1@@Z 5f427c44 f list_p.obj
 0001:00026d02       ?RemoveHead@CPtrList@@QAEPAXXZ 5f427d02 f list_p.obj
 0001:00026dd5       ?RemoveTail@CPtrList@@QAEPAXXZ 5f427dd5 f list_p.obj
 0001:00026ea8       ?InsertBefore@CPtrList@@QAEPAU__POSITION@@PAU2@PAX@Z 5f427ea8 f list_p.obj
 0001:00026f9c       ?InsertAfter@CPtrList@@QAEPAU__POSITION@@PAU2@PAX@Z 5f427f9c f list_p.obj
 0001:000270b9       ?RemoveAt@CPtrList@@QAEXPAU__POSITION@@@Z 5f4280b9 f list_p.obj
 0001:000271dc       ?FindIndex@CPtrList@@QBEPAU__POSITION@@H@Z 5f4281dc f list_p.obj
 0001:00027298       ?Find@CPtrList@@QBEPAU__POSITION@@PAXPAU2@@Z 5f428298 f list_p.obj
 0001:0002734b       ?Dump@CPtrList@@UBEXAAVCDumpContext@@@Z 5f42834b f list_p.obj
 0001:000273ee       ?AssertValid@CPtrList@@UBEXXZ 5f4283ee f list_p.obj
 0001:000274d0       ??_GCPtrList@@UAEPAXI@Z    5f4284d0 f list_p.obj
 0001:00027510       ??0CStringList@@QAE@H@Z    5f428510 f list_s.obj
 0001:000275df       ?RemoveAll@CStringList@@QAEXXZ 5f4285df f list_s.obj
 0001:00027694       ??1CStringList@@UAE@XZ     5f428694 f list_s.obj
 0001:00027726       ?NewNode@CStringList@@IAEPAUCNode@1@PAU21@0@Z 5f428726 f list_s.obj
 0001:0002785f       ?FreeNode@CStringList@@IAEXPAUCNode@1@@Z 5f42885f f list_s.obj
 0001:000278da       ?AddHead@CStringList@@QAEPAU__POSITION@@PBG@Z 5f4288da f list_s.obj
 0001:0002795b       ?AddTail@CStringList@@QAEPAU__POSITION@@PBG@Z 5f42895b f list_s.obj
 0001:000279db       ?AddHead@CStringList@@QAEXPAV1@@Z 5f4289db f list_s.obj
 0001:00027a9e       ?AddTail@CStringList@@QAEXPAV1@@Z 5f428a9e f list_s.obj
 0001:00027b61       ?RemoveHead@CStringList@@QAE?AVCString@@XZ 5f428b61 f list_s.obj
 0001:00027ca8       ?RemoveTail@CStringList@@QAE?AVCString@@XZ 5f428ca8 f list_s.obj
 0001:00027def       ?InsertBefore@CStringList@@QAEPAU__POSITION@@PAU2@PBG@Z 5f428def f list_s.obj
 0001:00027ee9       ?InsertAfter@CStringList@@QAEPAU__POSITION@@PAU2@PBG@Z 5f428ee9 f list_s.obj
 0001:0002800c       ?RemoveAt@CStringList@@QAEXPAU__POSITION@@@Z 5f42900c f list_s.obj
 0001:0002812f       ?FindIndex@CStringList@@QBEPAU__POSITION@@H@Z 5f42912f f list_s.obj
 0001:000281eb       ?Find@CStringList@@QBEPAU__POSITION@@PBGPAU2@@Z 5f4291eb f list_s.obj
 0001:000282a7       ?Serialize@CStringList@@UAEXAAVCArchive@@@Z 5f4292a7 f list_s.obj
 0001:000283f1       ?Dump@CStringList@@UBEXAAVCDumpContext@@@Z 5f4293f1 f list_s.obj
 0001:000284db       ?AssertValid@CStringList@@UBEXXZ 5f4294db f list_s.obj
 0001:000285c0       ??_GCStringList@@UAEPAXI@Z 5f4295c0 f list_s.obj
 0001:00028600       ?Create@CPlex@@SGPAU1@AAPAU1@II@Z 5f429600 f plex.obj
 0001:00028670       ?FreeDataChain@CPlex@@QAEXXZ 5f429670 f plex.obj
 0001:000286d0       ??0CMapPtrToPtr@@QAE@H@Z   5f4296d0 f map_pp.obj
 0001:0002879b       ?InitHashTable@CMapPtrToPtr@@QAEXIH@Z 5f42979b f map_pp.obj
 0001:0002887d       ?RemoveAll@CMapPtrToPtr@@QAEXXZ 5f42987d f map_pp.obj
 0001:000288fe       ??1CMapPtrToPtr@@UAE@XZ    5f4298fe f map_pp.obj
 0001:00028990       ?NewAssoc@CMapPtrToPtr@@IAEPAUCAssoc@1@XZ 5f429990 f map_pp.obj
 0001:00028a9a       ?FreeAssoc@CMapPtrToPtr@@IAEXPAUCAssoc@1@@Z 5f429a9a f map_pp.obj
 0001:00028b06       ?GetAssocAt@CMapPtrToPtr@@IBEPAUCAssoc@1@PAXAAI@Z 5f429b06 f map_pp.obj
 0001:00028b91       ?GetValueAt@CMapPtrToPtr@@QBEPAXPAX@Z 5f429b91 f map_pp.obj
 0001:00028c1b       ?Lookup@CMapPtrToPtr@@QBEHPAXAAPAX@Z 5f429c1b f map_pp.obj
 0001:00028c7a       ??ACMapPtrToPtr@@QAEAAPAXPAX@Z 5f429c7a f map_pp.obj
 0001:00028d1a       ?RemoveKey@CMapPtrToPtr@@QAEHPAX@Z 5f429d1a f map_pp.obj
 0001:00028dd8       ?GetNextAssoc@CMapPtrToPtr@@QBEXAAPAU__POSITION@@AAPAX1@Z 5f429dd8 f map_pp.obj
 0001:00028f73       ?Dump@CMapPtrToPtr@@UBEXAAVCDumpContext@@@Z 5f429f73 f map_pp.obj
 0001:00029038       ?AssertValid@CMapPtrToPtr@@UBEXXZ 5f42a038 f map_pp.obj
 0001:000290b0       ??_GCMapPtrToPtr@@UAEPAXI@Z 5f42a0b0 f map_pp.obj
 0001:000290f0       ?HashKey@CMapPtrToPtr@@QBEIPAX@Z 5f42a0f0 f map_pp.obj
 0001:00029110       ??0CMapPtrToWord@@QAE@H@Z  5f42a110 f map_pw.obj
 0001:000291db       ?InitHashTable@CMapPtrToWord@@QAEXIH@Z 5f42a1db f map_pw.obj
 0001:000292bd       ?RemoveAll@CMapPtrToWord@@QAEXXZ 5f42a2bd f map_pw.obj
 0001:0002933e       ??1CMapPtrToWord@@UAE@XZ   5f42a33e f map_pw.obj
 0001:000293d0       ?NewAssoc@CMapPtrToWord@@IAEPAUCAssoc@1@XZ 5f42a3d0 f map_pw.obj
 0001:000294d9       ?FreeAssoc@CMapPtrToWord@@IAEXPAUCAssoc@1@@Z 5f42a4d9 f map_pw.obj
 0001:00029545       ?GetAssocAt@CMapPtrToWord@@IBEPAUCAssoc@1@PAXAAI@Z 5f42a545 f map_pw.obj
 0001:000295d0       ?Lookup@CMapPtrToWord@@QBEHPAXAAG@Z 5f42a5d0 f map_pw.obj
 0001:00029631       ??ACMapPtrToWord@@QAEAAGPAX@Z 5f42a631 f map_pw.obj
 0001:000296d1       ?RemoveKey@CMapPtrToWord@@QAEHPAX@Z 5f42a6d1 f map_pw.obj
 0001:0002978f       ?GetNextAssoc@CMapPtrToWord@@QBEXAAPAU__POSITION@@AAPAXAAG@Z 5f42a78f f map_pw.obj
 0001:0002992c       ?Dump@CMapPtrToWord@@UBEXAAVCDumpContext@@@Z 5f42a92c f map_pw.obj
 0001:000299f1       ?AssertValid@CMapPtrToWord@@UBEXXZ 5f42a9f1 f map_pw.obj
 0001:00029a70       ??_GCMapPtrToWord@@UAEPAXI@Z 5f42aa70 f map_pw.obj
 0001:00029ab0       ?HashKey@CMapPtrToWord@@QBEIPAX@Z 5f42aab0 f map_pw.obj
 0001:00029ad0       ??0CMapStringToOb@@QAE@H@Z 5f42aad0 f map_so.obj
 0001:00029b9b       ?InitHashTable@CMapStringToOb@@QAEXIH@Z 5f42ab9b f map_so.obj
 0001:00029c7d       ?RemoveAll@CMapStringToOb@@QAEXXZ 5f42ac7d f map_so.obj
 0001:00029d57       ??1CMapStringToOb@@UAE@XZ  5f42ad57 f map_so.obj
 0001:00029de9       ?NewAssoc@CMapStringToOb@@IAEPAUCAssoc@1@XZ 5f42ade9 f map_so.obj
 0001:00029f00       ?FreeAssoc@CMapStringToOb@@IAEXPAUCAssoc@1@@Z 5f42af00 f map_so.obj
 0001:00029f77       ?GetAssocAt@CMapStringToOb@@IBEPAUCAssoc@1@PBGAAI@Z 5f42af77 f map_so.obj
 0001:0002a00b       ?Lookup@CMapStringToOb@@QBEHPBGAAPAVCObject@@@Z 5f42b00b f map_so.obj
 0001:0002a06a       ?LookupKey@CMapStringToOb@@QBEHPBGAAPBG@Z 5f42b06a f map_so.obj
 0001:0002a0ce       ??ACMapStringToOb@@QAEAAPAVCObject@@PBG@Z 5f42b0ce f map_so.obj
 0001:0002a17d       ?RemoveKey@CMapStringToOb@@QAEHPBG@Z 5f42b17d f map_so.obj
 0001:0002a244       ?GetNextAssoc@CMapStringToOb@@QBEXAAPAU__POSITION@@AAVCString@@AAPAVCObject@@@Z 5f42b244 f map_so.obj
 0001:0002a3d0       ?Serialize@CMapStringToOb@@UAEXAAVCArchive@@@Z 5f42b3d0 f map_so.obj
 0001:0002a56e       ?Dump@CMapStringToOb@@UBEXAAVCDumpContext@@@Z 5f42b56e f map_so.obj
 0001:0002a67e       ?AssertValid@CMapStringToOb@@UBEXXZ 5f42b67e f map_so.obj
 0001:0002a700       ??_GCMapStringToOb@@UAEPAXI@Z 5f42b700 f map_so.obj
 0001:0002a740       ?HashKey@CMapStringToOb@@QBEIPBG@Z 5f42b740 f map_so.obj
 0001:0002a790       ??0CMapStringToPtr@@QAE@H@Z 5f42b790 f map_sp.obj
 0001:0002a85b       ?InitHashTable@CMapStringToPtr@@QAEXIH@Z 5f42b85b f map_sp.obj
 0001:0002a93d       ?RemoveAll@CMapStringToPtr@@QAEXXZ 5f42b93d f map_sp.obj
 0001:0002aa17       ??1CMapStringToPtr@@UAE@XZ 5f42ba17 f map_sp.obj
 0001:0002aaa9       ?NewAssoc@CMapStringToPtr@@IAEPAUCAssoc@1@XZ 5f42baa9 f map_sp.obj
 0001:0002abc0       ?FreeAssoc@CMapStringToPtr@@IAEXPAUCAssoc@1@@Z 5f42bbc0 f map_sp.obj
 0001:0002ac37       ?GetAssocAt@CMapStringToPtr@@IBEPAUCAssoc@1@PBGAAI@Z 5f42bc37 f map_sp.obj
 0001:0002accb       ?Lookup@CMapStringToPtr@@QBEHPBGAAPAX@Z 5f42bccb f map_sp.obj
 0001:0002ad2a       ?LookupKey@CMapStringToPtr@@QBEHPBGAAPBG@Z 5f42bd2a f map_sp.obj
 0001:0002ad8e       ??ACMapStringToPtr@@QAEAAPAXPBG@Z 5f42bd8e f map_sp.obj
 0001:0002ae3d       ?RemoveKey@CMapStringToPtr@@QAEHPBG@Z 5f42be3d f map_sp.obj
 0001:0002af04       ?GetNextAssoc@CMapStringToPtr@@QBEXAAPAU__POSITION@@AAVCString@@AAPAX@Z 5f42bf04 f map_sp.obj
 0001:0002b090       ?Dump@CMapStringToPtr@@UBEXAAVCDumpContext@@@Z 5f42c090 f map_sp.obj
 0001:0002b1a0       ?AssertValid@CMapStringToPtr@@UBEXXZ 5f42c1a0 f map_sp.obj
 0001:0002b220       ??_GCMapStringToPtr@@UAEPAXI@Z 5f42c220 f map_sp.obj
 0001:0002b260       ?HashKey@CMapStringToPtr@@QBEIPBG@Z 5f42c260 f map_sp.obj
 0001:0002b2b0       ??0CMapStringToString@@QAE@H@Z 5f42c2b0 f map_ss.obj
 0001:0002b37b       ?InitHashTable@CMapStringToString@@QAEXIH@Z 5f42c37b f map_ss.obj
 0001:0002b45d       ?RemoveAll@CMapStringToString@@QAEXXZ 5f42c45d f map_ss.obj
 0001:0002b560       ??1CMapStringToString@@UAE@XZ 5f42c560 f map_ss.obj
 0001:0002b5f2       ?NewAssoc@CMapStringToString@@IAEPAUCAssoc@1@XZ 5f42c5f2 f map_ss.obj
 0001:0002b732       ?FreeAssoc@CMapStringToString@@IAEXPAUCAssoc@1@@Z 5f42c732 f map_ss.obj
 0001:0002b7b8       ?GetAssocAt@CMapStringToString@@IBEPAUCAssoc@1@PBGAAI@Z 5f42c7b8 f map_ss.obj
 0001:0002b84c       ?Lookup@CMapStringToString@@QBEHPBGAAVCString@@@Z 5f42c84c f map_ss.obj
 0001:0002b8af       ?LookupKey@CMapStringToString@@QBEHPBGAAPBG@Z 5f42c8af f map_ss.obj
 0001:0002b913       ??ACMapStringToString@@QAEAAVCString@@PBG@Z 5f42c913 f map_ss.obj
 0001:0002b9c2       ?RemoveKey@CMapStringToString@@QAEHPBG@Z 5f42c9c2 f map_ss.obj
 0001:0002ba89       ?GetNextAssoc@CMapStringToString@@QBEXAAPAU__POSITION@@AAVCString@@1@Z 5f42ca89 f map_ss.obj
 0001:0002bc19       ?Serialize@CMapStringToString@@UAEXAAVCArchive@@@Z 5f42cc19 f map_ss.obj
 0001:0002bdda       ?Dump@CMapStringToString@@UBEXAAVCDumpContext@@@Z 5f42cdda f map_ss.obj
 0001:0002bf07       ?AssertValid@CMapStringToString@@UBEXXZ 5f42cf07 f map_ss.obj
 0001:0002bf80       ??_GCMapStringToString@@UAEPAXI@Z 5f42cf80 f map_ss.obj
 0001:0002bfc0       ?HashKey@CMapStringToString@@QBEIPBG@Z 5f42cfc0 f map_ss.obj
 0001:0002c010       ??0CMapWordToOb@@QAE@H@Z   5f42d010 f map_wo.obj
 0001:0002c0db       ?InitHashTable@CMapWordToOb@@QAEXIH@Z 5f42d0db f map_wo.obj
 0001:0002c1bd       ?RemoveAll@CMapWordToOb@@QAEXXZ 5f42d1bd f map_wo.obj
 0001:0002c23e       ??1CMapWordToOb@@UAE@XZ    5f42d23e f map_wo.obj
 0001:0002c2d0       ?NewAssoc@CMapWordToOb@@IAEPAUCAssoc@1@XZ 5f42d2d0 f map_wo.obj
 0001:0002c3d9       ?FreeAssoc@CMapWordToOb@@IAEXPAUCAssoc@1@@Z 5f42d3d9 f map_wo.obj
 0001:0002c445       ?GetAssocAt@CMapWordToOb@@IBEPAUCAssoc@1@GAAI@Z 5f42d445 f map_wo.obj
 0001:0002c4da       ?Lookup@CMapWordToOb@@QBEHGAAPAVCObject@@@Z 5f42d4da f map_wo.obj
 0001:0002c539       ??ACMapWordToOb@@QAEAAPAVCObject@@G@Z 5f42d539 f map_wo.obj
 0001:0002c5db       ?RemoveKey@CMapWordToOb@@QAEHG@Z 5f42d5db f map_wo.obj
 0001:0002c6a3       ?GetNextAssoc@CMapWordToOb@@QBEXAAPAU__POSITION@@AAGAAPAVCObject@@@Z 5f42d6a3 f map_wo.obj
 0001:0002c841       ?Serialize@CMapWordToOb@@UAEXAAVCArchive@@@Z 5f42d841 f map_wo.obj
 0001:0002c98d       ?Dump@CMapWordToOb@@UBEXAAVCDumpContext@@@Z 5f42d98d f map_wo.obj
 0001:0002ca52       ?AssertValid@CMapWordToOb@@UBEXXZ 5f42da52 f map_wo.obj
 0001:0002cad0       ??_GCMapWordToOb@@UAEPAXI@Z 5f42dad0 f map_wo.obj
 0001:0002cb10       ?HashKey@CMapWordToOb@@QBEIG@Z 5f42db10 f map_wo.obj
 0001:0002cb40       ??0CMapWordToPtr@@QAE@H@Z  5f42db40 f map_wp.obj
 0001:0002cc0b       ?InitHashTable@CMapWordToPtr@@QAEXIH@Z 5f42dc0b f map_wp.obj
 0001:0002cced       ?RemoveAll@CMapWordToPtr@@QAEXXZ 5f42dced f map_wp.obj
 0001:0002cd6e       ??1CMapWordToPtr@@UAE@XZ   5f42dd6e f map_wp.obj
 0001:0002ce00       ?NewAssoc@CMapWordToPtr@@IAEPAUCAssoc@1@XZ 5f42de00 f map_wp.obj
 0001:0002cf09       ?FreeAssoc@CMapWordToPtr@@IAEXPAUCAssoc@1@@Z 5f42df09 f map_wp.obj
 0001:0002cf75       ?GetAssocAt@CMapWordToPtr@@IBEPAUCAssoc@1@GAAI@Z 5f42df75 f map_wp.obj
 0001:0002d00a       ?Lookup@CMapWordToPtr@@QBEHGAAPAX@Z 5f42e00a f map_wp.obj
 0001:0002d069       ??ACMapWordToPtr@@QAEAAPAXG@Z 5f42e069 f map_wp.obj
 0001:0002d10b       ?RemoveKey@CMapWordToPtr@@QAEHG@Z 5f42e10b f map_wp.obj
 0001:0002d1d3       ?GetNextAssoc@CMapWordToPtr@@QBEXAAPAU__POSITION@@AAGAAPAX@Z 5f42e1d3 f map_wp.obj
 0001:0002d371       ?Dump@CMapWordToPtr@@UBEXAAVCDumpContext@@@Z 5f42e371 f map_wp.obj
 0001:0002d436       ?AssertValid@CMapWordToPtr@@UBEXXZ 5f42e436 f map_wp.obj
 0001:0002d4b0       ??_GCMapWordToPtr@@UAEPAXI@Z 5f42e4b0 f map_wp.obj
 0001:0002d4f0       ?HashKey@CMapWordToPtr@@QBEIG@Z 5f42e4f0 f map_wp.obj
 0001:0002d520       ?_GetBaseClass@CObject@@SGPAUCRuntimeClass@@XZ 5f42e520 f objcore.obj
 0001:0002d532       ?GetRuntimeClass@CObject@@UBEPAUCRuntimeClass@@XZ 5f42e532 f objcore.obj
 0001:0002d54d       ?IsKindOf@CObject@@QBEHPBUCRuntimeClass@@@Z 5f42e54d f objcore.obj
 0001:0002d5c7       ?AfxDynamicDownCast@@YAPAVCObject@@PAUCRuntimeClass@@PAV1@@Z 5f42e5c7 f objcore.obj
 0001:0002d604       ?AfxStaticDownCast@@YAPAVCObject@@PAUCRuntimeClass@@PAV1@@Z 5f42e604 f objcore.obj
 0001:0002d64a       ?AfxAssertValidObject@@YGXPBVCObject@@PBDH@Z 5f42e64a f objcore.obj
 0001:0002d778       ?AssertValid@CObject@@UBEXXZ 5f42e778 f objcore.obj
 0001:0002d7ad       ?Dump@CObject@@UBEXAAVCDumpContext@@@Z 5f42e7ad f objcore.obj
 0001:0002d809       ?CreateObject@CRuntimeClass@@QAEPAVCObject@@XZ 5f42e809 f objcore.obj
 0001:0002d8d6       ?IsSerializable@CObject@@QBEHXZ 5f42e8d6 f objcore.obj
 0001:0002d90f       ??0AFX_CLASSINIT@@QAE@PAUCRuntimeClass@@@Z 5f42e90f f objcore.obj
 0001:0002d94f       ?IsDerivedFrom@CRuntimeClass@@QBEHPBU1@@Z 5f42e94f f objcore.obj
 0001:0002da3b       ?AfxDoForAllClasses@@YGXP6AXPBUCRuntimeClass@@PAX@Z1@Z 5f42ea3b f objcore.obj
 0001:0002db20       ??0CException@@QAE@XZ      5f42eb20 f except.obj
 0001:0002dba3       ??0CException@@QAE@H@Z     5f42eba3 f except.obj
 0001:0002dc27       ?Delete@CException@@QAEXXZ 5f42ec27 f except.obj
 0001:0002dc7c       ?GetErrorMessage@CException@@UAEHPAGIPAI@Z 5f42ec7c f except.obj
 0001:0002dcc5       ?ReportError@CException@@UAEHII@Z 5f42ecc5 f except.obj
 0001:0002dd59       ??3CException@@SGXPAX@Z    5f42ed59 f except.obj
 0001:0002dddb       ??0AFX_EXCEPTION_LINK@@QAE@XZ 5f42eddb f except.obj
 0001:0002de18       ?AfxTryCleanup@@YGXXZ      5f42ee18 f except.obj
 0001:0002de7f       ?AfxThrowLastCleanup@@YGXXZ 5f42ee7f f except.obj
 0001:0002dec0       ??_GCException@@UAEPAXI@Z  5f42eec0 f except.obj
 0001:0002dec0       ??_ECException@@UAEPAXI@Z  5f42eec0 f except.obj
 0001:0002df00       ?AfxGetExceptionContext@@YAPAUAFX_EXCEPTION_CONTEXT@@XZ 5f42ef00 f except.obj
 0001:0002df40       ??2CObject@@SGPAXI@Z       5f42ef40 f afxmem.obj
 0001:0002df64       ??3CObject@@SGXPAX@Z       5f42ef64 f afxmem.obj
 0001:0002df85       ??2@YAPAXIPBDH@Z           5f42ef85 f afxmem.obj
 0001:0002dfab       ??2CObject@@SGPAXIPBDH@Z   5f42efab f afxmem.obj
 0001:0002dfd3       ?AfxAllocMemoryDebug@@YGPAXIHPBDH@Z 5f42efd3 f afxmem.obj
 0001:0002e007       ?AfxFreeMemoryDebug@@YGXPAXH@Z 5f42f007 f afxmem.obj
 0001:0002e033       ?_AfxDefaultAllocHook@@YGHIHJ@Z 5f42f033 f afxmem.obj
 0001:0002e04a       ?_AfxAllocHookProxy@@YAHHPAXIHJPBDH@Z 5f42f04a f afxmem.obj
 0001:0002e0e3       ?AfxSetAllocHook@@YGP6GHIHJ@ZP6GHIHJ@Z@Z 5f42f0e3 f afxmem.obj
 0001:0002e12b       ?AfxEnableMemoryTracking@@YGHH@Z 5f42f12b f afxmem.obj
 0001:0002e19a       ?AfxSetAllocStop@@YGXJ@Z   5f42f19a f afxmem.obj
 0001:0002e1b9       ?AfxCheckMemory@@YGHXZ     5f42f1b9 f afxmem.obj
 0001:0002e1cf       ?AfxIsMemoryBlock@@YGHPBXIPAJ@Z 5f42f1cf f afxmem.obj
 0001:0002e1fa       ??0CMemoryState@@QAE@XZ    5f42f1fa f afxmem.obj
 0001:0002e223       ?UpdateData@CMemoryState@@QAEXXZ 5f42f223 f afxmem.obj
 0001:0002e297       ?Difference@CMemoryState@@QAEHABU1@0@Z 5f42f297 f afxmem.obj
 0001:0002e2e5       ?DumpStatistics@CMemoryState@@QBEXXZ 5f42f2e5 f afxmem.obj
 0001:0002e308       ?Checkpoint@CMemoryState@@QAEXXZ 5f42f308 f afxmem.obj
 0001:0002e333       ?DumpAllObjectsSince@CMemoryState@@QBEXXZ 5f42f333 f afxmem.obj
 0001:0002e356       ?AfxDoForAllObjects@@YGXP6AXPAVCObject@@PAX@Z1@Z 5f42f356 f afxmem.obj
 0001:0002e3b5       ?AfxDumpMemoryLeaks@@YGHXZ 5f42f3b5 f afxmem.obj
 0001:0002e3cb       ?AfxNewHandler@@YAHI@Z     5f42f3cb f afxmem.obj
 0001:0002e3e2       ?AfxGetNewHandler@@YGP6AHI@ZXZ 5f42f3e2 f afxmem.obj
 0001:0002e403       ?AfxSetNewHandler@@YGP6AHI@ZP6AHI@Z@Z 5f42f403 f afxmem.obj
 0001:0002e435       ??2@YAPAXI@Z               5f42f435 f afxmem.obj
 0001:0002e4c0       ??3@YAXPAX@Z               5f42f4c0 f afxmem.obj
 0001:0002e4df       ??2@YAPAXIHPBDH@Z          5f42f4df f afxmem.obj
 0001:0002e570       ??0CFile@@QAE@XZ           5f42f570 f filecore.obj
 0001:0002e60e       ??0CFile@@QAE@H@Z          5f42f60e f filecore.obj
 0001:0002e6ad       ??0CFile@@QAE@PBGI@Z       5f42f6ad f filecore.obj
 0001:0002e7b7       ??1CFile@@UAE@XZ           5f42f7b7 f filecore.obj
 0001:0002e85a       ?Duplicate@CFile@@UBEPAV1@XZ 5f42f85a f filecore.obj
 0001:0002e973       ?Open@CFile@@UAEHPBGIPAVCFileException@@@Z 5f42f973 f filecore.obj
 0001:0002ed00       ?Read@CFile@@UAEIPAXI@Z    5f42fd00 f filecore.obj
 0001:0002ede6       ?Write@CFile@@UAEXPBXI@Z   5f42fde6 f filecore.obj
 0001:0002eef2       ?Seek@CFile@@UAEJJI@Z      5f42fef2 f filecore.obj
 0001:0002efb3       ?GetPosition@CFile@@UBEKXZ 5f42ffb3 f filecore.obj
 0001:0002f032       ?Flush@CFile@@UAEXXZ       5f430032 f filecore.obj
 0001:0002f090       ?Close@CFile@@UAEXXZ       5f430090 f filecore.obj
 0001:0002f151       ?Abort@CFile@@UAEXXZ       5f430151 f filecore.obj
 0001:0002f1a9       ?LockRange@CFile@@UAEXKK@Z 5f4301a9 f filecore.obj
 0001:0002f228       ?UnlockRange@CFile@@UAEXKK@Z 5f430228 f filecore.obj
 0001:0002f2a7       ?SetLength@CFile@@UAEXK@Z  5f4302a7 f filecore.obj
 0001:0002f32b       ?GetLength@CFile@@UBEKXZ   5f43032b f filecore.obj
 0001:0002f3ac       ?GetBufferPtr@CFile@@UAEIIIPAPAX0@Z 5f4303ac f filecore.obj
 0001:0002f3e8       ?Rename@CFile@@SGXPBG0@Z   5f4303e8 f filecore.obj
 0001:0002f41e       ?Remove@CFile@@SGXPBG@Z    5f43041e f filecore.obj
 0001:0002f450       ??1AFX_COM@@QAE@XZ         5f430450 f filecore.obj
 0001:0002f47e       ?CreateInstance@AFX_COM@@QAEJABU_GUID@@PAUIUnknown@@0PAPAX@Z 5f43047e f filecore.obj
 0001:0002f513       ?GetClassObject@AFX_COM@@QAEJABU_GUID@@0PAPAX@Z 5f430513 f filecore.obj
 0001:0002f67e       ?AfxStringFromCLSID@@YG?AVCString@@ABU_GUID@@@Z 5f43067e f filecore.obj
 0001:0002f76f       ?AfxGetInProcServer@@YGHPBGAAVCString@@@Z 5f43076f f filecore.obj
 0001:0002f870       ?AfxResolveShortcut@@YGHPAVCWnd@@PBGPAGH@Z 5f430870 f filecore.obj
 0001:0002fa52       ?AfxFullPath@@YGHPAGPBG@Z  5f430a52 f filecore.obj
 0001:0002fc1e       ?AfxGetRoot@@YGXPBGAAVCString@@@Z 5f430c1e f filecore.obj
 0001:0002feb6       ?AfxComparePath@@YGHPBG0@Z 5f430eb6 f filecore.obj
 0001:0003010e       ?AfxGetFileTitle@@YGIPBGPAGI@Z 5f43110e f filecore.obj
 0001:000301fa       ?AfxGetModuleShortFileName@@YGXPAUHINSTANCE__@@AAVCString@@@Z 5f4311fa f filecore.obj
 0001:00030269       ?AssertValid@CFile@@UBEXXZ 5f431269 f filecore.obj
 0001:00030287       ?Dump@CFile@@UBEXAAVCDumpContext@@@Z 5f431287 f filecore.obj
 0001:00030300       ??_GCFile@@UAEPAXI@Z       5f431300 f filecore.obj
 0001:00030340       ??0CStdioFile@@QAE@XZ      5f431340 f filetxt.obj
 0001:000303b9       ??0CStdioFile@@QAE@PAU_iobuf@@@Z 5f4313b9 f filetxt.obj
 0001:0003046d       ??0CStdioFile@@QAE@PBGI@Z  5f43146d f filetxt.obj
 0001:0003057b       ??1CStdioFile@@UAE@XZ      5f43157b f filetxt.obj
 0001:00030615       ?Open@CStdioFile@@UAEHPBGIPAVCFileException@@@Z 5f431615 f filetxt.obj
 0001:00030884       ?Read@CStdioFile@@UAEIPAXI@Z 5f431884 f filetxt.obj
 0001:000309ad       ?Write@CStdioFile@@UAEXPBXI@Z 5f4319ad f filetxt.obj
 0001:00030a6b       ?WriteString@CStdioFile@@UAEXPBG@Z 5f431a6b f filetxt.obj
 0001:00030b05       ?ReadString@CStdioFile@@UAEPAGPAGI@Z 5f431b05 f filetxt.obj
 0001:00030bf7       ?ReadString@CStdioFile@@UAEHAAVCString@@@Z 5f431bf7 f filetxt.obj
 0001:00030d7d       ?Seek@CStdioFile@@UAEJJI@Z 5f431d7d f filetxt.obj
 0001:00030e55       ?GetPosition@CStdioFile@@UBEKXZ 5f431e55 f filetxt.obj
 0001:00030edf       ?Flush@CStdioFile@@UAEXXZ  5f431edf f filetxt.obj
 0001:00030f49       ?Close@CStdioFile@@UAEXXZ  5f431f49 f filetxt.obj
 0001:00031002       ?Abort@CStdioFile@@UAEXXZ  5f432002 f filetxt.obj
 0001:00031073       ?Duplicate@CStdioFile@@UBEPAVCFile@@XZ 5f432073 f filetxt.obj
 0001:000310c8       ?LockRange@CStdioFile@@UAEXKK@Z 5f4320c8 f filetxt.obj
 0001:0003111d       ?UnlockRange@CStdioFile@@UAEXKK@Z 5f43211d f filetxt.obj
 0001:00031172       ?Dump@CStdioFile@@UBEXAAVCDumpContext@@@Z 5f432172 f filetxt.obj
 0001:000311c0       ??_GCStdioFile@@UAEPAXI@Z  5f4321c0 f filetxt.obj
 0001:00031200       ?ThrowOsError@CFileException@@SGXJPBG@Z 5f432200 f filex.obj
 0001:00031233       ?ThrowErrno@CFileException@@SGXHPBG@Z 5f432233 f filex.obj
 0001:0003126b       ?GetErrorMessage@CFileException@@UAEHPAGIPAI@Z 5f43226b f filex.obj
 0001:0003139f       ?Dump@CFileException@@UBEXAAVCDumpContext@@@Z 5f43239f f filex.obj
 0001:0003143a       ?AfxThrowFileException@@YGXHJPBG@Z 5f43243a f filex.obj
 0001:0003153c       ?ErrnoToException@CFileException@@SGHH@Z 5f43253c f filex.obj
 0001:0003161b       ?OsErrorToException@CFileException@@SGHJ@Z 5f43261b f filex.obj
 0001:00031bc0       ?Dump@CFileStatus@@QBEXAAVCDumpContext@@@Z 5f432bc0 f filest.obj
 0001:00031cc3       ?GetFileName@CFile@@UBE?AVCString@@XZ 5f432cc3 f filest.obj
 0001:00031dba       ?GetFileTitle@CFile@@UBE?AVCString@@XZ 5f432dba f filest.obj
 0001:00031eb1       ?GetFilePath@CFile@@UBE?AVCString@@XZ 5f432eb1 f filest.obj
 0001:00031f61       ?GetStatus@CFile@@QBEHAAUCFileStatus@@@Z 5f432f61 f filest.obj
 0001:000320b3       ?GetStatus@CFile@@SGHPBGAAUCFileStatus@@@Z 5f4330b3 f filest.obj
 0001:00032227       ?AfxTimeToFileTime@@YAXABVCTime@@PAU_FILETIME@@@Z 5f433227 f filest.obj
 0001:000322d0       ?SetStatus@CFile@@SGXPBGABUCFileStatus@@@Z 5f4332d0 f filest.obj
 0001:000324a8       ?GetStatus@CMemFile@@QBEHAAUCFileStatus@@@Z 5f4334a8 f filest.obj
 0001:00032520       ??0CFileStatus@@QAE@XZ     5f433520 f filest.obj
 0001:00032560       ?AfxGetEmptyString@@YGABVCString@@XZ 5f433560 f strcore.obj
 0001:00032575       ??0CString@@QAE@XZ         5f433575 f strcore.obj
 0001:00032596       ??0CString@@QAE@ABV0@@Z    5f433596 f strcore.obj
 0001:00032645       ?AllocBuffer@CString@@IAEXH@Z 5f433645 f strcore.obj
 0001:00032714       ?Release@CString@@IAEXXZ   5f433714 f strcore.obj
 0001:000327a0       ?Release@CString@@KGXPAUCStringData@@@Z 5f4337a0 f strcore.obj
 0001:0003280e       ?Empty@CString@@QAEXXZ     5f43380e f strcore.obj
 0001:000328c5       ?CopyBeforeWrite@CString@@IAEXXZ 5f4338c5 f strcore.obj
 0001:00032959       ?AllocBeforeWrite@CString@@IAEXH@Z 5f433959 f strcore.obj
 0001:000329d3       ??1CString@@QAE@XZ         5f4339d3 f strcore.obj
 0001:00032a31       ?AllocCopy@CString@@IBEXAAV1@HHH@Z 5f433a31 f strcore.obj
 0001:00032a94       ??0CString@@QAE@PBG@Z      5f433a94 f strcore.obj
 0001:00032b46       ??0CString@@QAE@PBD@Z      5f433b46 f strcore.obj
 0001:00032bc3       ??6@YGAAVCDumpContext@@AAV0@ABVCString@@@Z 5f433bc3 f strcore.obj
 0001:00032be6       ?AssignCopy@CString@@IAEXHPBG@Z 5f433be6 f strcore.obj
 0001:00032c44       ??4CString@@QAEABV0@ABV0@@Z 5f433c44 f strcore.obj
 0001:00032d11       ??4CString@@QAEABV0@PBG@Z  5f433d11 f strcore.obj
 0001:00032d77       ??4CString@@QAEABV0@PBD@Z  5f433d77 f strcore.obj
 0001:00032de2       ?ConcatCopy@CString@@IAEXHPBGH0@Z 5f433de2 f strcore.obj
 0001:00032e4f       ??H@YG?AVCString@@ABV0@0@Z 5f433e4f f strcore.obj
 0001:00032f07       ??H@YG?AVCString@@ABV0@PBG@Z 5f433f07 f strcore.obj
 0001:00032ff0       ??H@YG?AVCString@@PBGABV0@@Z 5f433ff0 f strcore.obj
 0001:000330d9       ?ConcatInPlace@CString@@IAEXHPBG@Z 5f4340d9 f strcore.obj
 0001:00033216       ??YCString@@QAEABV0@PBG@Z  5f434216 f strcore.obj
 0001:0003327c       ??YCString@@QAEABV0@G@Z    5f43427c f strcore.obj
 0001:000332a5       ??YCString@@QAEABV0@ABV0@@Z 5f4342a5 f strcore.obj
 0001:000332da       ?GetBuffer@CString@@QAEPAGH@Z 5f4342da f strcore.obj
 0001:00033401       ?ReleaseBuffer@CString@@QAEXH@Z 5f434401 f strcore.obj
 0001:00033488       ?GetBufferSetLength@CString@@QAEPAGH@Z 5f434488 f strcore.obj
 0001:000334f5       ?FreeExtra@CString@@QAEXXZ 5f4344f5 f strcore.obj
 0001:00033601       ?LockBuffer@CString@@QAEPAGXZ 5f434601 f strcore.obj
 0001:0003363b       ?UnlockBuffer@CString@@QAEXXZ 5f43463b f strcore.obj
 0001:000336a2       ?Find@CString@@QBEHG@Z     5f4346a2 f strcore.obj
 0001:000336ee       ?FindOneOf@CString@@QBEHPBG@Z 5f4346ee f strcore.obj
 0001:00033765       ?MakeUpper@CString@@QAEXXZ 5f434765 f strcore.obj
 0001:0003378f       ?MakeLower@CString@@QAEXXZ 5f43478f f strcore.obj
 0001:000337b9       ?MakeReverse@CString@@QAEXXZ 5f4347b9 f strcore.obj
 0001:000337e6       ?SetAt@CString@@QAEXHG@Z   5f4347e6 f strcore.obj
 0001:00033864       ?_wcstombsz@@YAHPADPBGI@Z  5f434864 f strcore.obj
 0001:000338f7       ?_mbstowcsz@@YAHPAGPBDI@Z  5f4348f7 f strcore.obj
 0001:00033988       ?AfxA2WHelper@@YGPAGPAGPBDH@Z 5f434988 f strcore.obj
 0001:00033a10       ?AfxW2AHelper@@YGPADPADPBGH@Z 5f434a10 f strcore.obj
 0001:00033cfd       ??0CWnd@@QAE@XZ            5f434cfd f wincore.obj
 0001:00033d7f       ??0CWnd@@AAE@PAUHWND__@@@Z 5f434d7f f wincore.obj
 0001:00033e0c       ?ModifyStyle@CWnd@@SGHPAUHWND__@@KKI@Z 5f434e0c f wincore.obj
 0001:00033ed7       ?ModifyStyleEx@CWnd@@SGHPAUHWND__@@KKI@Z 5f434ed7 f wincore.obj
 0001:00033f00       ?AfxCallWndProc@@YGJPAVCWnd@@PAUHWND__@@IIJ@Z 5f434f00 f wincore.obj
 0001:000341f8       ?GetCurrentMessage@CWnd@@KGPBUtagMSG@@XZ 5f4351f8 f wincore.obj
 0001:00034249       ?Default@CWnd@@IAEJXZ      5f435249 f wincore.obj
 0001:0003428f       ?DeleteTempMap@CWnd@@SGXXZ 5f43528f f wincore.obj
 0001:00034369       ?FromHandle@CWnd@@SGPAV1@PAUHWND__@@@Z 5f435369 f wincore.obj
 0001:000343fc       ?FromHandlePermanent@CWnd@@SGPAV1@PAUHWND__@@@Z 5f4353fc f wincore.obj
 0001:00034472       ?Attach@CWnd@@QAEHPAUHWND__@@@Z 5f435472 f wincore.obj
 0001:00034545       ?Detach@CWnd@@QAEPAUHWND__@@XZ 5f435545 f wincore.obj
 0001:000345ab       ?PreSubclassWindow@CWnd@@UAEXXZ 5f4355ab f wincore.obj
 0001:000345c1       ?AfxWndProc@@YGJPAUHWND__@@IIJ@Z 5f4355c1 f wincore.obj
 0001:0003465b       ?AfxGetAfxWndProc@@YGP6GJPAUHWND__@@IIJ@ZXZ 5f43565b f wincore.obj
 0001:00034676       ?_AfxActivationWndProc@@YGJPAUHWND__@@IIJ@Z 5f435676 f wincore.obj
 0001:00034a28       ?_AfxGrayBackgroundWndProc@@YGJPAUHWND__@@IIJ@Z 5f435a28 f wincore.obj
 0001:00034ae4       ?_AfxCbtFilterHook@@YGJHIJ@Z 5f435ae4 f wincore.obj
 0001:00034ea9       ?AfxHookWindowCreate@@YGXPAVCWnd@@@Z 5f435ea9 f wincore.obj
 0001:00034fb4       ?AfxUnhookWindowCreate@@YGHXZ 5f435fb4 f wincore.obj
 0001:00034ff7       ?CreateEx@CWnd@@QAEHKPBG0KHHHHPAUHWND__@@PAUHMENU__@@PAX@Z 5f435ff7 f wincore.obj
 0001:0003513d       ?PreCreateWindow@CWnd@@UAEHAAUtagCREATESTRUCTW@@@Z 5f43613d f wincore.obj
 0001:000351ce       ?Create@CWnd@@UAEHPBG0KABUtagRECT@@PAV1@IPAUCCreateContext@@@Z 5f4361ce f wincore.obj
 0001:0003527c       ??1CWnd@@UAE@XZ            5f43627c f wincore.obj
 0001:00035391       ?OnNcDestroy@CWnd@@IAEXXZ  5f436391 f wincore.obj
 0001:00035587       ?PostNcDestroy@CWnd@@MAEXXZ 5f436587 f wincore.obj
 0001:0003559d       ?OnFinalRelease@CWnd@@UAEXXZ 5f43659d f wincore.obj
 0001:000355de       ?AssertValid@CWnd@@UBEXXZ  5f4365de f wincore.obj
 0001:00035781       ?Dump@CWnd@@UBEXAAVCDumpContext@@@Z 5f436781 f wincore.obj
 0001:00035a0d       ?DestroyWindow@CWnd@@UAEHXZ 5f436a0d f wincore.obj
 0001:00035b24       ?DefWindowProcW@CWnd@@MAEJIIJ@Z 5f436b24 f wincore.obj
 0001:00035bcb       ?GetSuperWndProcAddr@CWnd@@MAEPAP6GJPAUHWND__@@IIJ@ZXZ 5f436bcb f wincore.obj
 0001:00035be7       ?PreTranslateMessage@CWnd@@UAEHPAUtagMSG@@@Z 5f436be7 f wincore.obj
 0001:00035c2b       ?CancelToolTips@CWnd@@SGXH@Z 5f436c2b f wincore.obj
 0001:00035cb8       ?OnToolHitTest@CWnd@@UBEHVCPoint@@PAUtagTOOLINFOW@@@Z 5f436cb8 f wincore.obj
 0001:00035d70       ?GetWindowTextW@CWnd@@QBEXAAVCString@@@Z 5f436d70 f wincore.obj
 0001:00035e18       ?GetDlgItemTextW@CWnd@@QBEHHAAVCString@@@Z 5f436e18 f wincore.obj
 0001:00035efa       ?GetWindowPlacement@CWnd@@QBEHPAUtagWINDOWPLACEMENT@@@Z 5f436efa f wincore.obj
 0001:00035f59       ?SetWindowPlacement@CWnd@@QAEHPBUtagWINDOWPLACEMENT@@@Z 5f436f59 f wincore.obj
 0001:00035fb8       ?OnDrawItem@CWnd@@IAEXHPAUtagDRAWITEMSTRUCT@@@Z 5f436fb8 f wincore.obj
 0001:00036031       ?OnCompareItem@CWnd@@IAEHHPAUtagCOMPAREITEMSTRUCT@@@Z 5f437031 f wincore.obj
 0001:00036071       ?OnDeleteItem@CWnd@@IAEXHPAUtagDELETEITEMSTRUCT@@@Z 5f437071 f wincore.obj
 0001:000360ac       ?OnCharToItem@CWnd@@IAEHIPAVCListBox@@I@Z 5f4370ac f wincore.obj
 0001:000360f2       ?OnVKeyToItem@CWnd@@IAEHIPAVCListBox@@I@Z 5f4370f2 f wincore.obj
 0001:00036138       ?TrackPopupMenu@CMenu@@QAEHIHHPAVCWnd@@PBUtagRECT@@@Z 5f437138 f wincore.obj
 0001:000361e7       ?OnMeasureItem@CWnd@@IAEXHPAUtagMEASUREITEMSTRUCT@@@Z 5f4371e7 f wincore.obj
 0001:000363ba       ?AfxRegisterClass@@YGHPAUtagWNDCLASSW@@@Z 5f4373ba f wincore.obj
 0001:00036551       ?AfxRegisterWndClass@@YGPBGIPAUHICON__@@PAUHBRUSH__@@0@Z 5f437551 f wincore.obj
 0001:0003667b       ?OnNTCtlColor@CWnd@@IAEJIJ@Z 5f43767b f wincore.obj
 0001:00036709       ?WinHelpW@CWnd@@UAEXKI@Z   5f437709 f wincore.obj
 0001:0003689c       ?_GetBaseMessageMap@CWnd@@KGPBUAFX_MSGMAP@@XZ 5f43789c f wincore.obj
 0001:000368b1       ?GetMessageMap@CWnd@@MBEPBUAFX_MSGMAP@@XZ 5f4378b1 f wincore.obj
 0001:000368cc       ?AfxFindMessageEntry@@YGPBUAFX_MSGMAP_ENTRY@@PBU1@III@Z 5f4378cc f wincore.obj
 0001:00036947       ?AfxResetMsgCache@@YGXXZ   5f437947 f wincore.obj
 0001:0003696b       ?WindowProc@CWnd@@MAEJIIJ@Z 5f43796b f wincore.obj
 0001:000369d0       ?OnWndMsg@CWnd@@MAEHIIJPAJ@Z 5f4379d0 f wincore.obj
 0001:0003762e       ??0CTestCmdUI@@QAE@XZ      5f43862e f wincore.obj
 0001:00037662       ?Enable@CTestCmdUI@@UAEXH@Z 5f438662 f wincore.obj
 0001:0003768d       ?SetCheck@CTestCmdUI@@UAEXH@Z 5f43868d f wincore.obj
 0001:000376a5       ?SetRadio@CTestCmdUI@@UAEXH@Z 5f4386a5 f wincore.obj
 0001:000376bd       ?SetText@CTestCmdUI@@UAEXPBG@Z 5f4386bd f wincore.obj
 0001:000376d5       ?OnCommand@CWnd@@MAEHIJ@Z  5f4386d5 f wincore.obj
 0001:00037847       ?OnNotify@CWnd@@MAEHIJPAJ@Z 5f438847 f wincore.obj
 0001:00037968       ?GetParentFrame@CWnd@@QBEPAVCFrameWnd@@XZ 5f438968 f wincore.obj
 0001:000379ed       ?AfxGetParentOwner@@YGPAUHWND__@@PAU1@@Z 5f4389ed f wincore.obj
 0001:00037a5e       ?GetTopLevelParent@CWnd@@QBEPAV1@XZ 5f438a5e f wincore.obj
 0001:00037ad1       ?GetTopLevelOwner@CWnd@@QBEPAV1@XZ 5f438ad1 f wincore.obj
 0001:00037b47       ?GetParentOwner@CWnd@@QBEPAV1@XZ 5f438b47 f wincore.obj
 0001:00037bd2       ?IsTopParentActive@CWnd@@QBEHXZ 5f438bd2 f wincore.obj
 0001:00037c4a       ?ActivateTopParent@CWnd@@QAEXXZ 5f438c4a f wincore.obj
 0001:00037cb3       ?GetTopLevelFrame@CWnd@@QBEPAVCFrameWnd@@XZ 5f438cb3 f wincore.obj
 0001:00037d47       ?GetSafeOwner@CWnd@@SGPAV1@PAV1@PAPAUHWND__@@@Z 5f438d47 f wincore.obj
 0001:00037e6f       ?GetDescendantWindow@CWnd@@SGPAV1@PAUHWND__@@HH@Z 5f438e6f f wincore.obj
 0001:00037f67       ?SendMessageToDescendants@CWnd@@SGXPAUHWND__@@IIJHH@Z 5f438f67 f wincore.obj
 0001:0003803e       ?GetScrollBarCtrl@CWnd@@UBEPAVCScrollBar@@H@Z 5f43903e f wincore.obj
 0001:00038058       ?SetScrollPos@CWnd@@QAEHHHH@Z 5f439058 f wincore.obj
 0001:000380bf       ?GetScrollPos@CWnd@@QBEHH@Z 5f4390bf f wincore.obj
 0001:00038116       ?SetScrollRange@CWnd@@QAEXHHHH@Z 5f439116 f wincore.obj
 0001:00038180       ?GetScrollRange@CWnd@@QBEXHPAH0@Z 5f439180 f wincore.obj
 0001:000381e2       ?EnableScrollBarCtrl@CWnd@@QAEXHH@Z 5f4391e2 f wincore.obj
 0001:00038262       ?SetScrollInfo@CWnd@@QAEHHPAUtagSCROLLINFO@@H@Z 5f439262 f wincore.obj
 0001:00038316       ?GetScrollInfo@CWnd@@QAEHHPAUtagSCROLLINFO@@I@Z 5f439316 f wincore.obj
 0001:000383ca       ?GetScrollLimit@CWnd@@QAEHH@Z 5f4393ca f wincore.obj
 0001:0003841f       ?ScrollWindow@CWnd@@QAEXHHPBUtagRECT@@0@Z 5f43941f f wincore.obj
 0001:00038562       ?RepositionBars@CWnd@@QAEXIIIIPAUtagRECT@@PBU2@H@Z 5f439562 f wincore.obj
 0001:000387fd       ?AfxRepositionWindow@@YGXPAUAFX_SIZEPARENTPARAMS@@PAUHWND__@@PBUtagRECT@@@Z 5f4397fd f wincore.obj
 0001:00038983       ?CalcWindowRect@CWnd@@UAEXPAUtagRECT@@I@Z 5f439983 f wincore.obj
 0001:000389d0       ?HandleFloatingSysCommand@CWnd@@QAEHIJ@Z 5f4399d0 f wincore.obj
 0001:00038bcf       ?WalkPreTranslateTree@CWnd@@SGHPAUHWND__@@PAUtagMSG@@@Z 5f439bcf f wincore.obj
 0001:00038cb0       ?SendChildNotifyLastMsg@CWnd@@QAEHPAJ@Z 5f439cb0 f wincore.obj
 0001:00038cfc       ?ReflectLastMsg@CWnd@@KGHPAUHWND__@@PAJ@Z 5f439cfc f wincore.obj
 0001:00038e75       ?OnChildNotify@CWnd@@MAEHIIJPAJ@Z 5f439e75 f wincore.obj
 0001:00038f15       ?ReflectChildNotify@CWnd@@IAEHIIJPAJ@Z 5f439f15 f wincore.obj
 0001:00039116       ?OnParentNotify@CWnd@@IAEXIJ@Z 5f43a116 f wincore.obj
 0001:00039170       ?OnActivateTopLevel@CWnd@@IAEJIJ@Z 5f43a170 f wincore.obj
 0001:000391b6       ?OnSysColorChange@CWnd@@IAEXXZ 5f43a1b6 f wincore.obj
 0001:00039277       ?OnWinIniChange@CWnd@@IAEXPBG@Z 5f43a277 f wincore.obj
 0001:000392eb       ?OnDevModeChange@CWnd@@IAEXPAG@Z 5f43a2eb f wincore.obj
 0001:0003936d       ?OnHelpInfo@CWnd@@IAEHPAUtagHELPINFO@@@Z 5f43a36d f wincore.obj
 0001:00039409       ?OnDisplayChange@CWnd@@IAEJIJ@Z 5f43a409 f wincore.obj
 0001:00039486       ?OnDragList@CWnd@@IAEJIJ@Z 5f43a486 f wincore.obj
 0001:000394ee       ?OnHScroll@CWnd@@IAEXIIPAVCScrollBar@@@Z 5f43a4ee f wincore.obj
 0001:0003952f       ?OnVScroll@CWnd@@IAEXIIPAVCScrollBar@@@Z 5f43a52f f wincore.obj
 0001:00039570       ?OnEnterIdle@CWnd@@IAEXIPAV1@@Z 5f43a570 f wincore.obj
 0001:000395bf       ?OnCtlColor@CWnd@@IAEPAUHBRUSH__@@PAVCDC@@PAV1@I@Z 5f43a5bf f wincore.obj
 0001:0003962a       ?OnGrayCtlColor@CWnd@@QAEPAUHBRUSH__@@PAVCDC@@PAV1@I@Z 5f43a62a f wincore.obj
 0001:000396ad       ?GrayCtlColor@CWnd@@SGHPAUHDC__@@PAUHWND__@@IPAUHBRUSH__@@K@Z 5f43a6ad f wincore.obj
 0001:0003979e       ?OnQuery3dControls@CWnd@@IAEJIJ@Z 5f43a79e f wincore.obj
 0001:000397bb       ?UpdateData@CWnd@@QAEHH@Z  5f43a7bb f wincore.obj
 0001:0003998f       ??0CDataExchange@@QAE@PAVCWnd@@H@Z 5f43a98f f wincore.obj
 0001:000399d8       ?CenterWindow@CWnd@@QAEXPAV1@@Z 5f43a9d8 f wincore.obj
 0001:00039cb6       ?CheckAutoCenter@CWnd@@UAEHXZ 5f43acb6 f wincore.obj
 0001:00039cd1       ?ExecuteDlgInit@CWnd@@QAEHPBG@Z 5f43acd1 f wincore.obj
 0001:00039dbc       ?ExecuteDlgInit@CWnd@@QAEHPAX@Z 5f43adbc f wincore.obj
 0001:00039fdb       ?UpdateDialogControls@CWnd@@QAEXPAVCCmdTarget@@H@Z 5f43afdb f wincore.obj
 0001:0003a193       ?PreTranslateInput@CWnd@@QAEHPAUtagMSG@@@Z 5f43b193 f wincore.obj
 0001:0003a22b       ?RunModalLoop@CWnd@@QAEHK@Z 5f43b22b f wincore.obj
 0001:0003a523       ?ContinueModal@CWnd@@UAEHXZ 5f43b523 f wincore.obj
 0001:0003a542       ?EndModalLoop@CWnd@@UAEXH@Z 5f43b542 f wincore.obj
 0001:0003a5b2       ?AfxEndDeferRegisterClass@@YGHF@Z 5f43b5b2 f wincore.obj
 0001:0003a817       ?IsFrameWnd@CWnd@@UBEHXZ   5f43b817 f wincore.obj
 0001:0003a82f       ?IsFrameWnd@CFrameWnd@@UBEHXZ 5f43b82f f wincore.obj
 0001:0003a84a       ?IsTracking@CFrameWnd@@QBEHXZ 5f43b84a f wincore.obj
 0001:0003a8a2       ?SubclassCtl3d@CWnd@@QAEHH@Z 5f43b8a2 f wincore.obj
 0001:0003a982       ?SubclassDlg3d@CWnd@@QAEHK@Z 5f43b982 f wincore.obj
 0001:0003aa34       ?DragAcceptFiles@CWnd@@QAEXH@Z 5f43ba34 f wincore.obj
 0001:0003aa8a       ?SubclassWindow@CWnd@@QAEHPAUHWND__@@@Z 5f43ba8a f wincore.obj
 0001:0003abb8       ?SubclassDlgItem@CWnd@@QAEHIPAV1@@Z 5f43bbb8 f wincore.obj
 0001:0003ad02       ?UnsubclassWindow@CWnd@@QAEPAUHWND__@@XZ 5f43bd02 f wincore.obj
 0001:0003ad80       ??_GCWnd@@UAEPAXI@Z        5f43bd80 f wincore.obj
 0001:0003adc0       ?AfxLockTempMaps@@YGXXZ    5f43bdc0 f winhand.obj
 0001:0003ade1       ?AfxUnlockTempMaps@@YGHH@Z 5f43bde1 f winhand.obj
 0001:0003afa4       ??0CHandleMap@@QAE@PAUCRuntimeClass@@IH@Z 5f43bfa4 f winhand.obj
 0001:0003b09d       ?FromHandle@CHandleMap@@QAEPAVCObject@@PAX@Z 5f43c09d f winhand.obj
 0001:0003b301       ?SetPermanent@CHandleMap@@QAEXPAXPAVCObject@@@Z 5f43c301 f winhand.obj
 0001:0003b343       ?RemoveHandle@CHandleMap@@QAEXPAX@Z 5f43c343 f winhand.obj
 0001:0003b43d       ?DeleteTemp@CHandleMap@@QAEXXZ 5f43c43d f winhand.obj
 0001:0003b580       ?AfxWinMain@@YGHPAUHINSTANCE__@@0PAGH@Z 5f43c580 f winmain.obj
 0001:0003b700       ?AfxDlgProc@@YGHPAUHWND__@@IIJ@Z 5f43c700 f dlgcore.obj
 0001:0003b76a       ?_GetBaseMessageMap@CDialog@@KGPBUAFX_MSGMAP@@XZ 5f43c76a f dlgcore.obj
 0001:0003b77f       ?GetMessageMap@CDialog@@MBEPBUAFX_MSGMAP@@XZ 5f43c77f f dlgcore.obj
 0001:0003b79a       ?PreTranslateMessage@CDialog@@UAEHPAUtagMSG@@@Z 5f43c79a f dlgcore.obj
 0001:0003b8c8       ?OnCmdMsg@CDialog@@UAEHIHPAXPAUAFX_CMDHANDLERINFO@@@Z 5f43c8c8 f dlgcore.obj
 0001:0003ba47       ??0CDialog@@QAE@XZ         5f43ca47 f dlgcore.obj
 0001:0003baee       ??1CDialog@@UAE@XZ         5f43caee f dlgcore.obj
 0001:0003bb8f       ?Create@CDialog@@QAEHPBGPAVCWnd@@@Z 5f43cb8f f dlgcore.obj
 0001:0003bcbc       ?CreateIndirect@CDialog@@QAEHPAXPAVCWnd@@@Z 5f43ccbc f dlgcore.obj
 0001:0003bce6       ?CreateIndirect@CDialog@@IAEHPAXPAVCWnd@@PAUHINSTANCE__@@@Z 5f43cce6 f dlgcore.obj
 0001:0003bd52       ?CreateIndirect@CDialog@@QAEHPBUDLGTEMPLATE@@PAVCWnd@@PAX@Z 5f43cd52 f dlgcore.obj
 0001:0003bd80       ?CreateIndirect@CDialog@@IAEHPBUDLGTEMPLATE@@PAVCWnd@@PAXPAUHINSTANCE__@@@Z 5f43cd80 f dlgcore.obj
 0001:0003bde9       ?CreateDlg@CWnd@@IAEHPBGPAV1@@Z 5f43cde9 f dlgcore.obj
 0001:0003bea7       ?CreateDlgIndirect@CWnd@@IAEHPBUDLGTEMPLATE@@PAV1@@Z 5f43cea7 f dlgcore.obj
 0001:0003bed1       ?CreateDlgIndirect@CWnd@@IAEHPBUDLGTEMPLATE@@PAV1@PAUHINSTANCE__@@@Z 5f43ced1 f dlgcore.obj
 0001:0003c2f1       ?SetOccDialogInfo@CWnd@@MAEHPAU_AFX_OCC_DIALOG_INFO@@@Z 5f43d2f1 f dlgcore.obj
 0001:0003c323       ?SetOccDialogInfo@CDialog@@MAEHPAU_AFX_OCC_DIALOG_INFO@@@Z 5f43d323 f dlgcore.obj
 0001:0003c349       ??0CDialog@@QAE@PBGPAVCWnd@@@Z 5f43d349 f dlgcore.obj
 0001:0003c448       ??0CDialog@@QAE@IPAVCWnd@@@Z 5f43d448 f dlgcore.obj
 0001:0003c4ec       ?InitModalIndirect@CDialog@@QAEHPAXPAVCWnd@@@Z 5f43d4ec f dlgcore.obj
 0001:0003c594       ?InitModalIndirect@CDialog@@QAEHPBUDLGTEMPLATE@@PAVCWnd@@PAX@Z 5f43d594 f dlgcore.obj
 0001:0003c645       ?PreModal@CDialog@@IAEPAUHWND__@@XZ 5f43d645 f dlgcore.obj
 0001:0003c6b5       ?PostModal@CDialog@@IAEXXZ 5f43d6b5 f dlgcore.obj
 0001:0003c714       ?DoModal@CDialog@@UAEHXZ   5f43d714 f dlgcore.obj
 0001:0003ca03       ?EndDialog@CDialog@@QAEXH@Z 5f43da03 f dlgcore.obj
 0001:0003ca75       ?HandleSetFont@CDialog@@IAEJIJ@Z 5f43da75 f dlgcore.obj
 0001:0003caad       ?PreInitDialog@CDialog@@MAEXXZ 5f43daad f dlgcore.obj
 0001:0003cac3       ?HandleInitDialog@CDialog@@IAEJIJ@Z 5f43dac3 f dlgcore.obj
 0001:0003cbda       ?AfxHelpEnabled@@YGHXZ     5f43dbda f dlgcore.obj
 0001:0003cc63       ?OnSetFont@CDialog@@UAEXPAVCFont@@@Z 5f43dc63 f dlgcore.obj
 0001:0003cc7b       ?OnInitDialog@CDialog@@UAEHXZ 5f43dc7b f dlgcore.obj
 0001:0003cd64       ?OnOK@CDialog@@MAEXXZ      5f43dd64 f dlgcore.obj
 0001:0003cdad       ?OnCancel@CDialog@@MAEXXZ  5f43ddad f dlgcore.obj
 0001:0003cdcd       ?CheckAutoCenter@CDialog@@UAEHXZ 5f43ddcd f dlgcore.obj
 0001:0003cf2e       ?OnCtlColor@CDialog@@IAEPAUHBRUSH__@@PAVCDC@@PAVCWnd@@I@Z 5f43df2e f dlgcore.obj
 0001:0003cf5a       ?OnCommandHelp@CDialog@@IAEJIJ@Z 5f43df5a f dlgcore.obj
 0001:0003cfcf       ?OnHelpHitTest@CDialog@@IAEJIJ@Z 5f43dfcf f dlgcore.obj
 0001:0003d006       ?AssertValid@CDialog@@UBEXXZ 5f43e006 f dlgcore.obj
 0001:0003d024       ?Dump@CDialog@@UBEXAAVCDumpContext@@@Z 5f43e024 f dlgcore.obj
 0001:0003d10d       ?_AfxCheckDialogTemplate@@YGHPBGH@Z 5f43e10d f dlgcore.obj
 0001:0003d300       ??_GCDialog@@UAEPAXI@Z     5f43e300 f dlgcore.obj
 0001:0003d340       ??0CDialogTemplate@@QAE@PBUDLGTEMPLATE@@@Z 5f43e340 f dlgtempl.obj
 0001:0003d3a0       ??0CDialogTemplate@@QAE@PAX@Z 5f43e3a0 f dlgtempl.obj
 0001:0003d417       ?SetTemplate@CDialogTemplate@@IAEHPBUDLGTEMPLATE@@I@Z 5f43e417 f dlgtempl.obj
 0001:0003d53a       ??1CDialogTemplate@@QAE@XZ 5f43e53a f dlgtempl.obj
 0001:0003d568       ?Load@CDialogTemplate@@QAEHPBG@Z 5f43e568 f dlgtempl.obj
 0001:0003d614       ?Detach@CDialogTemplate@@QAEPAXXZ 5f43e614 f dlgtempl.obj
 0001:0003d63e       ?HasFont@CDialogTemplate@@QBEHXZ 5f43e63e f dlgtempl.obj
 0001:0003d681       ?GetFontSizeField@CDialogTemplate@@KAPAEPBUDLGTEMPLATE@@@Z 5f43e681 f dlgtempl.obj
 0001:0003d75e       ?GetTemplateSize@CDialogTemplate@@KAIPBUDLGTEMPLATE@@@Z 5f43e75e f dlgtempl.obj
 0001:0003d8b0       ?GetFont@CDialogTemplate@@SAHPBUDLGTEMPLATE@@AAVCString@@AAG@Z 5f43e8b0 f dlgtempl.obj
 0001:0003d944       ?GetFont@CDialogTemplate@@QBEHAAVCString@@AAG@Z 5f43e944 f dlgtempl.obj
 0001:0003d9b5       ?SetFont@CDialogTemplate@@QAEHPBGG@Z 5f43e9b5 f dlgtempl.obj
 0001:0003db80       ?SetSystemFont@CDialogTemplate@@QAEHG@Z 5f43eb80 f dlgtempl.obj
 0001:0003dc58       ?GetSizeInDialogUnits@CDialogTemplate@@QBEXPAUtagSIZE@@@Z 5f43ec58 f dlgtempl.obj
 0001:0003dd31       ?GetSizeInPixels@CDialogTemplate@@QBEXPAUtagSIZE@@@Z 5f43ed31 f dlgtempl.obj
 0001:0003dff0       ?_SkipString@@YAPAGPAG@Z   5f43eff0 f dlgtempl.obj
 0001:0003e030       ?LoadStringW@CString@@QAEHI@Z 5f43f030 f winstr.obj
 0001:0003e117       ?AfxExtractSubString@@YGHAAVCString@@PBGHG@Z 5f43f117 f winstr.obj
 0001:0003e210       ?DeleteTempMap@CMenu@@SGXXZ 5f43f210 f winmenu.obj
 0001:0003e2e7       ?FromHandle@CMenu@@SGPAV1@PAUHMENU__@@@Z 5f43f2e7 f winmenu.obj
 0001:0003e368       ?FromHandlePermanent@CMenu@@SGPAV1@PAUHMENU__@@@Z 5f43f368 f winmenu.obj
 0001:0003e3db       ?AssertValid@CMenu@@UBEXXZ 5f43f3db f winmenu.obj
 0001:0003e430       ?Dump@CMenu@@UBEXAAVCDumpContext@@@Z 5f43f430 f winmenu.obj
 0001:0003e47c       ?Attach@CMenu@@QAEHPAUHMENU__@@@Z 5f43f47c f winmenu.obj
 0001:0003e514       ?Detach@CMenu@@QAEPAUHMENU__@@XZ 5f43f514 f winmenu.obj
 0001:0003e570       ?DestroyMenu@CMenu@@QAEHXZ 5f43f570 f winmenu.obj
 0001:0003e5a9       ?DrawItem@CMenu@@UAEXPAUtagDRAWITEMSTRUCT@@@Z 5f43f5a9 f winmenu.obj
 0001:0003e5c1       ?MeasureItem@CMenu@@UAEXPAUtagMEASUREITEMSTRUCT@@@Z 5f43f5c1 f winmenu.obj
 0001:0003e5e0       ?UpdateSysColors@AUX_DATA@@QAEXXZ 5f43f5e0 f auxdata.obj
 0001:0003e6a2       ?UpdateSysMetrics@AUX_DATA@@QAEXXZ 5f43f6a2 f auxdata.obj
 0001:0003e74d       ?AfxLoadDll@@YGPAUHINSTANCE__@@RAPAU1@PBDPAP6GHXZ1@Z 5f43f74d f auxdata.obj
 0001:0003e822       ?AfxLoadDll@@YGPAUHINSTANCE__@@RAPAU1@PBD@Z 5f43f822 f auxdata.obj
 0001:0003e850       ?OnAmbientProperty@CWnd@@UAEHPAVCOleControlSite@@JPAUtagVARIANT@@@Z 5f43f850 f winocc.obj
 0001:0003e8a7       ?GetControlUnknown@CWnd@@QAEPAUIUnknown@@XZ 5f43f8a7 f winocc.obj
 0001:0003e8da       ?CheckDlgButton@CWnd@@QAEXHI@Z 5f43f8da f winocc.obj
 0001:0003e95c       ?CheckRadioButton@CWnd@@QAEXHHH@Z 5f43f95c f winocc.obj
 0001:0003e9e6       ?GetDlgItem@CWnd@@QBEPAV1@H@Z 5f43f9e6 f winocc.obj
 0001:0003ea6b       ?GetDlgItem@CWnd@@QBEXHPAPAUHWND__@@@Z 5f43fa6b f winocc.obj
 0001:0003eb0d       ?GetDlgItemInt@CWnd@@QBEIHPAHH@Z 5f43fb0d f winocc.obj
 0001:0003eb9c       ?GetDlgItemTextW@CWnd@@QBEHHPAGH@Z 5f43fb9c f winocc.obj
 0001:0003ec2e       ?SendDlgItemMessageW@CWnd@@QAEJHIIJ@Z 5f43fc2e f winocc.obj
 0001:0003ecc8       ?SetDlgItemInt@CWnd@@QAEXHIH@Z 5f43fcc8 f winocc.obj
 0001:0003ed58       ?SetDlgItemTextW@CWnd@@QAEXHPBG@Z 5f43fd58 f winocc.obj
 0001:0003ede0       ?IsDlgButtonChecked@CWnd@@QBEIH@Z 5f43fde0 f winocc.obj
 0001:0003ee65       ?ScrollWindowEx@CWnd@@QAEHHHPBUtagRECT@@0PAVCRgn@@PAU2@I@Z 5f43fe65 f winocc.obj
 0001:0003ef16       ?IsDialogMessageW@CWnd@@QAEHPAUtagMSG@@@Z 5f43ff16 f winocc.obj
 0001:0003efaa       ?GetStyle@CWnd@@QBEKXZ     5f43ffaa f winocc.obj
 0001:0003f024       ?GetExStyle@CWnd@@QBEKXZ   5f440024 f winocc.obj
 0001:0003f09e       ?ModifyStyle@CWnd@@QAEHKKI@Z 5f44009e f winocc.obj
 0001:0003f132       ?ModifyStyleEx@CWnd@@QAEHKKI@Z 5f440132 f winocc.obj
 0001:0003f1c6       ?SetWindowTextW@CWnd@@QAEXPBG@Z 5f4401c6 f winocc.obj
 0001:0003f246       ?GetWindowTextW@CWnd@@QBEHPAGH@Z 5f440246 f winocc.obj
 0001:0003f2d3       ?GetWindowTextLengthW@CWnd@@QBEHXZ 5f4402d3 f winocc.obj
 0001:0003f34e       ?GetDlgCtrlID@CWnd@@QBEHXZ 5f44034e f winocc.obj
 0001:0003f3c9       ?SetDlgCtrlID@CWnd@@QAEHH@Z 5f4403c9 f winocc.obj
 0001:0003f450       ?MoveWindow@CWnd@@QAEXHHHHH@Z 5f440450 f winocc.obj
 0001:0003f4f0       ?SetWindowPos@CWnd@@QAEHPBV1@HHHHI@Z 5f4404f0 f winocc.obj
 0001:0003f5a2       ?ShowWindow@CWnd@@QAEHH@Z  5f4405a2 f winocc.obj
 0001:0003f627       ?IsWindowEnabled@CWnd@@QBEHXZ 5f440627 f winocc.obj
 0001:0003f6a2       ?EnableWindow@CWnd@@QAEHH@Z 5f4406a2 f winocc.obj
 0001:0003f727       ?SetFocus@CWnd@@QAEPAV1@XZ 5f440727 f winocc.obj
 0001:0003f7a8       ?InvokeHelper@CWnd@@QAAXJGGPAXPBEZZ 5f4407a8 f winocc.obj
 0001:0003f828       ?GetProperty@CWnd@@QBEXJGPAX@Z 5f440828 f winocc.obj
 0001:0003f893       ?SetProperty@CWnd@@QAAXJGZZ 5f440893 f winocc.obj
 0001:0003f907       ?GetDSCCursor@CWnd@@QAEPAUIUnknown@@XZ 5f440907 f winocc.obj
 0001:0003f9f3       ?BindDefaultProperty@CWnd@@QAEXJGPBGPAV1@@Z 5f4409f3 f winocc.obj
 0001:0003fa54       ?BindProperty@CWnd@@QAEXJPAV1@@Z 5f440a54 f winocc.obj
 0001:0003faad       ?AttachControlSite@CWnd@@IAEXPAVCHandleMap@@@Z 5f440aad f winocc.obj
 0001:0003fb0b       ?AttachControlSite@CWnd@@QAEXPAV1@@Z 5f440b0b f winocc.obj
 0001:0003fbc0       ??0CCmdTarget@@QAE@XZ      5f440bc0 f cmdtarg.obj
 0001:0003fc98       ??1CCmdTarget@@UAE@XZ      5f440c98 f cmdtarg.obj
 0001:0003fd48       ?OnCmdMsg@CCmdTarget@@UAEHIHPAXPAUAFX_CMDHANDLERINFO@@@Z 5f440d48 f cmdtarg.obj
 0001:000405ab       ?IsInvokeAllowed@CCmdTarget@@UAEHJ@Z 5f4415ab f cmdtarg.obj
 0001:000405c8       ?GetDispatchIID@CCmdTarget@@UAEHPAU_GUID@@@Z 5f4415c8 f cmdtarg.obj
 0001:000405e2       ?GetTypeInfoCount@CCmdTarget@@UAEIXZ 5f4415e2 f cmdtarg.obj
 0001:000405fa       ?GetTypeLibCache@CCmdTarget@@UAEPAVCTypeLibCache@@XZ 5f4415fa f cmdtarg.obj
 0001:00040612       ?GetTypeLib@CCmdTarget@@UAEJKPAPAUITypeLib@@@Z 5f441612 f cmdtarg.obj
 0001:0004062f       ?BeginWaitCursor@CCmdTarget@@QAEXXZ 5f44162f f cmdtarg.obj
 0001:00040663       ?EndWaitCursor@CCmdTarget@@QAEXXZ 5f441663 f cmdtarg.obj
 0001:00040697       ?RestoreWaitCursor@CCmdTarget@@QAEXXZ 5f441697 f cmdtarg.obj
 0001:000406cb       ?_GetBaseMessageMap@CCmdTarget@@KGPBUAFX_MSGMAP@@XZ 5f4416cb f cmdtarg.obj
 0001:000406dd       ?GetMessageMap@CCmdTarget@@MBEPBUAFX_MSGMAP@@XZ 5f4416dd f cmdtarg.obj
 0001:000406f8       ?_GetBaseDispatchMap@CCmdTarget@@KGPBUAFX_DISPMAP@@XZ 5f4416f8 f cmdtarg.obj
 0001:0004070a       ?GetDispatchMap@CCmdTarget@@MBEPBUAFX_DISPMAP@@XZ 5f44170a f cmdtarg.obj
 0001:00040725       ?_GetBaseEventSinkMap@CCmdTarget@@KGPBUAFX_EVENTSINKMAP@@XZ 5f441725 f cmdtarg.obj
 0001:00040737       ?GetEventSinkMap@CCmdTarget@@MBEPBUAFX_EVENTSINKMAP@@XZ 5f441737 f cmdtarg.obj
 0001:00040752       ?_GetBaseInterfaceMap@CCmdTarget@@KGPBUAFX_INTERFACEMAP@@XZ 5f441752 f cmdtarg.obj
 0001:00040764       ?GetInterfaceMap@CCmdTarget@@MBEPBUAFX_INTERFACEMAP@@XZ 5f441764 f cmdtarg.obj
 0001:0004077f       ?OnFinalRelease@CCmdTarget@@UAEXXZ 5f44177f f cmdtarg.obj
 0001:000407eb       ?OnCreateAggregates@CCmdTarget@@UAEHXZ 5f4417eb f cmdtarg.obj
 0001:00040806       ?GetInterfaceHook@CCmdTarget@@UAEPAUIUnknown@@PBX@Z 5f441806 f cmdtarg.obj
 0001:00040820       ?_GetBaseConnectionMap@CCmdTarget@@KGPBUAFX_CONNECTIONMAP@@XZ 5f441820 f cmdtarg.obj
 0001:00040832       ?GetConnectionMap@CCmdTarget@@MBEPBUAFX_CONNECTIONMAP@@XZ 5f441832 f cmdtarg.obj
 0001:0004084d       ?GetConnectionHook@CCmdTarget@@MAEPAUIConnectionPoint@@ABU_GUID@@@Z 5f44184d f cmdtarg.obj
 0001:00040867       ?GetExtraConnectionPoints@CCmdTarget@@MAEHPAVCPtrArray@@@Z 5f441867 f cmdtarg.obj
 0001:00040881       ?_GetBaseCommandMap@CCmdTarget@@KGPBUAFX_OLECMDMAP@@XZ 5f441881 f cmdtarg.obj
 0001:00040893       ?GetCommandMap@CCmdTarget@@MBEPBUAFX_OLECMDMAP@@XZ 5f441893 f cmdtarg.obj
 0001:000408ae       ?GetRoutingView@CCmdTarget@@IAEPAVCView@@XZ 5f4418ae f cmdtarg.obj
 0001:000408f2       ?GetRoutingFrame@CCmdTarget@@IAEPAVCFrameWnd@@XZ 5f4418f2 f cmdtarg.obj
 0001:00040936       ??0CCmdUI@@QAE@XZ          5f441936 f cmdtarg.obj
 0001:000409bc       ?Enable@CCmdUI@@UAEXH@Z    5f4419bc f cmdtarg.obj
 0001:00040abf       ?SetCheck@CCmdUI@@UAEXH@Z  5f441abf f cmdtarg.obj
 0001:00040ba1       ?SetRadio@CCmdUI@@UAEXH@Z  5f441ba1 f cmdtarg.obj
 0001:00040c58       ?SetText@CCmdUI@@UAEXPBG@Z 5f441c58 f cmdtarg.obj
 0001:00040daa       ?DoUpdate@CCmdUI@@QAEHPAVCCmdTarget@@H@Z 5f441daa f cmdtarg.obj
 0001:00040ed0       ??_GCCmdTarget@@UAEPAXI@Z  5f441ed0 f cmdtarg.obj
 0001:00040f10       ?_AfxThreadEntry@@YGIPAX@Z 5f441f10 f thrdcore.obj
 0001:000412a0       ?AfxGetThread@@YGPAVCWinThread@@XZ 5f4422a0 f thrdcore.obj
 0001:000412d9       ?AfxBeginThread@@YGPAVCWinThread@@P6AIPAX@Z0HIKPAU_SECURITY_ATTRIBUTES@@@Z 5f4422d9 f thrdcore.obj
 0001:000413f6       ?AfxBeginThread@@YGPAVCWinThread@@PAUCRuntimeClass@@HIKPAU_SECURITY_ATTRIBUTES@@@Z 5f4423f6 f thrdcore.obj
 0001:00041527       ?AfxEndThread@@YGXIH@Z     5f442527 f thrdcore.obj
 0001:000415dd       ?AfxInitThread@@YGXXZ      5f4425dd f thrdcore.obj
 0001:0004167e       ?AfxTermThread@@YGXPAUHINSTANCE__@@@Z 5f44267e f thrdcore.obj
 0001:00041765       ?CreateThread@CWinThread@@QAEHKIPAU_SECURITY_ATTRIBUTES@@@Z 5f442765 f thrdcore.obj
 0001:00041986       ?Delete@CWinThread@@UAEXXZ 5f442986 f thrdcore.obj
 0001:000419d1       ?InitInstance@CWinThread@@UAEHXZ 5f4429d1 f thrdcore.obj
 0001:000419fc       ?Run@CWinThread@@UAEHXZ    5f4429fc f thrdcore.obj
 0001:00041b06       ?IsIdleMessage@CWinThread@@UAEHPAUtagMSG@@@Z 5f442b06 f thrdcore.obj
 0001:00041bdb       ?ExitInstance@CWinThread@@UAEHXZ 5f442bdb f thrdcore.obj
 0001:00041c36       ?OnIdle@CWinThread@@UAEHJ@Z 5f442c36 f thrdcore.obj
 0001:00041e7d       ?DispatchThreadMessage@CWinThread@@IAEXPAUtagMSG@@@Z 5f442e7d f thrdcore.obj
 0001:00041fd0       ?PreTranslateMessage@CWinThread@@UAEHPAUtagMSG@@@Z 5f442fd0 f thrdcore.obj
 0001:0004218a       ?ProcessWndProcException@CWinThread@@UAEJPAVCException@@PBUtagMSG@@@Z 5f44318a f thrdcore.obj
 0001:000421e2       ?_AfxMsgFilterHook@@YGJHIJ@Z 5f4431e2 f thrdcore.obj
 0001:0004228c       ?ProcessMessageFilter@CWinThread@@UAEHHPAUtagMSG@@@Z 5f44328c f thrdcore.obj
 0001:000425a5       ?GetMainWnd@CWinThread@@UAEPAVCWnd@@XZ 5f4435a5 f thrdcore.obj
 0001:000425f0       ?PumpMessage@CWinThread@@UAEHXZ 5f4435f0 f thrdcore.obj
 0001:000426fe       ?AssertValid@CWinThread@@UBEXXZ 5f4436fe f thrdcore.obj
 0001:0004271c       ?Dump@CWinThread@@UBEXAAVCDumpContext@@@Z 5f44371c f thrdcore.obj
 0001:00042960       ?_GetBaseMessageMap@CWinApp@@KGPBUAFX_MSGMAP@@XZ 5f443960 f appcore.obj
 0001:00042975       ?GetMessageMap@CWinApp@@MBEPBUAFX_MSGMAP@@XZ 5f443975 f appcore.obj
 0001:00042990       ?Run@CWinApp@@UAEHXZ       5f443990 f appcore.obj
 0001:000429e1       ?WinHelpW@CWinApp@@UAEXKI@Z 5f4439e1 f appcore.obj
 0001:00042a45       ?ProcessWndProcException@CWinApp@@UAEJPAVCException@@PBUtagMSG@@@Z 5f443a45 f appcore.obj
 0001:00042b2e       ?OnIdle@CWinApp@@UAEHJ@Z   5f443b2e f appcore.obj
 0001:00042c46       ?DevModeChange@CWinApp@@QAEXPAG@Z 5f443c46 f appcore.obj
 0001:00042db4       ?AssertValid@CWinApp@@UBEXXZ 5f443db4 f appcore.obj
 0001:00042e63       ?Dump@CWinApp@@UBEXAAVCDumpContext@@@Z 5f443e63 f appcore.obj
 0001:000431e0       ??0CRecentFileList@@QAE@IPBG0HH@Z 5f4441e0 f filelist.obj
 0001:00043363       ??1CRecentFileList@@UAE@XZ 5f444363 f filelist.obj
 0001:00043428       ?Add@CRecentFileList@@UAEXPBG@Z 5f444428 f filelist.obj
 0001:000435cc       ?Remove@CRecentFileList@@UAEXH@Z 5f4445cc f filelist.obj
 0001:000436b2       ?GetDisplayName@CRecentFileList@@QBEHAAVCString@@HPBGHH@Z 5f4446b2 f filelist.obj
 0001:000438d6       ?UpdateMenu@CRecentFileList@@UAEXPAVCCmdUI@@@Z 5f4448d6 f filelist.obj
 0001:00043d1d       ?WriteList@CRecentFileList@@UAEXXZ 5f444d1d f filelist.obj
 0001:00043e88       ?ReadList@CRecentFileList@@UAEXXZ 5f444e88 f filelist.obj
 0001:000442d0       ??_ECRecentFileList@@UAEPAXI@Z 5f4452d0 f filelist.obj
 0001:000442d0       ??_GCRecentFileList@@UAEPAXI@Z 5f4452d0 f filelist.obj
 0001:00044310       ??_ECString@@QAEPAXI@Z     5f445310 f filelist.obj
 0001:00044380       ??6@YGAAVCArchive@@AAV0@ABVCString@@@Z 5f445380 f arccore.obj
 0001:00044462       ??5@YGAAVCArchive@@AAV0@AAVCString@@@Z 5f445462 f arccore.obj
 0001:00044631       ?SerializeElements@@YGXAAVCArchive@@PAVCString@@H@Z 5f445631 f arccore.obj
 0001:000446f3       ?Load@CRuntimeClass@@SGPAU1@AAVCArchive@@PAI@Z 5f4456f3 f arccore.obj
 0001:00044881       ?Store@CRuntimeClass@@QBEXAAVCArchive@@@Z 5f445881 f arccore.obj
 0001:000448da       ??0CArchive@@QAE@PAVCFile@@IHPAX@Z 5f4458da f arccore.obj
 0001:00044b67       ??1CArchive@@QAE@XZ        5f445b67 f arccore.obj
 0001:00044bf3       ?Abort@CArchive@@QAEXXZ    5f445bf3 f arccore.obj
 0001:00044dc0       ?Close@CArchive@@QAEXXZ    5f445dc0 f arccore.obj
 0001:00044dfe       ?Read@CArchive@@QAEIPAXI@Z 5f445dfe f arccore.obj
 0001:0004524e       ?Write@CArchive@@QAEXPBXI@Z 5f44624e f arccore.obj
 0001:00045598       ?Flush@CArchive@@QAEXXZ    5f446598 f arccore.obj
 0001:0004581d       ?FillBuffer@CArchive@@QAEXI@Z 5f44681d f arccore.obj
 0001:00045bcb       ?WriteCount@CArchive@@QAEXK@Z 5f446bcb f arccore.obj
 0001:00045c1a       ?ReadCount@CArchive@@QAEKXZ 5f446c1a f arccore.obj
 0001:00045c6b       ?WriteString@CArchive@@QAEXPBG@Z 5f446c6b f arccore.obj
 0001:00045cc7       ?ReadString@CArchive@@QAEPAGPAGI@Z 5f446cc7 f arccore.obj
 0001:00045e7c       ?ReadString@CArchive@@QAEHAAVCString@@@Z 5f446e7c f arccore.obj
 0001:00045fa0       ?CheckCount@CArchive@@QAEXXZ 5f446fa0 f arcobj.obj
 0001:00045fd9       ?WriteObject@CArchive@@QAEXPBVCObject@@@Z 5f446fd9 f arcobj.obj
 0001:000460fe       ?ReadObject@CArchive@@QAEPAVCObject@@PBUCRuntimeClass@@@Z 5f4470fe f arcobj.obj
 0001:000462a1       ?GetObjectSchema@CArchive@@QAEIXZ 5f4472a1 f arcobj.obj
 0001:000462cd       ?MapObject@CArchive@@QAEXPBVCObject@@@Z 5f4472cd f arcobj.obj
 0001:0004645c       ?WriteClass@CArchive@@QAEXPBUCRuntimeClass@@@Z 5f44745c f arcobj.obj
 0001:00046598       ?ReadClass@CArchive@@QAEPAUCRuntimeClass@@PBU2@PAIPAK@Z 5f447598 f arcobj.obj
 0001:000468ff       ?SerializeClass@CArchive@@QAEXPBUCRuntimeClass@@@Z 5f4478ff f arcobj.obj
 0001:00046950       ?GetErrorMessage@CArchiveException@@UAEHPAGIPAI@Z 5f447950 f arcex.obj
 0001:00046a84       ?Dump@CArchiveException@@UBEXAAVCDumpContext@@@Z 5f447a84 f arcex.obj
 0001:00046b04       ?AfxThrowArchiveException@@YGXHPBG@Z 5f447b04 f arcex.obj
 0001:00046ba0       ??6@YGAAVCDumpContext@@AAV0@UtagSIZE@@@Z 5f447ba0 f wingdi.obj
 0001:00046bed       ??6@YGAAVCDumpContext@@AAV0@UtagPOINT@@@Z 5f447bed f wingdi.obj
 0001:00046c3a       ??6@YGAAVCDumpContext@@AAV0@ABUtagRECT@@@Z 5f447c3a f wingdi.obj
 0001:00046cc0       ??0CDC@@QAE@XZ             5f447cc0 f wingdi.obj
 0001:00046d4d       ?AssertValid@CDC@@UBEXXZ   5f447d4d f wingdi.obj
 0001:00046d6b       ?Dump@CDC@@UBEXAAVCDumpContext@@@Z 5f447d6b f wingdi.obj
 0001:00046ded       ?DeleteTempMap@CDC@@SGXXZ  5f447ded f wingdi.obj
 0001:00046f04       ?FromHandle@CDC@@SGPAV1@PAUHDC__@@@Z 5f447f04 f wingdi.obj
 0001:00046f85       ?Attach@CDC@@QAEHPAUHDC__@@@Z 5f447f85 f wingdi.obj
 0001:00047051       ?Detach@CDC@@QAEPAUHDC__@@XZ 5f448051 f wingdi.obj
 0001:000470b8       ?DeleteDC@CDC@@QAEHXZ      5f4480b8 f wingdi.obj
 0001:000470f1       ??1CDC@@UAE@XZ             5f4480f1 f wingdi.obj
 0001:00047175       ?SetAttribDC@CDC@@UAEXPAUHDC__@@@Z 5f448175 f wingdi.obj
 0001:00047196       ?SetOutputDC@CDC@@UAEXPAUHDC__@@@Z 5f448196 f wingdi.obj
 0001:00047210       ?ReleaseAttribDC@CDC@@UAEXXZ 5f448210 f wingdi.obj
 0001:00047230       ?ReleaseOutputDC@CDC@@UAEXXZ 5f448230 f wingdi.obj
 0001:000472a9       ?StartDocW@CDC@@QAEHPBG@Z  5f4482a9 f wingdi.obj
 0001:000472ea       ?SaveDC@CDC@@UAEHXZ        5f4482ea f wingdi.obj
 0001:00047373       ?RestoreDC@CDC@@UAEHH@Z    5f448373 f wingdi.obj
 0001:00047457       ?SelectGdiObject@CDC@@KGPAVCGdiObject@@PAUHDC__@@PAX@Z 5f448457 f wingdi.obj
 0001:0004747d       ?SelectStockObject@CDC@@UAEPAVCGdiObject@@H@Z 5f44847d f wingdi.obj
 0001:00047539       ?SelectObject@CDC@@QAEPAVCPen@@PAV2@@Z 5f448539 f wingdi.obj
 0001:000475d0       ?SelectObject@CDC@@QAEPAVCBrush@@PAV2@@Z 5f4485d0 f wingdi.obj
 0001:00047667       ?SelectObject@CDC@@UAEPAVCFont@@PAV2@@Z 5f448667 f wingdi.obj
 0001:000476fe       ?SelectObject@CDC@@QAEHPAVCRgn@@@Z 5f4486fe f wingdi.obj
 0001:0004778f       ?SelectPalette@CDC@@QAEPAVCPalette@@PAV2@H@Z 5f44878f f wingdi.obj
 0001:000477ec       ?SetBkColor@CDC@@UAEKK@Z   5f4487ec f wingdi.obj
 0001:00047873       ?SetBkMode@CDC@@QAEHH@Z    5f448873 f wingdi.obj
 0001:000478fa       ?SetPolyFillMode@CDC@@QAEHH@Z 5f4488fa f wingdi.obj
 0001:00047981       ?SetROP2@CDC@@QAEHH@Z      5f448981 f wingdi.obj
 0001:00047a08       ?SetStretchBltMode@CDC@@QAEHH@Z 5f448a08 f wingdi.obj
 0001:00047a8f       ?SetTextColor@CDC@@UAEKK@Z 5f448a8f f wingdi.obj
 0001:00047b16       ?SetMapMode@CDC@@UAEHH@Z   5f448b16 f wingdi.obj
 0001:00047b9d       ?SetViewportOrg@CDC@@UAE?AVCPoint@@HH@Z 5f448b9d f wingdi.obj
 0001:00047c7e       ?OffsetViewportOrg@CDC@@UAE?AVCPoint@@HH@Z 5f448c7e f wingdi.obj
 0001:00047d5f       ?SetViewportExt@CDC@@UAE?AVCSize@@HH@Z 5f448d5f f wingdi.obj
 0001:00047e40       ?ScaleViewportExt@CDC@@UAE?AVCSize@@HHHH@Z 5f448e40 f wingdi.obj
 0001:00047f31       ?SetWindowOrg@CDC@@QAE?AVCPoint@@HH@Z 5f448f31 f wingdi.obj
 0001:00048012       ?OffsetWindowOrg@CDC@@QAE?AVCPoint@@HH@Z 5f449012 f wingdi.obj
 0001:000480f3       ?SetWindowExt@CDC@@UAE?AVCSize@@HH@Z 5f4490f3 f wingdi.obj
 0001:000481d4       ?ScaleWindowExt@CDC@@UAE?AVCSize@@HHHH@Z 5f4491d4 f wingdi.obj
 0001:000482c5       ?GetClipBox@CDC@@UBEHPAUtagRECT@@@Z 5f4492c5 f wingdi.obj
 0001:00048313       ?SelectClipRgn@CDC@@QAEHPAVCRgn@@@Z 5f449313 f wingdi.obj
 0001:000483a4       ?ExcludeClipRect@CDC@@QAEHHHHH@Z 5f4493a4 f wingdi.obj
 0001:00048443       ?ExcludeClipRect@CDC@@QAEHPBUtagRECT@@@Z 5f449443 f wingdi.obj
 0001:000484f8       ?IntersectClipRect@CDC@@QAEHHHHH@Z 5f4494f8 f wingdi.obj
 0001:00048597       ?IntersectClipRect@CDC@@QAEHPBUtagRECT@@@Z 5f449597 f wingdi.obj
 0001:0004864c       ?OffsetClipRgn@CDC@@QAEHHH@Z 5f44964c f wingdi.obj
 0001:000486db       ?OffsetClipRgn@CDC@@QAEHUtagSIZE@@@Z 5f4496db f wingdi.obj
 0001:0004876a       ?MoveTo@CDC@@QAE?AVCPoint@@HH@Z 5f44976a f wingdi.obj
 0001:0004884b       ?LineTo@CDC@@QAEHHH@Z      5f44984b f wingdi.obj
 0001:000488d3       ?SetTextAlign@CDC@@QAEII@Z 5f4498d3 f wingdi.obj
 0001:00048957       ?SetTextJustification@CDC@@QAEHHH@Z 5f449957 f wingdi.obj
 0001:000489e6       ?SetTextCharacterExtra@CDC@@QAEHH@Z 5f4499e6 f wingdi.obj
 0001:00048a6d       ?SetMapperFlags@CDC@@QAEKK@Z 5f449a6d f wingdi.obj
 0001:00048af4       ?ArcTo@CDC@@QAEHHHHHHHHH@Z 5f449af4 f wingdi.obj
 0001:00048be6       ?SetArcDirection@CDC@@QAEHH@Z 5f449be6 f wingdi.obj
 0001:00048c6d       ?PolyDraw@CDC@@QAEHPBUtagPOINT@@PBEH@Z 5f449c6d f wingdi.obj
 0001:00048d4b       ?PolylineTo@CDC@@QAEHPBUtagPOINT@@H@Z 5f449d4b f wingdi.obj
 0001:00048e25       ?SetColorAdjustment@CDC@@QAEHPBUtagCOLORADJUSTMENT@@@Z 5f449e25 f wingdi.obj
 0001:00048eac       ?PolyBezierTo@CDC@@QAEHPBUtagPOINT@@H@Z 5f449eac f wingdi.obj
 0001:00048f86       ?SelectClipPath@CDC@@QAEHH@Z 5f449f86 f wingdi.obj
 0001:00049065       ?SelectClipRgn@CDC@@QAEHPAVCRgn@@H@Z 5f44a065 f wingdi.obj
 0001:000490fe       ?AfxEnumMetaFileProc@@YGHPAUHDC__@@PAUtagHANDLETABLE@@PAUtagMETARECORD@@HJ@Z 5f44a0fe f wingdi.obj
 0001:00049483       ?PlayMetaFile@CDC@@QAEHPAUHMETAFILE__@@@Z 5f44a483 f wingdi.obj
 0001:000494e3       ?LPtoDP@CDC@@QBEXPAUtagSIZE@@@Z 5f44a4e3 f wingdi.obj
 0001:00049598       ?DPtoLP@CDC@@QBEXPAUtagSIZE@@@Z 5f44a598 f wingdi.obj
 0001:0004964d       ?AssertValid@CClientDC@@UBEXXZ 5f44a64d f wingdi.obj
 0001:000496a5       ?Dump@CClientDC@@UBEXAAVCDumpContext@@@Z 5f44a6a5 f wingdi.obj
 0001:000496f1       ??0CClientDC@@QAE@PAVCWnd@@@Z 5f44a6f1 f wingdi.obj
 0001:000497ca       ??1CClientDC@@UAE@XZ       5f44a7ca f wingdi.obj
 0001:0004986d       ?AssertValid@CWindowDC@@UBEXXZ 5f44a86d f wingdi.obj
 0001:000498c5       ?Dump@CWindowDC@@UBEXAAVCDumpContext@@@Z 5f44a8c5 f wingdi.obj
 0001:00049911       ??0CWindowDC@@QAE@PAVCWnd@@@Z 5f44a911 f wingdi.obj
 0001:000499ea       ??1CWindowDC@@UAE@XZ       5f44a9ea f wingdi.obj
 0001:00049a8d       ?AssertValid@CPaintDC@@UBEXXZ 5f44aa8d f wingdi.obj
 0001:00049ad8       ?Dump@CPaintDC@@UBEXAAVCDumpContext@@@Z 5f44aad8 f wingdi.obj
 0001:00049b7d       ??0CPaintDC@@QAE@PAVCWnd@@@Z 5f44ab7d f wingdi.obj
 0001:00049c64       ??1CPaintDC@@UAE@XZ        5f44ac64 f wingdi.obj
 0001:00049d3a       ?Dump@CGdiObject@@UBEXAAVCDumpContext@@@Z 5f44ad3a f wingdi.obj
 0001:00049d86       ?AssertValid@CGdiObject@@UBEXXZ 5f44ad86 f wingdi.obj
 0001:00049deb       ?DeleteTempMap@CGdiObject@@SGXXZ 5f44adeb f wingdi.obj
 0001:00049f02       ?FromHandle@CGdiObject@@SGPAV1@PAX@Z 5f44af02 f wingdi.obj
 0001:00049f89       ?Attach@CGdiObject@@QAEHPAX@Z 5f44af89 f wingdi.obj
 0001:0004a027       ?Detach@CGdiObject@@QAEPAXXZ 5f44b027 f wingdi.obj
 0001:0004a083       ?DeleteObject@CGdiObject@@QAEHXZ 5f44b083 f wingdi.obj
 0001:0004a0bc       ??0CPen@@QAE@HHK@Z         5f44b0bc f wingdi.obj
 0001:0004a155       ??0CPen@@QAE@HHPBUtagLOGBRUSH@@HPBK@Z 5f44b155 f wingdi.obj
 0001:0004a1f6       ?Dump@CPen@@UBEXAAVCDumpContext@@@Z 5f44b1f6 f wingdi.obj
 0001:0004a2e4       ??0CBrush@@QAE@K@Z         5f44b2e4 f wingdi.obj
 0001:0004a375       ??0CBrush@@QAE@HK@Z        5f44b375 f wingdi.obj
 0001:0004a40a       ??0CBrush@@QAE@PAVCBitmap@@@Z 5f44b40a f wingdi.obj
 0001:0004a4b1       ?CreateDIBPatternBrush@CBrush@@QAEHPAXI@Z 5f44b4b1 f wingdi.obj
 0001:0004a541       ?Dump@CBrush@@UBEXAAVCDumpContext@@@Z 5f44b541 f wingdi.obj
 0001:0004a62f       ?Dump@CFont@@UBEXAAVCDumpContext@@@Z 5f44b62f f wingdi.obj
 0001:0004a835       ?Dump@CBitmap@@UBEXAAVCDumpContext@@@Z 5f44b835 f wingdi.obj
 0001:0004a96b       ?AfxThrowResourceException@@YGXXZ 5f44b96b f wingdi.obj
 0001:0004a993       ?AfxThrowUserException@@YGXXZ 5f44b993 f wingdi.obj
 0001:0004a9c0       ??_GCDC@@UAEPAXI@Z         5f44b9c0 f wingdi.obj
 0001:0004aa00       ??_ECClientDC@@UAEPAXI@Z   5f44ba00 f wingdi.obj
 0001:0004aa00       ??_GCClientDC@@UAEPAXI@Z   5f44ba00 f wingdi.obj
 0001:0004aa40       ??_GCWindowDC@@UAEPAXI@Z   5f44ba40 f wingdi.obj
 0001:0004aa40       ??_ECWindowDC@@UAEPAXI@Z   5f44ba40 f wingdi.obj
 0001:0004aa80       ??_GCPaintDC@@UAEPAXI@Z    5f44ba80 f wingdi.obj
 0001:0004aa80       ??_ECPaintDC@@UAEPAXI@Z    5f44ba80 f wingdi.obj
 0001:0004aac0       ?AfxCustomLogFont@@YGHIPAUtagLOGFONTW@@@Z 5f44bac0 f winutil.obj
 0001:0004abb5       ?_AfxIsComboBoxControl@@YGHPAUHWND__@@I@Z 5f44bbb5 f winutil.obj
 0001:0004ac2d       ?_AfxCompareClassName@@YGHPAUHWND__@@PBG@Z 5f44bc2d f winutil.obj
 0001:0004ac9b       ?_AfxChildWindowFromPoint@@YGPAUHWND__@@PAU1@UtagPOINT@@@Z 5f44bc9b f winutil.obj
 0001:0004ad7b       ?AfxSetWindowText@@YGXPAUHWND__@@PBG@Z 5f44bd7b f winutil.obj
 0001:0004adf3       ?AfxDeleteObject@@YGXPAPAX@Z 5f44bdf3 f winutil.obj
 0001:0004ae45       ?AfxCancelModes@@YGXPAUHWND__@@@Z 5f44be45 f winutil.obj
 0001:0004af1f       ?AfxGlobalFree@@YGXPAX@Z   5f44bf1f f winutil.obj
 0001:0004afae       ?AfxCriticalNewHandler@@YAHI@Z 5f44bfae f winutil.obj
 0001:0004b0c0       ?_GetBaseMessageMap@CDocument@@KGPBUAFX_MSGMAP@@XZ 5f44c0c0 f doccore.obj
 0001:0004b0d5       ?GetMessageMap@CDocument@@MBEPBUAFX_MSGMAP@@XZ 5f44c0d5 f doccore.obj
 0001:0004b0f0       ??0CDocument@@QAE@XZ       5f44c0f0 f doccore.obj
 0001:0004b202       ??1CDocument@@UAE@XZ       5f44c202 f doccore.obj
 0001:0004b34b       ?OnFinalRelease@CDocument@@UAEXXZ 5f44c34b f doccore.obj
 0001:0004b37f       ?DisconnectViews@CDocument@@QAEXXZ 5f44c37f f doccore.obj
 0001:0004b3ff       ?SetTitle@CDocument@@UAEXPBG@Z 5f44c3ff f doccore.obj
 0001:0004b434       ?DeleteContents@CDocument@@UAEXXZ 5f44c434 f doccore.obj
 0001:0004b44a       ?OnChangedViewList@CDocument@@UAEXXZ 5f44c44a f doccore.obj
 0001:0004b4a1       ?UpdateFrameCounts@CDocument@@UAEXXZ 5f44c4a1 f doccore.obj
 0001:0004b725       ?CanCloseFrame@CDocument@@UAEHPAVCFrameWnd@@@Z 5f44c725 f doccore.obj
 0001:0004b7df       ?PreCloseFrame@CDocument@@UAEXPAVCFrameWnd@@@Z 5f44c7df f doccore.obj
 0001:0004b7f7       ?SetPathName@CDocument@@UAEXPBGH@Z 5f44c7f7 f doccore.obj
 0001:0004b91d       ?OnFileClose@CDocument@@IAEXXZ 5f44c91d f doccore.obj
 0001:0004b95c       ?OnFileSave@CDocument@@IAEXXZ 5f44c95c f doccore.obj
 0001:0004b980       ?OnFileSaveAs@CDocument@@IAEXXZ 5f44c980 f doccore.obj
 0001:0004b9c2       ?DoFileSave@CDocument@@UAEHXZ 5f44c9c2 f doccore.obj
 0001:0004ba71       ?DoSave@CDocument@@UAEHPBGH@Z 5f44ca71 f doccore.obj
 0001:0004bd49       ?SaveModified@CDocument@@UAEHXZ 5f44cd49 f doccore.obj
 0001:0004bf80       ?GetDefaultMenu@CDocument@@UAEPAUHMENU__@@XZ 5f44cf80 f doccore.obj
 0001:0004bf98       ?GetDefaultAccelerator@CDocument@@UAEPAUHACCEL__@@XZ 5f44cf98 f doccore.obj
 0001:0004bfb0       ?ReportSaveLoadException@CDocument@@UAEXPBGPAVCException@@HI@Z 5f44cfb0 f doccore.obj
 0001:0004c2a7       ?Open@CMirrorFile@@UAEHPBGIPAVCFileException@@@Z 5f44d2a7 f doccore.obj
 0001:0004c5ef       ?Abort@CMirrorFile@@UAEXXZ 5f44d5ef f doccore.obj
 0001:0004c631       ?Close@CMirrorFile@@UAEXXZ 5f44d631 f doccore.obj
 0001:0004c6dd       ?GetFile@CDocument@@UAEPAVCFile@@PBGIPAVCFileException@@@Z 5f44d6dd f doccore.obj
 0001:0004c7da       ?ReleaseFile@CDocument@@UAEXPAVCFile@@H@Z 5f44d7da f doccore.obj
 0001:0004c86c       ?OnNewDocument@CDocument@@UAEHXZ 5f44d86c f doccore.obj
 0001:0004c8cf       ?OnOpenDocument@CDocument@@UAEHPBG@Z 5f44d8cf f doccore.obj
 0001:0004cbd8       ?OnSaveDocument@CDocument@@UAEHPBG@Z 5f44dbd8 f doccore.obj
 0001:0004ce78       ?OnCloseDocument@CDocument@@UAEXXZ 5f44de78 f doccore.obj
 0001:0004cf60       ?OnIdle@CDocument@@UAEXXZ  5f44df60 f doccore.obj
 0001:0004cf76       ?AddView@CDocument@@QAEXPAVCView@@@Z 5f44df76 f doccore.obj
 0001:0004d03f       ?RemoveView@CDocument@@QAEXPAVCView@@@Z 5f44e03f f doccore.obj
 0001:0004d0c3       ?GetFirstViewPosition@CDocument@@UBEPAU__POSITION@@XZ 5f44e0c3 f doccore.obj
 0001:0004d0e4       ?GetNextView@CDocument@@UBEPAVCView@@AAPAU__POSITION@@@Z 5f44e0e4 f doccore.obj
 0001:0004d175       ?UpdateAllViews@CDocument@@QAEXPAVCView@@JPAVCObject@@@Z 5f44e175 f doccore.obj
 0001:0004d22a       ?SendInitialUpdate@CDocument@@QAEXXZ 5f44e22a f doccore.obj
 0001:0004d290       ?OnCmdMsg@CDocument@@UAEHIHPAXPAUAFX_CMDHANDLERINFO@@@Z 5f44e290 f doccore.obj
 0001:0004d314       ?Dump@CDocument@@UBEXAAVCDumpContext@@@Z 5f44e314 f doccore.obj
 0001:0004d406       ?AssertValid@CDocument@@UBEXXZ 5f44e406 f doccore.obj
 0001:0004d470       ??_ECDocument@@UAEPAXI@Z   5f44e470 f doccore.obj
 0001:0004d470       ??_GCDocument@@UAEPAXI@Z   5f44e470 f doccore.obj
 0001:0004d4b0       ??0CMirrorFile@@QAE@XZ     5f44e4b0 f doccore.obj
 0001:0004d540       ??_GCMirrorFile@@UAEPAXI@Z 5f44e540 f doccore.obj
 0001:0004d580       ??1CMirrorFile@@UAE@XZ     5f44e580 f doccore.obj
 0001:0004d600       ??0CDocTemplate@@IAE@IPAUCRuntimeClass@@00@Z 5f44e600 f doctempl.obj
 0001:0004d8b7       ?LoadTemplate@CDocTemplate@@UAEXXZ 5f44e8b7 f doctempl.obj
 0001:0004da34       ?SetServerInfo@CDocTemplate@@QAEXIIPAUCRuntimeClass@@0@Z 5f44ea34 f doctempl.obj
 0001:0004db52       ?SetContainerInfo@CDocTemplate@@QAEXI@Z 5f44eb52 f doctempl.obj
 0001:0004dbad       ??1CDocTemplate@@UAE@XZ    5f44ebad f doctempl.obj
 0001:0004dcca       ?GetDocString@CDocTemplate@@UBEHAAVCString@@W4DocStringIndex@1@@Z 5f44ecca f doctempl.obj
 0001:0004dcfd       ?AddDocument@CDocTemplate@@UAEXPAVCDocument@@@Z 5f44ecfd f doctempl.obj
 0001:0004dd56       ?RemoveDocument@CDocTemplate@@UAEXPAVCDocument@@@Z 5f44ed56 f doctempl.obj
 0001:0004ddb2       ?MatchDocType@CDocTemplate@@UAE?AW4Confidence@1@PBGAAPAVCDocument@@@Z 5f44edb2 f doctempl.obj
 0001:0004df57       ?CreateNewDocument@CDocTemplate@@UAEPAVCDocument@@XZ 5f44ef57 f doctempl.obj
 0001:0004e01f       ?CreateNewFrame@CDocTemplate@@UAEPAVCFrameWnd@@PAVCDocument@@PAV2@@Z 5f44f01f f doctempl.obj
 0001:0004e19c       ?CreateOleFrame@CDocTemplate@@QAEPAVCFrameWnd@@PAVCWnd@@PAVCDocument@@H@Z 5f44f19c f doctempl.obj
 0001:0004e2b4       ?InitialUpdateFrame@CDocTemplate@@UAEXPAVCFrameWnd@@PAVCDocument@@H@Z 5f44f2b4 f doctempl.obj
 0001:0004e2dc       ?SaveAllModified@CDocTemplate@@UAEHXZ 5f44f2dc f doctempl.obj
 0001:0004e343       ?CloseAllDocuments@CDocTemplate@@UAEXH@Z 5f44f343 f doctempl.obj
 0001:0004e3aa       ?OnIdle@CDocTemplate@@UAEXXZ 5f44f3aa f doctempl.obj
 0001:0004e43d       ?Dump@CDocTemplate@@UBEXAAVCDumpContext@@@Z 5f44f43d f doctempl.obj
 0001:0004e550       ?AssertValid@CDocTemplate@@UBEXXZ 5f44f550 f doctempl.obj
 0001:0004e5b0       ??_ECDocTemplate@@UAEPAXI@Z 5f44f5b0 f doctempl.obj
 0001:0004e5b0       ??_GCDocTemplate@@UAEPAXI@Z 5f44f5b0 f doctempl.obj
 0001:0004e5f0       ??0CSingleDocTemplate@@QAE@IPAUCRuntimeClass@@00@Z 5f44f5f0 f docsingl.obj
 0001:0004e67b       ??1CSingleDocTemplate@@UAE@XZ 5f44f67b f docsingl.obj
 0001:0004e702       ?GetFirstDocPosition@CSingleDocTemplate@@UBEPAU__POSITION@@XZ 5f44f702 f docsingl.obj
 0001:0004e731       ?GetNextDoc@CSingleDocTemplate@@UBEPAVCDocument@@AAPAU__POSITION@@@Z 5f44f731 f docsingl.obj
 0001:0004e793       ?AddDocument@CSingleDocTemplate@@UAEXPAVCDocument@@@Z 5f44f793 f docsingl.obj
 0001:0004e7f2       ?RemoveDocument@CSingleDocTemplate@@UAEXPAVCDocument@@@Z 5f44f7f2 f docsingl.obj
 0001:0004e854       ?OpenDocumentFile@CSingleDocTemplate@@UAEPAVCDocument@@PBGH@Z 5f44f854 f docsingl.obj
 0001:0004ec25       ?SetDefaultTitle@CSingleDocTemplate@@UAEXPAVCDocument@@@Z 5f44fc25 f docsingl.obj
 0001:0004ecf3       ?Dump@CSingleDocTemplate@@UBEXAAVCDumpContext@@@Z 5f44fcf3 f docsingl.obj
 0001:0004ed5e       ?AssertValid@CSingleDocTemplate@@UBEXXZ 5f44fd5e f docsingl.obj
 0001:0004eda0       ??_GCSingleDocTemplate@@UAEPAXI@Z 5f44fda0 f docsingl.obj
 0001:0004eda0       ??_ECSingleDocTemplate@@UAEPAXI@Z 5f44fda0 f docsingl.obj
 0001:0004ede0       ??0CMultiDocTemplate@@QAE@IPAUCRuntimeClass@@00@Z 5f44fde0 f docmulti.obj
 0001:0004eedc       ?LoadTemplate@CMultiDocTemplate@@UAEXXZ 5f44fedc f docmulti.obj
 0001:0004ef7d       ??1CMultiDocTemplate@@UAE@XZ 5f44ff7d f docmulti.obj
 0001:0004f05e       ?GetFirstDocPosition@CMultiDocTemplate@@UBEPAU__POSITION@@XZ 5f45005e f docmulti.obj
 0001:0004f07f       ?GetNextDoc@CMultiDocTemplate@@UBEPAVCDocument@@AAPAU__POSITION@@@Z 5f45007f f docmulti.obj
 0001:0004f0a6       ?AddDocument@CMultiDocTemplate@@UAEXPAVCDocument@@@Z 5f4500a6 f docmulti.obj
 0001:0004f117       ?RemoveDocument@CMultiDocTemplate@@UAEXPAVCDocument@@@Z 5f450117 f docmulti.obj
 0001:0004f168       ?OpenDocumentFile@CMultiDocTemplate@@UAEPAVCDocument@@PBGH@Z 5f450168 f docmulti.obj
 0001:0004f395       ?SetDefaultTitle@CMultiDocTemplate@@UAEXPAVCDocument@@@Z 5f450395 f docmulti.obj
 0001:0004f491       ?Dump@CMultiDocTemplate@@UBEXAAVCDumpContext@@@Z 5f450491 f docmulti.obj
 0001:0004f589       ?AssertValid@CMultiDocTemplate@@UBEXXZ 5f450589 f docmulti.obj
 0001:0004f5f0       ??_ECMultiDocTemplate@@UAEPAXI@Z 5f4505f0 f docmulti.obj
 0001:0004f5f0       ??_GCMultiDocTemplate@@UAEPAXI@Z 5f4505f0 f docmulti.obj
 0001:0004f630       ?OpenDocumentFile@CDocManager@@UAEPAVCDocument@@PBG@Z 5f450630 f docmgr.obj
 0001:0004f9a7       ?GetOpenDocumentCount@CDocManager@@UAEHXZ 5f4509a7 f docmgr.obj
 0001:0004fa30       ?_GetBaseMessageMap@CView@@KGPBUAFX_MSGMAP@@XZ 5f450a30 f viewcore.obj
 0001:0004fa45       ?GetMessageMap@CView@@MBEPBUAFX_MSGMAP@@XZ 5f450a45 f viewcore.obj
 0001:0004fa60       ??0CView@@IAE@XZ           5f450a60 f viewcore.obj
 0001:0004fad9       ??1CView@@UAE@XZ           5f450ad9 f viewcore.obj
 0001:0004fb5d       ?PreCreateWindow@CView@@MAEHAAUtagCREATESTRUCTW@@@Z 5f450b5d f viewcore.obj
 0001:0004fc19       ?OnCreate@CView@@IAEHPAUtagCREATESTRUCTW@@@Z 5f450c19 f viewcore.obj
 0001:0004fcdb       ?OnDestroy@CView@@IAEXXZ   5f450cdb f viewcore.obj
 0001:0004fd2b       ?PostNcDestroy@CView@@MAEXXZ 5f450d2b f viewcore.obj
 0001:0004fd69       ?CalcWindowRect@CView@@UAEXPAUtagRECT@@I@Z 5f450d69 f viewcore.obj
 0001:0004fe12       ?OnCmdMsg@CView@@MAEHIHPAXPAUAFX_CMDHANDLERINFO@@@Z 5f450e12 f viewcore.obj
 0001:0004fec0       ?OnPaint@CView@@IAEXXZ     5f450ec0 f viewcore.obj
 0001:0004ff4c       ?OnInitialUpdate@CView@@UAEXXZ 5f450f4c f viewcore.obj
 0001:0004ff76       ?OnUpdate@CView@@MAEXPAV1@JPAVCObject@@@Z 5f450f76 f viewcore.obj
 0001:0004ffbc       ?OnPrint@CView@@MAEXPAVCDC@@PAUCPrintInfo@@@Z 5f450fbc f viewcore.obj
 0001:0004fff9       ?OnDraw@CView@@MAEXPAVCDC@@@Z 5f450ff9 f viewcore.obj
 0001:00050011       ?IsSelected@CView@@UBEHPBVCObject@@@Z 5f451011 f viewcore.obj
 0001:0005003e       ?OnActivateView@CView@@MAEXHPAV1@0@Z 5f45103e f viewcore.obj
 0001:0005009c       ?OnActivateFrame@CView@@MAEXIPAVCFrameWnd@@@Z 5f45109c f viewcore.obj
 0001:000500b4       ?OnMouseActivate@CView@@IAEHPAVCWnd@@II@Z 5f4510b4 f viewcore.obj
 0001:000501c2       ?OnScroll@CView@@UAEHIIH@Z 5f4511c2 f viewcore.obj
 0001:000501dc       ?OnScrollBy@CView@@UAEHVCSize@@H@Z 5f4511dc f viewcore.obj
 0001:000501f6       ?OnDragScroll@CView@@UAEKKVCPoint@@@Z 5f4511f6 f viewcore.obj
 0001:00050213       ?OnDragEnter@CView@@UAEKPAVCOleDataObject@@KVCPoint@@@Z 5f451213 f viewcore.obj
 0001:0005022d       ?OnDragOver@CView@@UAEKPAVCOleDataObject@@KVCPoint@@@Z 5f45122d f viewcore.obj
 0001:00050247       ?OnDrop@CView@@UAEHPAVCOleDataObject@@KVCPoint@@@Z 5f451247 f viewcore.obj
 0001:00050261       ?OnDropEx@CView@@UAEKPAVCOleDataObject@@KKVCPoint@@@Z 5f451261 f viewcore.obj
 0001:0005027e       ?OnDragLeave@CView@@UAEXXZ 5f45127e f viewcore.obj
 0001:00050294       ?GetParentSplitter@CView@@SGPAVCSplitterWnd@@PBVCWnd@@H@Z 5f451294 f viewcore.obj
 0001:0005030e       ?GetScrollBarCtrl@CView@@UBEPAVCScrollBar@@H@Z 5f45130e f viewcore.obj
 0001:0005040f       ?OnUpdateSplitCmd@CView@@IAEXPAVCCmdUI@@@Z 5f45140f f viewcore.obj
 0001:00050470       ?OnSplitCmd@CView@@IAEHI@Z 5f451470 f viewcore.obj
 0001:000504e2       ?OnUpdateNextPaneMenu@CView@@IAEXPAVCCmdUI@@@Z 5f4514e2 f viewcore.obj
 0001:00050594       ?OnNextPaneCmd@CView@@IAEHI@Z 5f451594 f viewcore.obj
 0001:00050620       ?OnPrepareDC@CView@@UAEXPAVCDC@@PAUCPrintInfo@@@Z 5f451620 f viewcore.obj
 0001:0005068e       ?OnPreparePrinting@CView@@MAEHPAUCPrintInfo@@@Z 5f45168e f viewcore.obj
 0001:000506ab       ?OnBeginPrinting@CView@@MAEXPAVCDC@@PAUCPrintInfo@@@Z 5f4516ab f viewcore.obj
 0001:000506d6       ?OnEndPrinting@CView@@MAEXPAVCDC@@PAUCPrintInfo@@@Z 5f4516d6 f viewcore.obj
 0001:00050701       ?OnEndPrintPreview@CView@@MAEXPAVCDC@@PAUCPrintInfo@@UtagPOINT@@PAVCPreviewView@@@Z 5f451701 f viewcore.obj
 0001:00050844       ?Dump@CView@@UBEXAAVCDumpContext@@@Z 5f451844 f viewcore.obj
 0001:000508a2       ?AssertValid@CView@@UBEXXZ 5f4518a2 f viewcore.obj
 0001:000508c0       ?_GetBaseMessageMap@CCtrlView@@KGPBUAFX_MSGMAP@@XZ 5f4518c0 f viewcore.obj
 0001:000508d5       ?GetMessageMap@CCtrlView@@MBEPBUAFX_MSGMAP@@XZ 5f4518d5 f viewcore.obj
 0001:000508f0       ??0CCtrlView@@QAE@PBGK@Z   5f4518f0 f viewcore.obj
 0001:00050994       ?PreCreateWindow@CCtrlView@@MAEHAAUtagCREATESTRUCTW@@@Z 5f451994 f viewcore.obj
 0001:00050a64       ?OnDraw@CCtrlView@@MAEXPAVCDC@@@Z 5f451a64 f viewcore.obj
 0001:00050a94       ?OnPaint@CCtrlView@@IAEXXZ 5f451a94 f viewcore.obj
 0001:00050ab2       ?Dump@CCtrlView@@UBEXAAVCDumpContext@@@Z 5f451ab2 f viewcore.obj
 0001:00050b0b       ?AssertValid@CCtrlView@@UBEXXZ 5f451b0b f viewcore.obj
 0001:00050b60       ??_GCView@@UAEPAXI@Z       5f451b60 f viewcore.obj
 0001:00050b60       ??_ECView@@UAEPAXI@Z       5f451b60 f viewcore.obj
 0001:00050ba0       ??_GCCtrlView@@UAEPAXI@Z   5f451ba0 f viewcore.obj
 0001:00050ba0       ??_ECCtrlView@@UAEPAXI@Z   5f451ba0 f viewcore.obj
 0001:00050be0       ??1CCtrlView@@UAE@XZ       5f451be0 f viewcore.obj
 0001:00050c60       ?_GetBaseMessageMap@CScrollView@@KGPBUAFX_MSGMAP@@XZ 5f451c60 f viewscrl.obj
 0001:00050c75       ?GetMessageMap@CScrollView@@MBEPBUAFX_MSGMAP@@XZ 5f451c75 f viewscrl.obj
 0001:00050c90       ??0CScrollView@@IAE@XZ     5f451c90 f viewscrl.obj
 0001:00050d48       ??1CScrollView@@UAE@XZ     5f451d48 f viewscrl.obj
 0001:00050db0       ?OnPrepareDC@CScrollView@@UAEXPAVCDC@@PAUCPrintInfo@@@Z 5f451db0 f viewscrl.obj
 0001:00051039       ?SetScaleToFitSize@CScrollView@@QAEXUtagSIZE@@@Z 5f452039 f viewscrl.obj
 0001:00051164       ?SetScrollSizes@CScrollView@@QAEXHUtagSIZE@@ABU2@1@Z 5f452164 f viewscrl.obj
 0001:0005146c       ?GetScrollPosition@CScrollView@@QBE?AVCPoint@@XZ 5f45246c f viewscrl.obj
 0001:00051560       ?ScrollToPosition@CScrollView@@QAEXUtagPOINT@@@Z 5f452560 f viewscrl.obj
 0001:0005168f       ?GetDeviceScrollPosition@CScrollView@@QBE?AVCPoint@@XZ 5f45268f f viewscrl.obj
 0001:0005177d       ?GetDeviceScrollSizes@CScrollView@@QBEXAAHAAUtagSIZE@@11@Z 5f45277d f viewscrl.obj
 0001:000517f8       ?ScrollToDevicePosition@CScrollView@@IAEXUtagPOINT@@@Z 5f4527f8 f viewscrl.obj
 0001:000518a8       ?FillOutsideRect@CScrollView@@QAEXPAVCDC@@PAVCBrush@@@Z 5f4528a8 f viewscrl.obj
 0001:00051997       ?ResizeParentToFit@CScrollView@@QAEXH@Z 5f452997 f viewscrl.obj
 0001:00051bd4       ?OnSize@CScrollView@@QAEXIHH@Z 5f452bd4 f viewscrl.obj
 0001:00051c2f       ?CenterOnPoint@CScrollView@@IAEXVCPoint@@@Z 5f452c2f f viewscrl.obj
 0001:00051d8e       ?GetScrollBarSizes@CScrollView@@IAEXAAVCSize@@@Z 5f452d8e f viewscrl.obj
 0001:00051e24       ?GetTrueClientSize@CScrollView@@IAEHAAVCSize@@0@Z 5f452e24 f viewscrl.obj
 0001:00051f15       ?GetScrollBarState@CScrollView@@IAEXVCSize@@AAV2@1AAVCPoint@@H@Z 5f452f15 f viewscrl.obj
 0001:000520c7       ?UpdateBars@CScrollView@@IAEXXZ 5f4530c7 f viewscrl.obj
 0001:00052335       ?CalcWindowRect@CScrollView@@UAEXPAUtagRECT@@I@Z 5f453335 f viewscrl.obj
 0001:00052415       ?OnHScroll@CScrollView@@QAEXIIPAVCScrollBar@@@Z 5f453415 f viewscrl.obj
 0001:0005248b       ?OnVScroll@CScrollView@@QAEXIIPAVCScrollBar@@@Z 5f45348b f viewscrl.obj
 0001:00052501       ?OnScroll@CScrollView@@UAEHIIH@Z 5f453501 f viewscrl.obj
 0001:000526e2       ?OnScrollBy@CScrollView@@UAEHVCSize@@H@Z 5f4536e2 f viewscrl.obj
 0001:000528a7       ?Dump@CScrollView@@UBEXAAVCDumpContext@@@Z 5f4538a7 f viewscrl.obj
 0001:00052a87       ?AssertValid@CScrollView@@UBEXXZ 5f453a87 f viewscrl.obj
 0001:00052b30       ??_GCScrollView@@UAEPAXI@Z 5f453b30 f viewscrl.obj
 0001:00052b30       ??_ECScrollView@@UAEPAXI@Z 5f453b30 f viewscrl.obj
 0001:00052b70       ?_GetBaseMessageMap@CFormView@@KGPBUAFX_MSGMAP@@XZ 5f453b70 f viewform.obj
 0001:00052b85       ?GetMessageMap@CFormView@@MBEPBUAFX_MSGMAP@@XZ 5f453b85 f viewform.obj
 0001:00052ba0       ??0CFormView@@IAE@PBG@Z    5f453ba0 f viewform.obj
 0001:00052c2e       ??0CFormView@@IAE@I@Z      5f453c2e f viewform.obj
 0001:00052ced       ?Create@CFormView@@MAEHPBG0KABUtagRECT@@PAVCWnd@@IPAUCCreateContext@@@Z 5f453ced f viewform.obj
 0001:00052f2b       ?OnInitialUpdate@CFormView@@UAEXXZ 5f453f2b f viewform.obj
 0001:00052f80       ?OnCreate@CFormView@@IAEHPAUtagCREATESTRUCTW@@@Z 5f453f80 f viewform.obj
 0001:00052faf       ?OnActivateView@CFormView@@MAEXHPAVCView@@0@Z 5f453faf f viewform.obj
 0001:00052ff0       ?OnActivateFrame@CFormView@@MAEXIPAVCFrameWnd@@@Z 5f453ff0 f viewform.obj
 0001:0005301a       ?SaveFocusControl@CFormView@@IAEHXZ 5f45401a f viewform.obj
 0001:00053071       ?OnSetFocus@CFormView@@IAEXPAVCWnd@@@Z 5f454071 f viewform.obj
 0001:000530c2       ?PreTranslateMessage@CFormView@@MAEHPAUtagMSG@@@Z 5f4540c2 f viewform.obj
 0001:000531d0       ?OnDraw@CFormView@@MAEXPAVCDC@@@Z 5f4541d0 f viewform.obj
 0001:0005321d       ?HandleInitDialog@CFormView@@IAEJIJ@Z 5f45421d f viewform.obj
 0001:000532a2       ?SetOccDialogInfo@CFormView@@MAEHPAU_AFX_OCC_DIALOG_INFO@@@Z 5f4542a2 f viewform.obj
 0001:000532c8       ?Dump@CFormView@@UBEXAAVCDumpContext@@@Z 5f4542c8 f viewform.obj
 0001:00053345       ?AssertValid@CFormView@@UBEXXZ 5f454345 f viewform.obj
 0001:00053370       ??_ECFormView@@UAEPAXI@Z   5f454370 f viewform.obj
 0001:00053370       ??_GCFormView@@UAEPAXI@Z   5f454370 f viewform.obj
 0001:000533b0       ??1CFormView@@UAE@XZ       5f4543b0 f viewform.obj
 0001:00053410       ?OnAppExit@CWinApp@@IAEXXZ 5f454410 f appui.obj
 0001:00053460       ?GetOpenDocumentCount@CWinApp@@QAEHXZ 5f454460 f appui2.obj
 0001:000534c0       ?AfxFindResourceHandle@@YGPAUHINSTANCE__@@PBG0@Z 5f4544c0 f dllinit.obj
 0001:000536dc       ?AfxLoadString@@YGHIPAGI@Z 5f4546dc f dllinit.obj
 0001:000539a0       ??0CMemFile@@QAE@I@Z       5f4549a0 f filemem.obj
 0001:00053a6b       ??0CMemFile@@QAE@PAEII@Z   5f454a6b f filemem.obj
 0001:00053b4c       ?Attach@CMemFile@@QAEXPAEII@Z 5f454b4c f filemem.obj
 0001:00053bd7       ?Detach@CMemFile@@QAEPAEXZ 5f454bd7 f filemem.obj
 0001:00053c21       ??1CMemFile@@UAE@XZ        5f454c21 f filemem.obj
 0001:00053ce8       ?Alloc@CMemFile@@MAEPAEK@Z 5f454ce8 f filemem.obj
 0001:00053d0d       ?Realloc@CMemFile@@MAEPAEPAEK@Z 5f454d0d f filemem.obj
 0001:00053d36       ?Memcpy@CMemFile@@MAEPAEPAEPBEI@Z 5f454d36 f filemem.obj
 0001:00053dfe       ?Free@CMemFile@@MAEXPAE@Z  5f454dfe f filemem.obj
 0001:00053e42       ?GetPosition@CMemFile@@UBEKXZ 5f454e42 f filemem.obj
 0001:00053e6e       ?GrowFile@CMemFile@@MAEXK@Z 5f454e6e f filemem.obj
 0001:00053f70       ?SetLength@CMemFile@@UAEXK@Z 5f454f70 f filemem.obj
 0001:00053fed       ?Read@CMemFile@@UAEIPAXI@Z 5f454fed f filemem.obj
 0001:00054101       ?Write@CMemFile@@UAEXPBXI@Z 5f455101 f filemem.obj
 0001:0005423d       ?Seek@CMemFile@@UAEJJI@Z   5f45523d f filemem.obj
 0001:0005432d       ?Flush@CMemFile@@UAEXXZ    5f45532d f filemem.obj
 0001:00054356       ?Close@CMemFile@@UAEXXZ    5f455356 f filemem.obj
 0001:000543dd       ?Abort@CMemFile@@UAEXXZ    5f4553dd f filemem.obj
 0001:00054411       ?LockRange@CMemFile@@UAEXKK@Z 5f455411 f filemem.obj
 0001:00054441       ?UnlockRange@CMemFile@@UAEXKK@Z 5f455441 f filemem.obj
 0001:00054471       ?Duplicate@CMemFile@@UBEPAVCFile@@XZ 5f455471 f filemem.obj
 0001:000544a1       ?GetBufferPtr@CMemFile@@UAEIIIPAPAX0@Z 5f4554a1 f filemem.obj
 0001:000546af       ?Dump@CMemFile@@UBEXAAVCDumpContext@@@Z 5f4556af f filemem.obj
 0001:0005474c       ?AssertValid@CMemFile@@UBEXXZ 5f45574c f filemem.obj
 0001:000547f0       ??_GCMemFile@@UAEPAXI@Z    5f4557f0 f filemem.obj
 0001:00054830       ?OnHelp@CWnd@@QAEXXZ       5f455830 f winfrmx.obj
 0001:0005493a       ?OnHelp@CFrameWnd@@IAEXXZ  5f45593a f winfrmx.obj
 0001:0005499f       ?OnHelpIndex@CWnd@@QAEXXZ  5f45599f f winfrmx.obj
 0001:000549d5       ?OnHelpFinder@CWnd@@QAEXXZ 5f4559d5 f winfrmx.obj
 0001:00054a0b       ?OnHelpUsing@CWnd@@QAEXXZ  5f455a0b f winfrmx.obj
 0001:00054a41       ?CanEnterHelpMode@CFrameWnd@@QAEHXZ 5f455a41 f winfrmx.obj
 0001:00054af4       ?OnContextHelp@CFrameWnd@@QAEXXZ 5f455af4 f winfrmx.obj
 0001:00054ded       ?SetHelpCapture@CFrameWnd@@IAEPAUHWND__@@UtagPOINT@@PAH@Z 5f455ded f winfrmx.obj
 0001:00054f8c       ?ProcessHelpMsg@CFrameWnd@@IAEHAAUtagMSG@@PAK@Z 5f455f8c f winfrmx.obj
 0001:00055510       ?_GetBaseMessageMap@CControlBar@@KGPBUAFX_MSGMAP@@XZ 5f456510 f barcore.obj
 0001:00055525       ?GetMessageMap@CControlBar@@MBEPBUAFX_MSGMAP@@XZ 5f456525 f barcore.obj
 0001:00055540       ??1CControlBar@@UAE@XZ     5f456540 f barcore.obj
 0001:0005568d       ?PostNcDestroy@CControlBar@@UAEXXZ 5f45668d f barcore.obj
 0001:000556d8       ?CalcFixedLayout@CControlBar@@UAE?AVCSize@@HH@Z 5f4566d8 f barcore.obj
 0001:00055757       ?CalcDynamicLayout@CControlBar@@UAE?AVCSize@@HK@Z 5f456757 f barcore.obj
 0001:00055792       ?IsDockBar@CControlBar@@UBEHXZ 5f456792 f barcore.obj
 0001:000557aa       ?ResetTimer@CControlBar@@QAEXII@Z 5f4567aa f barcore.obj
 0001:0005580e       ?OnTimer@CControlBar@@QAEXI@Z 5f45680e f barcore.obj
 0001:00055a09       ?SetStatusText@CControlBar@@UAEHH@Z 5f456a09 f barcore.obj
 0001:00055af2       ?PreTranslateMessage@CControlBar@@UAEHPAUtagMSG@@@Z 5f456af2 f barcore.obj
 0001:00055df7       ?WindowProc@CControlBar@@UAEJIIJ@Z 5f456df7 f barcore.obj
 0001:00055fbd       ?OnHelpHitTest@CControlBar@@QAEJIJ@Z 5f456fbd f barcore.obj
 0001:0005604d       ?OnWindowPosChanging@CControlBar@@QAEXPAUtagWINDOWPOS@@@Z 5f45704d f barcore.obj
 0001:0005618f       ?OnCreate@CControlBar@@QAEHPAUtagCREATESTRUCTW@@@Z 5f45718f f barcore.obj
 0001:00056218       ?OnDestroy@CControlBar@@QAEXXZ 5f457218 f barcore.obj
 0001:000562ae       ?DestroyWindow@CControlBar@@UAEHXZ 5f4572ae f barcore.obj
 0001:0005630f       ?OnMouseActivate@CControlBar@@QAEHPAVCWnd@@II@Z 5f45730f f barcore.obj
 0001:0005635d       ?OnPaint@CControlBar@@QAEXXZ 5f45735d f barcore.obj
 0001:000563eb       ?EraseNonClient@CControlBar@@QAEXXZ 5f4573eb f barcore.obj
 0001:000564fe       ?OnCtlColor@CControlBar@@QAEPAUHBRUSH__@@PAVCDC@@PAVCWnd@@I@Z 5f4574fe f barcore.obj
 0001:00056571       ?OnLButtonDown@CControlBar@@QAEXIVCPoint@@@Z 5f457571 f barcore.obj
 0001:00056616       ?OnLButtonDblClk@CControlBar@@QAEXIVCPoint@@@Z 5f457616 f barcore.obj
 0001:000566a8       ?OnIdleUpdateCmdUI@CControlBar@@QAEJIJ@Z 5f4576a8 f barcore.obj
 0001:000567d0       ?OnInitialUpdate@CControlBar@@QAEXXZ 5f4577d0 f barcore.obj
 0001:000567f2       ?RecalcDelayShow@CControlBar@@UAEKPAUAFX_SIZEPARENTPARAMS@@@Z 5f4577f2 f barcore.obj
 0001:00056938       ?OnSizeParent@CControlBar@@QAEJIJ@Z 5f457938 f barcore.obj
 0001:00056b58       ?DelayShow@CControlBar@@UAEXH@Z 5f457b58 f barcore.obj
 0001:00056bc4       ?IsVisible@CControlBar@@UBEHXZ 5f457bc4 f barcore.obj
 0001:00056c1a       ?DoPaint@CControlBar@@UAEXPAVCDC@@@Z 5f457c1a f barcore.obj
 0001:00056c81       ?DrawBorders@CControlBar@@QAEXPAVCDC@@AAVCRect@@@Z 5f457c81 f barcore.obj
 0001:00056f50       ?CalcInsideRect@CControlBar@@QBEXAAVCRect@@H@Z 5f457f50 f barcore.obj
 0001:0005705e       ?AssertValid@CControlBar@@UBEXXZ 5f45805e f barcore.obj
 0001:000570ae       ?Dump@CControlBar@@UBEXAAVCDumpContext@@@Z 5f4580ae f barcore.obj
 0001:000571a0       ??_GCDockContext@@QAEPAXI@Z 5f4581a0 f barcore.obj
 0001:000571e0       ?AfxLoadSysColorBitmap@@YGPAUHBITMAP__@@PAUHINSTANCE__@@PAUHRSRC__@@H@Z 5f4581e0 f bartool.obj
 0001:00057452       ?_GetButton@CToolBar@@IBEXHPAU_TBBUTTON@@@Z 5f458452 f bartool.obj
 0001:000574bc       ?_SetButton@CToolBar@@IAEXHPAU_TBBUTTON@@@Z 5f4584bc f bartool.obj
 0001:00057679       ?CommandToIndex@CToolBar@@QBEHI@Z 5f458679 f bartool.obj
 0001:000576f0       ?GetItemID@CToolBar@@QBEIH@Z 5f4586f0 f bartool.obj
 0001:0005775b       ?GetItemRect@CToolBar@@UBEXHPAUtagRECT@@@Z 5f45875b f bartool.obj
 0001:00057886       ?GetButtonStyle@CToolBar@@QBEIH@Z 5f458886 f bartool.obj
 0001:000578fd       ?SetButtonStyle@CToolBar@@QAEXHI@Z 5f4588fd f bartool.obj
 0001:00057991       ?CalcSize@CToolBar@@IAE?AVCSize@@PAU_TBBUTTON@@H@Z 5f458991 f bartool.obj
 0001:00057bb2       ?WrapToolBar@CToolBar@@IAEHPAU_TBBUTTON@@HH@Z 5f458bb2 f bartool.obj
 0001:00057e84       ?SizeToolBar@CToolBar@@IAEXPAU_TBBUTTON@@HHH@Z 5f458e84 f bartool.obj
 0001:000580ff       ?CalcLayout@CToolBar@@IAE?AVCSize@@KH@Z 5f4590ff f bartool.obj
 0001:00058859       ?CalcFixedLayout@CToolBar@@UAE?AVCSize@@HH@Z 5f459859 f bartool.obj
 0001:000588b6       ?CalcDynamicLayout@CToolBar@@UAE?AVCSize@@HK@Z 5f4598b6 f bartool.obj
 0001:00058935       ?GetButtonInfo@CToolBar@@QBEXHAAI0AAH@Z 5f459935 f bartool.obj
 0001:000589c1       ?SetButtonInfo@CToolBar@@QAEXHIIH@Z 5f4599c1 f bartool.obj
 0001:00058a34       ?OnToolHitTest@CToolBar@@UBEHVCPoint@@PAUtagTOOLINFOW@@@Z 5f459a34 f bartool.obj
 0001:00058bec       ?SetButtonText@CToolBar@@QAEHHPBG@Z 5f459bec f bartool.obj
 0001:00058da0       ?GetButtonText@CToolBar@@QBE?AVCString@@H@Z 5f459da0 f bartool.obj
 0001:00058e3f       ?GetButtonText@CToolBar@@QBEXHAAVCString@@@Z 5f459e3f f bartool.obj
 0001:00058f2e       ?_GetBaseMessageMap@CToolBar@@KGPBUAFX_MSGMAP@@XZ 5f459f2e f bartool.obj
 0001:00058f43       ?GetMessageMap@CToolBar@@MBEPBUAFX_MSGMAP@@XZ 5f459f43 f bartool.obj
 0001:00058f5e       ?OnEraseBkgnd@CToolBar@@IAEHPAVCDC@@@Z 5f459f5e f bartool.obj
 0001:00058f7e       ?OnNcHitTest@CToolBar@@IAEIVCPoint@@@Z 5f459f7e f bartool.obj
 0001:00058f9b       ?OnNcCalcSize@CToolBar@@IAEXHPAUtagNCCALCSIZE_PARAMS@@@Z 5f459f9b f bartool.obj
 0001:0005903b       ?OnBarStyleChange@CToolBar@@UAEXKK@Z 5f45a03b f bartool.obj
 0001:00059126       ?OnNcPaint@CToolBar@@IAEXXZ 5f45a126 f bartool.obj
 0001:00059144       ?OnWindowPosChanging@CToolBar@@IAEXPAUtagWINDOWPOS@@@Z 5f45a144 f bartool.obj
 0001:000591aa       ?OnPaint@CToolBar@@IAEXXZ  5f45a1aa f bartool.obj
 0001:00059275       ?OnSetButtonSize@CToolBar@@IAEJIJ@Z 5f45a275 f bartool.obj
 0001:000592c4       ?OnSetBitmapSize@CToolBar@@IAEJIJ@Z 5f45a2c4 f bartool.obj
 0001:00059313       ?OnSysColorChange@CToolBar@@IAEXXZ 5f45a313 f bartool.obj
 0001:0005937a       ?Enable@CToolCmdUI@@UAEXH@Z 5f45a37a f bartool.obj
 0001:00059482       ?SetCheck@CToolCmdUI@@UAEXH@Z 5f45a482 f bartool.obj
 0001:000595be       ?SetText@CToolCmdUI@@UAEXPBG@Z 5f45a5be f bartool.obj
 0001:000595d6       ?OnUpdateCmdUI@CToolBar@@UAEXPAVCFrameWnd@@H@Z 5f45a5d6 f bartool.obj
 0001:0005969a       ?AssertValid@CToolBar@@UBEXXZ 5f45a69a f bartool.obj
 0001:00059743       ?Dump@CToolBar@@UBEXAAVCDumpContext@@@Z 5f45a743 f bartool.obj
 0001:00059920       ??0_AFX_CONTROLPOS@@QAE@XZ 5f45a920 f bartool.obj
 0001:00059950       ??_H@YGXPAXIHP6EX0@Z@Z     5f45a950 f bartool.obj
 0001:00059980       ??0CToolCmdUI@@QAE@XZ      5f45a980 f bartool.obj
 0001:000599b0       ??0CDialogBar@@QAE@XZ      5f45a9b0 f bardlg.obj
 0001:00059a44       ??1CDialogBar@@UAE@XZ      5f45aa44 f bardlg.obj
 0001:00059ab4       ?Create@CDialogBar@@QAEHPAVCWnd@@PBGII@Z 5f45aab4 f bardlg.obj
 0001:00059cad       ?CalcFixedLayout@CDialogBar@@UAE?AVCSize@@HH@Z 5f45acad f bardlg.obj
 0001:00059d43       ?OnUpdateCmdUI@CDialogBar@@UAEXPAVCFrameWnd@@H@Z 5f45ad43 f bardlg.obj
 0001:00059d6b       ?_GetBaseMessageMap@CDialogBar@@KGPBUAFX_MSGMAP@@XZ 5f45ad6b f bardlg.obj
 0001:00059d80       ?GetMessageMap@CDialogBar@@MBEPBUAFX_MSGMAP@@XZ 5f45ad80 f bardlg.obj
 0001:00059d9b       ?HandleInitDialog@CDialogBar@@IAEJIJ@Z 5f45ad9b f bardlg.obj
 0001:00059e2c       ?SetOccDialogInfo@CDialogBar@@MAEHPAU_AFX_OCC_DIALOG_INFO@@@Z 5f45ae2c f bardlg.obj
 0001:00059e60       ??_GCDialogBar@@UAEPAXI@Z  5f45ae60 f bardlg.obj
 0001:00059ea0       ?_GetPanePtr@CStatusBar@@IBEPAUAFX_STATUSPANE@@H@Z 5f45aea0 f barstat.obj
 0001:00059f10       ?CommandToIndex@CStatusBar@@QBEHI@Z 5f45af10 f barstat.obj
 0001:00059fa1       ?GetItemID@CStatusBar@@QBEIH@Z 5f45afa1 f barstat.obj
 0001:00059fda       ?GetItemRect@CStatusBar@@QBEXHPAUtagRECT@@@Z 5f45afda f barstat.obj
 0001:0005a065       ?GetPaneStyle@CStatusBar@@QBEIH@Z 5f45b065 f barstat.obj
 0001:0005a08c       ?SetPaneStyle@CStatusBar@@QAEXHI@Z 5f45b08c f barstat.obj
 0001:0005a11a       ?GetPaneInfo@CStatusBar@@QBEXHAAI0AAH@Z 5f45b11a f barstat.obj
 0001:0005a174       ?SetPaneInfo@CStatusBar@@QAEXHIIH@Z 5f45b174 f barstat.obj
 0001:0005a254       ?GetPaneText@CStatusBar@@QBEXHAAVCString@@@Z 5f45b254 f barstat.obj
 0001:0005a29d       ?GetPaneText@CStatusBar@@QBE?AVCString@@H@Z 5f45b29d f barstat.obj
 0001:0005a330       ?SetPaneText@CStatusBar@@QAEHHPBGH@Z 5f45b330 f barstat.obj
 0001:0005a511       ?CalcFixedLayout@CStatusBar@@UAE?AVCSize@@HH@Z 5f45b511 f barstat.obj
 0001:0005a6fa       ?_GetBaseMessageMap@CStatusBar@@KGPBUAFX_MSGMAP@@XZ 5f45b6fa f barstat.obj
 0001:0005a70f       ?GetMessageMap@CStatusBar@@MBEPBUAFX_MSGMAP@@XZ 5f45b70f f barstat.obj
 0001:0005a72a       ?OnNcHitTest@CStatusBar@@IAEIVCPoint@@@Z 5f45b72a f barstat.obj
 0001:0005a76b       ?OnNcCalcSize@CStatusBar@@IAEXHPAUtagNCCALCSIZE_PARAMS@@@Z 5f45b76b f barstat.obj
 0001:0005a7e9       ?OnBarStyleChange@CStatusBar@@UAEXKK@Z 5f45b7e9 f barstat.obj
 0001:0005a840       ?OnNcPaint@CStatusBar@@IAEXXZ 5f45b840 f barstat.obj
 0001:0005a85e       ?DrawItem@CStatusBar@@UAEXPAUtagDRAWITEMSTRUCT@@@Z 5f45b85e f barstat.obj
 0001:0005a88e       ?OnChildNotify@CStatusBar@@MAEHIIJPAJ@Z 5f45b88e f barstat.obj
 0001:0005a906       ?OnPaint@CStatusBar@@IAEXXZ 5f45b906 f barstat.obj
 0001:0005a930       ?OnSize@CStatusBar@@IAEXIHH@Z 5f45b930 f barstat.obj
 0001:0005a9a8       ?OnWindowPosChanging@CStatusBar@@IAEXPAUtagWINDOWPOS@@@Z 5f45b9a8 f barstat.obj
 0001:0005a9e8       ?OnSetText@CStatusBar@@IAEJIJ@Z 5f45b9e8 f barstat.obj
 0001:0005aa87       ?OnGetText@CStatusBar@@IAEJIJ@Z 5f45ba87 f barstat.obj
 0001:0005ab78       ?OnGetTextLength@CStatusBar@@IAEJIJ@Z 5f45bb78 f barstat.obj
 0001:0005ac0e       ?OnSetMinHeight@CStatusBar@@IAEJIJ@Z 5f45bc0e f barstat.obj
 0001:0005ac47       ?Enable@CStatusCmdUI@@UAEXH@Z 5f45bc47 f barstat.obj
 0001:0005ad26       ?SetCheck@CStatusCmdUI@@UAEXH@Z 5f45bd26 f barstat.obj
 0001:0005adfb       ?SetText@CStatusCmdUI@@UAEXPBG@Z 5f45bdfb f barstat.obj
 0001:0005aeaa       ?OnUpdateCmdUI@CStatusBar@@UAEXPAVCFrameWnd@@H@Z 5f45beaa f barstat.obj
 0001:0005af49       ?AssertValid@CStatusBar@@UBEXXZ 5f45bf49 f barstat.obj
 0001:0005af67       ?Dump@CStatusBar@@UBEXAAVCDumpContext@@@Z 5f45bf67 f barstat.obj
 0001:0005b090       ??0CStatusCmdUI@@QAE@XZ    5f45c090 f barstat.obj
 0001:0005b0c0       ?_GetBaseMessageMap@CDockBar@@KGPBUAFX_MSGMAP@@XZ 5f45c0c0 f bardock.obj
 0001:0005b0d5       ?GetMessageMap@CDockBar@@MBEPBUAFX_MSGMAP@@XZ 5f45c0d5 f bardock.obj
 0001:0005b0f0       ??0CDockBar@@QAE@H@Z       5f45c0f0 f bardock.obj
 0001:0005b1fc       ??1CDockBar@@UAE@XZ        5f45c1fc f bardock.obj
 0001:0005b2dd       ?Create@CDockBar@@QAEHPAVCWnd@@KI@Z 5f45c2dd f bardock.obj
 0001:0005b3c4       ?IsDockBar@CDockBar@@UBEHXZ 5f45c3c4 f bardock.obj
 0001:0005b3df       ?GetDockedCount@CDockBar@@QBEHXZ 5f45c3df f bardock.obj
 0001:0005b441       ?GetDockedVisibleCount@CDockBar@@UBEHXZ 5f45c441 f bardock.obj
 0001:0005b4cc       ?DockControlBar@CDockBar@@QAEXPAVCControlBar@@PBUtagRECT@@@Z 5f45c4cc f bardock.obj
 0001:0005b8ed       ?ReDockControlBar@CDockBar@@QAEXPAVCControlBar@@PBUtagRECT@@@Z 5f45c8ed f bardock.obj
 0001:0005bc99       ?RemovePlaceHolder@CDockBar@@QAEXPAVCControlBar@@@Z 5f45cc99 f bardock.obj
 0001:0005bd38       ?RemoveControlBar@CDockBar@@QAEHPAVCControlBar@@HH@Z 5f45cd38 f bardock.obj
 0001:0005bf72       ?CalcFixedLayout@CDockBar@@UAE?AVCSize@@HH@Z 5f45cf72 f bardock.obj
 0001:0005c742       ?OnSizeParent@CDockBar@@IAEJIJ@Z 5f45d742 f bardock.obj
 0001:0005c811       ?OnNcCalcSize@CDockBar@@IAEXHPAUtagNCCALCSIZE_PARAMS@@@Z 5f45d811 f bardock.obj
 0001:0005c874       ?OnNcPaint@CDockBar@@IAEXXZ 5f45d874 f bardock.obj
 0001:0005c892       ?DoPaint@CDockBar@@UAEXPAVCDC@@@Z 5f45d892 f bardock.obj
 0001:0005c8aa       ?OnPaint@CDockBar@@IAEXXZ  5f45d8aa f bardock.obj
 0001:0005c94e       ?OnWindowPosChanging@CDockBar@@IAEXPAUtagWINDOWPOS@@@Z 5f45d94e f bardock.obj
 0001:0005c98e       ?FindBar@CDockBar@@QAEHPAVCControlBar@@H@Z 5f45d98e f bardock.obj
 0001:0005ca07       ?ShowAll@CDockBar@@QAEXH@Z 5f45da07 f bardock.obj
 0001:0005ca80       ?GetDockedControlBar@CDockBar@@IBEPAVCControlBar@@H@Z 5f45da80 f bardock.obj
 0001:0005cacd       ?Insert@CDockBar@@IAEHPAVCControlBar@@VCRect@@VCPoint@@@Z 5f45dacd f bardock.obj
 0001:0005cd60       ?OnUpdateCmdUI@CDockBar@@MAEXPAVCFrameWnd@@H@Z 5f45dd60 f bardock.obj
 0001:0005cd78       ?AssertValid@CDockBar@@UBEXXZ 5f45dd78 f bardock.obj
 0001:0005ce31       ?Dump@CDockBar@@UBEXAAVCDumpContext@@@Z 5f45de31 f bardock.obj
 0001:0005ce9a       ?EnableDocking@CControlBar@@QAEXK@Z 5f45de9a f bardock.obj
 0001:0005cf81       ?_GetBaseMessageMap@CMiniDockFrameWnd@@KGPBUAFX_MSGMAP@@XZ 5f45df81 f bardock.obj
 0001:0005cf96       ?GetMessageMap@CMiniDockFrameWnd@@MBEPBUAFX_MSGMAP@@XZ 5f45df96 f bardock.obj
 0001:0005cfb1       ?OnMouseActivate@CMiniDockFrameWnd@@QAEHPAVCWnd@@II@Z 5f45dfb1 f bardock.obj
 0001:0005cffb       ??0CMiniDockFrameWnd@@QAE@XZ 5f45dffb f bardock.obj
 0001:0005d09a       ?Create@CMiniDockFrameWnd@@UAEHPAVCWnd@@K@Z 5f45e09a f bardock.obj
 0001:0005d260       ?RecalcLayout@CMiniDockFrameWnd@@UAEXH@Z 5f45e260 f bardock.obj
 0001:0005d2d3       ?OnClose@CMiniDockFrameWnd@@QAEXXZ 5f45e2d3 f bardock.obj
 0001:0005d2f9       ?OnNcLButtonDown@CMiniDockFrameWnd@@QAEXIVCPoint@@@Z 5f45e2f9 f bardock.obj
 0001:0005d55b       ?OnNcLButtonDblClk@CMiniDockFrameWnd@@QAEXIVCPoint@@@Z 5f45e55b f bardock.obj
 0001:0005d690       ??_ECDockBar@@UAEPAXI@Z    5f45e690 f bardock.obj
 0001:0005d690       ??_GCDockBar@@UAEPAXI@Z    5f45e690 f bardock.obj
 0001:0005d6d0       ??_ECMiniDockFrameWnd@@UAEPAXI@Z 5f45e6d0 f bardock.obj
 0001:0005d6d0       ??_GCMiniDockFrameWnd@@UAEPAXI@Z 5f45e6d0 f bardock.obj
 0001:0005d710       ??1CMiniDockFrameWnd@@UAE@XZ 5f45e710 f bardock.obj
 0001:0005d790       ??0CDockContext@@QAE@PAVCControlBar@@@Z 5f45e790 f dockcont.obj
 0001:0005d945       ??1CDockContext@@QAE@XZ    5f45e945 f dockcont.obj
 0001:0005d9af       ?StartDrag@CDockContext@@UAEXVCPoint@@@Z 5f45e9af f dockcont.obj
 0001:0005e18a       ?Move@CDockContext@@QAEXVCPoint@@@Z 5f45f18a f dockcont.obj
 0001:0005e25e       ?OnKey@CDockContext@@QAEXHH@Z 5f45f25e f dockcont.obj
 0001:0005e2b2       ?EndDrag@CDockContext@@QAEXXZ 5f45f2b2 f dockcont.obj
 0001:0005e4f8       ?StartResize@CDockContext@@UAEXHVCPoint@@@Z 5f45f4f8 f dockcont.obj
 0001:0005e727       ?Stretch@CDockContext@@QAEXVCPoint@@@Z 5f45f727 f dockcont.obj
 0001:0005e928       ?EndResize@CDockContext@@QAEXXZ 5f45f928 f dockcont.obj
 0001:0005e99f       ?ToggleDocking@CDockContext@@UAEXXZ 5f45f99f f dockcont.obj
 0001:0005eb31       ?InitLoop@CDockContext@@QAEXXZ 5f45fb31 f dockcont.obj
 0001:0005ecb5       ?CancelLoop@CDockContext@@QAEXXZ 5f45fcb5 f dockcont.obj
 0001:0005ed1a       ?DrawFocusRect@CDockContext@@QAEXH@Z 5f45fd1a f dockcont.obj
 0001:0005ef77       ?UpdateState@CDockContext@@QAEXPAHH@Z 5f45ff77 f dockcont.obj
 0001:0005f01c       ?CanDock@CDockContext@@QAEKXZ 5f46001c f dockcont.obj
 0001:0005f25f       ?GetDockBar@CDockContext@@QAEPAVCDockBar@@K@Z 5f46025f f dockcont.obj
 0001:0005f38c       ?Track@CDockContext@@QAEHXZ 5f46038c f dockcont.obj
 0001:0005f5a0       ??0CControlBarInfo@@QAE@XZ 5f4605a0 f dockstat.obj
 0001:0005f6db       ?Serialize@CControlBarInfo@@QAEXAAVCArchive@@PAVCDockState@@@Z 5f4606db f dockstat.obj
 0001:0005f9b4       ?LoadState@CControlBarInfo@@QAEHPBGHPAVCDockState@@@Z 5f4609b4 f dockstat.obj
 0001:0005fd44       ?SaveState@CControlBarInfo@@QAEHPBGH@Z 5f460d44 f dockstat.obj
 0001:00060143       ??0CDockState@@QAE@XZ      5f461143 f dockstat.obj
 0001:0006027c       ??1CDockState@@UAE@XZ      5f46127c f dockstat.obj
 0001:00060358       ?Serialize@CDockState@@UAEXAAVCArchive@@@Z 5f461358 f dockstat.obj
 0001:0006054e       ?LoadState@CDockState@@QAEXPBG@Z 5f46154e f dockstat.obj
 0001:00060691       ?SaveState@CDockState@@QAEXPBG@Z 5f461691 f dockstat.obj
 0001:000607ce       ?Clear@CDockState@@QAEXXZ  5f4617ce f dockstat.obj
 0001:0006084a       ?GetVersion@CDockState@@QAEKXZ 5f46184a f dockstat.obj
 0001:00060866       ?ScalePoint@CDockState@@QAEXAAVCPoint@@@Z 5f461866 f dockstat.obj
 0001:0006090e       ?ScaleRectPos@CDockState@@QAEXAAVCRect@@@Z 5f46190e f dockstat.obj
 0001:00060a19       ?GetScreenSize@CDockState@@QAE?AVCSize@@XZ 5f461a19 f dockstat.obj
 0001:00060a43       ?SetScreenSize@CDockState@@QAEXAAVCSize@@@Z 5f461a43 f dockstat.obj
 0001:00060a92       ?LoadBarState@CFrameWnd@@QAEXPBG@Z 5f461a92 f dockstat.obj
 0001:00060b0e       ?SaveBarState@CFrameWnd@@QBEXPBG@Z 5f461b0e f dockstat.obj
 0001:00060b8a       ?SetDockState@CFrameWnd@@QAEXABVCDockState@@@Z 5f461b8a f dockstat.obj
 0001:00060eda       ?GetDockState@CFrameWnd@@QBEXAAVCDockState@@@Z 5f461eda f dockstat.obj
 0001:00060f9e       ?GetBarInfo@CControlBar@@QAEXPAVCControlBarInfo@@@Z 5f461f9e f dockstat.obj
 0001:00061106       ?SetBarInfo@CControlBar@@QAEXPAVCControlBarInfo@@PAVCFrameWnd@@@Z 5f462106 f dockstat.obj
 0001:0006124c       ?GetBarInfo@CDockBar@@QAEXPAVCControlBarInfo@@@Z 5f46224c f dockstat.obj
 0001:000613b1       ?SetBarInfo@CDockBar@@QAEXPAVCControlBarInfo@@PAVCFrameWnd@@@Z 5f4623b1 f dockstat.obj
 0001:00061760       ??_GCDockState@@UAEPAXI@Z  5f462760 f dockstat.obj
 0001:000617a0       ??_GCControlBarInfo@@QAEPAXI@Z 5f4627a0 f dockstat.obj
 0001:000617e0       ??1CControlBarInfo@@QAE@XZ 5f4627e0 f dockstat.obj
 0001:00061850       ?PrepareEditCtrl@CDataExchange@@QAEPAUHWND__@@H@Z 5f462850 f dlgdata.obj
 0001:000618a3       ?PrepareCtrl@CDataExchange@@QAEPAUHWND__@@H@Z 5f4628a3 f dlgdata.obj
 0001:00061976       ?Fail@CDataExchange@@QAEXXZ 5f462976 f dlgdata.obj
 0001:00061a08       ?DDX_Text@@YGXPAVCDataExchange@@HAAE@Z 5f462a08 f dlgdata.obj
 0001:00061dd1       ?DDX_Text@@YGXPAVCDataExchange@@HAAF@Z 5f462dd1 f dlgdata.obj
 0001:00061e33       ?DDX_Text@@YGXPAVCDataExchange@@HAAH@Z 5f462e33 f dlgdata.obj
 0001:00061e94       ?DDX_Text@@YGXPAVCDataExchange@@HAAI@Z 5f462e94 f dlgdata.obj
 0001:00061ef5       ?DDX_Text@@YGXPAVCDataExchange@@HAAJ@Z 5f462ef5 f dlgdata.obj
 0001:00061f56       ?DDX_Text@@YGXPAVCDataExchange@@HAAK@Z 5f462f56 f dlgdata.obj
 0001:00061fb7       ?DDX_Text@@YGXPAVCDataExchange@@HAAVCString@@@Z 5f462fb7 f dlgdata.obj
 0001:00062031       ?DDX_Check@@YGXPAVCDataExchange@@HAAH@Z 5f463031 f dlgdata.obj
 0001:000620f9       ?DDX_Radio@@YGXPAVCDataExchange@@HAAH@Z 5f4630f9 f dlgdata.obj
 0001:00062279       ?DDX_LBString@@YGXPAVCDataExchange@@HAAVCString@@@Z 5f463279 f dlgdata.obj
 0001:00062352       ?DDX_LBStringExact@@YGXPAVCDataExchange@@HAAVCString@@@Z 5f463352 f dlgdata.obj
 0001:000623eb       ?DDX_CBString@@YGXPAVCDataExchange@@HAAVCString@@@Z 5f4633eb f dlgdata.obj
 0001:000624b4       ?DDX_CBStringExact@@YGXPAVCDataExchange@@HAAVCString@@@Z 5f4634b4 f dlgdata.obj
 0001:0006254d       ?DDX_LBIndex@@YGXPAVCDataExchange@@HAAH@Z 5f46354d f dlgdata.obj
 0001:000625b1       ?DDX_CBIndex@@YGXPAVCDataExchange@@HAAH@Z 5f4635b1 f dlgdata.obj
 0001:00062615       ?DDX_Scroll@@YGXPAVCDataExchange@@HAAH@Z 5f463615 f dlgdata.obj
 0001:0006266f       ?DDV_MinMaxByte@@YGXPAVCDataExchange@@EEE@Z 5f46366f f dlgdata.obj
 0001:0006280f       ?DDV_MinMaxShort@@YGXPAVCDataExchange@@FFF@Z 5f46380f f dlgdata.obj
 0001:00062886       ?DDV_MinMaxInt@@YGXPAVCDataExchange@@HHH@Z 5f463886 f dlgdata.obj
 0001:000628ef       ?DDV_MinMaxLong@@YGXPAVCDataExchange@@JJJ@Z 5f4638ef f dlgdata.obj
 0001:00062958       ?DDV_MinMaxUInt@@YGXPAVCDataExchange@@III@Z 5f463958 f dlgdata.obj
 0001:000629c1       ?DDV_MinMaxDWord@@YGXPAVCDataExchange@@KKK@Z 5f4639c1 f dlgdata.obj
 0001:00062a2a       ?DDV_MaxChars@@YGXPAVCDataExchange@@ABVCString@@H@Z 5f463a2a f dlgdata.obj
 0001:00062b4e       ?DDX_Control@@YGXPAVCDataExchange@@HAAVCWnd@@@Z 5f463b4e f dlgdata.obj
 0001:00062c04       ?AfxFailMaxChars@@YGXPAVCDataExchange@@H@Z 5f463c04 f dlgdata.obj
 0001:00062cb2       ?AfxFailRadio@@YGXPAVCDataExchange@@@Z 5f463cb2 f dlgdata.obj
 0001:00062d50       ?AfxTextFloatFormat@@YGXPAVCDataExchange@@HPAXNH@Z 5f463d50 f dlgfloat.obj
 0001:00062f23       ?DDX_Text@@YGXPAVCDataExchange@@HAAM@Z 5f463f23 f dlgfloat.obj
 0001:00062f53       ?DDX_Text@@YGXPAVCDataExchange@@HAAN@Z 5f463f53 f dlgfloat.obj
 0001:00062f82       ?DDV_MinMaxFloat@@YGXPAVCDataExchange@@ABMMM@Z 5f463f82 f dlgfloat.obj
 0001:00063113       ?DDV_MinMaxDouble@@YGXPAVCDataExchange@@ABNNN@Z 5f464113 f dlgfloat.obj
 0001:000631a0       ?_GetBaseMessageMap@CNewTypeDlg@@KGPBUAFX_MSGMAP@@XZ 5f4641a0 f docmgr.obj
 0001:000631b5       ?GetMessageMap@CNewTypeDlg@@MBEPBUAFX_MSGMAP@@XZ 5f4641b5 f docmgr.obj
 0001:000631d0       ?OnInitDialog@CNewTypeDlg@@MAEHXZ 5f4641d0 f docmgr.obj
 0001:000633fb       ?OnOK@CNewTypeDlg@@MAEXXZ  5f4643fb f docmgr.obj
 0001:000634c4       ?AddDocTemplate@CDocManager@@UAEXPAVCDocTemplate@@@Z 5f4644c4 f docmgr.obj
 0001:000635d4       ?GetFirstDocTemplatePosition@CDocManager@@UBEPAU__POSITION@@XZ 5f4645d4 f docmgr.obj
 0001:000635f5       ?GetNextDocTemplate@CDocManager@@UBEPAVCDocTemplate@@AAPAU__POSITION@@@Z 5f4645f5 f docmgr.obj
 0001:0006361c       ?SaveAllModified@CDocManager@@UAEHXZ 5f46461c f docmgr.obj
 0001:000636b2       ?CloseAllDocuments@CDocManager@@UAEXH@Z 5f4646b2 f docmgr.obj
 0001:0006373a       ?DoPromptFileName@CDocManager@@UAEHAAVCString@@IKHPAVCDocTemplate@@@Z 5f46473a f docmgr.obj
 0001:00063c0e       ?OnDDECommand@CDocManager@@UAEHPAG@Z 5f464c0e f docmgr.obj
 0001:0006458d       ?OnFileNew@CDocManager@@UAEXXZ 5f46558d f docmgr.obj
 0001:000646e4       ?OnFileOpen@CDocManager@@UAEXXZ 5f4656e4 f docmgr.obj
 0001:000647a1       ?AssertValid@CDocManager@@UBEXXZ 5f4657a1 f docmgr.obj
 0001:00064801       ?Dump@CDocManager@@UBEXAAVCDumpContext@@@Z 5f465801 f docmgr.obj
 0001:000648b0       ??_ECNewTypeDlg@@UAEPAXI@Z 5f4658b0 f docmgr.obj
 0001:000648b0       ??_GCNewTypeDlg@@UAEPAXI@Z 5f4658b0 f docmgr.obj
 0001:000648f0       ?_GetBaseMessageMap@CSplitterWnd@@KGPBUAFX_MSGMAP@@XZ 5f4658f0 f winsplit.obj
 0001:00064905       ?GetMessageMap@CSplitterWnd@@MBEPBUAFX_MSGMAP@@XZ 5f465905 f winsplit.obj
 0001:00064920       ??0CSplitterWnd@@QAE@XZ    5f465920 f winsplit.obj
 0001:00064aec       ??1CSplitterWnd@@UAE@XZ    5f465aec f winsplit.obj
 0001:00064b8d       ?Create@CSplitterWnd@@QAEHPAVCWnd@@HHUtagSIZE@@PAUCCreateContext@@KI@Z 5f465b8d f winsplit.obj
 0001:00064e2d       ?CreateStatic@CSplitterWnd@@QAEHPAVCWnd@@HHKI@Z 5f465e2d f winsplit.obj
 0001:00064fc6       ?CreateCommon@CSplitterWnd@@IAEHPAVCWnd@@UtagSIZE@@KI@Z 5f465fc6 f winsplit.obj
 0001:00065324       ?OnNcCreate@CSplitterWnd@@IAEHPAUtagCREATESTRUCTW@@@Z 5f466324 f winsplit.obj
 0001:0006538b       ?CreateView@CSplitterWnd@@UAEHHHPAUCRuntimeClass@@UtagSIZE@@PAUCCreateContext@@@Z 5f46638b f winsplit.obj
 0001:000657ab       ?CreateScrollBarCtrl@CSplitterWnd@@UAEHKI@Z 5f4667ab f winsplit.obj
 0001:00065842       ?IdFromRowCol@CSplitterWnd@@QBEHHH@Z 5f466842 f winsplit.obj
 0001:0006590f       ?GetPane@CSplitterWnd@@QBEPAVCWnd@@HH@Z 5f46690f f winsplit.obj
 0001:0006597b       ?IsChildPane@CSplitterWnd@@QAEHPAVCWnd@@PAH1@Z 5f46697b f winsplit.obj
 0001:00065acb       ?GetRowInfo@CSplitterWnd@@QBEXHAAH0@Z 5f466acb f winsplit.obj
 0001:00065b56       ?SetRowInfo@CSplitterWnd@@QAEXHHH@Z 5f466b56 f winsplit.obj
 0001:00065c21       ?GetColumnInfo@CSplitterWnd@@QBEXHAAH0@Z 5f466c21 f winsplit.obj
 0001:00065ca6       ?SetColumnInfo@CSplitterWnd@@QAEXHHH@Z 5f466ca6 f winsplit.obj
 0001:00065d6b       ?GetScrollStyle@CSplitterWnd@@QBEKXZ 5f466d6b f winsplit.obj
 0001:00065db3       ?SetScrollStyle@CSplitterWnd@@QAEXK@Z 5f466db3 f winsplit.obj
 0001:00065ff7       ?DeleteView@CSplitterWnd@@UAEXHH@Z 5f466ff7 f winsplit.obj
 0001:00066098       ?OnDrawSplitter@CSplitterWnd@@MAEXPAVCDC@@W4ESplitType@1@ABVCRect@@@Z 5f467098 f winsplit.obj
 0001:000662a5       ?SplitRow@CSplitterWnd@@UAEHH@Z 5f4672a5 f winsplit.obj
 0001:00066648       ?SplitColumn@CSplitterWnd@@UAEHH@Z 5f467648 f winsplit.obj
 0001:000668cf       ?DeleteRow@CSplitterWnd@@UAEXH@Z 5f4678cf f winsplit.obj
 0001:00066b16       ?DeleteColumn@CSplitterWnd@@UAEXH@Z 5f467b16 f winsplit.obj
 0001:00066d5d       ?GetInsideRect@CSplitterWnd@@MBEXAAVCRect@@@Z 5f467d5d f winsplit.obj
 0001:00066e24       ?StartTracking@CSplitterWnd@@MAEXH@Z 5f467e24 f winsplit.obj
 0001:000670eb       ?TrackRowSize@CSplitterWnd@@MAEXHH@Z 5f4680eb f winsplit.obj
 0001:00067245       ?TrackColumnSize@CSplitterWnd@@MAEXHH@Z 5f468245 f winsplit.obj
 0001:0006738d       ?StopTracking@CSplitterWnd@@MAEXH@Z 5f46838d f winsplit.obj
 0001:000676ab       ?GetHitRect@CSplitterWnd@@MAEXHAAVCRect@@@Z 5f4686ab f winsplit.obj
 0001:00067a0a       ?HitTest@CSplitterWnd@@MBEHVCPoint@@@Z 5f468a0a f winsplit.obj
 0001:00067cb6       ?OnInvertTracker@CSplitterWnd@@MAEXABVCRect@@@Z 5f468cb6 f winsplit.obj
 0001:00067dc2       ?DoKeyboardSplit@CSplitterWnd@@UAEHXZ 5f468dc2 f winsplit.obj
 0001:00067f82       ?OnDisplayChange@CSplitterWnd@@IAEXXZ 5f468f82 f winsplit.obj
 0001:00067fc6       ?OnSize@CSplitterWnd@@IAEXIHH@Z 5f468fc6 f winsplit.obj
 0001:0006801e       ?GetSizingParent@CSplitterWnd@@IAEPAVCWnd@@XZ 5f46901e f winsplit.obj
 0001:0006812e       ?RecalcLayout@CSplitterWnd@@UAEXXZ 5f46912e f winsplit.obj
 0001:00068baf       ?DrawAllSplitBars@CSplitterWnd@@MAEXPAVCDC@@HH@Z 5f469baf f winsplit.obj
 0001:00068e6b       ?OnPaint@CSplitterWnd@@IAEXXZ 5f469e6b f winsplit.obj
 0001:000691b6       ?OnSetCursor@CSplitterWnd@@IAEHPAVCWnd@@II@Z 5f46a1b6 f winsplit.obj
 0001:00069212       ?SetSplitCursor@CSplitterWnd@@MAEXH@Z 5f46a212 f winsplit.obj
 0001:0006943a       ?OnMouseMove@CSplitterWnd@@IAEXIVCPoint@@@Z 5f46a43a f winsplit.obj
 0001:00069763       ?OnLButtonDown@CSplitterWnd@@IAEXIVCPoint@@@Z 5f46a763 f winsplit.obj
 0001:000697b5       ?OnLButtonDblClk@CSplitterWnd@@IAEXIVCPoint@@@Z 5f46a7b5 f winsplit.obj
 0001:000699d6       ?OnLButtonUp@CSplitterWnd@@IAEXIVCPoint@@@Z 5f46a9d6 f winsplit.obj
 0001:000699fe       ?OnCancelMode@CSplitterWnd@@IAEXXZ 5f46a9fe f winsplit.obj
 0001:00069a24       ?OnKeyDown@CSplitterWnd@@IAEXIII@Z 5f46aa24 f winsplit.obj
 0001:00069c81       ?OnSysCommand@CSplitterWnd@@IAEXIJ@Z 5f46ac81 f winsplit.obj
 0001:00069ceb       ?OnCommand@CSplitterWnd@@MAEHIJ@Z 5f46aceb f winsplit.obj
 0001:00069d41       ?OnNotify@CSplitterWnd@@MAEHIJPAJ@Z 5f46ad41 f winsplit.obj
 0001:00069da2       ?OnHScroll@CSplitterWnd@@IAEXIIPAVCScrollBar@@@Z 5f46ada2 f winsplit.obj
 0001:00069f08       ?OnVScroll@CSplitterWnd@@IAEXIIPAVCScrollBar@@@Z 5f46af08 f winsplit.obj
 0001:0006a06e       ?DoScroll@CSplitterWnd@@UAEHPAVCView@@IH@Z 5f46b06e f winsplit.obj
 0001:0006a355       ?DoScrollBy@CSplitterWnd@@UAEHPAVCView@@VCSize@@H@Z 5f46b355 f winsplit.obj
 0001:0006a635       ?CanActivateNext@CSplitterWnd@@UAEHH@Z 5f46b635 f winsplit.obj
 0001:0006a703       ?ActivateNext@CSplitterWnd@@UAEXH@Z 5f46b703 f winsplit.obj
 0001:0006a844       ?SetActivePane@CSplitterWnd@@UAEXHHPAVCWnd@@@Z 5f46b844 f winsplit.obj
 0001:0006a8e4       ?GetActivePane@CSplitterWnd@@UAEPAVCWnd@@PAH0@Z 5f46b8e4 f winsplit.obj
 0001:0006a981       ?AssertValid@CSplitterWnd@@UBEXXZ 5f46b981 f winsplit.obj
 0001:0006aab9       ?Dump@CSplitterWnd@@UBEXAAVCDumpContext@@@Z 5f46bab9 f winsplit.obj
 0001:0006aca0       ??_GCSplitterWnd@@UAEPAXI@Z 5f46bca0 f winsplit.obj
 0001:0006ace0       ?HideApplication@CWinApp@@QAEXXZ 5f46bce0 f appui.obj
 0001:0006ad3d       ?DoWaitCursor@CWinApp@@UAEXH@Z 5f46bd3d f appui.obj
 0001:0006ae2b       ?EnableModeless@CWinApp@@QAEXH@Z 5f46be2b f appui.obj
 0001:0006aec2       ?DoMessageBox@CWinApp@@UAEHPBGII@Z 5f46bec2 f appui.obj
 0001:0006b072       ?AfxMessageBox@@YGHPBGII@Z 5f46c072 f appui.obj
 0001:0006b0a9       ?AfxMessageBox@@YGHIII@Z   5f46c0a9 f appui.obj
 0001:0006b18b       ?MessageBoxW@CWnd@@QAEHPBG0I@Z 5f46c18b f appui.obj
 0001:0006b1de       ?SaveAllModified@CWinApp@@UAEHXZ 5f46c1de f appui.obj
 0001:0006b225       ?AddToRecentFileList@CWinApp@@UAEXPBG@Z 5f46c225 f appui.obj
 0001:0006b2ea       ?OpenDocumentFile@CWinApp@@UAEPAVCDocument@@PBG@Z 5f46c2ea f appui.obj
 0001:0006b345       ?CloseAllDocuments@CWinApp@@QAEXH@Z 5f46c345 f appui.obj
 0001:0006b388       ?OnUpdateRecentFileMenu@CWinApp@@IAEXPAVCCmdUI@@@Z 5f46c388 f appui.obj
 0001:0006b3ef       ?OnDDECommand@CWinApp@@UAEHPAG@Z 5f46c3ef f appui.obj
 0001:0006b43e       ?OnOpenRecentFile@CWinApp@@IAEHI@Z 5f46c43e f appui.obj
 0001:0006b5b0       ?AddDocTemplate@CWinApp@@QAEXPAVCDocTemplate@@@Z 5f46c5b0 f appui2.obj
 0001:0006b66a       ?GetFirstDocTemplatePosition@CWinApp@@QBEPAU__POSITION@@XZ 5f46c66a f appui2.obj
 0001:0006b6ae       ?GetNextDocTemplate@CWinApp@@QBEPAVCDocTemplate@@AAPAU__POSITION@@@Z 5f46c6ae f appui2.obj
 0001:0006b710       ?WriteProfileInt@CWinApp@@QAEHPBG0H@Z 5f46c710 f appui3.obj
 0001:0006b83b       ?WriteProfileStringW@CWinApp@@QAEHPBG00@Z 5f46c83b f appui3.obj
 0001:0006ba01       ?WriteProfileBinary@CWinApp@@QAEHPBG0PAEI@Z 5f46ca01 f appui3.obj
 0001:0006bb90       ?OnFileNew@CWinApp@@IAEXXZ 5f46cb90 f appdlg.obj
 0001:0006bbcd       ?OnFileOpen@CWinApp@@IAEXXZ 5f46cbcd f appdlg.obj
 0001:0006bc1f       ?DoPromptFileName@CWinApp@@QAEHAAVCString@@IKHPAVCDocTemplate@@@Z 5f46cc1f f appdlg.obj
 0001:0006bc90       ?AfxFormatStrings@@YGXAAVCString@@IPBQBGH@Z 5f46cc90 f apphelp.obj
 0001:0006bd08       ?AfxFormatStrings@@YGXAAVCString@@PBGPBQBGH@Z 5f46cd08 f apphelp.obj
 0001:0006bef4       ?AfxFormatString1@@YGXAAVCString@@IPBG@Z 5f46cef4 f apphelp.obj
 0001:0006bf19       ?AfxFormatString2@@YGXAAVCString@@IPBG1@Z 5f46cf19 f apphelp.obj
 0001:0006bf50       ?OnHelp@CWinApp@@IAEXXZ    5f46cf50 f apphelpx.obj
 0001:0006bfeb       ?OnHelpIndex@CWinApp@@IAEXXZ 5f46cfeb f apphelpx.obj
 0001:0006c013       ?OnHelpFinder@CWinApp@@IAEXXZ 5f46d013 f apphelpx.obj
 0001:0006c03b       ?OnHelpUsing@CWinApp@@IAEXXZ 5f46d03b f apphelpx.obj
 0001:0006c063       ?OnContextHelp@CWinApp@@IAEXXZ 5f46d063 f apphelpx.obj
 0001:0006c0f0       ??0CSharedFile@@QAE@II@Z   5f46d0f0 f fileshrd.obj
 0001:0006c182       ??1CSharedFile@@UAE@XZ     5f46d182 f fileshrd.obj
 0001:0006c221       ?SetHandle@CSharedFile@@QAEXPAXH@Z 5f46d221 f fileshrd.obj
 0001:0006c2e3       ?Alloc@CSharedFile@@MAEPAEK@Z 5f46d2e3 f fileshrd.obj
 0001:0006c355       ?Realloc@CSharedFile@@MAEPAEPAEK@Z 5f46d355 f fileshrd.obj
 0001:0006c3f2       ?Free@CSharedFile@@MAEXPAE@Z 5f46d3f2 f fileshrd.obj
 0001:0006c446       ?Detach@CSharedFile@@QAEPAXXZ 5f46d446 f fileshrd.obj
 0001:0006c4b0       ??_GCSharedFile@@UAEPAXI@Z 5f46d4b0 f fileshrd.obj
 0001:0006c52d       ?_GetBaseMessageMap@CFrameWnd@@KGPBUAFX_MSGMAP@@XZ 5f46d52d f winfrm.obj
 0001:0006c542       ?GetMessageMap@CFrameWnd@@MBEPBUAFX_MSGMAP@@XZ 5f46d542 f winfrm.obj
 0001:0006c55d       ??0CFrameWnd@@QAE@XZ       5f46d55d f winfrm.obj
 0001:0006c736       ??1CFrameWnd@@UAE@XZ       5f46d736 f winfrm.obj
 0001:0006c809       ?AddFrameWnd@CFrameWnd@@IAEXXZ 5f46d809 f winfrm.obj
 0001:0006c842       ?RemoveFrameWnd@CFrameWnd@@IAEXXZ 5f46d842 f winfrm.obj
 0001:0006c87b       ?LoadAccelTable@CFrameWnd@@QAEHPBG@Z 5f46d87b f winfrm.obj
 0001:0006c915       ?GetDefaultAccelerator@CFrameWnd@@UAEPAUHACCEL__@@XZ 5f46d915 f winfrm.obj
 0001:0006c973       ?PreTranslateMessage@CFrameWnd@@UAEHPAUtagMSG@@@Z 5f46d973 f winfrm.obj
 0001:0006ca73       ?PostNcDestroy@CFrameWnd@@MAEXXZ 5f46da73 f winfrm.obj
 0001:0006cab1       ?OnPaletteChanged@CFrameWnd@@IAEXPAVCWnd@@@Z 5f46dab1 f winfrm.obj
 0001:0006caf7       ?OnQueryNewPalette@CFrameWnd@@IAEHXZ 5f46daf7 f winfrm.obj
 0001:0006cb45       ?ExitHelpMode@CFrameWnd@@UAEXXZ 5f46db45 f winfrm.obj
 0001:0006cc25       ?OnSetCursor@CFrameWnd@@IAEHPAVCWnd@@II@Z 5f46dc25 f winfrm.obj
 0001:0006cc92       ?OnCommandHelp@CFrameWnd@@IAEJIJ@Z 5f46dc92 f winfrm.obj
 0001:0006cd23       ?OnHelpHitTest@CFrameWnd@@IAEJIJ@Z 5f46dd23 f winfrm.obj
 0001:0006cd65       ?OnCommand@CFrameWnd@@MAEHIJ@Z 5f46dd65 f winfrm.obj
 0001:0006ce38       ?AfxIsDescendant@@YGHPAUHWND__@@0@Z 5f46de38 f winfrm.obj
 0001:0006cecc       ?BeginModalState@CFrameWnd@@UAEXXZ 5f46decc f winfrm.obj
 0001:0006d12c       ?EndModalState@CFrameWnd@@UAEXXZ 5f46e12c f winfrm.obj
 0001:0006d25c       ?ShowOwnedWindows@CFrameWnd@@QAEXH@Z 5f46e25c f winfrm.obj
 0001:0006d359       ?OnEnable@CFrameWnd@@IAEXH@Z 5f46e359 f winfrm.obj
 0001:0006d49c       ?NotifyFloatingWindows@CFrameWnd@@QAEXK@Z 5f46e49c f winfrm.obj
 0001:0006d621       ?PreCreateWindow@CFrameWnd@@MAEHAAUtagCREATESTRUCTW@@@Z 5f46e621 f winfrm.obj
 0001:0006d6c8       ?Create@CFrameWnd@@QAEHPBG0KABUtagRECT@@PAVCWnd@@0KPAUCCreateContext@@@Z 5f46e6c8 f winfrm.obj
 0001:0006d7dc       ?CreateView@CFrameWnd@@QAEPAVCWnd@@PAUCCreateContext@@I@Z 5f46e7dc f winfrm.obj
 0001:0006d970       ?OnCreateClient@CFrameWnd@@MAEHPAUtagCREATESTRUCTW@@PAUCCreateContext@@@Z 5f46e970 f winfrm.obj
 0001:0006d9c3       ?OnCreate@CFrameWnd@@IAEHPAUtagCREATESTRUCTW@@@Z 5f46e9c3 f winfrm.obj
 0001:0006d9f3       ?OnCreateHelper@CFrameWnd@@IAEHPAUtagCREATESTRUCTW@@PAUCCreateContext@@@Z 5f46e9f3 f winfrm.obj
 0001:0006da8a       ?GetIconWndClass@CFrameWnd@@IAEPBGKI@Z 5f46ea8a f winfrm.obj
 0001:0006db77       ?LoadFrame@CFrameWnd@@UAEHIKPAVCWnd@@PAUCCreateContext@@@Z 5f46eb77 f winfrm.obj
 0001:0006ddb1       ?OnUpdateFrameMenu@CFrameWnd@@UAEXPAUHMENU__@@@Z 5f46edb1 f winfrm.obj
 0001:0006de23       ?InitialUpdateFrame@CFrameWnd@@QAEXPAVCDocument@@H@Z 5f46ee23 f winfrm.obj
 0001:0006df61       ?OnClose@CFrameWnd@@IAEXXZ 5f46ef61 f winfrm.obj
 0001:0006e124       ?OnDestroy@CFrameWnd@@IAEXXZ 5f46f124 f winfrm.obj
 0001:0006e1d9       ?RemoveControlBar@CFrameWnd@@QAEXPAVCControlBar@@@Z 5f46f1d9 f winfrm.obj
 0001:0006e21e       ?OnCmdMsg@CFrameWnd@@UAEHIHPAXPAUAFX_CMDHANDLERINFO@@@Z 5f46f21e f winfrm.obj
 0001:0006e2e3       ?OnHScroll@CFrameWnd@@IAEXIIPAVCScrollBar@@@Z 5f46f2e3 f winfrm.obj
 0001:0006e333       ?OnVScroll@CFrameWnd@@IAEXIIPAVCScrollBar@@@Z 5f46f333 f winfrm.obj
 0001:0006e383       ?OnActivateTopLevel@CFrameWnd@@IAEJIJ@Z 5f46f383 f winfrm.obj
 0001:0006e473       ?OnActivate@CFrameWnd@@IAEXIPAVCWnd@@H@Z 5f46f473 f winfrm.obj
 0001:0006e600       ?OnNcActivate@CFrameWnd@@IAEHH@Z 5f46f600 f winfrm.obj
 0001:0006e65c       ?OnSysCommand@CFrameWnd@@IAEXIJ@Z 5f46f65c f winfrm.obj
 0001:0006e884       ?OnDropFiles@CFrameWnd@@IAEXPAUHDROP__@@@Z 5f46f884 f winfrm.obj
 0001:0006e921       ?OnQueryEndSession@CFrameWnd@@IAEHXZ 5f46f921 f winfrm.obj
 0001:0006e966       ?OnEndSession@CFrameWnd@@IAEXH@Z 5f46f966 f winfrm.obj
 0001:0006e9ce       ?OnDDEInitiate@CFrameWnd@@IAEJIJ@Z 5f46f9ce f winfrm.obj
 0001:0006eb93       ?OnDDEExecute@CFrameWnd@@IAEJIJ@Z 5f46fb93 f winfrm.obj
 0001:0006ecd7       ?OnDDETerminate@CFrameWnd@@IAEJIJ@Z 5f46fcd7 f winfrm.obj
 0001:0006ed0b       ?GetActiveView@CFrameWnd@@QBEPAVCView@@XZ 5f46fd0b f winfrm.obj
 0001:0006ed6d       ?SetActiveView@CFrameWnd@@QAEXPAVCView@@H@Z 5f46fd6d f winfrm.obj
 0001:0006ee81       ?OnSetFocus@CFrameWnd@@IAEXPAVCWnd@@@Z 5f46fe81 f winfrm.obj
 0001:0006eec8       ?GetActiveDocument@CFrameWnd@@UAEPAVCDocument@@XZ 5f46fec8 f winfrm.obj
 0001:0006ef15       ?ShowControlBar@CFrameWnd@@QAEXPAVCControlBar@@HH@Z 5f46ff15 f winfrm.obj
 0001:0006f145       ?OnInitMenuPopup@CFrameWnd@@IAEXPAVCMenu@@IH@Z 5f470145 f winfrm.obj
 0001:0006f42e       ?OnMenuSelect@CFrameWnd@@IAEXIIPAUHMENU__@@@Z 5f47042e f winfrm.obj
 0001:0006f61f       ?GetMessageString@CFrameWnd@@UBEXIAAVCString@@@Z 5f47061f f winfrm.obj
 0001:0006f6a4       ?OnPopMessageString@CFrameWnd@@IAEJIJ@Z 5f4706a4 f winfrm.obj
 0001:0006f6e5       ?OnSetMessageString@CFrameWnd@@IAEJIJ@Z 5f4706e5 f winfrm.obj
 0001:0006f859       ?GetMessageBar@CFrameWnd@@UAEPAVCWnd@@XZ 5f470859 f winfrm.obj
 0001:0006f87e       ?OnEnterIdle@CFrameWnd@@IAEXIPAVCWnd@@@Z 5f47087e f winfrm.obj
 0001:0006f90f       ?SetMessageText@CFrameWnd@@QAEXPBG@Z 5f47090f f winfrm.obj
 0001:0006f93a       ?SetMessageText@CFrameWnd@@QAEXI@Z 5f47093a f winfrm.obj
 0001:0006f965       ?DestroyDockBars@CFrameWnd@@QAEXXZ 5f470965 f winfrm.obj
 0001:0006faaf       ?GetControlBar@CFrameWnd@@QAEPAVCControlBar@@I@Z 5f470aaf f winfrm.obj
 0001:0006fb7b       ?OnUpdateControlBarMenu@CFrameWnd@@QAEXPAVCCmdUI@@@Z 5f470b7b f winfrm.obj
 0001:0006fbe4       ?OnBarCheck@CFrameWnd@@QAEHI@Z 5f470be4 f winfrm.obj
 0001:0006fc50       ?OnToolTipText@CFrameWnd@@IAEHIPAUtagNMHDR@@PAJ@Z 5f470c50 f winfrm.obj
 0001:0006fe32       ?OnUpdateKeyIndicator@CFrameWnd@@IAEXPAVCCmdUI@@@Z 5f470e32 f winfrm.obj
 0001:0006ff3c       ?OnUpdateContextHelp@CFrameWnd@@IAEXPAVCCmdUI@@@Z 5f470f3c f winfrm.obj
 0001:0006ff85       ?OnUpdateFrameTitle@CFrameWnd@@UAEXH@Z 5f470f85 f winfrm.obj
 0001:0007002a       ?UpdateFrameTitleForDocument@CFrameWnd@@IAEXPBG@Z 5f47102a f winfrm.obj
 0001:00070192       ?OnSetPreviewMode@CFrameWnd@@UAEXHPAUCPrintPreviewState@@@Z 5f471192 f winfrm.obj
 0001:00070576       ?DelayUpdateFrameMenu@CFrameWnd@@UAEXPAUHMENU__@@@Z 5f471576 f winfrm.obj
 0001:000705a4       ?OnIdleUpdateCmdUI@CFrameWnd@@IAEXXZ 5f4715a4 f winfrm.obj
 0001:0007069c       ?GetActiveFrame@CFrameWnd@@UAEPAV1@XZ 5f47169c f winfrm.obj
 0001:000706b5       ?RecalcLayout@CFrameWnd@@UAEXH@Z 5f4716b5 f winfrm.obj
 0001:00070808       ?NegotiateBorderSpace@CFrameWnd@@UAEHIPAUtagRECT@@@Z 5f471808 f winfrm.obj
 0001:00070946       ?OnSize@CFrameWnd@@IAEXIHH@Z 5f471946 f winfrm.obj
 0001:0007098c       ?OnEraseBkgnd@CFrameWnd@@IAEHPAVCDC@@@Z 5f47198c f winfrm.obj
 0001:000709ca       ?ActivateFrame@CFrameWnd@@UAEXH@Z 5f4719ca f winfrm.obj
 0001:00070a4d       ?BringToTop@CFrameWnd@@IAEXH@Z 5f471a4d f winfrm.obj
 0001:00070ab1       ?AssertValid@CFrameWnd@@UBEXXZ 5f471ab1 f winfrm.obj
 0001:00070af8       ?Dump@CFrameWnd@@UBEXAAVCDumpContext@@@Z 5f471af8 f winfrm.obj
 0001:00070bf9       ?GetDockingFrame@CControlBar@@QBEPAVCFrameWnd@@XZ 5f471bf9 f winfrm.obj
 0001:00070c7f       ?IsFloating@CControlBar@@QBEHXZ 5f471c7f f winfrm.obj
 0001:00070cf0       ??_GCFrameWnd@@UAEPAXI@Z   5f471cf0 f winfrm.obj
 0001:00070d30       ?CreateFloatingFrame@CFrameWnd@@QAEPAVCMiniDockFrameWnd@@K@Z 5f471d30 f winfrm2.obj
 0001:00070de4       ?EnableDocking@CFrameWnd@@QAEXK@Z 5f471de4 f winfrm2.obj
 0001:00070eea       ?DockControlBar@CFrameWnd@@QAEXPAVCControlBar@@IPBUtagRECT@@@Z 5f471eea f winfrm2.obj
 0001:00070f3b       ?DockControlBar@CFrameWnd@@QAEXPAVCControlBar@@PAVCDockBar@@PBUtagRECT@@@Z 5f471f3b f winfrm2.obj
 0001:0007109f       ?ReDockControlBar@CFrameWnd@@QAEXPAVCControlBar@@PAVCDockBar@@PBUtagRECT@@@Z 5f47209f f winfrm2.obj
 0001:0007126f       ?FloatControlBar@CFrameWnd@@QAEXPAVCControlBar@@VCPoint@@K@Z 5f47226f f winfrm2.obj
 0001:00071513       ?CanDock@CFrameWnd@@QAEKVCRect@@KPAPAVCDockBar@@@Z 5f472513 f winfrm2.obj
 0001:00071650       ?_GetBaseMessageMap@CMDIFrameWnd@@KGPBUAFX_MSGMAP@@XZ 5f472650 f winmdi.obj
 0001:00071665       ?GetMessageMap@CMDIFrameWnd@@MBEPBUAFX_MSGMAP@@XZ 5f472665 f winmdi.obj
 0001:00071680       ??0CMDIFrameWnd@@QAE@XZ    5f472680 f winmdi.obj
 0001:000716fc       ?OnCommand@CMDIFrameWnd@@MAEHIJ@Z 5f4726fc f winmdi.obj
 0001:000717c8       ?OnCmdMsg@CMDIFrameWnd@@UAEHIHPAXPAUAFX_CMDHANDLERINFO@@@Z 5f4727c8 f winmdi.obj
 0001:00071866       ?OnCommandHelp@CMDIFrameWnd@@IAEJIJ@Z 5f472866 f winmdi.obj
 0001:00071949       ?OnCreateClient@CMDIFrameWnd@@UAEHPAUtagCREATESTRUCTW@@PAUCCreateContext@@@Z 5f472949 f winmdi.obj
 0001:00071a19       ?CreateClient@CMDIFrameWnd@@UAEHPAUtagCREATESTRUCTW@@PAVCMenu@@@Z 5f472a19 f winmdi.obj
 0001:00071b5f       ?DefWindowProcW@CMDIFrameWnd@@MAEJIIJ@Z 5f472b5f f winmdi.obj
 0001:00071b9a       ?PreTranslateMessage@CMDIFrameWnd@@UAEHPAUtagMSG@@@Z 5f472b9a f winmdi.obj
 0001:00071d19       ?DelayUpdateFrameMenu@CMDIFrameWnd@@UAEXPAUHMENU__@@@Z 5f472d19 f winmdi.obj
 0001:00071d4d       ?OnIdleUpdateCmdUI@CMDIFrameWnd@@IAEXXZ 5f472d4d f winmdi.obj
 0001:00071d8d       ?GetActiveFrame@CMDIFrameWnd@@UAEPAVCFrameWnd@@XZ 5f472d8d f winmdi.obj
 0001:00071dc5       ?PreCreateWindow@CMDIFrameWnd@@UAEHAAUtagCREATESTRUCTW@@@Z 5f472dc5 f winmdi.obj
 0001:00071e31       ?LoadFrame@CMDIFrameWnd@@UAEHIKPAVCWnd@@PAUCCreateContext@@@Z 5f472e31 f winmdi.obj
 0001:00071ecc       ?OnDestroy@CMDIFrameWnd@@IAEXXZ 5f472ecc f winmdi.obj
 0001:00071f5f       ?OnSize@CMDIFrameWnd@@IAEXIHH@Z 5f472f5f f winmdi.obj
 0001:00071f91       ?OnMenuChar@CMDIFrameWnd@@IAEJIIPAVCMenu@@@Z 5f472f91 f winmdi.obj
 0001:00071fd7       ?MDIGetActive@CMDIFrameWnd@@QBEPAVCMDIChildWnd@@PAH@Z 5f472fd7 f winmdi.obj
 0001:000720c4       ?AssertValid@CMDIFrameWnd@@UBEXXZ 5f4730c4 f winmdi.obj
 0001:0007215c       ?Dump@CMDIFrameWnd@@UBEXAAVCDumpContext@@@Z 5f47315c f winmdi.obj
 0001:000721c6       ?_GetBaseMessageMap@CMDIChildWnd@@KGPBUAFX_MSGMAP@@XZ 5f4731c6 f winmdi.obj
 0001:000721db       ?GetMessageMap@CMDIChildWnd@@MBEPBUAFX_MSGMAP@@XZ 5f4731db f winmdi.obj
 0001:000721f6       ??0CMDIChildWnd@@QAE@XZ    5f4731f6 f winmdi.obj
 0001:0007227f       ?DefWindowProcW@CMDIChildWnd@@MAEJIIJ@Z 5f47327f f winmdi.obj
 0001:000722b0       ?DestroyWindow@CMDIChildWnd@@UAEHXZ 5f4732b0 f winmdi.obj
 0001:0007239f       ?PreTranslateMessage@CMDIChildWnd@@UAEHPAUtagMSG@@@Z 5f47339f f winmdi.obj
 0001:00072470       ?PreCreateWindow@CMDIChildWnd@@UAEHAAUtagCREATESTRUCTW@@@Z 5f473470 f winmdi.obj
 0001:000724b9       ?Create@CMDIChildWnd@@UAEHPBG0KABUtagRECT@@PAVCMDIFrameWnd@@PAUCCreateContext@@@Z 5f4734b9 f winmdi.obj
 0001:00072791       ?LoadFrame@CMDIChildWnd@@UAEHIKPAVCWnd@@PAUCCreateContext@@@Z 5f473791 f winmdi.obj
 0001:00072a73       ?OnSize@CMDIChildWnd@@IAEXIHH@Z 5f473a73 f winmdi.obj
 0001:00072ac0       ?UpdateClientEdge@CMDIChildWnd@@IAEHPAUtagRECT@@@Z 5f473ac0 f winmdi.obj
 0001:00072bfa       ?OnWindowPosChanging@CMDIChildWnd@@IAEXPAUtagWINDOWPOS@@@Z 5f473bfa f winmdi.obj
 0001:00072cbd       ?OnDestroy@CMDIChildWnd@@IAEXXZ 5f473cbd f winmdi.obj
 0001:00072ce5       ?OnNcActivate@CMDIChildWnd@@IAEHH@Z 5f473ce5 f winmdi.obj
 0001:00072d09       ?OnMouseActivate@CMDIChildWnd@@IAEHPAVCWnd@@II@Z 5f473d09 f winmdi.obj
 0001:00072d96       ?ActivateFrame@CMDIChildWnd@@UAEXH@Z 5f473d96 f winmdi.obj
 0001:00072fee       ?AssertValid@CMDIChildWnd@@UBEXXZ 5f473fee f winmdi.obj
 0001:0007304c       ?Dump@CMDIChildWnd@@UBEXAAVCDumpContext@@@Z 5f47404c f winmdi.obj
 0001:0007309b       ?GetWindowMenuPopup@CMDIFrameWnd@@UAEPAUHMENU__@@PAU2@@Z 5f47409b f winmdi.obj
 0001:000731a2       ?OnUpdateFrameMenu@CMDIFrameWnd@@UAEXPAUHMENU__@@@Z 5f4741a2 f winmdi.obj
 0001:0007321c       ?GetMDIFrame@CMDIChildWnd@@QAEPAVCMDIFrameWnd@@XZ 5f47421c f winmdi.obj
 0001:00073358       ?GetMessageBar@CMDIChildWnd@@MAEPAVCWnd@@XZ 5f474358 f winmdi.obj
 0001:0007338d       ?OnUpdateFrameTitle@CMDIChildWnd@@MAEXH@Z 5f47438d f winmdi.obj
 0001:00073494       ?OnMDIActivate@CMDIChildWnd@@IAEXHPAVCWnd@@0@Z 5f474494 f winmdi.obj
 0001:000735e9       ?OnUpdateFrameMenu@CMDIChildWnd@@UAEXHPAVCWnd@@PAUHMENU__@@@Z 5f4745e9 f winmdi.obj
 0001:0007372e       ?OnNcCreate@CMDIChildWnd@@IAEHPAUtagCREATESTRUCTW@@@Z 5f47472e f winmdi.obj
 0001:000737ab       ?OnCreate@CMDIChildWnd@@IAEHPAUtagCREATESTRUCTW@@@Z 5f4747ab f winmdi.obj
 0001:000737e4       ?OnUpdateFrameTitle@CMDIFrameWnd@@UAEXH@Z 5f4747e4 f winmdi.obj
 0001:000738ce       ?OnUpdateMDIWindowCmd@CMDIFrameWnd@@IAEXPAVCCmdUI@@@Z 5f4748ce f winmdi.obj
 0001:00073929       ?OnMDIWindowCmd@CMDIFrameWnd@@IAEHI@Z 5f474929 f winmdi.obj
 0001:00073a02       ?OnWindowNew@CMDIFrameWnd@@IAEXXZ 5f474a02 f winmdi.obj
 0001:00073ae0       ??_GCMDIFrameWnd@@UAEPAXI@Z 5f474ae0 f winmdi.obj
 0001:00073ae0       ??_ECMDIFrameWnd@@UAEPAXI@Z 5f474ae0 f winmdi.obj
 0001:00073b20       ??1CMDIFrameWnd@@UAE@XZ    5f474b20 f winmdi.obj
 0001:00073b80       ??_ECMDIChildWnd@@UAEPAXI@Z 5f474b80 f winmdi.obj
 0001:00073b80       ??_GCMDIChildWnd@@UAEPAXI@Z 5f474b80 f winmdi.obj
 0001:00073bc0       ??1CMDIChildWnd@@UAE@XZ    5f474bc0 f winmdi.obj
 0001:00073c81       ?_GetBaseMessageMap@CMiniFrameWnd@@KGPBUAFX_MSGMAP@@XZ 5f474c81 f winmini.obj
 0001:00073c96       ?GetMessageMap@CMiniFrameWnd@@MBEPBUAFX_MSGMAP@@XZ 5f474c96 f winmini.obj
 0001:00073cb1       ??0CMiniFrameWnd@@QAE@XZ   5f474cb1 f winmini.obj
 0001:00073d53       ?Initialize@CMiniFrameWnd@@SAXXZ 5f474d53 f winmini.obj
 0001:00073f71       ??1CMiniFrameWnd@@UAE@XZ   5f474f71 f winmini.obj
 0001:00073ffd       ?Create@CMiniFrameWnd@@QAEHPBG0KABUtagRECT@@PAVCWnd@@I@Z 5f474ffd f winmini.obj
 0001:00074037       ?CreateEx@CMiniFrameWnd@@QAEHKPBG0KABUtagRECT@@PAVCWnd@@I@Z 5f475037 f winmini.obj
 0001:000740df       ?OnNcCreate@CMiniFrameWnd@@QAEHPAUtagCREATESTRUCTW@@@Z 5f4750df f winmini.obj
 0001:000741c2       ?PreCreateWindow@CMiniFrameWnd@@MAEHAAUtagCREATESTRUCTW@@@Z 5f4751c2 f winmini.obj
 0001:00074250       ?OnGetMinMaxInfo@CMiniFrameWnd@@QAEXPAUtagMINMAXINFO@@@Z 5f475250 f winmini.obj
 0001:000742c8       ?OnNcActivate@CMiniFrameWnd@@QAEHH@Z 5f4752c8 f winmini.obj
 0001:00074358       ?OnNcCalcSize@CMiniFrameWnd@@QAEXHPAUtagNCCALCSIZE_PARAMS@@@Z 5f475358 f winmini.obj
 0001:000743fc       ?OnNcHitTest@CMiniFrameWnd@@QAEIVCPoint@@@Z 5f4753fc f winmini.obj
 0001:000748e1       ?OnNcLButtonDown@CMiniFrameWnd@@QAEXIVCPoint@@@Z 5f4758e1 f winmini.obj
 0001:00074953       ?OnMouseMove@CMiniFrameWnd@@QAEXIVCPoint@@@Z 5f475953 f winmini.obj
 0001:00074a25       ?OnLButtonUp@CMiniFrameWnd@@QAEXIVCPoint@@@Z 5f475a25 f winmini.obj
 0001:00074aa8       ?InvertSysMenu@CMiniFrameWnd@@IAEXXZ 5f475aa8 f winmini.obj
 0001:00074b62       ?OnNcPaint@CMiniFrameWnd@@QAEXXZ 5f475b62 f winmini.obj
 0001:000752fb       ?OnSysCommand@CMiniFrameWnd@@QAEXIJ@Z 5f4762fb f winmini.obj
 0001:00075398       ?CalcWindowRect@CMiniFrameWnd@@UAEXPAUtagRECT@@I@Z 5f476398 f winmini.obj
 0001:00075441       ?CalcBorders@CMiniFrameWnd@@SGXPAUtagRECT@@KK@Z 5f476441 f winmini.obj
 0001:000754e3       ?OnGetText@CMiniFrameWnd@@QAEJIJ@Z 5f4764e3 f winmini.obj
 0001:0007555d       ?OnGetTextLength@CMiniFrameWnd@@QAEJIJ@Z 5f47655d f winmini.obj
 0001:0007559d       ?OnSetText@CMiniFrameWnd@@QAEJIJ@Z 5f47659d f winmini.obj
 0001:000756b0       ?OnFloatStatus@CMiniFrameWnd@@QAEJIJ@Z 5f4766b0 f winmini.obj
 0001:0007581b       ?OnQueryCenterWnd@CMiniFrameWnd@@QAEJIJ@Z 5f47681b f winmini.obj
 0001:00075870       ??_GCMiniFrameWnd@@UAEPAXI@Z 5f476870 f winmini.obj
 0001:00075870       ??_ECMiniFrameWnd@@UAEPAXI@Z 5f476870 f winmini.obj
 0001:00075911       ??0CRectTracker@@QAE@PBUtagRECT@@I@Z 5f476911 f trckrect.obj
 0001:000759ab       ?Construct@CRectTracker@@IAEXXZ 5f4769ab f trckrect.obj
 0001:00075c09       ??1CRectTracker@@UAE@XZ    5f476c09 f trckrect.obj
 0001:00075c28       ?Draw@CRectTracker@@QBEXPAVCDC@@@Z 5f476c28 f trckrect.obj
 0001:00075fbb       ?SetCursor@CRectTracker@@QBEHPAVCWnd@@I@Z 5f476fbb f trckrect.obj
 0001:000760a6       ?HitTest@CRectTracker@@QBEHVCPoint@@@Z 5f4770a6 f trckrect.obj
 0001:00076168       ?NormalizeHit@CRectTracker@@QBEHH@Z 5f477168 f trckrect.obj
 0001:0007621f       ?Track@CRectTracker@@QAEHPAVCWnd@@VCPoint@@H0@Z 5f47721f f trckrect.obj
 0001:00076280       ?TrackRubberBand@CRectTracker@@QAEHPAVCWnd@@VCPoint@@H@Z 5f477280 f trckrect.obj
 0001:000762d4       ?DrawTrackerRect@CRectTracker@@UAEXPBUtagRECT@@PAVCWnd@@PAVCDC@@1@Z 5f4772d4 f trckrect.obj
 0001:00076433       ?AdjustRect@CRectTracker@@UAEXHPAUtagRECT@@@Z 5f477433 f trckrect.obj
 0001:0007662a       ?GetTrueRect@CRectTracker@@QBEXPAUtagRECT@@@Z 5f47762a f trckrect.obj
 0001:000766f7       ?OnChangedRect@CRectTracker@@UAEXABVCRect@@@Z 5f4776f7 f trckrect.obj
 0001:0007670f       ?GetHandleRect@CRectTracker@@IBEXHPAVCRect@@@Z 5f47770f f trckrect.obj
 0001:00076880       ?GetHandleSize@CRectTracker@@MBEHPBUtagRECT@@@Z 5f477880 f trckrect.obj
 0001:00076945       ?HitTestHandles@CRectTracker@@IBEHVCPoint@@@Z 5f477945 f trckrect.obj
 0001:00076a7b       ?TrackHandle@CRectTracker@@IAEHHPAVCWnd@@VCPoint@@0@Z 5f477a7b f trckrect.obj
 0001:00076f58       ?GetModifyPointers@CRectTracker@@IAEXHPAPAH0PAH1@Z 5f477f58 f trckrect.obj
 0001:000770c0       ?GetHandleMask@CRectTracker@@UBEIXZ 5f4780c0 f trckrect.obj
 0001:00077140       ?Create@CStatic@@QAEHPBGKABUtagRECT@@PAVCWnd@@I@Z 5f478140 f winctrl1.obj
 0001:00077184       ??1CStatic@@UAE@XZ         5f478184 f winctrl1.obj
 0001:000771f4       ?Create@CButton@@QAEHPBGKABUtagRECT@@PAVCWnd@@I@Z 5f4781f4 f winctrl1.obj
 0001:00077238       ??1CButton@@UAE@XZ         5f478238 f winctrl1.obj
 0001:000772a8       ?GetCheckedRadioButton@CWnd@@QAEHHH@Z 5f4782a8 f winctrl1.obj
 0001:000772fd       ?DrawItem@CButton@@UAEXPAUtagDRAWITEMSTRUCT@@@Z 5f4782fd f winctrl1.obj
 0001:0007732a       ?OnChildNotify@CButton@@MAEHIIJPAJ@Z 5f47832a f winctrl1.obj
 0001:0007739f       ?Create@CListBox@@QAEHKABUtagRECT@@PAVCWnd@@I@Z 5f47839f f winctrl1.obj
 0001:000773e1       ??1CListBox@@UAE@XZ        5f4783e1 f winctrl1.obj
 0001:00077451       ?DrawItem@CListBox@@UAEXPAUtagDRAWITEMSTRUCT@@@Z 5f478451 f winctrl1.obj
 0001:0007747e       ?MeasureItem@CListBox@@UAEXPAUtagMEASUREITEMSTRUCT@@@Z 5f47847e f winctrl1.obj
 0001:000774ab       ?CompareItem@CListBox@@UAEHPAUtagCOMPAREITEMSTRUCT@@@Z 5f4784ab f winctrl1.obj
 0001:000774da       ?DeleteItem@CListBox@@UAEXPAUtagDELETEITEMSTRUCT@@@Z 5f4784da f winctrl1.obj
 0001:000774f2       ?VKeyToItem@CListBox@@UAEHII@Z 5f4784f2 f winctrl1.obj
 0001:00077512       ?CharToItem@CListBox@@UAEHII@Z 5f478512 f winctrl1.obj
 0001:00077532       ?OnChildNotify@CListBox@@MAEHIIJPAJ@Z 5f478532 f winctrl1.obj
 0001:0007770a       ?GetText@CListBox@@QBEXHAAVCString@@@Z 5f47870a f winctrl1.obj
 0001:0007777b       ?ItemFromPoint@CListBox@@QBEIVCPoint@@AAH@Z 5f47877b f winctrl1.obj
 0001:00077823       ?Create@CComboBox@@QAEHKABUtagRECT@@PAVCWnd@@I@Z 5f478823 f winctrl1.obj
 0001:00077865       ??1CComboBox@@UAE@XZ       5f478865 f winctrl1.obj
 0001:000778d5       ?DrawItem@CComboBox@@UAEXPAUtagDRAWITEMSTRUCT@@@Z 5f4788d5 f winctrl1.obj
 0001:00077905       ?MeasureItem@CComboBox@@UAEXPAUtagMEASUREITEMSTRUCT@@@Z 5f478905 f winctrl1.obj
 0001:00077935       ?CompareItem@CComboBox@@UAEHPAUtagCOMPAREITEMSTRUCT@@@Z 5f478935 f winctrl1.obj
 0001:00077967       ?DeleteItem@CComboBox@@UAEXPAUtagDELETEITEMSTRUCT@@@Z 5f478967 f winctrl1.obj
 0001:0007797f       ?OnChildNotify@CComboBox@@MAEHIIJPAJ@Z 5f47897f f winctrl1.obj
 0001:00077af5       ?GetLBText@CComboBox@@QBEXHAAVCString@@@Z 5f478af5 f winctrl1.obj
 0001:00077b66       ?Create@CEdit@@QAEHKABUtagRECT@@PAVCWnd@@I@Z 5f478b66 f winctrl1.obj
 0001:00077ba8       ??1CEdit@@UAE@XZ           5f478ba8 f winctrl1.obj
 0001:00077c18       ?Create@CScrollBar@@QAEHKABUtagRECT@@PAVCWnd@@I@Z 5f478c18 f winctrl1.obj
 0001:00077c5a       ??1CScrollBar@@UAE@XZ      5f478c5a f winctrl1.obj
 0001:00077cd0       ??0_AFX_CHECKLIST_STATE@@QAE@XZ 5f478cd0 f winctrl3.obj
 0001:00077e13       ??1_AFX_CHECKLIST_STATE@@UAE@XZ 5f478e13 f winctrl3.obj
 0001:00077e95       ?_GetBaseMessageMap@CCheckListBox@@KGPBUAFX_MSGMAP@@XZ 5f478e95 f winctrl3.obj
 0001:00077eaa       ?GetMessageMap@CCheckListBox@@MBEPBUAFX_MSGMAP@@XZ 5f478eaa f winctrl3.obj
 0001:00077ec5       ?Create@CCheckListBox@@QAEHKABUtagRECT@@PAVCWnd@@I@Z 5f478ec5 f winctrl3.obj
 0001:00077f03       ?SetCheckStyle@CCheckListBox@@QAEXI@Z 5f478f03 f winctrl3.obj
 0001:00077f83       ?SetCheck@CCheckListBox@@QAEXHH@Z 5f478f83 f winctrl3.obj
 0001:000780ac       ?GetCheck@CCheckListBox@@QAEHH@Z 5f4790ac f winctrl3.obj
 0001:00078133       ?Enable@CCheckListBox@@QAEXHH@Z 5f479133 f winctrl3.obj
 0001:00078237       ?IsEnabled@CCheckListBox@@QAEHH@Z 5f479237 f winctrl3.obj
 0001:000782c2       ?OnGetCheckPosition@CCheckListBox@@UAE?AVCRect@@V2@0@Z 5f4792c2 f winctrl3.obj
 0001:000782f9       ?DrawItem@CCheckListBox@@UAEXPAUtagDRAWITEMSTRUCT@@@Z 5f4792f9 f winctrl3.obj
 0001:00078570       ?MeasureItem@CCheckListBox@@UAEXPAUtagMEASUREITEMSTRUCT@@@Z 5f479570 f winctrl3.obj
 0001:000785b2       ?PreDrawItem@CCheckListBox@@IAEXPAUtagDRAWITEMSTRUCT@@@Z 5f4795b2 f winctrl3.obj
 0001:00078946       ?PreMeasureItem@CCheckListBox@@IAEXPAUtagMEASUREITEMSTRUCT@@@Z 5f479946 f winctrl3.obj
 0001:00078a1a       ?PreCompareItem@CCheckListBox@@IAEHPAUtagCOMPAREITEMSTRUCT@@@Z 5f479a1a f winctrl3.obj
 0001:00078a88       ?PreDeleteItem@CCheckListBox@@IAEXPAUtagDELETEITEMSTRUCT@@@Z 5f479a88 f winctrl3.obj
 0001:00078b2b       ?OnChildNotify@CCheckListBox@@MAEHIIJPAJ@Z 5f479b2b f winctrl3.obj
 0001:00078c89       ?PreSubclassWindow@CCheckListBox@@MAEXXZ 5f479c89 f winctrl3.obj
 0001:00078ccf       ?CalcMinimumItemHeight@CCheckListBox@@IAEHXZ 5f479ccf f winctrl3.obj
 0001:00078dd6       ?InvalidateCheck@CCheckListBox@@IAEXH@Z 5f479dd6 f winctrl3.obj
 0001:00078e3a       ?InvalidateItem@CCheckListBox@@IAEXH@Z 5f479e3a f winctrl3.obj
 0001:00078e82       ?CheckFromPoint@CCheckListBox@@IAEHVCPoint@@AAH@Z 5f479e82 f winctrl3.obj
 0001:00078fa2       ?OnLButtonDown@CCheckListBox@@IAEXIVCPoint@@@Z 5f479fa2 f winctrl3.obj
 0001:000790ea       ?OnLButtonDblClk@CCheckListBox@@IAEXIVCPoint@@@Z 5f47a0ea f winctrl3.obj
 0001:0007914d       ?OnKeyDown@CCheckListBox@@IAEXIII@Z 5f47a14d f winctrl3.obj
 0001:00079371       ?OnCreate@CCheckListBox@@IAEHPAUtagCREATESTRUCTW@@@Z 5f47a371 f winctrl3.obj
 0001:000793cf       ?OnSetFont@CCheckListBox@@IAEJIJ@Z 5f47a3cf f winctrl3.obj
 0001:00079416       ?OnLBAddString@CCheckListBox@@IAEJIJ@Z 5f47a416 f winctrl3.obj
 0001:000794d9       ?OnLBFindString@CCheckListBox@@IAEJIJ@Z 5f47a4d9 f winctrl3.obj
 0001:00079578       ?OnLBFindStringExact@CCheckListBox@@IAEJIJ@Z 5f47a578 f winctrl3.obj
 0001:00079617       ?OnLBGetItemData@CCheckListBox@@IAEJIJ@Z 5f47a617 f winctrl3.obj
 0001:0007967a       ?OnLBGetText@CCheckListBox@@IAEJIJ@Z 5f47a67a f winctrl3.obj
 0001:000796ee       ?OnLBInsertString@CCheckListBox@@IAEJIJ@Z 5f47a6ee f winctrl3.obj
 0001:000797b1       ?OnLBSelectString@CCheckListBox@@IAEJIJ@Z 5f47a7b1 f winctrl3.obj
 0001:0007985c       ?OnLBSetItemData@CCheckListBox@@IAEJIJ@Z 5f47a85c f winctrl3.obj
 0001:0007992e       ?OnLBSetItemHeight@CCheckListBox@@IAEJIJ@Z 5f47a92e f winctrl3.obj
 0001:000799a0       ??_G_AFX_CHECKLIST_STATE@@UAEPAXI@Z 5f47a9a0 f winctrl3.obj
 0001:000799a0       ??_E_AFX_CHECKLIST_STATE@@UAEPAXI@Z 5f47a9a0 f winctrl3.obj
 0001:000799e0       ?AfxPropPageCallback@@YGIPAUHWND__@@IPAU_PROPSHEETPAGEW@@@Z 5f47a9e0 f dlgprop.obj
 0001:00079b15       ?_GetBaseMessageMap@CPropertyPage@@KGPBUAFX_MSGMAP@@XZ 5f47ab15 f dlgprop.obj
 0001:00079b2a       ?GetMessageMap@CPropertyPage@@MBEPBUAFX_MSGMAP@@XZ 5f47ab2a f dlgprop.obj
 0001:00079b45       ??0CPropertyPage@@QAE@II@Z 5f47ab45 f dlgprop.obj
 0001:00079c0b       ??0CPropertyPage@@QAE@PBGI@Z 5f47ac0b f dlgprop.obj
 0001:00079cd5       ?Construct@CPropertyPage@@QAEXII@Z 5f47acd5 f dlgprop.obj
 0001:00079d21       ?Construct@CPropertyPage@@QAEXPBGI@Z 5f47ad21 f dlgprop.obj
 0001:00079d87       ??0CPropertyPage@@QAE@XZ   5f47ad87 f dlgprop.obj
 0001:00079e23       ?CommonConstruct@CPropertyPage@@IAEXPBGI@Z 5f47ae23 f dlgprop.obj
 0001:00079f4b       ??1CPropertyPage@@UAE@XZ   5f47af4b f dlgprop.obj
 0001:00079ff1       ?Cleanup@CPropertyPage@@IAEXXZ 5f47aff1 f dlgprop.obj
 0001:0007a058       ?InitDialogInfo@CPropertyPage@@IAEPBUDLGTEMPLATE@@PBU2@@Z 5f47b058 f dlgprop.obj
 0001:0007a0b3       ?PreProcessPageTemplate@CPropertyPage@@IAEXAAU_PROPSHEETPAGEW@@H@Z 5f47b0b3 f dlgprop.obj
 0001:0007a355       ?CancelToClose@CPropertyPage@@QAEXXZ 5f47b355 f dlgprop.obj
 0001:0007a3d8       ?SetModified@CPropertyPage@@QAEXH@Z 5f47b3d8 f dlgprop.obj
 0001:0007a49d       ?QuerySiblings@CPropertyPage@@QAEJIJ@Z 5f47b49d f dlgprop.obj
 0001:0007a526       ?OnApply@CPropertyPage@@UAEHXZ 5f47b526 f dlgprop.obj
 0001:0007a562       ?OnReset@CPropertyPage@@UAEXXZ 5f47b562 f dlgprop.obj
 0001:0007a599       ?OnOK@CPropertyPage@@UAEXXZ 5f47b599 f dlgprop.obj
 0001:0007a5c2       ?OnCancel@CPropertyPage@@UAEXXZ 5f47b5c2 f dlgprop.obj
 0001:0007a5eb       ?OnSetActive@CPropertyPage@@UAEHXZ 5f47b5eb f dlgprop.obj
 0001:0007a645       ?OnKillActive@CPropertyPage@@UAEHXZ 5f47b645 f dlgprop.obj
 0001:0007a69e       ?OnQueryCancel@CPropertyPage@@UAEHXZ 5f47b69e f dlgprop.obj
 0001:0007a6b9       ?OnWizardBack@CPropertyPage@@UAEJXZ 5f47b6b9 f dlgprop.obj
 0001:0007a6d1       ?OnWizardNext@CPropertyPage@@UAEJXZ 5f47b6d1 f dlgprop.obj
 0001:0007a6e9       ?OnWizardFinish@CPropertyPage@@UAEHXZ 5f47b6e9 f dlgprop.obj
 0001:0007a704       ?MapWizardResult@CPropertyPage@@IAEJJ@Z 5f47b704 f dlgprop.obj
 0001:0007a7b9       ?OnNotify@CPropertyPage@@MAEHIJPAJ@Z 5f47b7b9 f dlgprop.obj
 0001:0007aa19       ?PreTranslateMessage@CPropertyPage@@MAEHPAUtagMSG@@@Z 5f47ba19 f dlgprop.obj
 0001:0007aa5f       ?OnCtlColor@CPropertyPage@@IAEPAUHBRUSH__@@PAVCDC@@PAVCWnd@@I@Z 5f47ba5f f dlgprop.obj
 0001:0007aaf8       ?AssertValid@CPropertyPage@@UBEXXZ 5f47baf8 f dlgprop.obj
 0001:0007abaf       ?Dump@CPropertyPage@@UBEXAAVCDumpContext@@@Z 5f47bbaf f dlgprop.obj
 0001:0007ac22       ?EndDialog@CPropertyPage@@QAEXH@Z 5f47bc22 f dlgprop.obj
 0001:0007ac5b       ?_GetBaseMessageMap@CPropertySheet@@KGPBUAFX_MSGMAP@@XZ 5f47bc5b f dlgprop.obj
 0001:0007ac70       ?GetMessageMap@CPropertySheet@@MBEPBUAFX_MSGMAP@@XZ 5f47bc70 f dlgprop.obj
 0001:0007ac8b       ?OnSetDefID@CPropertySheet@@IAEJIJ@Z 5f47bc8b f dlgprop.obj
 0001:0007adad       ??0CPropertySheet@@QAE@XZ  5f47bdad f dlgprop.obj
 0001:0007ae5e       ??0CPropertySheet@@QAE@IPAVCWnd@@I@Z 5f47be5e f dlgprop.obj
 0001:0007af66       ??0CPropertySheet@@QAE@PBGPAVCWnd@@I@Z 5f47bf66 f dlgprop.obj
 0001:0007b04e       ?Construct@CPropertySheet@@QAEXIPAVCWnd@@I@Z 5f47c04e f dlgprop.obj
 0001:0007b0c7       ?Construct@CPropertySheet@@QAEXPBGPAVCWnd@@I@Z 5f47c0c7 f dlgprop.obj
 0001:0007b120       ?CommonConstruct@CPropertySheet@@QAEXPAVCWnd@@I@Z 5f47c120 f dlgprop.obj
 0001:0007b1b6       ?EnableStackedTabs@CPropertySheet@@QAEXH@Z 5f47c1b6 f dlgprop.obj
 0001:0007b1da       ?SetTitle@CPropertySheet@@QAEXPBGI@Z 5f47c1da f dlgprop.obj
 0001:0007b2a3       ??1CPropertySheet@@UAE@XZ  5f47c2a3 f dlgprop.obj
 0001:0007b358       ?PreTranslateMessage@CPropertySheet@@UAEHPAUtagMSG@@@Z 5f47c358 f dlgprop.obj
 0001:0007b41c       ?OnCmdMsg@CPropertySheet@@UAEHIHPAXPAUAFX_CMDHANDLERINFO@@@Z 5f47c41c f dlgprop.obj
 0001:0007b59e       ?GetActivePage@CPropertySheet@@QBEPAVCPropertyPage@@XZ 5f47c59e f dlgprop.obj
 0001:0007b61d       ?ContinueModal@CPropertySheet@@UAEHXZ 5f47c61d f dlgprop.obj
 0001:0007b68e       ?DoModal@CPropertySheet@@UAEHXZ 5f47c68e f dlgprop.obj
 0001:0007b8f8       ?AfxPropSheetCallback@@YGHPAUHWND__@@IJ@Z 5f47c8f8 f dlgprop.obj
 0001:0007b9bb       ?Create@CPropertySheet@@QAEHPAVCWnd@@KK@Z 5f47c9bb f dlgprop.obj
 0001:0007bb0d       ?BuildPropPageArray@CPropertySheet@@UAEXXZ 5f47cb0d f dlgprop.obj
 0001:0007bc03       ?GetPageCount@CPropertySheet@@QBEHXZ 5f47cc03 f dlgprop.obj
 0001:0007bc6f       ?GetActiveIndex@CPropertySheet@@QBEHXZ 5f47cc6f f dlgprop.obj
 0001:0007bcc3       ?SetActivePage@CPropertySheet@@QAEHH@Z 5f47ccc3 f dlgprop.obj
 0001:0007bd0e       ?GetPageIndex@CPropertySheet@@QAEHPAVCPropertyPage@@@Z 5f47cd0e f dlgprop.obj
 0001:0007bd6d       ?SetActivePage@CPropertySheet@@QAEHPAVCPropertyPage@@@Z 5f47cd6d f dlgprop.obj
 0001:0007be24       ?AddPage@CPropertySheet@@QAEXPAVCPropertyPage@@@Z 5f47ce24 f dlgprop.obj
 0001:0007bf3e       ?RemovePage@CPropertySheet@@QAEXPAVCPropertyPage@@@Z 5f47cf3e f dlgprop.obj
 0001:0007bff5       ?RemovePage@CPropertySheet@@QAEXH@Z 5f47cff5 f dlgprop.obj
 0001:0007c051       ?EndDialog@CPropertySheet@@QAEXH@Z 5f47d051 f dlgprop.obj
 0001:0007c0b6       ?OnClose@CPropertySheet@@IAEXXZ 5f47d0b6 f dlgprop.obj
 0001:0007c0f4       ?OnSysCommand@CPropertySheet@@IAEXIJ@Z 5f47d0f4 f dlgprop.obj
 0001:0007c15e       ?OnInitDialog@CPropertySheet@@UAEHXZ 5f47d15e f dlgprop.obj
 0001:0007c44f       ?OnNcCreate@CPropertySheet@@IAEHPAUtagCREATESTRUCTW@@@Z 5f47d44f f dlgprop.obj
 0001:0007c480       ?HandleInitDialog@CPropertySheet@@IAEJIJ@Z 5f47d480 f dlgprop.obj
 0001:0007c4ac       ?OnCommand@CPropertySheet@@UAEHIJ@Z 5f47d4ac f dlgprop.obj
 0001:0007c57f       ?OnCommandHelp@CPropertySheet@@IAEJIJ@Z 5f47d57f f dlgprop.obj
 0001:0007c5e5       ?OnCtlColor@CPropertySheet@@IAEPAUHBRUSH__@@PAVCDC@@PAVCWnd@@I@Z 5f47d5e5 f dlgprop.obj
 0001:0007c67e       ?AssertValid@CPropertySheet@@UBEXXZ 5f47d67e f dlgprop.obj
 0001:0007c6f5       ?Dump@CPropertySheet@@UBEXAAVCDumpContext@@@Z 5f47d6f5 f dlgprop.obj
 0001:0007c7c0       ??_ECPropertyPage@@UAEPAXI@Z 5f47d7c0 f dlgprop.obj
 0001:0007c7c0       ??_GCPropertyPage@@UAEPAXI@Z 5f47d7c0 f dlgprop.obj
 0001:0007c800       ??_ECPropertySheet@@UAEPAXI@Z 5f47d800 f dlgprop.obj
 0001:0007c800       ??_GCPropertySheet@@UAEPAXI@Z 5f47d800 f dlgprop.obj
 0001:0007c8a1       ?DPtoHIMETRIC@CDC@@QBEXPAUtagSIZE@@@Z 5f47d8a1 f wingdix.obj
 0001:0007ca03       ?HIMETRICtoDP@CDC@@QBEXPAUtagSIZE@@@Z 5f47da03 f wingdix.obj
 0001:0007cb65       ?LPtoHIMETRIC@CDC@@QBEXPAUtagSIZE@@@Z 5f47db65 f wingdix.obj
 0001:0007cbbf       ?HIMETRICtoLP@CDC@@QBEXPAUtagSIZE@@@Z 5f47dbbf f wingdix.obj
 0001:0007cc19       ?GetHalftoneBrush@CDC@@SGPAVCBrush@@XZ 5f47dc19 f wingdix.obj
 0001:0007ccbd       ?DrawDragRect@CDC@@QAEXPBUtagRECT@@UtagSIZE@@01PAVCBrush@@2@Z 5f47dcbd f wingdix.obj
 0001:0007d050       ?FillSolidRect@CDC@@QAEXPBUtagRECT@@K@Z 5f47e050 f wingdix.obj
 0001:0007d0ce       ?FillSolidRect@CDC@@QAEXHHHHK@Z 5f47e0ce f wingdix.obj
 0001:0007d16a       ?Draw3dRect@CDC@@QAEXPBUtagRECT@@KK@Z 5f47e16a f wingdix.obj
 0001:0007d1b8       ?Draw3dRect@CDC@@QAEXHHHHKK@Z 5f47e1b8 f wingdix.obj
 0001:0007d240       ?CreatePointFont@CFont@@QAEHHPBGPAVCDC@@@Z 5f47e240 f wingdix.obj
 0001:0007d2bd       ?CreatePointFontIndirect@CFont@@QAEHPBUtagLOGFONTW@@PAVCDC@@@Z 5f47e2bd f wingdix.obj
 0001:0007d3ef       ?NormalizeRect@CRect@@QAEXXZ 5f47e3ef f wingdix.obj
 0001:0007d462       ?InflateRect@CRect@@QAEXPBUtagRECT@@@Z 5f47e462 f wingdix.obj
 0001:0007d4b0       ?InflateRect@CRect@@QAEXHHHH@Z 5f47e4b0 f wingdix.obj
 0001:0007d4f3       ?DeflateRect@CRect@@QAEXPBUtagRECT@@@Z 5f47e4f3 f wingdix.obj
 0001:0007d541       ?DeflateRect@CRect@@QAEXHHHH@Z 5f47e541 f wingdix.obj
 0001:0007d584       ?MulDiv@CRect@@QBE?AV1@HH@Z 5f47e584 f wingdix.obj
 0001:0007d696       ?_GetBaseMessageMap@CEditView@@KGPBUAFX_MSGMAP@@XZ 5f47e696 f viewedit.obj
 0001:0007d6ab       ?GetMessageMap@CEditView@@MBEPBUAFX_MSGMAP@@XZ 5f47e6ab f viewedit.obj
 0001:0007d6c6       ??0_AFX_EDIT_STATE@@QAE@XZ 5f47e6c6 f viewedit.obj
 0001:0007d775       ??1_AFX_EDIT_STATE@@UAE@XZ 5f47e775 f viewedit.obj
 0001:0007d80f       ??0CEditView@@QAE@XZ       5f47e80f f viewedit.obj
 0001:0007d8d2       ??1CEditView@@UAE@XZ       5f47e8d2 f viewedit.obj
 0001:0007d9bf       ?PreCreateWindow@CEditView@@MAEHAAUtagCREATESTRUCTW@@@Z 5f47e9bf f viewedit.obj
 0001:0007d9ed       ?OnCreate@CEditView@@IAEHPAUtagCREATESTRUCTW@@@Z 5f47e9ed f viewedit.obj
 0001:0007db52       ?OnDestroy@CEditView@@IAEXXZ 5f47eb52 f viewedit.obj
 0001:0007db87       ?CalcWindowRect@CEditView@@MAEXPAUtagRECT@@I@Z 5f47eb87 f viewedit.obj
 0001:0007dc0d       ?DeleteContents@CEditView@@UAEXXZ 5f47ec0d f viewedit.obj
 0001:0007dc78       ?Serialize@CEditView@@UAEXAAVCArchive@@@Z 5f47ec78 f viewedit.obj
 0001:0007dd4b       ?ReadFromArchive@CEditView@@QAEXAAVCArchive@@I@Z 5f47ed4b f viewedit.obj
 0001:0007de8a       ?WriteToArchive@CEditView@@QAEXAAVCArchive@@@Z 5f47ee8a f viewedit.obj
 0001:0007df9f       ?SerializeRaw@CEditView@@QAEXAAVCArchive@@@Z 5f47ef9f f viewedit.obj
 0001:0007e07e       ?OnPreparePrinting@CEditView@@MAEHPAUCPrintInfo@@@Z 5f47f07e f viewedit.obj
 0001:0007e0a2       ?OnBeginPrinting@CEditView@@MAEXPAVCDC@@PAUCPrintInfo@@@Z 5f47f0a2 f viewedit.obj
 0001:0007e2ba       ?PaginateTo@CEditView@@IAEHPAVCDC@@PAUCPrintInfo@@@Z 5f47f2ba f viewedit.obj
 0001:0007e511       ?OnPrepareDC@CEditView@@UAEXPAVCDC@@PAUCPrintInfo@@@Z 5f47f511 f viewedit.obj
 0001:0007e5bd       ?PrintInsideRect@CEditView@@QAEIPAVCDC@@AAUtagRECT@@II@Z 5f47f5bd f viewedit.obj
 0001:0007ef06       ?OnPrint@CEditView@@MAEXPAVCDC@@PAUCPrintInfo@@@Z 5f47ff06 f viewedit.obj
 0001:0007f0e4       ?OnEndPrinting@CEditView@@MAEXPAVCDC@@PAUCPrintInfo@@@Z 5f4800e4 f viewedit.obj
 0001:0007f14f       ?OnUpdateNeedSel@CEditView@@IAEXPAVCCmdUI@@@Z 5f48014f f viewedit.obj
 0001:0007f1bb       ?OnUpdateNeedClip@CEditView@@IAEXPAVCCmdUI@@@Z 5f4801bb f viewedit.obj
 0001:0007f20c       ?OnUpdateNeedText@CEditView@@IAEXPAVCCmdUI@@@Z 5f48020c f viewedit.obj
 0001:0007f263       ?OnUpdateNeedFind@CEditView@@IAEXPAVCCmdUI@@@Z 5f480263 f viewedit.obj
 0001:0007f2f2       ?OnUpdateEditUndo@CEditView@@IAEXPAVCCmdUI@@@Z 5f4802f2 f viewedit.obj
 0001:0007f34a       ?OnEditChange@CEditView@@IAEHXZ 5f48034a f viewedit.obj
 0001:0007f3a6       ?OnEditCut@CEditView@@IAEXXZ 5f4803a6 f viewedit.obj
 0001:0007f3f1       ?OnEditCopy@CEditView@@IAEXXZ 5f4803f1 f viewedit.obj
 0001:0007f43c       ?OnEditPaste@CEditView@@IAEXXZ 5f48043c f viewedit.obj
 0001:0007f487       ?OnEditClear@CEditView@@IAEXXZ 5f480487 f viewedit.obj
 0001:0007f4d2       ?OnEditUndo@CEditView@@IAEXXZ 5f4804d2 f viewedit.obj
 0001:0007f51d       ?OnEditSelectAll@CEditView@@IAEXXZ 5f48051d f viewedit.obj
 0001:0007f56e       ?OnSetFont@CEditView@@IAEJIJ@Z 5f48056e f viewedit.obj
 0001:0007f5cc       ?SetPrinterFont@CEditView@@QAEXPAVCFont@@@Z 5f4805cc f viewedit.obj
 0001:0007f618       ?GetPrinterFont@CEditView@@QBEPAVCFont@@XZ 5f480618 f viewedit.obj
 0001:0007f64d       ?LockBuffer@CEditView@@QBEPBGXZ 5f48064d f viewedit.obj
 0001:0007f714       ?UnlockBuffer@CEditView@@QBEXXZ 5f480714 f viewedit.obj
 0001:0007f7a0       ?GetBufferLength@CEditView@@QBEIXZ 5f4807a0 f viewedit.obj
 0001:0007f811       ?GetSelectedText@CEditView@@QBEXAAVCString@@@Z 5f480811 f viewedit.obj
 0001:0007f8e9       ?OnEditFind@CEditView@@IAEXXZ 5f4808e9 f viewedit.obj
 0001:0007f92f       ?OnEditReplace@CEditView@@IAEXXZ 5f48092f f viewedit.obj
 0001:0007f975       ?OnEditRepeat@CEditView@@IAEXXZ 5f480975 f viewedit.obj
 0001:0007fa02       ?OnEditFindReplace@CEditView@@IAEXH@Z 5f480a02 f viewedit.obj
 0001:0007fccc       ?OnFindNext@CEditView@@MAEXPBGHH@Z 5f480ccc f viewedit.obj
 0001:0007fd76       ?OnReplaceSel@CEditView@@MAEXPBGHH0@Z 5f480d76 f viewedit.obj
 0001:0007fe3f       ?OnReplaceAll@CEditView@@MAEXPBG0H@Z 5f480e3f f viewedit.obj
 0001:0007ff32       ?InitializeReplace@CEditView@@IAEHXZ 5f480f32 f viewedit.obj
 0001:0008005c       ?OnFindReplaceCmd@CEditView@@IAEJIJ@Z 5f48105c f viewedit.obj
 0001:00080305       ?SameAsSelected@CEditView@@IAEHPBGH@Z 5f481305 f viewedit.obj
 0001:00080410       ?FindTextW@CEditView@@QAEHPBGHH@Z 5f481410 f viewedit.obj
 0001:0008094d       ?OnTextNotFound@CEditView@@MAEXPBG@Z 5f48194d f viewedit.obj
 0001:00080980       ?SetTabStops@CEditView@@QAEXH@Z 5f481980 f viewedit.obj
 0001:000809e7       ?AssertValid@CEditView@@UBEXXZ 5f4819e7 f viewedit.obj
 0001:00080a9d       ?Dump@CEditView@@UBEXAAVCDumpContext@@@Z 5f481a9d f viewedit.obj
 0001:00080c20       ??_G_AFX_EDIT_STATE@@UAEPAXI@Z 5f481c20 f viewedit.obj
 0001:00080c20       ??_E_AFX_EDIT_STATE@@UAEPAXI@Z 5f481c20 f viewedit.obj
 0001:00080c60       ??_GCEditView@@UAEPAXI@Z   5f481c60 f viewedit.obj
 0001:00080c60       ??_ECEditView@@UAEPAXI@Z   5f481c60 f viewedit.obj
 0001:00080ca0       ?_GetBaseMessageMap@CListView@@KGPBUAFX_MSGMAP@@XZ 5f481ca0 f viewcmn.obj
 0001:00080cb5       ?GetMessageMap@CListView@@MBEPBUAFX_MSGMAP@@XZ 5f481cb5 f viewcmn.obj
 0001:00080cd0       ?PreCreateWindow@CListView@@UAEHAAUtagCREATESTRUCTW@@@Z 5f481cd0 f viewcmn.obj
 0001:00080cf4       ?DrawItem@CListView@@UAEXPAUtagDRAWITEMSTRUCT@@@Z 5f481cf4 f viewcmn.obj
 0001:00080d21       ?OnChildNotify@CListView@@MAEHIIJPAJ@Z 5f481d21 f viewcmn.obj
 0001:00080d96       ?RemoveImageList@CListView@@IAEXH@Z 5f481d96 f viewcmn.obj
 0001:00080de8       ?OnNcDestroy@CListView@@QAEXXZ 5f481de8 f viewcmn.obj
 0001:00080e24       ?_GetBaseMessageMap@CTreeView@@KGPBUAFX_MSGMAP@@XZ 5f481e24 f viewcmn.obj
 0001:00080e39       ?GetMessageMap@CTreeView@@MBEPBUAFX_MSGMAP@@XZ 5f481e39 f viewcmn.obj
 0001:00080e54       ?PreCreateWindow@CTreeView@@UAEHAAUtagCREATESTRUCTW@@@Z 5f481e54 f viewcmn.obj
 0001:00080e78       ?RemoveImageList@CTreeView@@IAEXH@Z 5f481e78 f viewcmn.obj
 0001:00080eca       ?OnDestroy@CTreeView@@QAEXXZ 5f481eca f viewcmn.obj
 0001:00080efc       ??0CListView@@QAE@XZ       5f481efc f viewcmn.obj
 0001:00080f75       ?GetListCtrl@CListView@@QBEAAVCListCtrl@@XZ 5f481f75 f viewcmn.obj
 0001:00080f8e       ??0CTreeView@@QAE@XZ       5f481f8e f viewcmn.obj
 0001:00081007       ?GetTreeCtrl@CTreeView@@QBEAAVCTreeCtrl@@XZ 5f482007 f viewcmn.obj
 0001:00081020       ??_GCListView@@UAEPAXI@Z   5f482020 f viewcmn.obj
 0001:00081060       ??1CListView@@UAE@XZ       5f482060 f viewcmn.obj
 0001:000810c0       ??_GCTreeView@@UAEPAXI@Z   5f4820c0 f viewcmn.obj
 0001:00081100       ??1CTreeView@@UAE@XZ       5f482100 f viewcmn.obj
 0001:00081160       ?AfxOleOnReleaseAllObjects@@YGXXZ 5f482160 f olelock.obj
 0001:000811f3       ?AfxOleCanExitApp@@YGHXZ   5f4821f3 f olelock.obj
 0001:00081227       ?AfxOleLockApp@@YGXXZ      5f482227 f olelock.obj
 0001:0008124f       ?AfxOleUnlockApp@@YGXXZ    5f48224f f olelock.obj
 0001:000812a6       ?AfxOleSetUserCtrl@@YGXH@Z 5f4822a6 f olelock.obj
 0001:0008131d       ?AfxOleGetUserCtrl@@YGHXZ  5f48231d f olelock.obj
 0001:00081340       ?OutputString@CDumpContext@@IAEXPBG@Z 5f482340 f dumpcont.obj
 0001:0008141e       ??0CDumpContext@@QAE@PAVCFile@@@Z 5f48241e f dumpcont.obj
 0001:00081465       ?Flush@CDumpContext@@QAEXXZ 5f482465 f dumpcont.obj
 0001:00081499       ??6CDumpContext@@QAEAAV0@PBG@Z 5f482499 f dumpcont.obj
 0001:000815f0       ??6CDumpContext@@QAEAAV0@E@Z 5f4825f0 f dumpcont.obj
 0001:0008162f       ??6CDumpContext@@QAEAAV0@G@Z 5f48262f f dumpcont.obj
 0001:00081671       ??6CDumpContext@@QAEAAV0@I@Z 5f482671 f dumpcont.obj
 0001:000816ae       ??6CDumpContext@@QAEAAV0@J@Z 5f4826ae f dumpcont.obj
 0001:000816eb       ??6CDumpContext@@QAEAAV0@K@Z 5f4826eb f dumpcont.obj
 0001:00081728       ??6CDumpContext@@QAEAAV0@H@Z 5f482728 f dumpcont.obj
 0001:00081765       ??6CDumpContext@@QAEAAV0@PBVCObject@@@Z 5f482765 f dumpcont.obj
 0001:000817c0       ??6CDumpContext@@QAEAAV0@ABVCObject@@@Z 5f4827c0 f dumpcont.obj
 0001:000817e4       ??6CDumpContext@@QAEAAV0@PBX@Z 5f4827e4 f dumpcont.obj
 0001:00081821       ?HexDump@CDumpContext@@QAEXPBGPAEHH@Z 5f482821 f dumpcont.obj
 0001:0008199c       ??6CDumpContext@@QAEAAV0@PBD@Z 5f48299c f dumpcont.obj
 0001:00081a30       ??6CDumpContext@@QAEAAV0@M@Z 5f482a30 f dumpflt.obj
 0001:00081a6f       ??6CDumpContext@@QAEAAV0@N@Z 5f482a6f f dumpflt.obj
 0001:00081ab0       ?AfxAssertFailedLine@@YGHPBDH@Z 5f482ab0 f afxasert.obj
 0001:00081b10       ??0CObject@@IAE@XZ         5f482b10 f afxinl1.obj
 0001:00081b32       ??1CObject@@UAE@XZ         5f482b32 f afxinl1.obj
 0001:00081b51       ?Serialize@CObject@@UAEXAAVCArchive@@@Z 5f482b51 f afxinl1.obj
 0001:00081b69       ??2CObject@@SGPAXIPAX@Z    5f482b69 f afxinl1.obj
 0001:00081b7e       ?AfxDynamicDownCast@@YAPBVCObject@@PAUCRuntimeClass@@PBV1@@Z 5f482b7e f afxinl1.obj
 0001:00081b9e       ?AfxStaticDownCast@@YAPBVCObject@@PAUCRuntimeClass@@PBV1@@Z 5f482b9e f afxinl1.obj
 0001:00081bbe       ??1CException@@UAE@XZ      5f482bbe f afxinl1.obj
 0001:00081c26       ??0CSimpleException@@QAE@XZ 5f482c26 f afxinl1.obj
 0001:00081ca9       ??0CSimpleException@@QAE@H@Z 5f482ca9 f afxinl1.obj
 0001:00081d32       ??1CSimpleException@@UAE@XZ 5f482d32 f afxinl1.obj
 0001:00081d9a       ??0CMemoryException@@QAE@XZ 5f482d9a f afxinl1.obj
 0001:00081e09       ??0CMemoryException@@QAE@HI@Z 5f482e09 f afxinl1.obj
 0001:00081e8a       ??1CMemoryException@@UAE@XZ 5f482e8a f afxinl1.obj
 0001:00081ef2       ??0CNotSupportedException@@QAE@XZ 5f482ef2 f afxinl1.obj
 0001:00081f61       ??0CNotSupportedException@@QAE@HI@Z 5f482f61 f afxinl1.obj
 0001:00081fe2       ??1CNotSupportedException@@UAE@XZ 5f482fe2 f afxinl1.obj
 0001:0008204a       ??0CArchiveException@@QAE@HPBG@Z 5f48304a f afxinl1.obj
 0001:000820ee       ??1CArchiveException@@UAE@XZ 5f4830ee f afxinl1.obj
 0001:0008216f       ??0CFileException@@QAE@HJPBG@Z 5f48316f f afxinl1.obj
 0001:0008221c       ??1CFileException@@UAE@XZ  5f48321c f afxinl1.obj
 0001:0008229d       ??BCFile@@QBEHXZ           5f48329d f afxinl1.obj
 0001:000822b9       ?ReadHuge@CFile@@QAEKPAXK@Z 5f4832b9 f afxinl1.obj
 0001:000822e4       ?WriteHuge@CFile@@QAEXPBXK@Z 5f4832e4 f afxinl1.obj
 0001:0008230f       ?SeekToEnd@CFile@@QAEKXZ   5f48330f f afxinl1.obj
 0001:00082334       ?SeekToBegin@CFile@@QAEXXZ 5f483334 f afxinl1.obj
 0001:00082359       ?SetFilePath@CFile@@UAEXPBG@Z 5f483359 f afxinl1.obj
 0001:000823b8       ?IsReadOnly@CFileFind@@QBEHXZ 5f4833b8 f afxinl1.obj
 0001:000823db       ?IsDirectory@CFileFind@@QBEHXZ 5f4833db f afxinl1.obj
 0001:000823fe       ?IsCompressed@CFileFind@@QBEHXZ 5f4833fe f afxinl1.obj
 0001:00082424       ?IsSystem@CFileFind@@QBEHXZ 5f483424 f afxinl1.obj
 0001:00082447       ?IsHidden@CFileFind@@QBEHXZ 5f483447 f afxinl1.obj
 0001:0008246a       ?IsTemporary@CFileFind@@QBEHXZ 5f48346a f afxinl1.obj
 0001:00082490       ?IsNormal@CFileFind@@QBEHXZ 5f483490 f afxinl1.obj
 0001:000824b6       ?IsArchived@CFileFind@@QBEHXZ 5f4834b6 f afxinl1.obj
 0001:000824d9       ?GetData@CString@@IBEPAUCStringData@@XZ 5f4834d9 f afxinl1.obj
 0001:00082518       ?Init@CString@@IAEXXZ      5f483518 f afxinl1.obj
 0001:0008253a       ??0CString@@QAE@PBE@Z      5f48353a f afxinl1.obj
 0001:00082569       ??4CString@@QAEABV0@PBE@Z  5f483569 f afxinl1.obj
 0001:00082590       ??YCString@@QAEABV0@D@Z    5f483590 f afxinl1.obj
 0001:000825b9       ??4CString@@QAEABV0@D@Z    5f4835b9 f afxinl1.obj
 0001:000825e2       ??H@YG?AVCString@@ABV0@D@Z 5f4835e2 f afxinl1.obj
 0001:00082654       ??H@YG?AVCString@@DABV0@@Z 5f483654 f afxinl1.obj
 0001:000826c6       ?GetLength@CString@@QBEHXZ 5f4836c6 f afxinl1.obj
 0001:000826e7       ?GetAllocLength@CString@@QBEHXZ 5f4836e7 f afxinl1.obj
 0001:00082708       ?IsEmpty@CString@@QBEHXZ   5f483708 f afxinl1.obj
 0001:0008273c       ??BCString@@QBEPBGXZ       5f48373c f afxinl1.obj
 0001:00082757       ?SafeStrlen@CString@@KGHPBG@Z 5f483757 f afxinl1.obj
 0001:00082784       ?Compare@CString@@QBEHPBG@Z 5f483784 f afxinl1.obj
 0001:000827af       ?CompareNoCase@CString@@QBEHPBG@Z 5f4837af f afxinl1.obj
 0001:000827da       ?Collate@CString@@QBEHPBG@Z 5f4837da f afxinl1.obj
 0001:00082805       ?GetAt@CString@@QBEGH@Z    5f483805 f afxinl1.obj
 0001:00082877       ??ACString@@QBEGH@Z        5f483877 f afxinl1.obj
 0001:000828e9       ??8@YGHABVCString@@0@Z     5f4838e9 f afxinl1.obj
 0001:00082920       ??8@YGHABVCString@@PBG@Z   5f483920 f afxinl1.obj
 0001:00082952       ??8@YGHPBGABVCString@@@Z   5f483952 f afxinl1.obj
 0001:00082984       ??9@YGHABVCString@@0@Z     5f483984 f afxinl1.obj
 0001:000829bb       ??9@YGHABVCString@@PBG@Z   5f4839bb f afxinl1.obj
 0001:000829ed       ??9@YGHPBGABVCString@@@Z   5f4839ed f afxinl1.obj
 0001:00082a1f       ??M@YGHABVCString@@0@Z     5f483a1f f afxinl1.obj
 0001:00082a56       ??M@YGHABVCString@@PBG@Z   5f483a56 f afxinl1.obj
 0001:00082a88       ??M@YGHPBGABVCString@@@Z   5f483a88 f afxinl1.obj
 0001:00082aba       ??O@YGHABVCString@@0@Z     5f483aba f afxinl1.obj
 0001:00082af1       ??O@YGHABVCString@@PBG@Z   5f483af1 f afxinl1.obj
 0001:00082b23       ??O@YGHPBGABVCString@@@Z   5f483b23 f afxinl1.obj
 0001:00082b55       ??N@YGHABVCString@@0@Z     5f483b55 f afxinl1.obj
 0001:00082b8c       ??N@YGHABVCString@@PBG@Z   5f483b8c f afxinl1.obj
 0001:00082bbe       ??N@YGHPBGABVCString@@@Z   5f483bbe f afxinl1.obj
 0001:00082bf0       ??P@YGHABVCString@@0@Z     5f483bf0 f afxinl1.obj
 0001:00082c27       ??P@YGHABVCString@@PBG@Z   5f483c27 f afxinl1.obj
 0001:00082c59       ??P@YGHPBGABVCString@@@Z   5f483c59 f afxinl1.obj
 0001:00082c8b       ??0CTimeSpan@@QAE@XZ       5f483c8b f afxinl1.obj
 0001:00082ca4       ??0CTimeSpan@@QAE@J@Z      5f483ca4 f afxinl1.obj
 0001:00082cc7       ??0CTimeSpan@@QAE@JHHH@Z   5f483cc7 f afxinl1.obj
 0001:00082d0b       ??0CTimeSpan@@QAE@ABV0@@Z  5f483d0b f afxinl1.obj
 0001:00082d30       ??4CTimeSpan@@QAEABV0@ABV0@@Z 5f483d30 f afxinl1.obj
 0001:00082d55       ?GetDays@CTimeSpan@@QBEJXZ 5f483d55 f afxinl1.obj
 0001:00082d78       ?GetTotalHours@CTimeSpan@@QBEJXZ 5f483d78 f afxinl1.obj
 0001:00082d9b       ?GetHours@CTimeSpan@@QBEHXZ 5f483d9b f afxinl1.obj
 0001:00082dcd       ?GetTotalMinutes@CTimeSpan@@QBEJXZ 5f483dcd f afxinl1.obj
 0001:00082df0       ?GetMinutes@CTimeSpan@@QBEHXZ 5f483df0 f afxinl1.obj
 0001:00082e25       ?GetTotalSeconds@CTimeSpan@@QBEJXZ 5f483e25 f afxinl1.obj
 0001:00082e40       ?GetSeconds@CTimeSpan@@QBEHXZ 5f483e40 f afxinl1.obj
 0001:00082e75       ??GCTimeSpan@@QBE?AV0@V0@@Z 5f483e75 f afxinl1.obj
 0001:00082ea1       ??HCTimeSpan@@QBE?AV0@V0@@Z 5f483ea1 f afxinl1.obj
 0001:00082ecd       ??YCTimeSpan@@QAEABV0@V0@@Z 5f483ecd f afxinl1.obj
 0001:00082ef0       ??ZCTimeSpan@@QAEABV0@V0@@Z 5f483ef0 f afxinl1.obj
 0001:00082f17       ??8CTimeSpan@@QBEHV0@@Z    5f483f17 f afxinl1.obj
 0001:00082f49       ??9CTimeSpan@@QBEHV0@@Z    5f483f49 f afxinl1.obj
 0001:00082f7b       ??MCTimeSpan@@QBEHV0@@Z    5f483f7b f afxinl1.obj
 0001:00082fad       ??OCTimeSpan@@QBEHV0@@Z    5f483fad f afxinl1.obj
 0001:00082fdf       ??NCTimeSpan@@QBEHV0@@Z    5f483fdf f afxinl1.obj
 0001:00083011       ??PCTimeSpan@@QBEHV0@@Z    5f484011 f afxinl1.obj
 0001:00083043       ??0CTime@@QAE@XZ           5f484043 f afxinl1.obj
 0001:0008305c       ??0CTime@@QAE@J@Z          5f48405c f afxinl1.obj
 0001:0008307f       ??0CTime@@QAE@ABV0@@Z      5f48407f f afxinl1.obj
 0001:000830a4       ??4CTime@@QAEABV0@ABV0@@Z  5f4840a4 f afxinl1.obj
 0001:000830c9       ??4CTime@@QAEABV0@J@Z      5f4840c9 f afxinl1.obj
 0001:000830ec       ?GetTime@CTime@@QBEJXZ     5f4840ec f afxinl1.obj
 0001:00083107       ?GetYear@CTime@@QBEHXZ     5f484107 f afxinl1.obj
 0001:0008312f       ?GetMonth@CTime@@QBEHXZ    5f48412f f afxinl1.obj
 0001:00083153       ?GetDay@CTime@@QBEHXZ      5f484153 f afxinl1.obj
 0001:00083176       ?GetHour@CTime@@QBEHXZ     5f484176 f afxinl1.obj
 0001:00083199       ?GetMinute@CTime@@QBEHXZ   5f484199 f afxinl1.obj
 0001:000831bc       ?GetSecond@CTime@@QBEHXZ   5f4841bc f afxinl1.obj
 0001:000831de       ?GetDayOfWeek@CTime@@QBEHXZ 5f4841de f afxinl1.obj
 0001:00083202       ??GCTime@@QBE?AVCTimeSpan@@V0@@Z 5f484202 f afxinl1.obj
 0001:0008322e       ??GCTime@@QBE?AV0@VCTimeSpan@@@Z 5f48422e f afxinl1.obj
 0001:0008325a       ??HCTime@@QBE?AV0@VCTimeSpan@@@Z 5f48425a f afxinl1.obj
 0001:00083286       ??YCTime@@QAEABV0@VCTimeSpan@@@Z 5f484286 f afxinl1.obj
 0001:000832a9       ??ZCTime@@QAEABV0@VCTimeSpan@@@Z 5f4842a9 f afxinl1.obj
 0001:000832d0       ??8CTime@@QBEHV0@@Z        5f4842d0 f afxinl1.obj
 0001:00083302       ??9CTime@@QBEHV0@@Z        5f484302 f afxinl1.obj
 0001:00083334       ??MCTime@@QBEHV0@@Z        5f484334 f afxinl1.obj
 0001:00083366       ??OCTime@@QBEHV0@@Z        5f484366 f afxinl1.obj
 0001:00083398       ??NCTime@@QBEHV0@@Z        5f484398 f afxinl1.obj
 0001:000833ca       ??PCTime@@QBEHV0@@Z        5f4843ca f afxinl1.obj
 0001:000833fc       ?IsLoading@CArchive@@QBEHXZ 5f4843fc f afxinl1.obj
 0001:0008342b       ?IsStoring@CArchive@@QBEHXZ 5f48442b f afxinl1.obj
 0001:0008345a       ?IsByteSwapping@CArchive@@QBEHXZ 5f48445a f afxinl1.obj
 0001:00083489       ?IsBufferEmpty@CArchive@@QBEHXZ 5f484489 f afxinl1.obj
 0001:000834bd       ?GetFile@CArchive@@QBEPAVCFile@@XZ 5f4844bd f afxinl1.obj
 0001:000834d9       ?SetObjectSchema@CArchive@@QAEXI@Z 5f4844d9 f afxinl1.obj
 0001:000834fa       ?SetStoreParams@CArchive@@QAEXII@Z 5f4844fa f afxinl1.obj
 0001:00083571       ?SetLoadParams@CArchive@@QAEXI@Z 5f484571 f afxinl1.obj
 0001:000835df       ??6CArchive@@QAEAAV0@H@Z   5f4845df f afxinl1.obj
 0001:00083603       ??6CArchive@@QAEAAV0@I@Z   5f484603 f afxinl1.obj
 0001:00083627       ??6CArchive@@QAEAAV0@F@Z   5f484627 f afxinl1.obj
 0001:0008364b       ??6CArchive@@QAEAAV0@D@Z   5f48464b f afxinl1.obj
 0001:0008366f       ??6CArchive@@QAEAAV0@E@Z   5f48466f f afxinl1.obj
 0001:000836b6       ??6CArchive@@QAEAAV0@G@Z   5f4846b6 f afxinl1.obj
 0001:00083702       ??6CArchive@@QAEAAV0@J@Z   5f484702 f afxinl1.obj
 0001:0008374c       ??6CArchive@@QAEAAV0@K@Z   5f48474c f afxinl1.obj
 0001:00083796       ??6CArchive@@QAEAAV0@M@Z   5f484796 f afxinl1.obj
 0001:000837e0       ??6CArchive@@QAEAAV0@N@Z   5f4847e0 f afxinl1.obj
 0001:00083830       ??5CArchive@@QAEAAV0@AAH@Z 5f484830 f afxinl1.obj
 0001:00083854       ??5CArchive@@QAEAAV0@AAI@Z 5f484854 f afxinl1.obj
 0001:00083878       ??5CArchive@@QAEAAV0@AAF@Z 5f484878 f afxinl1.obj
 0001:0008389c       ??5CArchive@@QAEAAV0@AAD@Z 5f48489c f afxinl1.obj
 0001:000838c0       ??5CArchive@@QAEAAV0@AAE@Z 5f4848c0 f afxinl1.obj
 0001:0008391d       ??5CArchive@@QAEAAV0@AAG@Z 5f48491d f afxinl1.obj
 0001:0008397f       ??5CArchive@@QAEAAV0@AAK@Z 5f48497f f afxinl1.obj
 0001:000839df       ??5CArchive@@QAEAAV0@AAM@Z 5f4849df f afxinl1.obj
 0001:00083a3f       ??5CArchive@@QAEAAV0@AAN@Z 5f484a3f f afxinl1.obj
 0001:00083aa5       ??5CArchive@@QAEAAV0@AAJ@Z 5f484aa5 f afxinl1.obj
 0001:00083b05       ??0CArchive@@IAE@ABV0@@Z   5f484b05 f afxinl1.obj
 0001:00083b73       ??4CArchive@@IAEXABV0@@Z   5f484b73 f afxinl1.obj
 0001:00083b8b       ??6@YGAAVCArchive@@AAV0@PBVCObject@@@Z 5f484b8b f afxinl1.obj
 0001:00083bac       ??5@YGAAVCArchive@@AAV0@AAPAVCObject@@@Z 5f484bac f afxinl1.obj
 0001:00083bd0       ??5@YGAAVCArchive@@AAV0@AAPBVCObject@@@Z 5f484bd0 f afxinl1.obj
 0001:00083bf4       ?GetDepth@CDumpContext@@QBEHXZ 5f484bf4 f afxinl1.obj
 0001:00083c0f       ?SetDepth@CDumpContext@@QAEXH@Z 5f484c0f f afxinl1.obj
 0001:00083c2f       ??0CDumpContext@@IAE@ABV0@@Z 5f484c2f f afxinl1.obj
 0001:00083c4a       ??4CDumpContext@@IAEXABV0@@Z 5f484c4a f afxinl1.obj
 0001:00083c62       ?GetSize@CByteArray@@QBEHXZ 5f484c62 f afxinl1.obj
 0001:00083c7e       ?GetUpperBound@CByteArray@@QBEHXZ 5f484c7e f afxinl1.obj
 0001:00083c9b       ?RemoveAll@CByteArray@@QAEXXZ 5f484c9b f afxinl1.obj
 0001:00083cbd       ?GetAt@CByteArray@@QBEEH@Z 5f484cbd f afxinl1.obj
 0001:00083d0f       ?SetAt@CByteArray@@QAEXHE@Z 5f484d0f f afxinl1.obj
 0001:00083d64       ?ElementAt@CByteArray@@QAEAAEH@Z 5f484d64 f afxinl1.obj
 0001:00083db3       ?GetData@CByteArray@@QBEPBEXZ 5f484db3 f afxinl1.obj
 0001:00083dcf       ?GetData@CByteArray@@QAEPAEXZ 5f484dcf f afxinl1.obj
 0001:00083deb       ?Add@CByteArray@@QAEHE@Z   5f484deb f afxinl1.obj
 0001:00083e1f       ??ACByteArray@@QBEEH@Z     5f484e1f f afxinl1.obj
 0001:00083e43       ??ACByteArray@@QAEAAEH@Z   5f484e43 f afxinl1.obj
 0001:00083e67       ?GetSize@CWordArray@@QBEHXZ 5f484e67 f afxinl1.obj
 0001:00083e83       ?GetUpperBound@CWordArray@@QBEHXZ 5f484e83 f afxinl1.obj
 0001:00083ea0       ?RemoveAll@CWordArray@@QAEXXZ 5f484ea0 f afxinl1.obj
 0001:00083ec2       ?GetAt@CWordArray@@QBEGH@Z 5f484ec2 f afxinl1.obj
 0001:00083f15       ?SetAt@CWordArray@@QAEXHG@Z 5f484f15 f afxinl1.obj
 0001:00083f6c       ?ElementAt@CWordArray@@QAEAAGH@Z 5f484f6c f afxinl1.obj
 0001:00083fbe       ?GetData@CWordArray@@QBEPBGXZ 5f484fbe f afxinl1.obj
 0001:00083fda       ?GetData@CWordArray@@QAEPAGXZ 5f484fda f afxinl1.obj
 0001:00083ff6       ?Add@CWordArray@@QAEHG@Z   5f484ff6 f afxinl1.obj
 0001:0008402a       ??ACWordArray@@QBEGH@Z     5f48502a f afxinl1.obj
 0001:0008404e       ??ACWordArray@@QAEAAGH@Z   5f48504e f afxinl1.obj
 0001:00084072       ?GetSize@CDWordArray@@QBEHXZ 5f485072 f afxinl1.obj
 0001:0008408e       ?GetUpperBound@CDWordArray@@QBEHXZ 5f48508e f afxinl1.obj
 0001:000840ab       ?RemoveAll@CDWordArray@@QAEXXZ 5f4850ab f afxinl1.obj
 0001:000840cd       ?GetAt@CDWordArray@@QBEKH@Z 5f4850cd f afxinl1.obj
 0001:0008411f       ?SetAt@CDWordArray@@QAEXHK@Z 5f48511f f afxinl1.obj
 0001:00084174       ?ElementAt@CDWordArray@@QAEAAKH@Z 5f485174 f afxinl1.obj
 0001:000841c6       ?GetData@CDWordArray@@QBEPBKXZ 5f4851c6 f afxinl1.obj
 0001:000841e2       ?GetData@CDWordArray@@QAEPAKXZ 5f4851e2 f afxinl1.obj
 0001:000841fe       ?Add@CDWordArray@@QAEHK@Z  5f4851fe f afxinl1.obj
 0001:00084232       ??ACDWordArray@@QBEKH@Z    5f485232 f afxinl1.obj
 0001:00084256       ??ACDWordArray@@QAEAAKH@Z  5f485256 f afxinl1.obj
 0001:0008427a       ?GetSize@CUIntArray@@QBEHXZ 5f48527a f afxinl1.obj
 0001:00084296       ?GetUpperBound@CUIntArray@@QBEHXZ 5f485296 f afxinl1.obj
 0001:000842b3       ?RemoveAll@CUIntArray@@QAEXXZ 5f4852b3 f afxinl1.obj
 0001:000842d5       ?GetAt@CUIntArray@@QBEIH@Z 5f4852d5 f afxinl1.obj
 0001:00084327       ?SetAt@CUIntArray@@QAEXHI@Z 5f485327 f afxinl1.obj
 0001:0008437c       ?ElementAt@CUIntArray@@QAEAAIH@Z 5f48537c f afxinl1.obj
 0001:000843ce       ?GetData@CUIntArray@@QBEPBIXZ 5f4853ce f afxinl1.obj
 0001:000843ea       ?GetData@CUIntArray@@QAEPAIXZ 5f4853ea f afxinl1.obj
 0001:00084406       ?Add@CUIntArray@@QAEHI@Z   5f485406 f afxinl1.obj
 0001:0008443a       ??ACUIntArray@@QBEIH@Z     5f48543a f afxinl1.obj
 0001:0008445e       ??ACUIntArray@@QAEAAIH@Z   5f48545e f afxinl1.obj
 0001:00084482       ?GetSize@CPtrArray@@QBEHXZ 5f485482 f afxinl1.obj
 0001:0008449e       ?GetUpperBound@CPtrArray@@QBEHXZ 5f48549e f afxinl1.obj
 0001:000844bb       ?RemoveAll@CPtrArray@@QAEXXZ 5f4854bb f afxinl1.obj
 0001:000844dd       ?GetAt@CPtrArray@@QBEPAXH@Z 5f4854dd f afxinl1.obj
 0001:00084532       ?SetAt@CPtrArray@@QAEXHPAX@Z 5f485532 f afxinl1.obj
 0001:0008458a       ?ElementAt@CPtrArray@@QAEAAPAXH@Z 5f48558a f afxinl1.obj
 0001:000845df       ?GetData@CPtrArray@@QBEPAPBXXZ 5f4855df f afxinl1.obj
 0001:000845fb       ?GetData@CPtrArray@@QAEPAPAXXZ 5f4855fb f afxinl1.obj
 0001:00084617       ?Add@CPtrArray@@QAEHPAX@Z  5f485617 f afxinl1.obj
 0001:0008464b       ??ACPtrArray@@QBEPAXH@Z    5f48564b f afxinl1.obj
 0001:0008466f       ??ACPtrArray@@QAEAAPAXH@Z  5f48566f f afxinl1.obj
 0001:00084693       ?GetSize@CObArray@@QBEHXZ  5f485693 f afxinl1.obj
 0001:000846af       ?GetUpperBound@CObArray@@QBEHXZ 5f4856af f afxinl1.obj
 0001:000846cc       ?RemoveAll@CObArray@@QAEXXZ 5f4856cc f afxinl1.obj
 0001:000846ee       ?GetAt@CObArray@@QBEPAVCObject@@H@Z 5f4856ee f afxinl1.obj
 0001:00084743       ?SetAt@CObArray@@QAEXHPAVCObject@@@Z 5f485743 f afxinl1.obj
 0001:0008479b       ?ElementAt@CObArray@@QAEAAPAVCObject@@H@Z 5f48579b f afxinl1.obj
 0001:000847f0       ?GetData@CObArray@@QBEPAPBVCObject@@XZ 5f4857f0 f afxinl1.obj
 0001:0008480c       ?GetData@CObArray@@QAEPAPAVCObject@@XZ 5f48580c f afxinl1.obj
 0001:00084828       ?Add@CObArray@@QAEHPAVCObject@@@Z 5f485828 f afxinl1.obj
 0001:0008485c       ??ACObArray@@QBEPAVCObject@@H@Z 5f48585c f afxinl1.obj
 0001:00084880       ??ACObArray@@QAEAAPAVCObject@@H@Z 5f485880 f afxinl1.obj
 0001:000848a4       ?GetSize@CStringArray@@QBEHXZ 5f4858a4 f afxinl1.obj
 0001:000848c0       ?GetUpperBound@CStringArray@@QBEHXZ 5f4858c0 f afxinl1.obj
 0001:000848dd       ?RemoveAll@CStringArray@@QAEXXZ 5f4858dd f afxinl1.obj
 0001:000848ff       ?GetAt@CStringArray@@QBE?AVCString@@H@Z 5f4858ff f afxinl1.obj
 0001:000849a7       ?SetAt@CStringArray@@QAEXHPBG@Z 5f4859a7 f afxinl1.obj
 0001:00084a05       ?ElementAt@CStringArray@@QAEAAVCString@@H@Z 5f485a05 f afxinl1.obj
 0001:00084a5a       ?GetData@CStringArray@@QBEPBVCString@@XZ 5f485a5a f afxinl1.obj
 0001:00084a76       ?GetData@CStringArray@@QAEPAVCString@@XZ 5f485a76 f afxinl1.obj
 0001:00084a92       ?Add@CStringArray@@QAEHPBG@Z 5f485a92 f afxinl1.obj
 0001:00084ac6       ??ACStringArray@@QBE?AVCString@@H@Z 5f485ac6 f afxinl1.obj
 0001:00084b38       ??ACStringArray@@QAEAAVCString@@H@Z 5f485b38 f afxinl1.obj
 0001:00084b5c       ?GetCount@CPtrList@@QBEHXZ 5f485b5c f afxinl1.obj
 0001:00084b78       ?IsEmpty@CPtrList@@QBEHXZ  5f485b78 f afxinl1.obj
 0001:00084ba7       ?GetHead@CPtrList@@QAEAAPAXXZ 5f485ba7 f afxinl1.obj
 0001:00084beb       ?GetHead@CPtrList@@QBEPAXXZ 5f485beb f afxinl1.obj
 0001:00084c2f       ?GetTail@CPtrList@@QAEAAPAXXZ 5f485c2f f afxinl1.obj
 0001:00084c73       ?GetTail@CPtrList@@QBEPAXXZ 5f485c73 f afxinl1.obj
 0001:00084cb7       ?GetHeadPosition@CPtrList@@QBEPAU__POSITION@@XZ 5f485cb7 f afxinl1.obj
 0001:00084cd3       ?GetTailPosition@CPtrList@@QBEPAU__POSITION@@XZ 5f485cd3 f afxinl1.obj
 0001:00084cef       ?GetNext@CPtrList@@QAEAAPAXAAPAU__POSITION@@@Z 5f485cef f afxinl1.obj
 0001:00084d4c       ?GetNext@CPtrList@@QBEPAXAAPAU__POSITION@@@Z 5f485d4c f afxinl1.obj
 0001:00084da9       ?GetPrev@CPtrList@@QAEAAPAXAAPAU__POSITION@@@Z 5f485da9 f afxinl1.obj
 0001:00084e07       ?GetPrev@CPtrList@@QBEPAXAAPAU__POSITION@@@Z 5f485e07 f afxinl1.obj
 0001:00084e65       ?GetAt@CPtrList@@QAEAAPAXPAU__POSITION@@@Z 5f485e65 f afxinl1.obj
 0001:00084eb6       ?GetAt@CPtrList@@QBEPAXPAU__POSITION@@@Z 5f485eb6 f afxinl1.obj
 0001:00084f07       ?SetAt@CPtrList@@QAEXPAU__POSITION@@PAX@Z 5f485f07 f afxinl1.obj
 0001:00084f5b       ?GetCount@CObList@@QBEHXZ  5f485f5b f afxinl1.obj
 0001:00084f77       ?IsEmpty@CObList@@QBEHXZ   5f485f77 f afxinl1.obj
 0001:00084fa6       ?GetHead@CObList@@QAEAAPAVCObject@@XZ 5f485fa6 f afxinl1.obj
 0001:00084fea       ?GetHead@CObList@@QBEPAVCObject@@XZ 5f485fea f afxinl1.obj
 0001:0008502e       ?GetTail@CObList@@QAEAAPAVCObject@@XZ 5f48602e f afxinl1.obj
 0001:00085072       ?GetTail@CObList@@QBEPAVCObject@@XZ 5f486072 f afxinl1.obj
 0001:000850b6       ?GetHeadPosition@CObList@@QBEPAU__POSITION@@XZ 5f4860b6 f afxinl1.obj
 0001:000850d2       ?GetTailPosition@CObList@@QBEPAU__POSITION@@XZ 5f4860d2 f afxinl1.obj
 0001:000850ee       ?GetNext@CObList@@QAEAAPAVCObject@@AAPAU__POSITION@@@Z 5f4860ee f afxinl1.obj
 0001:0008514b       ?GetNext@CObList@@QBEPAVCObject@@AAPAU__POSITION@@@Z 5f48614b f afxinl1.obj
 0001:000851a8       ?GetPrev@CObList@@QAEAAPAVCObject@@AAPAU__POSITION@@@Z 5f4861a8 f afxinl1.obj
 0001:00085206       ?GetPrev@CObList@@QBEPAVCObject@@AAPAU__POSITION@@@Z 5f486206 f afxinl1.obj
 0001:00085264       ?GetAt@CObList@@QAEAAPAVCObject@@PAU__POSITION@@@Z 5f486264 f afxinl1.obj
 0001:000852b5       ?GetAt@CObList@@QBEPAVCObject@@PAU__POSITION@@@Z 5f4862b5 f afxinl1.obj
 0001:00085306       ?SetAt@CObList@@QAEXPAU__POSITION@@PAVCObject@@@Z 5f486306 f afxinl1.obj
 0001:0008535a       ?GetCount@CStringList@@QBEHXZ 5f48635a f afxinl1.obj
 0001:00085376       ?IsEmpty@CStringList@@QBEHXZ 5f486376 f afxinl1.obj
 0001:000853a5       ?GetHead@CStringList@@QAEAAVCString@@XZ 5f4863a5 f afxinl1.obj
 0001:000853e9       ?GetHead@CStringList@@QBE?AVCString@@XZ 5f4863e9 f afxinl1.obj
 0001:00085482       ?GetTail@CStringList@@QAEAAVCString@@XZ 5f486482 f afxinl1.obj
 0001:000854c6       ?GetTail@CStringList@@QBE?AVCString@@XZ 5f4864c6 f afxinl1.obj
 0001:0008555f       ?GetHeadPosition@CStringList@@QBEPAU__POSITION@@XZ 5f48655f f afxinl1.obj
 0001:0008557b       ?GetTailPosition@CStringList@@QBEPAU__POSITION@@XZ 5f48657b f afxinl1.obj
 0001:00085597       ?GetNext@CStringList@@QAEAAVCString@@AAPAU__POSITION@@@Z 5f486597 f afxinl1.obj
 0001:000855f4       ?GetNext@CStringList@@QBE?AVCString@@AAPAU__POSITION@@@Z 5f4865f4 f afxinl1.obj
 0001:000856a4       ?GetPrev@CStringList@@QAEAAVCString@@AAPAU__POSITION@@@Z 5f4866a4 f afxinl1.obj
 0001:00085702       ?GetPrev@CStringList@@QBE?AVCString@@AAPAU__POSITION@@@Z 5f486702 f afxinl1.obj
 0001:000857b3       ?GetAt@CStringList@@QAEAAVCString@@PAU__POSITION@@@Z 5f4867b3 f afxinl1.obj
 0001:00085804       ?GetAt@CStringList@@QBE?AVCString@@PAU__POSITION@@@Z 5f486804 f afxinl1.obj
 0001:000858a8       ?SetAt@CStringList@@QAEXPAU__POSITION@@PBG@Z 5f4868a8 f afxinl1.obj
 0001:00085902       ?GetCount@CMapWordToPtr@@QBEHXZ 5f486902 f afxinl1.obj
 0001:0008591e       ?IsEmpty@CMapWordToPtr@@QBEHXZ 5f48691e f afxinl1.obj
 0001:0008594d       ?SetAt@CMapWordToPtr@@QAEXGPAX@Z 5f48694d f afxinl1.obj
 0001:0008597c       ?GetStartPosition@CMapWordToPtr@@QBEPAU__POSITION@@XZ 5f48697c f afxinl1.obj
 0001:000859ab       ?GetHashTableSize@CMapWordToPtr@@QBEIXZ 5f4869ab f afxinl1.obj
 0001:000859c7       ?GetCount@CMapPtrToWord@@QBEHXZ 5f4869c7 f afxinl1.obj
 0001:000859e3       ?IsEmpty@CMapPtrToWord@@QBEHXZ 5f4869e3 f afxinl1.obj
 0001:00085a12       ?SetAt@CMapPtrToWord@@QAEXPAXG@Z 5f486a12 f afxinl1.obj
 0001:00085a43       ?GetStartPosition@CMapPtrToWord@@QBEPAU__POSITION@@XZ 5f486a43 f afxinl1.obj
 0001:00085a72       ?GetHashTableSize@CMapPtrToWord@@QBEIXZ 5f486a72 f afxinl1.obj
 0001:00085a8e       ?GetCount@CMapPtrToPtr@@QBEHXZ 5f486a8e f afxinl1.obj
 0001:00085aaa       ?IsEmpty@CMapPtrToPtr@@QBEHXZ 5f486aaa f afxinl1.obj
 0001:00085ad9       ?SetAt@CMapPtrToPtr@@QAEXPAX0@Z 5f486ad9 f afxinl1.obj
 0001:00085b08       ?GetStartPosition@CMapPtrToPtr@@QBEPAU__POSITION@@XZ 5f486b08 f afxinl1.obj
 0001:00085b37       ?GetHashTableSize@CMapPtrToPtr@@QBEIXZ 5f486b37 f afxinl1.obj
 0001:00085b53       ?GetCount@CMapWordToOb@@QBEHXZ 5f486b53 f afxinl1.obj
 0001:00085b6f       ?IsEmpty@CMapWordToOb@@QBEHXZ 5f486b6f f afxinl1.obj
 0001:00085b9e       ?SetAt@CMapWordToOb@@QAEXGPAVCObject@@@Z 5f486b9e f afxinl1.obj
 0001:00085bcd       ?GetStartPosition@CMapWordToOb@@QBEPAU__POSITION@@XZ 5f486bcd f afxinl1.obj
 0001:00085bfc       ?GetHashTableSize@CMapWordToOb@@QBEIXZ 5f486bfc f afxinl1.obj
 0001:00085c18       ?GetCount@CMapStringToPtr@@QBEHXZ 5f486c18 f afxinl1.obj
 0001:00085c34       ?IsEmpty@CMapStringToPtr@@QBEHXZ 5f486c34 f afxinl1.obj
 0001:00085c63       ?SetAt@CMapStringToPtr@@QAEXPBGPAX@Z 5f486c63 f afxinl1.obj
 0001:00085c92       ?GetStartPosition@CMapStringToPtr@@QBEPAU__POSITION@@XZ 5f486c92 f afxinl1.obj
 0001:00085cc1       ?GetHashTableSize@CMapStringToPtr@@QBEIXZ 5f486cc1 f afxinl1.obj
 0001:00085cdd       ?GetCount@CMapStringToOb@@QBEHXZ 5f486cdd f afxinl1.obj
 0001:00085cf9       ?IsEmpty@CMapStringToOb@@QBEHXZ 5f486cf9 f afxinl1.obj
 0001:00085d28       ?SetAt@CMapStringToOb@@QAEXPBGPAVCObject@@@Z 5f486d28 f afxinl1.obj
 0001:00085d57       ?GetStartPosition@CMapStringToOb@@QBEPAU__POSITION@@XZ 5f486d57 f afxinl1.obj
 0001:00085d86       ?GetHashTableSize@CMapStringToOb@@QBEIXZ 5f486d86 f afxinl1.obj
 0001:00085da2       ?GetCount@CMapStringToString@@QBEHXZ 5f486da2 f afxinl1.obj
 0001:00085dbe       ?IsEmpty@CMapStringToString@@QBEHXZ 5f486dbe f afxinl1.obj
 0001:00085ded       ?SetAt@CMapStringToString@@QAEXPBG0@Z 5f486ded f afxinl1.obj
 0001:00085e1c       ?GetStartPosition@CMapStringToString@@QBEPAU__POSITION@@XZ 5f486e1c f afxinl1.obj
 0001:00085e4b       ?GetHashTableSize@CMapStringToString@@QBEIXZ 5f486e4b f afxinl1.obj
 0001:00085e67       ??0CCommonDialog@@QAE@PAVCWnd@@@Z 5f486e67 f afxinl1.obj
 0001:00085ede       ?GetReadOnlyPref@CFileDialog@@QBEHXZ 5f486ede f afxinl1.obj
 0001:00085f10       ?SetTemplate@CFileDialog@@QAEXII@Z 5f486f10 f afxinl1.obj
 0001:00085f42       ?GetStartPosition@CFileDialog@@QBEPAU__POSITION@@XZ 5f486f42 f afxinl1.obj
 0001:00085f5e       ?GetFaceName@CFontDialog@@QBE?AVCString@@XZ 5f486f5e f afxinl1.obj
 0001:00085fd2       ?GetStyleName@CFontDialog@@QBE?AVCString@@XZ 5f486fd2 f afxinl1.obj
 0001:00086046       ?GetSize@CFontDialog@@QBEHXZ 5f487046 f afxinl1.obj
 0001:00086062       ?GetWeight@CFontDialog@@QBEHXZ 5f487062 f afxinl1.obj
 0001:00086081       ?IsItalic@CFontDialog@@QBEHXZ 5f487081 f afxinl1.obj
 0001:000860b6       ?IsStrikeOut@CFontDialog@@QBEHXZ 5f4870b6 f afxinl1.obj
 0001:000860eb       ?IsBold@CFontDialog@@QBEHXZ 5f4870eb f afxinl1.obj
 0001:00086120       ?IsUnderline@CFontDialog@@QBEHXZ 5f487120 f afxinl1.obj
 0001:00086155       ?GetColor@CFontDialog@@QBEKXZ 5f487155 f afxinl1.obj
 0001:00086171       ?GetColor@CColorDialog@@QBEKXZ 5f487171 f afxinl1.obj
 0001:0008618d       ?PrintSelection@CPrintDialog@@QBEHXZ 5f48718d f afxinl1.obj
 0001:000861bf       ?PrintRange@CPrintDialog@@QBEHXZ 5f4871bf f afxinl1.obj
 0001:000861f1       ?PrintAll@CPrintDialog@@QBEHXZ 5f4871f1 f afxinl1.obj
 0001:00086233       ?PrintCollate@CPrintDialog@@QBEHXZ 5f487233 f afxinl1.obj
 0001:00086265       ?GetFromPage@CPrintDialog@@QBEHXZ 5f487265 f afxinl1.obj
 0001:000862a3       ?GetToPage@CPrintDialog@@QBEHXZ 5f4872a3 f afxinl1.obj
 0001:000862e1       ?GetPrinterDC@CPrintDialog@@QBEPAUHDC__@@XZ 5f4872e1 f afxinl1.obj
 0001:00086335       ?IsTerminating@CFindReplaceDialog@@QBEHXZ 5f487335 f afxinl1.obj
 0001:00086364       ?GetReplaceString@CFindReplaceDialog@@QBE?AVCString@@XZ 5f487364 f afxinl1.obj
 0001:000863d5       ?GetFindString@CFindReplaceDialog@@QBE?AVCString@@XZ 5f4873d5 f afxinl1.obj
 0001:00086446       ?SearchDown@CFindReplaceDialog@@QBEHXZ 5f487446 f afxinl1.obj
 0001:00086475       ?FindNext@CFindReplaceDialog@@QBEHXZ 5f487475 f afxinl1.obj
 0001:000864a4       ?MatchCase@CFindReplaceDialog@@QBEHXZ 5f4874a4 f afxinl1.obj
 0001:000864d3       ?MatchWholeWord@CFindReplaceDialog@@QBEHXZ 5f4874d3 f afxinl1.obj
 0001:00086502       ?ReplaceCurrent@CFindReplaceDialog@@QBEHXZ 5f487502 f afxinl1.obj
 0001:00086531       ?ReplaceAll@CFindReplaceDialog@@QBEHXZ 5f487531 f afxinl1.obj
 0001:00086560       ?GetPage@CPropertySheet@@QBEPAVCPropertyPage@@H@Z 5f487560 f afxinl1.obj
 0001:00086595       ?SetWizardMode@CPropertySheet@@QAEXXZ 5f487595 f afxinl1.obj
 0001:000865b2       ?SetFinishText@CPropertySheet@@QAEXPBG@Z 5f4875b2 f afxinl1.obj
 0001:0008660c       ?SetWizardButtons@CPropertySheet@@QAEXK@Z 5f48760c f afxinl1.obj
 0001:00086666       ?GetTabControl@CPropertySheet@@QBEPAVCTabCtrl@@XZ 5f487666 f afxinl1.obj
 0001:000866c2       ?PressButton@CPropertySheet@@QAEHH@Z 5f4876c2 f afxinl1.obj
 0001:0008671c       ?GetPaperSize@CPageSetupDialog@@QBE?AVCSize@@XZ 5f48771c f afxinl1.obj
 0001:0008674d       ??0CCreateContext@@QAE@XZ  5f48774d f afxinl1.obj
 0001:00086776       ?Create@CMetaFileDC@@QAEHPBG@Z 5f487776 f afxinl1.obj
 0001:000867a1       ?Close@CMetaFileDC@@QAEPAUHMETAFILE__@@XZ 5f4877a1 f afxinl1.obj
 0001:000867c6       ?CreateEnhanced@CMetaFileDC@@QAEHPAVCDC@@PBGPBUtagRECT@@1@Z 5f4877c6 f afxinl1.obj
 0001:00086802       ?CloseEnhanced@CMetaFileDC@@QAEPAUHENHMETAFILE__@@XZ 5f487802 f afxinl1.obj
 0001:00086827       ?SetViewportOrg@CMetaFileDC@@QAE?AVCPoint@@UtagPOINT@@@Z 5f487827 f afxinl1.obj
 0001:0008687b       ?SetViewportExt@CMetaFileDC@@QAE?AVCSize@@UtagSIZE@@@Z 5f48787b f afxinl1.obj
 0001:000868cf       ?TextOutW@CMetaFileDC@@QAEHHHABVCString@@@Z 5f4878cf f afxinl1.obj
 0001:0008692e       ?ExtTextOutW@CMetaFileDC@@QAEHHHIPBUtagRECT@@ABVCString@@PAH@Z 5f48792e f afxinl1.obj
 0001:0008699b       ?TabbedTextOutW@CMetaFileDC@@QAE?AVCSize@@HHABVCString@@HPAHH@Z 5f48799b f afxinl1.obj
 0001:00086a14       ?DrawTextW@CMetaFileDC@@QAEHABVCString@@PAUtagRECT@@I@Z 5f487a14 f afxinl1.obj
 0001:00086a73       ?PtVisible@CMetaFileDC@@QBEHUtagPOINT@@@Z 5f487a73 f afxinl1.obj
 0001:00086ac0       ?GetRowCount@CSplitterWnd@@QBEHXZ 5f487ac0 f afxinl1.obj
 0001:00086adc       ?GetColumnCount@CSplitterWnd@@QBEHXZ 5f487adc f afxinl1.obj
 0001:00086af8       ?IsChildPane@CSplitterWnd@@QAEHPAVCWnd@@AAH1@Z 5f487af8 f afxinl1.obj
 0001:00086b24       ?GetActivePane@CSplitterWnd@@IAEPAVCWnd@@AAH0@Z 5f487b24 f afxinl1.obj
 0001:00086b52       ?IsTracking@CSplitterWnd@@QAEHXZ 5f487b52 f afxinl1.obj
 0001:00086b71       ?GetCount@CControlBar@@QBEHXZ 5f487b71 f afxinl1.obj
 0001:00086b8d       ?GetBarStyle@CControlBar@@QAEKXZ 5f487b8d f afxinl1.obj
 0001:00086ba9       ?LoadToolBar@CToolBar@@QAEHI@Z 5f487ba9 f afxinl1.obj
 0001:00086bd2       ?LoadBitmapW@CToolBar@@QAEHI@Z 5f487bd2 f afxinl1.obj
 0001:00086bfb       ?GetToolBarCtrl@CToolBar@@QBEAAVCToolBarCtrl@@XZ 5f487bfb f afxinl1.obj
 0001:00086c14       ?Create@CDialogBar@@QAEHPAVCWnd@@III@Z 5f487c14 f afxinl1.obj
 0001:00086c49       ?GetStatusBarCtrl@CStatusBar@@QBEAAVCStatusBarCtrl@@XZ 5f487c49 f afxinl1.obj
 0001:00086c62       ?EnableDocking@CStatusBar@@QAEXK@Z 5f487c62 f afxinl1.obj
 0001:00086c8f       ??0CRectTracker@@QAE@XZ    5f487c8f f afxinl1.obj
 0001:00086ce5       ??0CBitmapButton@@QAE@XZ   5f487ce5 f afxinl1.obj
 0001:00086dc0       ?LoadBitmaps@CBitmapButton@@QAEHIIII@Z 5f487dc0 f afxinl1.obj
 0001:00086e04       ?SetMinPage@CPrintInfo@@QAEXI@Z 5f487e04 f afxinl1.obj
 0001:00086e2b       ?SetMaxPage@CPrintInfo@@QAEXI@Z 5f487e2b f afxinl1.obj
 0001:00086e52       ?GetMinPage@CPrintInfo@@QBEIXZ 5f487e52 f afxinl1.obj
 0001:00086e78       ?GetMaxPage@CPrintInfo@@QBEIXZ 5f487e78 f afxinl1.obj
 0001:00086e9e       ?GetFromPage@CPrintInfo@@QBEIXZ 5f487e9e f afxinl1.obj
 0001:00086ec4       ?GetToPage@CPrintInfo@@QBEIXZ 5f487ec4 f afxinl1.obj
 0001:00086eea       ?GetEditCtrl@CEditView@@QBEAAVCEdit@@XZ 5f487eea f afxinl1.obj
 0001:00086f10       ??_ECObject@@UAEPAXI@Z     5f487f10 f afxinl1.obj
 0001:00086f10       ??_GCObject@@UAEPAXI@Z     5f487f10 f afxinl1.obj
 0001:00086f50       ??_GCSimpleException@@UAEPAXI@Z 5f487f50 f afxinl1.obj
 0001:00086f50       ??_ECSimpleException@@UAEPAXI@Z 5f487f50 f afxinl1.obj
 0001:00086f90       ??_GCMemoryException@@UAEPAXI@Z 5f487f90 f afxinl1.obj
 0001:00086f90       ??_ECMemoryException@@UAEPAXI@Z 5f487f90 f afxinl1.obj
 0001:00086fd0       ??_GCNotSupportedException@@UAEPAXI@Z 5f487fd0 f afxinl1.obj
 0001:00086fd0       ??_ECNotSupportedException@@UAEPAXI@Z 5f487fd0 f afxinl1.obj
 0001:00087010       ??_ECArchiveException@@UAEPAXI@Z 5f488010 f afxinl1.obj
 0001:00087010       ??_GCArchiveException@@UAEPAXI@Z 5f488010 f afxinl1.obj
 0001:00087050       ??_GCFileException@@UAEPAXI@Z 5f488050 f afxinl1.obj
 0001:00087050       ??_ECFileException@@UAEPAXI@Z 5f488050 f afxinl1.obj
 0001:00087090       ??_ECCommonDialog@@UAEPAXI@Z 5f488090 f afxinl1.obj
 0001:00087090       ??_GCCommonDialog@@UAEPAXI@Z 5f488090 f afxinl1.obj
 0001:000870d0       ??1CCommonDialog@@UAE@XZ   5f4880d0 f afxinl1.obj
 0001:00087130       ??_GCRectTracker@@UAEPAXI@Z 5f488130 f afxinl1.obj
 0001:00087170       ??_GCBitmapButton@@UAEPAXI@Z 5f488170 f afxinl1.obj
 0001:000871b0       ??1CBitmapButton@@UAE@XZ   5f4881b0 f afxinl1.obj
 0001:00087280       ?_AfxTraceMsg@@YGXPBGPBUtagMSG@@@Z 5f488280 f afxtrace.obj
 0001:00087780       ?AfxGetApp@@YGPAVCWinApp@@XZ 5f488780 f afxinl2.obj
 0001:00087798       ?AfxGetInstanceHandle@@YGPAUHINSTANCE__@@XZ 5f488798 f afxinl2.obj
 0001:000877d4       ?AfxGetResourceHandle@@YGPAUHINSTANCE__@@XZ 5f4887d4 f afxinl2.obj
 0001:00087810       ?AfxSetResourceHandle@@YGXPAUHINSTANCE__@@@Z 5f488810 f afxinl2.obj
 0001:00087855       ?AfxGetAppName@@YGPBGXZ    5f488855 f afxinl2.obj
 0001:00087891       ?AfxOleGetMessageFilter@@YGPAVCOleMessageFilter@@XZ 5f488891 f afxinl2.obj
 0001:000878bb       ?AfxGetMainWnd@@YGPAVCWnd@@XZ 5f4888bb f afxinl2.obj
 0001:000878fb       ??0AFX_MAINTAIN_STATE@@QAE@PAVAFX_MODULE_STATE@@@Z 5f4888fb f afxinl2.obj
 0001:00087924       ??0CSize@@QAE@XZ           5f488924 f afxinl2.obj
 0001:0008793d       ??0CSize@@QAE@HH@Z         5f48893d f afxinl2.obj
 0001:00087969       ??0CSize@@QAE@UtagSIZE@@@Z 5f488969 f afxinl2.obj
 0001:00087992       ??0CSize@@QAE@UtagPOINT@@@Z 5f488992 f afxinl2.obj
 0001:000879bb       ??0CSize@@QAE@K@Z          5f4889bb f afxinl2.obj
 0001:000879f3       ??8CSize@@QBEHUtagSIZE@@@Z 5f4889f3 f afxinl2.obj
 0001:00087a34       ??9CSize@@QBEHUtagSIZE@@@Z 5f488a34 f afxinl2.obj
 0001:00087a75       ??YCSize@@QAEXUtagSIZE@@@Z 5f488a75 f afxinl2.obj
 0001:00087a9e       ??ZCSize@@QAEXUtagSIZE@@@Z 5f488a9e f afxinl2.obj
 0001:00087acf       ??HCSize@@QBE?AV0@UtagSIZE@@@Z 5f488acf f afxinl2.obj
 0001:00087b05       ??GCSize@@QBE?AV0@UtagSIZE@@@Z 5f488b05 f afxinl2.obj
 0001:00087b3b       ??GCSize@@QBE?AV0@XZ       5f488b3b f afxinl2.obj
 0001:00087b6f       ??HCSize@@QBE?AVCPoint@@UtagPOINT@@@Z 5f488b6f f afxinl2.obj
 0001:00087ba5       ??GCSize@@QBE?AVCPoint@@UtagPOINT@@@Z 5f488ba5 f afxinl2.obj
 0001:00087bdb       ??HCSize@@QBE?AVCRect@@PBUtagRECT@@@Z 5f488bdb f afxinl2.obj
 0001:00087c17       ??GCSize@@QBE?AVCRect@@PBUtagRECT@@@Z 5f488c17 f afxinl2.obj
 0001:00087c53       ??0CPoint@@QAE@XZ          5f488c53 f afxinl2.obj
 0001:00087c6c       ??0CPoint@@QAE@HH@Z        5f488c6c f afxinl2.obj
 0001:00087c98       ??0CPoint@@QAE@UtagPOINT@@@Z 5f488c98 f afxinl2.obj
 0001:00087cc1       ??0CPoint@@QAE@UtagSIZE@@@Z 5f488cc1 f afxinl2.obj
 0001:00087cea       ??0CPoint@@QAE@K@Z         5f488cea f afxinl2.obj
 0001:00087d22       ?Offset@CPoint@@QAEXHH@Z   5f488d22 f afxinl2.obj
 0001:00087d4b       ?Offset@CPoint@@QAEXUtagPOINT@@@Z 5f488d4b f afxinl2.obj
 0001:00087d74       ?Offset@CPoint@@QAEXUtagSIZE@@@Z 5f488d74 f afxinl2.obj
 0001:00087d9d       ??8CPoint@@QBEHUtagPOINT@@@Z 5f488d9d f afxinl2.obj
 0001:00087dde       ??9CPoint@@QBEHUtagPOINT@@@Z 5f488dde f afxinl2.obj
 0001:00087e1f       ??YCPoint@@QAEXUtagSIZE@@@Z 5f488e1f f afxinl2.obj
 0001:00087e48       ??ZCPoint@@QAEXUtagSIZE@@@Z 5f488e48 f afxinl2.obj
 0001:00087e79       ??YCPoint@@QAEXUtagPOINT@@@Z 5f488e79 f afxinl2.obj
 0001:00087ea2       ??ZCPoint@@QAEXUtagPOINT@@@Z 5f488ea2 f afxinl2.obj
 0001:00087ed3       ??HCPoint@@QBE?AV0@UtagSIZE@@@Z 5f488ed3 f afxinl2.obj
 0001:00087f09       ??GCPoint@@QBE?AV0@UtagSIZE@@@Z 5f488f09 f afxinl2.obj
 0001:00087f3f       ??GCPoint@@QBE?AV0@XZ      5f488f3f f afxinl2.obj
 0001:00087f73       ??HCPoint@@QBE?AV0@UtagPOINT@@@Z 5f488f73 f afxinl2.obj
 0001:00087fa9       ??GCPoint@@QBE?AVCSize@@UtagPOINT@@@Z 5f488fa9 f afxinl2.obj
 0001:00087fdf       ??HCPoint@@QBE?AVCRect@@PBUtagRECT@@@Z 5f488fdf f afxinl2.obj
 0001:0008801b       ??GCPoint@@QBE?AVCRect@@PBUtagRECT@@@Z 5f48901b f afxinl2.obj
 0001:00088057       ??0CRect@@QAE@XZ           5f489057 f afxinl2.obj
 0001:00088070       ??0CRect@@QAE@HHHH@Z       5f489070 f afxinl2.obj
 0001:000880ae       ??0CRect@@QAE@ABUtagRECT@@@Z 5f4890ae f afxinl2.obj
 0001:000880d7       ??0CRect@@QAE@PBUtagRECT@@@Z 5f4890d7 f afxinl2.obj
 0001:00088100       ??0CRect@@QAE@UtagPOINT@@UtagSIZE@@@Z 5f489100 f afxinl2.obj
 0001:00088149       ??0CRect@@QAE@UtagPOINT@@0@Z 5f489149 f afxinl2.obj
 0001:00088187       ?Width@CRect@@QBEHXZ       5f489187 f afxinl2.obj
 0001:000881a8       ?Height@CRect@@QBEHXZ      5f4891a8 f afxinl2.obj
 0001:000881ca       ?Size@CRect@@QBE?AVCSize@@XZ 5f4891ca f afxinl2.obj
 0001:00088206       ?TopLeft@CRect@@QAEAAVCPoint@@XZ 5f489206 f afxinl2.obj
 0001:0008821f       ?BottomRight@CRect@@QAEAAVCPoint@@XZ 5f48921f f afxinl2.obj
 0001:0008823b       ?TopLeft@CRect@@QBEABVCPoint@@XZ 5f48923b f afxinl2.obj
 0001:00088254       ?BottomRight@CRect@@QBEABVCPoint@@XZ 5f489254 f afxinl2.obj
 0001:00088270       ?CenterPoint@CRect@@QBE?AVCPoint@@XZ 5f489270 f afxinl2.obj
 0001:000882b8       ??BCRect@@QAEPAUtagRECT@@XZ 5f4892b8 f afxinl2.obj
 0001:000882d1       ??BCRect@@QBEPBUtagRECT@@XZ 5f4892d1 f afxinl2.obj
 0001:000882ea       ?IsRectEmpty@CRect@@QBEHXZ 5f4892ea f afxinl2.obj
 0001:0008830a       ?IsRectNull@CRect@@QBEHXZ  5f48930a f afxinl2.obj
 0001:0008835f       ?PtInRect@CRect@@QBEHUtagPOINT@@@Z 5f48935f f afxinl2.obj
 0001:00088389       ?SetRect@CRect@@QAEXHHHH@Z 5f489389 f afxinl2.obj
 0001:000883bb       ?SetRect@CRect@@QAEXUtagPOINT@@0@Z 5f4893bb f afxinl2.obj
 0001:000883ed       ?SetRectEmpty@CRect@@QAEXXZ 5f4893ed f afxinl2.obj
 0001:0008840d       ?CopyRect@CRect@@QAEXPBUtagRECT@@@Z 5f48940d f afxinl2.obj
 0001:00088433       ?EqualRect@CRect@@QBEHPBUtagRECT@@@Z 5f489433 f afxinl2.obj
 0001:00088459       ?InflateRect@CRect@@QAEXHH@Z 5f489459 f afxinl2.obj
 0001:00088483       ?InflateRect@CRect@@QAEXUtagSIZE@@@Z 5f489483 f afxinl2.obj
 0001:000884ad       ?DeflateRect@CRect@@QAEXHH@Z 5f4894ad f afxinl2.obj
 0001:000884db       ?DeflateRect@CRect@@QAEXUtagSIZE@@@Z 5f4894db f afxinl2.obj
 0001:00088509       ?OffsetRect@CRect@@QAEXHH@Z 5f489509 f afxinl2.obj
 0001:00088533       ?OffsetRect@CRect@@QAEXUtagPOINT@@@Z 5f489533 f afxinl2.obj
 0001:0008855d       ?OffsetRect@CRect@@QAEXUtagSIZE@@@Z 5f48955d f afxinl2.obj
 0001:00088587       ?IntersectRect@CRect@@QAEHPBUtagRECT@@0@Z 5f489587 f afxinl2.obj
 0001:000885b1       ?UnionRect@CRect@@QAEHPBUtagRECT@@0@Z 5f4895b1 f afxinl2.obj
 0001:000885db       ??4CRect@@QAEXABUtagRECT@@@Z 5f4895db f afxinl2.obj
 0001:00088601       ??8CRect@@QBEHABUtagRECT@@@Z 5f489601 f afxinl2.obj
 0001:00088627       ??9CRect@@QBEHABUtagRECT@@@Z 5f489627 f afxinl2.obj
 0001:00088661       ??YCRect@@QAEXUtagPOINT@@@Z 5f489661 f afxinl2.obj
 0001:0008868b       ??YCRect@@QAEXUtagSIZE@@@Z 5f48968b f afxinl2.obj
 0001:000886b5       ??YCRect@@QAEXPBUtagRECT@@@Z 5f4896b5 f afxinl2.obj
 0001:000886d9       ??ZCRect@@QAEXUtagPOINT@@@Z 5f4896d9 f afxinl2.obj
 0001:00088707       ??ZCRect@@QAEXUtagSIZE@@@Z 5f489707 f afxinl2.obj
 0001:00088735       ??ZCRect@@QAEXPBUtagRECT@@@Z 5f489735 f afxinl2.obj
 0001:00088759       ??_4CRect@@QAEXABUtagRECT@@@Z 5f489759 f afxinl2.obj
 0001:00088783       ??_5CRect@@QAEXABUtagRECT@@@Z 5f489783 f afxinl2.obj
 0001:000887ad       ??HCRect@@QBE?AV0@UtagPOINT@@@Z 5f4897ad f afxinl2.obj
 0001:00088812       ??GCRect@@QBE?AV0@UtagPOINT@@@Z 5f489812 f afxinl2.obj
 0001:0008887b       ??HCRect@@QBE?AV0@UtagSIZE@@@Z 5f48987b f afxinl2.obj
 0001:000888e0       ??GCRect@@QBE?AV0@UtagSIZE@@@Z 5f4898e0 f afxinl2.obj
 0001:00088949       ??HCRect@@QBE?AV0@PBUtagRECT@@@Z 5f489949 f afxinl2.obj
 0001:00088998       ??GCRect@@QBE?AV0@PBUtagRECT@@@Z 5f489998 f afxinl2.obj
 0001:000889e7       ??ICRect@@QBE?AV0@ABUtagRECT@@@Z 5f4899e7 f afxinl2.obj
 0001:00088a38       ??UCRect@@QBE?AV0@ABUtagRECT@@@Z 5f489a38 f afxinl2.obj
 0001:00088a89       ?SubtractRect@CRect@@QAEHPBUtagRECT@@0@Z 5f489a89 f afxinl2.obj
 0001:00088ab3       ??6@YGAAVCArchive@@AAV0@UtagSIZE@@@Z 5f489ab3 f afxinl2.obj
 0001:00088ad6       ??6@YGAAVCArchive@@AAV0@UtagPOINT@@@Z 5f489ad6 f afxinl2.obj
 0001:00088af9       ??6@YGAAVCArchive@@AAV0@ABUtagRECT@@@Z 5f489af9 f afxinl2.obj
 0001:00088b1c       ??5@YGAAVCArchive@@AAV0@AAUtagSIZE@@@Z 5f489b1c f afxinl2.obj
 0001:00088b3f       ??5@YGAAVCArchive@@AAV0@AAUtagPOINT@@@Z 5f489b3f f afxinl2.obj
 0001:00088b62       ??5@YGAAVCArchive@@AAV0@AAUtagRECT@@@Z 5f489b62 f afxinl2.obj
 0001:00088b85       ??0CResourceException@@QAE@XZ 5f489b85 f afxinl2.obj
 0001:00088bf4       ??0CResourceException@@QAE@HI@Z 5f489bf4 f afxinl2.obj
 0001:00088c75       ??1CResourceException@@UAE@XZ 5f489c75 f afxinl2.obj
 0001:00088cdd       ??0CUserException@@QAE@XZ  5f489cdd f afxinl2.obj
 0001:00088d4c       ??0CUserException@@QAE@HI@Z 5f489d4c f afxinl2.obj
 0001:00088dcd       ??1CUserException@@UAE@XZ  5f489dcd f afxinl2.obj
 0001:00088e35       ??BCGdiObject@@QBEPAXXZ    5f489e35 f afxinl2.obj
 0001:00088e62       ?GetSafeHandle@CGdiObject@@QBEPAXXZ 5f489e62 f afxinl2.obj
 0001:00088e8f       ??0CGdiObject@@QAE@XZ      5f489e8f f afxinl2.obj
 0001:00088f08       ??1CGdiObject@@UAE@XZ      5f489f08 f afxinl2.obj
 0001:00088f78       ?GetObjectW@CGdiObject@@QBEHHPAX@Z 5f489f78 f afxinl2.obj
 0001:00088fca       ?CreateStockObject@CGdiObject@@QAEHH@Z 5f489fca f afxinl2.obj
 0001:0008900b       ?UnrealizeObject@CGdiObject@@QAEHXZ 5f48a00b f afxinl2.obj
 0001:00089053       ?GetObjectType@CGdiObject@@QBEIXZ 5f48a053 f afxinl2.obj
 0001:00089076       ??BCPen@@QBEPAUHPEN__@@XZ  5f48a076 f afxinl2.obj
 0001:000890a3       ?FromHandle@CPen@@SGPAV1@PAUHPEN__@@@Z 5f48a0a3 f afxinl2.obj
 0001:000890be       ??0CPen@@QAE@XZ            5f48a0be f afxinl2.obj
 0001:0008912d       ??1CPen@@UAE@XZ            5f48a12d f afxinl2.obj
 0001:00089195       ?CreatePen@CPen@@QAEHHHK@Z 5f48a195 f afxinl2.obj
 0001:000891c8       ?CreatePenIndirect@CPen@@QAEHPAUtagLOGPEN@@@Z 5f48a1c8 f afxinl2.obj
 0001:000891f3       ?CreatePen@CPen@@QAEHHHPBUtagLOGBRUSH@@HPBK@Z 5f48a1f3 f afxinl2.obj
 0001:0008922e       ?GetExtLogPen@CPen@@QAEHPAUtagEXTLOGPEN@@@Z 5f48a22e f afxinl2.obj
 0001:0008927e       ?GetLogPen@CPen@@QAEHPAUtagLOGPEN@@@Z 5f48a27e f afxinl2.obj
 0001:000892ce       ??BCBrush@@QBEPAUHBRUSH__@@XZ 5f48a2ce f afxinl2.obj
 0001:000892fb       ?FromHandle@CBrush@@SGPAV1@PAUHBRUSH__@@@Z 5f48a2fb f afxinl2.obj
 0001:00089316       ??0CBrush@@QAE@XZ          5f48a316 f afxinl2.obj
 0001:00089385       ??1CBrush@@UAE@XZ          5f48a385 f afxinl2.obj
 0001:000893ed       ?CreateSolidBrush@CBrush@@QAEHK@Z 5f48a3ed f afxinl2.obj
 0001:00089418       ?CreateHatchBrush@CBrush@@QAEHHK@Z 5f48a418 f afxinl2.obj
 0001:00089447       ?CreateBrushIndirect@CBrush@@QAEHPBUtagLOGBRUSH@@@Z 5f48a447 f afxinl2.obj
 0001:00089472       ?CreatePatternBrush@CBrush@@QAEHPAVCBitmap@@@Z 5f48a472 f afxinl2.obj
 0001:000894a2       ?CreateDIBPatternBrush@CBrush@@QAEHPBXI@Z 5f48a4a2 f afxinl2.obj
 0001:000894d1       ?CreateSysColorBrush@CBrush@@QAEHH@Z 5f48a4d1 f afxinl2.obj
 0001:000894fc       ?GetLogBrush@CBrush@@QAEHPAUtagLOGBRUSH@@@Z 5f48a4fc f afxinl2.obj
 0001:0008954c       ??BCFont@@QBEPAUHFONT__@@XZ 5f48a54c f afxinl2.obj
 0001:00089579       ?FromHandle@CFont@@SGPAV1@PAUHFONT__@@@Z 5f48a579 f afxinl2.obj
 0001:00089594       ??0CFont@@QAE@XZ           5f48a594 f afxinl2.obj
 0001:00089603       ??1CFont@@UAE@XZ           5f48a603 f afxinl2.obj
 0001:0008966b       ?CreateFontIndirectW@CFont@@QAEHPBUtagLOGFONTW@@@Z 5f48a66b f afxinl2.obj
 0001:00089696       ?CreateFontW@CFont@@QAEHHHHHHEEEEEEEEPBG@Z 5f48a696 f afxinl2.obj
 0001:00089705       ?GetLogFont@CFont@@QAEHPAUtagLOGFONTW@@@Z 5f48a705 f afxinl2.obj
 0001:00089755       ??BCBitmap@@QBEPAUHBITMAP__@@XZ 5f48a755 f afxinl2.obj
 0001:00089782       ?FromHandle@CBitmap@@SGPAV1@PAUHBITMAP__@@@Z 5f48a782 f afxinl2.obj
 0001:0008979d       ??0CBitmap@@QAE@XZ         5f48a79d f afxinl2.obj
 0001:0008980c       ??1CBitmap@@UAE@XZ         5f48a80c f afxinl2.obj
 0001:00089874       ?CreateBitmap@CBitmap@@QAEHHHIIPBX@Z 5f48a874 f afxinl2.obj
 0001:000898af       ?CreateBitmapIndirect@CBitmap@@QAEHPAUtagBITMAP@@@Z 5f48a8af f afxinl2.obj
 0001:000898da       ?SetBitmapBits@CBitmap@@QAEKKPBX@Z 5f48a8da f afxinl2.obj
 0001:00089907       ?GetBitmapBits@CBitmap@@QBEKKPAX@Z 5f48a907 f afxinl2.obj
 0001:00089934       ?LoadBitmapW@CBitmap@@QAEHPBG@Z 5f48a934 f afxinl2.obj
 0001:0008996b       ?LoadMappedBitmap@CBitmap@@QAEHIIPAU_COLORMAP@@H@Z 5f48a96b f afxinl2.obj
 0001:000899b8       ?SetBitmapDimension@CBitmap@@QAE?AVCSize@@HH@Z 5f48a9b8 f afxinl2.obj
 0001:00089a1c       ?GetBitmapDimension@CBitmap@@QBE?AVCSize@@XZ 5f48aa1c f afxinl2.obj
 0001:00089a78       ?LoadBitmapW@CBitmap@@QAEHI@Z 5f48aa78 f afxinl2.obj
 0001:00089ab9       ?LoadOEMBitmap@CBitmap@@QAEHI@Z 5f48aab9 f afxinl2.obj
 0001:00089aeb       ?CreateCompatibleBitmap@CBitmap@@QAEHPAVCDC@@HH@Z 5f48aaeb f afxinl2.obj
 0001:00089b21       ?CreateDiscardableBitmap@CBitmap@@QAEHPAVCDC@@HH@Z 5f48ab21 f afxinl2.obj
 0001:00089b57       ?GetBitmap@CBitmap@@QAEHPAUtagBITMAP@@@Z 5f48ab57 f afxinl2.obj
 0001:00089ba7       ??BCPalette@@QBEPAUHPALETTE__@@XZ 5f48aba7 f afxinl2.obj
 0001:00089bd4       ?FromHandle@CPalette@@SGPAV1@PAUHPALETTE__@@@Z 5f48abd4 f afxinl2.obj
 0001:00089bef       ??0CPalette@@QAE@XZ        5f48abef f afxinl2.obj
 0001:00089c5e       ??1CPalette@@UAE@XZ        5f48ac5e f afxinl2.obj
 0001:00089cc6       ?CreatePalette@CPalette@@QAEHPAUtagLOGPALETTE@@@Z 5f48acc6 f afxinl2.obj
 0001:00089cf1       ?CreateHalftonePalette@CPalette@@QAEHPAVCDC@@@Z 5f48acf1 f afxinl2.obj
 0001:00089d4e       ?GetPaletteEntries@CPalette@@QBEIIIPAUtagPALETTEENTRY@@@Z 5f48ad4e f afxinl2.obj
 0001:00089da4       ?SetPaletteEntries@CPalette@@QAEIIIPAUtagPALETTEENTRY@@@Z 5f48ada4 f afxinl2.obj
 0001:00089dfa       ?AnimatePalette@CPalette@@QAEXIIPAUtagPALETTEENTRY@@@Z 5f48adfa f afxinl2.obj
 0001:00089e50       ?GetNearestPaletteIndex@CPalette@@QBEIK@Z 5f48ae50 f afxinl2.obj
 0001:00089e9e       ?ResizePalette@CPalette@@QAEHI@Z 5f48ae9e f afxinl2.obj
 0001:00089eec       ?GetEntryCount@CPalette@@QAEHXZ 5f48aeec f afxinl2.obj
 0001:00089f42       ??BCRgn@@QBEPAUHRGN__@@XZ  5f48af42 f afxinl2.obj
 0001:00089f6f       ?FromHandle@CRgn@@SGPAV1@PAUHRGN__@@@Z 5f48af6f f afxinl2.obj
 0001:00089f8a       ??0CRgn@@QAE@XZ            5f48af8a f afxinl2.obj
 0001:00089ff9       ??1CRgn@@UAE@XZ            5f48aff9 f afxinl2.obj
 0001:0008a061       ?CreateRectRgn@CRgn@@QAEHHHHH@Z 5f48b061 f afxinl2.obj
 0001:0008a098       ?CreateRectRgnIndirect@CRgn@@QAEHPBUtagRECT@@@Z 5f48b098 f afxinl2.obj
 0001:0008a0c3       ?CreateEllipticRgn@CRgn@@QAEHHHHH@Z 5f48b0c3 f afxinl2.obj
 0001:0008a0fa       ?CreateEllipticRgnIndirect@CRgn@@QAEHPBUtagRECT@@@Z 5f48b0fa f afxinl2.obj
 0001:0008a125       ?CreatePolygonRgn@CRgn@@QAEHPAUtagPOINT@@HH@Z 5f48b125 f afxinl2.obj
 0001:0008a158       ?CreatePolyPolygonRgn@CRgn@@QAEHPAUtagPOINT@@PAHHH@Z 5f48b158 f afxinl2.obj
 0001:0008a18f       ?CreateRoundRectRgn@CRgn@@QAEHHHHHHH@Z 5f48b18f f afxinl2.obj
 0001:0008a1ce       ?CreateFromPath@CRgn@@QAEHPAVCDC@@@Z 5f48b1ce f afxinl2.obj
 0001:0008a21e       ?CreateFromData@CRgn@@QAEHPBUtagXFORM@@HPBU_RGNDATA@@@Z 5f48b21e f afxinl2.obj
 0001:0008a251       ?GetRegionData@CRgn@@QBEHPAU_RGNDATA@@H@Z 5f48b251 f afxinl2.obj
 0001:0008a2a3       ?SetRectRgn@CRgn@@QAEXHHHH@Z 5f48b2a3 f afxinl2.obj
 0001:0008a2fd       ?SetRectRgn@CRgn@@QAEXPBUtagRECT@@@Z 5f48b2fd f afxinl2.obj
 0001:0008a362       ?CombineRgn@CRgn@@QAEHPAV1@0H@Z 5f48b362 f afxinl2.obj
 0001:0008a3c2       ?CopyRgn@CRgn@@QAEHPAV1@@Z 5f48b3c2 f afxinl2.obj
 0001:0008a419       ?EqualRgn@CRgn@@QBEHPAV1@@Z 5f48b419 f afxinl2.obj
 0001:0008a46c       ?OffsetRgn@CRgn@@QAEHHH@Z  5f48b46c f afxinl2.obj
 0001:0008a4be       ?OffsetRgn@CRgn@@QAEHUtagPOINT@@@Z 5f48b4be f afxinl2.obj
 0001:0008a510       ?GetRgnBox@CRgn@@QBEHPAUtagRECT@@@Z 5f48b510 f afxinl2.obj
 0001:0008a55e       ?PtInRegion@CRgn@@QBEHHH@Z 5f48b55e f afxinl2.obj
 0001:0008a5b0       ?PtInRegion@CRgn@@QBEHUtagPOINT@@@Z 5f48b5b0 f afxinl2.obj
 0001:0008a602       ?RectInRegion@CRgn@@QBEHPBUtagRECT@@@Z 5f48b602 f afxinl2.obj
 0001:0008a650       ??BCDC@@QBEPAUHDC__@@XZ    5f48b650 f afxinl2.obj
 0001:0008a67d       ?GetSafeHdc@CDC@@QBEPAUHDC__@@XZ 5f48b67d f afxinl2.obj
 0001:0008a6aa       ?GetWindow@CDC@@QBEPAVCWnd@@XZ 5f48b6aa f afxinl2.obj
 0001:0008a6f8       ?IsPrinting@CDC@@QBEHXZ    5f48b6f8 f afxinl2.obj
 0001:0008a714       ?CreateDCW@CDC@@QAEHPBG00PBX@Z 5f48b714 f afxinl2.obj
 0001:0008a74b       ?CreateICW@CDC@@QAEHPBG00PBX@Z 5f48b74b f afxinl2.obj
 0001:0008a782       ?CreateCompatibleDC@CDC@@QAEHPAV1@@Z 5f48b782 f afxinl2.obj
 0001:0008a7b2       ?ExcludeUpdateRgn@CDC@@QAEHPAVCWnd@@@Z 5f48b7b2 f afxinl2.obj
 0001:0008a803       ?GetDeviceCaps@CDC@@QBEHH@Z 5f48b803 f afxinl2.obj
 0001:0008a851       ?GetBrushOrg@CDC@@QBE?AVCPoint@@XZ 5f48b851 f afxinl2.obj
 0001:0008a8d2       ?SetBrushOrg@CDC@@QAE?AVCPoint@@HH@Z 5f48b8d2 f afxinl2.obj
 0001:0008a95b       ?SetBrushOrg@CDC@@QAE?AVCPoint@@UtagPOINT@@@Z 5f48b95b f afxinl2.obj
 0001:0008a9e4       ?EnumObjects@CDC@@QAEHHP6GHPAXJ@ZJ@Z 5f48b9e4 f afxinl2.obj
 0001:0008aa3a       ?SelectObject@CDC@@QAEPAVCBitmap@@PAV2@@Z 5f48ba3a f afxinl2.obj
 0001:0008aa8c       ?SelectObject@CDC@@QAEPAVCGdiObject@@PAV2@@Z 5f48ba8c f afxinl2.obj
 0001:0008aade       ?SelectObject@CDC@@QAEPAXPAX@Z 5f48bade f afxinl2.obj
 0001:0008ab42       ?GetNearestColor@CDC@@QBEKK@Z 5f48bb42 f afxinl2.obj
 0001:0008ab90       ?RealizePalette@CDC@@QAEIXZ 5f48bb90 f afxinl2.obj
 0001:0008abd8       ?UpdateColors@CDC@@QAEXXZ  5f48bbd8 f afxinl2.obj
 0001:0008ac20       ?GetBkColor@CDC@@QBEKXZ    5f48bc20 f afxinl2.obj
 0001:0008ac68       ?GetBkMode@CDC@@QBEHXZ     5f48bc68 f afxinl2.obj
 0001:0008acb0       ?GetPolyFillMode@CDC@@QBEHXZ 5f48bcb0 f afxinl2.obj
 0001:0008acf8       ?GetROP2@CDC@@QBEHXZ       5f48bcf8 f afxinl2.obj
 0001:0008ad40       ?GetStretchBltMode@CDC@@QBEHXZ 5f48bd40 f afxinl2.obj
 0001:0008ad88       ?GetTextColor@CDC@@QBEKXZ  5f48bd88 f afxinl2.obj
 0001:0008add0       ?GetMapMode@CDC@@QBEHXZ    5f48bdd0 f afxinl2.obj
 0001:0008ae18       ?GetViewportOrg@CDC@@QBE?AVCPoint@@XZ 5f48be18 f afxinl2.obj
 0001:0008ae99       ?GetViewportExt@CDC@@QBE?AVCSize@@XZ 5f48be99 f afxinl2.obj
 0001:0008af1a       ?GetWindowOrg@CDC@@QBE?AVCPoint@@XZ 5f48bf1a f afxinl2.obj
 0001:0008af9b       ?GetWindowExt@CDC@@QBE?AVCSize@@XZ 5f48bf9b f afxinl2.obj
 0001:0008b01c       ?SetViewportOrg@CDC@@QAE?AVCPoint@@UtagPOINT@@@Z 5f48c01c f afxinl2.obj
 0001:0008b073       ?SetViewportExt@CDC@@QAE?AVCSize@@UtagSIZE@@@Z 5f48c073 f afxinl2.obj
 0001:0008b0ca       ?SetWindowOrg@CDC@@QAE?AVCPoint@@UtagPOINT@@@Z 5f48c0ca f afxinl2.obj
 0001:0008b11e       ?SetWindowExt@CDC@@QAE?AVCSize@@UtagSIZE@@@Z 5f48c11e f afxinl2.obj
 0001:0008b175       ?DPtoLP@CDC@@QBEXPAUtagPOINT@@H@Z 5f48c175 f afxinl2.obj
 0001:0008b1e7       ?DPtoLP@CDC@@QBEXPAUtagRECT@@@Z 5f48c1e7 f afxinl2.obj
 0001:0008b257       ?LPtoDP@CDC@@QBEXPAUtagPOINT@@H@Z 5f48c257 f afxinl2.obj
 0001:0008b2c9       ?LPtoDP@CDC@@QBEXPAUtagRECT@@@Z 5f48c2c9 f afxinl2.obj
 0001:0008b339       ?FillRgn@CDC@@QAEHPAVCRgn@@PAVCBrush@@@Z 5f48c339 f afxinl2.obj
 0001:0008b395       ?FrameRgn@CDC@@QAEHPAVCRgn@@PAVCBrush@@HH@Z 5f48c395 f afxinl2.obj
 0001:0008b3f9       ?InvertRgn@CDC@@QAEHPAVCRgn@@@Z 5f48c3f9 f afxinl2.obj
 0001:0008b44c       ?PaintRgn@CDC@@QAEHPAVCRgn@@@Z 5f48c44c f afxinl2.obj
 0001:0008b49f       ?PtVisible@CDC@@UBEHHH@Z   5f48c49f f afxinl2.obj
 0001:0008b4f1       ?PtVisible@CDC@@QBEHUtagPOINT@@@Z 5f48c4f1 f afxinl2.obj
 0001:0008b541       ?RectVisible@CDC@@UBEHPBUtagRECT@@@Z 5f48c541 f afxinl2.obj
 0001:0008b58f       ?GetCurrentPosition@CDC@@QBE?AVCPoint@@XZ 5f48c58f f afxinl2.obj
 0001:0008b610       ?MoveTo@CDC@@QAE?AVCPoint@@UtagPOINT@@@Z 5f48c610 f afxinl2.obj
 0001:0008b664       ?LineTo@CDC@@QAEHUtagPOINT@@@Z 5f48c664 f afxinl2.obj
 0001:0008b6b1       ?Arc@CDC@@QAEHHHHHHHHH@Z   5f48c6b1 f afxinl2.obj
 0001:0008b71b       ?Arc@CDC@@QAEHPBUtagRECT@@UtagPOINT@@1@Z 5f48c71b f afxinl2.obj
 0001:0008b790       ?Polyline@CDC@@QAEHPAUtagPOINT@@H@Z 5f48c790 f afxinl2.obj
 0001:0008b7e2       ?FillRect@CDC@@QAEXPBUtagRECT@@PAVCBrush@@@Z 5f48c7e2 f afxinl2.obj
 0001:0008b839       ?FrameRect@CDC@@QAEXPBUtagRECT@@PAVCBrush@@@Z 5f48c839 f afxinl2.obj
 0001:0008b890       ?InvertRect@CDC@@QAEXPBUtagRECT@@@Z 5f48c890 f afxinl2.obj
 0001:0008b8de       ?DrawIcon@CDC@@QAEHHHPAUHICON__@@@Z 5f48c8de f afxinl2.obj
 0001:0008b934       ?DrawIcon@CDC@@QAEHUtagPOINT@@PAUHICON__@@@Z 5f48c934 f afxinl2.obj
 0001:0008b98a       ?DrawState@CDC@@QAEHVCPoint@@VCSize@@PAUHBITMAP__@@IPAUHBRUSH__@@@Z 5f48c98a f afxinl2.obj
 0001:0008b9f6       ?DrawState@CDC@@QAEHVCPoint@@VCSize@@PAVCBitmap@@IPAVCBrush@@@Z 5f48c9f6 f afxinl2.obj
 0001:0008ba6c       ?DrawState@CDC@@QAEHVCPoint@@VCSize@@PAUHICON__@@IPAUHBRUSH__@@@Z 5f48ca6c f afxinl2.obj
 0001:0008bad8       ?DrawState@CDC@@QAEHVCPoint@@VCSize@@PAUHICON__@@IPAVCBrush@@@Z 5f48cad8 f afxinl2.obj
 0001:0008bb49       ?DrawState@CDC@@QAEHVCPoint@@VCSize@@PBGIHHPAUHBRUSH__@@@Z 5f48cb49 f afxinl2.obj
 0001:0008bbbd       ?DrawState@CDC@@QAEHVCPoint@@VCSize@@PBGIHHPAVCBrush@@@Z 5f48cbbd f afxinl2.obj
 0001:0008bc36       ?DrawState@CDC@@QAEHVCPoint@@VCSize@@P6GHPAUHDC__@@JIHH@ZJIPAUHBRUSH__@@@Z 5f48cc36 f afxinl2.obj
 0001:0008bca1       ?DrawState@CDC@@QAEHVCPoint@@VCSize@@P6GHPAUHDC__@@JIHH@ZJIPAVCBrush@@@Z 5f48cca1 f afxinl2.obj
 0001:0008bd11       ?DrawEdge@CDC@@QAEHPAUtagRECT@@II@Z 5f48cd11 f afxinl2.obj
 0001:0008bd67       ?DrawFrameControl@CDC@@QAEHPAUtagRECT@@II@Z 5f48cd67 f afxinl2.obj
 0001:0008bdbd       ?Chord@CDC@@QAEHHHHHHHHH@Z 5f48cdbd f afxinl2.obj
 0001:0008be27       ?Chord@CDC@@QAEHPBUtagRECT@@UtagPOINT@@1@Z 5f48ce27 f afxinl2.obj
 0001:0008be9c       ?DrawFocusRect@CDC@@QAEXPBUtagRECT@@@Z 5f48ce9c f afxinl2.obj
 0001:0008beea       ?Ellipse@CDC@@QAEHHHHH@Z   5f48ceea f afxinl2.obj
 0001:0008bf44       ?Ellipse@CDC@@QAEHPBUtagRECT@@@Z 5f48cf44 f afxinl2.obj
 0001:0008bfa9       ?Pie@CDC@@QAEHHHHHHHHH@Z   5f48cfa9 f afxinl2.obj
 0001:0008c013       ?Pie@CDC@@QAEHPBUtagRECT@@UtagPOINT@@1@Z 5f48d013 f afxinl2.obj
 0001:0008c088       ?Polygon@CDC@@QAEHPAUtagPOINT@@H@Z 5f48d088 f afxinl2.obj
 0001:0008c0da       ?PolyPolygon@CDC@@QAEHPAUtagPOINT@@PAHH@Z 5f48d0da f afxinl2.obj
 0001:0008c130       ?Rectangle@CDC@@QAEHHHHH@Z 5f48d130 f afxinl2.obj
 0001:0008c18a       ?Rectangle@CDC@@QAEHPBUtagRECT@@@Z 5f48d18a f afxinl2.obj
 0001:0008c1ef       ?RoundRect@CDC@@QAEHHHHHHH@Z 5f48d1ef f afxinl2.obj
 0001:0008c251       ?RoundRect@CDC@@QAEHPBUtagRECT@@UtagPOINT@@@Z 5f48d251 f afxinl2.obj
 0001:0008c2be       ?PatBlt@CDC@@QAEHHHHHK@Z   5f48d2be f afxinl2.obj
 0001:0008c31c       ?BitBlt@CDC@@QAEHHHHHPAV1@HHK@Z 5f48d31c f afxinl2.obj
 0001:0008c38b       ?StretchBlt@CDC@@QAEHHHHHPAV1@HHHHK@Z 5f48d38b f afxinl2.obj
 0001:0008c402       ?GetPixel@CDC@@QBEKHH@Z    5f48d402 f afxinl2.obj
 0001:0008c454       ?GetPixel@CDC@@QBEKUtagPOINT@@@Z 5f48d454 f afxinl2.obj
 0001:0008c4a6       ?SetPixel@CDC@@QAEKHHK@Z   5f48d4a6 f afxinl2.obj
 0001:0008c4fc       ?SetPixel@CDC@@QAEKUtagPOINT@@K@Z 5f48d4fc f afxinl2.obj
 0001:0008c552       ?FloodFill@CDC@@QAEHHHK@Z  5f48d552 f afxinl2.obj
 0001:0008c5a8       ?ExtFloodFill@CDC@@QAEHHHKI@Z 5f48d5a8 f afxinl2.obj
 0001:0008c602       ?TextOutW@CDC@@UAEHHHPBGH@Z 5f48d602 f afxinl2.obj
 0001:0008c65c       ?TextOutW@CDC@@QAEHHHABVCString@@@Z 5f48d65c f afxinl2.obj
 0001:0008c6be       ?ExtTextOutW@CDC@@UAEHHHIPBUtagRECT@@PBGIPAH@Z 5f48d6be f afxinl2.obj
 0001:0008c724       ?ExtTextOutW@CDC@@QAEHHHIPBUtagRECT@@ABVCString@@PAH@Z 5f48d724 f afxinl2.obj
 0001:0008c794       ?TabbedTextOutW@CDC@@UAE?AVCSize@@HHPBGHHPAHH@Z 5f48d794 f afxinl2.obj
 0001:0008c806       ?TabbedTextOutW@CDC@@QAE?AVCSize@@HHABVCString@@HPAHH@Z 5f48d806 f afxinl2.obj
 0001:0008c882       ?DrawTextW@CDC@@UAEHPBGHPAUtagRECT@@I@Z 5f48d882 f afxinl2.obj
 0001:0008c8dc       ?DrawTextW@CDC@@QAEHABVCString@@PAUtagRECT@@I@Z 5f48d8dc f afxinl2.obj
 0001:0008c93e       ?GetTextExtent@CDC@@QBE?AVCSize@@PBGH@Z 5f48d93e f afxinl2.obj
 0001:0008c9c7       ?GetTextExtent@CDC@@QBE?AVCSize@@ABVCString@@@Z 5f48d9c7 f afxinl2.obj
 0001:0008ca5a       ?GetOutputTextExtent@CDC@@QBE?AVCSize@@PBGH@Z 5f48da5a f afxinl2.obj
 0001:0008cae3       ?GetOutputTextExtent@CDC@@QBE?AVCSize@@ABVCString@@@Z 5f48dae3 f afxinl2.obj
 0001:0008cb76       ?GetTabbedTextExtentW@CDC@@QBE?AVCSize@@PBGHHPAH@Z 5f48db76 f afxinl2.obj
 0001:0008cbdc       ?GetTabbedTextExtentW@CDC@@QBE?AVCSize@@ABVCString@@HPAH@Z 5f48dbdc f afxinl2.obj
 0001:0008cc4c       ?GetOutputTabbedTextExtent@CDC@@QBE?AVCSize@@PBGHHPAH@Z 5f48dc4c f afxinl2.obj
 0001:0008ccb2       ?GetOutputTabbedTextExtent@CDC@@QBE?AVCSize@@ABVCString@@HPAH@Z 5f48dcb2 f afxinl2.obj
 0001:0008cd22       ?GrayStringW@CDC@@UAEHPAVCBrush@@P6GHPAUHDC__@@JH@ZJHHHHH@Z 5f48dd22 f afxinl2.obj
 0001:0008cd91       ?GetTextAlign@CDC@@QBEIXZ  5f48dd91 f afxinl2.obj
 0001:0008cdd9       ?GetTextFaceW@CDC@@QBEHHPAG@Z 5f48ddd9 f afxinl2.obj
 0001:0008ce2b       ?GetTextFaceW@CDC@@QBEHAAVCString@@@Z 5f48de2b f afxinl2.obj
 0001:0008ce98       ?GetTextMetricsW@CDC@@QBEHPAUtagTEXTMETRICW@@@Z 5f48de98 f afxinl2.obj
 0001:0008cee6       ?GetOutputTextMetrics@CDC@@QBEHPAUtagTEXTMETRICW@@@Z 5f48dee6 f afxinl2.obj
 0001:0008cf34       ?GetTextCharacterExtra@CDC@@QBEHXZ 5f48df34 f afxinl2.obj
 0001:0008cf7c       ?GetCharWidthW@CDC@@QBEHIIPAH@Z 5f48df7c f afxinl2.obj
 0001:0008cfd2       ?GetOutputCharWidth@CDC@@QBEHIIPAH@Z 5f48dfd2 f afxinl2.obj
 0001:0008d028       ?GetAspectRatioFilter@CDC@@QBE?AVCSize@@XZ 5f48e028 f afxinl2.obj
 0001:0008d0a9       ?ScrollDC@CDC@@QAEHHHPBUtagRECT@@0PAVCRgn@@PAU2@@Z 5f48e0a9 f afxinl2.obj
 0001:0008d110       ?Escape@CDC@@UAEHHHPBDPAX@Z 5f48e110 f afxinl2.obj
 0001:0008d16a       ?SetBoundsRect@CDC@@QAEIPBUtagRECT@@I@Z 5f48e16a f afxinl2.obj
 0001:0008d1bc       ?GetBoundsRect@CDC@@QAEIPAUtagRECT@@I@Z 5f48e1bc f afxinl2.obj
 0001:0008d20e       ?ResetDCW@CDC@@QAEHPBU_devicemodeW@@@Z 5f48e20e f afxinl2.obj
 0001:0008d270       ?GetOutlineTextMetricsW@CDC@@QBEIIPAU_OUTLINETEXTMETRICW@@@Z 5f48e270 f afxinl2.obj
 0001:0008d2c2       ?GetCharABCWidthsW@CDC@@QBEHIIPAU_ABC@@@Z 5f48e2c2 f afxinl2.obj
 0001:0008d318       ?GetFontData@CDC@@QBEKKKPAXK@Z 5f48e318 f afxinl2.obj
 0001:0008d372       ?GetKerningPairsW@CDC@@QBEHHPAUtagKERNINGPAIR@@@Z 5f48e372 f afxinl2.obj
 0001:0008d3c4       ?GetGlyphOutlineW@CDC@@QBEKIIPAU_GLYPHMETRICS@@KPAXPBU_MAT2@@@Z 5f48e3c4 f afxinl2.obj
 0001:0008d426       ?StartDocW@CDC@@QAEHPAU_DOCINFOW@@@Z 5f48e426 f afxinl2.obj
 0001:0008d474       ?StartPage@CDC@@QAEHXZ     5f48e474 f afxinl2.obj
 0001:0008d4bc       ?EndPage@CDC@@QAEHXZ       5f48e4bc f afxinl2.obj
 0001:0008d504       ?SetAbortProc@CDC@@QAEHP6GHPAUHDC__@@H@Z@Z 5f48e504 f afxinl2.obj
 0001:0008d552       ?AbortDoc@CDC@@QAEHXZ      5f48e552 f afxinl2.obj
 0001:0008d59a       ?EndDoc@CDC@@QAEHXZ        5f48e59a f afxinl2.obj
 0001:0008d5e2       ?MaskBlt@CDC@@QAEHHHHHPAV1@HHAAVCBitmap@@HHK@Z 5f48e5e2 f afxinl2.obj
 0001:0008d660       ?PlgBlt@CDC@@QAEHPAUtagPOINT@@PAV1@HHHHAAVCBitmap@@HH@Z 5f48e660 f afxinl2.obj
 0001:0008d6d6       ?SetPixelV@CDC@@QAEHHHK@Z  5f48e6d6 f afxinl2.obj
 0001:0008d72c       ?SetPixelV@CDC@@QAEHUtagPOINT@@K@Z 5f48e72c f afxinl2.obj
 0001:0008d782       ?AngleArc@CDC@@QAEHHHHMM@Z 5f48e782 f afxinl2.obj
 0001:0008d7e0       ?ArcTo@CDC@@QAEHPBUtagRECT@@UtagPOINT@@1@Z 5f48e7e0 f afxinl2.obj
 0001:0008d850       ?GetArcDirection@CDC@@QBEHXZ 5f48e850 f afxinl2.obj
 0001:0008d898       ?PolyPolyline@CDC@@QAEHPBUtagPOINT@@PBKH@Z 5f48e898 f afxinl2.obj
 0001:0008d8ee       ?GetColorAdjustment@CDC@@QBEHPAUtagCOLORADJUSTMENT@@@Z 5f48e8ee f afxinl2.obj
 0001:0008d93c       ?GetCurrentPen@CDC@@QBEPAVCPen@@XZ 5f48e93c f afxinl2.obj
 0001:0008d98c       ?GetCurrentBrush@CDC@@QBEPAVCBrush@@XZ 5f48e98c f afxinl2.obj
 0001:0008d9dc       ?GetCurrentPalette@CDC@@QBEPAVCPalette@@XZ 5f48e9dc f afxinl2.obj
 0001:0008da2c       ?GetCurrentFont@CDC@@QBEPAVCFont@@XZ 5f48ea2c f afxinl2.obj
 0001:0008da7c       ?GetCurrentBitmap@CDC@@QBEPAVCBitmap@@XZ 5f48ea7c f afxinl2.obj
 0001:0008dacc       ?PolyBezier@CDC@@QAEHPBUtagPOINT@@H@Z 5f48eacc f afxinl2.obj
 0001:0008db1e       ?DrawEscape@CDC@@QAEHHHPBD@Z 5f48eb1e f afxinl2.obj
 0001:0008db74       ?Escape@CDC@@QAEHHHPBDHPAD@Z 5f48eb74 f afxinl2.obj
 0001:0008dbd2       ?GetCharABCWidthsW@CDC@@QBEHIIPAU_ABCFLOAT@@@Z 5f48ebd2 f afxinl2.obj
 0001:0008dc28       ?GetCharWidthW@CDC@@QBEHIIPAM@Z 5f48ec28 f afxinl2.obj
 0001:0008dc7e       ?AbortPath@CDC@@QAEHXZ     5f48ec7e f afxinl2.obj
 0001:0008dcc6       ?BeginPath@CDC@@QAEHXZ     5f48ecc6 f afxinl2.obj
 0001:0008dd0e       ?CloseFigure@CDC@@QAEHXZ   5f48ed0e f afxinl2.obj
 0001:0008dd56       ?EndPath@CDC@@QAEHXZ       5f48ed56 f afxinl2.obj
 0001:0008dd9e       ?FillPath@CDC@@QAEHXZ      5f48ed9e f afxinl2.obj
 0001:0008dde6       ?FlattenPath@CDC@@QAEHXZ   5f48ede6 f afxinl2.obj
 0001:0008de2e       ?GetMiterLimit@CDC@@QBEMXZ 5f48ee2e f afxinl2.obj
 0001:0008de9d       ?GetPath@CDC@@QBEHPAUtagPOINT@@PAEH@Z 5f48ee9d f afxinl2.obj
 0001:0008def3       ?SetMiterLimit@CDC@@QAEHM@Z 5f48eef3 f afxinl2.obj
 0001:0008df43       ?StrokeAndFillPath@CDC@@QAEHXZ 5f48ef43 f afxinl2.obj
 0001:0008df8b       ?StrokePath@CDC@@QAEHXZ    5f48ef8b f afxinl2.obj
 0001:0008dfd3       ?WidenPath@CDC@@QAEHXZ     5f48efd3 f afxinl2.obj
 0001:0008e01b       ?AddMetaFileComment@CDC@@QAEHIPBE@Z 5f48f01b f afxinl2.obj
 0001:0008e06d       ?PlayMetaFile@CDC@@QAEHPAUHENHMETAFILE__@@PBUtagRECT@@@Z 5f48f06d f afxinl2.obj
 0001:0008e0bf       ??0CMenu@@QAE@XZ           5f48f0bf f afxinl2.obj
 0001:0008e138       ??1CMenu@@UAE@XZ           5f48f138 f afxinl2.obj
 0001:0008e1a8       ?CreateMenu@CMenu@@QAEHXZ  5f48f1a8 f afxinl2.obj
 0001:0008e1cd       ?CreatePopupMenu@CMenu@@QAEHXZ 5f48f1cd f afxinl2.obj
 0001:0008e1f2       ??BCMenu@@QBEPAUHMENU__@@XZ 5f48f1f2 f afxinl2.obj
 0001:0008e263       ?GetSafeHmenu@CMenu@@QBEPAUHMENU__@@XZ 5f48f263 f afxinl2.obj
 0001:0008e2d4       ?DeleteMenu@CMenu@@QAEHII@Z 5f48f2d4 f afxinl2.obj
 0001:0008e32e       ?AppendMenuW@CMenu@@QAEHIIPBG@Z 5f48f32e f afxinl2.obj
 0001:0008e38c       ?AppendMenuW@CMenu@@QAEHIIPBVCBitmap@@@Z 5f48f38c f afxinl2.obj
 0001:0008e3f2       ?CheckMenuItem@CMenu@@QAEIII@Z 5f48f3f2 f afxinl2.obj
 0001:0008e44c       ?EnableMenuItem@CMenu@@QAEIII@Z 5f48f44c f afxinl2.obj
 0001:0008e4a6       ?GetMenuItemCount@CMenu@@QBEIXZ 5f48f4a6 f afxinl2.obj
 0001:0008e4f6       ?GetMenuItemID@CMenu@@QBEIH@Z 5f48f4f6 f afxinl2.obj
 0001:0008e54c       ?GetMenuState@CMenu@@QBEIII@Z 5f48f54c f afxinl2.obj
 0001:0008e5a6       ?GetMenuStringW@CMenu@@QBEHIPAGHI@Z 5f48f5a6 f afxinl2.obj
 0001:0008e608       ?GetMenuStringW@CMenu@@QBEHIAAVCString@@I@Z 5f48f608 f afxinl2.obj
 0001:0008e685       ?GetSubMenu@CMenu@@QBEPAV1@H@Z 5f48f685 f afxinl2.obj
 0001:0008e6e1       ?InsertMenuW@CMenu@@QAEHIIIPBG@Z 5f48f6e1 f afxinl2.obj
 0001:0008e743       ?InsertMenuW@CMenu@@QAEHIIIPBVCBitmap@@@Z 5f48f743 f afxinl2.obj
 0001:0008e7ad       ?ModifyMenuW@CMenu@@QAEHIIIPBG@Z 5f48f7ad f afxinl2.obj
 0001:0008e80f       ?ModifyMenuW@CMenu@@QAEHIIIPBVCBitmap@@@Z 5f48f80f f afxinl2.obj
 0001:0008e879       ?RemoveMenu@CMenu@@QAEHII@Z 5f48f879 f afxinl2.obj
 0001:0008e8d3       ?SetMenuItemBitmaps@CMenu@@QAEHIIPBVCBitmap@@0@Z 5f48f8d3 f afxinl2.obj
 0001:0008e93f       ?LoadMenuW@CMenu@@QAEHPBG@Z 5f48f93f f afxinl2.obj
 0001:0008e976       ?LoadMenuW@CMenu@@QAEHI@Z  5f48f976 f afxinl2.obj
 0001:0008e9b7       ?LoadMenuIndirectW@CMenu@@QAEHPBX@Z 5f48f9b7 f afxinl2.obj
 0001:0008e9e2       ?SetMenuContextHelpId@CMenu@@QAEHK@Z 5f48f9e2 f afxinl2.obj
 0001:0008ea0b       ?GetMenuContextHelpId@CMenu@@QBEKXZ 5f48fa0b f afxinl2.obj
 0001:0008ea2e       ?CheckMenuRadioItem@CMenu@@QAEHIIII@Z 5f48fa2e f afxinl2.obj
 0001:0008ea63       ?ContinueRouting@CCmdUI@@QAEXXZ 5f48fa63 f afxinl2.obj
 0001:0008ea90       ??_GCResourceException@@UAEPAXI@Z 5f48fa90 f afxinl2.obj
 0001:0008ea90       ??_ECResourceException@@UAEPAXI@Z 5f48fa90 f afxinl2.obj
 0001:0008ead0       ??_ECUserException@@UAEPAXI@Z 5f48fad0 f afxinl2.obj
 0001:0008ead0       ??_GCUserException@@UAEPAXI@Z 5f48fad0 f afxinl2.obj
 0001:0008eb10       ??_GCGdiObject@@UAEPAXI@Z  5f48fb10 f afxinl2.obj
 0001:0008eb50       ??_GCPen@@UAEPAXI@Z        5f48fb50 f afxinl2.obj
 0001:0008eb90       ??_GCBrush@@UAEPAXI@Z      5f48fb90 f afxinl2.obj
 0001:0008ebd0       ??_GCFont@@UAEPAXI@Z       5f48fbd0 f afxinl2.obj
 0001:0008ec10       ??_GCBitmap@@UAEPAXI@Z     5f48fc10 f afxinl2.obj
 0001:0008ec50       ??_GCPalette@@UAEPAXI@Z    5f48fc50 f afxinl2.obj
 0001:0008ec90       ??_GCRgn@@UAEPAXI@Z        5f48fc90 f afxinl2.obj
 0001:0008ecd0       ??_GCMenu@@UAEPAXI@Z       5f48fcd0 f afxinl2.obj
 0001:0008ed10       ??BCWnd@@QBEPAUHWND__@@XZ  5f48fd10 f afxinl3.obj
 0001:0008ed3d       ?GetSafeHwnd@CWnd@@QBEPAUHWND__@@XZ 5f48fd3d f afxinl3.obj
 0001:0008ed6a       ?GetOwner@CWnd@@QBEPAV1@XZ 5f48fd6a f afxinl3.obj
 0001:0008eda6       ?SetOwner@CWnd@@QAEXPAV1@@Z 5f48fda6 f afxinl3.obj
 0001:0008ede3       ?SendMessageW@CWnd@@QAEJIIJ@Z 5f48fde3 f afxinl3.obj
 0001:0008ee3e       ?PostMessageW@CWnd@@QAEHIIJ@Z 5f48fe3e f afxinl3.obj
 0001:0008ee99       ?SetFont@CWnd@@QAEXPAVCFont@@H@Z 5f48fe99 f afxinl3.obj
 0001:0008eef7       ?GetFont@CWnd@@QBEPAVCFont@@XZ 5f48fef7 f afxinl3.obj
 0001:0008ef50       ?GetMenu@CWnd@@QBEPAVCMenu@@XZ 5f48ff50 f afxinl3.obj
 0001:0008efa3       ?SetMenu@CWnd@@QAEHPAVCMenu@@@Z 5f48ffa3 f afxinl3.obj
 0001:0008effb       ?DrawMenuBar@CWnd@@QAEXXZ  5f48fffb f afxinl3.obj
 0001:0008f048       ?GetSystemMenu@CWnd@@QBEPAVCMenu@@H@Z 5f490048 f afxinl3.obj
 0001:0008f0a1       ?HiliteMenuItem@CWnd@@QAEHPAVCMenu@@II@Z 5f4900a1 f afxinl3.obj
 0001:0008f0ff       ?IsIconic@CWnd@@QBEHXZ     5f4900ff f afxinl3.obj
 0001:0008f14c       ?IsZoomed@CWnd@@QBEHXZ     5f49014c f afxinl3.obj
 0001:0008f199       ?MoveWindow@CWnd@@QAEXPBUtagRECT@@H@Z 5f490199 f afxinl3.obj
 0001:0008f1e3       ?ArrangeIconicWindows@CWnd@@QAEIXZ 5f4901e3 f afxinl3.obj
 0001:0008f230       ?BringWindowToTop@CWnd@@QAEXXZ 5f490230 f afxinl3.obj
 0001:0008f27d       ?GetWindowRect@CWnd@@QBEXPAUtagRECT@@@Z 5f49027d f afxinl3.obj
 0001:0008f2d0       ?GetClientRect@CWnd@@QBEXPAUtagRECT@@@Z 5f4902d0 f afxinl3.obj
 0001:0008f323       ?MapWindowPoints@CWnd@@QBEXPAV1@PAUtagPOINT@@I@Z 5f490323 f afxinl3.obj
 0001:0008f383       ?MapWindowPoints@CWnd@@QBEXPAV1@PAUtagRECT@@@Z 5f490383 f afxinl3.obj
 0001:0008f3e1       ?ClientToScreen@CWnd@@QBEXPAUtagPOINT@@@Z 5f4903e1 f afxinl3.obj
 0001:0008f434       ?ClientToScreen@CWnd@@QBEXPAUtagRECT@@@Z 5f490434 f afxinl3.obj
 0001:0008f49b       ?ScreenToClient@CWnd@@QBEXPAUtagPOINT@@@Z 5f49049b f afxinl3.obj
 0001:0008f4ee       ?ScreenToClient@CWnd@@QBEXPAUtagRECT@@@Z 5f4904ee f afxinl3.obj
 0001:0008f555       ?BeginPaint@CWnd@@QAEPAVCDC@@PAUtagPAINTSTRUCT@@@Z 5f490555 f afxinl3.obj
 0001:0008f5ae       ?EndPaint@CWnd@@QAEXPAUtagPAINTSTRUCT@@@Z 5f4905ae f afxinl3.obj
 0001:0008f601       ?GetDC@CWnd@@QAEPAVCDC@@XZ 5f490601 f afxinl3.obj
 0001:0008f654       ?GetWindowDC@CWnd@@QAEPAVCDC@@XZ 5f490654 f afxinl3.obj
 0001:0008f6a7       ?ReleaseDC@CWnd@@QAEHPAVCDC@@@Z 5f4906a7 f afxinl3.obj
 0001:0008f6fd       ?UpdateWindow@CWnd@@QAEXXZ 5f4906fd f afxinl3.obj
 0001:0008f74a       ?SetRedraw@CWnd@@QAEXH@Z   5f49074a f afxinl3.obj
 0001:0008f7a1       ?GetUpdateRect@CWnd@@QAEHPAUtagRECT@@H@Z 5f4907a1 f afxinl3.obj
 0001:0008f7f8       ?GetUpdateRgn@CWnd@@QAEHPAVCRgn@@H@Z 5f4907f8 f afxinl3.obj
 0001:0008f854       ?Invalidate@CWnd@@QAEXH@Z  5f490854 f afxinl3.obj
 0001:0008f8a9       ?InvalidateRect@CWnd@@QAEXPBUtagRECT@@H@Z 5f4908a9 f afxinl3.obj
 0001:0008f903       ?InvalidateRgn@CWnd@@QAEXPAVCRgn@@H@Z 5f490903 f afxinl3.obj
 0001:0008f962       ?ValidateRect@CWnd@@QAEXPBUtagRECT@@@Z 5f490962 f afxinl3.obj
 0001:0008f9b8       ?ValidateRgn@CWnd@@QAEXPAVCRgn@@@Z 5f4909b8 f afxinl3.obj
 0001:0008fa13       ?IsWindowVisible@CWnd@@QBEHXZ 5f490a13 f afxinl3.obj
 0001:0008fa63       ?ShowOwnedPopups@CWnd@@QAEXH@Z 5f490a63 f afxinl3.obj
 0001:0008fab9       ?SendMessageToDescendants@CWnd@@QAEXIIJHH@Z 5f490ab9 f afxinl3.obj
 0001:0008fb1e       ?GetDescendantWindow@CWnd@@QBEPAV1@HH@Z 5f490b1e f afxinl3.obj
 0001:0008fb77       ?GetDCEx@CWnd@@QAEPAVCDC@@PAVCRgn@@K@Z 5f490b77 f afxinl3.obj
 0001:0008fbdc       ?LockWindowUpdate@CWnd@@QAEHXZ 5f490bdc f afxinl3.obj
 0001:0008fc2c       ?UnlockWindowUpdate@CWnd@@QAEXXZ 5f490c2c f afxinl3.obj
 0001:0008fc77       ?RedrawWindow@CWnd@@QAEHPBUtagRECT@@PAVCRgn@@I@Z 5f490c77 f afxinl3.obj
 0001:0008fcda       ?EnableScrollBar@CWnd@@QAEHHI@Z 5f490cda f afxinl3.obj
 0001:0008fd34       ?SetTimer@CWnd@@QAEIIIP6GXPAUHWND__@@IIK@Z@Z 5f490d34 f afxinl3.obj
 0001:0008fd92       ?KillTimer@CWnd@@QAEHH@Z   5f490d92 f afxinl3.obj
 0001:0008fde8       ?GetActiveWindow@CWnd@@SGPAV1@XZ 5f490de8 f afxinl3.obj
 0001:0008fe04       ?SetActiveWindow@CWnd@@QAEPAV1@XZ 5f490e04 f afxinl3.obj
 0001:0008fe5a       ?GetCapture@CWnd@@SGPAV1@XZ 5f490e5a f afxinl3.obj
 0001:0008fe76       ?SetCapture@CWnd@@QAEPAV1@XZ 5f490e76 f afxinl3.obj
 0001:0008fecc       ?GetFocus@CWnd@@SGPAV1@XZ  5f490ecc f afxinl3.obj
 0001:0008fee8       ?GetDesktopWindow@CWnd@@SGPAV1@XZ 5f490ee8 f afxinl3.obj
 0001:0008ff04       ?DlgDirListW@CWnd@@QAEHPAGHHI@Z 5f490f04 f afxinl3.obj
 0001:0008ff66       ?DlgDirListComboBoxW@CWnd@@QAEHPAGHHI@Z 5f490f66 f afxinl3.obj
 0001:0008ffc8       ?DlgDirSelect@CWnd@@QAEHPAGH@Z 5f490fc8 f afxinl3.obj
 0001:00090027       ?DlgDirSelectComboBox@CWnd@@QAEHPAGH@Z 5f491027 f afxinl3.obj
 0001:00090086       ?GetNextDlgGroupItem@CWnd@@QBEPAV1@PAV1@H@Z 5f491086 f afxinl3.obj
 0001:000900eb       ?GetNextDlgTabItem@CWnd@@QBEPAV1@PAV1@H@Z 5f4910eb f afxinl3.obj
 0001:00090150       ?ShowScrollBar@CWnd@@QAEXIH@Z 5f491150 f afxinl3.obj
 0001:000901aa       ?ChildWindowFromPoint@CWnd@@QBEPAV1@UtagPOINT@@@Z 5f4911aa f afxinl3.obj
 0001:0009020a       ?ChildWindowFromPoint@CWnd@@QBEPAV1@UtagPOINT@@I@Z 5f49120a f afxinl3.obj
 0001:0009026e       ?FindWindowW@CWnd@@SGPAV1@PBG0@Z 5f49126e f afxinl3.obj
 0001:00090294       ?GetNextWindow@CWnd@@QBEPAV1@I@Z 5f491294 f afxinl3.obj
 0001:000902f2       ?GetTopWindow@CWnd@@QBEPAV1@XZ 5f4912f2 f afxinl3.obj
 0001:00090348       ?GetWindow@CWnd@@QBEPAV1@I@Z 5f491348 f afxinl3.obj
 0001:000903a4       ?GetLastActivePopup@CWnd@@QBEPAV1@XZ 5f4913a4 f afxinl3.obj
 0001:000903fa       ?IsChild@CWnd@@QBEHPBV1@@Z 5f4913fa f afxinl3.obj
 0001:00090455       ?GetParent@CWnd@@QBEPAV1@XZ 5f491455 f afxinl3.obj
 0001:000904ab       ?SetParent@CWnd@@QAEPAV1@PAV1@@Z 5f4914ab f afxinl3.obj
 0001:0009050c       ?WindowFromPoint@CWnd@@SGPAV1@UtagPOINT@@@Z 5f49150c f afxinl3.obj
 0001:00090532       ?FlashWindow@CWnd@@QAEHH@Z 5f491532 f afxinl3.obj
 0001:00090588       ?ChangeClipboardChain@CWnd@@QAEHPAUHWND__@@@Z 5f491588 f afxinl3.obj
 0001:000905de       ?SetClipboardViewer@CWnd@@QAEPAUHWND__@@XZ 5f4915de f afxinl3.obj
 0001:0009062e       ?OpenClipboard@CWnd@@QAEHXZ 5f49162e f afxinl3.obj
 0001:0009067e       ?GetOpenClipboardWindow@CWnd@@SGPAV1@XZ 5f49167e f afxinl3.obj
 0001:0009069a       ?GetClipboardOwner@CWnd@@SGPAV1@XZ 5f49169a f afxinl3.obj
 0001:000906b6       ?GetClipboardViewer@CWnd@@SGPAV1@XZ 5f4916b6 f afxinl3.obj
 0001:000906d2       ?CreateCaret@CWnd@@QAEXPAVCBitmap@@@Z 5f4916d2 f afxinl3.obj
 0001:00090731       ?CreateSolidCaret@CWnd@@QAEXHH@Z 5f491731 f afxinl3.obj
 0001:0009078d       ?CreateGrayCaret@CWnd@@QAEXHH@Z 5f49178d f afxinl3.obj
 0001:000907e9       ?GetCaretPos@CWnd@@SG?AVCPoint@@XZ 5f4917e9 f afxinl3.obj
 0001:00090821       ?SetCaretPos@CWnd@@SGXUtagPOINT@@@Z 5f491821 f afxinl3.obj
 0001:00090841       ?HideCaret@CWnd@@QAEXXZ    5f491841 f afxinl3.obj
 0001:00090891       ?ShowCaret@CWnd@@QAEXXZ    5f491891 f afxinl3.obj
 0001:000908e1       ?SetForegroundWindow@CWnd@@QAEHXZ 5f4918e1 f afxinl3.obj
 0001:00090931       ?GetForegroundWindow@CWnd@@SGPAV1@XZ 5f491931 f afxinl3.obj
 0001:0009094d       ?SendNotifyMessageW@CWnd@@QAEHIIJ@Z 5f49194d f afxinl3.obj
 0001:000909ab       ?SetIcon@CWnd@@QAEPAUHICON__@@PAU2@H@Z 5f4919ab f afxinl3.obj
 0001:00090a0a       ?GetIcon@CWnd@@QBEPAUHICON__@@H@Z 5f491a0a f afxinl3.obj
 0001:00090a64       ?Print@CWnd@@QBEXPAVCDC@@K@Z 5f491a64 f afxinl3.obj
 0001:00090ac8       ?PrintClient@CWnd@@QBEXPAVCDC@@K@Z 5f491ac8 f afxinl3.obj
 0001:00090b2c       ?SetWindowContextHelpId@CWnd@@QAEHK@Z 5f491b2c f afxinl3.obj
 0001:00090b82       ?GetWindowContextHelpId@CWnd@@QBEKXZ 5f491b82 f afxinl3.obj
 0001:00090bd2       ?OnActivateApp@CWnd@@IAEXHPAUHTASK__@@@Z 5f491bd2 f afxinl3.obj
 0001:00090bf2       ?OnActivate@CWnd@@IAEXIPAV1@H@Z 5f491bf2 f afxinl3.obj
 0001:00090c12       ?OnCancelMode@CWnd@@IAEXXZ 5f491c12 f afxinl3.obj
 0001:00090c30       ?OnChildActivate@CWnd@@IAEXXZ 5f491c30 f afxinl3.obj
 0001:00090c4e       ?OnClose@CWnd@@IAEXXZ      5f491c4e f afxinl3.obj
 0001:00090c6c       ?OnContextMenu@CWnd@@IAEXPAV1@VCPoint@@@Z 5f491c6c f afxinl3.obj
 0001:00090c8c       ?OnCreate@CWnd@@IAEHPAUtagCREATESTRUCTW@@@Z 5f491c8c f afxinl3.obj
 0001:00090cac       ?OnDestroy@CWnd@@IAEXXZ    5f491cac f afxinl3.obj
 0001:00090cca       ?OnEnable@CWnd@@IAEXH@Z    5f491cca f afxinl3.obj
 0001:00090cea       ?OnEndSession@CWnd@@IAEXH@Z 5f491cea f afxinl3.obj
 0001:00090d0a       ?OnEraseBkgnd@CWnd@@IAEHPAVCDC@@@Z 5f491d0a f afxinl3.obj
 0001:00090d2a       ?OnGetMinMaxInfo@CWnd@@IAEXPAUtagMINMAXINFO@@@Z 5f491d2a f afxinl3.obj
 0001:00090d4a       ?OnIconEraseBkgnd@CWnd@@IAEXPAVCDC@@@Z 5f491d4a f afxinl3.obj
 0001:00090d6a       ?OnKillFocus@CWnd@@IAEXPAV1@@Z 5f491d6a f afxinl3.obj
 0001:00090d8a       ?OnMenuChar@CWnd@@IAEJIIPAVCMenu@@@Z 5f491d8a f afxinl3.obj
 0001:00090daa       ?OnMenuSelect@CWnd@@IAEXIIPAUHMENU__@@@Z 5f491daa f afxinl3.obj
 0001:00090dca       ?OnMove@CWnd@@IAEXHH@Z     5f491dca f afxinl3.obj
 0001:00090dea       ?OnPaint@CWnd@@IAEXXZ      5f491dea f afxinl3.obj
 0001:00090e08       ?OnQueryDragIcon@CWnd@@IAEPAUHICON__@@XZ 5f491e08 f afxinl3.obj
 0001:00090e26       ?OnQueryEndSession@CWnd@@IAEHXZ 5f491e26 f afxinl3.obj
 0001:00090e44       ?OnQueryNewPalette@CWnd@@IAEHXZ 5f491e44 f afxinl3.obj
 0001:00090e62       ?OnQueryOpen@CWnd@@IAEHXZ  5f491e62 f afxinl3.obj
 0001:00090e80       ?OnSetCursor@CWnd@@IAEHPAV1@II@Z 5f491e80 f afxinl3.obj
 0001:00090ea0       ?OnSetFocus@CWnd@@IAEXPAV1@@Z 5f491ea0 f afxinl3.obj
 0001:00090ec0       ?OnShowWindow@CWnd@@IAEXHI@Z 5f491ec0 f afxinl3.obj
 0001:00090ee0       ?OnSize@CWnd@@IAEXIHH@Z    5f491ee0 f afxinl3.obj
 0001:00090f00       ?OnTCard@CWnd@@IAEXIK@Z    5f491f00 f afxinl3.obj
 0001:00090f20       ?OnWindowPosChanging@CWnd@@IAEXPAUtagWINDOWPOS@@@Z 5f491f20 f afxinl3.obj
 0001:00090f40       ?OnWindowPosChanged@CWnd@@IAEXPAUtagWINDOWPOS@@@Z 5f491f40 f afxinl3.obj
 0001:00090f60       ?OnDropFiles@CWnd@@IAEXPAUHDROP__@@@Z 5f491f60 f afxinl3.obj
 0001:00090f80       ?OnPaletteIsChanging@CWnd@@IAEXPAV1@@Z 5f491f80 f afxinl3.obj
 0001:00090fa0       ?OnNcActivate@CWnd@@IAEHH@Z 5f491fa0 f afxinl3.obj
 0001:00090fc0       ?OnNcCalcSize@CWnd@@IAEXHPAUtagNCCALCSIZE_PARAMS@@@Z 5f491fc0 f afxinl3.obj
 0001:00090fe0       ?OnNcCreate@CWnd@@IAEHPAUtagCREATESTRUCTW@@@Z 5f491fe0 f afxinl3.obj
 0001:00091000       ?OnNcHitTest@CWnd@@IAEIVCPoint@@@Z 5f492000 f afxinl3.obj
 0001:00091020       ?OnNcLButtonDblClk@CWnd@@IAEXIVCPoint@@@Z 5f492020 f afxinl3.obj
 0001:00091040       ?OnNcLButtonDown@CWnd@@IAEXIVCPoint@@@Z 5f492040 f afxinl3.obj
 0001:00091060       ?OnNcLButtonUp@CWnd@@IAEXIVCPoint@@@Z 5f492060 f afxinl3.obj
 0001:00091080       ?OnNcMButtonDblClk@CWnd@@IAEXIVCPoint@@@Z 5f492080 f afxinl3.obj
 0001:000910a0       ?OnNcMButtonDown@CWnd@@IAEXIVCPoint@@@Z 5f4920a0 f afxinl3.obj
 0001:000910c0       ?OnNcMButtonUp@CWnd@@IAEXIVCPoint@@@Z 5f4920c0 f afxinl3.obj
 0001:000910e0       ?OnNcMouseMove@CWnd@@IAEXIVCPoint@@@Z 5f4920e0 f afxinl3.obj
 0001:00091100       ?OnNcPaint@CWnd@@IAEXXZ    5f492100 f afxinl3.obj
 0001:0009111e       ?OnNcRButtonDblClk@CWnd@@IAEXIVCPoint@@@Z 5f49211e f afxinl3.obj
 0001:0009113e       ?OnNcRButtonDown@CWnd@@IAEXIVCPoint@@@Z 5f49213e f afxinl3.obj
 0001:0009115e       ?OnNcRButtonUp@CWnd@@IAEXIVCPoint@@@Z 5f49215e f afxinl3.obj
 0001:0009117e       ?OnSysChar@CWnd@@IAEXIII@Z 5f49217e f afxinl3.obj
 0001:0009119e       ?OnSysCommand@CWnd@@IAEXIJ@Z 5f49219e f afxinl3.obj
 0001:000911be       ?OnSysDeadChar@CWnd@@IAEXIII@Z 5f4921be f afxinl3.obj
 0001:000911de       ?OnSysKeyDown@CWnd@@IAEXIII@Z 5f4921de f afxinl3.obj
 0001:000911fe       ?OnSysKeyUp@CWnd@@IAEXIII@Z 5f4921fe f afxinl3.obj
 0001:0009121e       ?OnCompacting@CWnd@@IAEXI@Z 5f49221e f afxinl3.obj
 0001:0009123e       ?OnFontChange@CWnd@@IAEXXZ 5f49223e f afxinl3.obj
 0001:0009125c       ?OnPaletteChanged@CWnd@@IAEXPAV1@@Z 5f49225c f afxinl3.obj
 0001:0009127c       ?OnSpoolerStatus@CWnd@@IAEXII@Z 5f49227c f afxinl3.obj
 0001:0009129c       ?OnTimeChange@CWnd@@IAEXXZ 5f49229c f afxinl3.obj
 0001:000912ba       ?OnChar@CWnd@@IAEXIII@Z    5f4922ba f afxinl3.obj
 0001:000912da       ?OnDeadChar@CWnd@@IAEXIII@Z 5f4922da f afxinl3.obj
 0001:000912fa       ?OnKeyDown@CWnd@@IAEXIII@Z 5f4922fa f afxinl3.obj
 0001:0009131a       ?OnKeyUp@CWnd@@IAEXIII@Z   5f49231a f afxinl3.obj
 0001:0009133a       ?OnLButtonDblClk@CWnd@@IAEXIVCPoint@@@Z 5f49233a f afxinl3.obj
 0001:0009135a       ?OnLButtonDown@CWnd@@IAEXIVCPoint@@@Z 5f49235a f afxinl3.obj
 0001:0009137a       ?OnLButtonUp@CWnd@@IAEXIVCPoint@@@Z 5f49237a f afxinl3.obj
 0001:0009139a       ?OnMButtonDblClk@CWnd@@IAEXIVCPoint@@@Z 5f49239a f afxinl3.obj
 0001:000913ba       ?OnMButtonDown@CWnd@@IAEXIVCPoint@@@Z 5f4923ba f afxinl3.obj
 0001:000913da       ?OnMButtonUp@CWnd@@IAEXIVCPoint@@@Z 5f4923da f afxinl3.obj
 0001:000913fa       ?OnMouseActivate@CWnd@@IAEHPAV1@II@Z 5f4923fa f afxinl3.obj
 0001:0009141a       ?OnMouseMove@CWnd@@IAEXIVCPoint@@@Z 5f49241a f afxinl3.obj
 0001:0009143a       ?OnRButtonDblClk@CWnd@@IAEXIVCPoint@@@Z 5f49243a f afxinl3.obj
 0001:0009145a       ?OnRButtonDown@CWnd@@IAEXIVCPoint@@@Z 5f49245a f afxinl3.obj
 0001:0009147a       ?OnRButtonUp@CWnd@@IAEXIVCPoint@@@Z 5f49247a f afxinl3.obj
 0001:0009149a       ?OnTimer@CWnd@@IAEXI@Z     5f49249a f afxinl3.obj
 0001:000914ba       ?OnInitMenu@CWnd@@IAEXPAVCMenu@@@Z 5f4924ba f afxinl3.obj
 0001:000914da       ?OnInitMenuPopup@CWnd@@IAEXPAVCMenu@@IH@Z 5f4924da f afxinl3.obj
 0001:000914fa       ?OnAskCbFormatName@CWnd@@IAEXIPAG@Z 5f4924fa f afxinl3.obj
 0001:0009151a       ?OnChangeCbChain@CWnd@@IAEXPAUHWND__@@0@Z 5f49251a f afxinl3.obj
 0001:0009153a       ?OnDestroyClipboard@CWnd@@IAEXXZ 5f49253a f afxinl3.obj
 0001:00091558       ?OnDrawClipboard@CWnd@@IAEXXZ 5f492558 f afxinl3.obj
 0001:00091576       ?OnHScrollClipboard@CWnd@@IAEXPAV1@II@Z 5f492576 f afxinl3.obj
 0001:00091596       ?OnPaintClipboard@CWnd@@IAEXPAV1@PAX@Z 5f492596 f afxinl3.obj
 0001:000915b6       ?OnRenderAllFormats@CWnd@@IAEXXZ 5f4925b6 f afxinl3.obj
 0001:000915d4       ?OnRenderFormat@CWnd@@IAEXI@Z 5f4925d4 f afxinl3.obj
 0001:000915f4       ?OnSizeClipboard@CWnd@@IAEXPAV1@PAX@Z 5f4925f4 f afxinl3.obj
 0001:00091614       ?OnVScrollClipboard@CWnd@@IAEXPAV1@II@Z 5f492614 f afxinl3.obj
 0001:00091634       ?OnGetDlgCode@CWnd@@IAEIXZ 5f492634 f afxinl3.obj
 0001:00091652       ?OnMDIActivate@CWnd@@IAEXHPAV1@0@Z 5f492652 f afxinl3.obj
 0001:00091672       ?OnEnterMenuLoop@CWnd@@IAEXH@Z 5f492672 f afxinl3.obj
 0001:00091692       ?OnExitMenuLoop@CWnd@@IAEXH@Z 5f492692 f afxinl3.obj
 0001:000916b2       ?OnStyleChanged@CWnd@@IAEXHPAUtagSTYLESTRUCT@@@Z 5f4926b2 f afxinl3.obj
 0001:000916d2       ?OnStyleChanging@CWnd@@IAEXHPAUtagSTYLESTRUCT@@@Z 5f4926d2 f afxinl3.obj
 0001:000916f2       ?OnSizing@CWnd@@IAEXIPAUtagRECT@@@Z 5f4926f2 f afxinl3.obj
 0001:00091712       ?OnMoving@CWnd@@IAEXIPAUtagRECT@@@Z 5f492712 f afxinl3.obj
 0001:00091732       ?OnCaptureChanged@CWnd@@IAEXPAV1@@Z 5f492732 f afxinl3.obj
 0001:00091752       ?OnDeviceChange@CWnd@@IAEHIK@Z 5f492752 f afxinl3.obj
 0001:00091772       ?DoDataExchange@CWnd@@MAEXPAVCDataExchange@@@Z 5f492772 f afxinl3.obj
 0001:0009178a       ?BeginModalState@CWnd@@UAEXXZ 5f49278a f afxinl3.obj
 0001:000917af       ?EndModalState@CWnd@@UAEXXZ 5f4927af f afxinl3.obj
 0001:000917d4       ?DelayUpdateFrameTitle@CFrameWnd@@QAEXXZ 5f4927d4 f afxinl3.obj
 0001:000917f4       ?DelayRecalcLayout@CFrameWnd@@QAEXH@Z 5f4927f4 f afxinl3.obj
 0001:00091827       ?InModalState@CFrameWnd@@QBEHXZ 5f492827 f afxinl3.obj
 0001:00091859       ?AddControlBar@CFrameWnd@@QAEXPAVCControlBar@@@Z 5f492859 f afxinl3.obj
 0001:00091880       ?Create@CDialog@@QAEHIPAVCWnd@@@Z 5f492880 f afxinl3.obj
 0001:000918ad       ?MapDialogRect@CDialog@@QBEXPAUtagRECT@@@Z 5f4928ad f afxinl3.obj
 0001:00091903       ?SetHelpID@CDialog@@QAEXI@Z 5f492903 f afxinl3.obj
 0001:00091924       ?NextDlgCtrl@CDialog@@QBEXXZ 5f492924 f afxinl3.obj
 0001:0009197a       ?PrevDlgCtrl@CDialog@@QBEXXZ 5f49297a f afxinl3.obj
 0001:000919d0       ?GotoDlgCtrl@CDialog@@QAEXPAVCWnd@@@Z 5f4929d0 f afxinl3.obj
 0001:00091a2d       ?SetDefID@CDialog@@QAEXI@Z 5f492a2d f afxinl3.obj
 0001:00091a8a       ?GetDefID@CDialog@@QBEKXZ  5f492a8a f afxinl3.obj
 0001:00091ae3       ??0CStatic@@QAE@XZ         5f492ae3 f afxinl3.obj
 0001:00091b52       ?SetIcon@CStatic@@QAEPAUHICON__@@PAU2@@Z 5f492b52 f afxinl3.obj
 0001:00091baf       ?GetIcon@CStatic@@QBEPAUHICON__@@XZ 5f492baf f afxinl3.obj
 0001:00091c08       ?SetEnhMetaFile@CStatic@@QAEPAUHENHMETAFILE__@@PAU2@@Z 5f492c08 f afxinl3.obj
 0001:00091c65       ?GetEnhMetaFileW@CStatic@@QBEPAUHENHMETAFILE__@@XZ 5f492c65 f afxinl3.obj
 0001:00091cbe       ?SetBitmap@CStatic@@QAEPAUHBITMAP__@@PAU2@@Z 5f492cbe f afxinl3.obj
 0001:00091d1b       ?GetBitmap@CStatic@@QBEPAUHBITMAP__@@XZ 5f492d1b f afxinl3.obj
 0001:00091d74       ?SetCursor@CStatic@@QAEPAUHICON__@@PAU2@@Z 5f492d74 f afxinl3.obj
 0001:00091dd1       ?GetCursor@CStatic@@QAEPAUHICON__@@XZ 5f492dd1 f afxinl3.obj
 0001:00091e2a       ??0CButton@@QAE@XZ         5f492e2a f afxinl3.obj
 0001:00091e99       ?GetState@CButton@@QBEIXZ  5f492e99 f afxinl3.obj
 0001:00091ef2       ?SetState@CButton@@QAEXH@Z 5f492ef2 f afxinl3.obj
 0001:00091f22       ?GetCheck@CButton@@QBEHXZ  5f492f22 f afxinl3.obj
 0001:00091f7b       ?SetCheck@CButton@@QAEXH@Z 5f492f7b f afxinl3.obj
 0001:00091fd8       ?GetButtonStyle@CButton@@QBEIXZ 5f492fd8 f afxinl3.obj
 0001:0009202f       ?SetButtonStyle@CButton@@QAEXIH@Z 5f49302f f afxinl3.obj
 0001:0009208e       ?SetIcon@CButton@@QAEPAUHICON__@@PAU2@@Z 5f49308e f afxinl3.obj
 0001:000920eb       ?GetIcon@CButton@@QBEPAUHICON__@@XZ 5f4930eb f afxinl3.obj
 0001:00092144       ?SetBitmap@CButton@@QAEPAUHBITMAP__@@PAU2@@Z 5f493144 f afxinl3.obj
 0001:000921a1       ?GetBitmap@CButton@@QBEPAUHBITMAP__@@XZ 5f4931a1 f afxinl3.obj
 0001:000921fa       ?SetCursor@CButton@@QAEPAUHICON__@@PAU2@@Z 5f4931fa f afxinl3.obj
 0001:00092257       ?GetCursor@CButton@@QAEPAUHICON__@@XZ 5f493257 f afxinl3.obj
 0001:000922b0       ??0CListBox@@QAE@XZ        5f4932b0 f afxinl3.obj
 0001:0009231f       ?GetCount@CListBox@@QBEHXZ 5f49331f f afxinl3.obj
 0001:00092378       ?GetCurSel@CListBox@@QBEHXZ 5f493378 f afxinl3.obj
 0001:000923d1       ?SetCurSel@CListBox@@QAEHH@Z 5f4933d1 f afxinl3.obj
 0001:0009242e       ?GetHorizontalExtent@CListBox@@QBEHXZ 5f49342e f afxinl3.obj
 0001:00092487       ?SetHorizontalExtent@CListBox@@QAEXH@Z 5f493487 f afxinl3.obj
 0001:000924e4       ?GetSelCount@CListBox@@QBEHXZ 5f4934e4 f afxinl3.obj
 0001:0009253d       ?GetSelItems@CListBox@@QBEHHPAH@Z 5f49353d f afxinl3.obj
 0001:0009259c       ?GetTopIndex@CListBox@@QBEHXZ 5f49359c f afxinl3.obj
 0001:000925f5       ?SetTopIndex@CListBox@@QAEHH@Z 5f4935f5 f afxinl3.obj
 0001:00092652       ?GetItemData@CListBox@@QBEKH@Z 5f493652 f afxinl3.obj
 0001:000926af       ?SetItemData@CListBox@@QAEHHK@Z 5f4936af f afxinl3.obj
 0001:0009270e       ?GetItemDataPtr@CListBox@@QBEPAXH@Z 5f49370e f afxinl3.obj
 0001:0009276b       ?SetItemDataPtr@CListBox@@QAEHHPAX@Z 5f49376b f afxinl3.obj
 0001:000927c0       ?GetItemRect@CListBox@@QBEHHPAUtagRECT@@@Z 5f4937c0 f afxinl3.obj
 0001:0009281f       ?GetSel@CListBox@@QBEHH@Z  5f49381f f afxinl3.obj
 0001:0009287c       ?SetSel@CListBox@@QAEHHH@Z 5f49387c f afxinl3.obj
 0001:000928db       ?GetText@CListBox@@QBEHHPAG@Z 5f4938db f afxinl3.obj
 0001:0009293a       ?GetTextLen@CListBox@@QBEHH@Z 5f49393a f afxinl3.obj
 0001:00092997       ?SetColumnWidth@CListBox@@QAEXH@Z 5f493997 f afxinl3.obj
 0001:000929f4       ?SetTabStops@CListBox@@QAEHHPAH@Z 5f4939f4 f afxinl3.obj
 0001:00092a53       ?SetTabStops@CListBox@@QAEXXZ 5f493a53 f afxinl3.obj
 0001:00092acc       ?SetTabStops@CListBox@@QAEHABH@Z 5f493acc f afxinl3.obj
 0001:00092b29       ?SetItemHeight@CListBox@@QAEHHI@Z 5f493b29 f afxinl3.obj
 0001:00092b8d       ?GetItemHeight@CListBox@@QBEHH@Z 5f493b8d f afxinl3.obj
 0001:00092bea       ?FindStringExact@CListBox@@QBEHHPBG@Z 5f493bea f afxinl3.obj
 0001:00092c49       ?GetCaretIndex@CListBox@@QBEHXZ 5f493c49 f afxinl3.obj
 0001:00092ca2       ?SetCaretIndex@CListBox@@QAEHHH@Z 5f493ca2 f afxinl3.obj
 0001:00092d06       ?AddString@CListBox@@QAEHPBG@Z 5f493d06 f afxinl3.obj
 0001:00092d63       ?DeleteString@CListBox@@QAEHI@Z 5f493d63 f afxinl3.obj
 0001:00092dc0       ?InsertString@CListBox@@QAEHHPBG@Z 5f493dc0 f afxinl3.obj
 0001:00092e1f       ?ResetContent@CListBox@@QAEXXZ 5f493e1f f afxinl3.obj
 0001:00092e78       ?Dir@CListBox@@QAEHIPBG@Z  5f493e78 f afxinl3.obj
 0001:00092ed7       ?FindString@CListBox@@QBEHHPBG@Z 5f493ed7 f afxinl3.obj
 0001:00092f36       ?SelectString@CListBox@@QAEHHPBG@Z 5f493f36 f afxinl3.obj
 0001:00092f95       ?SelItemRange@CListBox@@QAEHHHH@Z 5f493f95 f afxinl3.obj
 0001:0009301d       ?SetAnchorIndex@CListBox@@QAEXH@Z 5f49401d f afxinl3.obj
 0001:0009307a       ?GetAnchorIndex@CListBox@@QBEHXZ 5f49407a f afxinl3.obj
 0001:000930d3       ?GetLocale@CListBox@@QBEKXZ 5f4940d3 f afxinl3.obj
 0001:0009312c       ?SetLocale@CListBox@@QAEKK@Z 5f49412c f afxinl3.obj
 0001:00093189       ?InitStorage@CListBox@@QAEHHI@Z 5f494189 f afxinl3.obj
 0001:000931e8       ??0CCheckListBox@@QAE@XZ   5f4941e8 f afxinl3.obj
 0001:0009326b       ?GetCheckStyle@CCheckListBox@@QAEIXZ 5f49426b f afxinl3.obj
 0001:00093287       ??0CComboBox@@QAE@XZ       5f494287 f afxinl3.obj
 0001:000932f6       ?GetCount@CComboBox@@QBEHXZ 5f4942f6 f afxinl3.obj
 0001:0009334f       ?GetCurSel@CComboBox@@QBEHXZ 5f49434f f afxinl3.obj
 0001:000933a8       ?SetCurSel@CComboBox@@QAEHH@Z 5f4943a8 f afxinl3.obj
 0001:00093405       ?GetEditSel@CComboBox@@QBEKXZ 5f494405 f afxinl3.obj
 0001:0009345e       ?LimitText@CComboBox@@QAEHH@Z 5f49445e f afxinl3.obj
 0001:000934bb       ?SetEditSel@CComboBox@@QAEHHH@Z 5f4944bb f afxinl3.obj
 0001:0009352b       ?GetItemData@CComboBox@@QBEKH@Z 5f49452b f afxinl3.obj
 0001:00093588       ?SetItemData@CComboBox@@QAEHHK@Z 5f494588 f afxinl3.obj
 0001:000935e7       ?GetItemDataPtr@CComboBox@@QBEPAXH@Z 5f4945e7 f afxinl3.obj
 0001:00093638       ?SetItemDataPtr@CComboBox@@QAEHHPAX@Z 5f494638 f afxinl3.obj
 0001:0009368d       ?GetLBText@CComboBox@@QBEHHPAG@Z 5f49468d f afxinl3.obj
 0001:000936ec       ?GetLBTextLen@CComboBox@@QBEHH@Z 5f4946ec f afxinl3.obj
 0001:00093749       ?ShowDropDown@CComboBox@@QAEXH@Z 5f494749 f afxinl3.obj
 0001:000937a6       ?AddString@CComboBox@@QAEHPBG@Z 5f4947a6 f afxinl3.obj
 0001:00093803       ?DeleteString@CComboBox@@QAEHI@Z 5f494803 f afxinl3.obj
 0001:00093860       ?InsertString@CComboBox@@QAEHHPBG@Z 5f494860 f afxinl3.obj
 0001:000938bf       ?ResetContent@CComboBox@@QAEXXZ 5f4948bf f afxinl3.obj
 0001:00093918       ?Dir@CComboBox@@QAEHIPBG@Z 5f494918 f afxinl3.obj
 0001:00093977       ?FindString@CComboBox@@QBEHHPBG@Z 5f494977 f afxinl3.obj
 0001:000939d6       ?SelectString@CComboBox@@QAEHHPBG@Z 5f4949d6 f afxinl3.obj
 0001:00093a35       ?Clear@CComboBox@@QAEXXZ   5f494a35 f afxinl3.obj
 0001:00093a8e       ?Copy@CComboBox@@QAEXXZ    5f494a8e f afxinl3.obj
 0001:00093ae7       ?Cut@CComboBox@@QAEXXZ     5f494ae7 f afxinl3.obj
 0001:00093b40       ?Paste@CComboBox@@QAEXXZ   5f494b40 f afxinl3.obj
 0001:00093b99       ?SetItemHeight@CComboBox@@QAEHHI@Z 5f494b99 f afxinl3.obj
 0001:00093bfd       ?GetItemHeight@CComboBox@@QBEHH@Z 5f494bfd f afxinl3.obj
 0001:00093c5a       ?FindStringExact@CComboBox@@QBEHHPBG@Z 5f494c5a f afxinl3.obj
 0001:00093cb9       ?SetExtendedUI@CComboBox@@QAEHH@Z 5f494cb9 f afxinl3.obj
 0001:00093d16       ?GetExtendedUI@CComboBox@@QBEHXZ 5f494d16 f afxinl3.obj
 0001:00093d6f       ?GetDroppedControlRect@CComboBox@@QBEXPAUtagRECT@@@Z 5f494d6f f afxinl3.obj
 0001:00093dcc       ?GetDroppedState@CComboBox@@QBEHXZ 5f494dcc f afxinl3.obj
 0001:00093e25       ?GetLocale@CComboBox@@QBEKXZ 5f494e25 f afxinl3.obj
 0001:00093e7e       ?SetLocale@CComboBox@@QAEKK@Z 5f494e7e f afxinl3.obj
 0001:00093edb       ?GetTopIndex@CComboBox@@QBEHXZ 5f494edb f afxinl3.obj
 0001:00093f34       ?SetTopIndex@CComboBox@@QAEHH@Z 5f494f34 f afxinl3.obj
 0001:00093f91       ?InitStorage@CComboBox@@QAEHHI@Z 5f494f91 f afxinl3.obj
 0001:00093ff0       ?SetHorizontalExtent@CComboBox@@QAEXI@Z 5f494ff0 f afxinl3.obj
 0001:0009404d       ?GetHorizontalExtent@CComboBox@@QBEIXZ 5f49504d f afxinl3.obj
 0001:000940a6       ?SetDroppedWidth@CComboBox@@QAEHI@Z 5f4950a6 f afxinl3.obj
 0001:00094103       ?GetDroppedWidth@CComboBox@@QBEHXZ 5f495103 f afxinl3.obj
 0001:0009415c       ??0CEdit@@QAE@XZ           5f49515c f afxinl3.obj
 0001:000941cb       ?CanUndo@CEdit@@QBEHXZ     5f4951cb f afxinl3.obj
 0001:00094224       ?GetLineCount@CEdit@@QBEHXZ 5f495224 f afxinl3.obj
 0001:0009427d       ?GetModify@CEdit@@QBEHXZ   5f49527d f afxinl3.obj
 0001:000942d6       ?SetModify@CEdit@@QAEXH@Z  5f4952d6 f afxinl3.obj
 0001:00094333       ?GetRect@CEdit@@QBEXPAUtagRECT@@@Z 5f495333 f afxinl3.obj
 0001:00094390       ?GetSel@CEdit@@QBEXAAH0@Z  5f495390 f afxinl3.obj
 0001:000943ef       ?GetSel@CEdit@@QBEKXZ      5f4953ef f afxinl3.obj
 0001:00094448       ?GetHandle@CEdit@@QBEPAXXZ 5f495448 f afxinl3.obj
 0001:000944a1       ?SetHandle@CEdit@@QAEXPAX@Z 5f4954a1 f afxinl3.obj
 0001:000944fe       ?GetLine@CEdit@@QBEHHPAG@Z 5f4954fe f afxinl3.obj
 0001:0009455d       ?GetLine@CEdit@@QBEHHPAGH@Z 5f49555d f afxinl3.obj
 0001:000945c5       ?EmptyUndoBuffer@CEdit@@QAEXXZ 5f4955c5 f afxinl3.obj
 0001:0009461e       ?FmtLines@CEdit@@QAEHH@Z   5f49561e f afxinl3.obj
 0001:0009467b       ?LimitText@CEdit@@QAEXH@Z  5f49567b f afxinl3.obj
 0001:000946d8       ?LineFromChar@CEdit@@QBEHH@Z 5f4956d8 f afxinl3.obj
 0001:00094735       ?LineIndex@CEdit@@QBEHH@Z  5f495735 f afxinl3.obj
 0001:00094792       ?LineLength@CEdit@@QBEHH@Z 5f495792 f afxinl3.obj
 0001:000947ef       ?LineScroll@CEdit@@QAEXHH@Z 5f4957ef f afxinl3.obj
 0001:0009484e       ?ReplaceSel@CEdit@@QAEXPBGH@Z 5f49584e f afxinl3.obj
 0001:000948ad       ?SetPasswordChar@CEdit@@QAEXG@Z 5f4958ad f afxinl3.obj
 0001:0009490f       ?SetRect@CEdit@@QAEXPBUtagRECT@@@Z 5f49590f f afxinl3.obj
 0001:0009496c       ?SetRectNP@CEdit@@QAEXPBUtagRECT@@@Z 5f49596c f afxinl3.obj
 0001:000949c9       ?SetSel@CEdit@@QAEXKH@Z    5f4959c9 f afxinl3.obj
 0001:00094a58       ?SetSel@CEdit@@QAEXHHH@Z   5f495a58 f afxinl3.obj
 0001:00094ad7       ?SetTabStops@CEdit@@QAEHHPAH@Z 5f495ad7 f afxinl3.obj
 0001:00094b36       ?SetTabStops@CEdit@@QAEXXZ 5f495b36 f afxinl3.obj
 0001:00094baf       ?SetTabStops@CEdit@@QAEHABH@Z 5f495baf f afxinl3.obj
 0001:00094c0c       ?Undo@CEdit@@QAEHXZ        5f495c0c f afxinl3.obj
 0001:00094c65       ?Clear@CEdit@@QAEXXZ       5f495c65 f afxinl3.obj
 0001:00094cbe       ?Copy@CEdit@@QAEXXZ        5f495cbe f afxinl3.obj
 0001:00094d17       ?Cut@CEdit@@QAEXXZ         5f495d17 f afxinl3.obj
 0001:00094d70       ?Paste@CEdit@@QAEXXZ       5f495d70 f afxinl3.obj
 0001:00094dc9       ?SetReadOnly@CEdit@@QAEHH@Z 5f495dc9 f afxinl3.obj
 0001:00094e26       ?GetFirstVisibleLine@CEdit@@QBEHXZ 5f495e26 f afxinl3.obj
 0001:00094e7f       ?GetPasswordChar@CEdit@@QBEGXZ 5f495e7f f afxinl3.obj
 0001:00094ed8       ?SetMargins@CEdit@@QAEXII@Z 5f495ed8 f afxinl3.obj
 0001:00094f48       ?GetMargins@CEdit@@QBEKXZ  5f495f48 f afxinl3.obj
 0001:00094fa1       ?SetLimitText@CEdit@@QAEXI@Z 5f495fa1 f afxinl3.obj
 0001:00094ffe       ?GetLimitText@CEdit@@QBEIXZ 5f495ffe f afxinl3.obj
 0001:00095057       ?PosFromChar@CEdit@@QBE?AVCPoint@@I@Z 5f496057 f afxinl3.obj
 0001:000950c0       ?CharFromPos@CEdit@@QBEHVCPoint@@@Z 5f4960c0 f afxinl3.obj
 0001:00095130       ??0CScrollBar@@QAE@XZ      5f496130 f afxinl3.obj
 0001:0009519f       ?GetScrollPos@CScrollBar@@QBEHXZ 5f49619f f afxinl3.obj
 0001:000951f1       ?SetScrollPos@CScrollBar@@QAEHHH@Z 5f4961f1 f afxinl3.obj
 0001:0009524d       ?GetScrollRange@CScrollBar@@QBEXPAH0@Z 5f49624d f afxinl3.obj
 0001:000952a9       ?SetScrollRange@CScrollBar@@QAEXHHH@Z 5f4962a9 f afxinl3.obj
 0001:00095309       ?ShowScrollBar@CScrollBar@@QAEXH@Z 5f496309 f afxinl3.obj
 0001:00095361       ?EnableScrollBar@CScrollBar@@QAEHI@Z 5f496361 f afxinl3.obj
 0001:000953b9       ?SetScrollInfo@CScrollBar@@QAEHPAUtagSCROLLINFO@@H@Z 5f4963b9 f afxinl3.obj
 0001:000953e3       ?GetScrollInfo@CScrollBar@@QAEHPAUtagSCROLLINFO@@I@Z 5f4963e3 f afxinl3.obj
 0001:0009540d       ?GetScrollLimit@CScrollBar@@QAEHXZ 5f49640d f afxinl3.obj
 0001:0009542d       ?MDIActivate@CMDIFrameWnd@@QAEXPAVCWnd@@@Z 5f49642d f afxinl3.obj
 0001:00095490       ?MDIIconArrange@CMDIFrameWnd@@QAEXXZ 5f496490 f afxinl3.obj
 0001:000954ec       ?MDIMaximize@CMDIFrameWnd@@QAEXPAVCWnd@@@Z 5f4964ec f afxinl3.obj
 0001:0009554f       ?MDINext@CMDIFrameWnd@@QAEXXZ 5f49654f f afxinl3.obj
 0001:000955ab       ?MDIRestore@CMDIFrameWnd@@QAEXPAVCWnd@@@Z 5f4965ab f afxinl3.obj
 0001:0009560e       ?MDISetMenu@CMDIFrameWnd@@QAEPAVCMenu@@PAV2@0@Z 5f49660e f afxinl3.obj
 0001:00095680       ?MDITile@CMDIFrameWnd@@QAEXXZ 5f496680 f afxinl3.obj
 0001:000956dc       ?MDICascade@CMDIFrameWnd@@QAEXXZ 5f4966dc f afxinl3.obj
 0001:00095738       ?MDICascade@CMDIFrameWnd@@QAEXH@Z 5f496738 f afxinl3.obj
 0001:00095798       ?MDITile@CMDIFrameWnd@@QAEXH@Z 5f496798 f afxinl3.obj
 0001:000957f8       ?MDIDestroy@CMDIChildWnd@@QAEXXZ 5f4967f8 f afxinl3.obj
 0001:0009585b       ?MDIActivate@CMDIChildWnd@@QAEXXZ 5f49685b f afxinl3.obj
 0001:000958be       ?MDIMaximize@CMDIChildWnd@@QAEXXZ 5f4968be f afxinl3.obj
 0001:00095921       ?MDIRestore@CMDIChildWnd@@QAEXXZ 5f496921 f afxinl3.obj
 0001:00095984       ?GetDocument@CView@@QBEPAVCDocument@@XZ 5f496984 f afxinl3.obj
 0001:000959c2       ?GetTotalSize@CScrollView@@QBE?AVCSize@@XZ 5f4969c2 f afxinl3.obj
 0001:00095a12       ?GetTitle@CDocument@@QBEABVCString@@XZ 5f496a12 f afxinl3.obj
 0001:00095a50       ?GetPathName@CDocument@@QBEABVCString@@XZ 5f496a50 f afxinl3.obj
 0001:00095a8e       ?GetDocTemplate@CDocument@@QBEPAVCDocTemplate@@XZ 5f496a8e f afxinl3.obj
 0001:00095acc       ?IsModified@CDocument@@UAEHXZ 5f496acc f afxinl3.obj
 0001:00095b0a       ?SetModifiedFlag@CDocument@@UAEXH@Z 5f496b0a f afxinl3.obj
 0001:00095b4d       ??BCWinThread@@QBEPAXXZ    5f496b4d f afxinl3.obj
 0001:00095b7a       ?SetThreadPriority@CWinThread@@QAEHH@Z 5f496b7a f afxinl3.obj
 0001:00095bc8       ?GetThreadPriority@CWinThread@@QAEHXZ 5f496bc8 f afxinl3.obj
 0001:00095c10       ?ResumeThread@CWinThread@@QAEKXZ 5f496c10 f afxinl3.obj
 0001:00095c58       ?SuspendThread@CWinThread@@QAEKXZ 5f496c58 f afxinl3.obj
 0001:00095ca0       ?PostThreadMessageW@CWinThread@@QAEHIIJ@Z 5f496ca0 f afxinl3.obj
 0001:00095cf6       ?LoadCursorW@CWinApp@@QBEPAUHICON__@@PBG@Z 5f496cf6 f afxinl3.obj
 0001:00095d24       ?LoadCursorW@CWinApp@@QBEPAUHICON__@@I@Z 5f496d24 f afxinl3.obj
 0001:00095d5c       ?LoadStandardCursor@CWinApp@@QBEPAUHICON__@@PBG@Z 5f496d5c f afxinl3.obj
 0001:00095d80       ?LoadOEMCursor@CWinApp@@QBEPAUHICON__@@I@Z 5f496d80 f afxinl3.obj
 0001:00095da9       ?LoadIconW@CWinApp@@QBEPAUHICON__@@PBG@Z 5f496da9 f afxinl3.obj
 0001:00095dd7       ?LoadIconW@CWinApp@@QBEPAUHICON__@@I@Z 5f496dd7 f afxinl3.obj
 0001:00095e0f       ?LoadStandardIcon@CWinApp@@QBEPAUHICON__@@PBG@Z 5f496e0f f afxinl3.obj
 0001:00095e33       ?LoadOEMIcon@CWinApp@@QBEPAUHICON__@@I@Z 5f496e33 f afxinl3.obj
 0001:00095e5c       ??0CWaitCursor@@QAE@XZ     5f496e5c f afxinl3.obj
 0001:00095e81       ??1CWaitCursor@@QAE@XZ     5f496e81 f afxinl3.obj
 0001:00095ea3       ?Restore@CWaitCursor@@QAEXXZ 5f496ea3 f afxinl3.obj
 0001:00095ec5       ?CloseWindow@CWnd@@QAEXXZ  5f496ec5 f afxinl3.obj
 0001:00095f15       ?OpenIcon@CWnd@@QAEHXZ     5f496f15 f afxinl3.obj
 0001:00095f70       ??_GCStatic@@UAEPAXI@Z     5f496f70 f afxinl3.obj
 0001:00095fb0       ??_GCButton@@UAEPAXI@Z     5f496fb0 f afxinl3.obj
 0001:00095ff0       ??_GCListBox@@UAEPAXI@Z    5f496ff0 f afxinl3.obj
 0001:00096030       ??_GCCheckListBox@@UAEPAXI@Z 5f497030 f afxinl3.obj
 0001:00096070       ??1CCheckListBox@@UAE@XZ   5f497070 f afxinl3.obj
 0001:000960d0       ??_GCComboBox@@UAEPAXI@Z   5f4970d0 f afxinl3.obj
 0001:00096110       ??_GCEdit@@UAEPAXI@Z       5f497110 f afxinl3.obj
 0001:00096150       ??_GCScrollBar@@UAEPAXI@Z  5f497150 f afxinl3.obj
 0001:00096190       ?_GetBaseClass@CException@@KGPAUCRuntimeClass@@XZ 5f497190 f except.obj
 0001:000961a5       ?GetRuntimeClass@CException@@UBEPAUCRuntimeClass@@XZ 5f4971a5 f except.obj
 0001:000961c0       ?_GetBaseClass@CMemoryException@@KGPAUCRuntimeClass@@XZ 5f4971c0 f except.obj
 0001:000961d5       ?GetRuntimeClass@CMemoryException@@UBEPAUCRuntimeClass@@XZ 5f4971d5 f except.obj
 0001:00096262       ?_GetBaseClass@CNotSupportedException@@KGPAUCRuntimeClass@@XZ 5f497262 f except.obj
 0001:00096277       ?GetRuntimeClass@CNotSupportedException@@UBEPAUCRuntimeClass@@XZ 5f497277 f except.obj
 0001:00096310       ?_GetBaseClass@CArchiveException@@KGPAUCRuntimeClass@@XZ 5f497310 f arcex.obj
 0001:00096325       ?GetRuntimeClass@CArchiveException@@UBEPAUCRuntimeClass@@XZ 5f497325 f arcex.obj
 0001:00096340       ?_GetBaseClass@CFile@@KGPAUCRuntimeClass@@XZ 5f497340 f filecore.obj
 0001:00096355       ?GetRuntimeClass@CFile@@UBEPAUCRuntimeClass@@XZ 5f497355 f filecore.obj
 0001:00096370       ?_GetBaseClass@CStdioFile@@KGPAUCRuntimeClass@@XZ 5f497370 f filetxt.obj
 0001:00096385       ?GetRuntimeClass@CStdioFile@@UBEPAUCRuntimeClass@@XZ 5f497385 f filetxt.obj
 0001:000963a0       ?_GetBaseClass@CMemFile@@KGPAUCRuntimeClass@@XZ 5f4973a0 f filemem.obj
 0001:000963b5       ?GetRuntimeClass@CMemFile@@UBEPAUCRuntimeClass@@XZ 5f4973b5 f filemem.obj
 0001:000963d0       ?_GetBaseClass@CSharedFile@@KGPAUCRuntimeClass@@XZ 5f4973d0 f fileshrd.obj
 0001:000963e5       ?GetRuntimeClass@CSharedFile@@UBEPAUCRuntimeClass@@XZ 5f4973e5 f fileshrd.obj
 0001:00096400       ?_GetBaseClass@CFileException@@KGPAUCRuntimeClass@@XZ 5f497400 f filex.obj
 0001:00096415       ?GetRuntimeClass@CFileException@@UBEPAUCRuntimeClass@@XZ 5f497415 f filex.obj
 0001:00096430       ?CreateObject@CByteArray@@SGPAVCObject@@XZ 5f497430 f array_b.obj
 0001:00096470       ?_GetBaseClass@CByteArray@@KGPAUCRuntimeClass@@XZ 5f497470 f array_b.obj
 0001:00096485       ?GetRuntimeClass@CByteArray@@UBEPAUCRuntimeClass@@XZ 5f497485 f array_b.obj
 0001:000964d4       ??5@YGAAVCArchive@@AAV0@AAPAVCByteArray@@@Z 5f4974d4 f array_b.obj
 0001:00096500       ?CreateObject@CDWordArray@@SGPAVCObject@@XZ 5f497500 f array_d.obj
 0001:00096540       ?_GetBaseClass@CDWordArray@@KGPAUCRuntimeClass@@XZ 5f497540 f array_d.obj
 0001:00096555       ?GetRuntimeClass@CDWordArray@@UBEPAUCRuntimeClass@@XZ 5f497555 f array_d.obj
 0001:000965a4       ??5@YGAAVCArchive@@AAV0@AAPAVCDWordArray@@@Z 5f4975a4 f array_d.obj
 0001:000965d0       ?_GetBaseClass@CPtrArray@@KGPAUCRuntimeClass@@XZ 5f4975d0 f array_p.obj
 0001:000965e5       ?GetRuntimeClass@CPtrArray@@UBEPAUCRuntimeClass@@XZ 5f4975e5 f array_p.obj
 0001:00096600       ?CreateObject@CObArray@@SGPAVCObject@@XZ 5f497600 f array_o.obj
 0001:00096640       ?_GetBaseClass@CObArray@@KGPAUCRuntimeClass@@XZ 5f497640 f array_o.obj
 0001:00096655       ?GetRuntimeClass@CObArray@@UBEPAUCRuntimeClass@@XZ 5f497655 f array_o.obj
 0001:000966a4       ??5@YGAAVCArchive@@AAV0@AAPAVCObArray@@@Z 5f4976a4 f array_o.obj
 0001:000966d0       ?CreateObject@CStringArray@@SGPAVCObject@@XZ 5f4976d0 f array_s.obj
 0001:00096710       ?_GetBaseClass@CStringArray@@KGPAUCRuntimeClass@@XZ 5f497710 f array_s.obj
 0001:00096725       ?GetRuntimeClass@CStringArray@@UBEPAUCRuntimeClass@@XZ 5f497725 f array_s.obj
 0001:00096774       ??5@YGAAVCArchive@@AAV0@AAPAVCStringArray@@@Z 5f497774 f array_s.obj
 0001:000967a0       ?_GetBaseClass@CUIntArray@@KGPAUCRuntimeClass@@XZ 5f4977a0 f array_u.obj
 0001:000967b5       ?GetRuntimeClass@CUIntArray@@UBEPAUCRuntimeClass@@XZ 5f4977b5 f array_u.obj
 0001:000967d0       ?CreateObject@CWordArray@@SGPAVCObject@@XZ 5f4977d0 f array_w.obj
 0001:00096810       ?_GetBaseClass@CWordArray@@KGPAUCRuntimeClass@@XZ 5f497810 f array_w.obj
 0001:00096825       ?GetRuntimeClass@CWordArray@@UBEPAUCRuntimeClass@@XZ 5f497825 f array_w.obj
 0001:00096874       ??5@YGAAVCArchive@@AAV0@AAPAVCWordArray@@@Z 5f497874 f array_w.obj
 0001:000968a0       ?CreateObject@CObList@@SGPAVCObject@@XZ 5f4978a0 f list_o.obj
 0001:000968e2       ?_GetBaseClass@CObList@@KGPAUCRuntimeClass@@XZ 5f4978e2 f list_o.obj
 0001:000968f7       ?GetRuntimeClass@CObList@@UBEPAUCRuntimeClass@@XZ 5f4978f7 f list_o.obj
 0001:00096946       ??5@YGAAVCArchive@@AAV0@AAPAVCObList@@@Z 5f497946 f list_o.obj
 0001:00096970       ?_GetBaseClass@CPtrList@@KGPAUCRuntimeClass@@XZ 5f497970 f list_p.obj
 0001:00096985       ?GetRuntimeClass@CPtrList@@UBEPAUCRuntimeClass@@XZ 5f497985 f list_p.obj
 0001:000969a0       ?CreateObject@CStringList@@SGPAVCObject@@XZ 5f4979a0 f list_s.obj
 0001:000969e2       ?_GetBaseClass@CStringList@@KGPAUCRuntimeClass@@XZ 5f4979e2 f list_s.obj
 0001:000969f7       ?GetRuntimeClass@CStringList@@UBEPAUCRuntimeClass@@XZ 5f4979f7 f list_s.obj
 0001:00096a46       ??5@YGAAVCArchive@@AAV0@AAPAVCStringList@@@Z 5f497a46 f list_s.obj
 0001:00096a70       ?_GetBaseClass@CMapPtrToPtr@@KGPAUCRuntimeClass@@XZ 5f497a70 f map_pp.obj
 0001:00096a85       ?GetRuntimeClass@CMapPtrToPtr@@UBEPAUCRuntimeClass@@XZ 5f497a85 f map_pp.obj
 0001:00096aa0       ?_GetBaseClass@CMapPtrToWord@@KGPAUCRuntimeClass@@XZ 5f497aa0 f map_pw.obj
 0001:00096ab5       ?GetRuntimeClass@CMapPtrToWord@@UBEPAUCRuntimeClass@@XZ 5f497ab5 f map_pw.obj
 0001:00096ad0       ?CreateObject@CMapStringToOb@@SGPAVCObject@@XZ 5f497ad0 f map_so.obj
 0001:00096b12       ?_GetBaseClass@CMapStringToOb@@KGPAUCRuntimeClass@@XZ 5f497b12 f map_so.obj
 0001:00096b27       ?GetRuntimeClass@CMapStringToOb@@UBEPAUCRuntimeClass@@XZ 5f497b27 f map_so.obj
 0001:00096b76       ??5@YGAAVCArchive@@AAV0@AAPAVCMapStringToOb@@@Z 5f497b76 f map_so.obj
 0001:00096ba0       ?_GetBaseClass@CMapStringToPtr@@KGPAUCRuntimeClass@@XZ 5f497ba0 f map_sp.obj
 0001:00096bb5       ?GetRuntimeClass@CMapStringToPtr@@UBEPAUCRuntimeClass@@XZ 5f497bb5 f map_sp.obj
 0001:00096bd0       ?CreateObject@CMapStringToString@@SGPAVCObject@@XZ 5f497bd0 f map_ss.obj
 0001:00096c12       ?_GetBaseClass@CMapStringToString@@KGPAUCRuntimeClass@@XZ 5f497c12 f map_ss.obj
 0001:00096c27       ?GetRuntimeClass@CMapStringToString@@UBEPAUCRuntimeClass@@XZ 5f497c27 f map_ss.obj
 0001:00096c76       ??5@YGAAVCArchive@@AAV0@AAPAVCMapStringToString@@@Z 5f497c76 f map_ss.obj
 0001:00096ca0       ?CreateObject@CMapWordToOb@@SGPAVCObject@@XZ 5f497ca0 f map_wo.obj
 0001:00096ce2       ?_GetBaseClass@CMapWordToOb@@KGPAUCRuntimeClass@@XZ 5f497ce2 f map_wo.obj
 0001:00096cf7       ?GetRuntimeClass@CMapWordToOb@@UBEPAUCRuntimeClass@@XZ 5f497cf7 f map_wo.obj
 0001:00096d46       ??5@YGAAVCArchive@@AAV0@AAPAVCMapWordToOb@@@Z 5f497d46 f map_wo.obj
 0001:00096d70       ?_GetBaseClass@CMapWordToPtr@@KGPAUCRuntimeClass@@XZ 5f497d70 f map_wp.obj
 0001:00096d85       ?GetRuntimeClass@CMapWordToPtr@@UBEPAUCRuntimeClass@@XZ 5f497d85 f map_wp.obj
 0001:00096da0       ?AfxSetModuleState@@YGPAVAFX_MODULE_STATE@@PAV1@@Z 5f497da0 f afxstate.obj
 0001:00096dd7       ??1AFX_MAINTAIN_STATE@@QAE@XZ 5f497dd7 f afxstate.obj
 0001:00096e05       ??0_AFX_THREAD_STATE@@QAE@XZ 5f497e05 f afxstate.obj
 0001:00096e8e       ??1_AFX_THREAD_STATE@@UAE@XZ 5f497e8e f afxstate.obj
 0001:00096fc1       ?AfxGetThreadState@@YGPAV_AFX_THREAD_STATE@@XZ 5f497fc1 f afxstate.obj
 0001:0009703c       ??0AFX_MODULE_STATE@@QAE@HP6GJPAUHWND__@@IIJ@ZKH@Z 5f49803c f afxstate.obj
 0001:0009717f       ??0AFX_MODULE_STATE@@QAE@HP6GJPAUHWND__@@IIJ@ZK@Z 5f49817f f afxstate.obj
 0001:00097284       ??1AFX_MODULE_STATE@@UAE@XZ 5f498284 f afxstate.obj
 0001:000973d6       ??0AFX_MODULE_THREAD_STATE@@QAE@XZ 5f4983d6 f afxstate.obj
 0001:000974c0       ??1AFX_MODULE_THREAD_STATE@@UAE@XZ 5f4984c0 f afxstate.obj
 0001:000976d4       ?AfxWndProcBase@@YGJPAUHWND__@@IIJ@Z 5f4986d4 f afxstate.obj
 0001:0009775c       ?AfxGetAppModuleState@@YGPAVAFX_MODULE_STATE@@XZ 5f49875c f afxstate.obj
 0001:00097776       ?AfxGetModuleState@@YGPAVAFX_MODULE_STATE@@XZ 5f498776 f afxstate.obj
 0001:000977e3       ?AfxGetModuleThreadState@@YGPAVAFX_MODULE_THREAD_STATE@@XZ 5f4987e3 f afxstate.obj
 0001:00097803       ?Unlock@CTypeLibCache@@QAEXXZ 5f498803 f afxstate.obj
 0001:000978b0       ??_E_AFX_THREAD_STATE@@UAEPAXI@Z 5f4988b0 f afxstate.obj
 0001:000978b0       ??_G_AFX_THREAD_STATE@@UAEPAXI@Z 5f4988b0 f afxstate.obj
 0001:000978f0       ??1?$CThreadLocal@V_AFX_THREAD_STATE@@@@QAE@XZ 5f4988f0 f afxstate.obj
 0001:00097950       ??_GAFX_MODULE_STATE@@UAEPAXI@Z 5f498950 f afxstate.obj
 0001:00097950       ??_EAFX_MODULE_STATE@@UAEPAXI@Z 5f498950 f afxstate.obj
 0001:00097990       ??1?$CThreadLocal@VAFX_MODULE_THREAD_STATE@@@@QAE@XZ 5f498990 f afxstate.obj
 0001:000979f0       ??_GAFX_MODULE_THREAD_STATE@@UAEPAXI@Z 5f4989f0 f afxstate.obj
 0001:000979f0       ??_EAFX_MODULE_THREAD_STATE@@UAEPAXI@Z 5f4989f0 f afxstate.obj
 0001:00097a30       ??_GCHandleMap@@QAEPAXI@Z  5f498a30 f afxstate.obj
 0001:00097a70       ??1?$CProcessLocal@V_AFX_BASE_MODULE_STATE@@@@QAE@XZ 5f498a70 f afxstate.obj
 0001:00097ad0       ??_E_AFX_BASE_MODULE_STATE@@UAEPAXI@Z 5f498ad0 f afxstate.obj
 0001:00097ad0       ??_G_AFX_BASE_MODULE_STATE@@UAEPAXI@Z 5f498ad0 f afxstate.obj
 0001:00097b10       ??1_AFX_BASE_MODULE_STATE@@UAE@XZ 5f498b10 f afxstate.obj
 0001:00097b70       ?AddHead@CSimpleList@@QAEXPAX@Z 5f498b70 f afxtls.obj
 0001:00097bf2       ?Remove@CSimpleList@@QAEHPAX@Z 5f498bf2 f afxtls.obj
 0001:00097d15       ??2CNoTrackObject@@SGPAXIPBDH@Z 5f498d15 f afxtls.obj
 0001:00097d30       ??2CNoTrackObject@@SGPAXI@Z 5f498d30 f afxtls.obj
 0001:00097d66       ??3CNoTrackObject@@SGXPAX@Z 5f498d66 f afxtls.obj
 0001:00097d8c       ??0CThreadSlotData@@QAE@XZ 5f498d8c f afxtls.obj
 0001:00097e10       ??1CThreadSlotData@@QAE@XZ 5f498e10 f afxtls.obj
 0001:00097ec9       ?AllocSlot@CThreadSlotData@@QAEHXZ 5f498ec9 f afxtls.obj
 0001:000980c2       ?FreeSlot@CThreadSlotData@@QAEXH@Z 5f4990c2 f afxtls.obj
 0001:000981f7       ?SetValue@CThreadSlotData@@QAEXHPAX@Z 5f4991f7 f afxtls.obj
 0001:0009844e       ?AssignInstance@CThreadSlotData@@QAEXPAUHINSTANCE__@@@Z 5f49944e f afxtls.obj
 0001:00098521       ?DeleteValues@CThreadSlotData@@QAEXPAUCThreadData@@PAUHINSTANCE__@@@Z 5f499521 f afxtls.obj
 0001:0009865f       ?DeleteValues@CThreadSlotData@@QAEXPAUHINSTANCE__@@H@Z 5f49965f f afxtls.obj
 0001:00098705       ?GetData@CThreadLocalObject@@QAEPAVCNoTrackObject@@P6GPAV2@XZ@Z 5f499705 f afxtls.obj
 0001:00098832       ?GetDataNA@CThreadLocalObject@@QAEPAVCNoTrackObject@@XZ 5f499832 f afxtls.obj
 0001:0009887f       ??1CThreadLocalObject@@QAE@XZ 5f49987f f afxtls.obj
 0001:000988c8       ?GetData@CProcessLocalObject@@QAEPAVCNoTrackObject@@P6GPAV2@XZ@Z 5f4998c8 f afxtls.obj
 0001:00098998       ??1CProcessLocalObject@@QAE@XZ 5f499998 f afxtls.obj
 0001:000989f5       ?AfxInitLocalData@@YGXPAUHINSTANCE__@@@Z 5f4999f5 f afxtls.obj
 0001:00098a23       ?AfxTermLocalData@@YGXPAUHINSTANCE__@@H@Z 5f499a23 f afxtls.obj
 0001:00098a55       ?AfxTlsAddRef@@YGXXZ       5f499a55 f afxtls.obj
 0001:00098a6b       ?AfxTlsRelease@@YGXXZ      5f499a6b f afxtls.obj
 0001:00098ac0       ??0CThreadData@@QAE@XZ     5f499ac0 f afxtls.obj
 0001:00098b30       ??_ECThreadData@@UAEPAXI@Z 5f499b30 f afxtls.obj
 0001:00098b30       ??_GCThreadData@@UAEPAXI@Z 5f499b30 f afxtls.obj
 0001:00098b70       ??1CThreadData@@UAE@XZ     5f499b70 f afxtls.obj
 0001:00098bd0       ?GetThreadValue@CThreadSlotData@@QAEPAXH@Z 5f499bd0 f afxtls.obj
 0001:00098cd0       ??_GCThreadSlotData@@QAEPAXI@Z 5f499cd0 f afxtls.obj
 0001:00098d10       ?_GetBaseClass@CCriticalSection@@KGPAUCRuntimeClass@@XZ 5f499d10 f mtcore.obj
 0001:00098d25       ?GetRuntimeClass@CCriticalSection@@UBEPAUCRuntimeClass@@XZ 5f499d25 f mtcore.obj
 0001:00098d40       ?_GetBaseClass@CSyncObject@@KGPAUCRuntimeClass@@XZ 5f499d40 f mtcore.obj
 0001:00098d55       ?GetRuntimeClass@CSyncObject@@UBEPAUCRuntimeClass@@XZ 5f499d55 f mtcore.obj
 0001:00098d70       ?_GetBaseClass@CEvent@@KGPAUCRuntimeClass@@XZ 5f499d70 f mtex.obj
 0001:00098d85       ?GetRuntimeClass@CEvent@@UBEPAUCRuntimeClass@@XZ 5f499d85 f mtex.obj
 0001:00098da0       ?_GetBaseClass@CSemaphore@@KGPAUCRuntimeClass@@XZ 5f499da0 f mtex.obj
 0001:00098db5       ?GetRuntimeClass@CSemaphore@@UBEPAUCRuntimeClass@@XZ 5f499db5 f mtex.obj
 0001:00098dd0       ?_GetBaseClass@CMutex@@KGPAUCRuntimeClass@@XZ 5f499dd0 f mtex.obj
 0001:00098de5       ?GetRuntimeClass@CMutex@@UBEPAUCRuntimeClass@@XZ 5f499de5 f mtex.obj
 0001:00098e00       ?CreateObject@CWnd@@SGPAVCObject@@XZ 5f499e00 f wincore.obj
 0001:00098e40       ?_GetBaseClass@CWnd@@KGPAUCRuntimeClass@@XZ 5f499e40 f wincore.obj
 0001:00098e55       ?GetRuntimeClass@CWnd@@UBEPAUCRuntimeClass@@XZ 5f499e55 f wincore.obj
 0001:00098e70       ?CreateObject@CFrameWnd@@SGPAVCObject@@XZ 5f499e70 f winfrm.obj
 0001:00098eb3       ?_GetBaseClass@CFrameWnd@@KGPAUCRuntimeClass@@XZ 5f499eb3 f winfrm.obj
 0001:00098ec8       ?GetRuntimeClass@CFrameWnd@@UBEPAUCRuntimeClass@@XZ 5f499ec8 f winfrm.obj
 0001:00098ee3       ?_GetBaseClass@CView@@KGPAUCRuntimeClass@@XZ 5f499ee3 f winfrm.obj
 0001:00098ef8       ?GetRuntimeClass@CView@@UBEPAUCRuntimeClass@@XZ 5f499ef8 f winfrm.obj
 0001:00098f13       ?_GetBaseClass@CControlBar@@KGPAUCRuntimeClass@@XZ 5f499f13 f winfrm.obj
 0001:00098f28       ?GetRuntimeClass@CControlBar@@UBEPAUCRuntimeClass@@XZ 5f499f28 f winfrm.obj
 0001:00098f50       ?CreateObject@CMDIFrameWnd@@SGPAVCObject@@XZ 5f499f50 f winmdi.obj
 0001:00098fdb       ?_GetBaseClass@CMDIFrameWnd@@KGPAUCRuntimeClass@@XZ 5f499fdb f winmdi.obj
 0001:00098ff0       ?GetRuntimeClass@CMDIFrameWnd@@UBEPAUCRuntimeClass@@XZ 5f499ff0 f winmdi.obj
 0001:0009900b       ?CreateObject@CMDIChildWnd@@SGPAVCObject@@XZ 5f49a00b f winmdi.obj
 0001:00099096       ?_GetBaseClass@CMDIChildWnd@@KGPAUCRuntimeClass@@XZ 5f49a096 f winmdi.obj
 0001:000990ab       ?GetRuntimeClass@CMDIChildWnd@@UBEPAUCRuntimeClass@@XZ 5f49a0ab f winmdi.obj
 0001:000990d0       ?_GetBaseClass@CToolTipCtrl@@KGPAUCRuntimeClass@@XZ 5f49a0d0 f tooltip.obj
 0001:000990e5       ?GetRuntimeClass@CToolTipCtrl@@UBEPAUCRuntimeClass@@XZ 5f49a0e5 f tooltip.obj
 0001:00099100       ?CreateObject@CMiniFrameWnd@@SGPAVCObject@@XZ 5f49a100 f winmini.obj
 0001:00099143       ?_GetBaseClass@CMiniFrameWnd@@KGPAUCRuntimeClass@@XZ 5f49a143 f winmini.obj
 0001:00099158       ?GetRuntimeClass@CMiniFrameWnd@@UBEPAUCRuntimeClass@@XZ 5f49a158 f winmini.obj
 0001:00099180       ??0CControlBar@@IAE@XZ     5f49a180 f barcore.obj
 0001:00099289       ?PreCreateWindow@CControlBar@@UAEHAAUtagCREATESTRUCTW@@@Z 5f49a289 f barcore.obj
 0001:0009939a       ?SetBarStyle@CControlBar@@QAEXK@Z 5f49a39a f barcore.obj
 0001:000993f8       ?OnBarStyleChange@CControlBar@@UAEXKK@Z 5f49a3f8 f barcore.obj
 0001:00099410       ?AllocElements@CControlBar@@QAEHHH@Z 5f49a410 f barcore.obj
 0001:00099520       ??_GCControlBar@@UAEPAXI@Z 5f49a520 f barcore.obj
 0001:00099520       ??_ECControlBar@@UAEPAXI@Z 5f49a520 f barcore.obj
 0001:00099560       ??0CToolBar@@QAE@XZ        5f49a560 f bartool.obj
 0001:00099671       ??1CToolBar@@UAE@XZ        5f49a671 f bartool.obj
 0001:0009971f       ?Create@CToolBar@@QAEHPAVCWnd@@KI@Z 5f49a71f f bartool.obj
 0001:0009982c       ?OnNcCreate@CToolBar@@IAEHPAUtagCREATESTRUCTW@@@Z 5f49a82c f bartool.obj
 0001:000998a4       ?SetOwner@CToolBar@@QAEXPAVCWnd@@@Z 5f49a8a4 f bartool.obj
 0001:00099933       ?SetSizes@CToolBar@@QAEXUtagSIZE@@0@Z 5f49a933 f bartool.obj
 0001:00099ac7       ?SetHeight@CToolBar@@QAEXH@Z 5f49aac7 f bartool.obj
 0001:00099bae       ?LoadToolBar@CToolBar@@QAEHPBG@Z 5f49abae f bartool.obj
 0001:00099db8       ?LoadBitmapW@CToolBar@@QAEHPBG@Z 5f49adb8 f bartool.obj
 0001:00099e7e       ?SetBitmap@CToolBar@@QAEHPAUHBITMAP__@@@Z 5f49ae7e f bartool.obj
 0001:00099eee       ?AddReplaceBitmap@CToolBar@@QAEHPAUHBITMAP__@@@Z 5f49aeee f bartool.obj
 0001:0009a00b       ?SetButtons@CToolBar@@QAEHPBIH@Z 5f49b00b f bartool.obj
 0001:0009a252       ?_GetBaseClass@CToolBar@@KGPAUCRuntimeClass@@XZ 5f49b252 f bartool.obj
 0001:0009a267       ?GetRuntimeClass@CToolBar@@UBEPAUCRuntimeClass@@XZ 5f49b267 f bartool.obj
 0001:0009a290       ??_GCToolBar@@UAEPAXI@Z    5f49b290 f bartool.obj
 0001:0009a2d0       ?_GetBaseClass@CDialogBar@@KGPAUCRuntimeClass@@XZ 5f49b2d0 f bardlg.obj
 0001:0009a2e5       ?GetRuntimeClass@CDialogBar@@UBEPAUCRuntimeClass@@XZ 5f49b2e5 f bardlg.obj
 0001:0009a300       ??0CStatusBar@@QAE@XZ      5f49b300 f barstat.obj
 0001:0009a3d1       ??1CStatusBar@@UAE@XZ      5f49b3d1 f barstat.obj
 0001:0009a445       ?Create@CStatusBar@@QAEHPAVCWnd@@KI@Z 5f49b445 f barstat.obj
 0001:0009a512       ?PreCreateWindow@CStatusBar@@UAEHAAUtagCREATESTRUCTW@@@Z 5f49b512 f barstat.obj
 0001:0009a55a       ?SetIndicators@CStatusBar@@QAEHPBIH@Z 5f49b55a f barstat.obj
 0001:0009a823       ?AllocElements@CStatusBar@@QAEHHH@Z 5f49b823 f barstat.obj
 0001:0009a8e9       ?CalcInsideRect@CStatusBar@@QBEXAAVCRect@@H@Z 5f49b8e9 f barstat.obj
 0001:0009a9e7       ?UpdateAllPanes@CStatusBar@@IAEXHH@Z 5f49b9e7 f barstat.obj
 0001:0009ac9e       ?_GetBaseClass@CStatusBar@@KGPAUCRuntimeClass@@XZ 5f49bc9e f barstat.obj
 0001:0009acb3       ?GetRuntimeClass@CStatusBar@@UBEPAUCRuntimeClass@@XZ 5f49bcb3 f barstat.obj
 0001:0009acd0       ??_GCStatusBar@@UAEPAXI@Z  5f49bcd0 f barstat.obj
 0001:0009ad10       ?_GetBaseClass@CDockBar@@KGPAUCRuntimeClass@@XZ 5f49bd10 f bardock.obj
 0001:0009ad25       ?GetRuntimeClass@CDockBar@@UBEPAUCRuntimeClass@@XZ 5f49bd25 f bardock.obj
 0001:0009ad40       ?CreateObject@CMiniDockFrameWnd@@SGPAVCObject@@XZ 5f49bd40 f bardock.obj
 0001:0009ad83       ?_GetBaseClass@CMiniDockFrameWnd@@KGPAUCRuntimeClass@@XZ 5f49bd83 f bardock.obj
 0001:0009ad98       ?GetRuntimeClass@CMiniDockFrameWnd@@UBEPAUCRuntimeClass@@XZ 5f49bd98 f bardock.obj
 0001:0009adc0       ?CreateObject@CDockState@@SGPAVCObject@@XZ 5f49bdc0 f dockstat.obj
 0001:0009ae00       ?_GetBaseClass@CDockState@@KGPAUCRuntimeClass@@XZ 5f49be00 f dockstat.obj
 0001:0009ae15       ?GetRuntimeClass@CDockState@@UBEPAUCRuntimeClass@@XZ 5f49be15 f dockstat.obj
 0001:0009ae64       ??5@YGAAVCArchive@@AAV0@AAPAVCDockState@@@Z 5f49be64 f dockstat.obj
 0001:0009ae90       ?_GetBaseClass@CPreviewDC@@KGPAUCRuntimeClass@@XZ 5f49be90 f dcprev.obj
 0001:0009aea5       ?GetRuntimeClass@CPreviewDC@@UBEPAUCRuntimeClass@@XZ 5f49bea5 f dcprev.obj
 0001:0009aec0       ?_GetBaseClass@CMetaFileDC@@KGPAUCRuntimeClass@@XZ 5f49bec0 f dcmeta.obj
 0001:0009aed5       ?GetRuntimeClass@CMetaFileDC@@UBEPAUCRuntimeClass@@XZ 5f49bed5 f dcmeta.obj
 0001:0009aef0       ?_GetBaseClass@CStatic@@KGPAUCRuntimeClass@@XZ 5f49bef0 f winctrl1.obj
 0001:0009af05       ?GetRuntimeClass@CStatic@@UBEPAUCRuntimeClass@@XZ 5f49bf05 f winctrl1.obj
 0001:0009af20       ?_GetBaseClass@CButton@@KGPAUCRuntimeClass@@XZ 5f49bf20 f winctrl1.obj
 0001:0009af35       ?GetRuntimeClass@CButton@@UBEPAUCRuntimeClass@@XZ 5f49bf35 f winctrl1.obj
 0001:0009af50       ?_GetBaseClass@CListBox@@KGPAUCRuntimeClass@@XZ 5f49bf50 f winctrl1.obj
 0001:0009af65       ?GetRuntimeClass@CListBox@@UBEPAUCRuntimeClass@@XZ 5f49bf65 f winctrl1.obj
 0001:0009af80       ?_GetBaseClass@CComboBox@@KGPAUCRuntimeClass@@XZ 5f49bf80 f winctrl1.obj
 0001:0009af95       ?GetRuntimeClass@CComboBox@@UBEPAUCRuntimeClass@@XZ 5f49bf95 f winctrl1.obj
 0001:0009afb0       ?_GetBaseClass@CEdit@@KGPAUCRuntimeClass@@XZ 5f49bfb0 f winctrl1.obj
 0001:0009afc5       ?GetRuntimeClass@CEdit@@UBEPAUCRuntimeClass@@XZ 5f49bfc5 f winctrl1.obj
 0001:0009afe0       ?_GetBaseClass@CScrollBar@@KGPAUCRuntimeClass@@XZ 5f49bfe0 f winctrl1.obj
 0001:0009aff5       ?GetRuntimeClass@CScrollBar@@UBEPAUCRuntimeClass@@XZ 5f49bff5 f winctrl1.obj
 0001:0009b010       ?_GetBaseClass@CDragListBox@@KGPAUCRuntimeClass@@XZ 5f49c010 f winctrl2.obj
 0001:0009b025       ?GetRuntimeClass@CDragListBox@@UBEPAUCRuntimeClass@@XZ 5f49c025 f winctrl2.obj
 0001:0009b040       ?_GetBaseClass@CSpinButtonCtrl@@KGPAUCRuntimeClass@@XZ 5f49c040 f winctrl2.obj
 0001:0009b055       ?GetRuntimeClass@CSpinButtonCtrl@@UBEPAUCRuntimeClass@@XZ 5f49c055 f winctrl2.obj
 0001:0009b070       ?_GetBaseClass@CSliderCtrl@@KGPAUCRuntimeClass@@XZ 5f49c070 f winctrl2.obj
 0001:0009b085       ?GetRuntimeClass@CSliderCtrl@@UBEPAUCRuntimeClass@@XZ 5f49c085 f winctrl2.obj
 0001:0009b0a0       ?_GetBaseClass@CProgressCtrl@@KGPAUCRuntimeClass@@XZ 5f49c0a0 f winctrl2.obj
 0001:0009b0b5       ?GetRuntimeClass@CProgressCtrl@@UBEPAUCRuntimeClass@@XZ 5f49c0b5 f winctrl2.obj
 0001:0009b0d0       ?_GetBaseClass@CHeaderCtrl@@KGPAUCRuntimeClass@@XZ 5f49c0d0 f winctrl2.obj
 0001:0009b0e5       ?GetRuntimeClass@CHeaderCtrl@@UBEPAUCRuntimeClass@@XZ 5f49c0e5 f winctrl2.obj
 0001:0009b100       ?_GetBaseClass@CHotKeyCtrl@@KGPAUCRuntimeClass@@XZ 5f49c100 f winctrl2.obj
 0001:0009b115       ?GetRuntimeClass@CHotKeyCtrl@@UBEPAUCRuntimeClass@@XZ 5f49c115 f winctrl2.obj
 0001:0009b130       ?_GetBaseClass@CAnimateCtrl@@KGPAUCRuntimeClass@@XZ 5f49c130 f winctrl2.obj
 0001:0009b145       ?GetRuntimeClass@CAnimateCtrl@@UBEPAUCRuntimeClass@@XZ 5f49c145 f winctrl2.obj
 0001:0009b160       ?_GetBaseClass@CTabCtrl@@KGPAUCRuntimeClass@@XZ 5f49c160 f winctrl2.obj
 0001:0009b175       ?GetRuntimeClass@CTabCtrl@@UBEPAUCRuntimeClass@@XZ 5f49c175 f winctrl2.obj
 0001:0009b190       ?_GetBaseClass@CTreeCtrl@@KGPAUCRuntimeClass@@XZ 5f49c190 f winctrl2.obj
 0001:0009b1a5       ?GetRuntimeClass@CTreeCtrl@@UBEPAUCRuntimeClass@@XZ 5f49c1a5 f winctrl2.obj
 0001:0009b1c0       ?_GetBaseClass@CListCtrl@@KGPAUCRuntimeClass@@XZ 5f49c1c0 f winctrl2.obj
 0001:0009b1d5       ?GetRuntimeClass@CListCtrl@@UBEPAUCRuntimeClass@@XZ 5f49c1d5 f winctrl2.obj
 0001:0009b1f0       ?_GetBaseClass@CToolBarCtrl@@KGPAUCRuntimeClass@@XZ 5f49c1f0 f winctrl2.obj
 0001:0009b205       ?GetRuntimeClass@CToolBarCtrl@@UBEPAUCRuntimeClass@@XZ 5f49c205 f winctrl2.obj
 0001:0009b220       ?_GetBaseClass@CStatusBarCtrl@@KGPAUCRuntimeClass@@XZ 5f49c220 f winctrl2.obj
 0001:0009b235       ?GetRuntimeClass@CStatusBarCtrl@@UBEPAUCRuntimeClass@@XZ 5f49c235 f winctrl2.obj
 0001:0009b250       ?CreateObject@CImageList@@SGPAVCObject@@XZ 5f49c250 f winctrl2.obj
 0001:0009b290       ?_GetBaseClass@CImageList@@KGPAUCRuntimeClass@@XZ 5f49c290 f winctrl2.obj
 0001:0009b2a5       ?GetRuntimeClass@CImageList@@UBEPAUCRuntimeClass@@XZ 5f49c2a5 f winctrl2.obj
 0001:0009b2c0       ?_GetBaseClass@CRichEditCtrl@@KGPAUCRuntimeClass@@XZ 5f49c2c0 f winctrl2.obj
 0001:0009b2d5       ?GetRuntimeClass@CRichEditCtrl@@UBEPAUCRuntimeClass@@XZ 5f49c2d5 f winctrl2.obj
 0001:0009b2f0       ?_GetBaseClass@CCheckListBox@@KGPAUCRuntimeClass@@XZ 5f49c2f0 f winctrl3.obj
 0001:0009b305       ?GetRuntimeClass@CCheckListBox@@UBEPAUCRuntimeClass@@XZ 5f49c305 f winctrl3.obj
 0001:0009b390       ??1?$CProcessLocal@V_AFX_CHECKLIST_STATE@@@@QAE@XZ 5f49c390 f winctrl3.obj
 0001:0009b3f0       ?_GetBaseClass@CBitmapButton@@KGPAUCRuntimeClass@@XZ 5f49c3f0 f winbtn.obj
 0001:0009b405       ?GetRuntimeClass@CBitmapButton@@UBEPAUCRuntimeClass@@XZ 5f49c405 f winbtn.obj
 0001:0009b420       ?_GetBaseClass@CDialog@@KGPAUCRuntimeClass@@XZ 5f49c420 f dlgcore.obj
 0001:0009b435       ?GetRuntimeClass@CDialog@@UBEPAUCRuntimeClass@@XZ 5f49c435 f dlgcore.obj
 0001:0009b450       ?_GetBaseClass@CPropertyPage@@KGPAUCRuntimeClass@@XZ 5f49c450 f dlgprop.obj
 0001:0009b465       ?GetRuntimeClass@CPropertyPage@@UBEPAUCRuntimeClass@@XZ 5f49c465 f dlgprop.obj
 0001:0009b480       ?_GetBaseClass@CPropertySheet@@KGPAUCRuntimeClass@@XZ 5f49c480 f dlgprop.obj
 0001:0009b495       ?GetRuntimeClass@CPropertySheet@@UBEPAUCRuntimeClass@@XZ 5f49c495 f dlgprop.obj
 0001:0009b4b0       ?_GetBaseClass@CFileDialog@@KGPAUCRuntimeClass@@XZ 5f49c4b0 f dlgfile.obj
 0001:0009b4c5       ?GetRuntimeClass@CFileDialog@@UBEPAUCRuntimeClass@@XZ 5f49c4c5 f dlgfile.obj
 0001:0009b4e0       ?_GetBaseClass@CPrintDialog@@KGPAUCRuntimeClass@@XZ 5f49c4e0 f dlgprnt.obj
 0001:0009b4f5       ?GetRuntimeClass@CPrintDialog@@UBEPAUCRuntimeClass@@XZ 5f49c4f5 f dlgprnt.obj
 0001:0009b510       ?_GetBaseClass@CPageSetupDialog@@KGPAUCRuntimeClass@@XZ 5f49c510 f dlgprnt.obj
 0001:0009b525       ?GetRuntimeClass@CPageSetupDialog@@UBEPAUCRuntimeClass@@XZ 5f49c525 f dlgprnt.obj
 0001:0009b540       ?_GetBaseClass@CColorDialog@@KGPAUCRuntimeClass@@XZ 5f49c540 f dlgclr.obj
 0001:0009b555       ?GetRuntimeClass@CColorDialog@@UBEPAUCRuntimeClass@@XZ 5f49c555 f dlgclr.obj
 0001:0009b5e0       ??1?$CProcessLocal@V_AFX_COLOR_STATE@@@@QAE@XZ 5f49c5e0 f dlgclr.obj
 0001:0009b640       ?_GetBaseClass@CFontDialog@@KGPAUCRuntimeClass@@XZ 5f49c640 f dlgfnt.obj
 0001:0009b655       ?GetRuntimeClass@CFontDialog@@UBEPAUCRuntimeClass@@XZ 5f49c655 f dlgfnt.obj
 0001:0009b670       ?_GetBaseClass@CFindReplaceDialog@@KGPAUCRuntimeClass@@XZ 5f49c670 f dlgfr.obj
 0001:0009b685       ?GetRuntimeClass@CFindReplaceDialog@@UBEPAUCRuntimeClass@@XZ 5f49c685 f dlgfr.obj
 0001:0009b6a0       ?AfxThunkInitCommonControls@@YGXXZ 5f49c6a0 f ccdata.obj
 0001:0009b6c8       ?AfxThunkLBItemFromPt@@YGHPAUHWND__@@UtagPOINT@@H@Z 5f49c6c8 f ccdata.obj
 0001:0009b706       ?AfxThunkCreateMappedBitmap@@YGPAUHBITMAP__@@PAUHINSTANCE__@@HIPAU_COLORMAP@@H@Z 5f49c706 f ccdata.obj
 0001:0009b748       ?AfxThunkMakeDragList@@YGHPAUHWND__@@@Z 5f49c748 f ccdata.obj
 0001:0009b77a       ?AfxThunkImageList_SetOverlayImage@@YGHPAU_IMAGELIST@@HH@Z 5f49c77a f ccdata.obj
 0001:0009b7b4       ?AfxThunkImageList_GetBkColor@@YGKPAU_IMAGELIST@@@Z 5f49c7b4 f ccdata.obj
 0001:0009b7e6       ?AfxThunkImageList_SetBkColor@@YGKPAU_IMAGELIST@@K@Z 5f49c7e6 f ccdata.obj
 0001:0009b81c       ?AfxThunkImageList_GetImageInfo@@YGHPAU_IMAGELIST@@HPAU_IMAGEINFO@@@Z 5f49c81c f ccdata.obj
 0001:0009b856       ?AfxThunkImageList_Draw@@YGHPAU_IMAGELIST@@HPAUHDC__@@HHI@Z 5f49c856 f ccdata.obj
 0001:0009b89c       ?AfxThunkImageList_GetIcon@@YGPAUHICON__@@PAU_IMAGELIST@@HI@Z 5f49c89c f ccdata.obj
 0001:0009b8d6       ?AfxThunkImageList_ReplaceIcon@@YGHPAU_IMAGELIST@@HPAUHICON__@@@Z 5f49c8d6 f ccdata.obj
 0001:0009b910       ?AfxThunkImageList_Replace@@YGHPAU_IMAGELIST@@HPAUHBITMAP__@@1@Z 5f49c910 f ccdata.obj
 0001:0009b94e       ?AfxThunkImageList_Remove@@YGHPAU_IMAGELIST@@H@Z 5f49c94e f ccdata.obj
 0001:0009b984       ?AfxThunkImageList_AddMasked@@YGHPAU_IMAGELIST@@PAUHBITMAP__@@K@Z 5f49c984 f ccdata.obj
 0001:0009b9be       ?AfxThunkImageList_EndDrag@@YGXXZ 5f49c9be f ccdata.obj
 0001:0009b9ea       ?AfxThunkImageList_BeginDrag@@YGHPAU_IMAGELIST@@HHH@Z 5f49c9ea f ccdata.obj
 0001:0009ba28       ?AfxThunkImageList_Write@@YGHPAU_IMAGELIST@@PAUIStream@@@Z 5f49ca28 f ccdata.obj
 0001:0009ba5e       ?AfxThunkImageList_Read@@YGPAU_IMAGELIST@@PAUIStream@@@Z 5f49ca5e f ccdata.obj
 0001:0009ba90       ?AfxThunkImageList_Merge@@YGPAU_IMAGELIST@@PAU1@H0HHH@Z 5f49ca90 f ccdata.obj
 0001:0009bad6       ?AfxThunkImageList_Create@@YGPAU_IMAGELIST@@HHIHH@Z 5f49cad6 f ccdata.obj
 0001:0009bb18       ?AfxThunkImageList_Destroy@@YGHPAU_IMAGELIST@@@Z 5f49cb18 f ccdata.obj
 0001:0009bb4a       ?AfxThunkImageList_DragMove@@YGHHH@Z 5f49cb4a f ccdata.obj
 0001:0009bb80       ?AfxThunkImageList_SetDragCursorImage@@YGHPAU_IMAGELIST@@HHH@Z 5f49cb80 f ccdata.obj
 0001:0009bbbe       ?AfxThunkImageList_DragShowNolock@@YGHH@Z 5f49cbbe f ccdata.obj
 0001:0009bbf0       ?AfxThunkImageList_GetDragImage@@YGPAU_IMAGELIST@@PAUtagPOINT@@0@Z 5f49cbf0 f ccdata.obj
 0001:0009bc26       ?AfxThunkImageList_DragEnter@@YGHPAUHWND__@@HH@Z 5f49cc26 f ccdata.obj
 0001:0009bc60       ?AfxThunkImageList_DragLeave@@YGHPAUHWND__@@@Z 5f49cc60 f ccdata.obj
 0001:0009bc92       ?AfxThunkImageList_GetImageCount@@YGHPAU_IMAGELIST@@@Z 5f49cc92 f ccdata.obj
 0001:0009bcc4       ?AfxThunkImageList_Add@@YGHPAU_IMAGELIST@@PAUHBITMAP__@@1@Z 5f49ccc4 f ccdata.obj
 0001:0009bcfe       ?AfxThunkImageList_LoadImage@@YGPAU_IMAGELIST@@PAUHINSTANCE__@@PBGHHKII@Z 5f49ccfe f ccdata.obj
 0001:0009bd48       ?AfxThunkDestroyPropertySheetPage@@YGHPAU_PSP@@@Z 5f49cd48 f ccdata.obj
 0001:0009bd7a       ?AfxThunkPropertySheet@@YGHPBU_PROPSHEETHEADERW@@@Z 5f49cd7a f ccdata.obj
 0001:0009bdac       ?AfxThunkCreatePropertySheetPage@@YGPAU_PSP@@PBU_PROPSHEETPAGEW@@@Z 5f49cdac f ccdata.obj
 0001:0009bde0       ?AfxThunkSHGetFileInfo@@YGKPBGKPAU_SHFILEINFOW@@II@Z 5f49cde0 f ccdata.obj
 0001:0009be1e       ?AfxThunkExtractIcon@@YGPAUHICON__@@PAUHINSTANCE__@@PBGI@Z 5f49ce1e f ccdata.obj
 0001:0009be58       ?AfxThunkDragQueryFile@@YGIPAUHDROP__@@IPAGI@Z 5f49ce58 f ccdata.obj
 0001:0009be96       ?AfxThunkDragAcceptFiles@@YGXPAUHWND__@@H@Z 5f49ce96 f ccdata.obj
 0001:0009becc       ?AfxThunkDragFinish@@YGXPAUHDROP__@@@Z 5f49cecc f ccdata.obj
 0001:0009befe       ?AfxThunkChooseColor@@YGHPAUtagCHOOSECOLORW@@@Z 5f49cefe f ccdata.obj
 0001:0009bf2c       ?AfxThunkCommDlgExtendedError@@YGKXZ 5f49cf2c f ccdata.obj
 0001:0009bf58       ?AfxThunkReplaceText@@YGPAUHWND__@@PAUtagFINDREPLACEW@@@Z 5f49cf58 f ccdata.obj
 0001:0009bf8a       ?AfxThunkGetSaveFileName@@YGHPAUtagOFNW@@@Z 5f49cf8a f ccdata.obj
 0001:0009bfbc       ?AfxThunkGetFileTitle@@YGFPBGPAGG@Z 5f49cfbc f ccdata.obj
 0001:0009bff6       ?AfxThunkPrintDlg@@YGHPAUtagPDW@@@Z 5f49cff6 f ccdata.obj
 0001:0009c028       ?AfxThunkChooseFont@@YGHPAUtagCHOOSEFONTW@@@Z 5f49d028 f ccdata.obj
 0001:0009c05a       ?AfxThunkFindText@@YGPAUHWND__@@PAUtagFINDREPLACEW@@@Z 5f49d05a f ccdata.obj
 0001:0009c08c       ?AfxThunkPageSetupDlg@@YGHPAUtagPSDW@@@Z 5f49d08c f ccdata.obj
 0001:0009c0be       ?AfxThunkGetOpenFileName@@YGHPAUtagOFNW@@@Z 5f49d0be f ccdata.obj
 0001:0009c0f0       ?AfxThunkDocumentProperties@@YGJPAUHWND__@@PAXPAGPAU_devicemodeW@@3K@Z 5f49d0f0 f ccdata.obj
 0001:0009c136       ?AfxThunkOpenPrinter@@YGHPAGPAPAXPAU_PRINTER_DEFAULTSW@@@Z 5f49d136 f ccdata.obj
 0001:0009c16c       ?AfxThunkClosePrinter@@YGHPAX@Z 5f49d16c f ccdata.obj
 0001:0009c19e       ?AfxThunkRegCreateKeyEx@@YGJPAUHKEY__@@PBGKPAGKKPAU_SECURITY_ATTRIBUTES@@PAPAU1@PAK@Z 5f49d19e f ccdata.obj
 0001:0009c1ec       ?AfxThunkRegEnumKey@@YGJPAUHKEY__@@KPAGK@Z 5f49d1ec f ccdata.obj
 0001:0009c22a       ?AfxThunkRegDeleteKey@@YGJPAUHKEY__@@PBG@Z 5f49d22a f ccdata.obj
 0001:0009c260       ?AfxThunkRegDeleteValue@@YGJPAUHKEY__@@PBG@Z 5f49d260 f ccdata.obj
 0001:0009c296       ?AfxThunkRegOpenKeyEx@@YGJPAUHKEY__@@PBGKKPAPAU1@@Z 5f49d296 f ccdata.obj
 0001:0009c2d8       ?AfxThunkRegCloseKey@@YGJPAUHKEY__@@@Z 5f49d2d8 f ccdata.obj
 0001:0009c30a       ?AfxThunkRegSetValue@@YGJPAUHKEY__@@PBGK1K@Z 5f49d30a f ccdata.obj
 0001:0009c34c       ?AfxThunkRegCreateKey@@YGJPAUHKEY__@@PBGPAPAU1@@Z 5f49d34c f ccdata.obj
 0001:0009c386       ?AfxThunkRegSetValueEx@@YGJPAUHKEY__@@PBGKKPBEK@Z 5f49d386 f ccdata.obj
 0001:0009c3cc       ?AfxThunkRegQueryValue@@YGJPAUHKEY__@@PBGPAGPAJ@Z 5f49d3cc f ccdata.obj
 0001:0009c40a       ?AfxThunkRegOpenKey@@YGJPAUHKEY__@@PBGPAPAU1@@Z 5f49d40a f ccdata.obj
 0001:0009c444       ?AfxThunkRegQueryValueEx@@YGJPAUHKEY__@@PBGPAK2PAE2@Z 5f49d444 f ccdata.obj
 0001:0009c48a       ?AfxThunkSetFileSecurity@@YGHPBGKPAX@Z 5f49d48a f ccdata.obj
 0001:0009c4c4       ?AfxThunkGetFileSecurity@@YGHPBGKPAXKPAK@Z 5f49d4c4 f ccdata.obj
 0001:0009c567       ?AfxGetPropSheetFont@@YGHAAVCString@@AAGH@Z 5f49d567 f ccdata.obj
 0001:0009c69e       ??1_AFX_EXTDLL_STATE@@UAE@XZ 5f49d69e f ccdata.obj
 0001:0009c810       ?AfxLoadCommCtrl@@YAPAUHINSTANCE__@@PAP6GHXZPBD@Z 5f49d810 f ccdata.obj
 0001:0009c840       ?AfxLoadShell@@YAPAUHINSTANCE__@@PAP6GHXZPBD@Z 5f49d840 f ccdata.obj
 0001:0009c870       ?AfxLoadComDlg@@YAPAUHINSTANCE__@@PAP6GHXZPBD@Z 5f49d870 f ccdata.obj
 0001:0009c8a0       ?AfxLoadWinSpool@@YAPAUHINSTANCE__@@PAP6GHXZPBD@Z 5f49d8a0 f ccdata.obj
 0001:0009c8d0       ?AfxLoadAdvApi@@YAPAUHINSTANCE__@@PAP6GHXZPBD@Z 5f49d8d0 f ccdata.obj
 0001:0009c900       ??1?$CProcessLocal@U_AFX_PROPPAGEFONTINFO@@@@QAE@XZ 5f49d900 f ccdata.obj
 0001:0009c960       ??_E_AFX_PROPPAGEFONTINFO@@UAEPAXI@Z 5f49d960 f ccdata.obj
 0001:0009c960       ??_G_AFX_PROPPAGEFONTINFO@@UAEPAXI@Z 5f49d960 f ccdata.obj
 0001:0009c9a0       ?AfxLoadCommCtrl@@YAPAUHINSTANCE__@@XZ 5f49d9a0 f ccdata.obj
 0001:0009c9d0       ??1?$CProcessLocal@V_AFX_EXTDLL_STATE@@@@QAE@XZ 5f49d9d0 f ccdata.obj
 0001:0009ca30       ?_GetBaseClass@CResourceException@@KGPAUCRuntimeClass@@XZ 5f49da30 f wingdi.obj
 0001:0009ca45       ?GetRuntimeClass@CResourceException@@UBEPAUCRuntimeClass@@XZ 5f49da45 f wingdi.obj
 0001:0009cad2       ?_GetBaseClass@CUserException@@KGPAUCRuntimeClass@@XZ 5f49dad2 f wingdi.obj
 0001:0009cae7       ?GetRuntimeClass@CUserException@@UBEPAUCRuntimeClass@@XZ 5f49dae7 f wingdi.obj
 0001:0009cb74       ?CreateObject@CDC@@SGPAVCObject@@XZ 5f49db74 f wingdi.obj
 0001:0009cbfc       ?_GetBaseClass@CDC@@KGPAUCRuntimeClass@@XZ 5f49dbfc f wingdi.obj
 0001:0009cc11       ?GetRuntimeClass@CDC@@UBEPAUCRuntimeClass@@XZ 5f49dc11 f wingdi.obj
 0001:0009cc2c       ?_GetBaseClass@CClientDC@@KGPAUCRuntimeClass@@XZ 5f49dc2c f wingdi.obj
 0001:0009cc41       ?GetRuntimeClass@CClientDC@@UBEPAUCRuntimeClass@@XZ 5f49dc41 f wingdi.obj
 0001:0009cc5c       ?_GetBaseClass@CWindowDC@@KGPAUCRuntimeClass@@XZ 5f49dc5c f wingdi.obj
 0001:0009cc71       ?GetRuntimeClass@CWindowDC@@UBEPAUCRuntimeClass@@XZ 5f49dc71 f wingdi.obj
 0001:0009cc8c       ?_GetBaseClass@CPaintDC@@KGPAUCRuntimeClass@@XZ 5f49dc8c f wingdi.obj
 0001:0009cca1       ?GetRuntimeClass@CPaintDC@@UBEPAUCRuntimeClass@@XZ 5f49dca1 f wingdi.obj
 0001:0009ccbc       ?CreateObject@CGdiObject@@SGPAVCObject@@XZ 5f49dcbc f wingdi.obj
 0001:0009cd44       ?_GetBaseClass@CGdiObject@@KGPAUCRuntimeClass@@XZ 5f49dd44 f wingdi.obj
 0001:0009cd59       ?GetRuntimeClass@CGdiObject@@UBEPAUCRuntimeClass@@XZ 5f49dd59 f wingdi.obj
 0001:0009cd74       ?_GetBaseClass@CPen@@KGPAUCRuntimeClass@@XZ 5f49dd74 f wingdi.obj
 0001:0009cd89       ?GetRuntimeClass@CPen@@UBEPAUCRuntimeClass@@XZ 5f49dd89 f wingdi.obj
 0001:0009cda4       ?_GetBaseClass@CBrush@@KGPAUCRuntimeClass@@XZ 5f49dda4 f wingdi.obj
 0001:0009cdb9       ?GetRuntimeClass@CBrush@@UBEPAUCRuntimeClass@@XZ 5f49ddb9 f wingdi.obj
 0001:0009cdd4       ?_GetBaseClass@CFont@@KGPAUCRuntimeClass@@XZ 5f49ddd4 f wingdi.obj
 0001:0009cde9       ?GetRuntimeClass@CFont@@UBEPAUCRuntimeClass@@XZ 5f49dde9 f wingdi.obj
 0001:0009ce04       ?_GetBaseClass@CBitmap@@KGPAUCRuntimeClass@@XZ 5f49de04 f wingdi.obj
 0001:0009ce19       ?GetRuntimeClass@CBitmap@@UBEPAUCRuntimeClass@@XZ 5f49de19 f wingdi.obj
 0001:0009ce34       ?_GetBaseClass@CPalette@@KGPAUCRuntimeClass@@XZ 5f49de34 f wingdi.obj
 0001:0009ce49       ?GetRuntimeClass@CPalette@@UBEPAUCRuntimeClass@@XZ 5f49de49 f wingdi.obj
 0001:0009ce64       ?_GetBaseClass@CRgn@@KGPAUCRuntimeClass@@XZ 5f49de64 f wingdi.obj
 0001:0009ce79       ?GetRuntimeClass@CRgn@@UBEPAUCRuntimeClass@@XZ 5f49de79 f wingdi.obj
 0001:0009cea0       ?CreateObject@CMenu@@SGPAVCObject@@XZ 5f49dea0 f winmenu.obj
 0001:0009cee0       ?_GetBaseClass@CMenu@@KGPAUCRuntimeClass@@XZ 5f49dee0 f winmenu.obj
 0001:0009cef5       ?GetRuntimeClass@CMenu@@UBEPAUCRuntimeClass@@XZ 5f49def5 f winmenu.obj
 0001:0009cf7b       ?AfxEnableWin40Compatibility@@YGXXZ 5f49df7b f auxdata.obj
 0001:0009cfbe       ?AfxEnableWin31Compatibility@@YGXXZ 5f49dfbe f auxdata.obj
 0001:0009cff2       ??0AUX_DATA@@QAE@XZ        5f49dff2 f auxdata.obj
 0001:0009d1d0       ?AfxCriticalInit@@YGHXZ    5f49e1d0 f afxcrit.obj
 0001:0009d268       ?AfxCriticalTerm@@YGXXZ    5f49e268 f afxcrit.obj
 0001:0009d35a       ?AfxLockGlobals@@YGXH@Z    5f49e35a f afxcrit.obj
 0001:0009d491       ?AfxUnlockGlobals@@YGXH@Z  5f49e491 f afxcrit.obj
 0001:0009d726       ?Dump@CCmdTarget@@UBEXAAVCDumpContext@@@Z 5f49e726 f cmdtarg.obj
 0001:0009d825       ?AssertValid@CCmdTarget@@UBEXXZ 5f49e825 f cmdtarg.obj
 0001:0009d843       ?_GetBaseClass@CCmdTarget@@KGPAUCRuntimeClass@@XZ 5f49e843 f cmdtarg.obj
 0001:0009d858       ?GetRuntimeClass@CCmdTarget@@UBEPAUCRuntimeClass@@XZ 5f49e858 f cmdtarg.obj
 0001:0009d880       ?_GetBaseClass@CDocument@@KGPAUCRuntimeClass@@XZ 5f49e880 f doccore.obj
 0001:0009d895       ?GetRuntimeClass@CDocument@@UBEPAUCRuntimeClass@@XZ 5f49e895 f doccore.obj
 0001:0009d8b0       ?_GetBaseClass@CDocTemplate@@KGPAUCRuntimeClass@@XZ 5f49e8b0 f doctempl.obj
 0001:0009d8c5       ?GetRuntimeClass@CDocTemplate@@UBEPAUCRuntimeClass@@XZ 5f49e8c5 f doctempl.obj
 0001:0009d8e0       ?_GetBaseClass@CSingleDocTemplate@@KGPAUCRuntimeClass@@XZ 5f49e8e0 f docsingl.obj
 0001:0009d8f5       ?GetRuntimeClass@CSingleDocTemplate@@UBEPAUCRuntimeClass@@XZ 5f49e8f5 f docsingl.obj
 0001:0009d910       ?_GetBaseClass@CMultiDocTemplate@@KGPAUCRuntimeClass@@XZ 5f49e910 f docmulti.obj
 0001:0009d925       ?GetRuntimeClass@CMultiDocTemplate@@UBEPAUCRuntimeClass@@XZ 5f49e925 f docmulti.obj
 0001:0009d940       ??0CDocManager@@QAE@XZ     5f49e940 f docmgr.obj
 0001:0009d9cc       ?RegisterShellFileTypes@CDocManager@@UAEXH@Z 5f49e9cc f docmgr.obj
 0001:0009e39b       ?_GetBaseClass@CDocManager@@KGPAUCRuntimeClass@@XZ 5f49f39b f docmgr.obj
 0001:0009e3b0       ?GetRuntimeClass@CDocManager@@UBEPAUCRuntimeClass@@XZ 5f49f3b0 f docmgr.obj
 0001:0009e3d0       ??_GCDocManager@@UAEPAXI@Z 5f49f3d0 f docmgr.obj
 0001:0009e410       ?_GetBaseClass@CSplitterWnd@@KGPAUCRuntimeClass@@XZ 5f49f410 f viewcore.obj
 0001:0009e425       ?GetRuntimeClass@CSplitterWnd@@UBEPAUCRuntimeClass@@XZ 5f49f425 f viewcore.obj
 0001:0009e440       ?_GetBaseClass@CCtrlView@@KGPAUCRuntimeClass@@XZ 5f49f440 f viewcore.obj
 0001:0009e455       ?GetRuntimeClass@CCtrlView@@UBEPAUCRuntimeClass@@XZ 5f49f455 f viewcore.obj
 0001:0009e470       ?_GetBaseClass@CScrollView@@KGPAUCRuntimeClass@@XZ 5f49f470 f viewscrl.obj
 0001:0009e485       ?GetRuntimeClass@CScrollView@@UBEPAUCRuntimeClass@@XZ 5f49f485 f viewscrl.obj
 0001:0009e4a0       ?_GetBaseClass@CFormView@@KGPAUCRuntimeClass@@XZ 5f49f4a0 f viewform.obj
 0001:0009e4b5       ?GetRuntimeClass@CFormView@@UBEPAUCRuntimeClass@@XZ 5f49f4b5 f viewform.obj
 0001:0009e4d0       ?CreateObject@CEditView@@SGPAVCObject@@XZ 5f49f4d0 f viewedit.obj
 0001:0009e510       ?_GetBaseClass@CEditView@@KGPAUCRuntimeClass@@XZ 5f49f510 f viewedit.obj
 0001:0009e525       ?GetRuntimeClass@CEditView@@UBEPAUCRuntimeClass@@XZ 5f49f525 f viewedit.obj
 0001:0009e5b0       ??1?$CProcessLocal@V_AFX_EDIT_STATE@@@@QAE@XZ 5f49f5b0 f viewedit.obj
 0001:0009e610       ?CreateObject@CPreviewView@@SGPAVCObject@@XZ 5f49f610 f viewprev.obj
 0001:0009e69b       ?_GetBaseClass@CPreviewView@@KGPAUCRuntimeClass@@XZ 5f49f69b f viewprev.obj
 0001:0009e6b0       ?GetRuntimeClass@CPreviewView@@UBEPAUCRuntimeClass@@XZ 5f49f6b0 f viewprev.obj
 0001:0009e6d0       ?CreateObject@CListView@@SGPAVCObject@@XZ 5f49f6d0 f viewcmn.obj
 0001:0009e70d       ?_GetBaseClass@CListView@@KGPAUCRuntimeClass@@XZ 5f49f70d f viewcmn.obj
 0001:0009e722       ?GetRuntimeClass@CListView@@UBEPAUCRuntimeClass@@XZ 5f49f722 f viewcmn.obj
 0001:0009e73d       ?CreateObject@CTreeView@@SGPAVCObject@@XZ 5f49f73d f viewcmn.obj
 0001:0009e77a       ?_GetBaseClass@CTreeView@@KGPAUCRuntimeClass@@XZ 5f49f77a f viewcmn.obj
 0001:0009e78f       ?GetRuntimeClass@CTreeView@@UBEPAUCRuntimeClass@@XZ 5f49f78f f viewcmn.obj
 0001:0009e820       ??1?$CProcessLocal@V_AFX_MAIL_STATE@@@@QAE@XZ 5f49f820 f docmapi.obj
 0001:0009e880       ??0CWinThread@@QAE@P6AIPAX@Z0@Z 5f49f880 f thrdcore.obj
 0001:0009e916       ??0CWinThread@@QAE@XZ      5f49f916 f thrdcore.obj
 0001:0009e9ac       ?CommonConstruct@CWinThread@@QAEXXZ 5f49f9ac f thrdcore.obj
 0001:0009ea33       ?_GetBaseClass@CWinThread@@KGPAUCRuntimeClass@@XZ 5f49fa33 f thrdcore.obj
 0001:0009ea48       ?GetRuntimeClass@CWinThread@@UBEPAUCRuntimeClass@@XZ 5f49fa48 f thrdcore.obj
 0001:0009ea70       ??_GCWinThread@@UAEPAXI@Z  5f49fa70 f thrdcore.obj
 0001:0009ea70       ??_ECWinThread@@UAEPAXI@Z  5f49fa70 f thrdcore.obj
 0001:0009eab0       ??0_AFX_WIN_STATE@@QAE@XZ  5f49fab0 f appcore.obj
 0001:0009eb1f       ??0CWinApp@@QAE@PBG@Z      5f49fb1f f appcore.obj
 0001:0009ed89       ?InitApplication@CWinApp@@UAEHXZ 5f49fd89 f appcore.obj
 0001:0009ee11       ?InitInstance@CWinApp@@UAEHXZ 5f49fe11 f appcore.obj
 0001:0009ee2c       ?LoadStdProfileSettings@CWinApp@@IAEXI@Z 5f49fe2c f appcore.obj
 0001:0009ef4c       ?ParseCommandLine@CWinApp@@QAEXAAVCCommandLineInfo@@@Z 5f49ff4c f appcore.obj
 0001:0009f00a       ??0CCommandLineInfo@@QAE@XZ 5f4a000a f appcore.obj
 0001:0009f10d       ??1CCommandLineInfo@@UAE@XZ 5f4a010d f appcore.obj
 0001:0009f1d9       ?ParseParam@CCommandLineInfo@@UAEXPBGHH@Z 5f4a01d9 f appcore.obj
 0001:0009f280       ?ParseParam@CCommandLineInfo@@UAEXPBDHH@Z 5f4a0280 f appcore.obj
 0001:0009f2cb       ?ParseParamFlag@CCommandLineInfo@@IAEXPBD@Z 5f4a02cb f appcore.obj
 0001:0009f3eb       ?ParseParamNotFlag@CCommandLineInfo@@IAEXPBG@Z 5f4a03eb f appcore.obj
 0001:0009f4c1       ?ParseParamNotFlag@CCommandLineInfo@@IAEXPBD@Z 5f4a04c1 f appcore.obj
 0001:0009f597       ?ParseLast@CCommandLineInfo@@IAEXH@Z 5f4a0597 f appcore.obj
 0001:0009f616       ??1CWinApp@@UAE@XZ         5f4a0616 f appcore.obj
 0001:0009f8f4       ?SaveStdProfileSettings@CWinApp@@IAEXXZ 5f4a08f4 f appcore.obj
 0001:0009f972       ?ExitInstance@CWinApp@@UAEHXZ 5f4a0972 f appcore.obj
 0001:0009f9eb       ?_GetBaseClass@CWinApp@@KGPAUCRuntimeClass@@XZ 5f4a09eb f appcore.obj
 0001:0009fa00       ?GetRuntimeClass@CWinApp@@UBEPAUCRuntimeClass@@XZ 5f4a0a00 f appcore.obj
 0001:0009fa80       ??_E_AFX_WIN_STATE@@UAEPAXI@Z 5f4a0a80 f appcore.obj
 0001:0009fa80       ??_G_AFX_WIN_STATE@@UAEPAXI@Z 5f4a0a80 f appcore.obj
 0001:0009fac0       ??_GCWinApp@@UAEPAXI@Z     5f4a0ac0 f appcore.obj
 0001:0009fac0       ??_ECWinApp@@UAEPAXI@Z     5f4a0ac0 f appcore.obj
 0001:0009fb00       ??_GCCommandLineInfo@@UAEPAXI@Z 5f4a0b00 f appcore.obj
 0001:0009fb40       ??1?$CProcessLocal@V_AFX_WIN_STATE@@@@QAE@XZ 5f4a0b40 f appcore.obj
 0001:0009fba0       ?AfxWinInit@@YGHPAUHINSTANCE__@@0PAGH@Z 5f4a0ba0 f appinit.obj
 0001:0009fc5c       ?SetCurrentHandles@CWinApp@@QAEXXZ 5f4a0c5c f appinit.obj
 0001:0009ff9a       ?AfxGetFileName@@YGIPBGPAGI@Z 5f4a0f9a f appinit.obj
 0001:000a00c0       ?ProcessShellCommand@CWinApp@@QAEHAAVCCommandLineInfo@@@Z 5f4a10c0 f appui2.obj
 0001:000a0276       ?Unregister@CWinApp@@QAEHXZ 5f4a1276 f appui2.obj
 0001:000a05f7       ?DelRegTree@CWinApp@@QAEJPAUHKEY__@@ABVCString@@@Z 5f4a15f7 f appui2.obj
 0001:000a0758       ?EnableShellOpen@CWinApp@@IAEXXZ 5f4a1758 f appui2.obj
 0001:000a07dd       ?RegisterShellFileTypes@CWinApp@@IAEXH@Z 5f4a17dd f appui2.obj
 0001:000a0838       ?RegisterShellFileTypesCompat@CWinApp@@IAEXXZ 5f4a1838 f appui2.obj
 0001:000a0890       ?SetRegistryKey@CWinApp@@IAEXPBG@Z 5f4a1890 f appui3.obj
 0001:000a097c       ?SetRegistryKey@CWinApp@@IAEXI@Z 5f4a197c f appui3.obj
 0001:000a0a06       ?GetAppRegistryKey@CWinApp@@QAEPAUHKEY__@@XZ 5f4a1a06 f appui3.obj
 0001:000a0b23       ?GetSectionKey@CWinApp@@QAEPAUHKEY__@@PBG@Z 5f4a1b23 f appui3.obj
 0001:000a0bad       ?GetProfileIntW@CWinApp@@QAEIPBG0H@Z 5f4a1bad f appui3.obj
 0001:000a0d0b       ?GetProfileStringW@CWinApp@@QAE?AVCString@@PBG00@Z 5f4a1d0b f appui3.obj
 0001:000a0fd0       ?GetProfileBinary@CWinApp@@QAEHPBG0PAPAEPAI@Z 5f4a1fd0 f appui3.obj
 0001:000a1330       ?SetDialogBkColor@CWinApp@@IAEXKK@Z 5f4a2330 f appgray.obj
 0001:000a13f0       ??1_AFX_CTL3D_STATE@@UAE@XZ 5f4a23f0 f app3d.obj
 0001:000a1487       ??1_AFX_CTL3D_THREAD@@UAE@XZ 5f4a2487 f app3d.obj
 0001:000a1519       ?Enable3dControls@CWinApp@@IAEHXZ 5f4a2519 f app3d.obj
 0001:000a175f       ?AfxGetCtl3dState@@YGPAV_AFX_CTL3D_STATE@@XZ 5f4a275f f app3d.obj
 0001:000a1840       ??1?$CThreadLocal@V_AFX_CTL3D_THREAD@@@@QAE@XZ 5f4a2840 f app3d.obj
 0001:000a18a0       ??1?$CProcessLocal@V_AFX_CTL3D_STATE@@@@QAE@XZ 5f4a28a0 f app3d.obj
 0001:000a1900       ?_GetBaseClass@CInternetException@@KGPAUCRuntimeClass@@XZ 5f4a2900 f inet.obj
 0001:000a1915       ?GetRuntimeClass@CInternetException@@UBEPAUCRuntimeClass@@XZ 5f4a2915 f inet.obj
 0001:000a1930       ?_GetBaseClass@CInternetFile@@KGPAUCRuntimeClass@@XZ 5f4a2930 f inet.obj
 0001:000a1945       ?GetRuntimeClass@CInternetFile@@UBEPAUCRuntimeClass@@XZ 5f4a2945 f inet.obj
 0001:000a1960       ?_GetBaseClass@CHttpFile@@KGPAUCRuntimeClass@@XZ 5f4a2960 f inet.obj
 0001:000a1975       ?GetRuntimeClass@CHttpFile@@UBEPAUCRuntimeClass@@XZ 5f4a2975 f inet.obj
 0001:000a1990       ?_GetBaseClass@CGopherFile@@KGPAUCRuntimeClass@@XZ 5f4a2990 f inet.obj
 0001:000a19a5       ?GetRuntimeClass@CGopherFile@@UBEPAUCRuntimeClass@@XZ 5f4a29a5 f inet.obj
 0001:000a19c0       ?_GetBaseClass@CInternetSession@@KGPAUCRuntimeClass@@XZ 5f4a29c0 f inet.obj
 0001:000a19d5       ?GetRuntimeClass@CInternetSession@@UBEPAUCRuntimeClass@@XZ 5f4a29d5 f inet.obj
 0001:000a19f0       ?_GetBaseClass@CInternetConnection@@KGPAUCRuntimeClass@@XZ 5f4a29f0 f inet.obj
 0001:000a1a05       ?GetRuntimeClass@CInternetConnection@@UBEPAUCRuntimeClass@@XZ 5f4a2a05 f inet.obj
 0001:000a1a20       ?_GetBaseClass@CFtpConnection@@KGPAUCRuntimeClass@@XZ 5f4a2a20 f inet.obj
 0001:000a1a35       ?GetRuntimeClass@CFtpConnection@@UBEPAUCRuntimeClass@@XZ 5f4a2a35 f inet.obj
 0001:000a1a50       ?_GetBaseClass@CHttpConnection@@KGPAUCRuntimeClass@@XZ 5f4a2a50 f inet.obj
 0001:000a1a65       ?GetRuntimeClass@CHttpConnection@@UBEPAUCRuntimeClass@@XZ 5f4a2a65 f inet.obj
 0001:000a1a80       ?_GetBaseClass@CGopherConnection@@KGPAUCRuntimeClass@@XZ 5f4a2a80 f inet.obj
 0001:000a1a95       ?GetRuntimeClass@CGopherConnection@@UBEPAUCRuntimeClass@@XZ 5f4a2a95 f inet.obj
 0001:000a1ab0       ?_GetBaseClass@CFtpFileFind@@KGPAUCRuntimeClass@@XZ 5f4a2ab0 f inet.obj
 0001:000a1ac5       ?GetRuntimeClass@CFtpFileFind@@UBEPAUCRuntimeClass@@XZ 5f4a2ac5 f inet.obj
 0001:000a1ae0       ?_GetBaseClass@CGopherFileFind@@KGPAUCRuntimeClass@@XZ 5f4a2ae0 f inet.obj
 0001:000a1af5       ?GetRuntimeClass@CGopherFileFind@@UBEPAUCRuntimeClass@@XZ 5f4a2af5 f inet.obj
 0001:000a1b80       ?_GetBaseClass@CFileFind@@KGPAUCRuntimeClass@@XZ 5f4a2b80 f filefind.obj
 0001:000a1b95       ?GetRuntimeClass@CFileFind@@UBEPAUCRuntimeClass@@XZ 5f4a2b95 f filefind.obj
 0001:000a1bb0       ?AfxThunkINetInternetOpen@@YGPAXPBGK00K@Z 5f4a2bb0 f inetimpl.obj
 0001:000a1beb       ?AfxThunkINetInternetCloseHandle@@YGPAXPAX@Z 5f4a2beb f inetimpl.obj
 0001:000a1c1a       ?AfxThunkINetInternetOpenUrl@@YGPAXPAXPBG1KKK@Z 5f4a2c1a f inetimpl.obj
 0001:000a1c5d       ?AfxThunkINetInternetReadFile@@YGPAXPAX0KPAK@Z 5f4a2c5d f inetimpl.obj
 0001:000a1c98       ?AfxThunkINetInternetWriteFile@@YGPAXPAXPBXKPAK@Z 5f4a2c98 f inetimpl.obj
 0001:000a1cd3       ?AfxThunkINetInternetSetStatusCallback@@YGP6GXPAXKK0K@Z0P6GX0KK0K@Z@Z 5f4a2cd3 f inetimpl.obj
 0001:000a1d06       ?AfxThunkINetInternetQueryOption@@YGHPAXK0PAK@Z 5f4a2d06 f inetimpl.obj
 0001:000a1d41       ?AfxThunkINetInternetSetOption@@YGHPAXK0K@Z 5f4a2d41 f inetimpl.obj
 0001:000a1d7c       ?AfxThunkINetInternetSetOptionEx@@YGHPAXK0KK@Z 5f4a2d7c f inetimpl.obj
 0001:000a1dbb       ?AfxThunkINetInternetGetLastResponseInfo@@YGHPAKPAG0@Z 5f4a2dbb f inetimpl.obj
 0001:000a1df2       ?AfxThunkINetInternetFindNextFile@@YGHPAX0@Z 5f4a2df2 f inetimpl.obj
 0001:000a1e25       ?AfxThunkINetInternetConnect@@YGPAXPAXPBGG11KKK@Z 5f4a2e25 f inetimpl.obj
 0001:000a1e70       ?AfxThunkINetInternetSetFilePointer@@YGKPAXJ0KK@Z 5f4a2e70 f inetimpl.obj
 0001:000a1eaf       ?AfxThunkINetInternetQueryDataAvailable@@YGHPAXPAKKK@Z 5f4a2eaf f inetimpl.obj
 0001:000a1eea       ?AfxThunkINetFtpFindFirstFile@@YGPAXPAXPBGPAU_WIN32_FIND_DATAW@@KK@Z 5f4a2eea f inetimpl.obj
 0001:000a1f29       ?AfxThunkINetFtpGetFile@@YGHPAXPBG1HKKK@Z 5f4a2f29 f inetimpl.obj
 0001:000a1f70       ?AfxThunkINetFtpPutFile@@YGHPAXPBG1KK@Z 5f4a2f70 f inetimpl.obj
 0001:000a1faf       ?AfxThunkINetFtpDeleteFile@@YGHPAXPBG@Z 5f4a2faf f inetimpl.obj
 0001:000a1fe2       ?AfxThunkINetFtpRenameFile@@YGHPAXPBG1@Z 5f4a2fe2 f inetimpl.obj
 0001:000a2019       ?AfxThunkINetFtpCreateDirectory@@YGHPAXPBG@Z 5f4a3019 f inetimpl.obj
 0001:000a204c       ?AfxThunkINetFtpRemoveDirectory@@YGHPAXPBG@Z 5f4a304c f inetimpl.obj
 0001:000a207f       ?AfxThunkINetFtpSetCurrentDirectory@@YGHPAXPBG@Z 5f4a307f f inetimpl.obj
 0001:000a20b2       ?AfxThunkINetFtpGetCurrentDirectory@@YGHPAXPBGPAK@Z 5f4a30b2 f inetimpl.obj
 0001:000a20e9       ?AfxThunkINetFtpCommand@@YGHPAXHKPBGK@Z 5f4a30e9 f inetimpl.obj
 0001:000a2128       ?AfxThunkINetFtpOpenFile@@YGPAXPAXPBGKKK@Z 5f4a3128 f inetimpl.obj
 0001:000a2167       ?AfxThunkINetGopherFindFirstFile@@YGPAXPAXPBG1PAUGOPHER_FIND_DATAW@@KK@Z 5f4a3167 f inetimpl.obj
 0001:000a21aa       ?AfxThunkINetGopherOpenFile@@YGPAXPAXPBG1KK@Z 5f4a31aa f inetimpl.obj
 0001:000a21e9       ?AfxThunkINetGopherCreateLocator@@YGHPBGG00KPAGPAK@Z 5f4a31e9 f inetimpl.obj
 0001:000a2230       ?AfxThunkINetGopherGetAttribute@@YGHPAXPBG1PAEKPAKP6GHPAUGOPHER_ATTRIBUTE_TYPE@@K@ZK@Z 5f4a3230 f inetimpl.obj
 0001:000a227b       ?AfxThunkINetGopherGetLocatorType@@YGHPBGPAK@Z 5f4a327b f inetimpl.obj
 0001:000a22ae       ?AfxThunkINetHttpOpenRequest@@YGPAXPAXPBG111PAPBGKK@Z 5f4a32ae f inetimpl.obj
 0001:000a22f9       ?AfxThunkINetHttpAddRequestHeaders@@YGHPAXPBGKK@Z 5f4a32f9 f inetimpl.obj
 0001:000a2334       ?AfxThunkINetHttpSendRequest@@YGHPAXPBGK0K@Z 5f4a3334 f inetimpl.obj
 0001:000a2375       ?AfxThunkINetHttpQueryInfo@@YGHPAXK0PAK1@Z 5f4a3375 f inetimpl.obj
 0001:000a23b6       ?AfxThunkINetInternetErrorDlg@@YGKPAUHWND__@@PAXKKPAPAX@Z 5f4a33b6 f inetimpl.obj
 0001:000a2400       ?AfxINetLoad@@YGXPAP6GHXZPBD@Z 5f4a3400 f inetimpl.obj
 0001:000a2550       ?_GetBaseClass@CDynLinkLibrary@@KGPAUCRuntimeClass@@XZ 5f4a3550 f dllinit.obj
 0001:000a2565       ?GetRuntimeClass@CDynLinkLibrary@@UBEPAUCRuntimeClass@@XZ 5f4a3565 f dllinit.obj
 0001:000a2580       ??0CDynLinkLibrary@@QAE@AAUAFX_EXTENSION_MODULE@@H@Z 5f4a3580 f dllinit.obj
 0001:000a26ad       ?AfxInitExtensionModule@@YGHAAUAFX_EXTENSION_MODULE@@PAUHINSTANCE__@@@Z 5f4a36ad f dllinit.obj
 0001:000a2765       _RawDllMain@12             5f4a3765 f dllinit.obj
 0001:000a2843       _DllMain@12                5f4a3843 f dllinit.obj
 0001:000a2ae2       ?AfxCoreInitModule@@YGXXZ  5f4a3ae2 f dllinit.obj
 0001:000a2c00       ??_GCDynLinkLibrary@@UAEPAXI@Z 5f4a3c00 f dllinit.obj
 0001:000a2c00       ??_ECDynLinkLibrary@@UAEPAXI@Z 5f4a3c00 f dllinit.obj
 0001:000a2c40       ??1_AFX_MAIL_STATE@@UAE@XZ 5f4a3c40 f docmapi.obj
 0001:000a2cc2       ?OnFileSendMail@CDocument@@IAEXXZ 5f4a3cc2 f docmapi.obj
 0001:000a323f       ?OnUpdateFileSendMail@CDocument@@IAEXPAVCCmdUI@@@Z 5f4a423f f docmapi.obj
 0001:000a338c       ?OnFileSendMail@COleDocument@@IAEXXZ 5f4a438c f docmapi.obj
 0001:000a34b0       ??_G_AFX_MAIL_STATE@@UAEPAXI@Z 5f4a44b0 f docmapi.obj
 0001:000a34b0       ??_E_AFX_MAIL_STATE@@UAEPAXI@Z 5f4a44b0 f docmapi.obj
 0001:000a34f0       ??0_AFX_MAIL_STATE@@QAE@XZ 5f4a44f0 f docmapi.obj
 0001:000a3560       ??0CPreviewDC@@QAE@XZ      5f4a4560 f dcprev.obj
 0001:000a3632       ?SetOutputDC@CPreviewDC@@UAEXPAUHDC__@@@Z 5f4a4632 f dcprev.obj
 0001:000a36d2       ?ReleaseOutputDC@CPreviewDC@@UAEXXZ 5f4a46d2 f dcprev.obj
 0001:000a3726       ?SetAttribDC@CPreviewDC@@UAEXPAUHDC__@@@Z 5f4a4726 f dcprev.obj
 0001:000a3783       ??1CPreviewDC@@UAE@XZ      5f4a4783 f dcprev.obj
 0001:000a3819       ?SetScaleRatio@CPreviewDC@@QAEXHH@Z 5f4a4819 f dcprev.obj
 0001:000a3862       ?AssertValid@CPreviewDC@@UBEXXZ 5f4a4862 f dcprev.obj
 0001:000a3880       ?Dump@CPreviewDC@@UBEXAAVCDumpContext@@@Z 5f4a4880 f dcprev.obj
 0001:000a38e6       ?SaveDC@CPreviewDC@@UAEHXZ 5f4a48e6 f dcprev.obj
 0001:000a398d       ?RestoreDC@CPreviewDC@@UAEHH@Z 5f4a498d f dcprev.obj
 0001:000a3a79       ?MirrorAttributes@CPreviewDC@@IAEXXZ 5f4a4a79 f dcprev.obj
 0001:000a3bc6       ?SelectStockObject@CPreviewDC@@UAEPAVCGdiObject@@H@Z 5f4a4bc6 f dcprev.obj
 0001:000a3cf8       ?MirrorFont@CPreviewDC@@IAEXXZ 5f4a4cf8 f dcprev.obj
 0001:000a4034       ?SelectObject@CPreviewDC@@UAEPAVCFont@@PAV2@@Z 5f4a5034 f dcprev.obj
 0001:000a40db       ?SetBkColor@CPreviewDC@@UAEKK@Z 5f4a50db f dcprev.obj
 0001:000a4155       ?SetTextColor@CPreviewDC@@UAEKK@Z 5f4a5155 f dcprev.obj
 0001:000a41cf       ?SetMapMode@CPreviewDC@@UAEHH@Z 5f4a51cf f dcprev.obj
 0001:000a422d       ?SetViewportOrg@CPreviewDC@@UAE?AVCPoint@@HH@Z 5f4a522d f dcprev.obj
 0001:000a42c4       ?OffsetViewportOrg@CPreviewDC@@UAE?AVCPoint@@HH@Z 5f4a52c4 f dcprev.obj
 0001:000a435b       ?SetViewportExt@CPreviewDC@@UAE?AVCSize@@HH@Z 5f4a535b f dcprev.obj
 0001:000a43f4       ?ScaleViewportExt@CPreviewDC@@UAE?AVCSize@@HHHH@Z 5f4a53f4 f dcprev.obj
 0001:000a4495       ?SetWindowExt@CPreviewDC@@UAE?AVCSize@@HH@Z 5f4a5495 f dcprev.obj
 0001:000a452e       ?ScaleWindowExt@CPreviewDC@@UAE?AVCSize@@HHHH@Z 5f4a552e f dcprev.obj
 0001:000a45cf       ?ComputeDeltas@CPreviewDC@@IAE?AVCSize@@AAHPBGAAIHIPAHHPAG30@Z 5f4a55cf f dcprev.obj
 0001:000a4ad6       ?TextOutW@CPreviewDC@@UAEHHHPBGH@Z 5f4a5ad6 f dcprev.obj
 0001:000a4b0f       ?ExtTextOutW@CPreviewDC@@UAEHHHIPBUtagRECT@@PBGIPAH@Z 5f4a5b0f f dcprev.obj
 0001:000a4df5       ?TabbedTextOutW@CPreviewDC@@UAE?AVCSize@@HHPBGHHPAHH@Z 5f4a5df5 f dcprev.obj
 0001:000a50d3       ?DrawTextW@CPreviewDC@@UAEHPBGHPAUtagRECT@@I@Z 5f4a60d3 f dcprev.obj
 0001:000a524a       ?GrayStringW@CPreviewDC@@UAEHPAVCBrush@@P6GHPAUHDC__@@JH@ZJHHHHH@Z 5f4a624a f dcprev.obj
 0001:000a528f       ?Escape@CPreviewDC@@UAEHHHPBDPAX@Z 5f4a628f f dcprev.obj
 0001:000a53ec       ?MirrorMappingMode@CPreviewDC@@IAEXH@Z 5f4a63ec f dcprev.obj
 0001:000a5661       ?MirrorViewportOrg@CPreviewDC@@IAEXXZ 5f4a6661 f dcprev.obj
 0001:000a5757       ?SetTopLeftOffset@CPreviewDC@@QAEXVCSize@@@Z 5f4a6757 f dcprev.obj
 0001:000a57ad       ?ClipToPage@CPreviewDC@@QAEXXZ 5f4a67ad f dcprev.obj
 0001:000a58a9       ?PrinterDPtoScreenDP@CPreviewDC@@QBEXPAUtagPOINT@@@Z 5f4a68a9 f dcprev.obj
 0001:000a5c20       ??_ECPreviewDC@@UAEPAXI@Z  5f4a6c20 f dcprev.obj
 0001:000a5c20       ??_GCPreviewDC@@UAEPAXI@Z  5f4a6c20 f dcprev.obj
 0001:000a5c60       ??0CMetaFileDC@@QAE@XZ     5f4a6c60 f dcmeta.obj
 0001:000a5ccf       ?SetOutputDC@CMetaFileDC@@MAEXPAUHDC__@@@Z 5f4a6ccf f dcmeta.obj
 0001:000a5d0e       ?ReleaseOutputDC@CMetaFileDC@@MAEXXZ 5f4a6d0e f dcmeta.obj
 0001:000a5d4b       ?SetAttribDC@CMetaFileDC@@UAEXPAUHDC__@@@Z 5f4a6d4b f dcmeta.obj
 0001:000a5d9b       ??1CMetaFileDC@@UAE@XZ     5f4a6d9b f dcmeta.obj
 0001:000a5e37       ?GetClipBox@CMetaFileDC@@UBEHPAUtagRECT@@@Z 5f4a6e37 f dcmeta.obj
 0001:000a5ecb       ?PtVisible@CMetaFileDC@@UBEHHH@Z 5f4a6ecb f dcmeta.obj
 0001:000a5f1a       ?RectVisible@CMetaFileDC@@UBEHPBUtagRECT@@@Z 5f4a6f1a f dcmeta.obj
 0001:000a5f59       ?TextOutW@CMetaFileDC@@UAEHHHPBGH@Z 5f4a6f59 f dcmeta.obj
 0001:000a607e       ?ExtTextOutW@CMetaFileDC@@UAEHHHIPBUtagRECT@@PBGIPAH@Z 5f4a707e f dcmeta.obj
 0001:000a61f8       ?TabbedTextOutW@CMetaFileDC@@UAE?AVCSize@@HHPBGHHPAHH@Z 5f4a71f8 f dcmeta.obj
 0001:000a64f2       ?AdjustCP@CMetaFileDC@@IAEXH@Z 5f4a74f2 f dcmeta.obj
 0001:000a6574       ?DrawTextW@CMetaFileDC@@UAEHPBGHPAUtagRECT@@I@Z 5f4a7574 f dcmeta.obj
 0001:000a6728       ?Escape@CMetaFileDC@@UAEHHHPBDPAX@Z 5f4a7728 f dcmeta.obj
 0001:000a68ea       ?SetViewportOrg@CMetaFileDC@@UAE?AVCPoint@@HH@Z 5f4a78ea f dcmeta.obj
 0001:000a6984       ?OffsetViewportOrg@CMetaFileDC@@UAE?AVCPoint@@HH@Z 5f4a7984 f dcmeta.obj
 0001:000a6a1e       ?SetViewportExt@CMetaFileDC@@UAE?AVCSize@@HH@Z 5f4a7a1e f dcmeta.obj
 0001:000a6ab8       ?ScaleViewportExt@CMetaFileDC@@UAE?AVCSize@@HHHH@Z 5f4a7ab8 f dcmeta.obj
 0001:000a6b70       ??_GCMetaFileDC@@UAEPAXI@Z 5f4a7b70 f dcmeta.obj
 0001:000a6bb0       ?_AfxAbortProc@@YGHPAUHDC__@@H@Z 5f4a7bb0 f viewprnt.obj
 0001:000a6c3f       ?OnInitDialog@CPrintingDialog@@UAEHXZ 5f4a7c3f f viewprnt.obj
 0001:000a6c75       ?OnCancel@CPrintingDialog@@UAEXXZ 5f4a7c75 f viewprnt.obj
 0001:000a6caa       ?DoPreparePrinting@CView@@QAEHPAUCPrintInfo@@@Z 5f4a7caa f viewprnt.obj
 0001:000a6ed7       ?OnFilePrint@CView@@IAEXXZ 5f4a7ed7 f viewprnt.obj
 0001:000a7853       ??0CPrintInfo@@QAE@XZ      5f4a8853 f viewprnt.obj
 0001:000a79ac       ??1CPrintInfo@@QAE@XZ      5f4a89ac f viewprnt.obj
 0001:000a7a80       ??_ECPrintingDialog@@UAEPAXI@Z 5f4a8a80 f viewprnt.obj
 0001:000a7a80       ??_GCPrintingDialog@@UAEPAXI@Z 5f4a8a80 f viewprnt.obj
 0001:000a7ac0       ??0CPrintPreviewState@@QAE@XZ 5f4a8ac0 f viewprev.obj
 0001:000a7b14       ?OnFilePrintPreview@CView@@IAEXXZ 5f4a8b14 f viewprev.obj
 0001:000a7bfb       ?DoPrintPreview@CView@@QAEHIPAV1@PAUCRuntimeClass@@PAUCPrintPreviewState@@@Z 5f4a8bfb f viewprev.obj
 0001:000a8034       ?_AfxPreviewCloseProc@@YGHPAVCFrameWnd@@@Z 5f4a9034 f viewprev.obj
 0001:000a80a3       ?_GetBaseMessageMap@CPreviewView@@KGPBUAFX_MSGMAP@@XZ 5f4a90a3 f viewprev.obj
 0001:000a80b8       ?GetMessageMap@CPreviewView@@MBEPBUAFX_MSGMAP@@XZ 5f4a90b8 f viewprev.obj
 0001:000a80d3       ??0CPreviewView@@QAE@XZ    5f4a90d3 f viewprev.obj
 0001:000a8221       ??1CPreviewView@@UAE@XZ    5f4a9221 f viewprev.obj
 0001:000a8355       ?OnCreate@CPreviewView@@IAEHPAUtagCREATESTRUCTW@@@Z 5f4a9355 f viewprev.obj
 0001:000a83fc       ?SetPrintView@CPreviewView@@QAEHPAVCView@@@Z 5f4a93fc f viewprev.obj
 0001:000a8839       ?OnSize@CPreviewView@@IAEXIHH@Z 5f4a9839 f viewprev.obj
 0001:000a88ff       ?OnActivateView@CPreviewView@@MAEXHPAVCView@@0@Z 5f4a98ff f viewprev.obj
 0001:000a8977       ?OnPreviewClose@CPreviewView@@IAEXXZ 5f4a9977 f viewprev.obj
 0001:000a8a02       ?CalcScaleRatio@CPreviewView@@MAE?AVCSize@@V2@0@Z 5f4a9a02 f viewprev.obj
 0001:000a8a6e       ?PositionPage@CPreviewView@@MAEXI@Z 5f4a9a6e f viewprev.obj
 0001:000a8b88       ?CalcPageDisplaySize@CPreviewView@@IAE?AVCSize@@XZ 5f4a9b88 f viewprev.obj
 0001:000a8c6b       ?SetScaledSize@CPreviewView@@IAEXI@Z 5f4a9c6b f viewprev.obj
 0001:000a8f29       ?OnPrepareDC@CPreviewView@@UAEXPAVCDC@@PAUCPrintInfo@@@Z 5f4a9f29 f viewprev.obj
 0001:000a8f9c       ?OnEraseBkgnd@CPreviewView@@IAEHPAVCDC@@@Z 5f4a9f9c f viewprev.obj
 0001:000a9080       ?OnDraw@CPreviewView@@MAEXPAVCDC@@@Z 5f4aa080 f viewprev.obj
 0001:000a96be       ?OnHScroll@CPreviewView@@IAEXIIPAVCScrollBar@@@Z 5f4aa6be f viewprev.obj
 0001:000a96fa       ?OnVScroll@CPreviewView@@IAEXIIPAVCScrollBar@@@Z 5f4aa6fa f viewprev.obj
 0001:000a9890       ?OnNumPageChange@CPreviewView@@IAEXXZ 5f4aa890 f viewprev.obj
 0001:000a9935       ?OnNextPage@CPreviewView@@IAEXXZ 5f4aa935 f viewprev.obj
 0001:000a9960       ?OnPrevPage@CPreviewView@@IAEXXZ 5f4aa960 f viewprev.obj
 0001:000a998b       ?OnPreviewPrint@CPreviewView@@IAEXXZ 5f4aa98b f viewprev.obj
 0001:000a99e4       ?FindPageRect@CPreviewView@@IAEHAAVCPoint@@AAI@Z 5f4aa9e4 f viewprev.obj
 0001:000a9b50       ?OnLButtonDown@CPreviewView@@IAEXIVCPoint@@@Z 5f4aab50 f viewprev.obj
 0001:000a9bc6       ?SetZoomState@CPreviewView@@IAEXIIVCPoint@@@Z 5f4aabc6 f viewprev.obj
 0001:000a9c10       ?OnZoomIn@CPreviewView@@IAEXXZ 5f4aac10 f viewprev.obj
 0001:000a9c5e       ?OnZoomOut@CPreviewView@@IAEXXZ 5f4aac5e f viewprev.obj
 0001:000a9cac       ?DoZoom@CPreviewView@@IAEXIVCPoint@@@Z 5f4aacac f viewprev.obj
 0001:000a9ec7       ?SetCurrentPage@CPreviewView@@IAEXIH@Z 5f4aaec7 f viewprev.obj
 0001:000a9fca       ?OnDisplayPageNumber@CPreviewView@@MAEXII@Z 5f4aafca f viewprev.obj
 0001:000aa103       ?OnUpdateNumPageChange@CPreviewView@@IAEXPAVCCmdUI@@@Z 5f4ab103 f viewprev.obj
 0001:000aa248       ?OnUpdateNextPage@CPreviewView@@IAEXPAVCCmdUI@@@Z 5f4ab248 f viewprev.obj
 0001:000aa296       ?OnUpdatePrevPage@CPreviewView@@IAEXPAVCCmdUI@@@Z 5f4ab296 f viewprev.obj
 0001:000aa2d8       ?OnUpdateZoomIn@CPreviewView@@IAEXPAVCCmdUI@@@Z 5f4ab2d8 f viewprev.obj
 0001:000aa30d       ?OnUpdateZoomOut@CPreviewView@@IAEXPAVCCmdUI@@@Z 5f4ab30d f viewprev.obj
 0001:000aa33d       ?OnSetCursor@CPreviewView@@IAEHPAVCWnd@@II@Z 5f4ab33d f viewprev.obj
 0001:000aa420       ?AssertValid@CPreviewView@@UBEXXZ 5f4ab420 f viewprev.obj
 0001:000aa50c       ?Dump@CPreviewView@@UBEXAAVCDumpContext@@@Z 5f4ab50c f viewprev.obj
 0001:000aa830       ??_ECPreviewView@@UAEPAXI@Z 5f4ab830 f viewprev.obj
 0001:000aa830       ??_GCPreviewView@@UAEPAXI@Z 5f4ab830 f viewprev.obj
 0001:000aa870       ??0PAGE_INFO@CPreviewView@@QAE@XZ 5f4ab870 f viewprev.obj
 0001:000aa8c0       ??_GCPrintInfo@@QAEPAXI@Z  5f4ab8c0 f viewprev.obj
 0001:000aa900       ?GetPrinterDeviceDefaults@CWinApp@@QAEHPAUtagPDW@@@Z 5f4ab900 f appprnt.obj
 0001:000aa989       ?UpdatePrinterSelection@CWinApp@@IAEXH@Z 5f4ab989 f appprnt.obj
 0001:000aadb7       ?DoPrintDialog@CWinApp@@QAEHPAVCPrintDialog@@@Z 5f4abdb7 f appprnt.obj
 0001:000aaf7a       ?OnFilePrintSetup@CWinApp@@IAEXXZ 5f4abf7a f appprnt.obj
 0001:000ab003       ?SelectPrinter@CWinApp@@QAEXPAX0H@Z 5f4ac003 f appprnt.obj
 0001:000ab0a9       ?CreatePrinterDC@CWinApp@@QAEHAAVCDC@@@Z 5f4ac0a9 f appprnt.obj
 0001:000ab130       ??1AUX_DATA@@QAE@XZ        5f4ac130 f auxdata.obj
 0001:000ab160       ??1CDocManager@@UAE@XZ     5f4ac160 f docmgr.obj
 0001:000ab260       ??1CWinThread@@UAE@XZ      5f4ac260 f thrdcore.obj
 0001:000ab310       ??1_AFX_WIN_STATE@@UAE@XZ  5f4ac310 f appcore.obj
 0001:000ab384       ?AfxPostQuitMessage@@YGXH@Z 5f4ac384 f appcore.obj
 0001:000ab3d0       ?AfxWinTerm@@YGXXZ         5f4ac3d0 f appterm.obj
 0001:000ab530       ??1CDynLinkLibrary@@UAE@XZ 5f4ac530 f dllinit.obj
 0001:000ab5bb       ?AssertValid@CDynLinkLibrary@@UBEXXZ 5f4ac5bb f dllinit.obj
 0001:000ab5f3       ?Dump@CDynLinkLibrary@@UBEXAAVCDumpContext@@@Z 5f4ac5f3 f dllinit.obj
 0001:000ab6c2       ?AfxTermExtensionModule@@YGXAAUAFX_EXTENSION_MODULE@@H@Z 5f4ac6c2 f dllinit.obj
 0001:000ab7a9       ?AfxLoadLibrary@@YGPAUHINSTANCE__@@PBG@Z 5f4ac7a9 f dllinit.obj
 0001:000ab7fe       ?AfxFreeLibrary@@YGHPAUHINSTANCE__@@@Z 5f4ac7fe f dllinit.obj
 0001:000ae220       ??_ECBitmap@@UAEPAXI@Z     5f4af220 f dllinit.obj
 0001:000ae290       ??_ECBitmapButton@@UAEPAXI@Z 5f4af290 f dllinit.obj
 0001:000ae300       ??_ECBrush@@UAEPAXI@Z      5f4af300 f dllinit.obj
 0001:000ae370       ??_ECButton@@UAEPAXI@Z     5f4af370 f dllinit.obj
 0001:000ae3e0       ??_ECByteArray@@UAEPAXI@Z  5f4af3e0 f dllinit.obj
 0001:000ae450       ??_ECCmdTarget@@UAEPAXI@Z  5f4af450 f dllinit.obj
 0001:000ae4c0       ??_ECComboBox@@UAEPAXI@Z   5f4af4c0 f dllinit.obj
 0001:000ae530       ??_ECDC@@UAEPAXI@Z         5f4af530 f dllinit.obj
 0001:000ae5a0       ??_ECDWordArray@@UAEPAXI@Z 5f4af5a0 f dllinit.obj
 0001:000ae610       ??_ECDialog@@UAEPAXI@Z     5f4af610 f dllinit.obj
 0001:000ae680       ??_ECDialogBar@@UAEPAXI@Z  5f4af680 f dllinit.obj
 0001:000ae6f0       ??_ECEdit@@UAEPAXI@Z       5f4af6f0 f dllinit.obj
 0001:000ae760       ??_ECFile@@UAEPAXI@Z       5f4af760 f dllinit.obj
 0001:000ae7d0       ??_ECFont@@UAEPAXI@Z       5f4af7d0 f dllinit.obj
 0001:000ae840       ??_ECFrameWnd@@UAEPAXI@Z   5f4af840 f dllinit.obj
 0001:000ae8b0       ??_ECGdiObject@@UAEPAXI@Z  5f4af8b0 f dllinit.obj
 0001:000ae920       ??_ECListBox@@UAEPAXI@Z    5f4af920 f dllinit.obj
 0001:000ae990       ??_ECCheckListBox@@UAEPAXI@Z 5f4af990 f dllinit.obj
 0001:000aea00       ??_ECMapPtrToPtr@@UAEPAXI@Z 5f4afa00 f dllinit.obj
 0001:000aea70       ??_FCMapPtrToPtr@@QAEXXZ   5f4afa70 f dllinit.obj
 0001:000aea90       ??_ECMapPtrToWord@@UAEPAXI@Z 5f4afa90 f dllinit.obj
 0001:000aeb00       ??_FCMapPtrToWord@@QAEXXZ  5f4afb00 f dllinit.obj
 0001:000aeb20       ??_ECMapStringToOb@@UAEPAXI@Z 5f4afb20 f dllinit.obj
 0001:000aeb90       ??_FCMapStringToOb@@QAEXXZ 5f4afb90 f dllinit.obj
 0001:000aebb0       ??_ECMapStringToPtr@@UAEPAXI@Z 5f4afbb0 f dllinit.obj
 0001:000aec20       ??_FCMapStringToPtr@@QAEXXZ 5f4afc20 f dllinit.obj
 0001:000aec40       ??_ECMapStringToString@@UAEPAXI@Z 5f4afc40 f dllinit.obj
 0001:000aecb0       ??_FCMapStringToString@@QAEXXZ 5f4afcb0 f dllinit.obj
 0001:000aecd0       ??_ECMapWordToOb@@UAEPAXI@Z 5f4afcd0 f dllinit.obj
 0001:000aed40       ??_FCMapWordToOb@@QAEXXZ   5f4afd40 f dllinit.obj
 0001:000aed60       ??_ECMapWordToPtr@@UAEPAXI@Z 5f4afd60 f dllinit.obj
 0001:000aedd0       ??_FCMapWordToPtr@@QAEXXZ  5f4afdd0 f dllinit.obj
 0001:000aedf0       ??_ECMemFile@@UAEPAXI@Z    5f4afdf0 f dllinit.obj
 0001:000aee60       ??_FCMemFile@@QAEXXZ       5f4afe60 f dllinit.obj
 0001:000aee90       ??_ECMenu@@UAEPAXI@Z       5f4afe90 f dllinit.obj
 0001:000aef00       ??_ECMetaFileDC@@UAEPAXI@Z 5f4aff00 f dllinit.obj
 0001:000aef70       ??_ECObArray@@UAEPAXI@Z    5f4aff70 f dllinit.obj
 0001:000aefe0       ??_ECObList@@UAEPAXI@Z     5f4affe0 f dllinit.obj
 0001:000af050       ??_FCObList@@QAEXXZ        5f4b0050 f dllinit.obj
 0001:000af070       ??_ECPalette@@UAEPAXI@Z    5f4b0070 f dllinit.obj
 0001:000af0e0       ??_ECPen@@UAEPAXI@Z        5f4b00e0 f dllinit.obj
 0001:000af150       ??_ECPtrArray@@UAEPAXI@Z   5f4b0150 f dllinit.obj
 0001:000af1c0       ??_ECPtrList@@UAEPAXI@Z    5f4b01c0 f dllinit.obj
 0001:000af230       ??_FCPtrList@@QAEXXZ       5f4b0230 f dllinit.obj
 0001:000af250       ??_ECRectTracker@@UAEPAXI@Z 5f4b0250 f dllinit.obj
 0001:000af2c0       ??_ECRgn@@UAEPAXI@Z        5f4b02c0 f dllinit.obj
 0001:000af330       ??_ECScrollBar@@UAEPAXI@Z  5f4b0330 f dllinit.obj
 0001:000af3a0       ??_ECSharedFile@@UAEPAXI@Z 5f4b03a0 f dllinit.obj
 0001:000af410       ??_FCSharedFile@@QAEXXZ    5f4b0410 f dllinit.obj
 0001:000af440       ??_ECSplitterWnd@@UAEPAXI@Z 5f4b0440 f dllinit.obj
 0001:000af4b0       ??_ECStatic@@UAEPAXI@Z     5f4b04b0 f dllinit.obj
 0001:000af520       ??_ECStatusBar@@UAEPAXI@Z  5f4b0520 f dllinit.obj
 0001:000af590       ??_ECStdioFile@@UAEPAXI@Z  5f4b0590 f dllinit.obj
 0001:000af600       ??_ECStringArray@@UAEPAXI@Z 5f4b0600 f dllinit.obj
 0001:000af670       ??_ECStringList@@UAEPAXI@Z 5f4b0670 f dllinit.obj
 0001:000af6e0       ??_FCStringList@@QAEXXZ    5f4b06e0 f dllinit.obj
 0001:000af700       ??_ECThreadSlotData@@QAEPAXI@Z 5f4b0700 f dllinit.obj
 0001:000af770       ??_ECToolBar@@UAEPAXI@Z    5f4b0770 f dllinit.obj
 0001:000af7e0       ??_ECUIntArray@@UAEPAXI@Z  5f4b07e0 f dllinit.obj
 0001:000af850       ??_ECWnd@@UAEPAXI@Z        5f4b0850 f dllinit.obj
 0001:000af8c0       ??_ECWordArray@@UAEPAXI@Z  5f4b08c0 f dllinit.obj
 0001:000af930       ??_ECFileFind@@UAEPAXI@Z   5f4b0930 f dllinit.obj
 0001:000af9a0       ??_ECInternetSession@@UAEPAXI@Z 5f4b09a0 f dllinit.obj
 0001:000afa10       ??_FCInternetSession@@QAEXXZ 5f4b0a10 f dllinit.obj
 0001:000afa40       ??_ECDragListBox@@UAEPAXI@Z 5f4b0a40 f dllinit.obj
 0001:000afab0       ??_ECStatusBarCtrl@@UAEPAXI@Z 5f4b0ab0 f dllinit.obj
 0001:000afb20       ??_ECListCtrl@@UAEPAXI@Z   5f4b0b20 f dllinit.obj
 0001:000afb90       ??_ECTreeCtrl@@UAEPAXI@Z   5f4b0b90 f dllinit.obj
 0001:000afc00       ??_ECSpinButtonCtrl@@UAEPAXI@Z 5f4b0c00 f dllinit.obj
 0001:000afc70       ??_ECSliderCtrl@@UAEPAXI@Z 5f4b0c70 f dllinit.obj
 0001:000afce0       ??_ECProgressCtrl@@UAEPAXI@Z 5f4b0ce0 f dllinit.obj
 0001:000afd50       ??_ECHeaderCtrl@@UAEPAXI@Z 5f4b0d50 f dllinit.obj
 0001:000afdc0       ??_ECHotKeyCtrl@@UAEPAXI@Z 5f4b0dc0 f dllinit.obj
 0001:000afe30       ??_ECToolTipCtrl@@UAEPAXI@Z 5f4b0e30 f dllinit.obj
 0001:000afea0       ??_ECTabCtrl@@UAEPAXI@Z    5f4b0ea0 f dllinit.obj
 0001:000aff10       ??_ECAnimateCtrl@@UAEPAXI@Z 5f4b0f10 f dllinit.obj
 0001:000aff80       ??_ECImageList@@UAEPAXI@Z  5f4b0f80 f dllinit.obj
 0001:000afff0       ??_ECToolBarCtrl@@UAEPAXI@Z 5f4b0ff0 f dllinit.obj
 0001:000b0060       ??_ECRichEditCtrl@@UAEPAXI@Z 5f4b1060 f dllinit.obj
 0001:000b00d0       ??_ECMirrorFile@@UAEPAXI@Z 5f4b10d0 f dllinit.obj
 0001:000b0140       ??_ECDockState@@UAEPAXI@Z  5f4b1140 f dllinit.obj
 0001:000b01b0       ??_ECListView@@UAEPAXI@Z   5f4b11b0 f dllinit.obj
 0001:000b0220       ??_ECTreeView@@UAEPAXI@Z   5f4b1220 f dllinit.obj
 0001:000b0290       ??_ECCommandLineInfo@@UAEPAXI@Z 5f4b1290 f dllinit.obj
 0001:000b0300       ??_ECDocManager@@UAEPAXI@Z 5f4b1300 f dllinit.obj
 0001:000b0370       ??_ECPageSetupDialog@@UAEPAXI@Z 5f4b1370 f dllinit.obj
 0001:000b03e0       ??_FCPageSetupDialog@@QAEXXZ 5f4b13e0 f dllinit.obj
 0001:000b0410       ??_ECSemaphore@@UAEPAXI@Z  5f4b1410 f dllinit.obj
 0001:000b0480       ??_FCSemaphore@@QAEXXZ     5f4b1480 f dllinit.obj
 0001:000b04b0       ??_ECMutex@@UAEPAXI@Z      5f4b14b0 f dllinit.obj
 0001:000b0520       ??_FCMutex@@QAEXXZ         5f4b1520 f dllinit.obj
 0001:000b0550       ??_ECEvent@@UAEPAXI@Z      5f4b1550 f dllinit.obj
 0001:000b05c0       ??_FCEvent@@QAEXXZ         5f4b15c0 f dllinit.obj
 0001:000b05f0       ??_ECCriticalSection@@UAEPAXI@Z 5f4b15f0 f dllinit.obj
 0002:00000054       ??_C@_07EFMO@CObject?$AA@  5f4b2054   objcore.obj
 0002:00000060       ?classCObject@CObject@@2UCRuntimeClass@@B 5f4b2060   objcore.obj
 0002:00000078       ??_C@_1GC@OANJ@?$AAA?$AAS?$AAS?$AAE?$AAR?$AAT?$AA_?$AAV?$AAA?$AAL?$AAI?$AAD?$AA?5?$AAf?$AAa?$AAi?$AAl?$AAs?$AA?5?$AAw@ 5f4b2078   objcore.obj
 0002:000000dc       ??_C@_1FE@IBFO@?$AAA?$AAS?$AAS?$AAE?$AAR?$AAT?$AA_?$AAV?$AAA?$AAL?$AAI?$AAD?$AA?5?$AAf?$AAa?$AAi?$AAl?$AAs?$AA?5?$AAw@ 5f4b20dc   objcore.obj
 0002:00000130       ??_C@_15DEDE@?$AA?$CF?$AAs?$AA?$AA?$AA?$AA?$AA?$AH?$AA?$AA@ 5f4b2130   objcore.obj
 0002:00000138       ??_C@_1EO@MGBE@?$AAA?$AAS?$AAS?$AAE?$AAR?$AAT?$AA_?$AAV?$AAA?$AAL?$AAI?$AAD?$AA?5?$AAf?$AAa?$AAi?$AAl?$AAs?$AA?5?$AAw@ 5f4b2138   objcore.obj
 0002:00000188       ??_C@_01BJG@?6?$AA@        5f4b2188   objcore.obj
 0002:0000018c       ??_C@_04CCDP@?5at?5?$AA@   5f4b218c   objcore.obj
 0002:00000194       ??_C@_02DLLN@a?5?$AA@      5f4b2194   objcore.obj
 0002:00000198       ??_C@_1LA@PGEA@?$AAE?$AAr?$AAr?$AAo?$AAr?$AA?3?$AA?5?$AAT?$AAr?$AAy?$AAi?$AAn?$AAg?$AA?5?$AAt?$AAo?$AA?5?$AAc?$AAr?$AAe@ 5f4b2198   objcore.obj
 0002:00000248       ??_C@_0BH@JODH@CNotSupportedException?$AA@ 5f4b2248   except.obj
 0002:00000260       ??_C@_0BB@NODM@CMemoryException?$AA@ 5f4b2260   except.obj
 0002:00000274       ??_C@_0L@CMNH@CException?$AA@ 5f4b2274   except.obj
 0002:00000280       ?classCException@CException@@2UCRuntimeClass@@B 5f4b2280   except.obj
 0002:00000298       ?classCMemoryException@CMemoryException@@2UCRuntimeClass@@B 5f4b2298   except.obj
 0002:000002b0       ?classCNotSupportedException@CNotSupportedException@@2UCRuntimeClass@@B 5f4b22b0   except.obj
 0002:000002cc       ??_7CException@@6B@        5f4b22cc   except.obj
 0002:000002e8       ??_C@_0BP@CJDN@d?3?2msdev?2mfc?2include?2afxtls_?4h?$AA@ 5f4b22e8   except.obj
 0002:00000308       ??_C@_02DILL@?$CFs?$AA@    5f4b2308   dumpcont.obj
 0002:0000030c       ??_C@_1O@DAJD@?$AA?$CI?$AAN?$AAU?$AAL?$AAL?$AA?$CJ?$AA?$AA?$AA?$AA?$AA?$AH?$AA?$AA?$AA?$AA?$AA?$AA?$AE?$CI?$AF?$:O@ 5f4b230c   dumpcont.obj
 0002:0000031c       ??_C@_15KLDP@?$AA?$CF?$AAd?$AA?$AA?$AA?$AA?$AA?$AH?$AA?$AA@ 5f4b231c   dumpcont.obj
 0002:00000324       ??_C@_15NIED@?$AA?$CF?$AAu?$AA?$AA?$AA?$AA?$AA?$AH?$AA?$AA@ 5f4b2324   dumpcont.obj
 0002:0000032c       ??_C@_19JHMD@?$AA0?$AAx?$AA?$CF?$AAX?$AA?$AA?$AA?$AA?$AA?$AH?$AA?$AA?$AA?$AA?$AA?$AA@ 5f4b232c   dumpcont.obj
 0002:00000338       ??_C@_17EFBD@?$AA?$CF?$AAl?$AAd?$AA?$AA?$AA?$AH?$AA?$AA?$AA?$AA?$AA?$AA@ 5f4b2338   dumpcont.obj
 0002:00000340       ??_C@_17DGGP@?$AA?$CF?$AAl?$AAu?$AA?$AA?$AA?$AH?$AA?$AA?$AA?$AA?$AA?$AA@ 5f4b2340   dumpcont.obj
 0002:00000348       ??_C@_19KF@?$AAN?$AAU?$AAL?$AAL?$AA?$AA?$AA?$AA?$AA?$AH?$AA?$AA?$AA?$AA?$AA?$AA@ 5f4b2348   dumpcont.obj
 0002:00000354       ??_C@_19LOGG@?$AA$?$AA?$CF?$AAl?$AAX?$AA?$AA?$AA?$AA?$AA?$AH?$AA?$AA?$AA?$AA?$AA?$AA@ 5f4b2354   dumpcont.obj
 0002:00000360       ??_C@_13DEJI@?$AA?6?$AA?$AA?$AA?$AH?$AA?$AA@ 5f4b2360   dumpcont.obj
 0002:00000364       ??_C@_1M@JKLL@?$AA?5?$AA?$CF?$AA0?$AA2?$AAX?$AA?$AA?$AA?$AH?$AA?$AA?$AA?$AA?$AA?$AA?$BH?$AF?$:O@ 5f4b2364   dumpcont.obj
 0002:00000370       ??_C@_1HI@FMGH@?$AAW?$AAa?$AAr?$AAn?$AAi?$AAn?$AAg?$AA?3?$AA?5?$AAC?$AAa?$AAn?$AAn?$AAo?$AAt?$AA?5?$AAl?$AAo?$AAa?$AAd@ 5f4b2370   arccore.obj
 0002:000003e8       ??_C@_1GM@INHD@?$AAW?$AAa?$AAr?$AAn?$AAi?$AAn?$AAg?$AA?3?$AA?5?$AAC?$AAa?$AAn?$AAn?$AAo?$AAt?$AA?5?$AAc?$AAa?$AAl?$AAl@ 5f4b23e8   arcobj.obj
 0002:00000454       ??_C@_1GI@EPDB@?$AAW?$AAa?$AAr?$AAn?$AAi?$AAn?$AAg?$AA?3?$AA?5?$AAC?$AAa?$AAn?$AAn?$AAo?$AAt?$AA?5?$AAc?$AAa?$AAl?$AAl@ 5f4b2454   arcobj.obj
 0002:000004bc       ??_C@_0BC@BIF@CArchiveException?$AA@ 5f4b24bc   arcex.obj
 0002:000004d0       ??_C@_09GHEH@badSchema?$AA@ 5f4b24d0   arcex.obj
 0002:000004dc       ??_C@_08PPOL@badClass?$AA@ 5f4b24dc   arcex.obj
 0002:000004e8       ??_C@_08FIDE@badIndex?$AA@ 5f4b24e8   arcex.obj
 0002:000004f4       ??_C@_09HDPC@writeOnly?$AA@ 5f4b24f4   arcex.obj
 0002:00000500       ??_C@_09CLBG@endOfFile?$AA@ 5f4b2500   arcex.obj
 0002:0000050c       ??_C@_08DEHK@readOnly?$AA@ 5f4b250c   arcex.obj
 0002:00000518       ??_C@_07LFGH@generic?$AA@  5f4b2518   arcex.obj
 0002:00000520       ??_C@_04KIKH@none?$AA@     5f4b2520   arcex.obj
 0002:00000550       ?classCArchiveException@CArchiveException@@2UCRuntimeClass@@B 5f4b2550   arcex.obj
 0002:00000568       ??_C@_0M@EBCL@?5m_cause?5?$DN?5?$AA@ 5f4b2568   arcex.obj
 0002:00000574       ??_C@_1DE@DAPO@?$AAC?$AAA?$AAr?$AAc?$AAh?$AAi?$AAv?$AAe?$AA?5?$AAe?$AAx?$AAc?$AAe?$AAp?$AAt?$AAi?$AAo?$AAn?$AA?3?$AA?5@ 5f4b2574   arcex.obj
 0002:000005cc       ??_7CArchiveStream@@6B@    5f4b25cc   arcstrm.obj
 0002:0000060c       ??_7IStream@@6B@           5f4b260c   arcstrm.obj
 0002:0000064c       ??_7ISequentialStream@@6B@ 5f4b264c   arcstrm.obj
 0002:00000664       ??_7IUnknown@@6B@          5f4b2664   arcstrm.obj
 0002:000006dc       ??_C@_0DH@ODEG@faulted?5while?5dumping?5object?5at?5@ 5f4b26dc   dumpinit.obj
 0002:00000714       ??_C@_0CH@OFAB@a?5?$CFhs?5object?5at?5$?$CF08lX?0?5?$CFu?5bytes@ 5f4b2714   dumpinit.obj
 0002:0000073c       ??_C@_0CM@EDOO@an?5invalid?5object?5at?5$?$CF08lX?0?5?$CFu?5@ 5f4b273c   dumpinit.obj
 0002:00000768       ??_C@_0N@POFF@dumpinit?4cpp?$AA@ 5f4b2768   dumpinit.obj
 0002:0000077c       ??_7_AFX_DEBUG_STATE@@6B@  5f4b277c   dumpinit.obj
 0002:00000784       ??_7CNoTrackObject@@6B@    5f4b2784   dumpinit.obj
 0002:00000788       ??_C@_02HFBK@?3?5?$AA@     5f4b2788   dumpout.obj
 0002:00000790       ??_C@_1CE@MDGC@?$AAA?$AAf?$AAx?$AAA?$AAb?$AAo?$AAr?$AAt?$AA?5?$AAc?$AAa?$AAl?$AAl?$AAe?$AAd?$AA?4?$AA?6?$AA?$AA?$AA?$AH?$AA?$AA@ 5f4b2790   afxabort.obj
 0002:000007f4       ??_7CObject@@6B@           5f4b27f4   afxinl1.obj
 0002:0000080c       ??_7CSimpleException@@6B@  5f4b280c   afxinl1.obj
 0002:0000082c       ??_7CMemoryException@@6B@  5f4b282c   afxinl1.obj
 0002:0000084c       ??_7CNotSupportedException@@6B@ 5f4b284c   afxinl1.obj
 0002:0000086c       ??_7CArchiveException@@6B@ 5f4b286c   afxinl1.obj
 0002:0000088c       ??_7CFileException@@6B@    5f4b288c   afxinl1.obj
 0002:000008ac       ??_7CCommonDialog@@6B@     5f4b28ac   afxinl1.obj
 0002:0000098c       ??_7CRectTracker@@6B@      5f4b298c   afxinl1.obj
 0002:000009ac       ??_7CBitmapButton@@6B@     5f4b29ac   afxinl1.obj
 0002:00000a84       ??_7CResourceException@@6B@ 5f4b2a84   afxinl2.obj
 0002:00000aa4       ??_7CUserException@@6B@    5f4b2aa4   afxinl2.obj
 0002:00000ac4       ??_7CGdiObject@@6B@        5f4b2ac4   afxinl2.obj
 0002:00000adc       ??_7CPen@@6B@              5f4b2adc   afxinl2.obj
 0002:00000af4       ??_7CBrush@@6B@            5f4b2af4   afxinl2.obj
 0002:00000b0c       ??_7CFont@@6B@             5f4b2b0c   afxinl2.obj
 0002:00000b24       ??_7CBitmap@@6B@           5f4b2b24   afxinl2.obj
 0002:00000b3c       ??_7CPalette@@6B@          5f4b2b3c   afxinl2.obj
 0002:00000b54       ??_7CRgn@@6B@              5f4b2b54   afxinl2.obj
 0002:00000b6c       ??_7CMenu@@6B@             5f4b2b6c   afxinl2.obj
 0002:00000b9c       ??_7CStatic@@6B@           5f4b2b9c   afxinl3.obj
 0002:00000c64       ??_7CButton@@6B@           5f4b2c64   afxinl3.obj
 0002:00000d2c       ??_7CListBox@@6B@          5f4b2d2c   afxinl3.obj
 0002:00000e0c       ??_7CCheckListBox@@6B@     5f4b2e0c   afxinl3.obj
 0002:00000eec       ??_7CComboBox@@6B@         5f4b2eec   afxinl3.obj
 0002:00000fc4       ??_7CEdit@@6B@             5f4b2fc4   afxinl3.obj
 0002:0000108c       ??_7CScrollBar@@6B@        5f4b308c   afxinl3.obj
 0002:0000114c       ??_C@_05GM@CFile?$AA@      5f4b314c   filecore.obj
 0002:00001158       _afxIID_IClassFactory      5f4b3158   filecore.obj
 0002:00001168       _afxIID_IPersistFile       5f4b3168   filecore.obj
 0002:00001178       _afxCLSID_ShellLink        5f4b3178   filecore.obj
 0002:00001188       _afxIID_IShellLinkW        5f4b3188   filecore.obj
 0002:00001198       ?classCFile@CFile@@2UCRuntimeClass@@B 5f4b3198   filecore.obj
 0002:000011b4       ??_7CFile@@6B@             5f4b31b4   filecore.obj
 0002:00001210       ??_C@_0BC@KFKC@DllGetClassObject?$AA@ 5f4b3210   filecore.obj
 0002:00001224       ??_C@_1GG@OAL@?$AA?$HL?$AA?$CF?$AA0?$AA8?$AAX?$AA?9?$AA?$CF?$AA0?$AA4?$AAX?$AA?9?$AA?$CF?$AA0?$AA4?$AAX?$AA?9?$AA?$CF?$AA0?$AA2?$AAX@ 5f4b3224   filecore.obj
 0002:0000128c       ??_C@_11A@?$AA?$AA?$AA?$AA@ 5f4b328c   filecore.obj
 0002:00001290       ??_C@_1BO@DEPG@?$AAI?$AAn?$AAP?$AAr?$AAo?$AAc?$AAS?$AAe?$AAr?$AAv?$AAe?$AAr?$AA3?$AA2?$AA?$AA?$AA?$AA?$AA?$AH?$AA?$AA?$AA?$AA?$AA?$AA@ 5f4b3290   filecore.obj
 0002:000012b0       ??_C@_1M@EPCN@?$AAC?$AAL?$AAS?$AAI?$AAD?$AA?$AA?$AA?$AH?$AA?$AA?$AA?$AA?$AA?$AA?$AF?$AF?$:O@ 5f4b32b0   filecore.obj
 0002:000012bc       ??_C@_1GC@CEID@?$AAW?$AAa?$AAr?$AAn?$AAi?$AAn?$AAg?$AA?3?$AA?5?$AAc?$AAo?$AAu?$AAl?$AAd?$AA?5?$AAn?$AAo?$AAt?$AA?5?$AAg@ 5f4b32bc   filecore.obj
 0002:00001320       ??_C@_1FC@EIIJ@?$AAW?$AAa?$AAr?$AAn?$AAi?$AAn?$AAg?$AA?3?$AA?5?$AAc?$AAo?$AAu?$AAl?$AAd?$AA?5?$AAn?$AAo?$AAt?$AA?5?$AAp@ 5f4b3320   filecore.obj
 0002:00001374       ??_C@_01HMO@?$CC?$AA@      5f4b3374   filecore.obj
 0002:00001378       ??_C@_0M@KEJC@?5and?5name?5?$CC?$AA@ 5f4b3378   filecore.obj
 0002:00001384       ??_C@_0N@MAIC@with?5handle?5?$AA@ 5f4b3384   filecore.obj
 0002:00001394       ??_C@_0L@JAPO@CStdioFile?$AA@ 5f4b3394   filetxt.obj
 0002:000013a0       ?classCStdioFile@CStdioFile@@2UCRuntimeClass@@B 5f4b33a0   filetxt.obj
 0002:000013bc       ??_7CStdioFile@@6B@        5f4b33bc   filetxt.obj
 0002:00001424       ??_C@_0N@FDDN@m_pStream?5?$DN?5?$AA@ 5f4b3424   filetxt.obj
 0002:00001434       ??_C@_08EMMO@CMemFile?$AA@ 5f4b3434   filemem.obj
 0002:00001440       ?classCMemFile@CMemFile@@2UCRuntimeClass@@B 5f4b3440   filemem.obj
 0002:0000145c       ??_7CMemFile@@6B@          5f4b345c   filemem.obj
 0002:000014cc       ??_C@_0BB@KJDL@?6m_nGrowBytes?5?$DN?5?$AA@ 5f4b34cc   filemem.obj
 0002:000014e0       ??_C@_0BA@IEDI@?6m_nPosition?5?$DN?5?$AA@ 5f4b34e0   filemem.obj
 0002:000014f0       ??_C@_0BC@LAMI@?6m_nBufferSize?5?$DN?5?$AA@ 5f4b34f0   filemem.obj
 0002:00001504       ??_C@_0P@IHAB@m_nFileSize?5?$DN?5?$AA@ 5f4b3504   filemem.obj
 0002:00001514       ??_C@_0M@DHDK@CSharedFile?$AA@ 5f4b3514   fileshrd.obj
 0002:00001520       ?classCSharedFile@CSharedFile@@2UCRuntimeClass@@B 5f4b3520   fileshrd.obj
 0002:0000153c       ??_7CSharedFile@@6B@       5f4b353c   fileshrd.obj
 0002:000015ac       ??_C@_0P@HFKI@CFileException?$AA@ 5f4b35ac   filex.obj
 0002:000015bc       ??_C@_08DJIA@diskFull?$AA@ 5f4b35bc   filex.obj
 0002:000015c8       ??_C@_0O@IKIP@lockViolation?$AA@ 5f4b35c8   filex.obj
 0002:000015d8       ??_C@_0BB@KIFC@sharingViolation?$AA@ 5f4b35d8   filex.obj
 0002:000015ec       ??_C@_06BPHG@hardIO?$AA@   5f4b35ec   filex.obj
 0002:000015f4       ??_C@_07DCIG@badSeek?$AA@  5f4b35f4   filex.obj
 0002:000015fc       ??_C@_0O@NHLK@directoryFull?$AA@ 5f4b35fc   filex.obj
 0002:0000160c       ??_C@_0BB@OOOA@removeCurrentDir?$AA@ 5f4b360c   filex.obj
 0002:00001620       ??_C@_0M@BHGP@invalidFile?$AA@ 5f4b3620   filex.obj
 0002:0000162c       ??_C@_0N@CFIF@accessDenied?$AA@ 5f4b362c   filex.obj
 0002:0000163c       ??_C@_0BB@KBLL@tooManyOpenFiles?$AA@ 5f4b363c   filex.obj
 0002:00001650       ??_C@_07JGJA@badPath?$AA@  5f4b3650   filex.obj
 0002:00001658       ??_C@_0N@KFOJ@fileNotFound?$AA@ 5f4b3658   filex.obj
 0002:000016b0       ?classCFileException@CFileException@@2UCRuntimeClass@@B 5f4b36b0   filex.obj
 0002:000016c8       ??_C@_0P@CDGG@?6m_lOsError?5?$DN?5?$AA@ 5f4b36c8   filex.obj
 0002:000016d8       ??_C@_0L@BAND@m_cause?5?$DN?5?$AA@ 5f4b36d8   filex.obj
 0002:000016e4       ??_C@_1HI@GAHB@?$AAC?$AAF?$AAi?$AAl?$AAe?$AA?5?$AAe?$AAx?$AAc?$AAe?$AAp?$AAt?$AAi?$AAo?$AAn?$AA?3?$AA?5?$AA?$CF?$AAh?$AAs@ 5f4b36e4   filex.obj
 0002:0000175c       ??_C@_1BA@JDJI@?$AAU?$AAn?$AAk?$AAn?$AAo?$AAw?$AAn?$AA?$AA?$AA?$AH?$AA?$AA?$AA?$AA?$AA?$AA?$AH?$AF?$:O?$AA?$BA?$AA?$AB@ 5f4b375c   filex.obj
 0002:0000176c       ??_C@_0BB@FMKN@?6m_szFullName?5?$DN?5?$AA@ 5f4b376c   filest.obj
 0002:00001780       ??_C@_0BA@MINE@?6m_attribute?5?$DN?5?$AA@ 5f4b3780   filest.obj
 0002:00001790       ??_C@_0L@MFI@?6m_size?5?$DN?5?$AA@ 5f4b3790   filest.obj
 0002:0000179c       ??_C@_0M@BOFF@?6m_atime?5?$DN?5?$AA@ 5f4b379c   filest.obj
 0002:000017a8       ??_C@_0M@HPJL@?6m_mtime?5?$DN?5?$AA@ 5f4b37a8   filest.obj
 0002:000017b4       ??_C@_0M@IOAI@?6m_ctime?5?$DN?5?$AA@ 5f4b37b4   filest.obj
 0002:000017c0       ??_C@_0BC@PLAF@a?5CFileStatus?5at?5?$AA@ 5f4b37c0   filest.obj
 0002:000017d4       ??_C@_0L@LFP@CByteArray?$AA@ 5f4b37d4   array_b.obj
 0002:000017e4       ??_7CByteArray@@6B@        5f4b37e4   array_b.obj
 0002:000017f8       ??_C@_04MNLE@?$FN?5?$DN?5?$AA@ 5f4b37f8   array_b.obj
 0002:00001800       ??_C@_03DANH@?6?7?$FL?$AA@ 5f4b3800   array_b.obj
 0002:00001804       ??_C@_09LOPF@?5elements?$AA@ 5f4b3804   array_b.obj
 0002:00001810       ??_C@_05KIFI@with?5?$AA@   5f4b3810   array_b.obj
 0002:00001818       ??_C@_0M@JHEJ@CDWordArray?$AA@ 5f4b3818   array_d.obj
 0002:0000182c       ??_7CDWordArray@@6B@       5f4b382c   array_d.obj
 0002:00001840       ??_C@_09BHCJ@CPtrArray?$AA@ 5f4b3840   array_p.obj
 0002:00001850       ?classCPtrArray@CPtrArray@@2UCRuntimeClass@@B 5f4b3850   array_p.obj
 0002:0000186c       ??_7CPtrArray@@6B@         5f4b386c   array_p.obj
 0002:00001880       ??_C@_08PPJP@CObArray?$AA@ 5f4b3880   array_o.obj
 0002:00001894       ??_7CObArray@@6B@          5f4b3894   array_o.obj
 0002:000018a8       ??_C@_0N@FMIP@CStringArray?$AA@ 5f4b38a8   array_s.obj
 0002:000018bc       ??_7CStringArray@@6B@      5f4b38bc   array_s.obj
 0002:000018d0       ??_C@_0L@OIGA@CUIntArray?$AA@ 5f4b38d0   array_u.obj
 0002:000018e0       ?classCUIntArray@CUIntArray@@2UCRuntimeClass@@B 5f4b38e0   array_u.obj
 0002:000018fc       ??_7CUIntArray@@6B@        5f4b38fc   array_u.obj
 0002:00001910       ??_C@_0L@KEGG@CWordArray?$AA@ 5f4b3910   array_w.obj
 0002:00001924       ??_7CWordArray@@6B@        5f4b3924   array_w.obj
 0002:00001938       ??_C@_07ICCG@CObList?$AA@  5f4b3938   list_o.obj
 0002:00001944       ??_7CObList@@6B@           5f4b3944   list_o.obj
 0002:00001958       ??_C@_02GGCO@?6?7?$AA@     5f4b3958   list_o.obj
 0002:0000195c       ??_C@_08DEKG@CPtrList?$AA@ 5f4b395c   list_p.obj
 0002:00001968       ?classCPtrList@CPtrList@@2UCRuntimeClass@@B 5f4b3968   list_p.obj
 0002:00001984       ??_7CPtrList@@6B@          5f4b3984   list_p.obj
 0002:00001998       ??_C@_0M@JCPP@CStringList?$AA@ 5f4b3998   list_s.obj
 0002:000019ac       ??_7CStringList@@6B@       5f4b39ac   list_s.obj
 0002:000019c0       ??_C@_0N@EGND@CMapPtrToPtr?$AA@ 5f4b39c0   map_pp.obj
 0002:000019d0       ?classCMapPtrToPtr@CMapPtrToPtr@@2UCRuntimeClass@@B 5f4b39d0   map_pp.obj
 0002:000019ec       ??_7CMapPtrToPtr@@6B@      5f4b39ec   map_pp.obj
 0002:00001a00       ??_C@_0O@CNGA@CMapPtrToWord?$AA@ 5f4b3a00   map_pw.obj
 0002:00001a10       ?classCMapPtrToWord@CMapPtrToWord@@2UCRuntimeClass@@B 5f4b3a10   map_pw.obj
 0002:00001a2c       ??_7CMapPtrToWord@@6B@     5f4b3a2c   map_pw.obj
 0002:00001a40       ??_C@_0P@FLNF@CMapStringToOb?$AA@ 5f4b3a40   map_so.obj
 0002:00001a54       ??_7CMapStringToOb@@6B@    5f4b3a54   map_so.obj
 0002:00001a68       ??_C@_0BA@PAMN@CMapStringToPtr?$AA@ 5f4b3a68   map_sp.obj
 0002:00001a78       ?classCMapStringToPtr@CMapStringToPtr@@2UCRuntimeClass@@B 5f4b3a78   map_sp.obj
 0002:00001a94       ??_7CMapStringToPtr@@6B@   5f4b3a94   map_sp.obj
 0002:00001aa8       ??_C@_0BD@HCIA@CMapStringToString?$AA@ 5f4b3aa8   map_ss.obj
 0002:00001ac4       ??_7CMapStringToString@@6B@ 5f4b3ac4   map_ss.obj
 0002:00001ad8       ??_C@_0N@DJOC@CMapWordToOb?$AA@ 5f4b3ad8   map_wo.obj
 0002:00001aec       ??_7CMapWordToOb@@6B@      5f4b3aec   map_wo.obj
 0002:00001b00       ??_C@_0O@MJKP@CMapWordToPtr?$AA@ 5f4b3b00   map_wp.obj
 0002:00001b10       ?classCMapWordToPtr@CMapWordToPtr@@2UCRuntimeClass@@B 5f4b3b10   map_wp.obj
 0002:00001b2c       ??_7CMapWordToPtr@@6B@     5f4b3b2c   map_wp.obj
 0002:00001b40       ??_C@_1FC@LHMI@?$AAW?$AAa?$AAr?$AAn?$AAi?$AAn?$AAg?$AA?3?$AA?5?$AAi?$AAm?$AAp?$AAl?$AAi?$AAc?$AAi?$AAt?$AA?5?$AAL?$AAo@ 5f4b3b40   strcore.obj
 0002:00001b94       ??_C@_02FEMI@?$CC?$CJ?$AA@ 5f4b3b94   timecore.obj
 0002:00001b98       ??_C@_07MABK@CTime?$CI?$CC?$AA@ 5f4b3b98   timecore.obj
 0002:00001ba0       ??_C@_01KMMP@?$CJ?$AA@     5f4b3ba0   timecore.obj
 0002:00001ba4       ??_C@_0BA@NLOD@CTime?$CIinvalid?5?$CD?$AA@ 5f4b3ba4   timecore.obj
 0002:00001bb4       ??_C@_09PGME@?5seconds?$CJ?$AA@ 5f4b3bb4   timecore.obj
 0002:00001bc0       ??_C@_0O@BFOJ@?5minutes?5and?5?$AA@ 5f4b3bc0   timecore.obj
 0002:00001bd0       ??_C@_08CJPE@?5hours?0?5?$AA@ 5f4b3bd0   timecore.obj
 0002:00001bdc       ??_C@_07CJKE@?5days?0?5?$AA@ 5f4b3bdc   timecore.obj
 0002:00001be4       ??_C@_0L@DOCK@CTimeSpan?$CI?$AA@ 5f4b3be4   timecore.obj
 0002:00001bf0       ??_C@_19HABD@?$AA?$CF?$AA0?$AA2?$AAd?$AA?$AA?$AA?$AA?$AA?$AH?$AA?$AA?$AA?$AA?$AA?$AA@ 5f4b3bf0   timecore.obj
 0002:00001c04       ??_7_AFX_THREAD_STATE@@6B@ 5f4b3c04   afxstate.obj
 0002:00001c0c       ??_7AFX_MODULE_STATE@@6B@  5f4b3c0c   afxstate.obj
 0002:00001c14       ??_7AFX_MODULE_THREAD_STATE@@6B@ 5f4b3c14   afxstate.obj
 0002:00001c1c       ??_7_AFX_BASE_MODULE_STATE@@6B@ 5f4b3c1c   afxstate.obj
 0002:00001c24       ??_7CThreadData@@6B@       5f4b3c24   afxtls.obj
 0002:00001c28       ??_C@_0M@EHIL@CSyncObject?$AA@ 5f4b3c28   mtcore.obj
 0002:00001c34       ??_C@_0BB@HCJ@CCriticalSection?$AA@ 5f4b3c34   mtcore.obj
 0002:00001c48       ?classCCriticalSection@CCriticalSection@@2UCRuntimeClass@@B 5f4b3c48   mtcore.obj
 0002:00001c60       ?classCSyncObject@CSyncObject@@2UCRuntimeClass@@B 5f4b3c60   mtcore.obj
 0002:00001c7c       ??_7CSyncObject@@6B@       5f4b3c7c   mtcore.obj
 0002:00001c9c       ??_C@_07LNGA@?5named?5?$AA@ 5f4b3c9c   mtcore.obj
 0002:00001ca4       ??_C@_07MBHD@Object?5?$AA@ 5f4b3ca4   mtcore.obj
 0002:00001cb4       ??_7CCriticalSection@@6B@  5f4b3cb4   mtcore.obj
 0002:00001cd4       ??_C@_06HCIL@CMutex?$AA@   5f4b3cd4   mtex.obj
 0002:00001cdc       ??_C@_0L@NFMO@CSemaphore?$AA@ 5f4b3cdc   mtex.obj
 0002:00001ce8       ??_C@_06BPGE@CEvent?$AA@   5f4b3ce8   mtex.obj
 0002:00001cf0       ?classCEvent@CEvent@@2UCRuntimeClass@@B 5f4b3cf0   mtex.obj
 0002:00001d08       ?classCSemaphore@CSemaphore@@2UCRuntimeClass@@B 5f4b3d08   mtex.obj
 0002:00001d20       ?classCMutex@CMutex@@2UCRuntimeClass@@B 5f4b3d20   mtex.obj
 0002:00001d3c       ??_7CSemaphore@@6B@        5f4b3d3c   mtex.obj
 0002:00001d64       ??_7CMutex@@6B@            5f4b3d64   mtex.obj
 0002:00001d8c       ??_7CEvent@@6B@            5f4b3d8c   mtex.obj
 0002:00001dac       ??_C@_04MBPC@CWnd?$AA@     5f4b3dac   wincore.obj
 0002:00001db8       ?_afxWnd@@3PBGB            5f4b3db8   wincore.obj
 0002:00001dd0       ?_afxWndControlBar@@3PBGB  5f4b3dd0   wincore.obj
 0002:00001df8       ?_afxWndMDIFrame@@3PBGB    5f4b3df8   wincore.obj
 0002:00001e18       ?_afxWndFrameOrView@@3PBGB 5f4b3e18   wincore.obj
 0002:00001e40       ?_afxWndOleControl@@3PBGB  5f4b3e40   wincore.obj
 0002:00001e88       ?messageMap@CWnd@@1UAFX_MSGMAP@@B 5f4b3e88   wincore.obj
 0002:00001e90       ?_messageEntries@CWnd@@0PBUAFX_MSGMAP_ENTRY@@B 5f4b3e90   wincore.obj
 0002:00002118       ?classCWnd@CWnd@@2UCRuntimeClass@@B 5f4b4118   wincore.obj
 0002:00002130       ??_C@_1CK@HBPJ@?$AAc?$AAo?$AAm?$AAm?$AAc?$AAt?$AAr?$AAl?$AA_?$AAD?$AAr?$AAa?$AAg?$AAL?$AAi?$AAs?$AAt?$AAM?$AAs?$AAg@ 5f4b4130   wincore.obj
 0002:00002164       ??_7CWnd@@6B@              5f4b4164   wincore.obj
 0002:00002224       ??_C@_1HI@NNAA@?$AAW?$AAa?$AAr?$AAn?$AAi?$AAn?$AAg?$AA?3?$AA?5?$AAU?$AAn?$AAc?$AAa?$AAu?$AAg?$AAh?$AAt?$AA?5?$AAe?$AAx@ 5f4b4224   wincore.obj
 0002:0000229c       ??_C@_1BA@KFMN@?$AAW?$AAn?$AAd?$AAP?$AAr?$AAo?$AAc?$AA?$AA?$AA?$AH?$AA?$AA?$AA?$AA?$AA?$AA?$ALT?$AF?$:O?$AA?$BA?$AA?$AB@ 5f4b429c   wincore.obj
 0002:000022ac       ??_C@_1IO@PHDK@?$AAW?$AAa?$AAr?$AAn?$AAi?$AAn?$AAg?$AA?3?$AA?5?$AAU?$AAn?$AAc?$AAa?$AAu?$AAg?$AAh?$AAt?$AA?5?$AAe?$AAx@ 5f4b42ac   wincore.obj
 0002:0000233c       ??_C@_1HO@OOAB@?$AAW?$AAa?$AAr?$AAn?$AAi?$AAn?$AAg?$AA?3?$AA?5?$AAW?$AAi?$AAn?$AAd?$AAo?$AAw?$AA?5?$AAc?$AAr?$AAe?$AAa@ 5f4b433c   wincore.obj
 0002:000023bc       ??_C@_1OA@CIKK@?$AAW?$AAa?$AAr?$AAn?$AAi?$AAn?$AAg?$AA?3?$AA?5?$AAc?$AAa?$AAl?$AAl?$AAi?$AAn?$AAg?$AA?5?$AAD?$AAe?$AAs@ 5f4b43bc   wincore.obj
 0002:0000249c       ??_C@_06BHKF@?6id?5?$DN?5?$AA@ 5f4b449c   wincore.obj
 0002:000024a4       ??_C@_09MMEE@?6style?5?$DN?5?$AA@ 5f4b44a4   wincore.obj
 0002:000024b0       ??_C@_0BB@OKDO@?6parent?5CWnd?$CK?5?$DN?5?$AA@ 5f4b44b0   wincore.obj
 0002:000024c4       ??_C@_08IIAM@?6rect?5?$DN?5?$AA@ 5f4b44c4   wincore.obj
 0002:000024d0       ??_C@_0BA@JMEP@?6class?5name?5?$DN?5?$CC?$AA@ 5f4b44d0   wincore.obj
 0002:000024e0       ??_C@_0N@EELD@?6caption?5?$DN?5?$CC?$AA@ 5f4b44e0   wincore.obj
 0002:000024f0       ??_C@_0BE@EMJB@?5?$CIpermanent?5window?$CJ?$AA@ 5f4b44f0   wincore.obj
 0002:00002504       ??_C@_0CA@HEAL@?5?$CIDetached?5or?5temporary?5window?$CJ?$AA@ 5f4b4504   wincore.obj
 0002:00002524       ??_C@_0BA@NCHM@?5?$CIillegal?5HWND?$CJ?$AA@ 5f4b4524   wincore.obj
 0002:00002534       ??_C@_0L@HLEE@?6m_hWnd?5?$DN?5?$AA@ 5f4b4534   wincore.obj
 0002:00002540       ??_C@_1GO@BJLB@?$AAW?$AAa?$AAr?$AAn?$AAi?$AAn?$AAg?$AA?3?$AA?5?$AAu?$AAn?$AAk?$AAn?$AAo?$AAw?$AAn?$AA?5?$AAW?$AAM?$AA_@ 5f4b4540   wincore.obj
 0002:000025b0       ??_C@_1EM@OKFH@?$AAC?$AAa?$AAn?$AA?8?$AAt?$AA?5?$AAr?$AAe?$AAg?$AAi?$AAs?$AAt?$AAe?$AAr?$AA?5?$AAw?$AAi?$AAn?$AAd?$AAo@ 5f4b45b0   wincore.obj
 0002:000025fc       ??_C@_1CG@HFFM@?$AAA?$AAf?$AAx?$AA?3?$AA?$CF?$AAx?$AA?3?$AA?$CF?$AAx?$AA?3?$AA?$CF?$AAx?$AA?3?$AA?$CF?$AAx?$AA?3?$AA?$CF?$AAx?$AA?$AA?$AA?$AA@ 5f4b45fc   wincore.obj
 0002:00002624       ??_C@_1BE@KCHN@?$AAA?$AAf?$AAx?$AA?3?$AA?$CF?$AAx?$AA?3?$AA?$CF?$AAx?$AA?$AA?$AA?$AH?$AA?$AA?$AA?$AA?$AA?$AA?$AI?$GA?$AF?$:O?$AA?$BE?$AA?$AB?$AA?$AA?$AA?$AA@ 5f4b4624   wincore.obj
 0002:00002638       ??_C@_1HG@BIMO@?$AAW?$AAi?$AAn?$AAH?$AAe?$AAl?$AAp?$AA?3?$AA?5?$AAp?$AAs?$AAz?$AAH?$AAe?$AAl?$AAp?$AAF?$AAi?$AAl?$AAe@ 5f4b4638   wincore.obj
 0002:000026b4       ??_7CTestCmdUI@@6B@        5f4b46b4   wincore.obj
 0002:000026c4       ??_C@_1GK@IJAD@?$AAI?$AAm?$AAp?$AAl?$AAe?$AAm?$AAe?$AAn?$AAt?$AAa?$AAt?$AAi?$AAo?$AAn?$AA?5?$AAW?$AAa?$AAr?$AAn?$AAi@ 5f4b46c4   wincore.obj
 0002:00002730       ??_C@_1FI@PDNK@?$AAW?$AAa?$AAr?$AAn?$AAi?$AAn?$AAg?$AA?3?$AA?5?$AAn?$AAo?$AAt?$AA?5?$AAe?$AAx?$AAe?$AAc?$AAu?$AAt?$AAi@ 5f4b4730   wincore.obj
 0002:00002788       ??_C@_1HA@LPHL@?$AAW?$AAa?$AAr?$AAn?$AAi?$AAn?$AAg?$AA?3?$AA?5?$AAD?$AAe?$AAf?$AAe?$AAr?$AAW?$AAi?$AAn?$AAd?$AAo?$AAw@ 5f4b4788   wincore.obj
 0002:000027fc       ??_7_AFX_CTL3D_STATE@@6B@  5f4b47fc   wincore.obj
 0002:00002800       ??_C@_1JA@JGEC@?$AAW?$AAa?$AAr?$AAn?$AAi?$AAn?$AAg?$AA?3?$AA?5?$AAh?$AAD?$AAC?$AA?5?$AAi?$AAs?$AA?5?$AAN?$AAU?$AAL?$AAL@ 5f4b4800   wincore.obj
 0002:00002890       ??_C@_1FE@IHBG@?$AA?7?$AAh?$AAW?$AAn?$AAd?$AA?5?$AA?$DN?$AA?5?$AA$?$AA?$CF?$AA0?$AA4?$AAX?$AA?5?$AA?$CI?$AAn?$AAI?$AAD?$AAC?$AA?$DN@ 5f4b4890   wincore.obj
 0002:000028e4       ??_C@_1CC@BBNA@?$AA?7?$AAd?$AAe?$AAr?$AAi?$AAv?$AAe?$AAd?$AA?5?$AAc?$AAl?$AAa?$AAs?$AAs?$AA?4?$AA?6?$AA?$AA?$AA?$AA?$AA?$AH?$AA?$AA@ 5f4b48e4   wincore.obj
 0002:00002908       ??_C@_1HC@NHDM@?$AAE?$AAr?$AAr?$AAo?$AAr?$AA?3?$AA?5?$AAT?$AAr?$AAy?$AAi?$AAn?$AAg?$AA?5?$AAt?$AAo?$AA?5?$AAu?$AAs?$AAe@ 5f4b4908   wincore.obj
 0002:0000297c       ??_C@_0M@GCON@CControlBar?$AA@ 5f4b497c   winfrm.obj
 0002:00002988       ??_C@_05KON@CView?$AA@     5f4b4988   winfrm.obj
 0002:00002990       ??_C@_09HNKJ@CFrameWnd?$AA@ 5f4b4990   winfrm.obj
 0002:000029a0       ?messageMap@CFrameWnd@@1UAFX_MSGMAP@@B 5f4b49a0   winfrm.obj
 0002:000029a8       ?_messageEntries@CFrameWnd@@0PBUAFX_MSGMAP_ENTRY@@B 5f4b49a8   winfrm.obj
 0002:00002d98       ?classCFrameWnd@CFrameWnd@@2UCRuntimeClass@@B 5f4b4d98   winfrm.obj
 0002:00002db0       ?classCView@CView@@2UCRuntimeClass@@B 5f4b4db0   winfrm.obj
 0002:00002dc8       ?classCControlBar@CControlBar@@2UCRuntimeClass@@B 5f4b4dc8   winfrm.obj
 0002:00002de4       ??_7CFrameWnd@@6B@         5f4b4de4   winfrm.obj
 0002:00002ee0       ??_C@_1EM@DDNK@?$AAW?$AAa?$AAr?$AAn?$AAi?$AAn?$AAg?$AA?3?$AA?5?$AAf?$AAa?$AAi?$AAl?$AAe?$AAd?$AA?5?$AAt?$AAo?$AA?5?$AAc@ 5f4b4ee0   winfrm.obj
 0002:00002f2c       ??_C@_1FK@IOMB@?$AAW?$AAa?$AAr?$AAn?$AAi?$AAn?$AAg?$AA?3?$AA?5?$AAf?$AAa?$AAi?$AAl?$AAe?$AAd?$AA?5?$AAt?$AAo?$AA?5?$AAl@ 5f4b4f2c   winfrm.obj
 0002:00002f88       ??_C@_1FG@DHFK@?$AAW?$AAa?$AAr?$AAn?$AAi?$AAn?$AAg?$AA?3?$AA?5?$AAc?$AAo?$AAu?$AAl?$AAd?$AA?5?$AAn?$AAo?$AAt?$AA?5?$AAc@ 5f4b4f88   winfrm.obj
 0002:00002fe0       ??_C@_1GE@OKMP@?$AAW?$AAa?$AAr?$AAn?$AAi?$AAn?$AAg?$AA?3?$AA?5?$AAD?$AAy?$AAn?$AAa?$AAm?$AAi?$AAc?$AA?5?$AAc?$AAr?$AAe@ 5f4b4fe0   winfrm.obj
 0002:00003044       ??_C@_1FM@MAKN@?$AAF?$AAa?$AAi?$AAl?$AAe?$AAd?$AA?5?$AAt?$AAo?$AA?5?$AAc?$AAr?$AAe?$AAa?$AAt?$AAe?$AA?5?$AAc?$AAl?$AAi@ 5f4b5044   winfrm.obj
 0002:000030a0       ??_C@_1FI@CHH@?$AAE?$AAr?$AAr?$AAo?$AAr?$AA?3?$AA?5?$AAf?$AAa?$AAi?$AAl?$AAe?$AAd?$AA?5?$AAt?$AAo?$AA?5?$AAe?$AAx?$AAe@ 5f4b50a0   winfrm.obj
 0002:000030f8       ??_C@_1HO@HABA@?$AAW?$AAa?$AAr?$AAn?$AAi?$AAn?$AAg?$AA?3?$AA?5?$AAD?$AAD?$AAE?$AA?5?$AAc?$AAo?$AAm?$AAm?$AAa?$AAn?$AAd@ 5f4b50f8   winfrm.obj
 0002:00003178       ??_C@_1GA@KHGF@?$AAW?$AAa?$AAr?$AAn?$AAi?$AAn?$AAg?$AA?3?$AA?5?$AAn?$AAo?$AA?5?$AAm?$AAe?$AAs?$AAs?$AAa?$AAg?$AAe?$AA?5@ 5f4b5178   winfrm.obj
 0002:000031d8       ??_C@_1HG@CHFH@?$AAW?$AAa?$AAr?$AAn?$AAi?$AAn?$AAg?$AA?3?$AA?5?$AAO?$AAn?$AAU?$AAp?$AAd?$AAa?$AAt?$AAe?$AAK?$AAe?$AAy@ 5f4b51d8   winfrm.obj
 0002:00003250       ??_C@_17LFFB@?$AA?5?$AA?9?$AA?5?$AA?$AA?$AA?$AH?$AA?$AA?$AA?$AA?$AA?$AA@ 5f4b5250   winfrm.obj
 0002:00003258       ??_C@_17LJFH@?$AA?3?$AA?$CF?$AAd?$AA?$AA?$AA?$AH?$AA?$AA?$AA?$AA?$AA?$AA@ 5f4b5258   winfrm.obj
 0002:00003260       ??_C@_1II@MAFK@?$AAW?$AAa?$AAr?$AAn?$AAi?$AAn?$AAg?$AA?3?$AA?5?$AAs?$AAc?$AAr?$AAo?$AAl?$AAl?$AA?5?$AAb?$AAa?$AAr?$AAs@ 5f4b5260   winfrm.obj
 0002:000032e8       ??_C@_0BA@OBND@?6no?5active?5view?$AA@ 5f4b52e8   winfrm.obj
 0002:000032f8       ??_C@_0BE@LNEN@?6with?5active?5view?3?5?$AA@ 5f4b52f8   winfrm.obj
 0002:0000330c       ??_C@_0BF@GBOK@?6m_nIDLastMessage?5?$DN?5?$AA@ 5f4b530c   winfrm.obj
 0002:00003324       ??_C@_0BC@GNPE@?6m_nIDTracking?5?$DN?5?$AA@ 5f4b5324   winfrm.obj
 0002:00003338       ??_C@_0O@BBAD@?6m_nIDHelp?5?$DN?5?$AA@ 5f4b5338   winfrm.obj
 0002:00003348       ??_C@_0O@DMPK@?6m_nWindow?5?$DN?5?$AA@ 5f4b5348   winfrm.obj
 0002:00003358       ??_C@_0BB@HLGH@m_hAccelTable?5?$DN?5?$AA@ 5f4b5358   winfrm.obj
 0002:00003370       ?dwDockBarMap@CFrameWnd@@1PAY01$$CBKA 5f4b5370   winfrm2.obj
 0002:00003390       ??_C@_1HM@LAGL@?$AAE?$AAr?$AAr?$AAo?$AAr?$AA?3?$AA?5?$AAa?$AAn?$AA?5?$AAi?$AAn?$AA?9?$AAp?$AAl?$AAa?$AAc?$AAe?$AA?5?$AAs@ 5f4b5390   winfrmx.obj
 0002:0000340c       ??_C@_0N@NPHP@CMDIChildWnd?$AA@ 5f4b540c   winmdi.obj
 0002:0000341c       ??_C@_0N@FPEB@CMDIFrameWnd?$AA@ 5f4b541c   winmdi.obj
 0002:00003430       ?messageMap@CMDIFrameWnd@@1UAFX_MSGMAP@@B 5f4b5430   winmdi.obj
 0002:00003438       ?_messageEntries@CMDIFrameWnd@@0PBUAFX_MSGMAP_ENTRY@@B 5f4b5438   winmdi.obj
 0002:000035b8       ?messageMap@CMDIChildWnd@@1UAFX_MSGMAP@@B 5f4b55b8   winmdi.obj
 0002:000035c0       ?_messageEntries@CMDIChildWnd@@0PBUAFX_MSGMAP_ENTRY@@B 5f4b55c0   winmdi.obj
 0002:00003698       ?classCMDIFrameWnd@CMDIFrameWnd@@2UCRuntimeClass@@B 5f4b5698   winmdi.obj
 0002:000036b0       ?classCMDIChildWnd@CMDIChildWnd@@2UCRuntimeClass@@B 5f4b56b0   winmdi.obj
 0002:000036cc       ??_7CMDIFrameWnd@@6B@      5f4b56cc   winmdi.obj
 0002:000037d0       ??_C@_1II@NOMC@?$AAW?$AAa?$AAr?$AAn?$AAi?$AAn?$AAg?$AA?3?$AA?5?$AAC?$AAM?$AAD?$AAI?$AAF?$AAr?$AAa?$AAm?$AAe?$AAW?$AAn@ 5f4b57d0   winmdi.obj
 0002:00003858       ??_C@_1BE@MFDJ@?$AAm?$AAd?$AAi?$AAc?$AAl?$AAi?$AAe?$AAn?$AAt?$AA?$AA?$AA?$AH?$AA?$AA?$AA?$AA?$AA?$AA?$BE?$AE?$AF?$:O?$AA?$BE?$AA?$AB?$AA?5?$AA?$AA@ 5f4b5858   winmdi.obj
 0002:0000386c       ??_C@_1FO@CGDK@?$AAW?$AAa?$AAr?$AAn?$AAi?$AAn?$AAg?$AA?3?$AA?5?$AAC?$AAM?$AAD?$AAI?$AAF?$AAr?$AAa?$AAm?$AAe?$AAW?$AAn@ 5f4b586c   winmdi.obj
 0002:000038cc       ??_C@_0BD@PBFF@?6m_hMenuDefault?5?$DN?5?$AA@ 5f4b58cc   winmdi.obj
 0002:000038e0       ??_C@_0BD@IENL@m_hWndMDIClient?5?$DN?5?$AA@ 5f4b58e0   winmdi.obj
 0002:000038fc       ??_7CMDIChildWnd@@6B@      5f4b58fc   winmdi.obj
 0002:00003a00       ??_C@_1HE@JNPH@?$AAW?$AAa?$AAr?$AAn?$AAi?$AAn?$AAg?$AA?3?$AA?5?$AAn?$AAo?$AA?5?$AAs?$AAh?$AAa?$AAr?$AAe?$AAd?$AA?5?$AAm@ 5f4b5a00   winmdi.obj
 0002:00003a74       ??_C@_0BB@DJLO@m_hMenuShared?5?$DN?5?$AA@ 5f4b5a74   winmdi.obj
 0002:00003a88       ??_C@_1EK@LEIL@?$AAW?$AAa?$AAr?$AAn?$AAi?$AAn?$AAg?$AA?3?$AA?5?$AAG?$AAe?$AAt?$AAW?$AAi?$AAn?$AAd?$AAo?$AAw?$AAM?$AAe@ 5f4b5a88   winmdi.obj
 0002:00003ad4       ??_C@_1EM@GEBA@?$AAW?$AAa?$AAr?$AAn?$AAi?$AAn?$AAg?$AA?3?$AA?5?$AAf?$AAa?$AAi?$AAl?$AAe?$AAd?$AA?5?$AAt?$AAo?$AA?5?$AAc@ 5f4b5ad4   winmdi.obj
 0002:00003b20       ??_C@_1GI@BAGO@?$AAW?$AAa?$AAr?$AAn?$AAi?$AAn?$AAg?$AA?3?$AA?5?$AAN?$AAo?$AA?5?$AAa?$AAc?$AAt?$AAi?$AAv?$AAe?$AA?5?$AAd@ 5f4b5b20   winmdi.obj
 0002:00003b88       ??_C@_0N@OELH@CToolTipCtrl?$AA@ 5f4b5b88   tooltip.obj
 0002:00003b98       ?messageMap@CToolTipCtrl@@1UAFX_MSGMAP@@B 5f4b5b98   tooltip.obj
 0002:00003ba0       ?_messageEntries@CToolTipCtrl@@0PBUAFX_MSGMAP_ENTRY@@B 5f4b5ba0   tooltip.obj
 0002:00003c00       ?classCToolTipCtrl@CToolTipCtrl@@2UCRuntimeClass@@B 5f4b5c00   tooltip.obj
 0002:00003c1c       ??_7CToolTipCtrl@@6B@      5f4b5c1c   tooltip.obj
 0002:00003cdc       ??_C@_1CC@BIKB@?$AAt?$AAo?$AAo?$AAl?$AAt?$AAi?$AAp?$AAs?$AA_?$AAc?$AAl?$AAa?$AAs?$AAs?$AA3?$AA2?$AA?$AA?$AA?$AA?$AA?$AH?$AA?$AA@ 5f4b5cdc   tooltip.obj
