 MFC42UD

 Timestamp is 31c84135 (Wed Jun 19 11:04:37 1996)

 Preferred load address is 5f400000

 Start         Length     Name                   Class
 0001:00000000 000187dcH .text                   CODE
 0001:000187e0 0000767fH .text$AFX_AUX           CODE
 0001:0001fe60 00008867H .text$AFX_COL1          CODE
 0001:000286d0 00004e43H .text$AFX_COL2          CODE
 0001:0002d520 00016e5eH .text$AFX_CORE1         CODE
 0001:00044380 0000f61cH .text$AFX_CORE2         CODE
 0001:000539a0 00018750H .text$AFX_CORE3         CODE
 0001:0006c0f0 0001524eH .text$AFX_CORE4         CODE
 0001:00081340 00006432H .text$AFX_DBG1          CODE
 0001:00087780 0000ea06H .text$AFX_DBG2          CODE
 0001:00096190 0000caa6H .text$AFX_INIT          CODE
 0001:000a2c40 0000091fH .text$AFX_MAPI          CODE
 0001:000a3560 00007bc7H .text$AFX_PRNT          CODE
 0001:000ab130 00000701H .text$AFX_TERM          CODE
 0001:000ab840 00004e1bH .text$AFX_VDEL          CODE
 0002:00000000 0001072dH .rdata                  DATA
 0002:00010730 00003388H .rdata$r                DATA
 0002:00013ab8 00007008H .xdata$x                DATA
 0002:0001aac0 00004887H .edata                  DATA
 0003:00000000 00000004H .CRT$XCA                DATA
 0003:00000004 0000000cH .CRT$XCC                DATA
 0003:00000010 00000028H .CRT$XCL                DATA
 0003:00000038 00000090H .CRT$XCU                DATA
 0003:000000c8 00000004H .CRT$XCZ                DATA
 0003:000000cc 00000004H .CRT$XIA                DATA
 0003:000000d0 00000004H .CRT$XIZ                DATA
 0003:000000e0 00001e94H .data                   DATA
 0003:00001f78 000021e8H .bss                    DATA
 0004:00000000 00000050H .idata$2                DATA
 0004:00000050 00000014H .idata$3                DATA
 0004:00000064 000009e8H .idata$4                DATA
 0004:00000a4c 000009e8H .idata$5                DATA
 0004:00001434 00002860H .idata$6                DATA
 0005:00000000 00000e98H .rsrc$01                DATA
 0005:00000ea0 000062ecH .rsrc$02                DATA

  Address         Publics by Value              Rva+Base   Lib:Object

 0001:00000000       ?AddHead@?$CTypedSimpleList@PAUCRuntimeClass@@@@QAEXPAUCRuntimeClass@@@Z 5f401000 f objcore.obj
 0001:00000030       ??B?$CTypedSimpleList@PAUCRuntimeClass@@@@QAEPAUCRuntimeClass@@XZ 5f401030 f objcore.obj
 0001:00000050       ?GetHead@CSimpleList@@QBEPAXXZ 5f401050 f objcore.obj
 0001:00000070       ??B?$CTypedSimpleList@PAVCDynLinkLibrary@@@@QAEPAVCDynLinkLibrary@@XZ 5f401070 f objcore.obj
 0001:00000090       ??C?$CThreadLocal@V_AFX_THREAD_STATE@@@@QAEPAV_AFX_THREAD_STATE@@XZ 5f401090 f except.obj
 0001:000000b0       ?GetData@?$CThreadLocal@V_AFX_THREAD_STATE@@@@QAEPAV_AFX_THREAD_STATE@@XZ 5f4010b0 f except.obj
 0001:00000100       ?CreateObject@?$CThreadLocal@V_AFX_THREAD_STATE@@@@SGPAVCNoTrackObject@@XZ 5f401100 f except.obj
 0001:00000190       ??0CArchiveStream@@QAE@PAVCArchive@@@Z 5f401190 f arcstrm.obj
 0001:000001c5       ?AddRef@CArchiveStream@@UAGKXZ 5f4011c5 f arcstrm.obj
 0001:000001dc       ?Release@CArchiveStream@@UAGKXZ 5f4011dc f arcstrm.obj
 0001:000001f0       ?QueryInterface@CArchiveStream@@UAGJABU_GUID@@PAPAX@Z 5f4011f0 f arcstrm.obj
 0001:00000248       ?Read@CArchiveStream@@UAGJPAXKPAK@Z 5f401248 f arcstrm.obj
 0001:00000367       ?Write@CArchiveStream@@UAGJPBXKPAK@Z 5f401367 f arcstrm.obj
 0001:00000489       ?Seek@CArchiveStream@@UAGJT_LARGE_INTEGER@@KPAT_ULARGE_INTEGER@@@Z 5f401489 f arcstrm.obj
 0001:000005c8       ?SetSize@CArchiveStream@@UAGJT_ULARGE_INTEGER@@@Z 5f4015c8 f arcstrm.obj
 0001:000005df       ?CopyTo@CArchiveStream@@UAGJPAUIStream@@T_ULARGE_INTEGER@@PAT3@2@Z 5f4015df f arcstrm.obj
 0001:000005f6       ?Commit@CArchiveStream@@UAGJK@Z 5f4015f6 f arcstrm.obj
 0001:0000060d       ?Revert@CArchiveStream@@UAGJXZ 5f40160d f arcstrm.obj
 0001:00000624       ?LockRegion@CArchiveStream@@UAGJT_ULARGE_INTEGER@@0K@Z 5f401624 f arcstrm.obj
 0001:0000063b       ?UnlockRegion@CArchiveStream@@UAGJT_ULARGE_INTEGER@@0K@Z 5f40163b f arcstrm.obj
 0001:00000652       ?Stat@CArchiveStream@@UAGJPAUtagSTATSTG@@K@Z 5f401652 f arcstrm.obj
 0001:00000669       ?Clone@CArchiveStream@@UAGJPAPAUIStream@@@Z 5f401669 f arcstrm.obj
 0001:00000680       ??0IStream@@QAE@XZ         5f401680 f arcstrm.obj
 0001:000006b0       ??0ISequentialStream@@QAE@XZ 5f4016b0 f arcstrm.obj
 0001:000006e0       ??0IUnknown@@QAE@XZ        5f4016e0 f arcstrm.obj
 0001:00000710       ??8@YAHABU_GUID@@0@Z       5f401710 f arcstrm.obj
 0001:00000750       ??1CNoTrackObject@@UAE@XZ  5f401750 f dumpinit.obj
 0001:00000770       ??_GCNoTrackObject@@UAEPAXI@Z 5f401770 f dumpinit.obj
 0001:00000770       ??_ECNoTrackObject@@UAEPAXI@Z 5f401770 f dumpinit.obj
 0001:000007b0       ?GetData@?$CProcessLocal@V_AFX_DEBUG_STATE@@@@QAEPAV_AFX_DEBUG_STATE@@XZ 5f4017b0 f dumpinit.obj
 0001:00000800       ?CreateObject@?$CProcessLocal@V_AFX_DEBUG_STATE@@@@SGPAVCNoTrackObject@@XZ 5f401800 f dumpinit.obj
 0001:00000890       ??0CNoTrackObject@@QAE@XZ  5f401890 f dumpinit.obj
 0001:000008c0       ?DrawState@@YGHPAUHDC__@@PAUHBRUSH__@@P6GH0JIHH@ZJIHHHHI@Z 5f4018c0 f afxinl2.obj
 0001:00000900       ?GetNextWindow@@YAPAUHWND__@@PAU1@I@Z 5f401900 f afxinl3.obj
 0001:00000920       __wcsinc                   5f401920 f filecore.obj
 0001:00000940       ?T2COLE@@YAPBGPBG@Z        5f401940 f filecore.obj
 0001:00000960       ??0AFX_COM@@QAE@XZ         5f401960 f filecore.obj
 0001:00000990       ?data@CPlex@@QAEPAXXZ      5f401990 f list_o.obj
 0001:000009b0       ?data@CStringData@@QAEPAGXZ 5f4019b0 f strcore.obj
 0001:000009d0       ?wcschr@@YAPAGPAGG@Z       5f4019d0 f strcore.obj
 0001:00000a00       ?wcspbrk@@YAPAGPAGPBG@Z    5f401a00 f strcore.obj
 0001:00000a30       ?wcsrchr@@YAPAGPAGG@Z      5f401a30 f strex.obj
 0001:00000a60       ?wcsstr@@YAPAGPAGPBG@Z     5f401a60 f strex.obj
 0001:00000a90       __tclen                    5f401a90 f strex.obj
 0001:00000ab0       ?Construct@CSimpleList@@QAEXH@Z 5f401ab0 f afxstate.obj
 0001:00000b00       ?GetData@?$CProcessLocal@V_AFX_BASE_MODULE_STATE@@@@QAEPAV_AFX_BASE_MODULE_STATE@@XZ 5f401b00 f afxstate.obj
 0001:00000b50       ?CreateObject@?$CProcessLocal@V_AFX_BASE_MODULE_STATE@@@@SGPAVCNoTrackObject@@XZ 5f401b50 f afxstate.obj
 0001:00000be0       ??0_AFX_BASE_MODULE_STATE@@QAE@XZ 5f401be0 f afxstate.obj
 0001:00000c60       ??0CTypeLibCache@@QAE@XZ   5f401c60 f afxstate.obj
 0001:00000cb0       ??0?$CTypedSimpleList@PAVCFrameWnd@@@@QAE@H@Z 5f401cb0 f afxstate.obj
 0001:00000ce0       ??0CSimpleList@@QAE@H@Z    5f401ce0 f afxstate.obj
 0001:00000d10       ??0?$CTypedSimpleList@PAUCRuntimeClass@@@@QAE@H@Z 5f401d10 f afxstate.obj
 0001:00000d40       ??0?$CTypedSimpleList@PAVCOleObjectFactory@@@@QAE@H@Z 5f401d40 f afxstate.obj
 0001:00000d70       ??0?$CTypedSimpleList@PAVCDynLinkLibrary@@@@QAE@H@Z 5f401d70 f afxstate.obj
 0001:00000da0       ??0?$CTypedSimpleList@PAVCOleControlLock@@@@QAE@H@Z 5f401da0 f afxstate.obj
 0001:00000dd0       ?GetData@?$CThreadLocal@VAFX_MODULE_THREAD_STATE@@@@QAEPAVAFX_MODULE_THREAD_STATE@@XZ 5f401dd0 f afxstate.obj
 0001:00000e20       ?CreateObject@?$CThreadLocal@VAFX_MODULE_THREAD_STATE@@@@SGPAVCNoTrackObject@@XZ 5f401e20 f afxstate.obj
 0001:00000eb0       ??B?$CThreadLocal@V_AFX_THREAD_STATE@@@@QAEPAV_AFX_THREAD_STATE@@XZ 5f401eb0 f afxstate.obj
 0001:00000ed0       ??1CHandleMap@@QAE@XZ      5f401ed0 f afxstate.obj
 0001:00000f50       ??2@YAPAXIPAX@Z            5f401f50 f afxstate.obj
 0001:00000f70       ?GetNextPtr@CSimpleList@@QBEPAPAXPAX@Z 5f401f70 f afxtls.obj
 0001:00000fb0       ??0?$CTypedSimpleList@PAUCThreadData@@@@QAE@H@Z 5f401fb0 f afxtls.obj
 0001:00000fe0       ?AddHead@?$CTypedSimpleList@PAUCThreadData@@@@QAEXPAUCThreadData@@@Z 5f401fe0 f afxtls.obj
 0001:00001010       ??B?$CTypedSimpleList@PAUCThreadData@@@@QAEPAUCThreadData@@XZ 5f402010 f afxtls.obj
 0001:00001030       ?Remove@?$CTypedSimpleList@PAUCThreadData@@@@QAEHPAUCThreadData@@@Z 5f402030 f afxtls.obj
 0001:00001060       ??2CThreadSlotData@@SGPAXIPAX@Z 5f402060 f afxtls.obj
 0001:00001080       ??0CSyncObject@@QAE@PBG@Z  5f402080 f mtcore.obj
 0001:00001125       ??1CSyncObject@@UAE@XZ     5f402125 f mtcore.obj
 0001:000011ca       ?Lock@CSyncObject@@UAEHK@Z 5f4021ca f mtcore.obj
 0001:0000120c       ?Dump@CSyncObject@@UBEXAAVCDumpContext@@@Z 5f40220c f mtcore.obj
 0001:00001272       ?AssertValid@CSyncObject@@UBEXXZ 5f402272 f mtcore.obj
 0001:00001290       ??BCSyncObject@@QBEPAXXZ   5f402290 f mtcore.obj
 0001:000012ac       ?Unlock@CSemaphore@@UAEHXZ 5f4022ac f mtcore.obj
 0001:000012d1       ?SetEvent@CEvent@@QAEHXZ   5f4022d1 f mtcore.obj
 0001:00001316       ?PulseEvent@CEvent@@QAEHXZ 5f402316 f mtcore.obj
 0001:0000135b       ?ResetEvent@CEvent@@QAEHXZ 5f40235b f mtcore.obj
 0001:000013a0       ??1CSingleLock@@QAE@XZ     5f4023a0 f mtcore.obj
 0001:000013be       ?IsLocked@CSingleLock@@QAEHXZ 5f4023be f mtcore.obj
 0001:000013da       ?IsLocked@CMultiLock@@QAEHK@Z 5f4023da f mtcore.obj
 0001:0000142c       ??0CCriticalSection@@QAE@XZ 5f40242c f mtcore.obj
 0001:000014aa       ??BCCriticalSection@@QAEPAU_RTL_CRITICAL_SECTION@@XZ 5f4024aa f mtcore.obj
 0001:000014c6       ??1CCriticalSection@@UAE@XZ 5f4024c6 f mtcore.obj
 0001:0000153b       ?Lock@CCriticalSection@@QAEHXZ 5f40253b f mtcore.obj
 0001:00001563       ?Lock@CCriticalSection@@UAEHK@Z 5f402563 f mtcore.obj
 0001:00001583       ?Unlock@CCriticalSection@@UAEHXZ 5f402583 f mtcore.obj
 0001:000015b0       ??_GCSyncObject@@UAEPAXI@Z 5f4025b0 f mtcore.obj
 0001:000015b0       ??_ECSyncObject@@UAEPAXI@Z 5f4025b0 f mtcore.obj
 0001:000015f0       ??_GCCriticalSection@@UAEPAXI@Z 5f4025f0 f mtcore.obj
 0001:00001630       ?Unlock@CSyncObject@@UAEHJPAJ@Z 5f402630 f mtcore.obj
 0001:00001650       ??0CSemaphore@@QAE@JJPBGPAU_SECURITY_ATTRIBUTES@@@Z 5f402650 f mtex.obj
 0001:00001733       ??1CSemaphore@@UAE@XZ      5f402733 f mtex.obj
 0001:0000179b       ?Unlock@CSemaphore@@UAEHJPAJ@Z 5f40279b f mtex.obj
 0001:000017c8       ??0CMutex@@QAE@HPBGPAU_SECURITY_ATTRIBUTES@@@Z 5f4027c8 f mtex.obj
 0001:00001867       ??1CMutex@@UAE@XZ          5f402867 f mtex.obj
 0001:000018cf       ?Unlock@CMutex@@UAEHXZ     5f4028cf f mtex.obj
 0001:000018f2       ??0CEvent@@QAE@HHPBGPAU_SECURITY_ATTRIBUTES@@@Z 5f4028f2 f mtex.obj
 0001:00001995       ??1CEvent@@UAE@XZ          5f402995 f mtex.obj
 0001:000019fd       ?Unlock@CEvent@@UAEHXZ     5f4029fd f mtex.obj
 0001:00001a18       ??0CSingleLock@@QAE@PAVCSyncObject@@H@Z 5f402a18 f mtex.obj
 0001:00001aae       ?Lock@CSingleLock@@QAEHK@Z 5f402aae f mtex.obj
 0001:00001b35       ?Unlock@CSingleLock@@QAEHXZ 5f402b35 f mtex.obj
 0001:00001bc2       ?Unlock@CSingleLock@@QAEHJPAJ@Z 5f402bc2 f mtex.obj
 0001:00001c59       ??0CMultiLock@@QAE@QAPAVCSyncObject@@KH@Z 5f402c59 f mtex.obj
 0001:00001e21       ??1CMultiLock@@QAE@XZ      5f402e21 f mtex.obj
 0001:00001e84       ?Lock@CMultiLock@@QAEKKHK@Z 5f402e84 f mtex.obj
 0001:00001f7d       ?Unlock@CMultiLock@@QAEHXZ 5f402f7d f mtex.obj
 0001:00002018       ?Unlock@CMultiLock@@QAEHJPAJ@Z 5f403018 f mtex.obj
 0001:000020f0       ??_GCSemaphore@@UAEPAXI@Z  5f4030f0 f mtex.obj
 0001:00002130       ??_GCMutex@@UAEPAXI@Z      5f403130 f mtex.obj
 0001:00002170       ??_GCEvent@@UAEPAXI@Z      5f403170 f mtex.obj
 0001:000021b0       ??B?$CProcessLocal@V_AFX_WIN_STATE@@@@QAEPAV_AFX_WIN_STATE@@XZ 5f4031b0 f wincore.obj
 0001:000021d0       ?GetData@?$CProcessLocal@V_AFX_WIN_STATE@@@@QAEPAV_AFX_WIN_STATE@@XZ 5f4031d0 f wincore.obj
 0001:00002220       ?CreateObject@?$CProcessLocal@V_AFX_WIN_STATE@@@@SGPAVCNoTrackObject@@XZ 5f403220 f wincore.obj
 0001:000022b0       ?GetDataNA@?$CProcessLocal@V_AFX_CTL3D_STATE@@@@QAEPAV_AFX_CTL3D_STATE@@XZ 5f4032b0 f wincore.obj
 0001:000022d0       ?LookupPermanent@CHandleMap@@QAEPAVCObject@@PAX@Z 5f4032d0 f wincore.obj
 0001:00002300       ?LookupTemporary@CHandleMap@@QAEPAVCObject@@PAX@Z 5f403300 f wincore.obj
 0001:00002330       ??B?$CProcessLocal@V_AFX_CTL3D_STATE@@@@QAEPAV_AFX_CTL3D_STATE@@XZ 5f403330 f wincore.obj
 0001:00002350       ?GetData@?$CProcessLocal@V_AFX_CTL3D_STATE@@@@QAEPAV_AFX_CTL3D_STATE@@XZ 5f403350 f wincore.obj
 0001:000023a0       ?CreateObject@?$CProcessLocal@V_AFX_CTL3D_STATE@@@@SGPAVCNoTrackObject@@XZ 5f4033a0 f wincore.obj
 0001:00002430       ??0_AFX_CTL3D_STATE@@QAE@XZ 5f403430 f wincore.obj
 0001:000024a0       ??_G_AFX_CTL3D_STATE@@UAEPAXI@Z 5f4034a0 f wincore.obj
 0001:000024a0       ??_E_AFX_CTL3D_STATE@@UAEPAXI@Z 5f4034a0 f wincore.obj
 0001:000024e0       ?UnlockResource@@YGHPAX@Z  5f4034e0 f wincore.obj
 0001:00002500       ?AddHead@?$CTypedSimpleList@PAVCFrameWnd@@@@QAEXPAVCFrameWnd@@@Z 5f403500 f winfrm.obj
 0001:00002530       ?Remove@?$CTypedSimpleList@PAVCFrameWnd@@@@QAEHPAVCFrameWnd@@@Z 5f403530 f winfrm.obj
 0001:00002560       ??B?$CThreadLocal@VAFX_MODULE_THREAD_STATE@@@@QAEPAVAFX_MODULE_THREAD_STATE@@XZ 5f403560 f winfrm.obj
 0001:00002580       ?GetWindowTask@@YAPAUHTASK__@@PAUHWND__@@@Z 5f403580 f winfrmx.obj
 0001:000025a0       ?_GetBaseMessageMap@CToolTipCtrl@@KGPBUAFX_MSGMAP@@XZ 5f4035a0 f tooltip.obj
 0001:000025b5       ?GetMessageMap@CToolTipCtrl@@MBEPBUAFX_MSGMAP@@XZ 5f4035b5 f tooltip.obj
 0001:000025d0       ??0CToolTipCtrl@@QAE@XZ    5f4035d0 f tooltip.obj
 0001:0000265c       ?Create@CToolTipCtrl@@QAEHPAVCWnd@@K@Z 5f40365c f tooltip.obj
 0001:000026cb       ??1CToolTipCtrl@@UAE@XZ    5f4036cb f tooltip.obj
 0001:00002754       ?DestroyToolTipCtrl@CToolTipCtrl@@QAEHXZ 5f403754 f tooltip.obj
 0001:000027ce       ?OnAddTool@CToolTipCtrl@@IAEJIJ@Z 5f4037ce f tooltip.obj
 0001:00002888       ?OnDisableModal@CToolTipCtrl@@IAEJIJ@Z 5f403888 f tooltip.obj
 0001:000028b3       ?OnWindowFromPoint@CToolTipCtrl@@IAEJIJ@Z 5f4038b3 f tooltip.obj
 0001:00002999       ?AddTool@CToolTipCtrl@@QAEHPAVCWnd@@PBGPBUtagRECT@@I@Z 5f403999 f tooltip.obj
 0001:00002aa4       ?AddTool@CToolTipCtrl@@QAEHPAVCWnd@@IPBUtagRECT@@I@Z 5f403aa4 f tooltip.obj
 0001:00002bf7       ?DelTool@CToolTipCtrl@@QAEXPAVCWnd@@I@Z 5f403bf7 f tooltip.obj
 0001:00002c8a       ?GetText@CToolTipCtrl@@QBEXAAVCString@@PAVCWnd@@I@Z 5f403c8a f tooltip.obj
 0001:00002d37       ?GetToolInfo@CToolTipCtrl@@QBEHAAVCToolInfo@@PAVCWnd@@I@Z 5f403d37 f tooltip.obj
 0001:00002dd6       ?HitTest@CToolTipCtrl@@QBEHPAVCWnd@@VCPoint@@PAUtagTOOLINFOW@@@Z 5f403dd6 f tooltip.obj
 0001:00002ecb       ?SetToolRect@CToolTipCtrl@@QAEXPAVCWnd@@IPBUtagRECT@@@Z 5f403ecb f tooltip.obj
 0001:00002f92       ?UpdateTipText@CToolTipCtrl@@QAEXPBGPAVCWnd@@I@Z 5f403f92 f tooltip.obj
 0001:0000302b       ?UpdateTipText@CToolTipCtrl@@QAEXIPAVCWnd@@I@Z 5f40402b f tooltip.obj
 0001:000030f6       ?FillInToolInfo@CToolTipCtrl@@QBEXAAUtagTOOLINFOW@@PAVCWnd@@I@Z 5f4040f6 f tooltip.obj
 0001:00003180       ?EnableToolTips@CWnd@@QAEHH@Z 5f404180 f tooltip.obj
 0001:00003279       ?_FilterToolTipMessage@CWnd@@SGXPAUtagMSG@@PAV1@@Z 5f404279 f tooltip.obj
 0001:00003297       ?FilterToolTipMessage@CWnd@@QAEXPAUtagMSG@@@Z 5f404297 f tooltip.obj
 0001:000038b0       ??_GCToolTipCtrl@@UAEPAXI@Z 5f4048b0 f tooltip.obj
 0001:000038f0       ??1_AFX_WINMINI_TERM@@QAE@XZ 5f4048f0 f winmini.obj
 0001:00003920       ?items@CToolBarData@@QAEPAGXZ 5f404920 f bartool.obj
 0001:00003940       ??1_AFX_TRACKER_TERM@@QAE@XZ 5f404940 f trckrect.obj
 0001:00003970       ??1CDragListBox@@UAE@XZ    5f404970 f winctrl2.obj
 0001:000039e0       ?PreSubclassWindow@CDragListBox@@UAEXXZ 5f4049e0 f winctrl2.obj
 0001:00003a52       ?BeginDrag@CDragListBox@@UAEHVCPoint@@@Z 5f404a52 f winctrl2.obj
 0001:00003a9a       ?CancelDrag@CDragListBox@@UAEXVCPoint@@@Z 5f404a9a f winctrl2.obj
 0001:00003ac2       ?Dragging@CDragListBox@@UAEIVCPoint@@@Z 5f404ac2 f winctrl2.obj
 0001:00003b2c       ?Dropped@CDragListBox@@UAEXHVCPoint@@@Z 5f404b2c f winctrl2.obj
 0001:00003c8f       ?DrawInsert@CDragListBox@@UAEXH@Z 5f404c8f f winctrl2.obj
 0001:00003cda       ?DrawSingle@CDragListBox@@QAEXH@Z 5f404cda f winctrl2.obj
 0001:00003df7       ?OnChildNotify@CDragListBox@@MAEHIIJPAJ@Z 5f404df7 f winctrl2.obj
 0001:00003f92       ?_GetBaseMessageMap@CToolBarCtrl@@KGPBUAFX_MSGMAP@@XZ 5f404f92 f winctrl2.obj
 0001:00003fa7       ?GetMessageMap@CToolBarCtrl@@MBEPBUAFX_MSGMAP@@XZ 5f404fa7 f winctrl2.obj
 0001:00003fc2       ?Create@CToolBarCtrl@@QAEHKABUtagRECT@@PAVCWnd@@I@Z 5f404fc2 f winctrl2.obj
 0001:0000404d       ??1CToolBarCtrl@@UAE@XZ    5f40504d f winctrl2.obj
 0001:000040bd       ?AddBitmap@CToolBarCtrl@@QAEHHPAVCBitmap@@@Z 5f4050bd f winctrl2.obj
 0001:0000412e       ?AddBitmap@CToolBarCtrl@@QAEHHI@Z 5f40512e f winctrl2.obj
 0001:000041d4       ?SaveState@CToolBarCtrl@@QAEXPAUHKEY__@@PBG1@Z 5f4051d4 f winctrl2.obj
 0001:00004243       ?RestoreState@CToolBarCtrl@@QAEXPAUHKEY__@@PBG1@Z 5f405243 f winctrl2.obj
 0001:000042b2       ?AddString@CToolBarCtrl@@QAEHI@Z 5f4052b2 f winctrl2.obj
 0001:00004359       ?OnCreate@CToolBarCtrl@@IAEHPAUtagCREATESTRUCTW@@@Z 5f405359 f winctrl2.obj
 0001:0000439c       ?Create@CStatusBarCtrl@@QAEHKABUtagRECT@@PAVCWnd@@I@Z 5f40539c f winctrl2.obj
 0001:00004427       ??1CStatusBarCtrl@@UAE@XZ  5f405427 f winctrl2.obj
 0001:00004497       ?GetText@CStatusBarCtrl@@QBEHPBGHPAH@Z 5f405497 f winctrl2.obj
 0001:00004543       ?GetText@CStatusBarCtrl@@QBE?AVCString@@HPAH@Z 5f405543 f winctrl2.obj
 0001:00004690       ?GetTextLength@CStatusBarCtrl@@QBEHHPAH@Z 5f405690 f winctrl2.obj
 0001:0000473a       ?GetBorders@CStatusBarCtrl@@QBEHAAH00@Z 5f40573a f winctrl2.obj
 0001:000047bf       ?DrawItem@CStatusBarCtrl@@UAEXPAUtagDRAWITEMSTRUCT@@@Z 5f4057bf f winctrl2.obj
 0001:000047ef       ?OnChildNotify@CStatusBarCtrl@@MAEHIIJPAJ@Z 5f4057ef f winctrl2.obj
 0001:00004867       ?_GetBaseMessageMap@CListCtrl@@KGPBUAFX_MSGMAP@@XZ 5f405867 f winctrl2.obj
 0001:0000487c       ?GetMessageMap@CListCtrl@@MBEPBUAFX_MSGMAP@@XZ 5f40587c f winctrl2.obj
 0001:00004897       ?Create@CListCtrl@@QAEHKABUtagRECT@@PAVCWnd@@I@Z 5f405897 f winctrl2.obj
 0001:00004922       ??1CListCtrl@@UAE@XZ       5f405922 f winctrl2.obj
 0001:00004992       ?GetItemRect@CListCtrl@@QBEHHPAUtagRECT@@I@Z 5f405992 f winctrl2.obj
 0001:000049f9       ?InsertColumn@CListCtrl@@QAEHHPBGHHH@Z 5f4059f9 f winctrl2.obj
 0001:00004a5c       ?InsertItem@CListCtrl@@QAEHIHPBGIIHJ@Z 5f405a5c f winctrl2.obj
 0001:00004ade       ?HitTest@CListCtrl@@QBEHVCPoint@@PAI@Z 5f405ade f winctrl2.obj
 0001:00004b5f       ?SetItem@CListCtrl@@QAEHHHIPBGHIIJ@Z 5f405b5f f winctrl2.obj
 0001:00004bec       ?GetItemText@CListCtrl@@QBE?AVCString@@HH@Z 5f405bec f winctrl2.obj
 0001:00004d12       ?GetItemText@CListCtrl@@QBEHHHPAGH@Z 5f405d12 f winctrl2.obj
 0001:00004d93       ?GetItemData@CListCtrl@@QBEKH@Z 5f405d93 f winctrl2.obj
 0001:00004e30       ?DrawItem@CListCtrl@@UAEXPAUtagDRAWITEMSTRUCT@@@Z 5f405e30 f winctrl2.obj
 0001:00004e60       ?OnChildNotify@CListCtrl@@MAEHIIJPAJ@Z 5f405e60 f winctrl2.obj
 0001:00004ed8       ?RemoveImageList@CListCtrl@@IAEXH@Z 5f405ed8 f winctrl2.obj
 0001:00004f2a       ?OnNcDestroy@CListCtrl@@IAEXXZ 5f405f2a f winctrl2.obj
 0001:00004f66       ?CreateDragImage@CListCtrl@@QAEPAVCImageList@@HPAUtagPOINT@@@Z 5f405f66 f winctrl2.obj
 0001:0000503d       ?_GetBaseMessageMap@CTreeCtrl@@KGPBUAFX_MSGMAP@@XZ 5f40603d f winctrl2.obj
 0001:00005052       ?GetMessageMap@CTreeCtrl@@MBEPBUAFX_MSGMAP@@XZ 5f406052 f winctrl2.obj
 0001:0000506d       ?Create@CTreeCtrl@@QAEHKABUtagRECT@@PAVCWnd@@I@Z 5f40606d f winctrl2.obj
 0001:000050f8       ??1CTreeCtrl@@UAE@XZ       5f4060f8 f winctrl2.obj
 0001:00005168       ?GetItemRect@CTreeCtrl@@QBEHPAU_TREEITEM@@PAUtagRECT@@H@Z 5f406168 f winctrl2.obj
 0001:000051cf       ?GetItemText@CTreeCtrl@@QBE?AVCString@@PAU_TREEITEM@@@Z 5f4061cf f winctrl2.obj
 0001:000052f4       ?GetItemImage@CTreeCtrl@@QBEHPAU_TREEITEM@@AAH1@Z 5f4062f4 f winctrl2.obj
 0001:0000537e       ?GetItemState@CTreeCtrl@@QBEIPAU_TREEITEM@@I@Z 5f40637e f winctrl2.obj
 0001:00005418       ?GetItemData@CTreeCtrl@@QBEKPAU_TREEITEM@@@Z 5f406418 f winctrl2.obj
 0001:000054a5       ?ItemHasChildren@CTreeCtrl@@QBEHPAU_TREEITEM@@@Z 5f4064a5 f winctrl2.obj
 0001:00005512       ?SetItem@CTreeCtrl@@QAEHPAU_TREEITEM@@IPBGHHIIJ@Z 5f406512 f winctrl2.obj
 0001:0000559f       ?InsertItem@CTreeCtrl@@QAEPAU_TREEITEM@@IPBGHHIIJPAU2@1@Z 5f40659f f winctrl2.obj
 0001:00005632       ?HitTest@CTreeCtrl@@QBEPAU_TREEITEM@@VCPoint@@PAI@Z 5f406632 f winctrl2.obj
 0001:000056b3       ?RemoveImageList@CTreeCtrl@@IAEXH@Z 5f4066b3 f winctrl2.obj
 0001:00005705       ?OnDestroy@CTreeCtrl@@QAEXXZ 5f406705 f winctrl2.obj
 0001:00005737       ?CreateDragImage@CTreeCtrl@@QAEPAVCImageList@@PAU_TREEITEM@@@Z 5f406737 f winctrl2.obj
 0001:0000580c       ?Create@CSpinButtonCtrl@@QAEHKABUtagRECT@@PAVCWnd@@I@Z 5f40680c f winctrl2.obj
 0001:00005897       ??1CSpinButtonCtrl@@UAE@XZ 5f406897 f winctrl2.obj
 0001:00005907       ?GetRange@CSpinButtonCtrl@@QBEXAAH0@Z 5f406907 f winctrl2.obj
 0001:00005981       ?Create@CSliderCtrl@@QAEHKABUtagRECT@@PAVCWnd@@I@Z 5f406981 f winctrl2.obj
 0001:00005a0c       ??1CSliderCtrl@@UAE@XZ     5f406a0c f winctrl2.obj
 0001:00005a7c       ?GetRange@CSliderCtrl@@QBEXAAH0@Z 5f406a7c f winctrl2.obj
 0001:00005adb       ?SetRange@CSliderCtrl@@QAEXHHH@Z 5f406adb f winctrl2.obj
 0001:00005b13       ?GetSelection@CSliderCtrl@@QBEXAAH0@Z 5f406b13 f winctrl2.obj
 0001:00005b8e       ?SetSelection@CSliderCtrl@@QAEXHH@Z 5f406b8e f winctrl2.obj
 0001:00005c03       ?Create@CProgressCtrl@@QAEHKABUtagRECT@@PAVCWnd@@I@Z 5f406c03 f winctrl2.obj
 0001:00005c8e       ??1CProgressCtrl@@UAE@XZ   5f406c8e f winctrl2.obj
 0001:00005cfe       ?Create@CHeaderCtrl@@QAEHKABUtagRECT@@PAVCWnd@@I@Z 5f406cfe f winctrl2.obj
 0001:00005d89       ??1CHeaderCtrl@@UAE@XZ     5f406d89 f winctrl2.obj
 0001:00005df9       ?DrawItem@CHeaderCtrl@@UAEXPAUtagDRAWITEMSTRUCT@@@Z 5f406df9 f winctrl2.obj
 0001:00005e29       ?OnChildNotify@CHeaderCtrl@@MAEHIIJPAJ@Z 5f406e29 f winctrl2.obj
 0001:00005ea1       ?Create@CHotKeyCtrl@@QAEHKABUtagRECT@@PAVCWnd@@I@Z 5f406ea1 f winctrl2.obj
 0001:00005f2c       ??1CHotKeyCtrl@@UAE@XZ     5f406f2c f winctrl2.obj
 0001:00005f9c       ?GetHotKey@CHotKeyCtrl@@QBEXAAG0@Z 5f406f9c f winctrl2.obj
 0001:00006010       ?_GetBaseMessageMap@CTabCtrl@@KGPBUAFX_MSGMAP@@XZ 5f407010 f winctrl2.obj
 0001:00006025       ?GetMessageMap@CTabCtrl@@MBEPBUAFX_MSGMAP@@XZ 5f407025 f winctrl2.obj
 0001:00006040       ?Create@CTabCtrl@@QAEHKABUtagRECT@@PAVCWnd@@I@Z 5f407040 f winctrl2.obj
 0001:000060cb       ??1CTabCtrl@@UAE@XZ        5f4070cb f winctrl2.obj
 0001:0000613b       ?DrawItem@CTabCtrl@@UAEXPAUtagDRAWITEMSTRUCT@@@Z 5f40713b f winctrl2.obj
 0001:0000616b       ?OnChildNotify@CTabCtrl@@MAEHIIJPAJ@Z 5f40716b f winctrl2.obj
 0001:000061e3       ?OnDestroy@CTabCtrl@@IAEXXZ 5f4071e3 f winctrl2.obj
 0001:00006237       ?Create@CAnimateCtrl@@QAEHKABUtagRECT@@PAVCWnd@@I@Z 5f407237 f winctrl2.obj
 0001:000062c2       ??1CAnimateCtrl@@UAE@XZ    5f4072c2 f winctrl2.obj
 0001:00006332       ??1CRichEditCtrl@@UAE@XZ   5f407332 f winctrl2.obj
 0001:000063a2       ??0CImageList@@QAE@XZ      5f4073a2 f winctrl2.obj
 0001:0000641b       ??1CImageList@@UAE@XZ      5f40741b f winctrl2.obj
 0001:0000648b       ?Detach@CImageList@@QAEPAU_IMAGELIST@@XZ 5f40748b f winctrl2.obj
 0001:0000658f       ?DeleteImageList@CImageList@@QAEHXZ 5f40758f f winctrl2.obj
 0001:000065c8       ?DeleteTempMap@CImageList@@SGXXZ 5f4075c8 f winctrl2.obj
 0001:000065fa       ?FromHandle@CImageList@@SGPAV1@PAU_IMAGELIST@@@Z 5f4075fa f winctrl2.obj
 0001:00006681       ?FromHandlePermanent@CImageList@@SGPAV1@PAU_IMAGELIST@@@Z 5f407681 f winctrl2.obj
 0001:000066f7       ?Create@CImageList@@QAEHHHIHH@Z 5f4076f7 f winctrl2.obj
 0001:00006732       ?Create@CImageList@@QAEHIHHK@Z 5f407732 f winctrl2.obj
 0001:000067a7       ?Create@CImageList@@QAEHPBGHHK@Z 5f4077a7 f winctrl2.obj
 0001:000067ee       ?Create@CImageList@@QAEHAAV1@H0HHH@Z 5f4077ee f winctrl2.obj
 0001:00006833       ?Attach@CImageList@@QAEHPAU_IMAGELIST@@@Z 5f407833 f winctrl2.obj
 0001:000068fa       ?Read@CImageList@@QAEHPAVCArchive@@@Z 5f4078fa f winctrl2.obj
 0001:000069b6       ?Write@CImageList@@QAEHPAVCArchive@@@Z 5f4079b6 f winctrl2.obj
 0001:00006a5a       ?Dump@CImageList@@UBEXAAVCDumpContext@@@Z 5f407a5a f winctrl2.obj
 0001:00006aa6       ?AssertValid@CImageList@@UBEXXZ 5f407aa6 f winctrl2.obj
 0001:00006b79       ??0CDragListBox@@QAE@XZ    5f407b79 f winctrl2.obj
 0001:00006bf2       ?ItemFromPt@CDragListBox@@QBEHVCPoint@@H@Z 5f407bf2 f winctrl2.obj
 0001:00006c4d       ??0CToolBarCtrl@@QAE@XZ    5f407c4d f winctrl2.obj
 0001:00006cbc       ?EnableButton@CToolBarCtrl@@QAEHHH@Z 5f407cbc f winctrl2.obj
 0001:00006d1d       ?CheckButton@CToolBarCtrl@@QAEHHH@Z 5f407d1d f winctrl2.obj
 0001:00006d7e       ?PressButton@CToolBarCtrl@@QAEHHH@Z 5f407d7e f winctrl2.obj
 0001:00006ddf       ?HideButton@CToolBarCtrl@@QAEHHH@Z 5f407ddf f winctrl2.obj
 0001:00006e40       ?Indeterminate@CToolBarCtrl@@QAEHHH@Z 5f407e40 f winctrl2.obj
 0001:00006ea1       ?IsButtonEnabled@CToolBarCtrl@@QBEHH@Z 5f407ea1 f winctrl2.obj
 0001:00006efb       ?IsButtonChecked@CToolBarCtrl@@QBEHH@Z 5f407efb f winctrl2.obj
 0001:00006f55       ?IsButtonPressed@CToolBarCtrl@@QBEHH@Z 5f407f55 f winctrl2.obj
 0001:00006faf       ?IsButtonHidden@CToolBarCtrl@@QBEHH@Z 5f407faf f winctrl2.obj
 0001:00007009       ?IsButtonIndeterminate@CToolBarCtrl@@QBEHH@Z 5f408009 f winctrl2.obj
 0001:00007063       ?SetState@CToolBarCtrl@@QAEHHI@Z 5f408063 f winctrl2.obj
 0001:000070c4       ?GetState@CToolBarCtrl@@QBEHH@Z 5f4080c4 f winctrl2.obj
 0001:0000711e       ?AddButtons@CToolBarCtrl@@QAEHHPAU_TBBUTTON@@@Z 5f40811e f winctrl2.obj
 0001:0000717a       ?InsertButton@CToolBarCtrl@@QAEHHPAU_TBBUTTON@@@Z 5f40817a f winctrl2.obj
 0001:000071d6       ?DeleteButton@CToolBarCtrl@@QAEHH@Z 5f4081d6 f winctrl2.obj
 0001:00007230       ?GetButton@CToolBarCtrl@@QBEHHPAU_TBBUTTON@@@Z 5f408230 f winctrl2.obj
 0001:0000728c       ?GetButtonCount@CToolBarCtrl@@QBEHXZ 5f40828c f winctrl2.obj
 0001:000072e2       ?CommandToIndex@CToolBarCtrl@@QBEII@Z 5f4082e2 f winctrl2.obj
 0001:0000733c       ?Customize@CToolBarCtrl@@QAEXXZ 5f40833c f winctrl2.obj
 0001:00007392       ?AddStrings@CToolBarCtrl@@QAEHPBG@Z 5f408392 f winctrl2.obj
 0001:000073ec       ?GetItemRect@CToolBarCtrl@@QBEHHPAUtagRECT@@@Z 5f4083ec f winctrl2.obj
 0001:00007448       ?SetButtonStructSize@CToolBarCtrl@@QAEXH@Z 5f408448 f winctrl2.obj
 0001:000074a2       ?SetButtonSize@CToolBarCtrl@@QAEHVCSize@@@Z 5f4084a2 f winctrl2.obj
 0001:0000750f       ?SetBitmapSize@CToolBarCtrl@@QAEHVCSize@@@Z 5f40850f f winctrl2.obj
 0001:0000757c       ?AutoSize@CToolBarCtrl@@QAEXXZ 5f40857c f winctrl2.obj
 0001:000075d2       ?GetToolTips@CToolBarCtrl@@QBEPAVCToolTipCtrl@@XZ 5f4085d2 f winctrl2.obj
 0001:0000762e       ?SetToolTips@CToolBarCtrl@@QAEXPAVCToolTipCtrl@@@Z 5f40862e f winctrl2.obj
 0001:0000768b       ?SetOwner@CToolBarCtrl@@QAEXPAVCWnd@@@Z 5f40868b f winctrl2.obj
 0001:000076e8       ?SetRows@CToolBarCtrl@@QAEXHHPAUtagRECT@@@Z 5f4086e8 f winctrl2.obj
 0001:00007757       ?GetRows@CToolBarCtrl@@QBEHXZ 5f408757 f winctrl2.obj
 0001:000077ad       ?SetCmdID@CToolBarCtrl@@QAEHHI@Z 5f4087ad f winctrl2.obj
 0001:00007809       ?GetBitmapFlags@CToolBarCtrl@@QBEIXZ 5f408809 f winctrl2.obj
 0001:0000785f       ??0CStatusBarCtrl@@QAE@XZ  5f40885f f winctrl2.obj
 0001:000078ce       ?SetText@CStatusBarCtrl@@QAEHPBGHH@Z 5f4088ce f winctrl2.obj
 0001:0000794f       ?SetParts@CStatusBarCtrl@@QAEHHPAH@Z 5f40894f f winctrl2.obj
 0001:000079ab       ?GetParts@CStatusBarCtrl@@QBEHHPAH@Z 5f4089ab f winctrl2.obj
 0001:00007a07       ?GetBorders@CStatusBarCtrl@@QBEHPAH@Z 5f408a07 f winctrl2.obj
 0001:00007a61       ?SetMinHeight@CStatusBarCtrl@@QAEXH@Z 5f408a61 f winctrl2.obj
 0001:00007abb       ?SetSimple@CStatusBarCtrl@@QAEHH@Z 5f408abb f winctrl2.obj
 0001:00007b15       ?GetRect@CStatusBarCtrl@@QBEHHPAUtagRECT@@@Z 5f408b15 f winctrl2.obj
 0001:00007b71       ??0CListCtrl@@QAE@XZ       5f408b71 f winctrl2.obj
 0001:00007be0       ?GetBkColor@CListCtrl@@QBEKXZ 5f408be0 f winctrl2.obj
 0001:00007c36       ?SetBkColor@CListCtrl@@QAEHK@Z 5f408c36 f winctrl2.obj
 0001:00007c90       ?GetImageList@CListCtrl@@QBEPAVCImageList@@H@Z 5f408c90 f winctrl2.obj
 0001:00007cf0       ?SetImageList@CListCtrl@@QAEPAVCImageList@@PAV2@H@Z 5f408cf0 f winctrl2.obj
 0001:00007d57       ?GetItemCount@CListCtrl@@QBEHXZ 5f408d57 f winctrl2.obj
 0001:00007dad       ?GetItem@CListCtrl@@QBEHPAUtagLVITEMW@@@Z 5f408dad f winctrl2.obj
 0001:00007e07       ?SetItem@CListCtrl@@QAEHPBUtagLVITEMW@@@Z 5f408e07 f winctrl2.obj
 0001:00007e61       ?SetItemState@CListCtrl@@QAEHHII@Z 5f408e61 f winctrl2.obj
 0001:00007ec4       ?SetItemText@CListCtrl@@QAEHHHPBG@Z 5f408ec4 f winctrl2.obj
 0001:00007f27       ?SetItemData@CListCtrl@@QAEHHK@Z 5f408f27 f winctrl2.obj
 0001:00007f88       ?InsertItem@CListCtrl@@QAEHPBUtagLVITEMW@@@Z 5f408f88 f winctrl2.obj
 0001:00007fe5       ?InsertItem@CListCtrl@@QAEHHPBG@Z 5f408fe5 f winctrl2.obj
 0001:00008044       ?InsertItem@CListCtrl@@QAEHHPBGH@Z 5f409044 f winctrl2.obj
 0001:000080a5       ?DeleteItem@CListCtrl@@QAEHH@Z 5f4090a5 f winctrl2.obj
 0001:00008102       ?DeleteAllItems@CListCtrl@@QAEHXZ 5f409102 f winctrl2.obj
 0001:0000815b       ?GetCallbackMask@CListCtrl@@QBEIXZ 5f40915b f winctrl2.obj
 0001:000081b4       ?SetCallbackMask@CListCtrl@@QAEHI@Z 5f4091b4 f winctrl2.obj
 0001:00008211       ?GetNextItem@CListCtrl@@QBEHHH@Z 5f409211 f winctrl2.obj
 0001:00008275       ?FindItem@CListCtrl@@QBEHPAUtagLVFINDINFOW@@H@Z 5f409275 f winctrl2.obj
 0001:000082d4       ?HitTest@CListCtrl@@QBEHPAUtagLVHITTESTINFO@@@Z 5f4092d4 f winctrl2.obj
 0001:00008331       ?SetItemPosition@CListCtrl@@QAEHHUtagPOINT@@@Z 5f409331 f winctrl2.obj
 0001:00008390       ?GetItemPosition@CListCtrl@@QBEHHPAUtagPOINT@@@Z 5f409390 f winctrl2.obj
 0001:000083ef       ?GetStringWidth@CListCtrl@@QBEHPBG@Z 5f4093ef f winctrl2.obj
 0001:0000844c       ?EnsureVisible@CListCtrl@@QAEHHH@Z 5f40944c f winctrl2.obj
 0001:000084b0       ?Scroll@CListCtrl@@QAEHVCSize@@@Z 5f4094b0 f winctrl2.obj
 0001:0000850f       ?RedrawItems@CListCtrl@@QAEHHH@Z 5f40950f f winctrl2.obj
 0001:0000856e       ?Arrange@CListCtrl@@QAEHI@Z 5f40956e f winctrl2.obj
 0001:000085cb       ?EditLabel@CListCtrl@@QAEPAVCEdit@@H@Z 5f4095cb f winctrl2.obj
 0001:0000862e       ?GetEditControl@CListCtrl@@QBEPAVCEdit@@XZ 5f40962e f winctrl2.obj
 0001:0000868d       ?GetColumn@CListCtrl@@QBEHHPAUtagLVCOLUMNW@@@Z 5f40968d f winctrl2.obj
 0001:000086ec       ?SetColumn@CListCtrl@@QAEHHPBUtagLVCOLUMNW@@@Z 5f4096ec f winctrl2.obj
 0001:0000874b       ?InsertColumn@CListCtrl@@QAEHHPBUtagLVCOLUMNW@@@Z 5f40974b f winctrl2.obj
 0001:000087aa       ?DeleteColumn@CListCtrl@@QAEHH@Z 5f4097aa f winctrl2.obj
 0001:00008807       ?GetColumnWidth@CListCtrl@@QBEHH@Z 5f409807 f winctrl2.obj
 0001:00008864       ?SetColumnWidth@CListCtrl@@QAEHHH@Z 5f409864 f winctrl2.obj
 0001:000088c8       ?GetViewRect@CListCtrl@@QBEHPAUtagRECT@@@Z 5f4098c8 f winctrl2.obj
 0001:00008925       ?GetTextColor@CListCtrl@@QBEKXZ 5f409925 f winctrl2.obj
 0001:0000897e       ?SetTextColor@CListCtrl@@QAEHK@Z 5f40997e f winctrl2.obj
 0001:000089db       ?GetTextBkColor@CListCtrl@@QBEKXZ 5f4099db f winctrl2.obj
 0001:00008a34       ?SetTextBkColor@CListCtrl@@QAEHK@Z 5f409a34 f winctrl2.obj
 0001:00008a91       ?GetTopIndex@CListCtrl@@QBEHXZ 5f409a91 f winctrl2.obj
 0001:00008aea       ?GetCountPerPage@CListCtrl@@QBEHXZ 5f409aea f winctrl2.obj
 0001:00008b43       ?GetOrigin@CListCtrl@@QBEHPAUtagPOINT@@@Z 5f409b43 f winctrl2.obj
 0001:00008ba0       ?Update@CListCtrl@@QAEHH@Z 5f409ba0 f winctrl2.obj
 0001:00008bfd       ?SetItemState@CListCtrl@@QAEHHPAUtagLVITEMW@@@Z 5f409bfd f winctrl2.obj
 0001:00008c5c       ?GetItemState@CListCtrl@@QBEIHI@Z 5f409c5c f winctrl2.obj
 0001:00008cbb       ?SetItemCount@CListCtrl@@QAEXH@Z 5f409cbb f winctrl2.obj
 0001:00008d18       ?SortItems@CListCtrl@@QAEHP6GHJJJ@ZK@Z 5f409d18 f winctrl2.obj
 0001:00008d77       ?GetSelectedCount@CListCtrl@@QBEIXZ 5f409d77 f winctrl2.obj
 0001:00008dd0       ??0CTreeCtrl@@QAE@XZ       5f409dd0 f winctrl2.obj
 0001:00008e3f       ?InsertItem@CTreeCtrl@@QAEPAU_TREEITEM@@PAUtagTVINSERTSTRUCTW@@@Z 5f409e3f f winctrl2.obj
 0001:00008e9c       ?InsertItem@CTreeCtrl@@QAEPAU_TREEITEM@@PBGHHPAU2@1@Z 5f409e9c f winctrl2.obj
 0001:00008f05       ?InsertItem@CTreeCtrl@@QAEPAU_TREEITEM@@PBGPAU2@1@Z 5f409f05 f winctrl2.obj
 0001:00008f6a       ?DeleteItem@CTreeCtrl@@QAEHPAU_TREEITEM@@@Z 5f409f6a f winctrl2.obj
 0001:00008fc7       ?DeleteAllItems@CTreeCtrl@@QAEHXZ 5f409fc7 f winctrl2.obj
 0001:00009023       ?Expand@CTreeCtrl@@QAEHPAU_TREEITEM@@I@Z 5f40a023 f winctrl2.obj
 0001:00009082       ?GetCount@CTreeCtrl@@QBEIXZ 5f40a082 f winctrl2.obj
 0001:000090db       ?GetIndent@CTreeCtrl@@QBEIXZ 5f40a0db f winctrl2.obj
 0001:00009134       ?SetIndent@CTreeCtrl@@QAEXI@Z 5f40a134 f winctrl2.obj
 0001:00009191       ?GetImageList@CTreeCtrl@@QBEPAVCImageList@@I@Z 5f40a191 f winctrl2.obj
 0001:000091f4       ?SetImageList@CTreeCtrl@@QAEPAVCImageList@@PAV2@H@Z 5f40a1f4 f winctrl2.obj
 0001:0000925e       ?GetNextItem@CTreeCtrl@@QBEPAU_TREEITEM@@PAU2@I@Z 5f40a25e f winctrl2.obj
 0001:000092bd       ?GetChildItem@CTreeCtrl@@QBEPAU_TREEITEM@@PAU2@@Z 5f40a2bd f winctrl2.obj
 0001:0000931a       ?GetNextSiblingItem@CTreeCtrl@@QBEPAU_TREEITEM@@PAU2@@Z 5f40a31a f winctrl2.obj
 0001:00009377       ?GetPrevSiblingItem@CTreeCtrl@@QBEPAU_TREEITEM@@PAU2@@Z 5f40a377 f winctrl2.obj
 0001:000093d4       ?GetParentItem@CTreeCtrl@@QBEPAU_TREEITEM@@PAU2@@Z 5f40a3d4 f winctrl2.obj
 0001:00009431       ?GetFirstVisibleItem@CTreeCtrl@@QBEPAU_TREEITEM@@XZ 5f40a431 f winctrl2.obj
 0001:0000948a       ?GetNextVisibleItem@CTreeCtrl@@QBEPAU_TREEITEM@@PAU2@@Z 5f40a48a f winctrl2.obj
 0001:000094e7       ?GetPrevVisibleItem@CTreeCtrl@@QBEPAU_TREEITEM@@PAU2@@Z 5f40a4e7 f winctrl2.obj
 0001:00009544       ?GetSelectedItem@CTreeCtrl@@QBEPAU_TREEITEM@@XZ 5f40a544 f winctrl2.obj
 0001:0000959d       ?GetDropHilightItem@CTreeCtrl@@QBEPAU_TREEITEM@@XZ 5f40a59d f winctrl2.obj
 0001:000095f6       ?GetRootItem@CTreeCtrl@@QBEPAU_TREEITEM@@XZ 5f40a5f6 f winctrl2.obj
 0001:0000964f       ?Select@CTreeCtrl@@QAEHPAU_TREEITEM@@I@Z 5f40a64f f winctrl2.obj
 0001:000096ae       ?SelectItem@CTreeCtrl@@QAEHPAU_TREEITEM@@@Z 5f40a6ae f winctrl2.obj
 0001:0000970b       ?SelectDropTarget@CTreeCtrl@@QAEHPAU_TREEITEM@@@Z 5f40a70b f winctrl2.obj
 0001:00009768       ?SelectSetFirstVisible@CTreeCtrl@@QAEHPAU_TREEITEM@@@Z 5f40a768 f winctrl2.obj
 0001:000097c5       ?GetItem@CTreeCtrl@@QBEHPAUtagTVITEMW@@@Z 5f40a7c5 f winctrl2.obj
 0001:00009822       ?SetItem@CTreeCtrl@@QAEHPAUtagTVITEMW@@@Z 5f40a822 f winctrl2.obj
 0001:0000987f       ?SetItemText@CTreeCtrl@@QAEHPAU_TREEITEM@@PBG@Z 5f40a87f f winctrl2.obj
 0001:000098e0       ?SetItemImage@CTreeCtrl@@QAEHPAU_TREEITEM@@HH@Z 5f40a8e0 f winctrl2.obj
 0001:00009943       ?SetItemState@CTreeCtrl@@QAEHPAU_TREEITEM@@II@Z 5f40a943 f winctrl2.obj
 0001:000099a6       ?SetItemData@CTreeCtrl@@QAEHPAU_TREEITEM@@K@Z 5f40a9a6 f winctrl2.obj
 0001:00009a07       ?EditLabel@CTreeCtrl@@QAEPAVCEdit@@PAU_TREEITEM@@@Z 5f40aa07 f winctrl2.obj
 0001:00009a6a       ?HitTest@CTreeCtrl@@QBEPAU_TREEITEM@@PAUtagTVHITTESTINFO@@@Z 5f40aa6a f winctrl2.obj
 0001:00009ac7       ?GetEditControl@CTreeCtrl@@QBEPAVCEdit@@XZ 5f40aac7 f winctrl2.obj
 0001:00009b26       ?GetVisibleCount@CTreeCtrl@@QBEIXZ 5f40ab26 f winctrl2.obj
 0001:00009b7f       ?SortChildren@CTreeCtrl@@QAEHPAU_TREEITEM@@@Z 5f40ab7f f winctrl2.obj
 0001:00009bdc       ?EnsureVisible@CTreeCtrl@@QAEHPAU_TREEITEM@@@Z 5f40abdc f winctrl2.obj
 0001:00009c39       ?SortChildrenCB@CTreeCtrl@@QAEHPAUtagTVSORTCB@@@Z 5f40ac39 f winctrl2.obj
 0001:00009c96       ??0CHotKeyCtrl@@QAE@XZ     5f40ac96 f winctrl2.obj
 0001:00009d05       ?SetHotKey@CHotKeyCtrl@@QAEXGG@Z 5f40ad05 f winctrl2.obj
 0001:00009d71       ?GetHotKey@CHotKeyCtrl@@QBEKXZ 5f40ad71 f winctrl2.obj
 0001:00009dca       ?SetRules@CHotKeyCtrl@@QAEXGG@Z 5f40adca f winctrl2.obj
 0001:00009e33       ?Activate@CToolTipCtrl@@QAEXH@Z 5f40ae33 f winctrl2.obj
 0001:00009e90       ?SetToolInfo@CToolTipCtrl@@QAEXPAUtagTOOLINFOW@@@Z 5f40ae90 f winctrl2.obj
 0001:00009eed       ?RelayEvent@CToolTipCtrl@@QAEXPAUtagMSG@@@Z 5f40aeed f winctrl2.obj
 0001:00009f4a       ?SetDelayTime@CToolTipCtrl@@QAEXI@Z 5f40af4a f winctrl2.obj
 0001:00009fa7       ?GetToolCount@CToolTipCtrl@@QBEHXZ 5f40afa7 f winctrl2.obj
 0001:0000a000       ??0CSpinButtonCtrl@@QAE@XZ 5f40b000 f winctrl2.obj
 0001:0000a06f       ?GetAccel@CSpinButtonCtrl@@QBEIHPAU_UDACCEL@@@Z 5f40b06f f winctrl2.obj
 0001:0000a0d1       ?GetBase@CSpinButtonCtrl@@QBEIXZ 5f40b0d1 f winctrl2.obj
 0001:0000a12d       ?GetBuddy@CSpinButtonCtrl@@QBEPAVCWnd@@XZ 5f40b12d f winctrl2.obj
 0001:0000a18c       ?GetPos@CSpinButtonCtrl@@QBEHXZ 5f40b18c f winctrl2.obj
 0001:0000a1e8       ?GetRange@CSpinButtonCtrl@@QBEKXZ 5f40b1e8 f winctrl2.obj
 0001:0000a241       ?SetAccel@CSpinButtonCtrl@@QAEHHPAU_UDACCEL@@@Z 5f40b241 f winctrl2.obj
 0001:0000a2a3       ?SetBase@CSpinButtonCtrl@@QAEHH@Z 5f40b2a3 f winctrl2.obj
 0001:0000a300       ?SetBuddy@CSpinButtonCtrl@@QAEPAVCWnd@@PAV2@@Z 5f40b300 f winctrl2.obj
 0001:0000a366       ?SetPos@CSpinButtonCtrl@@QAEHH@Z 5f40b366 f winctrl2.obj
 0001:0000a3cb       ?SetRange@CSpinButtonCtrl@@QAEXHH@Z 5f40b3cb f winctrl2.obj
 0001:0000a43b       ??0CSliderCtrl@@QAE@XZ     5f40b43b f winctrl2.obj
 0001:0000a4aa       ?GetLineSize@CSliderCtrl@@QBEHXZ 5f40b4aa f winctrl2.obj
 0001:0000a503       ?SetLineSize@CSliderCtrl@@QAEHH@Z 5f40b503 f winctrl2.obj
 0001:0000a560       ?GetPageSize@CSliderCtrl@@QBEHXZ 5f40b560 f winctrl2.obj
 0001:0000a5b9       ?SetPageSize@CSliderCtrl@@QAEHH@Z 5f40b5b9 f winctrl2.obj
 0001:0000a616       ?GetRangeMax@CSliderCtrl@@QBEHXZ 5f40b616 f winctrl2.obj
 0001:0000a66f       ?GetRangeMin@CSliderCtrl@@QBEHXZ 5f40b66f f winctrl2.obj
 0001:0000a6c8       ?SetRangeMin@CSliderCtrl@@QAEXHH@Z 5f40b6c8 f winctrl2.obj
 0001:0000a727       ?SetRangeMax@CSliderCtrl@@QAEXHH@Z 5f40b727 f winctrl2.obj
 0001:0000a786       ?ClearSel@CSliderCtrl@@QAEXH@Z 5f40b786 f winctrl2.obj
 0001:0000a7e3       ?GetChannelRect@CSliderCtrl@@QBEXPAUtagRECT@@@Z 5f40b7e3 f winctrl2.obj
 0001:0000a840       ?GetThumbRect@CSliderCtrl@@QBEXPAUtagRECT@@@Z 5f40b840 f winctrl2.obj
 0001:0000a89d       ?GetPos@CSliderCtrl@@QBEHXZ 5f40b89d f winctrl2.obj
 0001:0000a8f6       ?SetPos@CSliderCtrl@@QAEXH@Z 5f40b8f6 f winctrl2.obj
 0001:0000a953       ?VerifyPos@CSliderCtrl@@QAEXXZ 5f40b953 f winctrl2.obj
 0001:0000a9ac       ?ClearTics@CSliderCtrl@@QAEXH@Z 5f40b9ac f winctrl2.obj
 0001:0000aa09       ?GetNumTics@CSliderCtrl@@QBEIXZ 5f40ba09 f winctrl2.obj
 0001:0000aa62       ?GetTicArray@CSliderCtrl@@QBEPAKXZ 5f40ba62 f winctrl2.obj
 0001:0000aabb       ?GetTic@CSliderCtrl@@QBEHH@Z 5f40babb f winctrl2.obj
 0001:0000ab18       ?GetTicPos@CSliderCtrl@@QBEHH@Z 5f40bb18 f winctrl2.obj
 0001:0000ab75       ?SetTic@CSliderCtrl@@QAEHH@Z 5f40bb75 f winctrl2.obj
 0001:0000abd2       ?SetTicFreq@CSliderCtrl@@QAEXH@Z 5f40bbd2 f winctrl2.obj
 0001:0000ac2f       ??0CProgressCtrl@@QAE@XZ   5f40bc2f f winctrl2.obj
 0001:0000ac9e       ?SetRange@CProgressCtrl@@QAEXHH@Z 5f40bc9e f winctrl2.obj
 0001:0000ad0e       ?SetPos@CProgressCtrl@@QAEHH@Z 5f40bd0e f winctrl2.obj
 0001:0000ad6e       ?OffsetPos@CProgressCtrl@@QAEHH@Z 5f40bd6e f winctrl2.obj
 0001:0000adce       ?SetStep@CProgressCtrl@@QAEHH@Z 5f40bdce f winctrl2.obj
 0001:0000ae2e       ?StepIt@CProgressCtrl@@QAEHXZ 5f40be2e f winctrl2.obj
 0001:0000ae8a       ??0CHeaderCtrl@@QAE@XZ     5f40be8a f winctrl2.obj
 0001:0000aef9       ?GetItemCount@CHeaderCtrl@@QBEHXZ 5f40bef9 f winctrl2.obj
 0001:0000af52       ?InsertItem@CHeaderCtrl@@QAEHHPAU_HD_ITEMW@@@Z 5f40bf52 f winctrl2.obj
 0001:0000afb1       ?DeleteItem@CHeaderCtrl@@QAEHH@Z 5f40bfb1 f winctrl2.obj
 0001:0000b00e       ?GetItem@CHeaderCtrl@@QBEHHPAU_HD_ITEMW@@@Z 5f40c00e f winctrl2.obj
 0001:0000b06d       ?SetItem@CHeaderCtrl@@QAEHHPAU_HD_ITEMW@@@Z 5f40c06d f winctrl2.obj
 0001:0000b0cc       ?Layout@CHeaderCtrl@@QAEHPAU_HD_LAYOUT@@@Z 5f40c0cc f winctrl2.obj
 0001:0000b129       ??BCImageList@@QBEPAU_IMAGELIST@@XZ 5f40c129 f winctrl2.obj
 0001:0000b145       ?GetSafeHandle@CImageList@@QBEPAU_IMAGELIST@@XZ 5f40c145 f winctrl2.obj
 0001:0000b172       ?GetImageCount@CImageList@@QBEHXZ 5f40c172 f winctrl2.obj
 0001:0000b1ba       ?Add@CImageList@@QAEHPAVCBitmap@@0@Z 5f40c1ba f winctrl2.obj
 0001:0000b216       ?Add@CImageList@@QAEHPAVCBitmap@@K@Z 5f40c216 f winctrl2.obj
 0001:0000b26d       ?Remove@CImageList@@QAEHH@Z 5f40c26d f winctrl2.obj
 0001:0000b2bb       ?Replace@CImageList@@QAEHHPAVCBitmap@@0@Z 5f40c2bb f winctrl2.obj
 0001:0000b31b       ?Add@CImageList@@QAEHPAUHICON__@@@Z 5f40c31b f winctrl2.obj
 0001:0000b36b       ?Replace@CImageList@@QAEHHPAUHICON__@@@Z 5f40c36b f winctrl2.obj
 0001:0000b3bd       ?ExtractIconW@CImageList@@QAEPAUHICON__@@H@Z 5f40c3bd f winctrl2.obj
 0001:0000b40d       ?Draw@CImageList@@QAEHPAVCDC@@HUtagPOINT@@I@Z 5f40c40d f winctrl2.obj
 0001:0000b492       ?SetBkColor@CImageList@@QAEKK@Z 5f40c492 f winctrl2.obj
 0001:0000b4e0       ?GetBkColor@CImageList@@QBEKXZ 5f40c4e0 f winctrl2.obj
 0001:0000b528       ?SetOverlayImage@CImageList@@QAEHHH@Z 5f40c528 f winctrl2.obj
 0001:0000b57a       ?GetImageInfo@CImageList@@QBEHHPAU_IMAGEINFO@@@Z 5f40c57a f winctrl2.obj
 0001:0000b5cc       ?BeginDrag@CImageList@@QAEHHVCPoint@@@Z 5f40c5cc f winctrl2.obj
 0001:0000b622       ?EndDrag@CImageList@@SGXXZ 5f40c622 f winctrl2.obj
 0001:0000b638       ?DragMove@CImageList@@SGHVCPoint@@@Z 5f40c638 f winctrl2.obj
 0001:0000b658       ?SetDragCursorImage@CImageList@@QAEHHVCPoint@@@Z 5f40c658 f winctrl2.obj
 0001:0000b6ae       ?DragShowNolock@CImageList@@SGHH@Z 5f40c6ae f winctrl2.obj
 0001:0000b6ca       ?GetDragImage@CImageList@@SGPAV1@PAUtagPOINT@@0@Z 5f40c6ca f winctrl2.obj
 0001:0000b6f0       ?DragEnter@CImageList@@SGHPAVCWnd@@VCPoint@@@Z 5f40c6f0 f winctrl2.obj
 0001:0000b719       ?DragLeave@CImageList@@SGHPAVCWnd@@@Z 5f40c719 f winctrl2.obj
 0001:0000b73a       ??0CTabCtrl@@QAE@XZ        5f40c73a f winctrl2.obj
 0001:0000b7a9       ?GetImageList@CTabCtrl@@QBEPAVCImageList@@XZ 5f40c7a9 f winctrl2.obj
 0001:0000b808       ?SetImageList@CTabCtrl@@QAEPAVCImageList@@PAV2@@Z 5f40c808 f winctrl2.obj
 0001:0000b870       ?GetItemCount@CTabCtrl@@QBEHXZ 5f40c870 f winctrl2.obj
 0001:0000b8c9       ?GetItem@CTabCtrl@@QBEHHPAUtagTCITEMW@@@Z 5f40c8c9 f winctrl2.obj
 0001:0000b928       ?SetItem@CTabCtrl@@QAEHHPAUtagTCITEMW@@@Z 5f40c928 f winctrl2.obj
 0001:0000b987       ?InsertItem@CTabCtrl@@QAEHHPAUtagTCITEMW@@@Z 5f40c987 f winctrl2.obj
 0001:0000b9e6       ?DeleteItem@CTabCtrl@@QAEHH@Z 5f40c9e6 f winctrl2.obj
 0001:0000ba43       ?DeleteAllItems@CTabCtrl@@QAEHXZ 5f40ca43 f winctrl2.obj
 0001:0000ba9c       ?GetItemRect@CTabCtrl@@QBEHHPAUtagRECT@@@Z 5f40ca9c f winctrl2.obj
 0001:0000bafb       ?GetCurSel@CTabCtrl@@QBEHXZ 5f40cafb f winctrl2.obj
 0001:0000bb54       ?SetCurSel@CTabCtrl@@QAEHH@Z 5f40cb54 f winctrl2.obj
 0001:0000bbb1       ?HitTest@CTabCtrl@@QBEHPAUtagTCHITTESTINFO@@@Z 5f40cbb1 f winctrl2.obj
 0001:0000bc0e       ?AdjustRect@CTabCtrl@@QAEXHPAUtagRECT@@@Z 5f40cc0e f winctrl2.obj
 0001:0000bc6d       ?SetItemSize@CTabCtrl@@QAE?AVCSize@@V2@@Z 5f40cc6d f winctrl2.obj
 0001:0000bce9       ?RemoveImage@CTabCtrl@@QAEXH@Z 5f40cce9 f winctrl2.obj
 0001:0000bd46       ?SetPadding@CTabCtrl@@QAEXVCSize@@@Z 5f40cd46 f winctrl2.obj
 0001:0000bdb6       ?GetRowCount@CTabCtrl@@QBEHXZ 5f40cdb6 f winctrl2.obj
 0001:0000be0f       ?GetTooltips@CTabCtrl@@QBEPAVCToolTipCtrl@@XZ 5f40ce0f f winctrl2.obj
 0001:0000be6e       ?SetTooltips@CTabCtrl@@QAEXPAVCToolTipCtrl@@@Z 5f40ce6e f winctrl2.obj
 0001:0000bece       ?GetCurFocus@CTabCtrl@@QBEHXZ 5f40cece f winctrl2.obj
 0001:0000bf27       ??0CAnimateCtrl@@QAE@XZ    5f40cf27 f winctrl2.obj
 0001:0000bf96       ?Open@CAnimateCtrl@@QAEHPBG@Z 5f40cf96 f winctrl2.obj
 0001:0000bff3       ?Open@CAnimateCtrl@@QAEHI@Z 5f40cff3 f winctrl2.obj
 0001:0000c050       ?Play@CAnimateCtrl@@QAEHIII@Z 5f40d050 f winctrl2.obj
 0001:0000c0c2       ?Stop@CAnimateCtrl@@QAEHXZ 5f40d0c2 f winctrl2.obj
 0001:0000c11b       ?Close@CAnimateCtrl@@QAEHXZ 5f40d11b f winctrl2.obj
 0001:0000c174       ?Seek@CAnimateCtrl@@QAEHI@Z 5f40d174 f winctrl2.obj
 0001:0000c1e4       ??0CRichEditCtrl@@QAE@XZ   5f40d1e4 f winctrl2.obj
 0001:0000c253       ?CanUndo@CRichEditCtrl@@QBEHXZ 5f40d253 f winctrl2.obj
 0001:0000c2ac       ?GetLineCount@CRichEditCtrl@@QBEHXZ 5f40d2ac f winctrl2.obj
 0001:0000c305       ?GetModify@CRichEditCtrl@@QBEHXZ 5f40d305 f winctrl2.obj
 0001:0000c35e       ?SetModify@CRichEditCtrl@@QAEXH@Z 5f40d35e f winctrl2.obj
 0001:0000c3bb       ?GetRect@CRichEditCtrl@@QBEXPAUtagRECT@@@Z 5f40d3bb f winctrl2.obj
 0001:0000c418       ?GetCharPos@CRichEditCtrl@@QBE?AVCPoint@@J@Z 5f40d418 f winctrl2.obj
 0001:0000c490       ?SetOptions@CRichEditCtrl@@QAEXGK@Z 5f40d490 f winctrl2.obj
 0001:0000c4f4       ?EmptyUndoBuffer@CRichEditCtrl@@QAEXXZ 5f40d4f4 f winctrl2.obj
 0001:0000c54d       ?ReplaceSel@CRichEditCtrl@@QAEXPBGH@Z 5f40d54d f winctrl2.obj
 0001:0000c5ac       ?SetRect@CRichEditCtrl@@QAEXPBUtagRECT@@@Z 5f40d5ac f winctrl2.obj
 0001:0000c609       ?Undo@CRichEditCtrl@@QAEHXZ 5f40d609 f winctrl2.obj
 0001:0000c662       ?Clear@CRichEditCtrl@@QAEXXZ 5f40d662 f winctrl2.obj
 0001:0000c6bb       ?Copy@CRichEditCtrl@@QAEXXZ 5f40d6bb f winctrl2.obj
 0001:0000c714       ?Cut@CRichEditCtrl@@QAEXXZ 5f40d714 f winctrl2.obj
 0001:0000c76d       ?Paste@CRichEditCtrl@@QAEXXZ 5f40d76d f winctrl2.obj
 0001:0000c7c6       ?SetReadOnly@CRichEditCtrl@@QAEHH@Z 5f40d7c6 f winctrl2.obj
 0001:0000c823       ?GetFirstVisibleLine@CRichEditCtrl@@QBEHXZ 5f40d823 f winctrl2.obj
 0001:0000c87c       ?DisplayBand@CRichEditCtrl@@QAEHPAUtagRECT@@@Z 5f40d87c f winctrl2.obj
 0001:0000c8d9       ?GetSel@CRichEditCtrl@@QBEXAAU_charrange@@@Z 5f40d8d9 f winctrl2.obj
 0001:0000c936       ?LimitText@CRichEditCtrl@@QAEXJ@Z 5f40d936 f winctrl2.obj
 0001:0000c993       ?LineFromChar@CRichEditCtrl@@QBEJJ@Z 5f40d993 f winctrl2.obj
 0001:0000c9f0       ?SetSel@CRichEditCtrl@@QAEXAAU_charrange@@@Z 5f40d9f0 f winctrl2.obj
 0001:0000ca4d       ?FindTextW@CRichEditCtrl@@QBEJKPAU_findtextexw@@@Z 5f40da4d f winctrl2.obj
 0001:0000caac       ?FormatRange@CRichEditCtrl@@QAEJPAU_formatrange@@H@Z 5f40daac f winctrl2.obj
 0001:0000cb0b       ?GetEventMask@CRichEditCtrl@@QBEJXZ 5f40db0b f winctrl2.obj
 0001:0000cb64       ?GetLimitText@CRichEditCtrl@@QBEJXZ 5f40db64 f winctrl2.obj
 0001:0000cbbd       ?GetSelText@CRichEditCtrl@@QBEJPAD@Z 5f40dbbd f winctrl2.obj
 0001:0000cc1a       ?HideSelection@CRichEditCtrl@@QAEXHH@Z 5f40dc1a f winctrl2.obj
 0001:0000cc79       ?RequestResize@CRichEditCtrl@@QAEXXZ 5f40dc79 f winctrl2.obj
 0001:0000ccd2       ?GetSelectionType@CRichEditCtrl@@QBEGXZ 5f40dcd2 f winctrl2.obj
 0001:0000cd2b       ?SetBackgroundColor@CRichEditCtrl@@QAEKHK@Z 5f40dd2b f winctrl2.obj
 0001:0000cd8a       ?SetEventMask@CRichEditCtrl@@QAEKK@Z 5f40dd8a f winctrl2.obj
 0001:0000cde7       ?SetOLECallback@CRichEditCtrl@@QAEHPAUIRichEditOleCallback@@@Z 5f40dde7 f winctrl2.obj
 0001:0000ce44       ?SetTargetDevice@CRichEditCtrl@@QAEHPAUHDC__@@J@Z 5f40de44 f winctrl2.obj
 0001:0000cea3       ?SetTargetDevice@CRichEditCtrl@@QAEHAAVCDC@@J@Z 5f40dea3 f winctrl2.obj
 0001:0000cf05       ?StreamIn@CRichEditCtrl@@QAEJHAAU_editstream@@@Z 5f40df05 f winctrl2.obj
 0001:0000cf64       ?StreamOut@CRichEditCtrl@@QAEJHAAU_editstream@@@Z 5f40df64 f winctrl2.obj
 0001:0000cfc3       ?GetTextLength@CRichEditCtrl@@QBEJXZ 5f40dfc3 f winctrl2.obj
 0001:0000d020       ??_GCDragListBox@@UAEPAXI@Z 5f40e020 f winctrl2.obj
 0001:0000d060       ??_GCToolBarCtrl@@UAEPAXI@Z 5f40e060 f winctrl2.obj
 0001:0000d0a0       ??_GCStatusBarCtrl@@UAEPAXI@Z 5f40e0a0 f winctrl2.obj
 0001:0000d0e0       ??_GCListCtrl@@UAEPAXI@Z   5f40e0e0 f winctrl2.obj
 0001:0000d120       ??_GCTreeCtrl@@UAEPAXI@Z   5f40e120 f winctrl2.obj
 0001:0000d160       ??_GCSpinButtonCtrl@@UAEPAXI@Z 5f40e160 f winctrl2.obj
 0001:0000d1a0       ??_GCSliderCtrl@@UAEPAXI@Z 5f40e1a0 f winctrl2.obj
 0001:0000d1e0       ??_GCProgressCtrl@@UAEPAXI@Z 5f40e1e0 f winctrl2.obj
 0001:0000d220       ??_GCHeaderCtrl@@UAEPAXI@Z 5f40e220 f winctrl2.obj
 0001:0000d260       ??_GCHotKeyCtrl@@UAEPAXI@Z 5f40e260 f winctrl2.obj
 0001:0000d2a0       ??_GCTabCtrl@@UAEPAXI@Z    5f40e2a0 f winctrl2.obj
 0001:0000d2e0       ??_GCAnimateCtrl@@UAEPAXI@Z 5f40e2e0 f winctrl2.obj
 0001:0000d320       ??_GCRichEditCtrl@@UAEPAXI@Z 5f40e320 f winctrl2.obj
 0001:0000d360       ??_GCImageList@@UAEPAXI@Z  5f40e360 f winctrl2.obj
 0001:0000d3a0       ??0AFX_CHECK_DATA@@QAE@XZ  5f40e3a0 f winctrl3.obj
 0001:0000d3e0       ??B?$CProcessLocal@V_AFX_CHECKLIST_STATE@@@@QAEPAV_AFX_CHECKLIST_STATE@@XZ 5f40e3e0 f winctrl3.obj
 0001:0000d400       ?GetData@?$CProcessLocal@V_AFX_CHECKLIST_STATE@@@@QAEPAV_AFX_CHECKLIST_STATE@@XZ 5f40e400 f winctrl3.obj
 0001:0000d450       ?CreateObject@?$CProcessLocal@V_AFX_CHECKLIST_STATE@@@@SGPAVCNoTrackObject@@XZ 5f40e450 f winctrl3.obj
 0001:0000d4e0       ??1_AFX_RICHEDIT_STATE@@UAE@XZ 5f40e4e0 f winctrl4.obj
 0001:0000d562       ?AfxGetRichEditState@@YAPAV_AFX_RICHEDIT_STATE@@XZ 5f40e562 f winctrl4.obj
 0001:0000d57c       ?Create@CRichEditCtrl@@QAEHKABUtagRECT@@PAVCWnd@@I@Z 5f40e57c f winctrl4.obj
 0001:0000d5fd       ?GetLine@CRichEditCtrl@@QBEHHPAG@Z 5f40e5fd f winctrl4.obj
 0001:0000d659       ?LineIndex@CRichEditCtrl@@QBEHH@Z 5f40e659 f winctrl4.obj
 0001:0000d6b3       ?LineLength@CRichEditCtrl@@QBEHH@Z 5f40e6b3 f winctrl4.obj
 0001:0000d70d       ?LineScroll@CRichEditCtrl@@QAEXHH@Z 5f40e70d f winctrl4.obj
 0001:0000d769       ?SetSel@CRichEditCtrl@@QAEXJJ@Z 5f40e769 f winctrl4.obj
 0001:0000d7cf       ?CanPaste@CRichEditCtrl@@QBEHI@Z 5f40e7cf f winctrl4.obj
 0001:0000d861       ?PasteSpecial@CRichEditCtrl@@QAEXIKPAUHMETAFILE__@@@Z 5f40e861 f winctrl4.obj
 0001:0000d8c9       ?GetLine@CRichEditCtrl@@QBEHHPAGH@Z 5f40e8c9 f winctrl4.obj
 0001:0000d930       ?GetSel@CRichEditCtrl@@QBEXAAJ0@Z 5f40e930 f winctrl4.obj
 0001:0000d99d       ?GetSelText@CRichEditCtrl@@QBE?AVCString@@XZ 5f40e99d f winctrl4.obj
 0001:0000da96       ?GetIRichEditOle@CRichEditCtrl@@QBEPAUIRichEditOle@@XZ 5f40ea96 f winctrl4.obj
 0001:0000dafb       ?SetDefaultCharFormat@CRichEditCtrl@@QAEHAAU_charformatw@@@Z 5f40eafb f winctrl4.obj
 0001:0000db61       ?SetSelectionCharFormat@CRichEditCtrl@@QAEHAAU_charformatw@@@Z 5f40eb61 f winctrl4.obj
 0001:0000dbc7       ?SetWordCharFormat@CRichEditCtrl@@QAEHAAU_charformatw@@@Z 5f40ebc7 f winctrl4.obj
 0001:0000dc2d       ?GetDefaultCharFormat@CRichEditCtrl@@QBEKAAU_charformatw@@@Z 5f40ec2d f winctrl4.obj
 0001:0000dc93       ?GetSelectionCharFormat@CRichEditCtrl@@QBEKAAU_charformatw@@@Z 5f40ec93 f winctrl4.obj
 0001:0000dcf9       ?GetParaFormat@CRichEditCtrl@@QBEKAAU_paraformat@@@Z 5f40ecf9 f winctrl4.obj
 0001:0000dd5f       ?SetParaFormat@CRichEditCtrl@@QAEHAAU_paraformat@@@Z 5f40ed5f f winctrl4.obj
 0001:0000de30       ??1?$CProcessLocal@V_AFX_RICHEDIT_STATE@@@@QAE@XZ 5f40ee30 f winctrl4.obj
 0001:0000de90       ?GetData@?$CProcessLocal@V_AFX_RICHEDIT_STATE@@@@QAEPAV_AFX_RICHEDIT_STATE@@XZ 5f40ee90 f winctrl4.obj
 0001:0000dee0       ??B?$CProcessLocal@V_AFX_RICHEDIT_STATE@@@@QAEPAV_AFX_RICHEDIT_STATE@@XZ 5f40eee0 f winctrl4.obj
 0001:0000df00       ?CreateObject@?$CProcessLocal@V_AFX_RICHEDIT_STATE@@@@SGPAVCNoTrackObject@@XZ 5f40ef00 f winctrl4.obj
 0001:0000df90       ??0_AFX_RICHEDIT_STATE@@QAE@XZ 5f40ef90 f winctrl4.obj
 0001:0000e000       ??_G_AFX_RICHEDIT_STATE@@UAEPAXI@Z 5f40f000 f winctrl4.obj
 0001:0000e000       ??_E_AFX_RICHEDIT_STATE@@UAEPAXI@Z 5f40f000 f winctrl4.obj
 0001:0000e040       ??_9@$BNA@AE               5f40f040 f dlgcore.obj
 0001:0000e050       ??_9@$BMM@AE               5f40f050 f dlgcore.obj
 0001:0000e060       ??C?$CProcessLocal@V_AFX_COLOR_STATE@@@@QAEPAV_AFX_COLOR_STATE@@XZ 5f40f060 f dlgclr.obj
 0001:0000e080       ?GetData@?$CProcessLocal@V_AFX_COLOR_STATE@@@@QAEPAV_AFX_COLOR_STATE@@XZ 5f40f080 f dlgclr.obj
 0001:0000e0d0       ?CreateObject@?$CProcessLocal@V_AFX_COLOR_STATE@@@@SGPAVCNoTrackObject@@XZ 5f40f0d0 f dlgclr.obj
 0001:0000e160       _FindTextW@4               5f40f160 f dlgfr.obj
 0001:0000e180       ?GetData@?$CProcessLocal@U_AFX_PROPPAGEFONTINFO@@@@QAEPAU_AFX_PROPPAGEFONTINFO@@XZ 5f40f180 f ccdata.obj
 0001:0000e1d0       ?CreateObject@?$CProcessLocal@U_AFX_PROPPAGEFONTINFO@@@@SGPAVCNoTrackObject@@XZ 5f40f1d0 f ccdata.obj
 0001:0000e260       ??0_AFX_PROPPAGEFONTINFO@@QAE@XZ 5f40f260 f ccdata.obj
 0001:0000e2f0       ??1_AFX_PROPPAGEFONTINFO@@UAE@XZ 5f40f2f0 f ccdata.obj
 0001:0000e370       ??C?$CProcessLocal@V_AFX_EXTDLL_STATE@@@@QAEPAV_AFX_EXTDLL_STATE@@XZ 5f40f370 f ccdata.obj
 0001:0000e390       ?GetData@?$CProcessLocal@V_AFX_EXTDLL_STATE@@@@QAEPAV_AFX_EXTDLL_STATE@@XZ 5f40f390 f ccdata.obj
 0001:0000e3e0       ?CreateObject@?$CProcessLocal@V_AFX_EXTDLL_STATE@@@@SGPAVCNoTrackObject@@XZ 5f40f3e0 f ccdata.obj
 0001:0000e470       ??0_AFX_EXTDLL_STATE@@QAE@XZ 5f40f470 f ccdata.obj
 0001:0000e4e0       ??_E_AFX_EXTDLL_STATE@@UAEPAXI@Z 5f40f4e0 f ccdata.obj
 0001:0000e4e0       ??_G_AFX_EXTDLL_STATE@@UAEPAXI@Z 5f40f4e0 f ccdata.obj
 0001:0000e520       ??1_AFX_WINGDIX_TERM@@QAE@XZ 5f40f520 f wingdix.obj
 0001:0000e540       ?IsEqualGUID@@YAHABU_GUID@@0@Z 5f40f540 f cmdtarg.obj
 0001:0000e580       ??0CNewTypeDlg@@QAE@PAVCPtrList@@@Z 5f40f580 f docmgr.obj
 0001:0000e610       ??1CNewTypeDlg@@UAE@XZ     5f40f610 f docmgr.obj
 0001:0000e680       ??_9@$BOI@AE               5f40f680 f viewcore.obj
 0001:0000e690       ??0CPrintingDialog@@QAE@PAVCWnd@@@Z 5f40f690 f viewprnt.obj
 0001:0000e730       ??1CPrintingDialog@@UAE@XZ 5f40f730 f viewprnt.obj
 0001:0000e7a0       ??C?$CProcessLocal@V_AFX_WIN_STATE@@@@QAEPAV_AFX_WIN_STATE@@XZ 5f40f7a0 f viewprnt.obj
 0001:0000e7c0       ??1_AFX_EDITVIEW_TERM@@QAE@XZ 5f40f7c0 f viewedit.obj
 0001:0000e7e0       ??B?$CProcessLocal@V_AFX_EDIT_STATE@@@@QAEPAV_AFX_EDIT_STATE@@XZ 5f40f7e0 f viewedit.obj
 0001:0000e800       ?GetData@?$CProcessLocal@V_AFX_EDIT_STATE@@@@QAEPAV_AFX_EDIT_STATE@@XZ 5f40f800 f viewedit.obj
 0001:0000e850       ?CreateObject@?$CProcessLocal@V_AFX_EDIT_STATE@@@@SGPAVCNoTrackObject@@XZ 5f40f850 f viewedit.obj
 0001:0000e8e0       __wcsdec                   5f40f8e0 f viewedit.obj
 0001:0000e900       ??B?$CProcessLocal@V_AFX_MAIL_STATE@@@@QAEPAV_AFX_MAIL_STATE@@XZ 5f40f900 f docmapi.obj
 0001:0000e920       ?GetData@?$CProcessLocal@V_AFX_MAIL_STATE@@@@QAEPAV_AFX_MAIL_STATE@@XZ 5f40f920 f docmapi.obj
 0001:0000e970       ?CreateObject@?$CProcessLocal@V_AFX_MAIL_STATE@@@@SGPAVCNoTrackObject@@XZ 5f40f970 f docmapi.obj
 0001:0000ea00       ??B?$CTypedSimpleList@PAVCFrameWnd@@@@QAEPAVCFrameWnd@@XZ 5f40fa00 f thrdcore.obj
 0001:0000ea20       ?GetDataNA@?$CThreadLocal@V_AFX_THREAD_STATE@@@@QAEPAV_AFX_THREAD_STATE@@XZ 5f40fa20 f thrdcore.obj
 0001:0000ea50       ??B?$CThreadLocal@V_AFX_CTL3D_THREAD@@@@QAEPAV_AFX_CTL3D_THREAD@@XZ 5f40fa50 f thrdcore.obj
 0001:0000ea70       ?GetData@?$CThreadLocal@V_AFX_CTL3D_THREAD@@@@QAEPAV_AFX_CTL3D_THREAD@@XZ 5f40fa70 f thrdcore.obj
 0001:0000eac0       ?CreateObject@?$CThreadLocal@V_AFX_CTL3D_THREAD@@@@SGPAVCNoTrackObject@@XZ 5f40fac0 f thrdcore.obj
 0001:0000eb50       ??0_AFX_CTL3D_THREAD@@QAE@XZ 5f40fb50 f thrdcore.obj
 0001:0000ebc0       ??_E_AFX_CTL3D_THREAD@@UAEPAXI@Z 5f40fbc0 f thrdcore.obj
 0001:0000ebc0       ??_G_AFX_CTL3D_THREAD@@UAEPAXI@Z 5f40fbc0 f thrdcore.obj
 0001:0000ec00       ?GetSize@CRecentFileList@@QBEHXZ 5f40fc00 f appcore.obj
 0001:0000ec20       ??ACRecentFileList@@QAEAAVCString@@H@Z 5f40fc20 f appcore.obj
 0001:0000ec70       ?AfxParseURL@@YGHPBGAAKAAVCString@@2AAG@Z 5f40fc70 f inet.obj
 0001:0000ef06       ?AfxGetInternetHandleType@@YGKPAX@Z 5f40ff06 f inet.obj
 0001:0000ef5a       ?AfxInternetStatusCallbackDebug@@YGXPAXKK0K@Z 5f40ff5a f inet.obj
 0001:0000f198       ?AfxInternetStatusCallback@@YGXPAXKK0K@Z 5f410198 f inet.obj
 0001:0000f208       ??1CInternetSession@@UAE@XZ 5f410208 f inet.obj
 0001:0000f278       ??0CInternetSession@@QAE@PBGKK00K@Z 5f410278 f inet.obj
 0001:0000f36d       ?Close@CInternetSession@@UAEXXZ 5f41036d f inet.obj
 0001:0000f3cf       ?GetGopherConnection@CInternetSession@@QAEPAVCGopherConnection@@PBG00G@Z 5f4103cf f inet.obj
 0001:0000f499       ?GetFtpConnection@CInternetSession@@QAEPAVCFtpConnection@@PBG00GH@Z 5f410499 f inet.obj
 0001:0000f567       ?GetHttpConnection@CInternetSession@@QAEPAVCHttpConnection@@PBGG00@Z 5f410567 f inet.obj
 0001:0000f631       ?OpenURL@CInternetSession@@QAEPAVCStdioFile@@PBGKK0K@Z 5f410631 f inet.obj
 0001:0000f99e       ?SetOption@CInternetSession@@QAEHKPAXKK@Z 5f41099e f inet.obj
 0001:0000fa74       ?QueryOption@CInternetSession@@QBEHKPAXPAK@Z 5f410a74 f inet.obj
 0001:0000fb39       ?QueryOption@CInternetSession@@QBEHKAAK@Z 5f410b39 f inet.obj
 0001:0000fb71       ?QueryOption@CInternetSession@@QBEHKAAVCString@@@Z 5f410b71 f inet.obj
 0001:0000fc66       ?OnStatusCallback@CInternetSession@@UAEXKKPAXK@Z 5f410c66 f inet.obj
 0001:0000fccd       ?EnableStatusCallback@CInternetSession@@QAEHH@Z 5f410ccd f inet.obj
 0001:0000fe03       ?Dump@CInternetSession@@UBEXAAVCDumpContext@@@Z 5f410e03 f inet.obj
 0001:0000fe5d       ??0CInternetFile@@IAE@PAX0PBG1KH@Z 5f410e5d f inet.obj
 0001:0000ffe0       ??0CInternetFile@@IAE@PAXPBGPAVCInternetConnection@@H@Z 5f410fe0 f inet.obj
 0001:0001019f       ?QueryOption@CInternetFile@@QBEHKPAXPAK@Z 5f41119f f inet.obj
 0001:00010289       ?QueryOption@CInternetFile@@QBEHKAAK@Z 5f411289 f inet.obj
 0001:000102e6       ?QueryOption@CInternetFile@@QBEHKAAVCString@@@Z 5f4112e6 f inet.obj
 0001:00010366       ?SetOption@CInternetFile@@QAEHKPAXKK@Z 5f411366 f inet.obj
 0001:0001043c       ?SetReadBufferSize@CInternetFile@@QAEHI@Z 5f41143c f inet.obj
 0001:0001055c       ?SetWriteBufferSize@CInternetFile@@QAEHI@Z 5f41155c f inet.obj
 0001:00010668       ?Seek@CInternetFile@@UAEJJI@Z 5f411668 f inet.obj
 0001:000107c1       ??1CInternetFile@@UAE@XZ   5f4117c1 f inet.obj
 0001:0001092b       ?Abort@CInternetFile@@UAEXXZ 5f41192b f inet.obj
 0001:00010977       ?Flush@CInternetFile@@UAEXXZ 5f411977 f inet.obj
 0001:00010a03       ?Close@CInternetFile@@UAEXXZ 5f411a03 f inet.obj
 0001:00010abd       ?Read@CInternetFile@@UAEIPAXI@Z 5f411abd f inet.obj
 0001:00010d41       ?Write@CInternetFile@@UAEXPBXI@Z 5f411d41 f inet.obj
 0001:00010ef6       ?WriteString@CInternetFile@@UAEXPBG@Z 5f411ef6 f inet.obj
 0001:00010fc2       ?ReadString@CInternetFile@@UAEPAGPAGI@Z 5f411fc2 f inet.obj
 0001:0001118b       ?ReadString@CInternetFile@@UAEHAAVCString@@@Z 5f41218b f inet.obj
 0001:000112f5       ?GetLength@CInternetFile@@UBEKXZ 5f4122f5 f inet.obj
 0001:0001137e       ?LockRange@CInternetFile@@UAEXKK@Z 5f41237e f inet.obj
 0001:000113d3       ?UnlockRange@CInternetFile@@UAEXKK@Z 5f4123d3 f inet.obj
 0001:00011428       ?SetLength@CInternetFile@@UAEXK@Z 5f412428 f inet.obj
 0001:0001147d       ?Duplicate@CInternetFile@@UBEPAVCFile@@XZ 5f41247d f inet.obj
 0001:000114d2       ?AssertValid@CInternetFile@@MBEXXZ 5f4124d2 f inet.obj
 0001:000115fd       ?Dump@CInternetFile@@MBEXAAVCDumpContext@@@Z 5f4125fd f inet.obj
 0001:0001165d       ??0CInternetConnection@@QAE@PAVCInternetSession@@PBGGK@Z 5f41265d f inet.obj
 0001:00011780       ??1CInternetConnection@@UAE@XZ 5f412780 f inet.obj
 0001:000118a1       ?SetOption@CInternetConnection@@QAEHKPAXKK@Z 5f4128a1 f inet.obj
 0001:00011977       ?QueryOption@CInternetConnection@@QBEHKPAXPAK@Z 5f412977 f inet.obj
 0001:00011a3c       ?QueryOption@CInternetConnection@@QBEHKAAK@Z 5f412a3c f inet.obj
 0001:00011a74       ?QueryOption@CInternetConnection@@QBEHKAAVCString@@@Z 5f412a74 f inet.obj
 0001:00011acf       ?Close@CInternetConnection@@MAEXXZ 5f412acf f inet.obj
 0001:00011b1a       ?Dump@CInternetConnection@@UBEXAAVCDumpContext@@@Z 5f412b1a f inet.obj
 0001:00011b59       ?AssertValid@CInternetConnection@@UBEXXZ 5f412b59 f inet.obj
 0001:00011b77       ??1CFtpConnection@@UAE@XZ  5f412b77 f inet.obj
 0001:00011bf8       ??0CFtpConnection@@QAE@PAVCInternetSession@@PAXPBGK@Z 5f412bf8 f inet.obj
 0001:00011d4b       ??0CFtpConnection@@QAE@PAVCInternetSession@@PBG11KGH@Z 5f412d4b f inet.obj
 0001:00011ec2       ?Close@CFtpConnection@@UAEXXZ 5f412ec2 f inet.obj
 0001:00011ee0       ?Remove@CFtpConnection@@QAEHPBG@Z 5f412ee0 f inet.obj
 0001:00011f41       ?Rename@CFtpConnection@@QAEHPBG0@Z 5f412f41 f inet.obj
 0001:00011fa6       ?CreateDirectoryW@CFtpConnection@@QAEHPBG@Z 5f412fa6 f inet.obj
 0001:00012007       ?RemoveDirectoryW@CFtpConnection@@QAEHPBG@Z 5f413007 f inet.obj
 0001:00012068       ?SetCurrentDirectoryW@CFtpConnection@@QAEHPBG@Z 5f413068 f inet.obj
 0001:000120c9       ?GetCurrentDirectoryW@CFtpConnection@@QBEHPAGPAK@Z 5f4130c9 f inet.obj
 0001:00012150       ?GetCurrentDirectoryAsURL@CFtpConnection@@QBEHAAVCString@@@Z 5f413150 f inet.obj
 0001:00012277       ?GetCurrentDirectoryAsURL@CFtpConnection@@QBEHPAGPAK@Z 5f413277 f inet.obj
 0001:00012377       ?GetCurrentDirectoryW@CFtpConnection@@QBEHAAVCString@@@Z 5f413377 f inet.obj
 0001:0001241d       ?OpenFile@CFtpConnection@@QAEPAVCInternetFile@@PBGKKK@Z 5f41341d f inet.obj
 0001:0001259d       ?PutFile@CFtpConnection@@QAEHPBG0KK@Z 5f41359d f inet.obj
 0001:00012661       ?GetFile@CFtpConnection@@QAEHPBG0HKKK@Z 5f413661 f inet.obj
 0001:0001274f       ?Dump@CFtpConnection@@UBEXAAVCDumpContext@@@Z 5f41374f f inet.obj
 0001:0001278d       ?AssertValid@CFtpConnection@@UBEXXZ 5f41378d f inet.obj
 0001:00012802       ??1CGopherConnection@@UAE@XZ 5f413802 f inet.obj
 0001:0001286a       ??0CGopherConnection@@QAE@PAVCInternetSession@@PBG11KG@Z 5f41386a f inet.obj
 0001:000129c4       ??0CGopherConnection@@QAE@PAVCInternetSession@@PAXPBGK@Z 5f4139c4 f inet.obj
 0001:00012b0a       ?CreateLocator@CGopherConnection@@SA?AVCGopherLocator@@PBG@Z 5f413b0a f inet.obj
 0001:00012ba6       ?CreateLocator@CGopherConnection@@SA?AVCGopherLocator@@PBG00KG@Z 5f413ba6 f inet.obj
 0001:00012c84       ?CreateLocator@CGopherConnection@@QAE?AVCGopherLocator@@PBG0K@Z 5f413c84 f inet.obj
 0001:00012d84       ?GetAttribute@CGopherConnection@@QAEHAAVCGopherLocator@@VCString@@AAV3@@Z 5f413d84 f inet.obj
 0001:00012e5e       ?OpenFile@CGopherConnection@@QAEPAVCGopherFile@@AAVCGopherLocator@@KPBGK@Z 5f413e5e f inet.obj
 0001:00012f7c       ?Close@CGopherConnection@@UAEXXZ 5f413f7c f inet.obj
 0001:00012f9a       ?Dump@CGopherConnection@@UBEXAAVCDumpContext@@@Z 5f413f9a f inet.obj
 0001:00012fd8       ?AssertValid@CGopherConnection@@UBEXXZ 5f413fd8 f inet.obj
 0001:0001304d       ??1CHttpConnection@@UAE@XZ 5f41404d f inet.obj
 0001:000130ce       ??0CHttpConnection@@QAE@PAVCInternetSession@@PAXPBGK@Z 5f4140ce f inet.obj
 0001:0001322f       ??0CHttpConnection@@QAE@PAVCInternetSession@@PBGG11K@Z 5f41422f f inet.obj
 0001:00013382       ?Close@CHttpConnection@@UAEXXZ 5f414382 f inet.obj
 0001:000133a0       ?OpenRequest@CHttpConnection@@QAEPAVCHttpFile@@PBG00KPAPBG0K@Z 5f4143a0 f inet.obj
 0001:000134c5       ?OpenRequest@CHttpConnection@@QAEPAVCHttpFile@@HPBG0KPAPBG0K@Z 5f4144c5 f inet.obj
 0001:00013592       ?Dump@CHttpConnection@@UBEXAAVCDumpContext@@@Z 5f414592 f inet.obj
 0001:000135d0       ?AssertValid@CHttpConnection@@UBEXXZ 5f4145d0 f inet.obj
 0001:00013645       ??0CHttpFile@@IAE@PAX0PBG11K@Z 5f414645 f inet.obj
 0001:00013728       ??0CHttpFile@@IAE@PAXPBG1PAVCHttpConnection@@@Z 5f414728 f inet.obj
 0001:00013838       ??1CHttpFile@@UAE@XZ       5f414838 f inet.obj
 0001:000138d2       ?Close@CHttpFile@@UAEXXZ   5f4148d2 f inet.obj
 0001:000138f0       ?ErrorDlg@CHttpFile@@QAEKPAVCWnd@@KKPAPAX@Z 5f4148f0 f inet.obj
 0001:00013975       ?GetVerb@CHttpFile@@QBE?AVCString@@XZ 5f414975 f inet.obj
 0001:00013a1e       ?GetObjectW@CHttpFile@@QBE?AVCString@@XZ 5f414a1e f inet.obj
 0001:00013ac7       ?GetFileURL@CHttpFile@@UBE?AVCString@@XZ 5f414ac7 f inet.obj
 0001:00013c04       ?AddRequestHeaders@CHttpFile@@QAEHPBGKH@Z 5f414c04 f inet.obj
 0001:00013cc9       ?AddRequestHeaders@CHttpFile@@QAEHAAVCString@@K@Z 5f414cc9 f inet.obj
 0001:00013cff       ?SendRequest@CHttpFile@@QAEHPBGKPAXK@Z 5f414cff f inet.obj
 0001:00013de2       ?SendRequest@CHttpFile@@QAEHAAVCString@@PAXK@Z 5f414de2 f inet.obj
 0001:00013e80       ?QueryInfo@CHttpFile@@QBEHKPAXPAK1@Z 5f414e80 f inet.obj
 0001:00013f47       ?QueryInfo@CHttpFile@@QBEHKPAU_SYSTEMTIME@@PAK@Z 5f414f47 f inet.obj
 0001:00013fa0       ?QueryInfoStatusCode@CHttpFile@@QBEHAAK@Z 5f414fa0 f inet.obj
 0001:00014047       ?QueryInfo@CHttpFile@@QBEHKAAVCString@@PAK@Z 5f415047 f inet.obj
 0001:00014156       ?Dump@CHttpFile@@MBEXAAVCDumpContext@@@Z 5f415156 f inet.obj
 0001:000141a2       ?AssertValid@CHttpFile@@MBEXXZ 5f4151a2 f inet.obj
 0001:000141c0       ??0CGopherFile@@IAE@PAXAAVCGopherLocator@@PAVCGopherConnection@@@Z 5f4151c0 f inet.obj
 0001:00014294       ??0CGopherFile@@IAE@PAX0PBGKK@Z 5f415294 f inet.obj
 0001:00014340       ??1CGopherFile@@UAE@XZ     5f415340 f inet.obj
 0001:000143c1       ?Close@CGopherFile@@UAEXXZ 5f4153c1 f inet.obj
 0001:000143df       ?Write@CGopherFile@@UAEXPBXI@Z 5f4153df f inet.obj
 0001:00014414       ?WriteString@CGopherFile@@UAEXPBG@Z 5f415414 f inet.obj
 0001:00014449       ?Dump@CGopherFile@@UBEXAAVCDumpContext@@@Z 5f415449 f inet.obj
 0001:0001446d       ?AssertValid@CGopherFile@@UBEXXZ 5f41546d f inet.obj
 0001:0001448b       ??0CFtpFileFind@@QAE@PAVCFtpConnection@@K@Z 5f41548b f inet.obj
 0001:0001457b       ??1CFtpFileFind@@UAE@XZ    5f41557b f inet.obj
 0001:000145e3       ?FindFile@CFtpFileFind@@UAEHPBGK@Z 5f4155e3 f inet.obj
 0001:00014809       ?FindNextFileW@CFtpFileFind@@UAEHXZ 5f415809 f inet.obj
 0001:000148bd       ?CloseContext@CFtpFileFind@@MAEXXZ 5f4158bd f inet.obj
 0001:00014904       ?GetFileURL@CFtpFileFind@@UBE?AVCString@@XZ 5f415904 f inet.obj
 0001:00014a41       ?Dump@CFtpFileFind@@UBEXAAVCDumpContext@@@Z 5f415a41 f inet.obj
 0001:00014a80       ?AssertValid@CFtpFileFind@@UBEXXZ 5f415a80 f inet.obj
 0001:00014a9e       ??0CGopherFileFind@@QAE@PAVCGopherConnection@@K@Z 5f415a9e f inet.obj
 0001:00014b85       ??1CGopherFileFind@@UAE@XZ 5f415b85 f inet.obj
 0001:00014bed       ?FindFile@CGopherFileFind@@UAEHPBGK@Z 5f415bed f inet.obj
 0001:00014c88       ?FindFile@CGopherFileFind@@UAEHAAVCGopherLocator@@PBGK@Z 5f415c88 f inet.obj
 0001:00014d3d       ?FindNextFileW@CGopherFileFind@@UAEHXZ 5f415d3d f inet.obj
 0001:00014df1       ?CloseContext@CGopherFileFind@@MAEXXZ 5f415df1 f inet.obj
 0001:00014e38       ?GetFileName@CGopherFileFind@@UBE?AVCString@@XZ 5f415e38 f inet.obj
 0001:00014ea7       ?GetFilePath@CGopherFileFind@@UBE?AVCString@@XZ 5f415ea7 f inet.obj
 0001:00014f16       ?GetFileTitle@CGopherFileFind@@UBE?AVCString@@XZ 5f415f16 f inet.obj
 0001:00014f85       ?IsDots@CGopherFileFind@@UBEHXZ 5f415f85 f inet.obj
 0001:00014f9d       ?GetLastWriteTime@CGopherFileFind@@UBEHPAU_FILETIME@@@Z 5f415f9d f inet.obj
 0001:0001504f       ?GetLastAccessTime@CGopherFileFind@@UBEHPAU_FILETIME@@@Z 5f41604f f inet.obj
 0001:00015076       ?GetCreationTime@CGopherFileFind@@UBEHPAU_FILETIME@@@Z 5f416076 f inet.obj
 0001:0001509d       ?GetLastWriteTime@CGopherFileFind@@UBEHAAVCTime@@@Z 5f41609d f inet.obj
 0001:0001512a       ?GetCreationTime@CGopherFileFind@@UBEHAAVCTime@@@Z 5f41612a f inet.obj
 0001:00015151       ?GetLastAccessTime@CGopherFileFind@@UBEHAAVCTime@@@Z 5f416151 f inet.obj
 0001:00015178       ?GetFileURL@CGopherFileFind@@UBE?AVCString@@XZ 5f416178 f inet.obj
 0001:000151e7       ?GetRoot@CGopherFileFind@@UBE?AVCString@@XZ 5f4161e7 f inet.obj
 0001:00015256       ?GetLocator@CGopherFileFind@@QBE?AVCGopherLocator@@XZ 5f416256 f inet.obj
 0001:00015315       ?GetScreenName@CGopherFileFind@@QBE?AVCString@@XZ 5f416315 f inet.obj
 0001:000153f8       ?GetLength@CGopherFileFind@@UBEKXZ 5f4163f8 f inet.obj
 0001:00015446       ?GetLength64@CGopherFileFind@@UBE_JXZ 5f416446 f inet.obj
 0001:000154a7       ?Dump@CGopherFileFind@@UBEXAAVCDumpContext@@@Z 5f4164a7 f inet.obj
 0001:000154e6       ?AssertValid@CGopherFileFind@@UBEXXZ 5f4164e6 f inet.obj
 0001:00015504       ??0CGopherLocator@@AAE@PBGK@Z 5f416504 f inet.obj
 0001:000155ce       ??1CGopherLocator@@UAE@XZ  5f4165ce f inet.obj
 0001:0001564f       ?AfxThrowInternetException@@YGXKK@Z 5f41664f f inet.obj
 0001:0001571a       ?GetErrorMessage@CInternetException@@UAEHPAGIPAI@Z 5f41671a f inet.obj
 0001:000158ea       ??0CInternetException@@QAE@K@Z 5f4168ea f inet.obj
 0001:00015964       ??1CInternetException@@UAE@XZ 5f416964 f inet.obj
 0001:000159cc       ?Dump@CInternetException@@UBEXAAVCDumpContext@@@Z 5f4169cc f inet.obj
 0001:00015a26       ?GetContext@CInternetSession@@QBEKXZ 5f416a26 f inet.obj
 0001:00015a42       ?GetServerName@CInternetConnection@@QBE?AVCString@@XZ 5f416a42 f inet.obj
 0001:00015ab3       ?GetSession@CInternetConnection@@QBEPAVCInternetSession@@XZ 5f416ab3 f inet.obj
 0001:00015acf       ??BCInternetSession@@QBEPAXXZ 5f416acf f inet.obj
 0001:00015aeb       ?SetOption@CInternetSession@@QAEHKKK@Z 5f416aeb f inet.obj
 0001:00015b19       ??BCGopherLocator@@QBEPBGXZ 5f416b19 f inet.obj
 0001:00015b3a       ?GetLocatorType@CGopherLocator@@QBEHAAK@Z 5f416b3a f inet.obj
 0001:00015b68       ??0CGopherLocator@@QAE@ABV0@@Z 5f416b68 f inet.obj
 0001:00015c12       ??BCInternetConnection@@QBEPAXXZ 5f416c12 f inet.obj
 0001:00015c2e       ?GetContext@CInternetConnection@@QBEKXZ 5f416c2e f inet.obj
 0001:00015c4a       ?SetOption@CInternetConnection@@QAEHKKK@Z 5f416c4a f inet.obj
 0001:00015c78       ?GetContext@CInternetFile@@QBEKXZ 5f416c78 f inet.obj
 0001:00015c94       ??BCInternetFile@@QBEPAXXZ 5f416c94 f inet.obj
 0001:00015cb0       ?SetOption@CInternetFile@@QAEHKKK@Z 5f416cb0 f inet.obj
 0001:00015ce0       ??_GCInternetSession@@UAEPAXI@Z 5f416ce0 f inet.obj
 0001:00015d20       ??_GCInternetFile@@UAEPAXI@Z 5f416d20 f inet.obj
 0001:00015d20       ??_ECInternetFile@@UAEPAXI@Z 5f416d20 f inet.obj
 0001:00015d60       ??_GCInternetConnection@@UAEPAXI@Z 5f416d60 f inet.obj
 0001:00015d60       ??_ECInternetConnection@@UAEPAXI@Z 5f416d60 f inet.obj
 0001:00015da0       ??_GCFtpConnection@@UAEPAXI@Z 5f416da0 f inet.obj
 0001:00015da0       ??_ECFtpConnection@@UAEPAXI@Z 5f416da0 f inet.obj
 0001:00015de0       ??_ECGopherConnection@@UAEPAXI@Z 5f416de0 f inet.obj
 0001:00015de0       ??_GCGopherConnection@@UAEPAXI@Z 5f416de0 f inet.obj
 0001:00015e20       ??_GCHttpConnection@@UAEPAXI@Z 5f416e20 f inet.obj
 0001:00015e20       ??_ECHttpConnection@@UAEPAXI@Z 5f416e20 f inet.obj
 0001:00015e60       ??_GCHttpFile@@UAEPAXI@Z   5f416e60 f inet.obj
 0001:00015e60       ??_ECHttpFile@@UAEPAXI@Z   5f416e60 f inet.obj
 0001:00015ea0       ??_GCGopherFile@@UAEPAXI@Z 5f416ea0 f inet.obj
 0001:00015ea0       ??_ECGopherFile@@UAEPAXI@Z 5f416ea0 f inet.obj
 0001:00015ee0       ??_GCFtpFileFind@@UAEPAXI@Z 5f416ee0 f inet.obj
 0001:00015ee0       ??_ECFtpFileFind@@UAEPAXI@Z 5f416ee0 f inet.obj
 0001:00015f20       ??_ECGopherFileFind@@UAEPAXI@Z 5f416f20 f inet.obj
 0001:00015f20       ??_GCGopherFileFind@@UAEPAXI@Z 5f416f20 f inet.obj
 0001:00015f60       ??_GCGopherLocator@@UAEPAXI@Z 5f416f60 f inet.obj
 0001:00015f60       ??_ECGopherLocator@@UAEPAXI@Z 5f416f60 f inet.obj
 0001:00015fa0       ??_ECInternetException@@UAEPAXI@Z 5f416fa0 f inet.obj
 0001:00015fa0       ??_GCInternetException@@UAEPAXI@Z 5f416fa0 f inet.obj
 0001:00015fe0       ??0CFileFind@@QAE@XZ       5f416fe0 f filefind.obj
 0001:00016091       ??1CFileFind@@UAE@XZ       5f417091 f filefind.obj
 0001:0001611a       ?Close@CFileFind@@QAEXXZ   5f41711a f filefind.obj
 0001:000161c3       ?CloseContext@CFileFind@@MAEXXZ 5f4171c3 f filefind.obj
 0001:000161e6       ?FindFile@CFileFind@@UAEHPBGK@Z 5f4171e6 f filefind.obj
 0001:00016398       ?MatchesMask@CFileFind@@UBEHK@Z 5f417398 f filefind.obj
 0001:00016418       ?GetLastAccessTime@CFileFind@@UBEHPAU_FILETIME@@@Z 5f417418 f filefind.obj
 0001:000164c8       ?GetLastWriteTime@CFileFind@@UBEHPAU_FILETIME@@@Z 5f4174c8 f filefind.obj
 0001:00016578       ?GetCreationTime@CFileFind@@UBEHPAU_FILETIME@@@Z 5f417578 f filefind.obj
 0001:00016606       ?GetLastAccessTime@CFileFind@@UBEHAAVCTime@@@Z 5f417606 f filefind.obj
 0001:00016691       ?GetLastWriteTime@CFileFind@@UBEHAAVCTime@@@Z 5f417691 f filefind.obj
 0001:0001671c       ?GetCreationTime@CFileFind@@UBEHAAVCTime@@@Z 5f41771c f filefind.obj
 0001:000167a7       ?IsDots@CFileFind@@UBEHXZ  5f4177a7 f filefind.obj
 0001:00016872       ?FindNextFileW@CFileFind@@UAEHXZ 5f417872 f filefind.obj
 0001:00016926       ?GetFileURL@CFileFind@@UBE?AVCString@@XZ 5f417926 f filefind.obj
 0001:00016a20       ?GetRoot@CFileFind@@UBE?AVCString@@XZ 5f417a20 f filefind.obj
 0001:00016ac9       ?GetFilePath@CFileFind@@UBE?AVCString@@XZ 5f417ac9 f filefind.obj
 0001:00016c11       ?GetFileTitle@CFileFind@@UBE?AVCString@@XZ 5f417c11 f filefind.obj
 0001:00016d28       ?GetFileName@CFileFind@@UBE?AVCString@@XZ 5f417d28 f filefind.obj
 0001:00016e0e       ?GetLength@CFileFind@@QBEKXZ 5f417e0e f filefind.obj
 0001:00016e7e       ?GetLength64@CFileFind@@QBE_JXZ 5f417e7e f filefind.obj
 0001:00016efe       ?Dump@CFileFind@@MBEXAAVCDumpContext@@@Z 5f417efe f filefind.obj
 0001:00016f3d       ?AssertValid@CFileFind@@MBEXXZ 5f417f3d f filefind.obj
 0001:00016fd0       ??_GCFileFind@@UAEPAXI@Z   5f417fd0 f filefind.obj
 0001:00017010       ?IsEmpty@CSimpleList@@QBEHXZ 5f418010 f dllinit.obj
 0001:00017040       ?GetHead@?$CTypedSimpleList@PAUCRuntimeClass@@@@QAEPAUCRuntimeClass@@XZ 5f418040 f dllinit.obj
 0001:00017060       ?GetHead@?$CTypedSimpleList@PAVCOleObjectFactory@@@@QAEPAVCOleObjectFactory@@XZ 5f418060 f dllinit.obj
 0001:00017080       ?AddHead@?$CTypedSimpleList@PAVCDynLinkLibrary@@@@QAEXPAVCDynLinkLibrary@@@Z 5f418080 f dllinit.obj
 0001:000170b0       ?Remove@?$CTypedSimpleList@PAVCDynLinkLibrary@@@@QAEHPAVCDynLinkLibrary@@@Z 5f4180b0 f dllinit.obj
 0001:000170e0       ??0type_info@@AAE@ABV0@@Z  5f4180e0 f msvcrtd:ti_inst.obj
 0001:00017110       ??_Gtype_info@@UAEPAXI@Z   5f418110 f msvcrtd:ti_inst.obj
 0001:00017110       ??_Etype_info@@UAEPAXI@Z   5f418110 f msvcrtd:ti_inst.obj
 0001:00017150       ??4type_info@@AAEAAV0@ABV0@@Z 5f418150 f msvcrtd:ti_inst.obj
 0001:00017170       ___CxxFrameHandler         5f418170 f msvcrtd:MSVCRTD.dll
 0001:00017180       __onexit                   5f418180 f msvcrtd:atonexit.obj
 0001:00017250       _atexit                    5f418250 f msvcrtd:atonexit.obj
 0001:00017280       __CxxThrowException@8      5f418280 f msvcrtd:MSVCRTD.dll
 0001:00017286       __CrtDbgReport             5f418286 f msvcrtd:MSVCRTD.dll
 0001:00017290       __alloca_probe             5f418290   msvcrtd:chkstk.obj
 0001:00017290       __chkstk                   5f418290   msvcrtd:chkstk.obj
 0001:000172c0       _wcslen                    5f4182c0 f msvcrtd:MSVCRTD.dll
 0001:000172c6       __gcvt                     5f4182c6 f msvcrtd:MSVCRTD.dll
 0001:000172cc       _memcpy                    5f4182cc f msvcrtd:MSVCRTD.dll
 0001:000172d2       _memmove                   5f4182d2 f msvcrtd:MSVCRTD.dll
 0001:000172d8       __purecall                 5f4182d8 f msvcrtd:MSVCRTD.dll
 0001:000172de       _memcmp                    5f4182de f msvcrtd:MSVCRTD.dll
 0001:000172e4       __except_handler3          5f4182e4 f msvcrtd:MSVCRTD.dll
 0001:000172ea       __CrtSetReportMode         5f4182ea f msvcrtd:MSVCRTD.dll
 0001:000172f0       __CrtSetReportHook         5f4182f0 f msvcrtd:MSVCRTD.dll
 0001:000172f6       __CrtSetDumpClient         5f4182f6 f msvcrtd:MSVCRTD.dll
 0001:000172fc       __CrtSetDbgFlag            5f4182fc f msvcrtd:MSVCRTD.dll
 0001:00017302       __CrtDumpMemoryLeaks       5f418302 f msvcrtd:MSVCRTD.dll
 0001:00017308       _vswprintf                 5f418308 f msvcrtd:MSVCRTD.dll
 0001:0001730e       __free_dbg                 5f41830e f msvcrtd:MSVCRTD.dll
 0001:00017314       __malloc_dbg               5f418314 f msvcrtd:MSVCRTD.dll
 0001:0001731a       __CrtSetAllocHook          5f41831a f msvcrtd:MSVCRTD.dll
 0001:00017320       __CrtSetBreakAlloc         5f418320 f msvcrtd:MSVCRTD.dll
 0001:00017326       __CrtCheckMemory           5f418326 f msvcrtd:MSVCRTD.dll
 0001:0001732c       __CrtIsMemoryBlock         5f41832c f msvcrtd:MSVCRTD.dll
 0001:00017332       _memset                    5f418332 f msvcrtd:MSVCRTD.dll
 0001:00017338       __CrtMemDifference         5f418338 f msvcrtd:MSVCRTD.dll
 0001:0001733e       __CrtMemDumpStatistics     5f41833e f msvcrtd:MSVCRTD.dll
 0001:00017344       __CrtMemCheckpoint         5f418344 f msvcrtd:MSVCRTD.dll
 0001:0001734a       __CrtMemDumpAllObjectsSince 5f41834a f msvcrtd:MSVCRTD.dll
 0001:00017350       __CrtDoForAllClientObjects 5f418350 f msvcrtd:MSVCRTD.dll
 0001:00017356       _abort                     5f418356 f msvcrtd:MSVCRTD.dll
 0001:0001735c       _wcscmp                    5f41835c f msvcrtd:MSVCRTD.dll
 0001:00017362       __wcsicmp                  5f418362 f msvcrtd:MSVCRTD.dll
 0001:00017368       _wcscoll                   5f418368 f msvcrtd:MSVCRTD.dll
 0001:0001736e       __get_osfhandle            5f41836e f msvcrtd:MSVCRTD.dll
 0001:00017374       ___doserrno                5f418374 f msvcrtd:MSVCRTD.dll
 0001:0001737a       __fdopen                   5f41837a f msvcrtd:MSVCRTD.dll
 0001:00017380       __open_osfhandle           5f418380 f msvcrtd:MSVCRTD.dll
 0001:00017386       _clearerr                  5f418386 f msvcrtd:MSVCRTD.dll
 0001:0001738c       _fread                     5f41838c f msvcrtd:MSVCRTD.dll
 0001:00017392       _fwrite                    5f418392 f msvcrtd:MSVCRTD.dll
 0001:00017398       _fputws                    5f418398 f msvcrtd:MSVCRTD.dll
 0001:0001739e       _fgetws                    5f41839e f msvcrtd:MSVCRTD.dll
 0001:000173a4       _ftell                     5f4183a4 f msvcrtd:MSVCRTD.dll
 0001:000173aa       _fseek                     5f4183aa f msvcrtd:MSVCRTD.dll
 0001:000173b0       _fflush                    5f4183b0 f msvcrtd:MSVCRTD.dll
 0001:000173b6       _fclose                    5f4183b6 f msvcrtd:MSVCRTD.dll
 0001:000173bc       _malloc                    5f4183bc f msvcrtd:MSVCRTD.dll
 0001:000173c2       _realloc                   5f4183c2 f msvcrtd:MSVCRTD.dll
 0001:000173c8       _free                      5f4183c8 f msvcrtd:MSVCRTD.dll
 0001:000173ce       _wcschr                    5f4183ce f msvcrtd:MSVCRTD.dll
 0001:000173d4       _wcspbrk                   5f4183d4 f msvcrtd:MSVCRTD.dll
 0001:000173da       __wcsrev                   5f4183da f msvcrtd:MSVCRTD.dll
 0001:000173e0       _wcsspn                    5f4183e0 f msvcrtd:MSVCRTD.dll
 0001:000173e6       _wcscspn                   5f4183e6 f msvcrtd:MSVCRTD.dll
 0001:000173ec       _wcsrchr                   5f4183ec f msvcrtd:MSVCRTD.dll
 0001:000173f2       _wcsstr                    5f4183f2 f msvcrtd:MSVCRTD.dll
 0001:000173f8       _iswdigit                  5f4183f8 f msvcrtd:MSVCRTD.dll
 0001:000173fe       __wtoi                     5f4183fe f msvcrtd:MSVCRTD.dll
 0001:00017404       _iswspace                  5f418404 f msvcrtd:MSVCRTD.dll
 0001:0001740a       _mktime                    5f41840a f msvcrtd:MSVCRTD.dll
 0001:00017410       _time                      5f418410 f msvcrtd:MSVCRTD.dll
 0001:00017416       _gmtime                    5f418416 f msvcrtd:MSVCRTD.dll
 0001:0001741c       _localtime                 5f41841c f msvcrtd:MSVCRTD.dll
 0001:00017422       _ctime                     5f418422 f msvcrtd:MSVCRTD.dll
 0001:00017428       _wcsftime                  5f418428 f msvcrtd:MSVCRTD.dll
 0001:0001742e       __msize                    5f41842e f msvcrtd:MSVCRTD.dll
 0001:00017434       _calloc                    5f418434 f msvcrtd:MSVCRTD.dll
 0001:00017440       __alldiv                   5f418440 f msvcrtd:lldiv.obj
 0001:000174f0       __allmul                   5f4184f0 f msvcrtd:llmul.obj
 0001:00017524       _abs                       5f418524 f msvcrtd:MSVCRTD.dll
 0001:0001752a       _wcstoul                   5f41852a f msvcrtd:MSVCRTD.dll
 0001:00017530       _wcstol                    5f418530 f msvcrtd:MSVCRTD.dll
 0001:00017536       _swprintf                  5f418536 f msvcrtd:MSVCRTD.dll
 0001:0001753c       _wcstod                    5f41853c f msvcrtd:MSVCRTD.dll
 0001:00017542       __expand                   5f418542 f msvcrtd:MSVCRTD.dll
 0001:00017548       __endthreadex              5f418548 f msvcrtd:MSVCRTD.dll
 0001:0001754e       __beginthreadex            5f41854e f msvcrtd:MSVCRTD.dll
 0001:00017554       __wcsdup                   5f418554 f msvcrtd:MSVCRTD.dll
 0001:0001755a       ___p___argc                5f41855a f msvcrtd:MSVCRTD.dll
 0001:00017560       ___p___wargv               5f418560 f msvcrtd:MSVCRTD.dll
 0001:00017570       ??_L@YGXPAXIHP6EX0@Z1@Z    5f418570 f msvcrtd:ehvecctr.obj
 0001:00017630       ??_M@YGXPAXIHP6EX0@Z@Z     5f418630 f msvcrtd:ehvecdtr.obj
 0001:000176e0       ?__ArrayUnwind@@YGXPAXIHP6EX0@Z@Z 5f4186e0 f msvcrtd:ehvecdtr.obj
 0001:000177b6       _wcsncmp                   5f4187b6 f msvcrtd:MSVCRTD.dll
 0001:000177bc       __wtol                     5f4187bc f msvcrtd:MSVCRTD.dll
 0001:000177c2       _wcscpy                    5f4187c2 f msvcrtd:MSVCRTD.dll
 0001:000177c8       __wfullpath                5f4187c8 f msvcrtd:MSVCRTD.dll
 0001:000177d0       __CRT_INIT@12              5f4187d0 f msvcrtd:crtdll.obj
 0001:000179d0       __DllMainCRTStartup@12     5f4189d0 f msvcrtd:crtdll.obj
 0001:00017b0a       ??1type_info@@UAE@XZ       5f418b0a f msvcrtd:MSVCRTD.dll
 0001:00017b10       ___dllonexit               5f418b10 f msvcrtd:MSVCRTD.dll
 0001:00017b16       ?terminate@@YAXXZ          5f418b16 f msvcrtd:MSVCRTD.dll
 0001:00017b1c       __initterm                 5f418b1c f msvcrtd:MSVCRTD.dll
 0001:00017b22       _SetLastError@4            5f418b22 f kernel32:KERNEL32.dll
 0001:00017b28       _GetLastError@0            5f418b28 f kernel32:KERNEL32.dll
 0001:00017b2e       _lstrcpynW@12              5f418b2e f kernel32:KERNEL32.dll
 0001:00017b34       _IsBadStringPtrW@8         5f418b34 f kernel32:KERNEL32.dll
 0001:00017b3a       _IsBadStringPtrA@8         5f418b3a f kernel32:KERNEL32.dll
 0001:00017b40       _IsBadWritePtr@8           5f418b40 f kernel32:KERNEL32.dll
 0001:00017b46       _IsBadReadPtr@8            5f418b46 f kernel32:KERNEL32.dll
 0001:00017b4c       _lstrlenW@4                5f418b4c f kernel32:KERNEL32.dll
 0001:00017b52       _lstrcmpA@8                5f418b52 f kernel32:KERNEL32.dll
 0001:00017b58       _lstrlenA@4                5f418b58 f kernel32:KERNEL32.dll
 0001:00017b5e       _GetPrivateProfileIntW@16  5f418b5e f kernel32:KERNEL32.dll
 0001:00017b64       _SetThreadPriority@8       5f418b64 f kernel32:KERNEL32.dll
 0001:00017b6a       _GetThreadPriority@4       5f418b6a f kernel32:KERNEL32.dll
 0001:00017b70       _ResumeThread@4            5f418b70 f kernel32:KERNEL32.dll
 0001:00017b76       _SuspendThread@4           5f418b76 f kernel32:KERNEL32.dll
 0001:00017b7c       _DuplicateHandle@28        5f418b7c f kernel32:KERNEL32.dll
 0001:00017b82       _GetCurrentProcess@0       5f418b82 f kernel32:KERNEL32.dll
 0001:00017b88       _CreateFileW@28            5f418b88 f kernel32:KERNEL32.dll
 0001:00017b8e       _ReadFile@20               5f418b8e f kernel32:KERNEL32.dll
 0001:00017b94       _WriteFile@20              5f418b94 f kernel32:KERNEL32.dll
 0001:00017b9a       _SetFilePointer@16         5f418b9a f kernel32:KERNEL32.dll
 0001:00017ba0       _FlushFileBuffers@4        5f418ba0 f kernel32:KERNEL32.dll
 0001:00017ba6       _CloseHandle@4             5f418ba6 f kernel32:KERNEL32.dll
 0001:00017bac       _LockFile@20               5f418bac f kernel32:KERNEL32.dll
 0001:00017bb2       _UnlockFile@20             5f418bb2 f kernel32:KERNEL32.dll
 0001:00017bb8       _SetEndOfFile@4            5f418bb8 f kernel32:KERNEL32.dll
 0001:00017bbe       _MoveFileW@8               5f418bbe f kernel32:KERNEL32.dll
 0001:00017bc4       _DeleteFileW@4             5f418bc4 f kernel32:KERNEL32.dll
 0001:00017bca       _FreeLibrary@4             5f418bca f kernel32:KERNEL32.dll
 0001:00017bd0       _GetProcAddress@8          5f418bd0 f kernel32:KERNEL32.dll
 0001:00017bd6       _LoadLibraryW@4            5f418bd6 f kernel32:KERNEL32.dll
 0001:00017bdc       _lstrcpyW@8                5f418bdc f kernel32:KERNEL32.dll
 0001:00017be2       _FindClose@4               5f418be2 f kernel32:KERNEL32.dll
 0001:00017be8       _FindFirstFileW@8          5f418be8 f kernel32:KERNEL32.dll
 0001:00017bee       _GetVolumeInformationW@32  5f418bee f kernel32:KERNEL32.dll
 0001:00017bf4       _GetFullPathNameW@16       5f418bf4 f kernel32:KERNEL32.dll
 0001:00017bfa       _GetStringTypeExW@20       5f418bfa f kernel32:KERNEL32.dll
 0001:00017c00       _GetThreadLocale@0         5f418c00 f kernel32:KERNEL32.dll
 0001:00017c06       _lstrcmpiW@8               5f418c06 f kernel32:KERNEL32.dll
 0001:00017c0c       _GetShortPathNameW@12      5f418c0c f kernel32:KERNEL32.dll
 0001:00017c12       _GetModuleFileNameW@12     5f418c12 f kernel32:KERNEL32.dll
 0001:00017c18       _GlobalSize@4              5f418c18 f kernel32:KERNEL32.dll
 0001:00017c1e       _GlobalLock@4              5f418c1e f kernel32:KERNEL32.dll
 0001:00017c24       _GlobalAlloc@8             5f418c24 f kernel32:KERNEL32.dll
 0001:00017c2a       _GlobalReAlloc@12          5f418c2a f kernel32:KERNEL32.dll
 0001:00017c30       _GlobalUnlock@4            5f418c30 f kernel32:KERNEL32.dll
 0001:00017c36       _GlobalFree@4              5f418c36 f kernel32:KERNEL32.dll
 0001:00017c3c       _GetFileSize@8             5f418c3c f kernel32:KERNEL32.dll
 0001:00017c42       _GetFileTime@16            5f418c42 f kernel32:KERNEL32.dll
 0001:00017c48       _LocalFileTimeToFileTime@8 5f418c48 f kernel32:KERNEL32.dll
 0001:00017c4e       _SystemTimeToFileTime@8    5f418c4e f kernel32:KERNEL32.dll
 0001:00017c54       _SetFileAttributesW@8      5f418c54 f kernel32:KERNEL32.dll
 0001:00017c5a       _SetFileTime@16            5f418c5a f kernel32:KERNEL32.dll
 0001:00017c60       _GetFileAttributesW@4      5f418c60 f kernel32:KERNEL32.dll
 0001:00017c66       _InterlockedIncrement@4    5f418c66 f kernel32:KERNEL32.dll
 0001:00017c6c       _InterlockedDecrement@4    5f418c6c f kernel32:KERNEL32.dll
 0001:00017c72       _WideCharToMultiByte@32    5f418c72 f kernel32:KERNEL32.dll
 0001:00017c78       _MultiByteToWideChar@24    5f418c78 f kernel32:KERNEL32.dll
 0001:00017c7e       _LocalFree@4               5f418c7e f kernel32:KERNEL32.dll
 0001:00017c84       _FormatMessageW@28         5f418c84 f kernel32:KERNEL32.dll
 0001:00017c8a       _FileTimeToSystemTime@8    5f418c8a f kernel32:KERNEL32.dll
 0001:00017c90       _FileTimeToLocalFileTime@8 5f418c90 f kernel32:KERNEL32.dll
 0001:00017c96       _LocalAlloc@8              5f418c96 f kernel32:KERNEL32.dll
 0001:00017c9c       _InitializeCriticalSection@4 5f418c9c f kernel32:KERNEL32.dll
 0001:00017ca2       _TlsAlloc@0                5f418ca2 f kernel32:KERNEL32.dll
 0001:00017ca8       _DeleteCriticalSection@4   5f418ca8 f kernel32:KERNEL32.dll
 0001:00017cae       _GlobalHandle@4            5f418cae f kernel32:KERNEL32.dll
 0001:00017cb4       _TlsFree@4                 5f418cb4 f kernel32:KERNEL32.dll
 0001:00017cba       _LeaveCriticalSection@4    5f418cba f kernel32:KERNEL32.dll
 0001:00017cc0       _EnterCriticalSection@4    5f418cc0 f kernel32:KERNEL32.dll
 0001:00017cc6       _TlsSetValue@8             5f418cc6 f kernel32:KERNEL32.dll
 0001:00017ccc       _LocalReAlloc@12           5f418ccc f kernel32:KERNEL32.dll
 0001:00017cd2       _TlsGetValue@4             5f418cd2 f kernel32:KERNEL32.dll
 0001:00017cd8       _WaitForSingleObject@8     5f418cd8 f kernel32:KERNEL32.dll
 0001:00017cde       _SetEvent@4                5f418cde f kernel32:KERNEL32.dll
 0001:00017ce4       _PulseEvent@4              5f418ce4 f kernel32:KERNEL32.dll
 0001:00017cea       _ResetEvent@4              5f418cea f kernel32:KERNEL32.dll
 0001:00017cf0       _CreateSemaphoreW@16       5f418cf0 f kernel32:KERNEL32.dll
 0001:00017cf6       _ReleaseSemaphore@12       5f418cf6 f kernel32:KERNEL32.dll
 0001:00017cfc       _CreateMutexW@12           5f418cfc f kernel32:KERNEL32.dll
 0001:00017d02       _ReleaseMutex@4            5f418d02 f kernel32:KERNEL32.dll
 0001:00017d08       _CreateEventW@16           5f418d08 f kernel32:KERNEL32.dll
 0001:00017d0e       _WaitForMultipleObjects@16 5f418d0e f kernel32:KERNEL32.dll
 0001:00017d14       _GetCurrentThreadId@0      5f418d14 f kernel32:KERNEL32.dll
 0001:00017d1a       _lstrcatW@8                5f418d1a f kernel32:KERNEL32.dll
 0001:00017d20       _FreeResource@4            5f418d20 f kernel32:KERNEL32.dll
 0001:00017d26       _LockResource@4            5f418d26 f kernel32:KERNEL32.dll
 0001:00017d2c       _LoadResource@8            5f418d2c f kernel32:KERNEL32.dll
 0001:00017d32       _FindResourceW@12          5f418d32 f kernel32:KERNEL32.dll
 0001:00017d38       _GlobalAddAtomW@4          5f418d38 f kernel32:KERNEL32.dll
 0001:00017d3e       _GlobalGetAtomNameW@12     5f418d3e f kernel32:KERNEL32.dll
 0001:00017d44       _MulDiv@12                 5f418d44 f kernel32:KERNEL32.dll
 0001:00017d4a       _GetProfileIntW@12         5f418d4a f kernel32:KERNEL32.dll
 0001:00017d50       _LoadLibraryA@4            5f418d50 f kernel32:KERNEL32.dll
 0001:00017d56       _VirtualProtect@16         5f418d56 f kernel32:KERNEL32.dll
 0001:00017d5c       _SizeofResource@8          5f418d5c f kernel32:KERNEL32.dll
 0001:00017d62       _GetProcessVersion@4       5f418d62 f kernel32:KERNEL32.dll
 0001:00017d68       _GetVersion@0              5f418d68 f kernel32:KERNEL32.dll
 0001:00017d6e       _lstrcmpW@8                5f418d6e f kernel32:KERNEL32.dll
 0001:00017d74       _GlobalFlags@4             5f418d74 f kernel32:KERNEL32.dll
 0001:00017d7a       _GetTempFileNameW@16       5f418d7a f kernel32:KERNEL32.dll
 0001:00017d80       _GetDiskFreeSpaceW@20      5f418d80 f kernel32:KERNEL32.dll
 0001:00017d86       _LocalUnlock@4             5f418d86 f kernel32:KERNEL32.dll
 0001:00017d8c       _LocalLock@4               5f418d8c f kernel32:KERNEL32.dll
 0001:00017d92       _GetTempPathW@8            5f418d92 f kernel32:KERNEL32.dll
 0001:00017d98       _SearchPathW@24            5f418d98 f kernel32:KERNEL32.dll
 0001:00017d9e       _GetCurrentThread@0        5f418d9e f kernel32:KERNEL32.dll
 0001:00017da4       _GlobalDeleteAtom@4        5f418da4 f kernel32:KERNEL32.dll
 0001:00017daa       _SetErrorMode@4            5f418daa f kernel32:KERNEL32.dll
 0001:00017db0       _GetPrivateProfileStringW@24 5f418db0 f kernel32:KERNEL32.dll
 0001:00017db6       _WritePrivateProfileStringW@16 5f418db6 f kernel32:KERNEL32.dll
 0001:00017dbc       _GetCurrentDirectoryW@8    5f418dbc f kernel32:KERNEL32.dll
 0001:00017dc2       _FindNextFileW@8           5f418dc2 f kernel32:KERNEL32.dll
 0001:00017dc8       _GetModuleHandleA@4        5f418dc8 f kernel32:KERNEL32.dll
 0001:00017dce       _lstrcatA@8                5f418dce f kernel32:KERNEL32.dll
 0001:00017dd4       _GetSystemDirectoryA@8     5f418dd4 f kernel32:KERNEL32.dll
 0001:00017dda       _Sleep@4                   5f418dda f kernel32:KERNEL32.dll
 0001:00017de0       _CreateMetaFileW@4         5f418de0 f gdi32:GDI32.dll
 0001:00017de6       _CloseMetaFile@4           5f418de6 f gdi32:GDI32.dll
 0001:00017dec       _CreateEnhMetaFileW@16     5f418dec f gdi32:GDI32.dll
 0001:00017df2       _CloseEnhMetaFile@4        5f418df2 f gdi32:GDI32.dll
 0001:00017df8       _ExtTextOutW@32            5f418df8 f gdi32:GDI32.dll
 0001:00017dfe       _GetObjectW@12             5f418dfe f gdi32:GDI32.dll
 0001:00017e04       _GetStockObject@4          5f418e04 f gdi32:GDI32.dll
 0001:00017e0a       _UnrealizeObject@4         5f418e0a f gdi32:GDI32.dll
 0001:00017e10       _GetObjectType@4           5f418e10 f gdi32:GDI32.dll
 0001:00017e16       _CreatePen@12              5f418e16 f gdi32:GDI32.dll
 0001:00017e1c       _CreatePenIndirect@4       5f418e1c f gdi32:GDI32.dll
 0001:00017e22       _ExtCreatePen@20           5f418e22 f gdi32:GDI32.dll
 0001:00017e28       _CreateSolidBrush@4        5f418e28 f gdi32:GDI32.dll
 0001:00017e2e       _CreateHatchBrush@8        5f418e2e f gdi32:GDI32.dll
 0001:00017e34       _CreateBrushIndirect@4     5f418e34 f gdi32:GDI32.dll
 0001:00017e3a       _CreatePatternBrush@4      5f418e3a f gdi32:GDI32.dll
 0001:00017e40       _CreateDIBPatternBrushPt@8 5f418e40 f gdi32:GDI32.dll
 0001:00017e46       _CreateFontIndirectW@4     5f418e46 f gdi32:GDI32.dll
 0001:00017e4c       _CreateFontW@56            5f418e4c f gdi32:GDI32.dll
 0001:00017e52       _CreateBitmap@20           5f418e52 f gdi32:GDI32.dll
 0001:00017e58       _CreateBitmapIndirect@4    5f418e58 f gdi32:GDI32.dll
 0001:00017e5e       _SetBitmapBits@12          5f418e5e f gdi32:GDI32.dll
 0001:00017e64       _GetBitmapBits@12          5f418e64 f gdi32:GDI32.dll
 0001:00017e6a       _SetBitmapDimensionEx@16   5f418e6a f gdi32:GDI32.dll
 0001:00017e70       _GetBitmapDimensionEx@8    5f418e70 f gdi32:GDI32.dll
 0001:00017e76       _CreateCompatibleBitmap@12 5f418e76 f gdi32:GDI32.dll
 0001:00017e7c       _CreateDiscardableBitmap@12 5f418e7c f gdi32:GDI32.dll
 0001:00017e82       _CreatePalette@4           5f418e82 f gdi32:GDI32.dll
 0001:00017e88       _CreateHalftonePalette@4   5f418e88 f gdi32:GDI32.dll
 0001:00017e8e       _GetPaletteEntries@16      5f418e8e f gdi32:GDI32.dll
 0001:00017e94       _SetPaletteEntries@16      5f418e94 f gdi32:GDI32.dll
 0001:00017e9a       _AnimatePalette@16         5f418e9a f gdi32:GDI32.dll
 0001:00017ea0       _GetNearestPaletteIndex@8  5f418ea0 f gdi32:GDI32.dll
 0001:00017ea6       _ResizePalette@8           5f418ea6 f gdi32:GDI32.dll
 0001:00017eac       _CreateRectRgn@16          5f418eac f gdi32:GDI32.dll
 0001:00017eb2       _CreateRectRgnIndirect@4   5f418eb2 f gdi32:GDI32.dll
 0001:00017eb8       _CreateEllipticRgn@16      5f418eb8 f gdi32:GDI32.dll
 0001:00017ebe       _CreateEllipticRgnIndirect@4 5f418ebe f gdi32:GDI32.dll
 0001:00017ec4       _CreatePolygonRgn@12       5f418ec4 f gdi32:GDI32.dll
 0001:00017eca       _CreatePolyPolygonRgn@16   5f418eca f gdi32:GDI32.dll
 0001:00017ed0       _CreateRoundRectRgn@24     5f418ed0 f gdi32:GDI32.dll
 0001:00017ed6       _PathToRegion@4            5f418ed6 f gdi32:GDI32.dll
 0001:00017edc       _ExtCreateRegion@12        5f418edc f gdi32:GDI32.dll
 0001:00017ee2       _GetRegionData@12          5f418ee2 f gdi32:GDI32.dll
 0001:00017ee8       _SetRectRgn@20             5f418ee8 f gdi32:GDI32.dll
 0001:00017eee       _CombineRgn@16             5f418eee f gdi32:GDI32.dll
 0001:00017ef4       _EqualRgn@8                5f418ef4 f gdi32:GDI32.dll
 0001:00017efa       _OffsetRgn@12              5f418efa f gdi32:GDI32.dll
 0001:00017f00       _GetRgnBox@8               5f418f00 f gdi32:GDI32.dll
 0001:00017f06       _PtInRegion@12             5f418f06 f gdi32:GDI32.dll
 0001:00017f0c       _RectInRegion@8            5f418f0c f gdi32:GDI32.dll
 0001:00017f12       _CreateDCW@16              5f418f12 f gdi32:GDI32.dll
 0001:00017f18       _CreateICW@16              5f418f18 f gdi32:GDI32.dll
 0001:00017f1e       _CreateCompatibleDC@4      5f418f1e f gdi32:GDI32.dll
 0001:00017f24       _GetDeviceCaps@8           5f418f24 f gdi32:GDI32.dll
 0001:00017f2a       _GetBrushOrgEx@8           5f418f2a f gdi32:GDI32.dll
 0001:00017f30       _SetBrushOrgEx@16          5f418f30 f gdi32:GDI32.dll
 0001:00017f36       _EnumObjects@16            5f418f36 f gdi32:GDI32.dll
 0001:00017f3c       _SelectObject@8            5f418f3c f gdi32:GDI32.dll
 0001:00017f42       _GetNearestColor@8         5f418f42 f gdi32:GDI32.dll
 0001:00017f48       _RealizePalette@4          5f418f48 f gdi32:GDI32.dll
 0001:00017f4e       _UpdateColors@4            5f418f4e f gdi32:GDI32.dll
 0001:00017f54       _GetBkColor@4              5f418f54 f gdi32:GDI32.dll
 0001:00017f5a       _GetBkMode@4               5f418f5a f gdi32:GDI32.dll
 0001:00017f60       _GetPolyFillMode@4         5f418f60 f gdi32:GDI32.dll
 0001:00017f66       _GetROP2@4                 5f418f66 f gdi32:GDI32.dll
 0001:00017f6c       _GetStretchBltMode@4       5f418f6c f gdi32:GDI32.dll
 0001:00017f72       _GetTextColor@4            5f418f72 f gdi32:GDI32.dll
 0001:00017f78       _GetMapMode@4              5f418f78 f gdi32:GDI32.dll
 0001:00017f7e       _GetViewportOrgEx@8        5f418f7e f gdi32:GDI32.dll
 0001:00017f84       _GetViewportExtEx@8        5f418f84 f gdi32:GDI32.dll
 0001:00017f8a       _GetWindowOrgEx@8          5f418f8a f gdi32:GDI32.dll
 0001:00017f90       _GetWindowExtEx@8          5f418f90 f gdi32:GDI32.dll
 0001:00017f96       _DPtoLP@12                 5f418f96 f gdi32:GDI32.dll
 0001:00017f9c       _LPtoDP@12                 5f418f9c f gdi32:GDI32.dll
 0001:00017fa2       _FillRgn@12                5f418fa2 f gdi32:GDI32.dll
 0001:00017fa8       _FrameRgn@20               5f418fa8 f gdi32:GDI32.dll
 0001:00017fae       _InvertRgn@8               5f418fae f gdi32:GDI32.dll
 0001:00017fb4       _PaintRgn@8                5f418fb4 f gdi32:GDI32.dll
 0001:00017fba       _PtVisible@12              5f418fba f gdi32:GDI32.dll
 0001:00017fc0       _RectVisible@8             5f418fc0 f gdi32:GDI32.dll
 0001:00017fc6       _GetCurrentPositionEx@8    5f418fc6 f gdi32:GDI32.dll
 0001:00017fcc       _Arc@36                    5f418fcc f gdi32:GDI32.dll
 0001:00017fd2       _Polyline@12               5f418fd2 f gdi32:GDI32.dll
 0001:00017fd8       _Chord@36                  5f418fd8 f gdi32:GDI32.dll
 0001:00017fde       _Ellipse@20                5f418fde f gdi32:GDI32.dll
 0001:00017fe4       _Pie@36                    5f418fe4 f gdi32:GDI32.dll
 0001:00017fea       _Polygon@12                5f418fea f gdi32:GDI32.dll
 0001:00017ff0       _PolyPolygon@16            5f418ff0 f gdi32:GDI32.dll
 0001:00017ff6       _Rectangle@20              5f418ff6 f gdi32:GDI32.dll
 0001:00017ffc       _RoundRect@28              5f418ffc f gdi32:GDI32.dll
 0001:00018002       _PatBlt@24                 5f419002 f gdi32:GDI32.dll
 0001:00018008       _BitBlt@36                 5f419008 f gdi32:GDI32.dll
 0001:0001800e       _StretchBlt@44             5f41900e f gdi32:GDI32.dll
 0001:00018014       _GetPixel@12               5f419014 f gdi32:GDI32.dll
 0001:0001801a       _SetPixel@16               5f41901a f gdi32:GDI32.dll
 0001:00018020       _FloodFill@16              5f419020 f gdi32:GDI32.dll
 0001:00018026       _ExtFloodFill@20           5f419026 f gdi32:GDI32.dll
 0001:0001802c       _TextOutW@20               5f41902c f gdi32:GDI32.dll
 0001:00018032       _GetTextExtentPointW@16    5f419032 f gdi32:GDI32.dll
 0001:00018038       _GetTextAlign@4            5f419038 f gdi32:GDI32.dll
 0001:0001803e       _GetTextFaceW@12           5f41903e f gdi32:GDI32.dll
 0001:00018044       _GetTextMetricsW@8         5f419044 f gdi32:GDI32.dll
 0001:0001804a       _GetTextCharacterExtra@4   5f41904a f gdi32:GDI32.dll
 0001:00018050       _GetCharWidthW@16          5f419050 f gdi32:GDI32.dll
 0001:00018056       _GetAspectRatioFilterEx@8  5f419056 f gdi32:GDI32.dll
 0001:0001805c       _Escape@20                 5f41905c f gdi32:GDI32.dll
 0001:00018062       _SetBoundsRect@12          5f419062 f gdi32:GDI32.dll
 0001:00018068       _GetBoundsRect@12          5f419068 f gdi32:GDI32.dll
 0001:0001806e       _ResetDCW@8                5f41906e f gdi32:GDI32.dll
 0001:00018074       _GetOutlineTextMetricsW@12 5f419074 f gdi32:GDI32.dll
 0001:0001807a       _GetCharABCWidthsW@16      5f41907a f gdi32:GDI32.dll
 0001:00018080       _GetFontData@20            5f419080 f gdi32:GDI32.dll
 0001:00018086       _GetKerningPairsW@12       5f419086 f gdi32:GDI32.dll
 0001:0001808c       _GetGlyphOutlineW@28       5f41908c f gdi32:GDI32.dll
 0001:00018092       _StartDocW@8               5f419092 f gdi32:GDI32.dll
 0001:00018098       _StartPage@4               5f419098 f gdi32:GDI32.dll
 0001:0001809e       _EndPage@4                 5f41909e f gdi32:GDI32.dll
 0001:000180a4       _SetAbortProc@8            5f4190a4 f gdi32:GDI32.dll
 0001:000180aa       _AbortDoc@4                5f4190aa f gdi32:GDI32.dll
 0001:000180b0       _EndDoc@4                  5f4190b0 f gdi32:GDI32.dll
 0001:000180b6       _MaskBlt@48                5f4190b6 f gdi32:GDI32.dll
 0001:000180bc       _PlgBlt@40                 5f4190bc f gdi32:GDI32.dll
 0001:000180c2       _SetPixelV@16              5f4190c2 f gdi32:GDI32.dll
 0001:000180c8       _AngleArc@24               5f4190c8 f gdi32:GDI32.dll
 0001:000180ce       _GetArcDirection@4         5f4190ce f gdi32:GDI32.dll
 0001:000180d4       _PolyPolyline@16           5f4190d4 f gdi32:GDI32.dll
 0001:000180da       _GetColorAdjustment@8      5f4190da f gdi32:GDI32.dll
 0001:000180e0       _GetCurrentObject@8        5f4190e0 f gdi32:GDI32.dll
 0001:000180e6       _PolyBezier@12             5f4190e6 f gdi32:GDI32.dll
 0001:000180ec       _DrawEscape@16             5f4190ec f gdi32:GDI32.dll
 0001:000180f2       _ExtEscape@24              5f4190f2 f gdi32:GDI32.dll
 0001:000180f8       _GetCharABCWidthsFloatW@16 5f4190f8 f gdi32:GDI32.dll
 0001:000180fe       _GetCharWidthFloatW@16     5f4190fe f gdi32:GDI32.dll
 0001:00018104       _AbortPath@4               5f419104 f gdi32:GDI32.dll
 0001:0001810a       _BeginPath@4               5f41910a f gdi32:GDI32.dll
 0001:00018110       _CloseFigure@4             5f419110 f gdi32:GDI32.dll
 0001:00018116       _EndPath@4                 5f419116 f gdi32:GDI32.dll
 0001:0001811c       _FillPath@4                5f41911c f gdi32:GDI32.dll
 0001:00018122       _FlattenPath@4             5f419122 f gdi32:GDI32.dll
 0001:00018128       _GetMiterLimit@8           5f419128 f gdi32:GDI32.dll
 0001:0001812e       _GetPath@16                5f41912e f gdi32:GDI32.dll
 0001:00018134       _SetMiterLimit@12          5f419134 f gdi32:GDI32.dll
 0001:0001813a       _StrokeAndFillPath@4       5f41913a f gdi32:GDI32.dll
 0001:00018140       _StrokePath@4              5f419140 f gdi32:GDI32.dll
 0001:00018146       _WidenPath@4               5f419146 f gdi32:GDI32.dll
 0001:0001814c       _GdiComment@12             5f41914c f gdi32:GDI32.dll
 0001:00018152       _PlayEnhMetaFile@12        5f419152 f gdi32:GDI32.dll
 0001:00018158       _SetTextColor@8            5f419158 f gdi32:GDI32.dll
 0001:0001815e       _SetBkColor@8              5f41915e f gdi32:GDI32.dll
 0001:00018164       _DeleteDC@4                5f419164 f gdi32:GDI32.dll
 0001:0001816a       _StretchDIBits@52          5f41916a f gdi32:GDI32.dll
 0001:00018170       _SaveDC@4                  5f419170 f gdi32:GDI32.dll
 0001:00018176       _RestoreDC@8               5f419176 f gdi32:GDI32.dll
 0001:0001817c       _DeleteObject@4            5f41917c f gdi32:GDI32.dll
 0001:00018182       _SetMapMode@8              5f419182 f gdi32:GDI32.dll
 0001:00018188       _SetViewportOrgEx@16       5f419188 f gdi32:GDI32.dll
 0001:0001818e       _OffsetViewportOrgEx@16    5f41918e f gdi32:GDI32.dll
 0001:00018194       _SetViewportExtEx@16       5f419194 f gdi32:GDI32.dll
 0001:0001819a       _ScaleViewportExtEx@24     5f41919a f gdi32:GDI32.dll
 0001:000181a0       _SetWindowExtEx@16         5f4191a0 f gdi32:GDI32.dll
 0001:000181a6       _ScaleWindowExtEx@24       5f4191a6 f gdi32:GDI32.dll
 0001:000181ac       _MoveToEx@16               5f4191ac f gdi32:GDI32.dll
 0001:000181b2       _GetTextExtentPointA@16    5f4191b2 f gdi32:GDI32.dll
 0001:000181b8       _SetWindowOrgEx@16         5f4191b8 f gdi32:GDI32.dll
 0001:000181be       _IntersectClipRect@20      5f4191be f gdi32:GDI32.dll
 0001:000181c4       _DeleteMetaFile@4          5f4191c4 f gdi32:GDI32.dll
 0001:000181ca       _GetClipBox@8              5f4191ca f gdi32:GDI32.dll
 0001:000181d0       _SelectPalette@12          5f4191d0 f gdi32:GDI32.dll
 0001:000181d6       _SetBkMode@8               5f4191d6 f gdi32:GDI32.dll
 0001:000181dc       _SetPolyFillMode@8         5f4191dc f gdi32:GDI32.dll
 0001:000181e2       _SetROP2@8                 5f4191e2 f gdi32:GDI32.dll
 0001:000181e8       _SetStretchBltMode@8       5f4191e8 f gdi32:GDI32.dll
 0001:000181ee       _OffsetWindowOrgEx@16      5f4191ee f gdi32:GDI32.dll
 0001:000181f4       _SelectClipRgn@8           5f4191f4 f gdi32:GDI32.dll
 0001:000181fa       _ExcludeClipRect@20        5f4191fa f gdi32:GDI32.dll
 0001:00018200       _OffsetClipRgn@12          5f419200 f gdi32:GDI32.dll
 0001:00018206       _LineTo@12                 5f419206 f gdi32:GDI32.dll
 0001:0001820c       _SetTextAlign@8            5f41920c f gdi32:GDI32.dll
 0001:00018212       _SetTextJustification@12   5f419212 f gdi32:GDI32.dll
 0001:00018218       _SetTextCharacterExtra@8   5f419218 f gdi32:GDI32.dll
 0001:0001821e       _SetMapperFlags@8          5f41921e f gdi32:GDI32.dll
 0001:00018224       _ArcTo@36                  5f419224 f gdi32:GDI32.dll
 0001:0001822a       _SetArcDirection@8         5f41922a f gdi32:GDI32.dll
 0001:00018230       _PolyDraw@16               5f419230 f gdi32:GDI32.dll
 0001:00018236       _PolylineTo@12             5f419236 f gdi32:GDI32.dll
 0001:0001823c       _SetColorAdjustment@8      5f41923c f gdi32:GDI32.dll
 0001:00018242       _PolyBezierTo@12           5f419242 f gdi32:GDI32.dll
 0001:00018248       _GetClipRgn@8              5f419248 f gdi32:GDI32.dll
 0001:0001824e       _SelectClipPath@8          5f41924e f gdi32:GDI32.dll
 0001:00018254       _ExtSelectClipRgn@12       5f419254 f gdi32:GDI32.dll
 0001:0001825a       _PlayMetaFileRecord@16     5f41925a f gdi32:GDI32.dll
 0001:00018260       _EnumMetaFile@16           5f419260 f gdi32:GDI32.dll
 0001:00018266       _PlayMetaFile@8            5f419266 f gdi32:GDI32.dll
 0001:0001826c       _wsprintfW                 5f41926c f user32:USER32.dll
 0001:00018272       _wsprintfA                 5f419272 f user32:USER32.dll
 0001:00018278       _PostQuitMessage@4         5f419278 f user32:USER32.dll
 0001:0001827e       _PeekMessageW@20           5f41927e f user32:USER32.dll
 0001:00018284       _SendMessageW@16           5f419284 f user32:USER32.dll
 0001:0001828a       _IsWindow@4                5f41928a f user32:USER32.dll
 0001:00018290       _TabbedTextOutW@32         5f419290 f user32:USER32.dll
 0001:00018296       _CopyRect@8                5f419296 f user32:USER32.dll
 0001:0001829c       _IsRectEmpty@4             5f41929c f user32:USER32.dll
 0001:000182a2       _PtInRect@12               5f4192a2 f user32:USER32.dll
 0001:000182a8       _SetRect@20                5f4192a8 f user32:USER32.dll
 0001:000182ae       _SetRectEmpty@4            5f4192ae f user32:USER32.dll
 0001:000182b4       _EqualRect@8               5f4192b4 f user32:USER32.dll
 0001:000182ba       _InflateRect@12            5f4192ba f user32:USER32.dll
 0001:000182c0       _OffsetRect@12             5f4192c0 f user32:USER32.dll
 0001:000182c6       _IntersectRect@12          5f4192c6 f user32:USER32.dll
 0001:000182cc       _UnionRect@12              5f4192cc f user32:USER32.dll
 0001:000182d2       _SubtractRect@12           5f4192d2 f user32:USER32.dll
 0001:000182d8       _GetSysColorBrush@4        5f4192d8 f user32:USER32.dll
 0001:000182de       _LoadBitmapW@8             5f4192de f user32:USER32.dll
 0001:000182e4       _WindowFromDC@4            5f4192e4 f user32:USER32.dll
 0001:000182ea       _ExcludeUpdateRgn@8        5f4192ea f user32:USER32.dll
 0001:000182f0       _FillRect@12               5f4192f0 f user32:USER32.dll
 0001:000182f6       _FrameRect@12              5f4192f6 f user32:USER32.dll
 0001:000182fc       _InvertRect@8              5f4192fc f user32:USER32.dll
 0001:00018302       _DrawIcon@16               5f419302 f user32:USER32.dll
 0001:00018308       _DrawStateW@40             5f419308 f user32:USER32.dll
 0001:0001830e       _DrawEdge@16               5f41930e f user32:USER32.dll
 0001:00018314       _DrawFrameControl@16       5f419314 f user32:USER32.dll
 0001:0001831a       _DrawFocusRect@8           5f41931a f user32:USER32.dll
 0001:00018320       _DrawTextW@20              5f419320 f user32:USER32.dll
 0001:00018326       _GetTabbedTextExtentW@20   5f419326 f user32:USER32.dll
 0001:0001832c       _GrayStringW@36            5f41932c f user32:USER32.dll
 0001:00018332       _ScrollDC@28               5f419332 f user32:USER32.dll
 0001:00018338       _CreateMenu@0              5f419338 f user32:USER32.dll
 0001:0001833e       _CreatePopupMenu@0         5f41933e f user32:USER32.dll
 0001:00018344       _IsMenu@4                  5f419344 f user32:USER32.dll
 0001:0001834a       _DeleteMenu@12             5f41934a f user32:USER32.dll
 0001:00018350       _AppendMenuW@16            5f419350 f user32:USER32.dll
 0001:00018356       _CheckMenuItem@12          5f419356 f user32:USER32.dll
 0001:0001835c       _EnableMenuItem@12         5f41935c f user32:USER32.dll
 0001:00018362       _GetMenuItemCount@4        5f419362 f user32:USER32.dll
 0001:00018368       _GetMenuItemID@8           5f419368 f user32:USER32.dll
 0001:0001836e       _GetMenuState@12           5f41936e f user32:USER32.dll
 0001:00018374       _GetMenuStringW@20         5f419374 f user32:USER32.dll
 0001:0001837a       _GetSubMenu@8              5f41937a f user32:USER32.dll
 0001:00018380       _InsertMenuW@20            5f419380 f user32:USER32.dll
 0001:00018386       _ModifyMenuW@20            5f419386 f user32:USER32.dll
 0001:0001838c       _RemoveMenu@12             5f41938c f user32:USER32.dll
 0001:00018392       _SetMenuItemBitmaps@20     5f419392 f user32:USER32.dll
 0001:00018398       _LoadMenuW@8               5f419398 f user32:USER32.dll
 0001:0001839e       _LoadMenuIndirectW@4       5f41939e f user32:USER32.dll
 0001:000183a4       _SetMenuContextHelpId@8    5f4193a4 f user32:USER32.dll
 0001:000183aa       _GetMenuContextHelpId@4    5f4193aa f user32:USER32.dll
 0001:000183b0       _CheckMenuRadioItem@20     5f4193b0 f user32:USER32.dll
 0001:000183b6       _PostMessageW@16           5f4193b6 f user32:USER32.dll
 0001:000183bc       _GetMenu@4                 5f4193bc f user32:USER32.dll
 0001:000183c2       _SetMenu@8                 5f4193c2 f user32:USER32.dll
 0001:000183c8       _DrawMenuBar@4             5f4193c8 f user32:USER32.dll
 0001:000183ce       _GetSystemMenu@8           5f4193ce f user32:USER32.dll
 0001:000183d4       _HiliteMenuItem@16         5f4193d4 f user32:USER32.dll
 0001:000183da       _IsIconic@4                5f4193da f user32:USER32.dll
 0001:000183e0       _IsZoomed@4                5f4193e0 f user32:USER32.dll
 0001:000183e6       _ArrangeIconicWindows@4    5f4193e6 f user32:USER32.dll
 0001:000183ec       _BringWindowToTop@4        5f4193ec f user32:USER32.dll
 0001:000183f2       _GetWindowRect@8           5f4193f2 f user32:USER32.dll
 0001:000183f8       _GetClientRect@8           5f4193f8 f user32:USER32.dll
 0001:000183fe       _MapWindowPoints@16        5f4193fe f user32:USER32.dll
 0001:00018404       _ClientToScreen@8          5f419404 f user32:USER32.dll
 0001:0001840a       _ScreenToClient@8          5f41940a f user32:USER32.dll
 0001:00018410       _BeginPaint@8              5f419410 f user32:USER32.dll
 0001:00018416       _EndPaint@8                5f419416 f user32:USER32.dll
 0001:0001841c       _GetDC@4                   5f41941c f user32:USER32.dll
 0001:00018422       _GetWindowDC@4             5f419422 f user32:USER32.dll
 0001:00018428       _ReleaseDC@8               5f419428 f user32:USER32.dll
 0001:0001842e       _UpdateWindow@4            5f41942e f user32:USER32.dll
 0001:00018434       _GetUpdateRect@12          5f419434 f user32:USER32.dll
 0001:0001843a       _GetUpdateRgn@12           5f41943a f user32:USER32.dll
 0001:00018440       _InvalidateRect@12         5f419440 f user32:USER32.dll
 0001:00018446       _InvalidateRgn@12          5f419446 f user32:USER32.dll
 0001:0001844c       _ValidateRect@8            5f41944c f user32:USER32.dll
 0001:00018452       _ValidateRgn@8             5f419452 f user32:USER32.dll
 0001:00018458       _IsWindowVisible@4         5f419458 f user32:USER32.dll
 0001:0001845e       _ShowOwnedPopups@8         5f41945e f user32:USER32.dll
 0001:00018464       _GetDCEx@12                5f419464 f user32:USER32.dll
 0001:0001846a       _LockWindowUpdate@4        5f41946a f user32:USER32.dll
 0001:00018470       _RedrawWindow@16           5f419470 f user32:USER32.dll
 0001:00018476       _EnableScrollBar@12        5f419476 f user32:USER32.dll
 0001:0001847c       _SetTimer@16               5f41947c f user32:USER32.dll
 0001:00018482       _KillTimer@8               5f419482 f user32:USER32.dll
 0001:00018488       _GetActiveWindow@0         5f419488 f user32:USER32.dll
 0001:0001848e       _SetActiveWindow@4         5f41948e f user32:USER32.dll
 0001:00018494       _GetCapture@0              5f419494 f user32:USER32.dll
 0001:0001849a       _SetCapture@4              5f41949a f user32:USER32.dll
 0001:000184a0       _GetFocus@0                5f4194a0 f user32:USER32.dll
 0001:000184a6       _GetDesktopWindow@0        5f4194a6 f user32:USER32.dll
 0001:000184ac       _DlgDirListW@20            5f4194ac f user32:USER32.dll
 0001:000184b2       _DlgDirListComboBoxW@20    5f4194b2 f user32:USER32.dll
 0001:000184b8       _DlgDirSelectExW@16        5f4194b8 f user32:USER32.dll
 0001:000184be       _DlgDirSelectComboBoxExW@16 5f4194be f user32:USER32.dll
 0001:000184c4       _GetNextDlgGroupItem@12    5f4194c4 f user32:USER32.dll
 0001:000184ca       _GetNextDlgTabItem@12      5f4194ca f user32:USER32.dll
 0001:000184d0       _ShowScrollBar@12          5f4194d0 f user32:USER32.dll
 0001:000184d6       _ChildWindowFromPoint@12   5f4194d6 f user32:USER32.dll
 0001:000184dc       _ChildWindowFromPointEx@16 5f4194dc f user32:USER32.dll
 0001:000184e2       _FindWindowW@8             5f4194e2 f user32:USER32.dll
 0001:000184e8       _GetWindow@8               5f4194e8 f user32:USER32.dll
 0001:000184ee       _GetTopWindow@4            5f4194ee f user32:USER32.dll
 0001:000184f4       _GetLastActivePopup@4      5f4194f4 f user32:USER32.dll
 0001:000184fa       _IsChild@8                 5f4194fa f user32:USER32.dll
 0001:00018500       _GetParent@4               5f419500 f user32:USER32.dll
 0001:00018506       _SetParent@8               5f419506 f user32:USER32.dll
 0001:0001850c       _WindowFromPoint@8         5f41950c f user32:USER32.dll
 0001:00018512       _FlashWindow@8             5f419512 f user32:USER32.dll
 0001:00018518       _ChangeClipboardChain@8    5f419518 f user32:USER32.dll
 0001:0001851e       _SetClipboardViewer@4      5f41951e f user32:USER32.dll
 0001:00018524       _OpenClipboard@4           5f419524 f user32:USER32.dll
 0001:0001852a       _GetOpenClipboardWindow@0  5f41952a f user32:USER32.dll
 0001:00018530       _GetClipboardOwner@0       5f419530 f user32:USER32.dll
 0001:00018536       _GetClipboardViewer@0      5f419536 f user32:USER32.dll
 0001:0001853c       _CreateCaret@16            5f41953c f user32:USER32.dll
 0001:00018542       _GetCaretPos@4             5f419542 f user32:USER32.dll
 0001:00018548       _SetCaretPos@8             5f419548 f user32:USER32.dll
 0001:0001854e       _HideCaret@4               5f41954e f user32:USER32.dll
 0001:00018554       _ShowCaret@4               5f419554 f user32:USER32.dll
 0001:0001855a       _SetForegroundWindow@4     5f41955a f user32:USER32.dll
 0001:00018560       _GetForegroundWindow@0     5f419560 f user32:USER32.dll
 0001:00018566       _SendNotifyMessageW@16     5f419566 f user32:USER32.dll
 0001:0001856c       _SetWindowContextHelpId@8  5f41956c f user32:USER32.dll
 0001:00018572       _GetWindowContextHelpId@4  5f419572 f user32:USER32.dll
 0001:00018578       _EnableWindow@8            5f419578 f user32:USER32.dll
 0001:0001857e       _MapDialogRect@8           5f41957e f user32:USER32.dll
 0001:00018584       _GetWindowLongW@8          5f419584 f user32:USER32.dll
 0001:0001858a       _GetScrollPos@8            5f41958a f user32:USER32.dll
 0001:00018590       _SetScrollPos@16           5f419590 f user32:USER32.dll
 0001:00018596       _GetScrollRange@16         5f419596 f user32:USER32.dll
 0001:0001859c       _SetScrollRange@20         5f41959c f user32:USER32.dll
 0001:000185a2       _PostThreadMessageW@16     5f4195a2 f user32:USER32.dll
 0001:000185a8       _LoadCursorW@8             5f4195a8 f user32:USER32.dll
 0001:000185ae       _LoadIconW@8               5f4195ae f user32:USER32.dll
 0001:000185b4       _CloseWindow@4             5f4195b4 f user32:USER32.dll
 0001:000185ba       _OpenIcon@4                5f4195ba f user32:USER32.dll
 0001:000185c0       _CharUpperW@4              5f4195c0 f user32:USER32.dll
 0001:000185c6       _GetSystemMetrics@4        5f4195c6 f user32:USER32.dll
 0001:000185cc       _CharLowerW@4              5f4195cc f user32:USER32.dll
 0001:000185d2       _UnhookWindowsHookEx@4     5f4195d2 f user32:USER32.dll
 0001:000185d8       _MsgWaitForMultipleObjects@20 5f4195d8 f user32:USER32.dll
 0001:000185de       _RegisterWindowMessageW@4  5f4195de f user32:USER32.dll
 0001:000185e4       _SetWindowPos@28           5f4195e4 f user32:USER32.dll
 0001:000185ea       _SetWindowLongW@12         5f4195ea f user32:USER32.dll
 0001:000185f0       _GetMessagePos@0           5f4195f0 f user32:USER32.dll
 0001:000185f6       _GetMessageTime@0          5f4195f6 f user32:USER32.dll
 0001:000185fc       _CallWindowProcW@20        5f4195fc f user32:USER32.dll
 0001:00018602       _RemovePropW@8             5f419602 f user32:USER32.dll
 0001:00018608       _GetPropW@8                5f419608 f user32:USER32.dll
 0001:0001860e       _CallNextHookEx@16         5f41960e f user32:USER32.dll
 0001:00018614       _SetPropW@12               5f419614 f user32:USER32.dll
 0001:0001861a       _SetWindowsHookExW@16      5f41961a f user32:USER32.dll
 0001:00018620       _CreateWindowExW@48        5f419620 f user32:USER32.dll
 0001:00018626       _GetDlgCtrlID@4            5f419626 f user32:USER32.dll
 0001:0001862c       _GetClassNameW@12          5f41962c f user32:USER32.dll
 0001:00018632       _DefWindowProcW@16         5f419632 f user32:USER32.dll
 0001:00018638       _DestroyWindow@4           5f419638 f user32:USER32.dll
 0001:0001863e       _GetKeyState@4             5f41963e f user32:USER32.dll
 0001:00018644       _GetWindowTextW@12         5f419644 f user32:USER32.dll
 0001:0001864a       _GetWindowTextLengthW@4    5f41964a f user32:USER32.dll
 0001:00018650       _GetDlgItem@8              5f419650 f user32:USER32.dll
 0001:00018656       _GetWindowPlacement@8      5f419656 f user32:USER32.dll
 0001:0001865c       _SetWindowPlacement@8      5f41965c f user32:USER32.dll
 0001:00018662       _TrackPopupMenu@28         5f419662 f user32:USER32.dll
 0001:00018668       _RegisterClassW@4          5f419668 f user32:USER32.dll
 0001:0001866e       _GetClassInfoW@12          5f41966e f user32:USER32.dll
 0001:00018674       _WinHelpW@16               5f419674 f user32:USER32.dll
 0001:0001867a       _IsWindowEnabled@4         5f41967a f user32:USER32.dll
 0001:00018680       _SetScrollInfo@16          5f419680 f user32:USER32.dll
 0001:00018686       _GetScrollInfo@12          5f419686 f user32:USER32.dll
 0001:0001868c       _ScrollWindow@20           5f41968c f user32:USER32.dll
 0001:00018692       _EndDeferWindowPos@4       5f419692 f user32:USER32.dll
 0001:00018698       _BeginDeferWindowPos@4     5f419698 f user32:USER32.dll
 0001:0001869e       _DeferWindowPos@32         5f41969e f user32:USER32.dll
 0001:000186a4       _AdjustWindowRectEx@16     5f4196a4 f user32:USER32.dll
 0001:000186aa       _SetFocus@4                5f4196aa f user32:USER32.dll
 0001:000186b0       _DispatchMessageW@4        5f4196b0 f user32:USER32.dll
 0001:000186b6       _GetSysColor@4             5f4196b6 f user32:USER32.dll
 0001:000186bc       _SystemParametersInfoW@16  5f4196bc f user32:USER32.dll
 0001:000186c2       _SendDlgItemMessageA@20    5f4196c2 f user32:USER32.dll
 0001:000186c8       _LoadAcceleratorsW@8       5f4196c8 f user32:USER32.dll
 0001:000186ce       _TranslateAcceleratorW@12  5f4196ce f user32:USER32.dll
 0001:000186d4       _ReleaseCapture@0          5f4196d4 f user32:USER32.dll
 0001:000186da       _SetCursor@4               5f4196da f user32:USER32.dll
 0001:000186e0       _ShowWindow@8              5f4196e0 f user32:USER32.dll
 0001:000186e6       _DestroyMenu@4             5f4196e6 f user32:USER32.dll
 0001:000186ec       _ReuseDDElParam@20         5f4196ec f user32:USER32.dll
 0001:000186f2       _UnpackDDElParam@16        5f4196f2 f user32:USER32.dll
 0001:000186f8       _WaitMessage@0             5f4196f8 f user32:USER32.dll
 0001:000186fe       _GetCursorPos@4            5f4196fe f user32:USER32.dll
 0001:00018704       _GetWindowThreadProcessId@8 5f419704 f user32:USER32.dll
 0001:0001870a       _TranslateMessage@4        5f41970a f user32:USER32.dll
 0001:00018710       _GetMessageW@16            5f419710 f user32:USER32.dll
 0001:00018716       _DefFrameProcW@20          5f419716 f user32:USER32.dll
 0001:0001871c       _TranslateMDISysAccel@8    5f41971c f user32:USER32.dll
 0001:00018722       _DefMDIChildProcW@16       5f419722 f user32:USER32.dll
 0001:00018728       _GetTabbedTextExtentA@20   5f419728 f user32:USER32.dll
 0001:0001872e       _CreateDialogIndirectParamW@20 5f41972e f user32:USER32.dll
 0001:00018734       _EndDialog@8               5f419734 f user32:USER32.dll
 0001:0001873a       _wvsprintfW@12             5f41973a f user32:USER32.dll
 0001:00018740       _GetAsyncKeyState@4        5f419740 f user32:USER32.dll
 0001:00018746       _GetDialogBaseUnits@0      5f419746 f user32:USER32.dll
 0001:0001874c       _GetClipboardFormatNameA@12 5f41974c f user32:USER32.dll
 0001:00018752       _GetClipboardFormatNameW@12 5f419752 f user32:USER32.dll
 0001:00018758       _SetWindowTextW@8          5f419758 f user32:USER32.dll
 0001:0001875e       _CheckDlgButton@12         5f41975e f user32:USER32.dll
 0001:00018764       _CheckRadioButton@16       5f419764 f user32:USER32.dll
 0001:0001876a       _GetDlgItemInt@16          5f41976a f user32:USER32.dll
 0001:00018770       _GetDlgItemTextW@16        5f419770 f user32:USER32.dll
 0001:00018776       _SendDlgItemMessageW@20    5f419776 f user32:USER32.dll
 0001:0001877c       _SetDlgItemInt@16          5f41977c f user32:USER32.dll
 0001:00018782       _SetDlgItemTextW@12        5f419782 f user32:USER32.dll
 0001:00018788       _IsDlgButtonChecked@8      5f419788 f user32:USER32.dll
 0001:0001878e       _ScrollWindowEx@32         5f41978e f user32:USER32.dll
 0001:00018794       _IsDialogMessageW@8        5f419794 f user32:USER32.dll
 0001:0001879a       _MoveWindow@24             5f41979a f user32:USER32.dll
 0001:000187a0       _GetMenuCheckMarkDimensions@0 5f4197a0 f user32:USER32.dll
 0001:000187a6       _DestroyIcon@4             5f4197a6 f user32:USER32.dll
 0001:000187ac       _SetCursorPos@8            5f4197ac f user32:USER32.dll
 0001:000187b2       _DestroyCursor@4           5f4197b2 f user32:USER32.dll
 0001:000187b8       _IsClipboardFormatAvailable@4 5f4197b8 f user32:USER32.dll
 0001:000187be       _MessageBeep@4             5f4197be f user32:USER32.dll
 0001:000187c4       _UnregisterClassW@8        5f4197c4 f user32:USER32.dll
 0001:000187ca       _MessageBoxW@16            5f4197ca f user32:USER32.dll
 0001:000187d0       _LoadStringW@16            5f4197d0 f user32:USER32.dll
 0001:000187d6       _MessageBoxA@16            5f4197d6 f user32:USER32.dll
 0001:000187e0       ?InitString@CSimpleException@@QAEXXZ 5f4197e0 f except.obj
 0001:0001883c       ?GetErrorMessage@CSimpleException@@UAEHPAGIPAI@Z 5f41983c f except.obj
 0001:000188e8       ?AfxThrowMemoryException@@YGXXZ 5f4198e8 f except.obj
 0001:00018910       ?AfxThrowNotSupportedException@@YGXXZ 5f419910 f except.obj
 0001:00018940       ?AfxIsValidString@@YGHPBGH@Z 5f419940 f validadd.obj
 0001:00018992       ?AfxIsValidString@@YGHPBDH@Z 5f419992 f validadd.obj
 0001:000189d7       ?AfxIsValidAddress@@YGHPBXIH@Z 5f4199d7 f validadd.obj
 0001:00018aa0       ?_AfxCrtDumpClient@@YAXPAXI@Z 5f419aa0 f dumpinit.obj
 0001:00018c35       ?_AfxCrtReportHook@@YAHHPADPAH@Z 5f419c35 f dumpinit.obj
 0001:00018cb3       ??0_AFX_DEBUG_STATE@@QAE@XZ 5f419cb3 f dumpinit.obj
 0001:00018dd1       ??1_AFX_DEBUG_STATE@@UAE@XZ 5f419dd1 f dumpinit.obj
 0001:00018edc       ?AfxDiagnosticInit@@YGHXZ  5f419edc f dumpinit.obj
 0001:00018f30       ??_E_AFX_DEBUG_STATE@@UAEPAXI@Z 5f419f30 f dumpinit.obj
 0001:00018f30       ??_G_AFX_DEBUG_STATE@@UAEPAXI@Z 5f419f30 f dumpinit.obj
 0001:00018f70       ??1?$CProcessLocal@V_AFX_DEBUG_STATE@@@@QAE@XZ 5f419f70 f dumpinit.obj
 0001:00018fd0       ?AfxDump@@YGXPBVCObject@@@Z 5f419fd0 f dumpout.obj
 0001:00018ff0       ?AfxTrace@@YAXPBGZZ        5f419ff0 f dumpout.obj
 0001:000190c0       ?AfxAbort@@YGXXZ           5f41a0c0 f afxabort.obj
 0001:000190f0       ??0CString@@QAE@GH@Z       5f41a0f0 f strex.obj
 0001:0001915f       ??0CString@@QAE@PBGH@Z     5f41a15f f strex.obj
 0001:000191dc       ??4CString@@QAEABV0@G@Z    5f41a1dc f strex.obj
 0001:0001920b       ??H@YG?AVCString@@ABV0@G@Z 5f41a20b f strex.obj
 0001:000192b7       ??H@YG?AVCString@@GABV0@@Z 5f41a2b7 f strex.obj
 0001:00019363       ?Mid@CString@@QBE?AV1@H@Z  5f41a363 f strex.obj
 0001:000193e4       ?Mid@CString@@QBE?AV1@HH@Z 5f41a3e4 f strex.obj
 0001:000194ee       ?Right@CString@@QBE?AV1@H@Z 5f41a4ee f strex.obj
 0001:000195d6       ?Left@CString@@QBE?AV1@H@Z 5f41a5d6 f strex.obj
 0001:000196b1       ?SpanIncluding@CString@@QBE?AV1@PBG@Z 5f41a6b1 f strex.obj
 0001:0001975e       ?SpanExcluding@CString@@QBE?AV1@PBG@Z 5f41a75e f strex.obj
 0001:0001980b       ?ReverseFind@CString@@QBEHG@Z 5f41a80b f strex.obj
 0001:00019857       ?Find@CString@@QBEHPBG@Z   5f41a857 f strex.obj
 0001:000198ce       ?FormatV@CString@@IAEXPBGPAD@Z 5f41a8ce f strex.obj
 0001:0001a01a       ?Format@CString@@QAAXPBGZZ 5f41b01a f strex.obj
 0001:0001a075       ?Format@CString@@QAAXIZZ   5f41b075 f strex.obj
 0001:0001a122       ?FormatMessageW@CString@@QAAXPBGZZ 5f41b122 f strex.obj
 0001:0001a184       ?FormatMessageW@CString@@QAAXIZZ 5f41b184 f strex.obj
 0001:0001a263       ?TrimRight@CString@@QAEXXZ 5f41b263 f strex.obj
 0001:0001a316       ?TrimLeft@CString@@QAEXXZ  5f41b316 f strex.obj
 0001:0001a3b5       ?ConstructElements@@YGXPAVCString@@H@Z 5f41b3b5 f strex.obj
 0001:0001a43b       ?DestructElements@@YGXPAVCString@@H@Z 5f41b43b f strex.obj
 0001:0001a4b7       ?CopyElements@@YGXPAVCString@@PBV1@H@Z 5f41b4b7 f strex.obj
 0001:0001a575       ?HashKey@@YGIPBG@Z         5f41b575 f strex.obj
 0001:0001a5c0       ??0CTime@@QAE@HHHHHHH@Z    5f41b5c0 f timecore.obj
 0001:0001a6b2       ??0CTime@@QAE@GGH@Z        5f41b6b2 f timecore.obj
 0001:0001a756       ??0CTime@@QAE@ABU_SYSTEMTIME@@H@Z 5f41b756 f timecore.obj
 0001:0001a7fc       ??0CTime@@QAE@ABU_FILETIME@@H@Z 5f41b7fc f timecore.obj
 0001:0001a87b       ?GetTickCount@CTime@@SG?AV1@XZ 5f41b87b f timecore.obj
 0001:0001a8a4       ?GetGmtTm@CTime@@QBEPAUtm@@PAU2@@Z 5f41b8a4 f timecore.obj
 0001:0001a8f9       ?GetLocalTm@CTime@@QBEPAUtm@@PAU2@@Z 5f41b8f9 f timecore.obj
 0001:0001a963       ??6@YGAAVCDumpContext@@AAV0@VCTime@@@Z 5f41b963 f timecore.obj
 0001:0001a9f0       ??6@YGAAVCArchive@@AAV0@VCTime@@@Z 5f41b9f0 f timecore.obj
 0001:0001aa0e       ??5@YGAAVCArchive@@AAV0@AAVCTime@@@Z 5f41ba0e f timecore.obj
 0001:0001aa2c       ??6@YGAAVCDumpContext@@AAV0@VCTimeSpan@@@Z 5f41ba2c f timecore.obj
 0001:0001aabb       ??6@YGAAVCArchive@@AAV0@VCTimeSpan@@@Z 5f41babb f timecore.obj
 0001:0001aad9       ??5@YGAAVCArchive@@AAV0@AAVCTimeSpan@@@Z 5f41bad9 f timecore.obj
 0001:0001aaf7       ?Format@CTimeSpan@@QBE?AVCString@@PBG@Z 5f41baf7 f timecore.obj
 0001:0001add9       ?Format@CTimeSpan@@QBE?AVCString@@I@Z 5f41bdd9 f timecore.obj
 0001:0001ae9d       ?Format@CTime@@QBE?AVCString@@PBG@Z 5f41be9d f timecore.obj
 0001:0001af71       ?FormatGmt@CTime@@QBE?AVCString@@PBG@Z 5f41bf71 f timecore.obj
 0001:0001b045       ?Format@CTime@@QBE?AVCString@@I@Z 5f41c045 f timecore.obj
 0001:0001b109       ?FormatGmt@CTime@@QBE?AVCString@@I@Z 5f41c109 f timecore.obj
 0001:0001b1cd       ?Format@CTime@@QBE?AVCString@@PBD@Z 5f41c1cd f timecore.obj
 0001:0001b269       ?FormatGmt@CTime@@QBE?AVCString@@PBD@Z 5f41c269 f timecore.obj
 0001:0001b305       ?Format@CTimeSpan@@QBE?AVCString@@PBD@Z 5f41c305 f timecore.obj
 0001:0001b3b0       ?LoadBitmaps@CBitmapButton@@QAEHPBG000@Z 5f41c3b0 f winbtn.obj
 0001:0001b4b8       ?SizeToContent@CBitmapButton@@QAEXXZ 5f41c4b8 f winbtn.obj
 0001:0001b55c       ?AutoLoad@CBitmapButton@@QAEHIPAVCWnd@@@Z 5f41c55c f winbtn.obj
 0001:0001b713       ?DrawItem@CBitmapButton@@MAEXPAUtagDRAWITEMSTRUCT@@@Z 5f41c713 f winbtn.obj
 0001:0001b8cb       ?AssertValid@CBitmapButton@@UBEXXZ 5f41c8cb f winbtn.obj
 0001:0001b925       ?Dump@CBitmapButton@@UBEXAAVCDumpContext@@@Z 5f41c925 f winbtn.obj
 0001:0001bb0e       ?_GetBaseMessageMap@CCommonDialog@@KGPBUAFX_MSGMAP@@XZ 5f41cb0e f dlgcomm.obj
 0001:0001bb23       ?GetMessageMap@CCommonDialog@@MBEPBUAFX_MSGMAP@@XZ 5f41cb23 f dlgcomm.obj
 0001:0001bb3e       ?_AfxCommDlgProc@@YGIPAUHWND__@@IIJ@Z 5f41cb3e f dlgcomm.obj
 0001:0001be9a       ?OnOK@CCommonDialog@@MAEXXZ 5f41ce9a f dlgcomm.obj
 0001:0001bef4       ?OnCancel@CCommonDialog@@MAEXXZ 5f41cef4 f dlgcomm.obj
 0001:0001bf25       ?OnHelpInfo@CCommonDialog@@IAEHPAUtagHELPINFO@@@Z 5f41cf25 f dlgcomm.obj
 0001:0001bf50       ??0CFileDialog@@QAE@HPBG0K0PAVCWnd@@@Z 5f41cf50 f dlgfile.obj
 0001:0001c192       ?DoModal@CFileDialog@@UAEHXZ 5f41d192 f dlgfile.obj
 0001:0001c36d       ?GetPathName@CFileDialog@@QBE?AVCString@@XZ 5f41d36d f dlgfile.obj
 0001:0001c506       ?GetFileName@CFileDialog@@QBE?AVCString@@XZ 5f41d506 f dlgfile.obj
 0001:0001c64c       ?GetFileExt@CFileDialog@@QBE?AVCString@@XZ 5f41d64c f dlgfile.obj
 0001:0001c899       ?GetFileTitle@CFileDialog@@QBE?AVCString@@XZ 5f41d899 f dlgfile.obj
 0001:0001c968       ?GetNextPathName@CFileDialog@@QBE?AVCString@@AAPAU__POSITION@@@Z 5f41d968 f dlgfile.obj
 0001:0001cd7e       ?SetTemplate@CFileDialog@@QAEXPBG0@Z 5f41dd7e f dlgfile.obj
 0001:0001cdcd       ?GetFolderPath@CFileDialog@@QBE?AVCString@@XZ 5f41ddcd f dlgfile.obj
 0001:0001cef7       ?SetControlText@CFileDialog@@QAEXHPBD@Z 5f41def7 f dlgfile.obj
 0001:0001cf80       ?HideControl@CFileDialog@@QAEXH@Z 5f41df80 f dlgfile.obj
 0001:0001d007       ?SetDefExt@CFileDialog@@QAEXPBD@Z 5f41e007 f dlgfile.obj
 0001:0001d08e       ?OnShareViolation@CFileDialog@@MAEIPBG@Z 5f41e08e f dlgfile.obj
 0001:0001d0bb       ?OnFileNameOK@CFileDialog@@MAEHXZ 5f41e0bb f dlgfile.obj
 0001:0001d0e6       ?OnLBSelChangedNotify@CFileDialog@@MAEXIII@Z 5f41e0e6 f dlgfile.obj
 0001:0001d111       ?OnInitDone@CFileDialog@@MAEXXZ 5f41e111 f dlgfile.obj
 0001:0001d14b       ?OnFileNameChange@CFileDialog@@MAEXXZ 5f41e14b f dlgfile.obj
 0001:0001d174       ?OnFolderChange@CFileDialog@@MAEXXZ 5f41e174 f dlgfile.obj
 0001:0001d19d       ?OnTypeChange@CFileDialog@@MAEXXZ 5f41e19d f dlgfile.obj
 0001:0001d1c6       ?OnNotify@CFileDialog@@MAEHIJPAJ@Z 5f41e1c6 f dlgfile.obj
 0001:0001d350       ?Dump@CFileDialog@@UBEXAAVCDumpContext@@@Z 5f41e350 f dlgfile.obj
 0001:0001d620       ??_ECFileDialog@@UAEPAXI@Z 5f41e620 f dlgfile.obj
 0001:0001d620       ??_GCFileDialog@@UAEPAXI@Z 5f41e620 f dlgfile.obj
 0001:0001d660       ??1CFileDialog@@UAE@XZ     5f41e660 f dlgfile.obj
 0001:0001d6e0       ??0CPageSetupDialog@@QAE@KPAVCWnd@@@Z 5f41e6e0 f dlgprnt.obj
 0001:0001d7be       ?DoModal@CPageSetupDialog@@UAEHXZ 5f41e7be f dlgprnt.obj
 0001:0001d8af       ?GetDevMode@CPageSetupDialog@@QBEPAU_devicemodeW@@XZ 5f41e8af f dlgprnt.obj
 0001:0001d8e6       ?GetDriverName@CPageSetupDialog@@QBE?AVCString@@XZ 5f41e8e6 f dlgprnt.obj
 0001:0001d99a       ?GetDeviceName@CPageSetupDialog@@QBE?AVCString@@XZ 5f41e99a f dlgprnt.obj
 0001:0001da4f       ?GetPortName@CPageSetupDialog@@QBE?AVCString@@XZ 5f41ea4f f dlgprnt.obj
 0001:0001db04       ?CreatePrinterDC@CPageSetupDialog@@QAEPAUHDC__@@XZ 5f41eb04 f dlgprnt.obj
 0001:0001db3d       ?GetMargins@CPageSetupDialog@@QBEXPAUtagRECT@@0@Z 5f41eb3d f dlgprnt.obj
 0001:0001db95       ?Dump@CPageSetupDialog@@UBEXAAVCDumpContext@@@Z 5f41eb95 f dlgprnt.obj
 0001:0001dcb4       ?PreDrawPage@CPageSetupDialog@@UAEIGGPAUtagPSDW@@@Z 5f41ecb4 f dlgprnt.obj
 0001:0001dcce       ?OnDrawPage@CPageSetupDialog@@UAEIPAVCDC@@IPAUtagRECT@@@Z 5f41ecce f dlgprnt.obj
 0001:0001dce8       ?PaintHookProc@CPageSetupDialog@@KGIPAUHWND__@@IIJ@Z 5f41ece8 f dlgprnt.obj
 0001:0001ddd4       ?_GetBaseMessageMap@CPrintDialog@@KGPBUAFX_MSGMAP@@XZ 5f41edd4 f dlgprnt.obj
 0001:0001dde9       ?GetMessageMap@CPrintDialog@@MBEPBUAFX_MSGMAP@@XZ 5f41ede9 f dlgprnt.obj
 0001:0001de04       ??0CPrintDialog@@QAE@HKPAVCWnd@@@Z 5f41ee04 f dlgprnt.obj
 0001:0001df3d       ??0CPrintDialog@@IAE@AAUtagPDW@@@Z 5f41ef3d f dlgprnt.obj
 0001:0001dfb9       ?AttachOnSetup@CPrintDialog@@MAEPAV1@XZ 5f41efb9 f dlgprnt.obj
 0001:0001e044       ?OnPrintSetup@CPrintDialog@@IAEXXZ 5f41f044 f dlgprnt.obj
 0001:0001e0de       ?DoModal@CPrintDialog@@UAEHXZ 5f41f0de f dlgprnt.obj
 0001:0001e1e7       ?CreatePrinterDC@CPrintDialog@@QAEPAUHDC__@@XZ 5f41f1e7 f dlgprnt.obj
 0001:0001e23b       ?GetCopies@CPrintDialog@@QBEHXZ 5f41f23b f dlgprnt.obj
 0001:0001e298       ?GetDevMode@CPrintDialog@@QBEPAU_devicemodeW@@XZ 5f41f298 f dlgprnt.obj
 0001:0001e2d5       ?GetDriverName@CPrintDialog@@QBE?AVCString@@XZ 5f41f2d5 f dlgprnt.obj
 0001:0001e38f       ?GetDeviceName@CPrintDialog@@QBE?AVCString@@XZ 5f41f38f f dlgprnt.obj
 0001:0001e44a       ?GetPortName@CPrintDialog@@QBE?AVCString@@XZ 5f41f44a f dlgprnt.obj
 0001:0001e505       ?GetDefaults@CPrintDialog@@QAEHXZ 5f41f505 f dlgprnt.obj
 0001:0001e535       ?Dump@CPrintDialog@@UBEXAAVCDumpContext@@@Z 5f41f535 f dlgprnt.obj
 0001:0001e6d5       ?AfxCreateDC@@YGPAUHDC__@@PAX0@Z 5f41f6d5 f dlgprnt.obj
 0001:0001e7b0       ??_GCPageSetupDialog@@UAEPAXI@Z 5f41f7b0 f dlgprnt.obj
 0001:0001e7f0       ??1CPageSetupDialog@@UAE@XZ 5f41f7f0 f dlgprnt.obj
 0001:0001e850       ??_GCPrintDialog@@UAEPAXI@Z 5f41f850 f dlgprnt.obj
 0001:0001e850       ??_ECPrintDialog@@UAEPAXI@Z 5f41f850 f dlgprnt.obj
 0001:0001e890       ??1CPrintDialog@@UAE@XZ    5f41f890 f dlgprnt.obj
 0001:0001e8f0       ??0_AFX_COLOR_STATE@@QAE@XZ 5f41f8f0 f dlgclr.obj
 0001:0001e98b       ?_GetBaseMessageMap@CColorDialog@@KGPBUAFX_MSGMAP@@XZ 5f41f98b f dlgclr.obj
 0001:0001e9a0       ?GetMessageMap@CColorDialog@@MBEPBUAFX_MSGMAP@@XZ 5f41f9a0 f dlgclr.obj
 0001:0001e9bb       ??0CColorDialog@@QAE@KKPAVCWnd@@@Z 5f41f9bb f dlgclr.obj
 0001:0001eab6       ?DoModal@CColorDialog@@UAEHXZ 5f41fab6 f dlgclr.obj
 0001:0001eb5d       ?OnColorOK@CColorDialog@@MAEHXZ 5f41fb5d f dlgclr.obj
 0001:0001eb85       ?SetCurrentColor@CColorDialog@@QAEXK@Z 5f41fb85 f dlgclr.obj
 0001:0001ebe3       ?GetSavedCustomColors@CColorDialog@@SGPAKXZ 5f41fbe3 f dlgclr.obj
 0001:0001ec00       ?OnCtlColor@CColorDialog@@IAEPAUHBRUSH__@@PAVCDC@@PAVCWnd@@I@Z 5f41fc00 f dlgclr.obj
 0001:0001ec20       ?Dump@CColorDialog@@UBEXAAVCDumpContext@@@Z 5f41fc20 f dlgclr.obj
 0001:0001ed20       ??_G_AFX_COLOR_STATE@@UAEPAXI@Z 5f41fd20 f dlgclr.obj
 0001:0001ed20       ??_E_AFX_COLOR_STATE@@UAEPAXI@Z 5f41fd20 f dlgclr.obj
 0001:0001ed60       ??1_AFX_COLOR_STATE@@UAE@XZ 5f41fd60 f dlgclr.obj
 0001:0001edc0       ??_GCColorDialog@@UAEPAXI@Z 5f41fdc0 f dlgclr.obj
 0001:0001edc0       ??_ECColorDialog@@UAEPAXI@Z 5f41fdc0 f dlgclr.obj
 0001:0001ee00       ??1CColorDialog@@UAE@XZ    5f41fe00 f dlgclr.obj
 0001:0001ee60       ??0CFontDialog@@QAE@PAUtagLOGFONTW@@KPAVCDC@@PAVCWnd@@@Z 5f41fe60 f dlgfnt.obj
 0001:0001effa       ??0CFontDialog@@QAE@ABU_charformatw@@KPAVCDC@@PAVCWnd@@@Z 5f41fffa f dlgfnt.obj
 0001:0001f186       ?DoModal@CFontDialog@@UAEHXZ 5f420186 f dlgfnt.obj
 0001:0001f25e       ?GetCurrentFont@CFontDialog@@QAEXPAUtagLOGFONTW@@@Z 5f42025e f dlgfnt.obj
 0001:0001f2cd       ?FillInLogFont@CFontDialog@@QAEKABU_charformatw@@@Z 5f4202cd f dlgfnt.obj
 0001:0001f560       ?GetCharFormat@CFontDialog@@QBEXAAU_charformatw@@@Z 5f420560 f dlgfnt.obj
 0001:0001f71e       ?Dump@CFontDialog@@UBEXAAVCDumpContext@@@Z 5f42071e f dlgfnt.obj
 0001:0001f890       ??_GCFontDialog@@UAEPAXI@Z 5f420890 f dlgfnt.obj
 0001:0001f890       ??_ECFontDialog@@UAEPAXI@Z 5f420890 f dlgfnt.obj
 0001:0001f8d0       ??1CFontDialog@@UAE@XZ     5f4208d0 f dlgfnt.obj
 0001:0001f930       ??0CFindReplaceDialog@@QAE@XZ 5f420930 f dlgfr.obj
 0001:0001fa1f       ?PostNcDestroy@CFindReplaceDialog@@MAEXXZ 5f420a1f f dlgfr.obj
 0001:0001fa7f       ?Create@CFindReplaceDialog@@QAEHHPBG0KPAVCWnd@@@Z 5f420a7f f dlgfr.obj
 0001:0001fc73       ?GetNotifier@CFindReplaceDialog@@SGPAV1@J@Z 5f420c73 f dlgfr.obj
 0001:0001fced       ?Dump@CFindReplaceDialog@@UBEXAAVCDumpContext@@@Z 5f420ced f dlgfr.obj
 0001:0001fdc0       ??_GCFindReplaceDialog@@UAEPAXI@Z 5f420dc0 f dlgfr.obj
 0001:0001fdc0       ??_ECFindReplaceDialog@@UAEPAXI@Z 5f420dc0 f dlgfr.obj
 0001:0001fe00       ??1CFindReplaceDialog@@UAE@XZ 5f420e00 f dlgfr.obj
 0001:0001fe60       ??0CByteArray@@QAE@XZ      5f420e60 f array_b.obj
 0001:0001fefb       ??1CByteArray@@UAE@XZ      5f420efb f array_b.obj
 0001:0001ff8e       ?SetSize@CByteArray@@QAEXHH@Z 5f420f8e f array_b.obj
 0001:0002024a       ?Append@CByteArray@@QAEHABV1@@Z 5f42124a f array_b.obj
 0001:000202dc       ?Copy@CByteArray@@QAEXABV1@@Z 5f4212dc f array_b.obj
 0001:00020359       ?FreeExtra@CByteArray@@QAEXXZ 5f421359 f array_b.obj
 0001:00020433       ?SetAtGrow@CByteArray@@QAEXHE@Z 5f421433 f array_b.obj
 0001:000204ad       ?InsertAt@CByteArray@@QAEXHEH@Z 5f4214ad f array_b.obj
 0001:000205f1       ?RemoveAt@CByteArray@@QAEXHH@Z 5f4215f1 f array_b.obj
 0001:000206d5       ?InsertAt@CByteArray@@QAEXHPAV1@@Z 5f4216d5 f array_b.obj
 0001:000207f5       ?Serialize@CByteArray@@UAEXAAVCArchive@@@Z 5f4217f5 f array_b.obj
 0001:00020895       ?Dump@CByteArray@@UBEXAAVCDumpContext@@@Z 5f421895 f array_b.obj
 0001:00020958       ?AssertValid@CByteArray@@UBEXXZ 5f421958 f array_b.obj
 0001:00020a80       ??_GCByteArray@@UAEPAXI@Z  5f421a80 f array_b.obj
 0001:00020ac0       ??0CDWordArray@@QAE@XZ     5f421ac0 f array_d.obj
 0001:00020b5b       ??1CDWordArray@@UAE@XZ     5f421b5b f array_d.obj
 0001:00020bee       ?SetSize@CDWordArray@@QAEXHH@Z 5f421bee f array_d.obj
 0001:00020ec8       ?Append@CDWordArray@@QAEHABV1@@Z 5f421ec8 f array_d.obj
 0001:00020f60       ?Copy@CDWordArray@@QAEXABV1@@Z 5f421f60 f array_d.obj
 0001:00020fe0       ?FreeExtra@CDWordArray@@QAEXXZ 5f421fe0 f array_d.obj
 0001:000210c3       ?SetAtGrow@CDWordArray@@QAEXHK@Z 5f4220c3 f array_d.obj
 0001:0002113d       ?InsertAt@CDWordArray@@QAEXHKH@Z 5f42213d f array_d.obj
 0001:00021290       ?RemoveAt@CDWordArray@@QAEXHH@Z 5f422290 f array_d.obj
 0001:0002137d       ?InsertAt@CDWordArray@@QAEXHPAV1@@Z 5f42237d f array_d.obj
 0001:0002149d       ?Serialize@CDWordArray@@UAEXAAVCArchive@@@Z 5f42249d f array_d.obj
 0001:00021543       ?Dump@CDWordArray@@UBEXAAVCDumpContext@@@Z 5f422543 f array_d.obj
 0001:00021606       ?AssertValid@CDWordArray@@UBEXXZ 5f422606 f array_d.obj
 0001:00021730       ??_GCDWordArray@@UAEPAXI@Z 5f422730 f array_d.obj
 0001:00021770       ??0CPtrArray@@QAE@XZ       5f422770 f array_p.obj
 0001:0002180b       ??1CPtrArray@@UAE@XZ       5f42280b f array_p.obj
 0001:0002189e       ?SetSize@CPtrArray@@QAEXHH@Z 5f42289e f array_p.obj
 0001:00021b78       ?Append@CPtrArray@@QAEHABV1@@Z 5f422b78 f array_p.obj
 0001:00021c10       ?Copy@CPtrArray@@QAEXABV1@@Z 5f422c10 f array_p.obj
 0001:00021c90       ?FreeExtra@CPtrArray@@QAEXXZ 5f422c90 f array_p.obj
 0001:00021d73       ?SetAtGrow@CPtrArray@@QAEXHPAX@Z 5f422d73 f array_p.obj
 0001:00021ded       ?InsertAt@CPtrArray@@QAEXHPAXH@Z 5f422ded f array_p.obj
 0001:00021f40       ?RemoveAt@CPtrArray@@QAEXHH@Z 5f422f40 f array_p.obj
 0001:0002202d       ?InsertAt@CPtrArray@@QAEXHPAV1@@Z 5f42302d f array_p.obj
 0001:0002214d       ?Dump@CPtrArray@@UBEXAAVCDumpContext@@@Z 5f42314d f array_p.obj
 0001:00022210       ?AssertValid@CPtrArray@@UBEXXZ 5f423210 f array_p.obj
 0001:00022340       ??_GCPtrArray@@UAEPAXI@Z   5f423340 f array_p.obj
 0001:00022380       ??0CObArray@@QAE@XZ        5f423380 f array_o.obj
 0001:0002241b       ??1CObArray@@UAE@XZ        5f42341b f array_o.obj
 0001:000224ae       ?SetSize@CObArray@@QAEXHH@Z 5f4234ae f array_o.obj
 0001:00022788       ?Append@CObArray@@QAEHABV1@@Z 5f423788 f array_o.obj
 0001:00022820       ?Copy@CObArray@@QAEXABV1@@Z 5f423820 f array_o.obj
 0001:000228a0       ?FreeExtra@CObArray@@QAEXXZ 5f4238a0 f array_o.obj
 0001:00022983       ?SetAtGrow@CObArray@@QAEXHPAVCObject@@@Z 5f423983 f array_o.obj
 0001:000229fd       ?InsertAt@CObArray@@QAEXHPAVCObject@@H@Z 5f4239fd f array_o.obj
 0001:00022b50       ?RemoveAt@CObArray@@QAEXHH@Z 5f423b50 f array_o.obj
 0001:00022c3d       ?InsertAt@CObArray@@QAEXHPAV1@@Z 5f423c3d f array_o.obj
 0001:00022d5d       ?Serialize@CObArray@@UAEXAAVCArchive@@@Z 5f423d5d f array_o.obj
 0001:00022e43       ?Dump@CObArray@@UBEXAAVCDumpContext@@@Z 5f423e43 f array_o.obj
 0001:00022f06       ?AssertValid@CObArray@@UBEXXZ 5f423f06 f array_o.obj
 0001:00023030       ??_GCObArray@@UAEPAXI@Z    5f424030 f array_o.obj
 0001:00023070       ??0CStringArray@@QAE@XZ    5f424070 f array_s.obj
 0001:0002310b       ??1CStringArray@@UAE@XZ    5f42410b f array_s.obj
 0001:00023228       ?SetSize@CStringArray@@QAEXHH@Z 5f424228 f array_s.obj
 0001:000235c6       ?Append@CStringArray@@QAEHABV1@@Z 5f4245c6 f array_s.obj
 0001:000236b9       ?Copy@CStringArray@@QAEXABV1@@Z 5f4246b9 f array_s.obj
 0001:00023736       ?FreeExtra@CStringArray@@QAEXXZ 5f424736 f array_s.obj
 0001:00023819       ?SetAtGrow@CStringArray@@QAEXHPBG@Z 5f424819 f array_s.obj
 0001:00023899       ?InsertAt@CStringArray@@QAEXHPBGH@Z 5f424899 f array_s.obj
 0001:000239f3       ?RemoveAt@CStringArray@@QAEXHH@Z 5f4249f3 f array_s.obj
 0001:00023af9       ?InsertAt@CStringArray@@QAEXHPAV1@@Z 5f424af9 f array_s.obj
 0001:00023c8f       ?Serialize@CStringArray@@UAEXAAVCArchive@@@Z 5f424c8f f array_s.obj
 0001:00023d75       ?Dump@CStringArray@@UBEXAAVCDumpContext@@@Z 5f424d75 f array_s.obj
 0001:00023e37       ?AssertValid@CStringArray@@UBEXXZ 5f424e37 f array_s.obj
 0001:00023f60       ??_GCStringArray@@UAEPAXI@Z 5f424f60 f array_s.obj
 0001:00023fa0       ??_GCString@@QAEPAXI@Z     5f424fa0 f array_s.obj
 0001:00023fe0       ??0CUIntArray@@QAE@XZ      5f424fe0 f array_u.obj
 0001:0002407b       ??1CUIntArray@@UAE@XZ      5f42507b f array_u.obj
 0001:0002410e       ?SetSize@CUIntArray@@QAEXHH@Z 5f42510e f array_u.obj
 0001:000243e8       ?Append@CUIntArray@@QAEHABV1@@Z 5f4253e8 f array_u.obj
 0001:00024480       ?Copy@CUIntArray@@QAEXABV1@@Z 5f425480 f array_u.obj
 0001:00024500       ?FreeExtra@CUIntArray@@QAEXXZ 5f425500 f array_u.obj
 0001:000245e3       ?SetAtGrow@CUIntArray@@QAEXHI@Z 5f4255e3 f array_u.obj
 0001:0002465d       ?InsertAt@CUIntArray@@QAEXHIH@Z 5f42565d f array_u.obj
 0001:000247b0       ?RemoveAt@CUIntArray@@QAEXHH@Z 5f4257b0 f array_u.obj
 0001:0002489d       ?InsertAt@CUIntArray@@QAEXHPAV1@@Z 5f42589d f array_u.obj
 0001:000249bd       ?Dump@CUIntArray@@UBEXAAVCDumpContext@@@Z 5f4259bd f array_u.obj
 0001:00024a80       ?AssertValid@CUIntArray@@UBEXXZ 5f425a80 f array_u.obj
 0001:00024bb0       ??_GCUIntArray@@UAEPAXI@Z  5f425bb0 f array_u.obj
 0001:00024bf0       ??0CWordArray@@QAE@XZ      5f425bf0 f array_w.obj
 0001:00024c8b       ??1CWordArray@@UAE@XZ      5f425c8b f array_w.obj
 0001:00024d1e       ?SetSize@CWordArray@@QAEXHH@Z 5f425d1e f array_w.obj
 0001:00024ff0       ?Append@CWordArray@@QAEHABV1@@Z 5f425ff0 f array_w.obj
 0001:00025087       ?Copy@CWordArray@@QAEXABV1@@Z 5f426087 f array_w.obj
 0001:00025106       ?FreeExtra@CWordArray@@QAEXXZ 5f426106 f array_w.obj
 0001:000251e7       ?SetAtGrow@CWordArray@@QAEXHG@Z 5f4261e7 f array_w.obj
 0001:00025263       ?InsertAt@CWordArray@@QAEXHGH@Z 5f426263 f array_w.obj
 0001:000253b5       ?RemoveAt@CWordArray@@QAEXHH@Z 5f4263b5 f array_w.obj
 0001:000254a0       ?InsertAt@CWordArray@@QAEXHPAV1@@Z 5f4264a0 f array_w.obj
 0001:000255c0       ?Serialize@CWordArray@@UAEXAAVCArchive@@@Z 5f4265c0 f array_w.obj
 0001:00025664       ?Dump@CWordArray@@UBEXAAVCDumpContext@@@Z 5f426664 f array_w.obj
 0001:00025728       ?AssertValid@CWordArray@@UBEXXZ 5f426728 f array_w.obj
 0001:00025850       ??_GCWordArray@@UAEPAXI@Z  5f426850 f array_w.obj
 0001:00025890       ??0CObList@@QAE@H@Z        5f426890 f list_o.obj
 0001:0002595f       ?RemoveAll@CObList@@QAEXXZ 5f42695f f list_o.obj
 0001:000259c6       ??1CObList@@UAE@XZ         5f4269c6 f list_o.obj
 0001:00025a58       ?NewNode@CObList@@IAEPAUCNode@1@PAU21@0@Z 5f426a58 f list_o.obj
 0001:00025b68       ?FreeNode@CObList@@IAEXPAUCNode@1@@Z 5f426b68 f list_o.obj
 0001:00025bd1       ?AddHead@CObList@@QAEPAU__POSITION@@PAVCObject@@@Z 5f426bd1 f list_o.obj
 0001:00025c4c       ?AddTail@CObList@@QAEPAU__POSITION@@PAVCObject@@@Z 5f426c4c f list_o.obj
 0001:00025cc6       ?AddHead@CObList@@QAEXPAV1@@Z 5f426cc6 f list_o.obj
 0001:00025d84       ?AddTail@CObList@@QAEXPAV1@@Z 5f426d84 f list_o.obj
 0001:00025e42       ?RemoveHead@CObList@@QAEPAVCObject@@XZ 5f426e42 f list_o.obj
 0001:00025f15       ?RemoveTail@CObList@@QAEPAVCObject@@XZ 5f426f15 f list_o.obj
 0001:00025fe8       ?InsertBefore@CObList@@QAEPAU__POSITION@@PAU2@PAVCObject@@@Z 5f426fe8 f list_o.obj
 0001:000260dc       ?InsertAfter@CObList@@QAEPAU__POSITION@@PAU2@PAVCObject@@@Z 5f4270dc f list_o.obj
 0001:000261f9       ?RemoveAt@CObList@@QAEXPAU__POSITION@@@Z 5f4271f9 f list_o.obj
 0001:0002631c       ?FindIndex@CObList@@QBEPAU__POSITION@@H@Z 5f42731c f list_o.obj
 0001:000263d8       ?Find@CObList@@QBEPAU__POSITION@@PAVCObject@@PAU2@@Z 5f4273d8 f list_o.obj
 0001:0002648b       ?Serialize@CObList@@UAEXAAVCArchive@@@Z 5f42748b f list_o.obj
 0001:00026584       ?Dump@CObList@@UBEXAAVCDumpContext@@@Z 5f427584 f list_o.obj
 0001:00026627       ?AssertValid@CObList@@UBEXXZ 5f427627 f list_o.obj
 0001:00026710       ??_GCObList@@UAEPAXI@Z     5f427710 f list_o.obj
 0001:00026750       ??0CPtrList@@QAE@H@Z       5f427750 f list_p.obj
 0001:0002681f       ?RemoveAll@CPtrList@@QAEXXZ 5f42781f f list_p.obj
 0001:00026886       ??1CPtrList@@UAE@XZ        5f427886 f list_p.obj
 0001:00026918       ?NewNode@CPtrList@@IAEPAUCNode@1@PAU21@0@Z 5f427918 f list_p.obj
 0001:00026a28       ?FreeNode@CPtrList@@IAEXPAUCNode@1@@Z 5f427a28 f list_p.obj
 0001:00026a91       ?AddHead@CPtrList@@QAEPAU__POSITION@@PAX@Z 5f427a91 f list_p.obj
 0001:00026b0c       ?AddTail@CPtrList@@QAEPAU__POSITION@@PAX@Z 5f427b0c f list_p.obj
 0001:00026b86       ?AddHead@CPtrList@@QAEXPAV1@@Z 5f427b86 f list_p.obj
 0001:00026c44       ?AddTail@CPtrList@@QAEXPAV1@@Z 5f427c44 f list_p.obj
 0001:00026d02       ?RemoveHead@CPtrList@@QAEPAXXZ 5f427d02 f list_p.obj
 0001:00026dd5       ?RemoveTail@CPtrList@@QAEPAXXZ 5f427dd5 f list_p.obj
 0001:00026ea8       ?InsertBefore@CPtrList@@QAEPAU__POSITION@@PAU2@PAX@Z 5f427ea8 f list_p.obj
 0001:00026f9c       ?InsertAfter@CPtrList@@QAEPAU__POSITION@@PAU2@PAX@Z 5f427f9c f list_p.obj
 0001:000270b9       ?RemoveAt@CPtrList@@QAEXPAU__POSITION@@@Z 5f4280b9 f list_p.obj
 0001:000271dc       ?FindIndex@CPtrList@@QBEPAU__POSITION@@H@Z 5f4281dc f list_p.obj
 0001:00027298       ?Find@CPtrList@@QBEPAU__POSITION@@PAXPAU2@@Z 5f428298 f list_p.obj
 0001:0002734b       ?Dump@CPtrList@@UBEXAAVCDumpContext@@@Z 5f42834b f list_p.obj
 0001:000273ee       ?AssertValid@CPtrList@@UBEXXZ 5f4283ee f list_p.obj
 0001:000274d0       ??_GCPtrList@@UAEPAXI@Z    5f4284d0 f list_p.obj
 0001:00027510       ??0CStringList@@QAE@H@Z    5f428510 f list_s.obj
 0001:000275df       ?RemoveAll@CStringList@@QAEXXZ 5f4285df f list_s.obj
 0001:00027694       ??1CStringList@@UAE@XZ     5f428694 f list_s.obj
 0001:00027726       ?NewNode@CStringList@@IAEPAUCNode@1@PAU21@0@Z 5f428726 f list_s.obj
 0001:0002785f       ?FreeNode@CStringList@@IAEXPAUCNode@1@@Z 5f42885f f list_s.obj
 0001:000278da       ?AddHead@CStringList@@QAEPAU__POSITION@@PBG@Z 5f4288da f list_s.obj
 0001:0002795b       ?AddTail@CStringList@@QAEPAU__POSITION@@PBG@Z 5f42895b f list_s.obj
 0001:000279db       ?AddHead@CStringList@@QAEXPAV1@@Z 5f4289db f list_s.obj
 0001:00027a9e       ?AddTail@CStringList@@QAEXPAV1@@Z 5f428a9e f list_s.obj
 0001:00027b61       ?RemoveHead@CStringList@@QAE?AVCString@@XZ 5f428b61 f list_s.obj
 0001:00027ca8       ?RemoveTail@CStringList@@QAE?AVCString@@XZ 5f428ca8 f list_s.obj
 0001:00027def       ?InsertBefore@CStringList@@QAEPAU__POSITION@@PAU2@PBG@Z 5f428def f list_s.obj
 0001:00027ee9       ?InsertAfter@CStringList@@QAEPAU__POSITION@@PAU2@PBG@Z 5f428ee9 f list_s.obj
 0001:0002800c       ?RemoveAt@CStringList@@QAEXPAU__POSITION@@@Z 5f42900c f list_s.obj
 0001:0002812f       ?FindIndex@CStringList@@QBEPAU__POSITION@@H@Z 5f42912f f list_s.obj
 0001:000281eb       ?Find@CStringList@@QBEPAU__POSITION@@PBGPAU2@@Z 5f4291eb f list_s.obj
 0001:000282a7       ?Serialize@CStringList@@UAEXAAVCArchive@@@Z 5f4292a7 f list_s.obj
 0001:000283f1       ?Dump@CStringList@@UBEXAAVCDumpContext@@@Z 5f4293f1 f list_s.obj
 0001:000284db       ?AssertValid@CStringList@@UBEXXZ 5f4294db f list_s.obj
 0001:000285c0       ??_GCStringList@@UAEPAXI@Z 5f4295c0 f list_s.obj
 0001:00028600       ?Create@CPlex@@SGPAU1@AAPAU1@II@Z 5f429600 f plex.obj
 0001:00028670       ?FreeDataChain@CPlex@@QAEXXZ 5f429670 f plex.obj
 0001:000286d0       ??0CMapPtrToPtr@@QAE@H@Z   5f4296d0 f map_pp.obj
 0001:0002879b       ?InitHashTable@CMapPtrToPtr@@QAEXIH@Z 5f42979b f map_pp.obj
 0001:0002887d       ?RemoveAll@CMapPtrToPtr@@QAEXXZ 5f42987d f map_pp.obj
 0001:000288fe       ??1CMapPtrToPtr@@UAE@XZ    5f4298fe f map_pp.obj
 0001:00028990       ?NewAssoc@CMapPtrToPtr@@IAEPAUCAssoc@1@XZ 5f429990 f map_pp.obj
 0001:00028a9a       ?FreeAssoc@CMapPtrToPtr@@IAEXPAUCAssoc@1@@Z 5f429a9a f map_pp.obj
 0001:00028b06       ?GetAssocAt@CMapPtrToPtr@@IBEPAUCAssoc@1@PAXAAI@Z 5f429b06 f map_pp.obj
 0001:00028b91       ?GetValueAt@CMapPtrToPtr@@QBEPAXPAX@Z 5f429b91 f map_pp.obj
 0001:00028c1b       ?Lookup@CMapPtrToPtr@@QBEHPAXAAPAX@Z 5f429c1b f map_pp.obj
 0001:00028c7a       ??ACMapPtrToPtr@@QAEAAPAXPAX@Z 5f429c7a f map_pp.obj
 0001:00028d1a       ?RemoveKey@CMapPtrToPtr@@QAEHPAX@Z 5f429d1a f map_pp.obj
 0001:00028dd8       ?GetNextAssoc@CMapPtrToPtr@@QBEXAAPAU__POSITION@@AAPAX1@Z 5f429dd8 f map_pp.obj
 0001:00028f73       ?Dump@CMapPtrToPtr@@UBEXAAVCDumpContext@@@Z 5f429f73 f map_pp.obj
 0001:00029038       ?AssertValid@CMapPtrToPtr@@UBEXXZ 5f42a038 f map_pp.obj
 0001:000290b0       ??_GCMapPtrToPtr@@UAEPAXI@Z 5f42a0b0 f map_pp.obj
 0001:000290f0       ?HashKey@CMapPtrToPtr@@QBEIPAX@Z 5f42a0f0 f map_pp.obj
 0001:00029110       ??0CMapPtrToWord@@QAE@H@Z  5f42a110 f map_pw.obj
 0001:000291db       ?InitHashTable@CMapPtrToWord@@QAEXIH@Z 5f42a1db f map_pw.obj
 0001:000292bd       ?RemoveAll@CMapPtrToWord@@QAEXXZ 5f42a2bd f map_pw.obj
 0001:0002933e       ??1CMapPtrToWord@@UAE@XZ   5f42a33e f map_pw.obj
 0001:000293d0       ?NewAssoc@CMapPtrToWord@@IAEPAUCAssoc@1@XZ 5f42a3d0 f map_pw.obj
 0001:000294d9       ?FreeAssoc@CMapPtrToWord@@IAEXPAUCAssoc@1@@Z 5f42a4d9 f map_pw.obj
 0001:00029545       ?GetAssocAt@CMapPtrToWord@@IBEPAUCAssoc@1@PAXAAI@Z 5f42a545 f map_pw.obj
 0001:000295d0       ?Lookup@CMapPtrToWord@@QBEHPAXAAG@Z 5f42a5d0 f map_pw.obj
 0001:00029631       ??ACMapPtrToWord@@QAEAAGPAX@Z 5f42a631 f map_pw.obj
 0001:000296d1       ?RemoveKey@CMapPtrToWord@@QAEHPAX@Z 5f42a6d1 f map_pw.obj
 0001:0002978f       ?GetNextAssoc@CMapPtrToWord@@QBEXAAPAU__POSITION@@AAPAXAAG@Z 5f42a78f f map_pw.obj
 0001:0002992c       ?Dump@CMapPtrToWord@@UBEXAAVCDumpContext@@@Z 5f42a92c f map_pw.obj
 0001:000299f1       ?AssertValid@CMapPtrToWord@@UBEXXZ 5f42a9f1 f map_pw.obj
 0001:00029a70       ??_GCMapPtrToWord@@UAEPAXI@Z 5f42aa70 f map_pw.obj
 0001:00029ab0       ?HashKey@CMapPtrToWord@@QBEIPAX@Z 5f42aab0 f map_pw.obj
 0001:00029ad0       ??0CMapStringToOb@@QAE@H@Z 5f42aad0 f map_so.obj
 0001:00029b9b       ?InitHashTable@CMapStringToOb@@QAEXIH@Z 5f42ab9b f map_so.obj
 0001:00029c7d       ?RemoveAll@CMapStringToOb@@QAEXXZ 5f42ac7d f map_so.obj
 0001:00029d57       ??1CMapStringToOb@@UAE@XZ  5f42ad57 f map_so.obj
 0001:00029de9       ?NewAssoc@CMapStringToOb@@IAEPAUCAssoc@1@XZ 5f42ade9 f map_so.obj
 0001:00029f00       ?FreeAssoc@CMapStringToOb@@IAEXPAUCAssoc@1@@Z 5f42af00 f map_so.obj
 0001:00029f77       ?GetAssocAt@CMapStringToOb@@IBEPAUCAssoc@1@PBGAAI@Z 5f42af77 f map_so.obj
 0001:0002a00b       ?Lookup@CMapStringToOb@@QBEHPBGAAPAVCObject@@@Z 5f42b00b f map_so.obj
 0001:0002a06a       ?LookupKey@CMapStringToOb@@QBEHPBGAAPBG@Z 5f42b06a f map_so.obj
 0001:0002a0ce       ??ACMapStringToOb@@QAEAAPAVCObject@@PBG@Z 5f42b0ce f map_so.obj
 0001:0002a17d       ?RemoveKey@CMapStringToOb@@QAEHPBG@Z 5f42b17d f map_so.obj
 0001:0002a244       ?GetNextAssoc@CMapStringToOb@@QBEXAAPAU__POSITION@@AAVCString@@AAPAVCObject@@@Z 5f42b244 f map_so.obj
 0001:0002a3d0       ?Serialize@CMapStringToOb@@UAEXAAVCArchive@@@Z 5f42b3d0 f map_so.obj
 0001:0002a56e       ?Dump@CMapStringToOb@@UBEXAAVCDumpContext@@@Z 5f42b56e f map_so.obj
 0001:0002a67e       ?AssertValid@CMapStringToOb@@UBEXXZ 5f42b67e f map_so.obj
 0001:0002a700       ??_GCMapStringToOb@@UAEPAXI@Z 5f42b700 f map_so.obj
 0001:0002a740       ?HashKey@CMapStringToOb@@QBEIPBG@Z 5f42b740 f map_so.obj
 0001:0002a790       ??0CMapStringToPtr@@QAE@H@Z 5f42b790 f map_sp.obj
 0001:0002a85b       ?InitHashTable@CMapStringToPtr@@QAEXIH@Z 5f42b85b f map_sp.obj
 0001:0002a93d       ?RemoveAll@CMapStringToPtr@@QAEXXZ 5f42b93d f map_sp.obj
 0001:0002aa17       ??1CMapStringToPtr@@UAE@XZ 5f42ba17 f map_sp.obj
 0001:0002aaa9       ?NewAssoc@CMapStringToPtr@@IAEPAUCAssoc@1@XZ 5f42baa9 f map_sp.obj
 0001:0002abc0       ?FreeAssoc@CMapStringToPtr@@IAEXPAUCAssoc@1@@Z 5f42bbc0 f map_sp.obj
 0001:0002ac37       ?GetAssocAt@CMapStringToPtr@@IBEPAUCAssoc@1@PBGAAI@Z 5f42bc37 f map_sp.obj
 0001:0002accb       ?Lookup@CMapStringToPtr@@QBEHPBGAAPAX@Z 5f42bccb f map_sp.obj
 0001:0002ad2a       ?LookupKey@CMapStringToPtr@@QBEHPBGAAPBG@Z 5f42bd2a f map_sp.obj
 0001:0002ad8e       ??ACMapStringToPtr@@QAEAAPAXPBG@Z 5f42bd8e f map_sp.obj
 0001:0002ae3d       ?RemoveKey@CMapStringToPtr@@QAEHPBG@Z 5f42be3d f map_sp.obj
 0001:0002af04       ?GetNextAssoc@CMapStringToPtr@@QBEXAAPAU__POSITION@@AAVCString@@AAPAX@Z 5f42bf04 f map_sp.obj
 0001:0002b090       ?Dump@CMapStringToPtr@@UBEXAAVCDumpContext@@@Z 5f42c090 f map_sp.obj
 0001:0002b1a0       ?AssertValid@CMapStringToPtr@@UBEXXZ 5f42c1a0 f map_sp.obj
 0001:0002b220       ??_GCMapStringToPtr@@UAEPAXI@Z 5f42c220 f map_sp.obj
 0001:0002b260       ?HashKey@CMapStringToPtr@@QBEIPBG@Z 5f42c260 f map_sp.obj
 0001:0002b2b0       ??0CMapStringToString@@QAE@H@Z 5f42c2b0 f map_ss.obj
 0001:0002b37b       ?InitHashTable@CMapStringToString@@QAEXIH@Z 5f42c37b f map_ss.obj
 0001:0002b45d       ?RemoveAll@CMapStringToString@@QAEXXZ 5f42c45d f map_ss.obj
 0001:0002b560       ??1CMapStringToString@@UAE@XZ 5f42c560 f map_ss.obj
 0001:0002b5f2       ?NewAssoc@CMapStringToString@@IAEPAUCAssoc@1@XZ 5f42c5f2 f map_ss.obj
 0001:0002b732       ?FreeAssoc@CMapStringToString@@IAEXPAUCAssoc@1@@Z 5f42c732 f map_ss.obj
 0001:0002b7b8       ?GetAssocAt@CMapStringToString@@IBEPAUCAssoc@1@PBGAAI@Z 5f42c7b8 f map_ss.obj
 0001:0002b84c       ?Lookup@CMapStringToString@@QBEHPBGAAVCString@@@Z 5f42c84c f map_ss.obj
 0001:0002b8af       ?LookupKey@CMapStringToString@@QBEHPBGAAPBG@Z 5f42c8af f map_ss.obj
 0001:0002b913       ??ACMapStringToString@@QAEAAVCString@@PBG@Z 5f42c913 f map_ss.obj
 0001:0002b9c2       ?RemoveKey@CMapStringToString@@QAEHPBG@Z 5f42c9c2 f map_ss.obj
 0001:0002ba89       ?GetNextAssoc@CMapStringToString@@QBEXAAPAU__POSITION@@AAVCString@@1@Z 5f42ca89 f map_ss.obj
 0001:0002bc19       ?Serialize@CMapStringToString@@UAEXAAVCArchive@@@Z 5f42cc19 f map_ss.obj
 0001:0002bdda       ?Dump@CMapStringToString@@UBEXAAVCDumpContext@@@Z 5f42cdda f map_ss.obj
 0001:0002bf07       ?AssertValid@CMapStringToString@@UBEXXZ 5f42cf07 f map_ss.obj
 0001:0002bf80       ??_GCMapStringToString@@UAEPAXI@Z 5f42cf80 f map_ss.obj
 0001:0002bfc0       ?HashKey@CMapStringToString@@QBEIPBG@Z 5f42cfc0 f map_ss.obj
 0001:0002c010       ??0CMapWordToOb@@QAE@H@Z   5f42d010 f map_wo.obj
 0001:0002c0db       ?InitHashTable@CMapWordToOb@@QAEXIH@Z 5f42d0db f map_wo.obj
 0001:0002c1bd       ?RemoveAll@CMapWordToOb@@QAEXXZ 5f42d1bd f map_wo.obj
 0001:0002c23e       ??1CMapWordToOb@@UAE@XZ    5f42d23e f map_wo.obj
 0001:0002c2d0       ?NewAssoc@CMapWordToOb@@IAEPAUCAssoc@1@XZ 5f42d2d0 f map_wo.obj
 0001:0002c3d9       ?FreeAssoc@CMapWordToOb@@IAEXPAUCAssoc@1@@Z 5f42d3d9 f map_wo.obj
 0001:0002c445       ?GetAssocAt@CMapWordToOb@@IBEPAUCAssoc@1@GAAI@Z 5f42d445 f map_wo.obj
 0001:0002c4da       ?Lookup@CMapWordToOb@@QBEHGAAPAVCObject@@@Z 5f42d4da f map_wo.obj
 0001:0002c539       ??ACMapWordToOb@@QAEAAPAVCObject@@G@Z 5f42d539 f map_wo.obj
 0001:0002c5db       ?RemoveKey@CMapWordToOb@@QAEHG@Z 5f42d5db f map_wo.obj
 0001:0002c6a3       ?GetNextAssoc@CMapWordToOb@@QBEXAAPAU__POSITION@@AAGAAPAVCObject@@@Z 5f42d6a3 f map_wo.obj
 0001:0002c841       ?Serialize@CMapWordToOb@@UAEXAAVCArchive@@@Z 5f42d841 f map_wo.obj
 0001:0002c98d       ?Dump@CMapWordToOb@@UBEXAAVCDumpContext@@@Z 5f42d98d f map_wo.obj
 0001:0002ca52       ?AssertValid@CMapWordToOb@@UBEXXZ 5f42da52 f map_wo.obj
 0001:0002cad0       ??_GCMapWordToOb@@UAEPAXI@Z 5f42dad0 f map_wo.obj
 0001:0002cb10       ?HashKey@CMapWordToOb@@QBEIG@Z 5f42db10 f map_wo.obj
 0001:0002cb40       ??0CMapWordToPtr@@QAE@H@Z  5f42db40 f map_wp.obj
 0001:0002cc0b       ?InitHashTable@CMapWordToPtr@@QAEXIH@Z 5f42dc0b f map_wp.obj
 0001:0002cced       ?RemoveAll@CMapWordToPtr@@QAEXXZ 5f42dced f map_wp.obj
 0001:0002cd6e       ??1CMapWordToPtr@@UAE@XZ   5f42dd6e f map_wp.obj
 0001:0002ce00       ?NewAssoc@CMapWordToPtr@@IAEPAUCAssoc@1@XZ 5f42de00 f map_wp.obj
 0001:0002cf09       ?FreeAssoc@CMapWordToPtr@@IAEXPAUCAssoc@1@@Z 5f42df09 f map_wp.obj
 0001:0002cf75       ?GetAssocAt@CMapWordToPtr@@IBEPAUCAssoc@1@GAAI@Z 5f42df75 f map_wp.obj
 0001:0002d00a       ?Lookup@CMapWordToPtr@@QBEHGAAPAX@Z 5f42e00a f map_wp.obj
 0001:0002d069       ??ACMapWordToPtr@@QAEAAPAXG@Z 5f42e069 f map_wp.obj
 0001:0002d10b       ?RemoveKey@CMapWordToPtr@@QAEHG@Z 5f42e10b f map_wp.obj
 0001:0002d1d3       ?GetNextAssoc@CMapWordToPtr@@QBEXAAPAU__POSITION@@AAGAAPAX@Z 5f42e1d3 f map_wp.obj
 0001:0002d371       ?Dump@CMapWordToPtr@@UBEXAAVCDumpContext@@@Z 5f42e371 f map_wp.obj
 0001:0002d436       ?AssertValid@CMapWordToPtr@@UBEXXZ 5f42e436 f map_wp.obj
 0001:0002d4b0       ??_GCMapWordToPtr@@UAEPAXI@Z 5f42e4b0 f map_wp.obj
 0001:0002d4f0       ?HashKey@CMapWordToPtr@@QBEIG@Z 5f42e4f0 f map_wp.obj
 0001:0002d520       ?_GetBaseClass@CObject@@SGPAUCRuntimeClass@@XZ 5f42e520 f objcore.obj
 0001:0002d532       ?GetRuntimeClass@CObject@@UBEPAUCRuntimeClass@@XZ 5f42e532 f objcore.obj
 0001:0002d54d       ?IsKindOf@CObject@@QBEHPBUCRuntimeClass@@@Z 5f42e54d f objcore.obj
 0001:0002d5c7       ?AfxDynamicDownCast@@YAPAVCObject@@PAUCRuntimeClass@@PAV1@@Z 5f42e5c7 f objcore.obj
 0001:0002d604       ?AfxStaticDownCast@@YAPAVCObject@@PAUCRuntimeClass@@PAV1@@Z 5f42e604 f objcore.obj
 0001:0002d64a       ?AfxAssertValidObject@@YGXPBVCObject@@PBDH@Z 5f42e64a f objcore.obj
 0001:0002d778       ?AssertValid@CObject@@UBEXXZ 5f42e778 f objcore.obj
 0001:0002d7ad       ?Dump@CObject@@UBEXAAVCDumpContext@@@Z 5f42e7ad f objcore.obj
 0001:0002d809       ?CreateObject@CRuntimeClass@@QAEPAVCObject@@XZ 5f42e809 f objcore.obj
 0001:0002d8d6       ?IsSerializable@CObject@@QBEHXZ 5f42e8d6 f objcore.obj
 0001:0002d90f       ??0AFX_CLASSINIT@@QAE@PAUCRuntimeClass@@@Z 5f42e90f f objcore.obj
 0001:0002d94f       ?IsDerivedFrom@CRuntimeClass@@QBEHPBU1@@Z 5f42e94f f objcore.obj
 0001:0002da3b       ?AfxDoForAllClasses@@YGXP6AXPBUCRuntimeClass@@PAX@Z1@Z 5f42ea3b f objcore.obj
 0001:0002db20       ??0CException@@QAE@XZ      5f42eb20 f except.obj
 0001:0002dba3       ??0CException@@QAE@H@Z     5f42eba3 f except.obj
 0001:0002dc27       ?Delete@CException@@QAEXXZ 5f42ec27 f except.obj
 0001:0002dc7c       ?GetErrorMessage@CException@@UAEHPAGIPAI@Z 5f42ec7c f except.obj
 0001:0002dcc5       ?ReportError@CException@@UAEHII@Z 5f42ecc5 f except.obj
 0001:0002dd59       ??3CException@@SGXPAX@Z    5f42ed59 f except.obj
 0001:0002dddb       ??0AFX_EXCEPTION_LINK@@QAE@XZ 5f42eddb f except.obj
 0001:0002de18       ?AfxTryCleanup@@YGXXZ      5f42ee18 f except.obj
 0001:0002de7f       ?AfxThrowLastCleanup@@YGXXZ 5f42ee7f f except.obj
 0001:0002dec0       ??_GCException@@UAEPAXI@Z  5f42eec0 f except.obj
 0001:0002dec0       ??_ECException@@UAEPAXI@Z  5f42eec0 f except.obj
 0001:0002df00       ?AfxGetExceptionContext@@YAPAUAFX_EXCEPTION_CONTEXT@@XZ 5f42ef00 f except.obj
 0001:0002df40       ??2CObject@@SGPAXI@Z       5f42ef40 f afxmem.obj
 0001:0002df64       ??3CObject@@SGXPAX@Z       5f42ef64 f afxmem.obj
 0001:0002df85       ??2@YAPAXIPBDH@Z           5f42ef85 f afxmem.obj
 0001:0002dfab       ??2CObject@@SGPAXIPBDH@Z   5f42efab f afxmem.obj
 0001:0002dfd3       ?AfxAllocMemoryDebug@@YGPAXIHPBDH@Z 5f42efd3 f afxmem.obj
 0001:0002e007       ?AfxFreeMemoryDebug@@YGXPAXH@Z 5f42f007 f afxmem.obj
 0001:0002e033       ?_AfxDefaultAllocHook@@YGHIHJ@Z 5f42f033 f afxmem.obj
 0001:0002e04a       ?_AfxAllocHookProxy@@YAHHPAXIHJPBDH@Z 5f42f04a f afxmem.obj
 0001:0002e0e3       ?AfxSetAllocHook@@YGP6GHIHJ@ZP6GHIHJ@Z@Z 5f42f0e3 f afxmem.obj
 0001:0002e12b       ?AfxEnableMemoryTracking@@YGHH@Z 5f42f12b f afxmem.obj
 0001:0002e19a       ?AfxSetAllocStop@@YGXJ@Z   5f42f19a f afxmem.obj
 0001:0002e1b9       ?AfxCheckMemory@@YGHXZ     5f42f1b9 f afxmem.obj
 0001:0002e1cf       ?AfxIsMemoryBlock@@YGHPBXIPAJ@Z 5f42f1cf f afxmem.obj
 0001:0002e1fa       ??0CMemoryState@@QAE@XZ    5f42f1fa f afxmem.obj
 0001:0002e223       ?UpdateData@CMemoryState@@QAEXXZ 5f42f223 f afxmem.obj
 0001:0002e297       ?Difference@CMemoryState@@QAEHABU1@0@Z 5f42f297 f afxmem.obj
 0001:0002e2e5       ?DumpStatistics@CMemoryState@@QBEXXZ 5f42f2e5 f afxmem.obj
 0001:0002e308       ?Checkpoint@CMemoryState@@QAEXXZ 5f42f308 f afxmem.obj
 0001:0002e333       ?DumpAllObjectsSince@CMemoryState@@QBEXXZ 5f42f333 f afxmem.obj
 0001:0002e356       ?AfxDoForAllObjects@@YGXP6AXPAVCObject@@PAX@Z1@Z 5f42f356 f afxmem.obj
 0001:0002e3b5       ?AfxDumpMemoryLeaks@@YGHXZ 5f42f3b5 f afxmem.obj
 0001:0002e3cb       ?AfxNewHandler@@YAHI@Z     5f42f3cb f afxmem.obj
 0001:0002e3e2       ?AfxGetNewHandler@@YGP6AHI@ZXZ 5f42f3e2 f afxmem.obj
 0001:0002e403       ?AfxSetNewHandler@@YGP6AHI@ZP6AHI@Z@Z 5f42f403 f afxmem.obj
 0001:0002e435       ??2@YAPAXI@Z               5f42f435 f afxmem.obj
 0001:0002e4c0       ??3@YAXPAX@Z               5f42f4c0 f afxmem.obj
 0001:0002e4df       ??2@YAPAXIHPBDH@Z          5f42f4df f afxmem.obj
 0001:0002e570       ??0CFile@@QAE@XZ           5f42f570 f filecore.obj
 0001:0002e60e       ??0CFile@@QAE@H@Z          5f42f60e f filecore.obj
 0001:0002e6ad       ??0CFile@@QAE@PBGI@Z       5f42f6ad f filecore.obj
 0001:0002e7b7       ??1CFile@@UAE@XZ           5f42f7b7 f filecore.obj
 0001:0002e85a       ?Duplicate@CFile@@UBEPAV1@XZ 5f42f85a f filecore.obj
 0001:0002e973       ?Open@CFile@@UAEHPBGIPAVCFileException@@@Z 5f42f973 f filecore.obj
 0001:0002ed00       ?Read@CFile@@UAEIPAXI@Z    5f42fd00 f filecore.obj
 0001:0002ede6       ?Write@CFile@@UAEXPBXI@Z   5f42fde6 f filecore.obj
 0001:0002eef2       ?Seek@CFile@@UAEJJI@Z      5f42fef2 f filecore.obj
 0001:0002efb3       ?GetPosition@CFile@@UBEKXZ 5f42ffb3 f filecore.obj
 0001:0002f032       ?Flush@CFile@@UAEXXZ       5f430032 f filecore.obj
 0001:0002f090       ?Close@CFile@@UAEXXZ       5f430090 f filecore.obj
 0001:0002f151       ?Abort@CFile@@UAEXXZ       5f430151 f filecore.obj
 0001:0002f1a9       ?LockRange@CFile@@UAEXKK@Z 5f4301a9 f filecore.obj
 0001:0002f228       ?UnlockRange@CFile@@UAEXKK@Z 5f430228 f filecore.obj
 0001:0002f2a7       ?SetLength@CFile@@UAEXK@Z  5f4302a7 f filecore.obj
 0001:0002f32b       ?GetLength@CFile@@UBEKXZ   5f43032b f filecore.obj
 0001:0002f3ac       ?GetBufferPtr@CFile@@UAEIIIPAPAX0@Z 5f4303ac f filecore.obj
 0001:0002f3e8       ?Rename@CFile@@SGXPBG0@Z   5f4303e8 f filecore.obj
 0001:0002f41e       ?Remove@CFile@@SGXPBG@Z    5f43041e f filecore.obj
 0001:0002f450       ??1AFX_COM@@QAE@XZ         5f430450 f filecore.obj
 0001:0002f47e       ?CreateInstance@AFX_COM@@QAEJABU_GUID@@PAUIUnknown@@0PAPAX@Z 5f43047e f filecore.obj
 0001:0002f513       ?GetClassObject@AFX_COM@@QAEJABU_GUID@@0PAPAX@Z 5f430513 f filecore.obj
 0001:0002f67e       ?AfxStringFromCLSID@@YG?AVCString@@ABU_GUID@@@Z 5f43067e f filecore.obj
 0001:0002f76f       ?AfxGetInProcServer@@YGHPBGAAVCString@@@Z 5f43076f f filecore.obj
 0001:0002f870       ?AfxResolveShortcut@@YGHPAVCWnd@@PBGPAGH@Z 5f430870 f filecore.obj
 0001:0002fa52       ?AfxFullPath@@YGHPAGPBG@Z  5f430a52 f filecore.obj
 0001:0002fc1e       ?AfxGetRoot@@YGXPBGAAVCString@@@Z 5f430c1e f filecore.obj
 0001:0002feb6       ?AfxComparePath@@YGHPBG0@Z 5f430eb6 f filecore.obj
 0001:0003010e       ?AfxGetFileTitle@@YGIPBGPAGI@Z 5f43110e f filecore.obj
 0001:000301fa       ?AfxGetModuleShortFileName@@YGXPAUHINSTANCE__@@AAVCString@@@Z 5f4311fa f filecore.obj
 0001:00030269       ?AssertValid@CFile@@UBEXXZ 5f431269 f filecore.obj
 0001:00030287       ?Dump@CFile@@UBEXAAVCDumpContext@@@Z 5f431287 f filecore.obj
 0001:00030300       ??_GCFile@@UAEPAXI@Z       5f431300 f filecore.obj
 0001:00030340       ??0CStdioFile@@QAE@XZ      5f431340 f filetxt.obj
 0001:000303b9       ??0CStdioFile@@QAE@PAU_iobuf@@@Z 5f4313b9 f filetxt.obj
 0001:0003046d       ??0CStdioFile@@QAE@PBGI@Z  5f43146d f filetxt.obj
 0001:0003057b       ??1CStdioFile@@UAE@XZ      5f43157b f filetxt.obj
 0001:00030615       ?Open@CStdioFile@@UAEHPBGIPAVCFileException@@@Z 5f431615 f filetxt.obj
 0001:00030884       ?Read@CStdioFile@@UAEIPAXI@Z 5f431884 f filetxt.obj
 0001:000309ad       ?Write@CStdioFile@@UAEXPBXI@Z 5f4319ad f filetxt.obj
 0001:00030a6b       ?WriteString@CStdioFile@@UAEXPBG@Z 5f431a6b f filetxt.obj
 0001:00030b05       ?ReadString@CStdioFile@@UAEPAGPAGI@Z 5f431b05 f filetxt.obj
 0001:00030bf7       ?ReadString@CStdioFile@@UAEHAAVCString@@@Z 5f431bf7 f filetxt.obj
 0001:00030d7d       ?Seek@CStdioFile@@UAEJJI@Z 5f431d7d f filetxt.obj
 0001:00030e55       ?GetPosition@CStdioFile@@UBEKXZ 5f431e55 f filetxt.obj
 0001:00030edf       ?Flush@CStdioFile@@UAEXXZ  5f431edf f filetxt.obj
 0001:00030f49       ?Close@CStdioFile@@UAEXXZ  5f431f49 f filetxt.obj
 0001:00031002       ?Abort@CStdioFile@@UAEXXZ  5f432002 f filetxt.obj
 0001:00031073       ?Duplicate@CStdioFile@@UBEPAVCFile@@XZ 5f432073 f filetxt.obj
 0001:000310c8       ?LockRange@CStdioFile@@UAEXKK@Z 5f4320c8 f filetxt.obj
 0001:0003111d       ?UnlockRange@CStdioFile@@UAEXKK@Z 5f43211d f filetxt.obj
 0001:00031172       ?Dump@CStdioFile@@UBEXAAVCDumpContext@@@Z 5f432172 f filetxt.obj
 0001:000311c0       ??_GCStdioFile@@UAEPAXI@Z  5f4321c0 f filetxt.obj
 0001:00031200       ?ThrowOsError@CFileException@@SGXJPBG@Z 5f432200 f filex.obj
 0001:00031233       ?ThrowErrno@CFileException@@SGXHPBG@Z 5f432233 f filex.obj
 0001:0003126b       ?GetErrorMessage@CFileException@@UAEHPAGIPAI@Z 5f43226b f filex.obj
 0001:0003139f       ?Dump@CFileException@@UBEXAAVCDumpContext@@@Z 5f43239f f filex.obj
 0001:0003143a       ?AfxThrowFileException@@YGXHJPBG@Z 5f43243a f filex.obj
 0001:0003153c       ?ErrnoToException@CFileException@@SGHH@Z 5f43253c f filex.obj
 0001:0003161b       ?OsErrorToException@CFileException@@SGHJ@Z 5f43261b f filex.obj
 0001:00031bc0       ?Dump@CFileStatus@@QBEXAAVCDumpContext@@@Z 5f432bc0 f filest.obj
 0001:00031cc3       ?GetFileName@CFile@@UBE?AVCString@@XZ 5f432cc3 f filest.obj
 0001:00031dba       ?GetFileTitle@CFile@@UBE?AVCString@@XZ 5f432dba f filest.obj
 0001:00031eb1       ?GetFilePath@CFile@@UBE?AVCString@@XZ 5f432eb1 f filest.obj
 0001:00031f61       ?GetStatus@CFile@@QBEHAAUCFileStatus@@@Z 5f432f61 f filest.obj
 0001:000320b3       ?GetStatus@CFile@@SGHPBGAAUCFileStatus@@@Z 5f4330b3 f filest.obj
 0001:00032227       ?AfxTimeToFileTime@@YAXABVCTime@@PAU_FILETIME@@@Z 5f433227 f filest.obj
 0001:000322d0       ?SetStatus@CFile@@SGXPBGABUCFileStatus@@@Z 5f4332d0 f filest.obj
 0001:000324a8       ?GetStatus@CMemFile@@QBEHAAUCFileStatus@@@Z 5f4334a8 f filest.obj
 0001:00032520       ??0CFileStatus@@QAE@XZ     5f433520 f filest.obj
 0001:00032560       ?AfxGetEmptyString@@YGABVCString@@XZ 5f433560 f strcore.obj
 0001:00032575       ??0CString@@QAE@XZ         5f433575 f strcore.obj
 0001:00032596       ??0CString@@QAE@ABV0@@Z    5f433596 f strcore.obj
 0001:00032645       ?AllocBuffer@CString@@IAEXH@Z 5f433645 f strcore.obj
 0001:00032714       ?Release@CString@@IAEXXZ   5f433714 f strcore.obj
 0001:000327a0       ?Release@CString@@KGXPAUCStringData@@@Z 5f4337a0 f strcore.obj
 0001:0003280e       ?Empty@CString@@QAEXXZ     5f43380e f strcore.obj
 0001:000328c5       ?CopyBeforeWrite@CString@@IAEXXZ 5f4338c5 f strcore.obj
 0001:00032959       ?AllocBeforeWrite@CString@@IAEXH@Z 5f433959 f strcore.obj
 0001:000329d3       ??1CString@@QAE@XZ         5f4339d3 f strcore.obj
 0001:00032a31       ?AllocCopy@CString@@IBEXAAV1@HHH@Z 5f433a31 f strcore.obj
 0001:00032a94       ??0CString@@QAE@PBG@Z      5f433a94 f strcore.obj
 0001:00032b46       ??0CString@@QAE@PBD@Z      5f433b46 f strcore.obj
 0001:00032bc3       ??6@YGAAVCDumpContext@@AAV0@ABVCString@@@Z 5f433bc3 f strcore.obj
 0001:00032be6       ?AssignCopy@CString@@IAEXHPBG@Z 5f433be6 f strcore.obj
 0001:00032c44       ??4CString@@QAEABV0@ABV0@@Z 5f433c44 f strcore.obj
 0001:00032d11       ??4CString@@QAEABV0@PBG@Z  5f433d11 f strcore.obj
 0001:00032d77       ??4CString@@QAEABV0@PBD@Z  5f433d77 f strcore.obj
 0001:00032de2       ?ConcatCopy@CString@@IAEXHPBGH0@Z 5f433de2 f strcore.obj
 0001:00032e4f       ??H@YG?AVCString@@ABV0@0@Z 5f433e4f f strcore.obj
 0001:00032f07       ??H@YG?AVCString@@ABV0@PBG@Z 5f433f07 f strcore.obj
 0001:00032ff0       ??H@YG?AVCString@@PBGABV0@@Z 5f433ff0 f strcore.obj
 0001:000330d9       ?ConcatInPlace@CString@@IAEXHPBG@Z 5f4340d9 f strcore.obj
 0001:00033216       ??YCString@@QAEABV0@PBG@Z  5f434216 f strcore.obj
 0001:0003327c       ??YCString@@QAEABV0@G@Z    5f43427c f strcore.obj
 0001:000332a5       ??YCString@@QAEABV0@ABV0@@Z 5f4342a5 f strcore.obj
 0001:000332da       ?GetBuffer@CString@@QAEPAGH@Z 5f4342da f strcore.obj
 0001:00033401       ?ReleaseBuffer@CString@@QAEXH@Z 5f434401 f strcore.obj
 0001:00033488       ?GetBufferSetLength@CString@@QAEPAGH@Z 5f434488 f strcore.obj
 0001:000334f5       ?FreeExtra@CString@@QAEXXZ 5f4344f5 f strcore.obj
 0001:00033601       ?LockBuffer@CString@@QAEPAGXZ 5f434601 f strcore.obj
 0001:0003363b       ?UnlockBuffer@CString@@QAEXXZ 5f43463b f strcore.obj
 0001:000336a2       ?Find@CString@@QBEHG@Z     5f4346a2 f strcore.obj
 0001:000336ee       ?FindOneOf@CString@@QBEHPBG@Z 5f4346ee f strcore.obj
 0001:00033765       ?MakeUpper@CString@@QAEXXZ 5f434765 f strcore.obj
 0001:0003378f       ?MakeLower@CString@@QAEXXZ 5f43478f f strcore.obj
 0001:000337b9       ?MakeReverse@CString@@QAEXXZ 5f4347b9 f strcore.obj
 0001:000337e6       ?SetAt@CString@@QAEXHG@Z   5f4347e6 f strcore.obj
 0001:00033864       ?_wcstombsz@@YAHPADPBGI@Z  5f434864 f strcore.obj
 0001:000338f7       ?_mbstowcsz@@YAHPAGPBDI@Z  5f4348f7 f strcore.obj
 0001:00033988       ?AfxA2WHelper@@YGPAGPAGPBDH@Z 5f434988 f strcore.obj
 0001:00033a10       ?AfxW2AHelper@@YGPADPADPBGH@Z 5f434a10 f strcore.obj
 0001:00033cfd       ??0CWnd@@QAE@XZ            5f434cfd f wincore.obj
 0001:00033d7f       ??0CWnd@@AAE@PAUHWND__@@@Z 5f434d7f f wincore.obj
 0001:00033e0c       ?ModifyStyle@CWnd@@SGHPAUHWND__@@KKI@Z 5f434e0c f wincore.obj
 0001:00033ed7       ?ModifyStyleEx@CWnd@@SGHPAUHWND__@@KKI@Z 5f434ed7 f wincore.obj
 0001:00033f00       ?AfxCallWndProc@@YGJPAVCWnd@@PAUHWND__@@IIJ@Z 5f434f00 f wincore.obj
 0001:000341f8       ?GetCurrentMessage@CWnd@@KGPBUtagMSG@@XZ 5f4351f8 f wincore.obj
 0001:00034249       ?Default@CWnd@@IAEJXZ      5f435249 f wincore.obj
 0001:0003428f       ?DeleteTempMap@CWnd@@SGXXZ 5f43528f f wincore.obj
 0001:00034369       ?FromHandle@CWnd@@SGPAV1@PAUHWND__@@@Z 5f435369 f wincore.obj
 0001:000343fc       ?FromHandlePermanent@CWnd@@SGPAV1@PAUHWND__@@@Z 5f4353fc f wincore.obj
 0001:00034472       ?Attach@CWnd@@QAEHPAUHWND__@@@Z 5f435472 f wincore.obj
 0001:00034545       ?Detach@CWnd@@QAEPAUHWND__@@XZ 5f435545 f wincore.obj
 0001:000345ab       ?PreSubclassWindow@CWnd@@UAEXXZ 5f4355ab f wincore.obj
 0001:000345c1       ?AfxWndProc@@YGJPAUHWND__@@IIJ@Z 5f4355c1 f wincore.obj
 0001:0003465b       ?AfxGetAfxWndProc@@YGP6GJPAUHWND__@@IIJ@ZXZ 5f43565b f wincore.obj
 0001:00034676       ?_AfxActivationWndProc@@YGJPAUHWND__@@IIJ@Z 5f435676 f wincore.obj
 0001:00034a28       ?_AfxGrayBackgroundWndProc@@YGJPAUHWND__@@IIJ@Z 5f435a28 f wincore.obj
 0001:00034ae4       ?_AfxCbtFilterHook@@YGJHIJ@Z 5f435ae4 f wincore.obj
 0001:00034ea9       ?AfxHookWindowCreate@@YGXPAVCWnd@@@Z 5f435ea9 f wincore.obj
 0001:00034fb4       ?AfxUnhookWindowCreate@@YGHXZ 5f435fb4 f wincore.obj
 0001:00034ff7       ?CreateEx@CWnd@@QAEHKPBG0KHHHHPAUHWND__@@PAUHMENU__@@PAX@Z 5f435ff7 f wincore.obj
 0001:0003513d       ?PreCreateWindow@CWnd@@UAEHAAUtagCREATESTRUCTW@@@Z 5f43613d f wincore.obj
 0001:000351ce       ?Create@CWnd@@UAEHPBG0KABUtagRECT@@PAV1@IPAUCCreateContext@@@Z 5f4361ce f wincore.obj
 0001:0003527c       ??1CWnd@@UAE@XZ            5f43627c f wincore.obj
 0001:00035391       ?OnNcDestroy@CWnd@@IAEXXZ  5f436391 f wincore.obj
 0001:00035587       ?PostNcDestroy@CWnd@@MAEXXZ 5f436587 f wincore.obj
 0001:0003559d       ?OnFinalRelease@CWnd@@UAEXXZ 5f43659d f wincore.obj
 0001:000355de       ?AssertValid@CWnd@@UBEXXZ  5f4365de f wincore.obj
 0001:00035781       ?Dump@CWnd@@UBEXAAVCDumpContext@@@Z 5f436781 f wincore.obj
 0001:00035a0d       ?DestroyWindow@CWnd@@UAEHXZ 5f436a0d f wincore.obj
 0001:00035b24       ?DefWindowProcW@CWnd@@MAEJIIJ@Z 5f436b24 f wincore.obj
 0001:00035bcb       ?GetSuperWndProcAddr@CWnd@@MAEPAP6GJPAUHWND__@@IIJ@ZXZ 5f436bcb f wincore.obj
 0001:00035be7       ?PreTranslateMessage@CWnd@@UAEHPAUtagMSG@@@Z 5f436be7 f wincore.obj
 0001:00035c2b       ?CancelToolTips@CWnd@@SGXH@Z 5f436c2b f wincore.obj
 0001:00035cb8       ?OnToolHitTest@CWnd@@UBEHVCPoint@@PAUtagTOOLINFOW@@@Z 5f436cb8 f wincore.obj
 0001:00035d70       ?GetWindowTextW@CWnd@@QBEXAAVCString@@@Z 5f436d70 f wincore.obj
 0001:00035e18       ?GetDlgItemTextW@CWnd@@QBEHHAAVCString@@@Z 5f436e18 f wincore.obj
 0001:00035efa       ?GetWindowPlacement@CWnd@@QBEHPAUtagWINDOWPLACEMENT@@@Z 5f436efa f wincore.obj
 0001:00035f59       ?SetWindowPlacement@CWnd@@QAEHPBUtagWINDOWPLACEMENT@@@Z 5f436f59 f wincore.obj
 0001:00035fb8       ?OnDrawItem@CWnd@@IAEXHPAUtagDRAWITEMSTRUCT@@@Z 5f436fb8 f wincore.obj
 0001:00036031       ?OnCompareItem@CWnd@@IAEHHPAUtagCOMPAREITEMSTRUCT@@@Z 5f437031 f wincore.obj
 0001:00036071       ?OnDeleteItem@CWnd@@IAEXHPAUtagDELETEITEMSTRUCT@@@Z 5f437071 f wincore.obj
 0001:000360ac       ?OnCharToItem@CWnd@@IAEHIPAVCListBox@@I@Z 5f4370ac f wincore.obj
 0001:000360f2       ?OnVKeyToItem@CWnd@@IAEHIPAVCListBox@@I@Z 5f4370f2 f wincore.obj
 0001:00036138       ?TrackPopupMenu@CMenu@@QAEHIHHPAVCWnd@@PBUtagRECT@@@Z 5f437138 f wincore.obj
 0001:000361e7       ?OnMeasureItem@CWnd@@IAEXHPAUtagMEASUREITEMSTRUCT@@@Z 5f4371e7 f wincore.obj
 0001:000363ba       ?AfxRegisterClass@@YGHPAUtagWNDCLASSW@@@Z 5f4373ba f wincore.obj
 0001:00036551       ?AfxRegisterWndClass@@YGPBGIPAUHICON__@@PAUHBRUSH__@@0@Z 5f437551 f wincore.obj
 0001:0003667b       ?OnNTCtlColor@CWnd@@IAEJIJ@Z 5f43767b f wincore.obj
 0001:00036709       ?WinHelpW@CWnd@@UAEXKI@Z   5f437709 f wincore.obj
 0001:0003689c       ?_GetBaseMessageMap@CWnd@@KGPBUAFX_MSGMAP@@XZ 5f43789c f wincore.obj
 0001:000368b1       ?GetMessageMap@CWnd@@MBEPBUAFX_MSGMAP@@XZ 5f4378b1 f wincore.obj
 0001:000368cc       ?AfxFindMessageEntry@@YGPBUAFX_MSGMAP_ENTRY@@PBU1@III@Z 5f4378cc f wincore.obj
 0001:00036947       ?AfxResetMsgCache@@YGXXZ   5f437947 f wincore.obj
 0001:0003696b       ?WindowProc@CWnd@@MAEJIIJ@Z 5f43796b f wincore.obj
 0001:000369d0       ?OnWndMsg@CWnd@@MAEHIIJPAJ@Z 5f4379d0 f wincore.obj
 0001:0003762e       ??0CTestCmdUI@@QAE@XZ      5f43862e f wincore.obj
 0001:00037662       ?Enable@CTestCmdUI@@UAEXH@Z 5f438662 f wincore.obj
 0001:0003768d       ?SetCheck@CTestCmdUI@@UAEXH@Z 5f43868d f wincore.obj
 0001:000376a5       ?SetRadio@CTestCmdUI@@UAEXH@Z 5f4386a5 f wincore.obj
 0001:000376bd       ?SetText@CTestCmdUI@@UAEXPBG@Z 5f4386bd f wincore.obj
 0001:000376d5       ?OnCommand@CWnd@@MAEHIJ@Z  5f4386d5 f wincore.obj
 0001:00037847       ?OnNotify@CWnd@@MAEHIJPAJ@Z 5f438847 f wincore.obj
 0001:00037968       ?GetParentFrame@CWnd@@QBEPAVCFrameWnd@@XZ 5f438968 f wincore.obj
 0001:000379ed       ?AfxGetParentOwner@@YGPAUHWND__@@PAU1@@Z 5f4389ed f wincore.obj
 0001:00037a5e       ?GetTopLevelParent@CWnd@@QBEPAV1@XZ 5f438a5e f wincore.obj
 0001:00037ad1       ?GetTopLevelOwner@CWnd@@QBEPAV1@XZ 5f438ad1 f wincore.obj
 0001:00037b47       ?GetParentOwner@CWnd@@QBEPAV1@XZ 5f438b47 f wincore.obj
 0001:00037bd2       ?IsTopParentActive@CWnd@@QBEHXZ 5f438bd2 f wincore.obj
 0001:00037c4a       ?ActivateTopParent@CWnd@@QAEXXZ 5f438c4a f wincore.obj
 0001:00037cb3       ?GetTopLevelFrame@CWnd@@QBEPAVCFrameWnd@@XZ 5f438cb3 f wincore.obj
 0001:00037d47       ?GetSafeOwner@CWnd@@SGPAV1@PAV1@PAPAUHWND__@@@Z 5f438d47 f wincore.obj
 0001:00037e6f       ?GetDescendantWindow@CWnd@@SGPAV1@PAUHWND__@@HH@Z 5f438e6f f wincore.obj
 0001:00037f67       ?SendMessageToDescendants@CWnd@@SGXPAUHWND__@@IIJHH@Z 5f438f67 f wincore.obj
 0001:0003803e       ?GetScrollBarCtrl@CWnd@@UBEPAVCScrollBar@@H@Z 5f43903e f wincore.obj
 0001:00038058       ?SetScrollPos@CWnd@@QAEHHHH@Z 5f439058 f wincore.obj
 0001:000380bf       ?GetScrollPos@CWnd@@QBEHH@Z 5f4390bf f wincore.obj
 0001:00038116       ?SetScrollRange@CWnd@@QAEXHHHH@Z 5f439116 f wincore.obj
 0001:00038180       ?GetScrollRange@CWnd@@QBEXHPAH0@Z 5f439180 f wincore.obj
 0001:000381e2       ?EnableScrollBarCtrl@CWnd@@QAEXHH@Z 5f4391e2 f wincore.obj
 0001:00038262       ?SetScrollInfo@CWnd@@QAEHHPAUtagSCROLLINFO@@H@Z 5f439262 f wincore.obj
 0001:00038316       ?GetScrollInfo@CWnd@@QAEHHPAUtagSCROLLINFO@@I@Z 5f439316 f wincore.obj
 0001:000383ca       ?GetScrollLimit@CWnd@@QAEHH@Z 5f4393ca f wincore.obj
 0001:0003841f       ?ScrollWindow@CWnd@@QAEXHHPBUtagRECT@@0@Z 5f43941f f wincore.obj
 0001:00038562       ?RepositionBars@CWnd@@QAEXIIIIPAUtagRECT@@PBU2@H@Z 5f439562 f wincore.obj
 0001:000387fd       ?AfxRepositionWindow@@YGXPAUAFX_SIZEPARENTPARAMS@@PAUHWND__@@PBUtagRECT@@@Z 5f4397fd f wincore.obj
 0001:00038983       ?CalcWindowRect@CWnd@@UAEXPAUtagRECT@@I@Z 5f439983 f wincore.obj
 0001:000389d0       ?HandleFloatingSysCommand@CWnd@@QAEHIJ@Z 5f4399d0 f wincore.obj
 0001:00038bcf       ?WalkPreTranslateTree@CWnd@@SGHPAUHWND__@@PAUtagMSG@@@Z 5f439bcf f wincore.obj
 0001:00038cb0       ?SendChildNotifyLastMsg@CWnd@@QAEHPAJ@Z 5f439cb0 f wincore.obj
 0001:00038cfc       ?ReflectLastMsg@CWnd@@KGHPAUHWND__@@PAJ@Z 5f439cfc f wincore.obj
 0001:00038e75       ?OnChildNotify@CWnd@@MAEHIIJPAJ@Z 5f439e75 f wincore.obj
 0001:00038f15       ?ReflectChildNotify@CWnd@@IAEHIIJPAJ@Z 5f439f15 f wincore.obj
 0001:00039116       ?OnParentNotify@CWnd@@IAEXIJ@Z 5f43a116 f wincore.obj
 0001:00039170       ?OnActivateTopLevel@CWnd@@IAEJIJ@Z 5f43a170 f wincore.obj
 0001:000391b6       ?OnSysColorChange@CWnd@@IAEXXZ 5f43a1b6 f wincore.obj
 0001:00039277       ?OnWinIniChange@CWnd@@IAEXPBG@Z 5f43a277 f wincore.obj
 0001:000392eb       ?OnDevModeChange@CWnd@@IAEXPAG@Z 5f43a2eb f wincore.obj
 0001:0003936d       ?OnHelpInfo@CWnd@@IAEHPAUtagHELPINFO@@@Z 5f43a36d f wincore.obj
 0001:00039409       ?OnDisplayChange@CWnd@@IAEJIJ@Z 5f43a409 f wincore.obj
 0001:00039486       ?OnDragList@CWnd@@IAEJIJ@Z 5f43a486 f wincore.obj
 0001:000394ee       ?OnHScroll@CWnd@@IAEXIIPAVCScrollBar@@@Z 5f43a4ee f wincore.obj
 0001:0003952f       ?OnVScroll@CWnd@@IAEXIIPAVCScrollBar@@@Z 5f43a52f f wincore.obj
 0001:00039570       ?OnEnterIdle@CWnd@@IAEXIPAV1@@Z 5f43a570 f wincore.obj
 0001:000395bf       ?OnCtlColor@CWnd@@IAEPAUHBRUSH__@@PAVCDC@@PAV1@I@Z 5f43a5bf f wincore.obj
 0001:0003962a       ?OnGrayCtlColor@CWnd@@QAEPAUHBRUSH__@@PAVCDC@@PAV1@I@Z 5f43a62a f wincore.obj
 0001:000396ad       ?GrayCtlColor@CWnd@@SGHPAUHDC__@@PAUHWND__@@IPAUHBRUSH__@@K@Z 5f43a6ad f wincore.obj
 0001:0003979e       ?OnQuery3dControls@CWnd@@IAEJIJ@Z 5f43a79e f wincore.obj
 0001:000397bb       ?UpdateData@CWnd@@QAEHH@Z  5f43a7bb f wincore.obj
 0001:0003998f       ??0CDataExchange@@QAE@PAVCWnd@@H@Z 5f43a98f f wincore.obj
 0001:000399d8       ?CenterWindow@CWnd@@QAEXPAV1@@Z 5f43a9d8 f wincore.obj
 0001:00039cb6       ?CheckAutoCenter@CWnd@@UAEHXZ 5f43acb6 f wincore.obj
 0001:00039cd1       ?ExecuteDlgInit@CWnd@@QAEHPBG@Z 5f43acd1 f wincore.obj
 0001:00039dbc       ?ExecuteDlgInit@CWnd@@QAEHPAX@Z 5f43adbc f wincore.obj
 0001:00039fdb       ?UpdateDialogControls@CWnd@@QAEXPAVCCmdTarget@@H@Z 5f43afdb f wincore.obj
 0001:0003a193       ?PreTranslateInput@CWnd@@QAEHPAUtagMSG@@@Z 5f43b193 f wincore.obj
 0001:0003a22b       ?RunModalLoop@CWnd@@QAEHK@Z 5f43b22b f wincore.obj
 0001:0003a523       ?ContinueModal@CWnd@@UAEHXZ 5f43b523 f wincore.obj
 0001:0003a542       ?EndModalLoop@CWnd@@UAEXH@Z 5f43b542 f wincore.obj
 0001:0003a5b2       ?AfxEndDeferRegisterClass@@YGHF@Z 5f43b5b2 f wincore.obj
 0001:0003a817       ?IsFrameWnd@CWnd@@UBEHXZ   5f43b817 f wincore.obj
 0001:0003a82f       ?IsFrameWnd@CFrameWnd@@UBEHXZ 5f43b82f f wincore.obj
 0001:0003a84a       ?IsTracking@CFrameWnd@@QBEHXZ 5f43b84a f wincore.obj
 0001:0003a8a2       ?SubclassCtl3d@CWnd@@QAEHH@Z 5f43b8a2 f wincore.obj
 0001:0003a982       ?SubclassDlg3d@CWnd@@QAEHK@Z 5f43b982 f wincore.obj
 0001:0003aa34       ?DragAcceptFiles@CWnd@@QAEXH@Z 5f43ba34 f wincore.obj
 0001:0003aa8a       ?SubclassWindow@CWnd@@QAEHPAUHWND__@@@Z 5f43ba8a f wincore.obj
 0001:0003abb8       ?SubclassDlgItem@CWnd@@QAEHIPAV1@@Z 5f43bbb8 f wincore.obj
 0001:0003ad02       ?UnsubclassWindow@CWnd@@QAEPAUHWND__@@XZ 5f43bd02 f wincore.obj
 0001:0003ad80       ??_GCWnd@@UAEPAXI@Z        5f43bd80 f wincore.obj
 0001:0003adc0       ?AfxLockTempMaps@@YGXXZ    5f43bdc0 f winhand.obj
 0001:0003ade1       ?AfxUnlockTempMaps@@YGHH@Z 5f43bde1 f winhand.obj
 0001:0003afa4       ??0CHandleMap@@QAE@PAUCRuntimeClass@@IH@Z 5f43bfa4 f winhand.obj
 0001:0003b09d       ?FromHandle@CHandleMap@@QAEPAVCObject@@PAX@Z 5f43c09d f winhand.obj
 0001:0003b301       ?SetPermanent@CHandleMap@@QAEXPAXPAVCObject@@@Z 5f43c301 f winhand.obj
 0001:0003b343       ?RemoveHandle@CHandleMap@@QAEXPAX@Z 5f43c343 f winhand.obj
 0001:0003b43d       ?DeleteTemp@CHandleMap@@QAEXXZ 5f43c43d f winhand.obj
 0001:0003b580       ?AfxWinMain@@YGHPAUHINSTANCE__@@0PAGH@Z 5f43c580 f winmain.obj
 0001:0003b700       ?AfxDlgProc@@YGHPAUHWND__@@IIJ@Z 5f43c700 f dlgcore.obj
 0001:0003b76a       ?_GetBaseMessageMap@CDialog@@KGPBUAFX_MSGMAP@@XZ 5f43c76a f dlgcore.obj
 0001:0003b77f       ?GetMessageMap@CDialog@@MBEPBUAFX_MSGMAP@@XZ 5f43c77f f dlgcore.obj
 0001:0003b79a       ?PreTranslateMessage@CDialog@@UAEHPAUtagMSG@@@Z 5f43c79a f dlgcore.obj
 0001:0003b8c8       ?OnCmdMsg@CDialog@@UAEHIHPAXPAUAFX_CMDHANDLERINFO@@@Z 5f43c8c8 f dlgcore.obj
 0001:0003ba47       ??0CDialog@@QAE@XZ         5f43ca47 f dlgcore.obj
 0001:0003baee       ??1CDialog@@UAE@XZ         5f43caee f dlgcore.obj
 0001:0003bb8f       ?Create@CDialog@@QAEHPBGPAVCWnd@@@Z 5f43cb8f f dlgcore.obj
 0001:0003bcbc       ?CreateIndirect@CDialog@@QAEHPAXPAVCWnd@@@Z 5f43ccbc f dlgcore.obj
 0001:0003bce6       ?CreateIndirect@CDialog@@IAEHPAXPAVCWnd@@PAUHINSTANCE__@@@Z 5f43cce6 f dlgcore.obj
 0001:0003bd52       ?CreateIndirect@CDialog@@QAEHPBUDLGTEMPLATE@@PAVCWnd@@PAX@Z 5f43cd52 f dlgcore.obj
 0001:0003bd80       ?CreateIndirect@CDialog@@IAEHPBUDLGTEMPLATE@@PAVCWnd@@PAXPAUHINSTANCE__@@@Z 5f43cd80 f dlgcore.obj
 0001:0003bde9       ?CreateDlg@CWnd@@IAEHPBGPAV1@@Z 5f43cde9 f dlgcore.obj
 0001:0003bea7       ?CreateDlgIndirect@CWnd@@IAEHPBUDLGTEMPLATE@@PAV1@@Z 5f43cea7 f dlgcore.obj
 0001:0003bed1       ?CreateDlgIndirect@CWnd@@IAEHPBUDLGTEMPLATE@@PAV1@PAUHINSTANCE__@@@Z 5f43ced1 f dlgcore.obj
 0001:0003c2f1       ?SetOccDialogInfo@CWnd@@MAEHPAU_AFX_OCC_DIALOG_INFO@@@Z 5f43d2f1 f dlgcore.obj
 0001:0003c323       ?SetOccDialogInfo@CDialog@@MAEHPAU_AFX_OCC_DIALOG_INFO@@@Z 5f43d323 f dlgcore.obj
 0001:0003c349       ??0CDialog@@QAE@PBGPAVCWnd@@@Z 5f43d349 f dlgcore.obj
 0001:0003c448       ??0CDialog@@QAE@IPAVCWnd@@@Z 5f43d448 f dlgcore.obj
 0001:0003c4ec       ?InitModalIndirect@CDialog@@QAEHPAXPAVCWnd@@@Z 5f43d4ec f dlgcore.obj
 0001:0003c594       ?InitModalIndirect@CDialog@@QAEHPBUDLGTEMPLATE@@PAVCWnd@@PAX@Z 5f43d594 f dlgcore.obj
 0001:0003c645       ?PreModal@CDialog@@IAEPAUHWND__@@XZ 5f43d645 f dlgcore.obj
 0001:0003c6b5       ?PostModal@CDialog@@IAEXXZ 5f43d6b5 f dlgcore.obj
 0001:0003c714       ?DoModal@CDialog@@UAEHXZ   5f43d714 f dlgcore.obj
 0001:0003ca03       ?EndDialog@CDialog@@QAEXH@Z 5f43da03 f dlgcore.obj
 0001:0003ca75       ?HandleSetFont@CDialog@@IAEJIJ@Z 5f43da75 f dlgcore.obj
 0001:0003caad       ?PreInitDialog@CDialog@@MAEXXZ 5f43daad f dlgcore.obj
 0001:0003cac3       ?HandleInitDialog@CDialog@@IAEJIJ@Z 5f43dac3 f dlgcore.obj
 0001:0003cbda       ?AfxHelpEnabled@@YGHXZ     5f43dbda f dlgcore.obj
 0001:0003cc63       ?OnSetFont@CDialog@@UAEXPAVCFont@@@Z 5f43dc63 f dlgcore.obj
 0001:0003cc7b       ?OnInitDialog@CDialog@@UAEHXZ 5f43dc7b f dlgcore.obj
 0001:0003cd64       ?OnOK@CDialog@@MAEXXZ      5f43dd64 f dlgcore.obj
 0001:0003cdad       ?OnCancel@CDialog@@MAEXXZ  5f43ddad f dlgcore.obj
 0001:0003cdcd       ?CheckAutoCenter@CDialog@@UAEHXZ 5f43ddcd f dlgcore.obj
 0001:0003cf2e       ?OnCtlColor@CDialog@@IAEPAUHBRUSH__@@PAVCDC@@PAVCWnd@@I@Z 5f43df2e f dlgcore.obj
 0001:0003cf5a       ?OnCommandHelp@CDialog@@IAEJIJ@Z 5f43df5a f dlgcore.obj
 0001:0003cfcf       ?OnHelpHitTest@CDialog@@IAEJIJ@Z 5f43dfcf f dlgcore.obj
 0001:0003d006       ?AssertValid@CDialog@@UBEXXZ 5f43e006 f dlgcore.obj
 0001:0003d024       ?Dump@CDialog@@UBEXAAVCDumpContext@@@Z 5f43e024 f dlgcore.obj
 0001:0003d10d       ?_AfxCheckDialogTemplate@@YGHPBGH@Z 5f43e10d f dlgcore.obj
 0001:0003d300       ??_GCDialog@@UAEPAXI@Z     5f43e300 f dlgcore.obj
 0001:0003d340       ??0CDialogTemplate@@QAE@PBUDLGTEMPLATE@@@Z 5f43e340 f dlgtempl.obj
 0001:0003d3a0       ??0CDialogTemplate@@QAE@PAX@Z 5f43e3a0 f dlgtempl.obj
 0001:0003d417       ?SetTemplate@CDialogTemplate@@IAEHPBUDLGTEMPLATE@@I@Z 5f43e417 f dlgtempl.obj
 0001:0003d53a       ??1CDialogTemplate@@QAE@XZ 5f43e53a f dlgtempl.obj
 0001:0003d568       ?Load@CDialogTemplate@@QAEHPBG@Z 5f43e568 f dlgtempl.obj
 0001:0003d614       ?Detach@CDialogTemplate@@QAEPAXXZ 5f43e614 f dlgtempl.obj
 0001:0003d63e       ?HasFont@CDialogTemplate@@QBEHXZ 5f43e63e f dlgtempl.obj
 0001:0003d681       ?GetFontSizeField@CDialogTemplate@@KAPAEPBUDLGTEMPLATE@@@Z 5f43e681 f dlgtempl.obj
 0001:0003d75e       ?GetTemplateSize@CDialogTemplate@@KAIPBUDLGTEMPLATE@@@Z 5f43e75e f dlgtempl.obj
 0001:0003d8b0       ?GetFont@CDialogTemplate@@SAHPBUDLGTEMPLATE@@AAVCString@@AAG@Z 5f43e8b0 f dlgtempl.obj
 0001:0003d944       ?GetFont@CDialogTemplate@@QBEHAAVCString@@AAG@Z 5f43e944 f dlgtempl.obj
 0001:0003d9b5       ?SetFont@CDialogTemplate@@QAEHPBGG@Z 5f43e9b5 f dlgtempl.obj
 0001:0003db80       ?SetSystemFont@CDialogTemplate@@QAEHG@Z 5f43eb80 f dlgtempl.obj
 0001:0003dc58       ?GetSizeInDialogUnits@CDialogTemplate@@QBEXPAUtagSIZE@@@Z 5f43ec58 f dlgtempl.obj
 0001:0003dd31       ?GetSizeInPixels@CDialogTemplate@@QBEXPAUtagSIZE@@@Z 5f43ed31 f dlgtempl.obj
 0001:0003dff0       ?_SkipString@@YAPAGPAG@Z   5f43eff0 f dlgtempl.obj
 0001:0003e030       ?LoadStringW@CString@@QAEHI@Z 5f43f030 f winstr.obj
 0001:0003e117       ?AfxExtractSubString@@YGHAAVCString@@PBGHG@Z 5f43f117 f winstr.obj
 0001:0003e210       ?DeleteTempMap@CMenu@@SGXXZ 5f43f210 f winmenu.obj
 0001:0003e2e7       ?FromHandle@CMenu@@SGPAV1@PAUHMENU__@@@Z 5f43f2e7 f winmenu.obj
 0001:0003e368       ?FromHandlePermanent@CMenu@@SGPAV1@PAUHMENU__@@@Z 5f43f368 f winmenu.obj
 0001:0003e3db       ?AssertValid@CMenu@@UBEXXZ 5f43f3db f winmenu.obj
 0001:0003e430       ?Dump@CMenu@@UBEXAAVCDumpContext@@@Z 5f43f430 f winmenu.obj
 0001:0003e47c       ?Attach@CMenu@@QAEHPAUHMENU__@@@Z 5f43f47c f winmenu.obj
 0001:0003e514       ?Detach@CMenu@@QAEPAUHMENU__@@XZ 5f43f514 f winmenu.obj
 0001:0003e570       ?DestroyMenu@CMenu@@QAEHXZ 5f43f570 f winmenu.obj
 0001:0003e5a9       ?DrawItem@CMenu@@UAEXPAUtagDRAWITEMSTRUCT@@@Z 5f43f5a9 f winmenu.obj
 0001:0003e5c1       ?MeasureItem@CMenu@@UAEXPAUtagMEASUREITEMSTRUCT@@@Z 5f43f5c1 f winmenu.obj
 0001:0003e5e0       ?UpdateSysColors@AUX_DATA@@QAEXXZ 5f43f5e0 f auxdata.obj
 0001:0003e6a2       ?UpdateSysMetrics@AUX_DATA@@QAEXXZ 5f43f6a2 f auxdata.obj
 0001:0003e74d       ?AfxLoadDll@@YGPAUHINSTANCE__@@RAPAU1@PBDPAP6GHXZ1@Z 5f43f74d f auxdata.obj
 0001:0003e822       ?AfxLoadDll@@YGPAUHINSTANCE__@@RAPAU1@PBD@Z 5f43f822 f auxdata.obj
 0001:0003e850       ?OnAmbientProperty@CWnd@@UAEHPAVCOleControlSite@@JPAUtagVARIANT@@@Z 5f43f850 f winocc.obj
 0001:0003e8a7       ?GetControlUnknown@CWnd@@QAEPAUIUnknown@@XZ 5f43f8a7 f winocc.obj
 0001:0003e8da       ?CheckDlgButton@CWnd@@QAEXHI@Z 5f43f8da f winocc.obj
 0001:0003e95c       ?CheckRadioButton@CWnd@@QAEXHHH@Z 5f43f95c f winocc.obj
 0001:0003e9e6       ?GetDlgItem@CWnd@@QBEPAV1@H@Z 5f43f9e6 f winocc.obj
 0001:0003ea6b       ?GetDlgItem@CWnd@@QBEXHPAPAUHWND__@@@Z 5f43fa6b f winocc.obj
 0001:0003eb0d       ?GetDlgItemInt@CWnd@@QBEIHPAHH@Z 5f43fb0d f winocc.obj
 0001:0003eb9c       ?GetDlgItemTextW@CWnd@@QBEHHPAGH@Z 5f43fb9c f winocc.obj
 0001:0003ec2e       ?SendDlgItemMessageW@CWnd@@QAEJHIIJ@Z 5f43fc2e f winocc.obj
 0001:0003ecc8       ?SetDlgItemInt@CWnd@@QAEXHIH@Z 5f43fcc8 f winocc.obj
 0001:0003ed58       ?SetDlgItemTextW@CWnd@@QAEXHPBG@Z 5f43fd58 f winocc.obj
 0001:0003ede0       ?IsDlgButtonChecked@CWnd@@QBEIH@Z 5f43fde0 f winocc.obj
 0001:0003ee65       ?ScrollWindowEx@CWnd@@QAEHHHPBUtagRECT@@0PAVCRgn@@PAU2@I@Z 5f43fe65 f winocc.obj
 0001:0003ef16       ?IsDialogMessageW@CWnd@@QAEHPAUtagMSG@@@Z 5f43ff16 f winocc.obj
 0001:0003efaa       ?GetStyle@CWnd@@QBEKXZ     5f43ffaa f winocc.obj
 0001:0003f024       ?GetExStyle@CWnd@@QBEKXZ   5f440024 f winocc.obj
 0001:0003f09e       ?ModifyStyle@CWnd@@QAEHKKI@Z 5f44009e f winocc.obj
 0001:0003f132       ?ModifyStyleEx@CWnd@@QAEHKKI@Z 5f440132 f winocc.obj
 0001:0003f1c6       ?SetWindowTextW@CWnd@@QAEXPBG@Z 5f4401c6 f winocc.obj
 0001:0003f246       ?GetWindowTextW@CWnd@@QBEHPAGH@Z 5f440246 f winocc.obj
 0001:0003f2d3       ?GetWindowTextLengthW@CWnd@@QBEHXZ 5f4402d3 f winocc.obj
 0001:0003f34e       ?GetDlgCtrlID@CWnd@@QBEHXZ 5f44034e f winocc.obj
 0001:0003f3c9       ?SetDlgCtrlID@CWnd@@QAEHH@Z 5f4403c9 f winocc.obj
 0001:0003f450       ?MoveWindow@CWnd@@QAEXHHHHH@Z 5f440450 f winocc.obj
 0001:0003f4f0       ?SetWindowPos@CWnd@@QAEHPBV1@HHHHI@Z 5f4404f0 f winocc.obj
 0001:0003f5a2       ?ShowWindow@CWnd@@QAEHH@Z  5f4405a2 f winocc.obj
 0001:0003f627       ?IsWindowEnabled@CWnd@@QBEHXZ 5f440627 f winocc.obj
 0001:0003f6a2       ?EnableWindow@CWnd@@QAEHH@Z 5f4406a2 f winocc.obj
 0001:0003f727       ?SetFocus@CWnd@@QAEPAV1@XZ 5f440727 f winocc.obj
 0001:0003f7a8       ?InvokeHelper@CWnd@@QAAXJGGPAXPBEZZ 5f4407a8 f winocc.obj
 0001:0003f828       ?GetProperty@CWnd@@QBEXJGPAX@Z 5f440828 f winocc.obj
 0001:0003f893       ?SetProperty@CWnd@@QAAXJGZZ 5f440893 f winocc.obj
 0001:0003f907       ?GetDSCCursor@CWnd@@QAEPAUIUnknown@@XZ 5f440907 f winocc.obj
 0001:0003f9f3       ?BindDefaultProperty@CWnd@@QAEXJGPBGPAV1@@Z 5f4409f3 f winocc.obj
 0001:0003fa54       ?BindProperty@CWnd@@QAEXJPAV1@@Z 5f440a54 f winocc.obj
 0001:0003faad       ?AttachControlSite@CWnd@@IAEXPAVCHandleMap@@@Z 5f440aad f winocc.obj
 0001:0003fb0b       ?AttachControlSite@CWnd@@QAEXPAV1@@Z 5f440b0b f winocc.obj
 0001:0003fbc0       ??0CCmdTarget@@QAE@XZ      5f440bc0 f cmdtarg.obj
 0001:0003fc98       ??1CCmdTarget@@UAE@XZ      5f440c98 f cmdtarg.obj
 0001:0003fd48       ?OnCmdMsg@CCmdTarget@@UAEHIHPAXPAUAFX_CMDHANDLERINFO@@@Z 5f440d48 f cmdtarg.obj
 0001:000405ab       ?IsInvokeAllowed@CCmdTarget@@UAEHJ@Z 5f4415ab f cmdtarg.obj
 0001:000405c8       ?GetDispatchIID@CCmdTarget@@UAEHPAU_GUID@@@Z 5f4415c8 f cmdtarg.obj
 0001:000405e2       ?GetTypeInfoCount@CCmdTarget@@UAEIXZ 5f4415e2 f cmdtarg.obj
 0001:000405fa       ?GetTypeLibCache@CCmdTarget@@UAEPAVCTypeLibCache@@XZ 5f4415fa f cmdtarg.obj
 0001:00040612       ?GetTypeLib@CCmdTarget@@UAEJKPAPAUITypeLib@@@Z 5f441612 f cmdtarg.obj
 0001:0004062f       ?BeginWaitCursor@CCmdTarget@@QAEXXZ 5f44162f f cmdtarg.obj
 0001:00040663       ?EndWaitCursor@CCmdTarget@@QAEXXZ 5f441663 f cmdtarg.obj
 0001:00040697       ?RestoreWaitCursor@CCmdTarget@@QAEXXZ 5f441697 f cmdtarg.obj
 0001:000406cb       ?_GetBaseMessageMap@CCmdTarget@@KGPBUAFX_MSGMAP@@XZ 5f4416cb f cmdtarg.obj
 0001:000406dd       ?GetMessageMap@CCmdTarget@@MBEPBUAFX_MSGMAP@@XZ 5f4416dd f cmdtarg.obj
 0001:000406f8       ?_GetBaseDispatchMap@CCmdTarget@@KGPBUAFX_DISPMAP@@XZ 5f4416f8 f cmdtarg.obj
 0001:0004070a       ?GetDispatchMap@CCmdTarget@@MBEPBUAFX_DISPMAP@@XZ 5f44170a f cmdtarg.obj
 0001:00040725       ?_GetBaseEventSinkMap@CCmdTarget@@KGPBUAFX_EVENTSINKMAP@@XZ 5f441725 f cmdtarg.obj
 0001:00040737       ?GetEventSinkMap@CCmdTarget@@MBEPBUAFX_EVENTSINKMAP@@XZ 5f441737 f cmdtarg.obj
 0001:00040752       ?_GetBaseInterfaceMap@CCmdTarget@@KGPBUAFX_INTERFACEMAP@@XZ 5f441752 f cmdtarg.obj
 0001:00040764       ?GetInterfaceMap@CCmdTarget@@MBEPBUAFX_INTERFACEMAP@@XZ 5f441764 f cmdtarg.obj
 0001:0004077f       ?OnFinalRelease@CCmdTarget@@UAEXXZ 5f44177f f cmdtarg.obj
 0001:000407eb       ?OnCreateAggregates@CCmdTarget@@UAEHXZ 5f4417eb f cmdtarg.obj
 0001:00040806       ?GetInterfaceHook@CCmdTarget@@UAEPAUIUnknown@@PBX@Z 5f441806 f cmdtarg.obj
 0001:00040820       ?_GetBaseConnectionMap@CCmdTarget@@KGPBUAFX_CONNECTIONMAP@@XZ 5f441820 f cmdtarg.obj
 0001:00040832       ?GetConnectionMap@CCmdTarget@@MBEPBUAFX_CONNECTIONMAP@@XZ 5f441832 f cmdtarg.obj
 0001:0004084d       ?GetConnectionHook@CCmdTarget@@MAEPAUIConnectionPoint@@ABU_GUID@@@Z 5f44184d f cmdtarg.obj
 0001:00040867       ?GetExtraConnectionPoints@CCmdTarget@@MAEHPAVCPtrArray@@@Z 5f441867 f cmdtarg.obj
 0001:00040881       ?_GetBaseCommandMap@CCmdTarget@@KGPBUAFX_OLECMDMAP@@XZ 5f441881 f cmdtarg.obj
 0001:00040893       ?GetCommandMap@CCmdTarget@@MBEPBUAFX_OLECMDMAP@@XZ 5f441893 f cmdtarg.obj
 0001:000408ae       ?GetRoutingView@CCmdTarget@@IAEPAVCView@@XZ 5f4418ae f cmdtarg.obj
 0001:000408f2       ?GetRoutingFrame@CCmdTarget@@IAEPAVCFrameWnd@@XZ 5f4418f2 f cmdtarg.obj
 0001:00040936       ??0CCmdUI@@QAE@XZ          5f441936 f cmdtarg.obj
 0001:000409bc       ?Enable@CCmdUI@@UAEXH@Z    5f4419bc f cmdtarg.obj
 0001:00040abf       ?SetCheck@CCmdUI@@UAEXH@Z  5f441abf f cmdtarg.obj
 0001:00040ba1       ?SetRadio@CCmdUI@@UAEXH@Z  5f441ba1 f cmdtarg.obj
 0001:00040c58       ?SetText@CCmdUI@@UAEXPBG@Z 5f441c58 f cmdtarg.obj
 0001:00040daa       ?DoUpdate@CCmdUI@@QAEHPAVCCmdTarget@@H@Z 5f441daa f cmdtarg.obj
 0001:00040ed0       ??_GCCmdTarget@@UAEPAXI@Z  5f441ed0 f cmdtarg.obj
 0001:00040f10       ?_AfxThreadEntry@@YGIPAX@Z 5f441f10 f thrdcore.obj
 0001:000412a0       ?AfxGetThread@@YGPAVCWinThread@@XZ 5f4422a0 f thrdcore.obj
 0001:000412d9       ?AfxBeginThread@@YGPAVCWinThread@@P6AIPAX@Z0HIKPAU_SECURITY_ATTRIBUTES@@@Z 5f4422d9 f thrdcore.obj
 0001:000413f6       ?AfxBeginThread@@YGPAVCWinThread@@PAUCRuntimeClass@@HIKPAU_SECURITY_ATTRIBUTES@@@Z 5f4423f6 f thrdcore.obj
 0001:00041527       ?AfxEndThread@@YGXIH@Z     5f442527 f thrdcore.obj
 0001:000415dd       ?AfxInitThread@@YGXXZ      5f4425dd f thrdcore.obj
 0001:0004167e       ?AfxTermThread@@YGXPAUHINSTANCE__@@@Z 5f44267e f thrdcore.obj
 0001:00041765       ?CreateThread@CWinThread@@QAEHKIPAU_SECURITY_ATTRIBUTES@@@Z 5f442765 f thrdcore.obj
 0001:00041986       ?Delete@CWinThread@@UAEXXZ 5f442986 f thrdcore.obj
 0001:000419d1       ?InitInstance@CWinThread@@UAEHXZ 5f4429d1 f thrdcore.obj
 0001:000419fc       ?Run@CWinThread@@UAEHXZ    5f4429fc f thrdcore.obj
 0001:00041b06       ?IsIdleMessage@CWinThread@@UAEHPAUtagMSG@@@Z 5f442b06 f thrdcore.obj
 0001:00041bdb       ?ExitInstance@CWinThread@@UAEHXZ 5f442bdb f thrdcore.obj
 0001:00041c36       ?OnIdle@CWinThread@@UAEHJ@Z 5f442c36 f thrdcore.obj
 0001:00041e7d       ?DispatchThreadMessage@CWinThread@@IAEXPAUtagMSG@@@Z 5f442e7d f thrdcore.obj
 0001:00041fd0       ?PreTranslateMessage@CWinThread@@UAEHPAUtagMSG@@@Z 5f442fd0 f thrdcore.obj
 0001:0004218a       ?ProcessWndProcException@CWinThread@@UAEJPAVCException@@PBUtagMSG@@@Z 5f44318a f thrdcore.obj
 0001:000421e2       ?_AfxMsgFilterHook@@YGJHIJ@Z 5f4431e2 f thrdcore.obj
 0001:0004228c       ?ProcessMessageFilter@CWinThread@@UAEHHPAUtagMSG@@@Z 5f44328c f thrdcore.obj
 0001:000425a5       ?GetMainWnd@CWinThread@@UAEPAVCWnd@@XZ 5f4435a5 f thrdcore.obj
 0001:000425f0       ?PumpMessage@CWinThread@@UAEHXZ 5f4435f0 f thrdcore.obj
 0001:000426fe       ?AssertValid@CWinThread@@UBEXXZ 5f4436fe f thrdcore.obj
 0001:0004271c       ?Dump@CWinThread@@UBEXAAVCDumpContext@@@Z 5f44371c f thrdcore.obj
 0001:00042960       ?_GetBaseMessageMap@CWinApp@@KGPBUAFX_MSGMAP@@XZ 5f443960 f appcore.obj
 0001:00042975       ?GetMessageMap@CWinApp@@MBEPBUAFX_MSGMAP@@XZ 5f443975 f appcore.obj
 0001:00042990       ?Run@CWinApp@@UAEHXZ       5f443990 f appcore.obj
 0001:000429e1       ?WinHelpW@CWinApp@@UAEXKI@Z 5f4439e1 f appcore.obj
 0001:00042a45       ?ProcessWndProcException@CWinApp@@UAEJPAVCException@@PBUtagMSG@@@Z 5f443a45 f appcore.obj
 0001:00042b2e       ?OnIdle@CWinApp@@UAEHJ@Z   5f443b2e f appcore.obj
 0001:00042c46       ?DevModeChange@CWinApp@@QAEXPAG@Z 5f443c46 f appcore.obj
 0001:00042db4       ?AssertValid@CWinApp@@UBEXXZ 5f443db4 f appcore.obj
 0001:00042e63       ?Dump@CWinApp@@UBEXAAVCDumpContext@@@Z 5f443e63 f appcore.obj
 0001:000431e0       ??0CRecentFileList@@QAE@IPBG0HH@Z 5f4441e0 f filelist.obj
 0001:00043363       ??1CRecentFileList@@UAE@XZ 5f444363 f filelist.obj
 0001:00043428       ?Add@CRecentFileList@@UAEXPBG@Z 5f444428 f filelist.obj
 0001:000435cc       ?Remove@CRecentFileList@@UAEXH@Z 5f4445cc f filelist.obj
 0001:000436b2       ?GetDisplayName@CRecentFileList@@QBEHAAVCString@@HPBGHH@Z 5f4446b2 f filelist.obj
 0001:000438d6       ?UpdateMenu@CRecentFileList@@UAEXPAVCCmdUI@@@Z 5f4448d6 f filelist.obj
 0001:00043d1d       ?WriteList@CRecentFileList@@UAEXXZ 5f444d1d f filelist.obj
 0001:00043e88       ?ReadList@CRecentFileList@@UAEXXZ 5f444e88 f filelist.obj
 0001:000442d0       ??_ECRecentFileList@@UAEPAXI@Z 5f4452d0 f filelist.obj
 0001:000442d0       ??_GCRecentFileList@@UAEPAXI@Z 5f4452d0 f filelist.obj
 0001:00044310       ??_ECString@@QAEPAXI@Z     5f445310 f filelist.obj
 0001:00044380       ??6@YGAAVCArchive@@AAV0@ABVCString@@@Z 5f445380 f arccore.obj
 0001:00044462       ??5@YGAAVCArchive@@AAV0@AAVCString@@@Z 5f445462 f arccore.obj
 0001:00044631       ?SerializeElements@@YGXAAVCArchive@@PAVCString@@H@Z 5f445631 f arccore.obj
 0001:000446f3       ?Load@CRuntimeClass@@SGPAU1@AAVCArchive@@PAI@Z 5f4456f3 f arccore.obj
 0001:00044881       ?Store@CRuntimeClass@@QBEXAAVCArchive@@@Z 5f445881 f arccore.obj
 0001:000448da       ??0CArchive@@QAE@PAVCFile@@IHPAX@Z 5f4458da f arccore.obj
 0001:00044b67       ??1CArchive@@QAE@XZ        5f445b67 f arccore.obj
 0001:00044bf3       ?Abort@CArchive@@QAEXXZ    5f445bf3 f arccore.obj
 0001:00044dc0       ?Close@CArchive@@QAEXXZ    5f445dc0 f arccore.obj
 0001:00044dfe       ?Read@CArchive@@QAEIPAXI@Z 5f445dfe f arccore.obj
 0001:0004524e       ?Write@CArchive@@QAEXPBXI@Z 5f44624e f arccore.obj
 0001:00045598       ?Flush@CArchive@@QAEXXZ    5f446598 f arccore.obj
 0001:0004581d       ?FillBuffer@CArchive@@QAEXI@Z 5f44681d f arccore.obj
 0001:00045bcb       ?WriteCount@CArchive@@QAEXK@Z 5f446bcb f arccore.obj
 0001:00045c1a       ?ReadCount@CArchive@@QAEKXZ 5f446c1a f arccore.obj
 0001:00045c6b       ?WriteString@CArchive@@QAEXPBG@Z 5f446c6b f arccore.obj
 0001:00045cc7       ?ReadString@CArchive@@QAEPAGPAGI@Z 5f446cc7 f arccore.obj
 0001:00045e7c       ?ReadString@CArchive@@QAEHAAVCString@@@Z 5f446e7c f arccore.obj
 0001:00045fa0       ?CheckCount@CArchive@@QAEXXZ 5f446fa0 f arcobj.obj
 0001:00045fd9       ?WriteObject@CArchive@@QAEXPBVCObject@@@Z 5f446fd9 f arcobj.obj
 0001:000460fe       ?ReadObject@CArchive@@QAEPAVCObject@@PBUCRuntimeClass@@@Z 5f4470fe f arcobj.obj
 0001:000462a1       ?GetObjectSchema@CArchive@@QAEIXZ 5f4472a1 f arcobj.obj
 0001:000462cd       ?MapObject@CArchive@@QAEXPBVCObject@@@Z 5f4472cd f arcobj.obj
 0001:0004645c       ?WriteClass@CArchive@@QAEXPBUCRuntimeClass@@@Z 5f44745c f arcobj.obj
 0001:00046598       ?ReadClass@CArchive@@QAEPAUCRuntimeClass@@PBU2@PAIPAK@Z 5f447598 f arcobj.obj
 0001:000468ff       ?SerializeClass@CArchive@@QAEXPBUCRuntimeClass@@@Z 5f4478ff f arcobj.obj
 0001:00046950       ?GetErrorMessage@CArchiveException@@UAEHPAGIPAI@Z 5f447950 f arcex.obj
 0001:00046a84       ?Dump@CArchiveException@@UBEXAAVCDumpContext@@@Z 5f447a84 f arcex.obj
 0001:00046b04       ?AfxThrowArchiveException@@YGXHPBG@Z 5f447b04 f arcex.obj
 0001:00046ba0       ??6@YGAAVCDumpContext@@AAV0@UtagSIZE@@@Z 5f447ba0 f wingdi.obj
 0001:00046bed       ??6@YGAAVCDumpContext@@AAV0@UtagPOINT@@@Z 5f447bed f wingdi.obj
 0001:00046c3a       ??6@YGAAVCDumpContext@@AAV0@ABUtagRECT@@@Z 5f447c3a f wingdi.obj
 0001:00046cc0       ??0CDC@@QAE@XZ             5f447cc0 f wingdi.obj
 0001:00046d4d       ?AssertValid@CDC@@UBEXXZ   5f447d4d f wingdi.obj
 0001:00046d6b       ?Dump@CDC@@UBEXAAVCDumpContext@@@Z 5f447d6b f wingdi.obj
 0001:00046ded       ?DeleteTempMap@CDC@@SGXXZ  5f447ded f wingdi.obj
 0001:00046f04       ?FromHandle@CDC@@SGPAV1@PAUHDC__@@@Z 5f447f04 f wingdi.obj
 0001:00046f85       ?Attach@CDC@@QAEHPAUHDC__@@@Z 5f447f85 f wingdi.obj
 0001:00047051       ?Detach@CDC@@QAEPAUHDC__@@XZ 5f448051 f wingdi.obj
 0001:000470b8       ?DeleteDC@CDC@@QAEHXZ      5f4480b8 f wingdi.obj
 0001:000470f1       ??1CDC@@UAE@XZ             5f4480f1 f wingdi.obj
 0001:00047175       ?SetAttribDC@CDC@@UAEXPAUHDC__@@@Z 5f448175 f wingdi.obj
 0001:00047196       ?SetOutputDC@CDC@@UAEXPAUHDC__@@@Z 5f448196 f wingdi.obj
 0001:00047210       ?ReleaseAttribDC@CDC@@UAEXXZ 5f448210 f wingdi.obj
 0001:00047230       ?ReleaseOutputDC@CDC@@UAEXXZ 5f448230 f wingdi.obj
 0001:000472a9       ?StartDocW@CDC@@QAEHPBG@Z  5f4482a9 f wingdi.obj
 0001:000472ea       ?SaveDC@CDC@@UAEHXZ        5f4482ea f wingdi.obj
 0001:00047373       ?RestoreDC@CDC@@UAEHH@Z    5f448373 f wingdi.obj
 0001:00047457       ?SelectGdiObject@CDC@@KGPAVCGdiObject@@PAUHDC__@@PAX@Z 5f448457 f wingdi.obj
 0001:0004747d       ?SelectStockObject@CDC@@UAEPAVCGdiObject@@H@Z 5f44847d f wingdi.obj
 0001:00047539       ?SelectObject@CDC@@QAEPAVCPen@@PAV2@@Z 5f448539 f wingdi.obj
 0001:000475d0       ?SelectObject@CDC@@QAEPAVCBrush@@PAV2@@Z 5f4485d0 f wingdi.obj
 0001:00047667       ?SelectObject@CDC@@UAEPAVCFont@@PAV2@@Z 5f448667 f wingdi.obj
 0001:000476fe       ?SelectObject@CDC@@QAEHPAVCRgn@@@Z 5f4486fe f wingdi.obj
 0001:0004778f       ?SelectPalette@CDC@@QAEPAVCPalette@@PAV2@H@Z 5f44878f f wingdi.obj
 0001:000477ec       ?SetBkColor@CDC@@UAEKK@Z   5f4487ec f wingdi.obj
 0001:00047873       ?SetBkMode@CDC@@QAEHH@Z    5f448873 f wingdi.obj
 0001:000478fa       ?SetPolyFillMode@CDC@@QAEHH@Z 5f4488fa f wingdi.obj
 0001:00047981       ?SetROP2@CDC@@QAEHH@Z      5f448981 f wingdi.obj
 0001:00047a08       ?SetStretchBltMode@CDC@@QAEHH@Z 5f448a08 f wingdi.obj
 0001:00047a8f       ?SetTextColor@CDC@@UAEKK@Z 5f448a8f f wingdi.obj
 0001:00047b16       ?SetMapMode@CDC@@UAEHH@Z   5f448b16 f wingdi.obj
 0001:00047b9d       ?SetViewportOrg@CDC@@UAE?AVCPoint@@HH@Z 5f448b9d f wingdi.obj
 0001:00047c7e       ?OffsetViewportOrg@CDC@@UAE?AVCPoint@@HH@Z 5f448c7e f wingdi.obj
 0001:00047d5f       ?SetViewportExt@CDC@@UAE?AVCSize@@HH@Z 5f448d5f f wingdi.obj
 0001:00047e40       ?ScaleViewportExt@CDC@@UAE?AVCSize@@HHHH@Z 5f448e40 f wingdi.obj
 0001:00047f31       ?SetWindowOrg@CDC@@QAE?AVCPoint@@HH@Z 5f448f31 f wingdi.obj
 0001:00048012       ?OffsetWindowOrg@CDC@@QAE?AVCPoint@@HH@Z 5f449012 f wingdi.obj
 0001:000480f3       ?SetWindowExt@CDC@@UAE?AVCSize@@HH@Z 5f4490f3 f wingdi.obj
 0001:000481d4       ?ScaleWindowExt@CDC@@UAE?AVCSize@@HHHH@Z 5f4491d4 f wingdi.obj
 0001:000482c5       ?GetClipBox@CDC@@UBEHPAUtagRECT@@@Z 5f4492c5 f wingdi.obj
 0001:00048313       ?SelectClipRgn@CDC@@QAEHPAVCRgn@@@Z 5f449313 f wingdi.obj
 0001:000483a4       ?ExcludeClipRect@CDC@@QAEHHHHH@Z 5f4493a4 f wingdi.obj
 0001:00048443       ?ExcludeClipRect@CDC@@QAEHPBUtagRECT@@@Z 5f449443 f wingdi.obj
 0001:000484f8       ?IntersectClipRect@CDC@@QAEHHHHH@Z 5f4494f8 f wingdi.obj
 0001:00048597       ?IntersectClipRect@CDC@@QAEHPBUtagRECT@@@Z 5f449597 f wingdi.obj
 0001:0004864c       ?OffsetClipRgn@CDC@@QAEHHH@Z 5f44964c f wingdi.obj
 0001:000486db       ?OffsetClipRgn@CDC@@QAEHUtagSIZE@@@Z 5f4496db f wingdi.obj
 0001:0004876a       ?MoveTo@CDC@@QAE?AVCPoint@@HH@Z 5f44976a f wingdi.obj
 0001:0004884b       ?LineTo@CDC@@QAEHHH@Z      5f44984b f wingdi.obj
 0001:000488d3       ?SetTextAlign@CDC@@QAEII@Z 5f4498d3 f wingdi.obj
 0001:00048957       ?SetTextJustification@CDC@@QAEHHH@Z 5f449957 f wingdi.obj
 0001:000489e6       ?SetTextCharacterExtra@CDC@@QAEHH@Z 5f4499e6 f wingdi.obj
 0001:00048a6d       ?SetMapperFlags@CDC@@QAEKK@Z 5f449a6d f wingdi.obj
 0001:00048af4       ?ArcTo@CDC@@QAEHHHHHHHHH@Z 5f449af4 f wingdi.obj
 0001:00048be6       ?SetArcDirection@CDC@@QAEHH@Z 5f449be6 f wingdi.obj
 0001:00048c6d       ?PolyDraw@CDC@@QAEHPBUtagPOINT@@PBEH@Z 5f449c6d f wingdi.obj
 0001:00048d4b       ?PolylineTo@CDC@@QAEHPBUtagPOINT@@H@Z 5f449d4b f wingdi.obj
 0001:00048e25       ?SetColorAdjustment@CDC@@QAEHPBUtagCOLORADJUSTMENT@@@Z 5f449e25 f wingdi.obj
 0001:00048eac       ?PolyBezierTo@CDC@@QAEHPBUtagPOINT@@H@Z 5f449eac f wingdi.obj
 0001:00048f86       ?SelectClipPath@CDC@@QAEHH@Z 5f449f86 f wingdi.obj
 0001:00049065       ?SelectClipRgn@CDC@@QAEHPAVCRgn@@H@Z 5f44a065 f wingdi.obj
 0001:000490fe       ?AfxEnumMetaFileProc@@YGHPAUHDC__@@PAUtagHANDLETABLE@@PAUtagMETARECORD@@HJ@Z 5f44a0fe f wingdi.obj
 0001:00049483       ?PlayMetaFile@CDC@@QAEHPAUHMETAFILE__@@@Z 5f44a483 f wingdi.obj
 0001:000494e3       ?LPtoDP@CDC@@QBEXPAUtagSIZE@@@Z 5f44a4e3 f wingdi.obj
 0001:00049598       ?DPtoLP@CDC@@QBEXPAUtagSIZE@@@Z 5f44a598 f wingdi.obj
 0001:0004964d       ?AssertValid@CClientDC@@UBEXXZ 5f44a64d f wingdi.obj
 0001:000496a5       ?Dump@CClientDC@@UBEXAAVCDumpContext@@@Z 5f44a6a5 f wingdi.obj
 0001:000496f1       ??0CClientDC@@QAE@PAVCWnd@@@Z 5f44a6f1 f wingdi.obj
 0001:000497ca       ??1CClientDC@@UAE@XZ       5f44a7ca f wingdi.obj
 0001:0004986d       ?AssertValid@CWindowDC@@UBEXXZ 5f44a86d f wingdi.obj
 0001:000498c5       ?Dump@CWindowDC@@UBEXAAVCDumpContext@@@Z 5f44a8c5 f wingdi.obj
 0001:00049911       ??0CWindowDC@@QAE@PAVCWnd@@@Z 5f44a911 f wingdi.obj
 0001:000499ea       ??1CWindowDC@@UAE@XZ       5f44a9ea f wingdi.obj
 0001:00049a8d       ?AssertValid@CPaintDC@@UBEXXZ 5f44aa8d f wingdi.obj
 0001:00049ad8       ?Dump@CPaintDC@@UBEXAAVCDumpContext@@@Z 5f44aad8 f wingdi.obj
 0001:00049b7d       ??0CPaintDC@@QAE@PAVCWnd@@@Z 5f44ab7d f wingdi.obj
 0001:00049c64       ??1CPaintDC@@UAE@XZ        5f44ac64 f wingdi.obj
 0001:00049d3a       ?Dump@CGdiObject@@UBEXAAVCDumpContext@@@Z 5f44ad3a f wingdi.obj
 0001:00049d86       ?AssertValid@CGdiObject@@UBEXXZ 5f44ad86 f wingdi.obj
 0001:00049deb       ?DeleteTempMap@CGdiObject@@SGXXZ 5f44adeb f wingdi.obj
 0001:00049f02       ?FromHandle@CGdiObject@@SGPAV1@PAX@Z 5f44af02 f wingdi.obj
 0001:00049f89       ?Attach@CGdiObject@@QAEHPAX@Z 5f44af89 f wingdi.obj
 0001:0004a027       ?Detach@CGdiObject@@QAEPAXXZ 5f44b027 f wingdi.obj
 0001:0004a083       ?DeleteObject@CGdiObject@@QAEHXZ 5f44b083 f wingdi.obj
 0001:0004a0bc       ??0CPen@@QAE@HHK@Z         5f44b0bc f wingdi.obj
 0001:0004a155       ??0CPen@@QAE@HHPBUtagLOGBRUSH@@HPBK@Z 5f44b155 f wingdi.obj
 0001:0004a1f6       ?Dump@CPen@@UBEXAAVCDumpContext@@@Z 5f44b1f6 f wingdi.obj
 0001:0004a2e4       ??0CBrush@@QAE@K@Z         5f44b2e4 f wingdi.obj
 0001:0004a375       ??0CBrush@@QAE@HK@Z        5f44b375 f wingdi.obj
 0001:0004a40a       ??0CBrush@@QAE@PAVCBitmap@@@Z 5f44b40a f wingdi.obj
 0001:0004a4b1       ?CreateDIBPatternBrush@CBrush@@QAEHPAXI@Z 5f44b4b1 f wingdi.obj
 0001:0004a541       ?Dump@CBrush@@UBEXAAVCDumpContext@@@Z 5f44b541 f wingdi.obj
 0001:0004a62f       ?Dump@CFont@@UBEXAAVCDumpContext@@@Z 5f44b62f f wingdi.obj
 0001:0004a835       ?Dump@CBitmap@@UBEXAAVCDumpContext@@@Z 5f44b835 f wingdi.obj
 0001:0004a96b       ?AfxThrowResourceException@@YGXXZ 5f44b96b f wingdi.obj
 0001:0004a993       ?AfxThrowUserException@@YGXXZ 5f44b993 f wingdi.obj
 0001:0004a9c0       ??_GCDC@@UAEPAXI@Z         5f44b9c0 f wingdi.obj
 0001:0004aa00       ??_ECClientDC@@UAEPAXI@Z   5f44ba00 f wingdi.obj
 0001:0004aa00       ??_GCClientDC@@UAEPAXI@Z   5f44ba00 f wingdi.obj
 0001:0004aa40       ??_GCWindowDC@@UAEPAXI@Z   5f44ba40 f wingdi.obj
 0001:0004aa40       ??_ECWindowDC@@UAEPAXI@Z   5f44ba40 f wingdi.obj
 0001:0004aa80       ??_GCPaintDC@@UAEPAXI@Z    5f44ba80 f wingdi.obj
 0001:0004aa80       ??_ECPaintDC@@UAEPAXI@Z    5f44ba80 f wingdi.obj
 0001:0004aac0       ?AfxCustomLogFont@@YGHIPAUtagLOGFONTW@@@Z 5f44bac0 f winutil.obj
 0001:0004abb5       ?_AfxIsComboBoxControl@@YGHPAUHWND__@@I@Z 5f44bbb5 f winutil.obj
 0001:0004ac2d       ?_AfxCompareClassName@@YGHPAUHWND__@@PBG@Z 5f44bc2d f winutil.obj
 0001:0004ac9b       ?_AfxChildWindowFromPoint@@YGPAUHWND__@@PAU1@UtagPOINT@@@Z 5f44bc9b f winutil.obj
 0001:0004ad7b       ?AfxSetWindowText@@YGXPAUHWND__@@PBG@Z 5f44bd7b f winutil.obj
 0001:0004adf3       ?AfxDeleteObject@@YGXPAPAX@Z 5f44bdf3 f winutil.obj
 0001:0004ae45       ?AfxCancelModes@@YGXPAUHWND__@@@Z 5f44be45 f winutil.obj
 0001:0004af1f       ?AfxGlobalFree@@YGXPAX@Z   5f44bf1f f winutil.obj
 0001:0004afae       ?AfxCriticalNewHandler@@YAHI@Z 5f44bfae f winutil.obj
 0001:0004b0c0       ?_GetBaseMessageMap@CDocument@@KGPBUAFX_MSGMAP@@XZ 5f44c0c0 f doccore.obj
 0001:0004b0d5       ?GetMessageMap@CDocument@@MBEPBUAFX_MSGMAP@@XZ 5f44c0d5 f doccore.obj
 0001:0004b0f0       ??0CDocument@@QAE@XZ       5f44c0f0 f doccore.obj
 0001:0004b202       ??1CDocument@@UAE@XZ       5f44c202 f doccore.obj
 0001:0004b34b       ?OnFinalRelease@CDocument@@UAEXXZ 5f44c34b f doccore.obj
 0001:0004b37f       ?DisconnectViews@CDocument@@QAEXXZ 5f44c37f f doccore.obj
 0001:0004b3ff       ?SetTitle@CDocument@@UAEXPBG@Z 5f44c3ff f doccore.obj
 0001:0004b434       ?DeleteContents@CDocument@@UAEXXZ 5f44c434 f doccore.obj
 0001:0004b44a       ?OnChangedViewList@CDocument@@UAEXXZ 5f44c44a f doccore.obj
 0001:0004b4a1       ?UpdateFrameCounts@CDocument@@UAEXXZ 5f44c4a1 f doccore.obj
 0001:0004b725       ?CanCloseFrame@CDocument@@UAEHPAVCFrameWnd@@@Z 5f44c725 f doccore.obj
 0001:0004b7df       ?PreCloseFrame@CDocument@@UAEXPAVCFrameWnd@@@Z 5f44c7df f doccore.obj
 0001:0004b7f7       ?SetPathName@CDocument@@UAEXPBGH@Z 5f44c7f7 f doccore.obj
 0001:0004b91d       ?OnFileClose@CDocument@@IAEXXZ 5f44c91d f doccore.obj
 0001:0004b95c       ?OnFileSave@CDocument@@IAEXXZ 5f44c95c f doccore.obj
 0001:0004b980       ?OnFileSaveAs@CDocument@@IAEXXZ 5f44c980 f doccore.obj
 0001:0004b9c2       ?DoFileSave@CDocument@@UAEHXZ 5f44c9c2 f doccore.obj
 0001:0004ba71       ?DoSave@CDocument@@UAEHPBGH@Z 5f44ca71 f doccore.obj
 0001:0004bd49       ?SaveModified@CDocument@@UAEHXZ 5f44cd49 f doccore.obj
 0001:0004bf80       ?GetDefaultMenu@CDocument@@UAEPAUHMENU__@@XZ 5f44cf80 f doccore.obj
 0001:0004bf98       ?GetDefaultAccelerator@CDocument@@UAEPAUHACCEL__@@XZ 5f44cf98 f doccore.obj
 0001:0004bfb0       ?ReportSaveLoadException@CDocument@@UAEXPBGPAVCException@@HI@Z 5f44cfb0 f doccore.obj
 0001:0004c2a7       ?Open@CMirrorFile@@UAEHPBGIPAVCFileException@@@Z 5f44d2a7 f doccore.obj
 0001:0004c5ef       ?Abort@CMirrorFile@@UAEXXZ 5f44d5ef f doccore.obj
 0001:0004c631       ?Close@CMirrorFile@@UAEXXZ 5f44d631 f doccore.obj
 0001:0004c6dd       ?GetFile@CDocument@@UAEPAVCFile@@PBGIPAVCFileException@@@Z 5f44d6dd f doccore.obj
 0001:0004c7da       ?ReleaseFile@CDocument@@UAEXPAVCFile@@H@Z 5f44d7da f doccore.obj
 0001:0004c86c       ?OnNewDocument@CDocument@@UAEHXZ 5f44d86c f doccore.obj
 0001:0004c8cf       ?OnOpenDocument@CDocument@@UAEHPBG@Z 5f44d8cf f doccore.obj
 0001:0004cbd8       ?OnSaveDocument@CDocument@@UAEHPBG@Z 5f44dbd8 f doccore.obj
 0001:0004ce78       ?OnCloseDocument@CDocument@@UAEXXZ 5f44de78 f doccore.obj
 0001:0004cf60       ?OnIdle@CDocument@@UAEXXZ  5f44df60 f doccore.obj
 0001:0004cf76       ?AddView@CDocument@@QAEXPAVCView@@@Z 5f44df76 f doccore.obj
 0001:0004d03f       ?RemoveView@CDocument@@QAEXPAVCView@@@Z 5f44e03f f doccore.obj
 0001:0004d0c3       ?GetFirstViewPosition@CDocument@@UBEPAU__POSITION@@XZ 5f44e0c3 f doccore.obj
 0001:0004d0e4       ?GetNextView@CDocument@@UBEPAVCView@@AAPAU__POSITION@@@Z 5f44e0e4 f doccore.obj
 0001:0004d175       ?UpdateAllViews@CDocument@@QAEXPAVCView@@JPAVCObject@@@Z 5f44e175 f doccore.obj
 0001:0004d22a       ?SendInitialUpdate@CDocument@@QAEXXZ 5f44e22a f doccore.obj
 0001:0004d290       ?OnCmdMsg@CDocument@@UAEHIHPAXPAUAFX_CMDHANDLERINFO@@@Z 5f44e290 f doccore.obj
 0001:0004d314       ?Dump@CDocument@@UBEXAAVCDumpContext@@@Z 5f44e314 f doccore.obj
 0001:0004d406       ?AssertValid@CDocument@@UBEXXZ 5f44e406 f doccore.obj
 0001:0004d470       ??_ECDocument@@UAEPAXI@Z   5f44e470 f doccore.obj
 0001:0004d470       ??_GCDocument@@UAEPAXI@Z   5f44e470 f doccore.obj
 0001:0004d4b0       ??0CMirrorFile@@QAE@XZ     5f44e4b0 f doccore.obj
 0001:0004d540       ??_GCMirrorFile@@UAEPAXI@Z 5f44e540 f doccore.obj
 0001:0004d580       ??1CMirrorFile@@UAE@XZ     5f44e580 f doccore.obj
 0001:0004d600       ??0CDocTemplate@@IAE@IPAUCRuntimeClass@@00@Z 5f44e600 f doctempl.obj
 0001:0004d8b7       ?LoadTemplate@CDocTemplate@@UAEXXZ 5f44e8b7 f doctempl.obj
 0001:0004da34       ?SetServerInfo@CDocTemplate@@QAEXIIPAUCRuntimeClass@@0@Z 5f44ea34 f doctempl.obj
 0001:0004db52       ?SetContainerInfo@CDocTemplate@@QAEXI@Z 5f44eb52 f doctempl.obj
 0001:0004dbad       ??1CDocTemplate@@UAE@XZ    5f44ebad f doctempl.obj
 0001:0004dcca       ?GetDocString@CDocTemplate@@UBEHAAVCString@@W4DocStringIndex@1@@Z 5f44ecca f doctempl.obj
 0001:0004dcfd       ?AddDocument@CDocTemplate@@UAEXPAVCDocument@@@Z 5f44ecfd f doctempl.obj
 0001:0004dd56       ?RemoveDocument@CDocTemplate@@UAEXPAVCDocument@@@Z 5f44ed56 f doctempl.obj
 0001:0004ddb2       ?MatchDocType@CDocTemplate@@UAE?AW4Confidence@1@PBGAAPAVCDocument@@@Z 5f44edb2 f doctempl.obj
 0001:0004df57       ?CreateNewDocument@CDocTemplate@@UAEPAVCDocument@@XZ 5f44ef57 f doctempl.obj
 0001:0004e01f       ?CreateNewFrame@CDocTemplate@@UAEPAVCFrameWnd@@PAVCDocument@@PAV2@@Z 5f44f01f f doctempl.obj
 0001:0004e19c       ?CreateOleFrame@CDocTemplate@@QAEPAVCFrameWnd@@PAVCWnd@@PAVCDocument@@H@Z 5f44f19c f doctempl.obj
 0001:0004e2b4       ?InitialUpdateFrame@CDocTemplate@@UAEXPAVCFrameWnd@@PAVCDocument@@H@Z 5f44f2b4 f doctempl.obj
 0001:0004e2dc       ?SaveAllModified@CDocTemplate@@UAEHXZ 5f44f2dc f doctempl.obj
 0001:0004e343       ?CloseAllDocuments@CDocTemplate@@UAEXH@Z 5f44f343 f doctempl.obj
 0001:0004e3aa       ?OnIdle@CDocTemplate@@UAEXXZ 5f44f3aa f doctempl.obj
 0001:0004e43d       ?Dump@CDocTemplate@@UBEXAAVCDumpContext@@@Z 5f44f43d f doctempl.obj
 0001:0004e550       ?AssertValid@CDocTemplate@@UBEXXZ 5f44f550 f doctempl.obj
 0001:0004e5b0       ??_ECDocTemplate@@UAEPAXI@Z 5f44f5b0 f doctempl.obj
 0001:0004e5b0       ??_GCDocTemplate@@UAEPAXI@Z 5f44f5b0 f doctempl.obj
 0001:0004e5f0       ??0CSingleDocTemplate@@QAE@IPAUCRuntimeClass@@00@Z 5f44f5f0 f docsingl.obj
 0001:0004e67b       ??1CSingleDocTemplate@@UAE@XZ 5f44f67b f docsingl.obj
 0001:0004e702       ?GetFirstDocPosition@CSingleDocTemplate@@UBEPAU__POSITION@@XZ 5f44f702 f docsingl.obj
 0001:0004e731       ?GetNextDoc@CSingleDocTemplate@@UBEPAVCDocument@@AAPAU__POSITION@@@Z 5f44f731 f docsingl.obj
 0001:0004e793       ?AddDocument@CSingleDocTemplate@@UAEXPAVCDocument@@@Z 5f44f793 f docsingl.obj
 0001:0004e7f2       ?RemoveDocument@CSingleDocTemplate@@UAEXPAVCDocument@@@Z 5f44f7f2 f docsingl.obj
 0001:0004e854       ?OpenDocumentFile@CSingleDocTemplate@@UAEPAVCDocument@@PBGH@Z 5f44f854 f docsingl.obj
 0001:0004ec25       ?SetDefaultTitle@CSingleDocTemplate@@UAEXPAVCDocument@@@Z 5f44fc25 f docsingl.obj
 0001:0004ecf3       ?Dump@CSingleDocTemplate@@UBEXAAVCDumpContext@@@Z 5f44fcf3 f docsingl.obj
 0001:0004ed5e       ?AssertValid@CSingleDocTemplate@@UBEXXZ 5f44fd5e f docsingl.obj
 0001:0004eda0       ??_GCSingleDocTemplate@@UAEPAXI@Z 5f44fda0 f docsingl.obj
 0001:0004eda0       ??_ECSingleDocTemplate@@UAEPAXI@Z 5f44fda0 f docsingl.obj
 0001:0004ede0       ??0CMultiDocTemplate@@QAE@IPAUCRuntimeClass@@00@Z 5f44fde0 f docmulti.obj
 0001:0004eedc       ?LoadTemplate@CMultiDocTemplate@@UAEXXZ 5f44fedc f docmulti.obj
 0001:0004ef7d       ??1CMultiDocTemplate@@UAE@XZ 5f44ff7d f docmulti.obj
 0001:0004f05e       ?GetFirstDocPosition@CMultiDocTemplate@@UBEPAU__POSITION@@XZ 5f45005e f docmulti.obj
 0001:0004f07f       ?GetNextDoc@CMultiDocTemplate@@UBEPAVCDocument@@AAPAU__POSITION@@@Z 5f45007f f docmulti.obj
 0001:0004f0a6       ?AddDocument@CMultiDocTemplate@@UAEXPAVCDocument@@@Z 5f4500a6 f docmulti.obj
 0001:0004f117       ?RemoveDocument@CMultiDocTemplate@@UAEXPAVCDocument@@@Z 5f450117 f docmulti.obj
 0001:0004f168       ?OpenDocumentFile@CMultiDocTemplate@@UAEPAVCDocument@@PBGH@Z 5f450168 f docmulti.obj
 0001:0004f395       ?SetDefaultTitle@CMultiDocTemplate@@UAEXPAVCDocument@@@Z 5f450395 f docmulti.obj
 0001:0004f491       ?Dump@CMultiDocTemplate@@UBEXAAVCDumpContext@@@Z 5f450491 f docmulti.obj
 0001:0004f589       ?AssertValid@CMultiDocTemplate@@UBEXXZ 5f450589 f docmulti.obj
 0001:0004f5f0       ??_ECMultiDocTemplate@@UAEPAXI@Z 5f4505f0 f docmulti.obj
 0001:0004f5f0       ??_GCMultiDocTemplate@@UAEPAXI@Z 5f4505f0 f docmulti.obj
 0001:0004f630       ?OpenDocumentFile@CDocManager@@UAEPAVCDocument@@PBG@Z 5f450630 f docmgr.obj
 0001:0004f9a7       ?GetOpenDocumentCount@CDocManager@@UAEHXZ 5f4509a7 f docmgr.obj
 0001:0004fa30       ?_GetBaseMessageMap@CView@@KGPBUAFX_MSGMAP@@XZ 5f450a30 f viewcore.obj
 0001:0004fa45       ?GetMessageMap@CView@@MBEPBUAFX_MSGMAP@@XZ 5f450a45 f viewcore.obj
 0001:0004fa60       ??0CView@@IAE@XZ           5f450a60 f viewcore.obj
 0001:0004fad9       ??1CView@@UAE@XZ           5f450ad9 f viewcore.obj
 0001:0004fb5d       ?PreCreateWindow@CView@@MAEHAAUtagCREATESTRUCTW@@@Z 5f450b5d f viewcore.obj
 0001:0004fc19       ?OnCreate@CView@@IAEHPAUtagCREATESTRUCTW@@@Z 5f450c19 f viewcore.obj
 0001:0004fcdb       ?OnDestroy@CView@@IAEXXZ   5f450cdb f viewcore.obj
 0001:0004fd2b       ?PostNcDestroy@CView@@MAEXXZ 5f450d2b f viewcore.obj
 0001:0004fd69       ?CalcWindowRect@CView@@UAEXPAUtagRECT@@I@Z 5f450d69 f viewcore.obj
 0001:0004fe12       ?OnCmdMsg@CView@@MAEHIHPAXPAUAFX_CMDHANDLERINFO@@@Z 5f450e12 f viewcore.obj
 0001:0004fec0       ?OnPaint@CView@@IAEXXZ     5f450ec0 f viewcore.obj
 0001:0004ff4c       ?OnInitialUpdate@CView@@UAEXXZ 5f450f4c f viewcore.obj
 0001:0004ff76       ?OnUpdate@CView@@MAEXPAV1@JPAVCObject@@@Z 5f450f76 f viewcore.obj
 0001:0004ffbc       ?OnPrint@CView@@MAEXPAVCDC@@PAUCPrintInfo@@@Z 5f450fbc f viewcore.obj
 0001:0004fff9       ?OnDraw@CView@@MAEXPAVCDC@@@Z 5f450ff9 f viewcore.obj
 0001:00050011       ?IsSelected@CView@@UBEHPBVCObject@@@Z 5f451011 f viewcore.obj
 0001:0005003e       ?OnActivateView@CView@@MAEXHPAV1@0@Z 5f45103e f viewcore.obj
 0001:0005009c       ?OnActivateFrame@CView@@MAEXIPAVCFrameWnd@@@Z 5f45109c f viewcore.obj
 0001:000500b4       ?OnMouseActivate@CView@@IAEHPAVCWnd@@II@Z 5f4510b4 f viewcore.obj
 0001:000501c2       ?OnScroll@CView@@UAEHIIH@Z 5f4511c2 f viewcore.obj
 0001:000501dc       ?OnScrollBy@CView@@UAEHVCSize@@H@Z 5f4511dc f viewcore.obj
 0001:000501f6       ?OnDragScroll@CView@@UAEKKVCPoint@@@Z 5f4511f6 f viewcore.obj
 0001:00050213       ?OnDragEnter@CView@@UAEKPAVCOleDataObject@@KVCPoint@@@Z 5f451213 f viewcore.obj
 0001:0005022d       ?OnDragOver@CView@@UAEKPAVCOleDataObject@@KVCPoint@@@Z 5f45122d f viewcore.obj
 0001:00050247       ?OnDrop@CView@@UAEHPAVCOleDataObject@@KVCPoint@@@Z 5f451247 f viewcore.obj
 0001:00050261       ?OnDropEx@CView@@UAEKPAVCOleDataObject@@KKVCPoint@@@Z 5f451261 f viewcore.obj
 0001:0005027e       ?OnDragLeave@CView@@UAEXXZ 5f45127e f viewcore.obj
 0001:00050294       ?GetParentSplitter@CView@@SGPAVCSplitterWnd@@PBVCWnd@@H@Z 5f451294 f viewcore.obj
 0001:0005030e       ?GetScrollBarCtrl@CView@@UBEPAVCScrollBar@@H@Z 5f45130e f viewcore.obj
 0001:0005040f       ?OnUpdateSplitCmd@CView@@IAEXPAVCCmdUI@@@Z 5f45140f f viewcore.obj
 0001:00050470       ?OnSplitCmd@CView@@IAEHI@Z 5f451470 f viewcore.obj
 0001:000504e2       ?OnUpdateNextPaneMenu@CView@@IAEXPAVCCmdUI@@@Z 5f4514e2 f viewcore.obj
 0001:00050594       ?OnNextPaneCmd@CView@@IAEHI@Z 5f451594 f viewcore.obj
 0001:00050620       ?OnPrepareDC@CView@@UAEXPAVCDC@@PAUCPrintInfo@@@Z 5f451620 f viewcore.obj
 0001:0005068e       ?OnPreparePrinting@CView@@MAEHPAUCPrintInfo@@@Z 5f45168e f viewcore.obj
 0001:000506ab       ?OnBeginPrinting@CView@@MAEXPAVCDC@@PAUCPrintInfo@@@Z 5f4516ab f viewcore.obj
 0001:000506d6       ?OnEndPrinting@CView@@MAEXPAVCDC@@PAUCPrintInfo@@@Z 5f4516d6 f viewcore.obj
 0001:00050701       ?OnEndPrintPreview@CView@@MAEXPAVCDC@@PAUCPrintInfo@@UtagPOINT@@PAVCPreviewView@@@Z 5f451701 f viewcore.obj
 0001:00050844       ?Dump@CView@@UBEXAAVCDumpContext@@@Z 5f451844 f viewcore.obj
 0001:000508a2       ?AssertValid@CView@@UBEXXZ 5f4518a2 f viewcore.obj
 0001:000508c0       ?_GetBaseMessageMap@CCtrlView@@KGPBUAFX_MSGMAP@@XZ 5f4518c0 f viewcore.obj
 0001:000508d5       ?GetMessageMap@CCtrlView@@MBEPBUAFX_MSGMAP@@XZ 5f4518d5 f viewcore.obj
 0001:000508f0       ??0CCtrlView@@QAE@PBGK@Z   5f4518f0 f viewcore.obj
 0001:00050994       ?PreCreateWindow@CCtrlView@@MAEHAAUtagCREATESTRUCTW@@@Z 5f451994 f viewcore.obj
 0001:00050a64       ?OnDraw@CCtrlView@@MAEXPAVCDC@@@Z 5f451a64 f viewcore.obj
 0001:00050a94       ?OnPaint@CCtrlView@@IAEXXZ 5f451a94 f viewcore.obj
 0001:00050ab2       ?Dump@CCtrlView@@UBEXAAVCDumpContext@@@Z 5f451ab2 f viewcore.obj
 0001:00050b0b       ?AssertValid@CCtrlView@@UBEXXZ 5f451b0b f viewcore.obj
 0001:00050b60       ??_GCView@@UAEPAXI@Z       5f451b60 f viewcore.obj
 0001:00050b60       ??_ECView@@UAEPAXI@Z       5f451b60 f viewcore.obj
 0001:00050ba0       ??_GCCtrlView@@UAEPAXI@Z   5f451ba0 f viewcore.obj
 0001:00050ba0       ??_ECCtrlView@@UAEPAXI@Z   5f451ba0 f viewcore.obj
 0001:00050be0       ??1CCtrlView@@UAE@XZ       5f451be0 f viewcore.obj
 0001:00050c60       ?_GetBaseMessageMap@CScrollView@@KGPBUAFX_MSGMAP@@XZ 5f451c60 f viewscrl.obj
 0001:00050c75       ?GetMessageMap@CScrollView@@MBEPBUAFX_MSGMAP@@XZ 5f451c75 f viewscrl.obj
 0001:00050c90       ??0CScrollView@@IAE@XZ     5f451c90 f viewscrl.obj
 0001:00050d48       ??1CScrollView@@UAE@XZ     5f451d48 f viewscrl.obj
 0001:00050db0       ?OnPrepareDC@CScrollView@@UAEXPAVCDC@@PAUCPrintInfo@@@Z 5f451db0 f viewscrl.obj
 0001:00051039       ?SetScaleToFitSize@CScrollView@@QAEXUtagSIZE@@@Z 5f452039 f viewscrl.obj
 0001:00051164       ?SetScrollSizes@CScrollView@@QAEXHUtagSIZE@@ABU2@1@Z 5f452164 f viewscrl.obj
 0001:0005146c       ?GetScrollPosition@CScrollView@@QBE?AVCPoint@@XZ 5f45246c f viewscrl.obj
 0001:00051560       ?ScrollToPosition@CScrollView@@QAEXUtagPOINT@@@Z 5f452560 f viewscrl.obj
 0001:0005168f       ?GetDeviceScrollPosition@CScrollView@@QBE?AVCPoint@@XZ 5f45268f f viewscrl.obj
 0001:0005177d       ?GetDeviceScrollSizes@CScrollView@@QBEXAAHAAUtagSIZE@@11@Z 5f45277d f viewscrl.obj
 0001:000517f8       ?ScrollToDevicePosition@CScrollView@@IAEXUtagPOINT@@@Z 5f4527f8 f viewscrl.obj
 0001:000518a8       ?FillOutsideRect@CScrollView@@QAEXPAVCDC@@PAVCBrush@@@Z 5f4528a8 f viewscrl.obj
 0001:00051997       ?ResizeParentToFit@CScrollView@@QAEXH@Z 5f452997 f viewscrl.obj
 0001:00051bd4       ?OnSize@CScrollView@@QAEXIHH@Z 5f452bd4 f viewscrl.obj
 0001:00051c2f       ?CenterOnPoint@CScrollView@@IAEXVCPoint@@@Z 5f452c2f f viewscrl.obj
 0001:00051d8e       ?GetScrollBarSizes@CScrollView@@IAEXAAVCSize@@@Z 5f452d8e f viewscrl.obj
 0001:00051e24       ?GetTrueClientSize@CScrollView@@IAEHAAVCSize@@0@Z 5f452e24 f viewscrl.obj
 0001:00051f15       ?GetScrollBarState@CScrollView@@IAEXVCSize@@AAV2@1AAVCPoint@@H@Z 5f452f15 f viewscrl.obj
 0001:000520c7       ?UpdateBars@CScrollView@@IAEXXZ 5f4530c7 f viewscrl.obj
 0001:00052335       ?CalcWindowRect@CScrollView@@UAEXPAUtagRECT@@I@Z 5f453335 f viewscrl.obj
 0001:00052415       ?OnHScroll@CScrollView@@QAEXIIPAVCScrollBar@@@Z 5f453415 f viewscrl.obj
 0001:0005248b       ?OnVScroll@CScrollView@@QAEXIIPAVCScrollBar@@@Z 5f45348b f viewscrl.obj
 0001:00052501       ?OnScroll@CScrollView@@UAEHIIH@Z 5f453501 f viewscrl.obj
 0001:000526e2       ?OnScrollBy@CScrollView@@UAEHVCSize@@H@Z 5f4536e2 f viewscrl.obj
 0001:000528a7       ?Dump@CScrollView@@UBEXAAVCDumpContext@@@Z 5f4538a7 f viewscrl.obj
 0001:00052a87       ?AssertValid@CScrollView@@UBEXXZ 5f453a87 f viewscrl.obj
 0001:00052b30       ??_GCScrollView@@UAEPAXI@Z 5f453b30 f viewscrl.obj
 0001:00052b30       ??_ECScrollView@@UAEPAXI@Z 5f453b30 f viewscrl.obj
 0001:00052b70       ?_GetBaseMessageMap@CFormView@@KGPBUAFX_MSGMAP@@XZ 5f453b70 f viewform.obj
 0001:00052b85       ?GetMessageMap@CFormView@@MBEPBUAFX_MSGMAP@@XZ 5f453b85 f viewform.obj
 0001:00052ba0       ??0CFormView@@IAE@PBG@Z    5f453ba0 f viewform.obj
 0001:00052c2e       ??0CFormView@@IAE@I@Z      5f453c2e f viewform.obj
 0001:00052ced       ?Create@CFormView@@MAEHPBG0KABUtagRECT@@PAVCWnd@@IPAUCCreateContext@@@Z 5f453ced f viewform.obj
 0001:00052f2b       ?OnInitialUpdate@CFormView@@UAEXXZ 5f453f2b f viewform.obj
 0001:00052f80       ?OnCreate@CFormView@@IAEHPAUtagCREATESTRUCTW@@@Z 5f453f80 f viewform.obj
 0001:00052faf       ?OnActivateView@CFormView@@MAEXHPAVCView@@0@Z 5f453faf f viewform.obj
 0001:00052ff0       ?OnActivateFrame@CFormView@@MAEXIPAVCFrameWnd@@@Z 5f453ff0 f viewform.obj
 0001:0005301a       ?SaveFocusControl@CFormView@@IAEHXZ 5f45401a f viewform.obj
 0001:00053071       ?OnSetFocus@CFormView@@IAEXPAVCWnd@@@Z 5f454071 f viewform.obj
 0001:000530c2       ?PreTranslateMessage@CFormView@@MAEHPAUtagMSG@@@Z 5f4540c2 f viewform.obj
 0001:000531d0       ?OnDraw@CFormView@@MAEXPAVCDC@@@Z 5f4541d0 f viewform.obj
 0001:0005321d       ?HandleInitDialog@CFormView@@IAEJIJ@Z 5f45421d f viewform.obj
 0001:000532a2       ?SetOccDialogInfo@CFormView@@MAEHPAU_AFX_OCC_DIALOG_INFO@@@Z 5f4542a2 f viewform.obj
 0001:000532c8       ?Dump@CFormView@@UBEXAAVCDumpContext@@@Z 5f4542c8 f viewform.obj
 0001:00053345       ?AssertValid@CFormView@@UBEXXZ 5f454345 f viewform.obj
 0001:00053370       ??_ECFormView@@UAEPAXI@Z   5f454370 f viewform.obj
 0001:00053370       ??_GCFormView@@UAEPAXI@Z   5f454370 f viewform.obj
 0001:000533b0       ??1CFormView@@UAE@XZ       5f4543b0 f viewform.obj
 0001:00053410       ?OnAppExit@CWinApp@@IAEXXZ 5f454410 f appui.obj
 0001:00053460       ?GetOpenDocumentCount@CWinApp@@QAEHXZ 5f454460 f appui2.obj
 0001:000534c0       ?AfxFindResourceHandle@@YGPAUHINSTANCE__@@PBG0@Z 5f4544c0 f dllinit.obj
 0001:000536dc       ?AfxLoadString@@YGHIPAGI@Z 5f4546dc f dllinit.obj
 0001:000539a0       ??0CMemFile@@QAE@I@Z       5f4549a0 f filemem.obj
 0001:00053a6b       ??0CMemFile@@QAE@PAEII@Z   5f454a6b f filemem.obj
 0001:00053b4c       ?Attach@CMemFile@@QAEXPAEII@Z 5f454b4c f filemem.obj
 0001:00053bd7       ?Detach@CMemFile@@QAEPAEXZ 5f454bd7 f filemem.obj
 0001:00053c21       ??1CMemFile@@UAE@XZ        5f454c21 f filemem.obj
 0001:00053ce8       ?Alloc@CMemFile@@MAEPAEK@Z 5f454ce8 f filemem.obj
 0001:00053d0d       ?Realloc@CMemFile@@MAEPAEPAEK@Z 5f454d0d f filemem.obj
 0001:00053d36       ?Memcpy@CMemFile@@MAEPAEPAEPBEI@Z 5f454d36 f filemem.obj
 0001:00053dfe       ?Free@CMemFile@@MAEXPAE@Z  5f454dfe f filemem.obj
 0001:00053e42       ?GetPosition@CMemFile@@UBEKXZ 5f454e42 f filemem.obj
 0001:00053e6e       ?GrowFile@CMemFile@@MAEXK@Z 5f454e6e f filemem.obj
 0001:00053f70       ?SetLength@CMemFile@@UAEXK@Z 5f454f70 f filemem.obj
 0001:00053fed       ?Read@CMemFile@@UAEIPAXI@Z 5f454fed f filemem.obj
 0001:00054101       ?Write@CMemFile@@UAEXPBXI@Z 5f455101 f filemem.obj
 0001:0005423d       ?Seek@CMemFile@@UAEJJI@Z   5f45523d f filemem.obj
 0001:0005432d       ?Flush@CMemFile@@UAEXXZ    5f45532d f filemem.obj
 0001:00054356       ?Close@CMemFile@@UAEXXZ    5f455356 f filemem.obj
 0001:000543dd       ?Abort@CMemFile@@UAEXXZ    5f4553dd f filemem.obj
 0001:00054411       ?LockRange@CMemFile@@UAEXKK@Z 5f455411 f filemem.obj
 0001:00054441       ?UnlockRange@CMemFile@@UAEXKK@Z 5f455441 f filemem.obj
 0001:00054471       ?Duplicate@CMemFile@@UBEPAVCFile@@XZ 5f455471 f filemem.obj
 0001:000544a1       ?GetBufferPtr@CMemFile@@UAEIIIPAPAX0@Z 5f4554a1 f filemem.obj
 0001:000546af       ?Dump@CMemFile@@UBEXAAVCDumpContext@@@Z 5f4556af f filemem.obj
 0001:0005474c       ?AssertValid@CMemFile@@UBEXXZ 5f45574c f filemem.obj
 0001:000547f0       ??_GCMemFile@@UAEPAXI@Z    5f4557f0 f filemem.obj
 0001:00054830       ?OnHelp@CWnd@@QAEXXZ       5f455830 f winfrmx.obj
 0001:0005493a       ?OnHelp@CFrameWnd@@IAEXXZ  5f45593a f winfrmx.obj
 0001:0005499f       ?OnHelpIndex@CWnd@@QAEXXZ  5f45599f f winfrmx.obj
 0001:000549d5       ?OnHelpFinder@CWnd@@QAEXXZ 5f4559d5 f winfrmx.obj
 0001:00054a0b       ?OnHelpUsing@CWnd@@QAEXXZ  5f455a0b f winfrmx.obj
 0001:00054a41       ?CanEnterHelpMode@CFrameWnd@@QAEHXZ 5f455a41 f winfrmx.obj
 0001:00054af4       ?OnContextHelp@CFrameWnd@@QAEXXZ 5f455af4 f winfrmx.obj
 0001:00054ded       ?SetHelpCapture@CFrameWnd@@IAEPAUHWND__@@UtagPOINT@@PAH@Z 5f455ded f winfrmx.obj
 0001:00054f8c       ?ProcessHelpMsg@CFrameWnd@@IAEHAAUtagMSG@@PAK@Z 5f455f8c f winfrmx.obj
 0001:00055510       ?_GetBaseMessageMap@CControlBar@@KGPBUAFX_MSGMAP@@XZ 5f456510 f barcore.obj
 0001:00055525       ?GetMessageMap@CControlBar@@MBEPBUAFX_MSGMAP@@XZ 5f456525 f barcore.obj
 0001:00055540       ??1CControlBar@@UAE@XZ     5f456540 f barcore.obj
 0001:0005568d       ?PostNcDestroy@CControlBar@@UAEXXZ 5f45668d f barcore.obj
 0001:000556d8       ?CalcFixedLayout@CControlBar@@UAE?AVCSize@@HH@Z 5f4566d8 f barcore.obj
 0001:00055757       ?CalcDynamicLayout@CControlBar@@UAE?AVCSize@@HK@Z 5f456757 f barcore.obj
 0001:00055792       ?IsDockBar@CControlBar@@UBEHXZ 5f456792 f barcore.obj
 0001:000557aa       ?ResetTimer@CControlBar@@QAEXII@Z 5f4567aa f barcore.obj
 0001:0005580e       ?OnTimer@CControlBar@@QAEXI@Z 5f45680e f barcore.obj
 0001:00055a09       ?SetStatusText@CControlBar@@UAEHH@Z 5f456a09 f barcore.obj
 0001:00055af2       ?PreTranslateMessage@CControlBar@@UAEHPAUtagMSG@@@Z 5f456af2 f barcore.obj
 0001:00055df7       ?WindowProc@CControlBar@@UAEJIIJ@Z 5f456df7 f barcore.obj
 0001:00055fbd       ?OnHelpHitTest@CControlBar@@QAEJIJ@Z 5f456fbd f barcore.obj
 0001:0005604d       ?OnWindowPosChanging@CControlBar@@QAEXPAUtagWINDOWPOS@@@Z 5f45704d f barcore.obj
 0001:0005618f       ?OnCreate@CControlBar@@QAEHPAUtagCREATESTRUCTW@@@Z 5f45718f f barcore.obj
 0001:00056218       ?OnDestroy@CControlBar@@QAEXXZ 5f457218 f barcore.obj
 0001:000562ae       ?DestroyWindow@CControlBar@@UAEHXZ 5f4572ae f barcore.obj
 0001:0005630f       ?OnMouseActivate@CControlBar@@QAEHPAVCWnd@@II@Z 5f45730f f barcore.obj
 0001:0005635d       ?OnPaint@CControlBar@@QAEXXZ 5f45735d f barcore.obj
 0001:000563eb       ?EraseNonClient@CControlBar@@QAEXXZ 5f4573eb f barcore.obj
 0001:000564fe       ?OnCtlColor@CControlBar@@QAEPAUHBRUSH__@@PAVCDC@@PAVCWnd@@I@Z 5f4574fe f barcore.obj
 0001:00056571       ?OnLButtonDown@CControlBar@@QAEXIVCPoint@@@Z 5f457571 f barcore.obj
 0001:00056616       ?OnLButtonDblClk@CControlBar@@QAEXIVCPoint@@@Z 5f457616 f barcore.obj
 0001:000566a8       ?OnIdleUpdateCmdUI@CControlBar@@QAEJIJ@Z 5f4576a8 f barcore.obj
 0001:000567d0       ?OnInitialUpdate@CControlBar@@QAEXXZ 5f4577d0 f barcore.obj
 0001:000567f2       ?RecalcDelayShow@CControlBar@@UAEKPAUAFX_SIZEPARENTPARAMS@@@Z 5f4577f2 f barcore.obj
 0001:00056938       ?OnSizeParent@CControlBar@@QAEJIJ@Z 5f457938 f barcore.obj
 0001:00056b58       ?DelayShow@CControlBar@@UAEXH@Z 5f457b58 f barcore.obj
 0001:00056bc4       ?IsVisible@CControlBar@@UBEHXZ 5f457bc4 f barcore.obj
 0001:00056c1a       ?DoPaint@CControlBar@@UAEXPAVCDC@@@Z 5f457c1a f barcore.obj
 0001:00056c81       ?DrawBorders@CControlBar@@QAEXPAVCDC@@AAVCRect@@@Z 5f457c81 f barcore.obj
 0001:00056f50       ?CalcInsideRect@CControlBar@@QBEXAAVCRect@@H@Z 5f457f50 f barcore.obj
 0001:0005705e       ?AssertValid@CControlBar@@UBEXXZ 5f45805e f barcore.obj
 0001:000570ae       ?Dump@CControlBar@@UBEXAAVCDumpContext@@@Z 5f4580ae f barcore.obj
 0001:000571a0       ??_GCDockContext@@QAEPAXI@Z 5f4581a0 f barcore.obj
 0001:000571e0       ?AfxLoadSysColorBitmap@@YGPAUHBITMAP__@@PAUHINSTANCE__@@PAUHRSRC__@@H@Z 5f4581e0 f bartool.obj
 0001:00057452       ?_GetButton@CToolBar@@IBEXHPAU_TBBUTTON@@@Z 5f458452 f bartool.obj
 0001:000574bc       ?_SetButton@CToolBar@@IAEXHPAU_TBBUTTON@@@Z 5f4584bc f bartool.obj
 0001:00057679       ?CommandToIndex@CToolBar@@QBEHI@Z 5f458679 f bartool.obj
 0001:000576f0       ?GetItemID@CToolBar@@QBEIH@Z 5f4586f0 f bartool.obj
 0001:0005775b       ?GetItemRect@CToolBar@@UBEXHPAUtagRECT@@@Z 5f45875b f bartool.obj
 0001:00057886       ?GetButtonStyle@CToolBar@@QBEIH@Z 5f458886 f bartool.obj
 0001:000578fd       ?SetButtonStyle@CToolBar@@QAEXHI@Z 5f4588fd f bartool.obj
 0001:00057991       ?CalcSize@CToolBar@@IAE?AVCSize@@PAU_TBBUTTON@@H@Z 5f458991 f bartool.obj
 0001:00057bb2       ?WrapToolBar@CToolBar@@IAEHPAU_TBBUTTON@@HH@Z 5f458bb2 f bartool.obj
 0001:00057e84       ?SizeToolBar@CToolBar@@IAEXPAU_TBBUTTON@@HHH@Z 5f458e84 f bartool.obj
 0001:000580ff       ?CalcLayout@CToolBar@@IAE?AVCSize@@KH@Z 5f4590ff f bartool.obj
 0001:00058859       ?CalcFixedLayout@CToolBar@@UAE?AVCSize@@HH@Z 5f459859 f bartool.obj
 0001:000588b6       ?CalcDynamicLayout@CToolBar@@UAE?AVCSize@@HK@Z 5f4598b6 f bartool.obj
 0001:00058935       ?GetButtonInfo@CToolBar@@QBEXHAAI0AAH@Z 5f459935 f bartool.obj
 0001:000589c1       ?SetButtonInfo@CToolBar@@QAEXHIIH@Z 5f4599c1 f bartool.obj
 0001:00058a34       ?OnToolHitTest@CToolBar@@UBEHVCPoint@@PAUtagTOOLINFOW@@@Z 5f459a34 f bartool.obj
 0001:00058bec       ?SetButtonText@CToolBar@@QAEHHPBG@Z 5f459bec f bartool.obj
 0001:00058da0       ?GetButtonText@CToolBar@@QBE?AVCString@@H@Z 5f459da0 f bartool.obj
 0001:00058e3f       ?GetButtonText@CToolBar@@QBEXHAAVCString@@@Z 5f459e3f f bartool.obj
 0001:00058f2e       ?_GetBaseMessageMap@CToolBar@@KGPBUAFX_MSGMAP@@XZ 5f459f2e f bartool.obj
 0001:00058f43       ?GetMessageMap@CToolBar@@MBEPBUAFX_MSGMAP@@XZ 5f459f43 f bartool.obj
 0001:00058f5e       ?OnEraseBkgnd@CToolBar@@IAEHPAVCDC@@@Z 5f459f5e f bartool.obj
 0001:00058f7e       ?OnNcHitTest@CToolBar@@IAEIVCPoint@@@Z 5f459f7e f bartool.obj
 0001:00058f9b       ?OnNcCalcSize@CToolBar@@IAEXHPAUtagNCCALCSIZE_PARAMS@@@Z 5f459f9b f bartool.obj
 0001:0005903b       ?OnBarStyleChange@CToolBar@@UAEXKK@Z 5f45a03b f bartool.obj
 0001:00059126       ?OnNcPaint@CToolBar@@IAEXXZ 5f45a126 f bartool.obj
 0001:00059144       ?OnWindowPosChanging@CToolBar@@IAEXPAUtagWINDOWPOS@@@Z 5f45a144 f bartool.obj
 0001:000591aa       ?OnPaint@CToolBar@@IAEXXZ  5f45a1aa f bartool.obj
 0001:00059275       ?OnSetButtonSize@CToolBar@@IAEJIJ@Z 5f45a275 f bartool.obj
 0001:000592c4       ?OnSetBitmapSize@CToolBar@@IAEJIJ@Z 5f45a2c4 f bartool.obj
 0001:00059313       ?OnSysColorChange@CToolBar@@IAEXXZ 5f45a313 f bartool.obj
 0001:0005937a       ?Enable@CToolCmdUI@@UAEXH@Z 5f45a37a f bartool.obj
 0001:00059482       ?SetCheck@CToolCmdUI@@UAEXH@Z 5f45a482 f bartool.obj
 0001:000595be       ?SetText@CToolCmdUI@@UAEXPBG@Z 5f45a5be f bartool.obj
 0001:000595d6       ?OnUpdateCmdUI@CToolBar@@UAEXPAVCFrameWnd@@H@Z 5f45a5d6 f bartool.obj
 0001:0005969a       ?AssertValid@CToolBar@@UBEXXZ 5f45a69a f bartool.obj
 0001:00059743       ?Dump@CToolBar@@UBEXAAVCDumpContext@@@Z 5f45a743 f bartool.obj
 0001:00059920       ??0_AFX_CONTROLPOS@@QAE@XZ 5f45a920 f bartool.obj
 0001:00059950       ??_H@YGXPAXIHP6EX0@Z@Z     5f45a950 f bartool.obj
 0001:00059980       ??0CToolCmdUI@@QAE@XZ      5f45a980 f bartool.obj
 0001:000599b0       ??0CDialogBar@@QAE@XZ      5f45a9b0 f bardlg.obj
 0001:00059a44       ??1CDialogBar@@UAE@XZ      5f45aa44 f bardlg.obj
 0001:00059ab4       ?Create@CDialogBar@@QAEHPAVCWnd@@PBGII@Z 5f45aab4 f bardlg.obj
 0001:00059cad       ?CalcFixedLayout@CDialogBar@@UAE?AVCSize@@HH@Z 5f45acad f bardlg.obj
 0001:00059d43       ?OnUpdateCmdUI@CDialogBar@@UAEXPAVCFrameWnd@@H@Z 5f45ad43 f bardlg.obj
 0001:00059d6b       ?_GetBaseMessageMap@CDialogBar@@KGPBUAFX_MSGMAP@@XZ 5f45ad6b f bardlg.obj
 0001:00059d80       ?GetMessageMap@CDialogBar@@MBEPBUAFX_MSGMAP@@XZ 5f45ad80 f bardlg.obj
 0001:00059d9b       ?HandleInitDialog@CDialogBar@@IAEJIJ@Z 5f45ad9b f bardlg.obj
 0001:00059e2c       ?SetOccDialogInfo@CDialogBar@@MAEHPAU_AFX_OCC_DIALOG_INFO@@@Z 5f45ae2c f bardlg.obj
 0001:00059e60       ??_GCDialogBar@@UAEPAXI@Z  5f45ae60 f bardlg.obj
 0001:00059ea0       ?_GetPanePtr@CStatusBar@@IBEPAUAFX_STATUSPANE@@H@Z 5f45aea0 f barstat.obj
 0001:00059f10       ?CommandToIndex@CStatusBar@@QBEHI@Z 5f45af10 f barstat.obj
 0001:00059fa1       ?GetItemID@CStatusBar@@QBEIH@Z 5f45afa1 f barstat.obj
 0001:00059fda       ?GetItemRect@CStatusBar@@QBEXHPAUtagRECT@@@Z 5f45afda f barstat.obj
 0001:0005a065       ?GetPaneStyle@CStatusBar@@QBEIH@Z 5f45b065 f barstat.obj
 0001:0005a08c       ?SetPaneStyle@CStatusBar@@QAEXHI@Z 5f45b08c f barstat.obj
 0001:0005a11a       ?GetPaneInfo@CStatusBar@@QBEXHAAI0AAH@Z 5f45b11a f barstat.obj
 0001:0005a174       ?SetPaneInfo@CStatusBar@@QAEXHIIH@Z 5f45b174 f barstat.obj
 0001:0005a254       ?GetPaneText@CStatusBar@@QBEXHAAVCString@@@Z 5f45b254 f barstat.obj
 0001:0005a29d       ?GetPaneText@CStatusBar@@QBE?AVCString@@H@Z 5f45b29d f barstat.obj
 0001:0005a330       ?SetPaneText@CStatusBar@@QAEHHPBGH@Z 5f45b330 f barstat.obj
 0001:0005a511       ?CalcFixedLayout@CStatusBar@@UAE?AVCSize@@HH@Z 5f45b511 f barstat.obj
 0001:0005a6fa       ?_GetBaseMessageMap@CStatusBar@@KGPBUAFX_MSGMAP@@XZ 5f45b6fa f barstat.obj
 0001:0005a70f       ?GetMessageMap@CStatusBar@@MBEPBUAFX_MSGMAP@@XZ 5f45b70f f barstat.obj
 0001:0005a72a       ?OnNcHitTest@CStatusBar@@IAEIVCPoint@@@Z 5f45b72a f barstat.obj
 0001:0005a76b       ?OnNcCalcSize@CStatusBar@@IAEXHPAUtagNCCALCSIZE_PARAMS@@@Z 5f45b76b f barstat.obj
 0001:0005a7e9       ?OnBarStyleChange@CStatusBar@@UAEXKK@Z 5f45b7e9 f barstat.obj
 0001:0005a840       ?OnNcPaint@CStatusBar@@IAEXXZ 5f45b840 f barstat.obj
 0001:0005a85e       ?DrawItem@CStatusBar@@UAEXPAUtagDRAWITEMSTRUCT@@@Z 5f45b85e f barstat.obj
 0001:0005a88e       ?OnChildNotify@CStatusBar@@MAEHIIJPAJ@Z 5f45b88e f barstat.obj
 0001:0005a906       ?OnPaint@CStatusBar@@IAEXXZ 5f45b906 f barstat.obj
 0001:0005a930       ?OnSize@CStatusBar@@IAEXIHH@Z 5f45b930 f barstat.obj
 0001:0005a9a8       ?OnWindowPosChanging@CStatusBar@@IAEXPAUtagWINDOWPOS@@@Z 5f45b9a8 f barstat.obj
 0001:0005a9e8       ?OnSetText@CStatusBar@@IAEJIJ@Z 5f45b9e8 f barstat.obj
 0001:0005aa87       ?OnGetText@CStatusBar@@IAEJIJ@Z 5f45ba87 f barstat.obj
 0001:0005ab78       ?OnGetTextLength@CStatusBar@@IAEJIJ@Z 5f45bb78 f barstat.obj
 0001:0005ac0e       ?OnSetMinHeight@CStatusBar@@IAEJIJ@Z 5f45bc0e f barstat.obj
 0001:0005ac47       ?Enable@CStatusCmdUI@@UAEXH@Z 5f45bc47 f barstat.obj
 0001:0005ad26       ?SetCheck@CStatusCmdUI@@UAEXH@Z 5f45bd26 f barstat.obj
 0001:0005adfb       ?SetText@CStatusCmdUI@@UAEXPBG@Z 5f45bdfb f barstat.obj
 0001:0005aeaa       ?OnUpdateCmdUI@CStatusBar@@UAEXPAVCFrameWnd@@H@Z 5f45beaa f barstat.obj
 0001:0005af49       ?AssertValid@CStatusBar@@UBEXXZ 5f45bf49 f barstat.obj
 0001:0005af67       ?Dump@CStatusBar@@UBEXAAVCDumpContext@@@Z 5f45bf67 f barstat.obj
 0001:0005b090       ??0CStatusCmdUI@@QAE@XZ    5f45c090 f barstat.obj
 0001:0005b0c0       ?_GetBaseMessageMap@CDockBar@@KGPBUAFX_MSGMAP@@XZ 5f45c0c0 f bardock.obj
 0001:0005b0d5       ?GetMessageMap@CDockBar@@MBEPBUAFX_MSGMAP@@XZ 5f45c0d5 f bardock.obj
 0001:0005b0f0       ??0CDockBar@@QAE@H@Z       5f45c0f0 f bardock.obj
 0001:0005b1fc       ??1CDockBar@@UAE@XZ        5f45c1fc f bardock.obj
 0001:0005b2dd       ?Create@CDockBar@@QAEHPAVCWnd@@KI@Z 5f45c2dd f bardock.obj
 0001:0005b3c4       ?IsDockBar@CDockBar@@UBEHXZ 5f45c3c4 f bardock.obj
 0001:0005b3df       ?GetDockedCount@CDockBar@@QBEHXZ 5f45c3df f bardock.obj
 0001:0005b441       ?GetDockedVisibleCount@CDockBar@@UBEHXZ 5f45c441 f bardock.obj
 0001:0005b4cc       ?DockControlBar@CDockBar@@QAEXPAVCControlBar@@PBUtagRECT@@@Z 5f45c4cc f bardock.obj
 0001:0005b8ed       ?ReDockControlBar@CDockBar@@QAEXPAVCControlBar@@PBUtagRECT@@@Z 5f45c8ed f bardock.obj
 0001:0005bc99       ?RemovePlaceHolder@CDockBar@@QAEXPAVCControlBar@@@Z 5f45cc99 f bardock.obj
 0001:0005bd38       ?RemoveControlBar@CDockBar@@QAEHPAVCControlBar@@HH@Z 5f45cd38 f bardock.obj
 0001:0005bf72       ?CalcFixedLayout@CDockBar@@UAE?AVCSize@@HH@Z 5f45cf72 f bardock.obj
 0001:0005c742       ?OnSizeParent@CDockBar@@IAEJIJ@Z 5f45d742 f bardock.obj
 0001:0005c811       ?OnNcCalcSize@CDockBar@@IAEXHPAUtagNCCALCSIZE_PARAMS@@@Z 5f45d811 f bardock.obj
 0001:0005c874       ?OnNcPaint@CDockBar@@IAEXXZ 5f45d874 f bardock.obj
 0001:0005c892       ?DoPaint@CDockBar@@UAEXPAVCDC@@@Z 5f45d892 f bardock.obj
 0001:0005c8aa       ?OnPaint@CDockBar@@IAEXXZ  5f45d8aa f bardock.obj
 0001:0005c94e       ?OnWindowPosChanging@CDockBar@@IAEXPAUtagWINDOWPOS@@@Z 5f45d94e f bardock.obj
 0001:0005c98e       ?FindBar@CDockBar@@QAEHPAVCControlBar@@H@Z 5f45d98e f bardock.obj
 0001:0005ca07       ?ShowAll@CDockBar@@QAEXH@Z 5f45da07 f bardock.obj
 0001:0005ca80       ?GetDockedControlBar@CDockBar@@IBEPAVCControlBar@@H@Z 5f45da80 f bardock.obj
 0001:0005cacd       ?Insert@CDockBar@@IAEHPAVCControlBar@@VCRect@@VCPoint@@@Z 5f45dacd f bardock.obj
 0001:0005cd60       ?OnUpdateCmdUI@CDockBar@@MAEXPAVCFrameWnd@@H@Z 5f45dd60 f bardock.obj
 0001:0005cd78       ?AssertValid@CDockBar@@UBEXXZ 5f45dd78 f bardock.obj
 0001:0005ce31       ?Dump@CDockBar@@UBEXAAVCDumpContext@@@Z 5f45de31 f bardock.obj
 0001:0005ce9a       ?EnableDocking@CControlBar@@QAEXK@Z 5f45de9a f bardock.obj
 0001:0005cf81       ?_GetBaseMessageMap@CMiniDockFrameWnd@@KGPBUAFX_MSGMAP@@XZ 5f45df81 f bardock.obj
 0001:0005cf96       ?GetMessageMap@CMiniDockFrameWnd@@MBEPBUAFX_MSGMAP@@XZ 5f45df96 f bardock.obj
 0001:0005cfb1       ?OnMouseActivate@CMiniDockFrameWnd@@QAEHPAVCWnd@@II@Z 5f45dfb1 f bardock.obj
 0001:0005cffb       ??0CMiniDockFrameWnd@@QAE@XZ 5f45dffb f bardock.obj
 0001:0005d09a       ?Create@CMiniDockFrameWnd@@UAEHPAVCWnd@@K@Z 5f45e09a f bardock.obj
 0001:0005d260       ?RecalcLayout@CMiniDockFrameWnd@@UAEXH@Z 5f45e260 f bardock.obj
 0001:0005d2d3       ?OnClose@CMiniDockFrameWnd@@QAEXXZ 5f45e2d3 f bardock.obj
 0001:0005d2f9       ?OnNcLButtonDown@CMiniDockFrameWnd@@QAEXIVCPoint@@@Z 5f45e2f9 f bardock.obj
 0001:0005d55b       ?OnNcLButtonDblClk@CMiniDockFrameWnd@@QAEXIVCPoint@@@Z 5f45e55b f bardock.obj
 0001:0005d690       ??_ECDockBar@@UAEPAXI@Z    5f45e690 f bardock.obj
 0001:0005d690       ??_GCDockBar@@UAEPAXI@Z    5f45e690 f bardock.obj
 0001:0005d6d0       ??_ECMiniDockFrameWnd@@UAEPAXI@Z 5f45e6d0 f bardock.obj
 0001:0005d6d0       ??_GCMiniDockFrameWnd@@UAEPAXI@Z 5f45e6d0 f bardock.obj
 0001:0005d710       ??1CMiniDockFrameWnd@@UAE@XZ 5f45e710 f bardock.obj
 0001:0005d790       ??0CDockContext@@QAE@PAVCControlBar@@@Z 5f45e790 f dockcont.obj
 0001:0005d945       ??1CDockContext@@QAE@XZ    5f45e945 f dockcont.obj
 0001:0005d9af       ?StartDrag@CDockContext@@UAEXVCPoint@@@Z 5f45e9af f dockcont.obj
 0001:0005e18a       ?Move@CDockContext@@QAEXVCPoint@@@Z 5f45f18a f dockcont.obj
 0001:0005e25e       ?OnKey@CDockContext@@QAEXHH@Z 5f45f25e f dockcont.obj
 0001:0005e2b2       ?EndDrag@CDockContext@@QAEXXZ 5f45f2b2 f dockcont.obj
 0001:0005e4f8       ?StartResize@CDockContext@@UAEXHVCPoint@@@Z 5f45f4f8 f dockcont.obj
 0001:0005e727       ?Stretch@CDockContext@@QAEXVCPoint@@@Z 5f45f727 f dockcont.obj
 0001:0005e928       ?EndResize@CDockContext@@QAEXXZ 5f45f928 f dockcont.obj
 0001:0005e99f       ?ToggleDocking@CDockContext@@UAEXXZ 5f45f99f f dockcont.obj
 0001:0005eb31       ?InitLoop@CDockContext@@QAEXXZ 5f45fb31 f dockcont.obj
 0001:0005ecb5       ?CancelLoop@CDockContext@@QAEXXZ 5f45fcb5 f dockcont.obj
 0001:0005ed1a       ?DrawFocusRect@CDockContext@@QAEXH@Z 5f45fd1a f dockcont.obj
 0001:0005ef77       ?UpdateState@CDockContext@@QAEXPAHH@Z 5f45ff77 f dockcont.obj
 0001:0005f01c       ?CanDock@CDockContext@@QAEKXZ 5f46001c f dockcont.obj
 0001:0005f25f       ?GetDockBar@CDockContext@@QAEPAVCDockBar@@K@Z 5f46025f f dockcont.obj
 0001:0005f38c       ?Track@CDockContext@@QAEHXZ 5f46038c f dockcont.obj
 0001:0005f5a0       ??0CControlBarInfo@@QAE@XZ 5f4605a0 f dockstat.obj
 0001:0005f6db       ?Serialize@CControlBarInfo@@QAEXAAVCArchive@@PAVCDockState@@@Z 5f4606db f dockstat.obj
 0001:0005f9b4       ?LoadState@CControlBarInfo@@QAEHPBGHPAVCDockState@@@Z 5f4609b4 f dockstat.obj
 0001:0005fd44       ?SaveState@CControlBarInfo@@QAEHPBGH@Z 5f460d44 f dockstat.obj
 0001:00060143       ??0CDockState@@QAE@XZ      5f461143 f dockstat.obj
 0001:0006027c       ??1CDockState@@UAE@XZ      5f46127c f dockstat.obj
 0001:00060358       ?Serialize@CDockState@@UAEXAAVCArchive@@@Z 5f461358 f dockstat.obj
 0001:0006054e       ?LoadState@CDockState@@QAEXPBG@Z 5f46154e f dockstat.obj
 0001:00060691       ?SaveState@CDockState@@QAEXPBG@Z 5f461691 f dockstat.obj
 0001:000607ce       ?Clear@CDockState@@QAEXXZ  5f4617ce f dockstat.obj
 0001:0006084a       ?GetVersion@CDockState@@QAEKXZ 5f46184a f dockstat.obj
 0001:00060866       ?ScalePoint@CDockState@@QAEXAAVCPoint@@@Z 5f461866 f dockstat.obj
 0001:0006090e       ?ScaleRectPos@CDockState@@QAEXAAVCRect@@@Z 5f46190e f dockstat.obj
 0001:00060a19       ?GetScreenSize@CDockState@@QAE?AVCSize@@XZ 5f461a19 f dockstat.obj
 0001:00060a43       ?SetScreenSize@CDockState@@QAEXAAVCSize@@@Z 5f461a43 f dockstat.obj
 0001:00060a92       ?LoadBarState@CFrameWnd@@QAEXPBG@Z 5f461a92 f dockstat.obj
 0001:00060b0e       ?SaveBarState@CFrameWnd@@QBEXPBG@Z 5f461b0e f dockstat.obj
 0001:00060b8a       ?SetDockState@CFrameWnd@@QAEXABVCDockState@@@Z 5f461b8a f dockstat.obj
 0001:00060eda       ?GetDockState@CFrameWnd@@QBEXAAVCDockState@@@Z 5f461eda f dockstat.obj
 0001:00060f9e       ?GetBarInfo@CControlBar@@QAEXPAVCControlBarInfo@@@Z 5f461f9e f dockstat.obj
 0001:00061106       ?SetBarInfo@CControlBar@@QAEXPAVCControlBarInfo@@PAVCFrameWnd@@@Z 5f462106 f dockstat.obj
 0001:0006124c       ?GetBarInfo@CDockBar@@QAEXPAVCControlBarInfo@@@Z 5f46224c f dockstat.obj
 0001:000613b1       ?SetBarInfo@CDockBar@@QAEXPAVCControlBarInfo@@PAVCFrameWnd@@@Z 5f4623b1 f dockstat.obj
 0001:00061760       ??_GCDockState@@UAEPAXI@Z  5f462760 f dockstat.obj
 0001:000617a0       ??_GCControlBarInfo@@QAEPAXI@Z 5f4627a0 f dockstat.obj
 0001:000617e0       ??1CControlBarInfo@@QAE@XZ 5f4627e0 f dockstat.obj
 0001:00061850       ?PrepareEditCtrl@CDataExchange@@QAEPAUHWND__@@H@Z 5f462850 f dlgdata.obj
 0001:000618a3       ?PrepareCtrl@CDataExchange@@QAEPAUHWND__@@H@Z 5f4628a3 f dlgdata.obj
 0001:00061976       ?Fail@CDataExchange@@QAEXXZ 5f462976 f dlgdata.obj
 0001:00061a08       ?DDX_Text@@YGXPAVCDataExchange@@HAAE@Z 5f462a08 f dlgdata.obj
 0001:00061dd1       ?DDX_Text@@YGXPAVCDataExchange@@HAAF@Z 5f462dd1 f dlgdata.obj
 0001:00061e33       ?DDX_Text@@YGXPAVCDataExchange@@HAAH@Z 5f462e33 f dlgdata.obj
 0001:00061e94       ?DDX_Text@@YGXPAVCDataExchange@@HAAI@Z 5f462e94 f dlgdata.obj
 0001:00061ef5       ?DDX_Text@@YGXPAVCDataExchange@@HAAJ@Z 5f462ef5 f dlgdata.obj
 0001:00061f56       ?DDX_Text@@YGXPAVCDataExchange@@HAAK@Z 5f462f56 f dlgdata.obj
 0001:00061fb7       ?DDX_Text@@YGXPAVCDataExchange@@HAAVCString@@@Z 5f462fb7 f dlgdata.obj
 0001:00062031       ?DDX_Check@@YGXPAVCDataExchange@@HAAH@Z 5f463031 f dlgdata.obj
 0001:000620f9       ?DDX_Radio@@YGXPAVCDataExchange@@HAAH@Z 5f4630f9 f dlgdata.obj
 0001:00062279       ?DDX_LBString@@YGXPAVCDataExchange@@HAAVCString@@@Z 5f463279 f dlgdata.obj
 0001:00062352       ?DDX_LBStringExact@@YGXPAVCDataExchange@@HAAVCString@@@Z 5f463352 f dlgdata.obj
 0001:000623eb       ?DDX_CBString@@YGXPAVCDataExchange@@HAAVCString@@@Z 5f4633eb f dlgdata.obj
 0001:000624b4       ?DDX_CBStringExact@@YGXPAVCDataExchange@@HAAVCString@@@Z 5f4634b4 f dlgdata.obj
 0001:0006254d       ?DDX_LBIndex@@YGXPAVCDataExchange@@HAAH@Z 5f46354d f dlgdata.obj
 0001:000625b1       ?DDX_CBIndex@@YGXPAVCDataExchange@@HAAH@Z 5f4635b1 f dlgdata.obj
 0001:00062615       ?DDX_Scroll@@YGXPAVCDataExchange@@HAAH@Z 5f463615 f dlgdata.obj
 0001:0006266f       ?DDV_MinMaxByte@@YGXPAVCDataExchange@@EEE@Z 5f46366f f dlgdata.obj
 0001:0006280f       ?DDV_MinMaxShort@@YGXPAVCDataExchange@@FFF@Z 5f46380f f dlgdata.obj
 0001:00062886       ?DDV_MinMaxInt@@YGXPAVCDataExchange@@HHH@Z 5f463886 f dlgdata.obj
 0001:000628ef       ?DDV_MinMaxLong@@YGXPAVCDataExchange@@JJJ@Z 5f4638ef f dlgdata.obj
 0001:00062958       ?DDV_MinMaxUInt@@YGXPAVCDataExchange@@III@Z 5f463958 f dlgdata.obj
 0001:000629c1       ?DDV_MinMaxDWord@@YGXPAVCDataExchange@@KKK@Z 5f4639c1 f dlgdata.obj
 0001:00062a2a       ?DDV_MaxChars@@YGXPAVCDataExchange@@ABVCString@@H@Z 5f463a2a f dlgdata.obj
 0001:00062b4e       ?DDX_Control@@YGXPAVCDataExchange@@HAAVCWnd@@@Z 5f463b4e f dlgdata.obj
 0001:00062c04       ?AfxFailMaxChars@@YGXPAVCDataExchange@@H@Z 5f463c04 f dlgdata.obj
 0001:00062cb2       ?AfxFailRadio@@YGXPAVCDataExchange@@@Z 5f463cb2 f dlgdata.obj
 0001:00062d50       ?AfxTextFloatFormat@@YGXPAVCDataExchange@@HPAXNH@Z 5f463d50 f dlgfloat.obj
 0001:00062f23       ?DDX_Text@@YGXPAVCDataExchange@@HAAM@Z 5f463f23 f dlgfloat.obj
 0001:00062f53       ?DDX_Text@@YGXPAVCDataExchange@@HAAN@Z 5f463f53 f dlgfloat.obj
 0001:00062f82       ?DDV_MinMaxFloat@@YGXPAVCDataExchange@@ABMMM@Z 5f463f82 f dlgfloat.obj
 0001:00063113       ?DDV_MinMaxDouble@@YGXPAVCDataExchange@@ABNNN@Z 5f464113 f dlgfloat.obj
 0001:000631a0       ?_GetBaseMessageMap@CNewTypeDlg@@KGPBUAFX_MSGMAP@@XZ 5f4641a0 f docmgr.obj
 0001:000631b5       ?GetMessageMap@CNewTypeDlg@@MBEPBUAFX_MSGMAP@@XZ 5f4641b5 f docmgr.obj
 0001:000631d0       ?OnInitDialog@CNewTypeDlg@@MAEHXZ 5f4641d0 f docmgr.obj
 0001:000633fb       ?OnOK@CNewTypeDlg@@MAEXXZ  5f4643fb f docmgr.obj
 0001:000634c4       ?AddDocTemplate@CDocManager@@UAEXPAVCDocTemplate@@@Z 5f4644c4 f docmgr.obj
 0001:000635d4       ?GetFirstDocTemplatePosition@CDocManager@@UBEPAU__POSITION@@XZ 5f4645d4 f docmgr.obj
 0001:000635f5       ?GetNextDocTemplate@CDocManager@@UBEPAVCDocTemplate@@AAPAU__POSITION@@@Z 5f4645f5 f docmgr.obj
 0001:0006361c       ?SaveAllModified@CDocManager@@UAEHXZ 5f46461c f docmgr.obj
 0001:000636b2       ?CloseAllDocuments@CDocManager@@UAEXH@Z 5f4646b2 f docmgr.obj
 0001:0006373a       ?DoPromptFileName@CDocManager@@UAEHAAVCString@@IKHPAVCDocTemplate@@@Z 5f46473a f docmgr.obj
 0001:00063c0e       ?OnDDECommand@CDocManager@@UAEHPAG@Z 5f464c0e f docmgr.obj
 0001:0006458d       ?OnFileNew@CDocManager@@UAEXXZ 5f46558d f docmgr.obj
 0001:000646e4       ?OnFileOpen@CDocManager@@UAEXXZ 5f4656e4 f docmgr.obj
 0001:000647a1       ?AssertValid@CDocManager@@UBEXXZ 5f4657a1 f docmgr.obj
 0001:00064801       ?Dump@CDocManager@@UBEXAAVCDumpContext@@@Z 5f465801 f docmgr.obj
 0001:000648b0       ??_ECNewTypeDlg@@UAEPAXI@Z 5f4658b0 f docmgr.obj
 0001:000648b0       ??_GCNewTypeDlg@@UAEPAXI@Z 5f4658b0 f docmgr.obj
 0001:000648f0       ?_GetBaseMessageMap@CSplitterWnd@@KGPBUAFX_MSGMAP@@XZ 5f4658f0 f winsplit.obj
 0001:00064905       ?GetMessageMap@CSplitterWnd@@MBEPBUAFX_MSGMAP@@XZ 5f465905 f winsplit.obj
 0001:00064920       ??0CSplitterWnd@@QAE@XZ    5f465920 f winsplit.obj
 0001:00064aec       ??1CSplitterWnd@@UAE@XZ    5f465aec f winsplit.obj
 0001:00064b8d       ?Create@CSplitterWnd@@QAEHPAVCWnd@@HHUtagSIZE@@PAUCCreateContext@@KI@Z 5f465b8d f winsplit.obj
 0001:00064e2d       ?CreateStatic@CSplitterWnd@@QAEHPAVCWnd@@HHKI@Z 5f465e2d f winsplit.obj
 0001:00064fc6       ?CreateCommon@CSplitterWnd@@IAEHPAVCWnd@@UtagSIZE@@KI@Z 5f465fc6 f winsplit.obj
 0001:00065324       ?OnNcCreate@CSplitterWnd@@IAEHPAUtagCREATESTRUCTW@@@Z 5f466324 f winsplit.obj
 0001:0006538b       ?CreateView@CSplitterWnd@@UAEHHHPAUCRuntimeClass@@UtagSIZE@@PAUCCreateContext@@@Z 5f46638b f winsplit.obj
 0001:000657ab       ?CreateScrollBarCtrl@CSplitterWnd@@UAEHKI@Z 5f4667ab f winsplit.obj
 0001:00065842       ?IdFromRowCol@CSplitterWnd@@QBEHHH@Z 5f466842 f winsplit.obj
 0001:0006590f       ?GetPane@CSplitterWnd@@QBEPAVCWnd@@HH@Z 5f46690f f winsplit.obj
 0001:0006597b       ?IsChildPane@CSplitterWnd@@QAEHPAVCWnd@@PAH1@Z 5f46697b f winsplit.obj
 0001:00065acb       ?GetRowInfo@CSplitterWnd@@QBEXHAAH0@Z 5f466acb f winsplit.obj
 0001:00065b56       ?SetRowInfo@CSplitterWnd@@QAEXHHH@Z 5f466b56 f winsplit.obj
 0001:00065c21       ?GetColumnInfo@CSplitterWnd@@QBEXHAAH0@Z 5f466c21 f winsplit.obj
 0001:00065ca6       ?SetColumnInfo@CSplitterWnd@@QAEXHHH@Z 5f466ca6 f winsplit.obj
 0001:00065d6b       ?GetScrollStyle@CSplitterWnd@@QBEKXZ 5f466d6b f winsplit.obj
 0001:00065db3       ?SetScrollStyle@CSplitterWnd@@QAEXK@Z 5f466db3 f winsplit.obj
 0001:00065ff7       ?DeleteView@CSplitterWnd@@UAEXHH@Z 5f466ff7 f winsplit.obj
 0001:00066098       ?OnDrawSplitter@CSplitterWnd@@MAEXPAVCDC@@W4ESplitType@1@ABVCRect@@@Z 5f467098 f winsplit.obj
 0001:000662a5       ?SplitRow@CSplitterWnd@@UAEHH@Z 5f4672a5 f winsplit.obj
 0001:00066648       ?SplitColumn@CSplitterWnd@@UAEHH@Z 5f467648 f winsplit.obj
 0001:000668cf       ?DeleteRow@CSplitterWnd@@UAEXH@Z 5f4678cf f winsplit.obj
 0001:00066b16       ?DeleteColumn@CSplitterWnd@@UAEXH@Z 5f467b16 f winsplit.obj
 0001:00066d5d       ?GetInsideRect@CSplitterWnd@@MBEXAAVCRect@@@Z 5f467d5d f winsplit.obj
 0001:00066e24       ?StartTracking@CSplitterWnd@@MAEXH@Z 5f467e24 f winsplit.obj
 0001:000670eb       ?TrackRowSize@CSplitterWnd@@MAEXHH@Z 5f4680eb f winsplit.obj
 0001:00067245       ?TrackColumnSize@CSplitterWnd@@MAEXHH@Z 5f468245 f winsplit.obj
 0001:0006738d       ?StopTracking@CSplitterWnd@@MAEXH@Z 5f46838d f winsplit.obj
 0001:000676ab       ?GetHitRect@CSplitterWnd@@MAEXHAAVCRect@@@Z 5f4686ab f winsplit.obj
 0001:00067a0a       ?HitTest@CSplitterWnd@@MBEHVCPoint@@@Z 5f468a0a f winsplit.obj
 0001:00067cb6       ?OnInvertTracker@CSplitterWnd@@MAEXABVCRect@@@Z 5f468cb6 f winsplit.obj
 0001:00067dc2       ?DoKeyboardSplit@CSplitterWnd@@UAEHXZ 5f468dc2 f winsplit.obj
 0001:00067f82       ?OnDisplayChange@CSplitterWnd@@IAEXXZ 5f468f82 f winsplit.obj
 0001:00067fc6       ?OnSize@CSplitterWnd@@IAEXIHH@Z 5f468fc6 f winsplit.obj
 0001:0006801e       ?GetSizingParent@CSplitterWnd@@IAEPAVCWnd@@XZ 5f46901e f winsplit.obj
 0001:0006812e       ?RecalcLayout@CSplitterWnd@@UAEXXZ 5f46912e f winsplit.obj
 0001:00068baf       ?DrawAllSplitBars@CSplitterWnd@@MAEXPAVCDC@@HH@Z 5f469baf f winsplit.obj
 0001:00068e6b       ?OnPaint@CSplitterWnd@@IAEXXZ 5f469e6b f winsplit.obj
 0001:000691b6       ?OnSetCursor@CSplitterWnd@@IAEHPAVCWnd@@II@Z 5f46a1b6 f winsplit.obj
 0001:00069212       ?SetSplitCursor@CSplitterWnd@@MAEXH@Z 5f46a212 f winsplit.obj
 0001:0006943a       ?OnMouseMove@CSplitterWnd@@IAEXIVCPoint@@@Z 5f46a43a f winsplit.obj
 0001:00069763       ?OnLButtonDown@CSplitterWnd@@IAEXIVCPoint@@@Z 5f46a763 f winsplit.obj
 0001:000697b5       ?OnLButtonDblClk@CSplitterWnd@@IAEXIVCPoint@@@Z 5f46a7b5 f winsplit.obj
 0001:000699d6       ?OnLButtonUp@CSplitterWnd@@IAEXIVCPoint@@@Z 5f46a9d6 f winsplit.obj
 0001:000699fe       ?OnCancelMode@CSplitterWnd@@IAEXXZ 5f46a9fe f winsplit.obj
 0001:00069a24       ?OnKeyDown@CSplitterWnd@@IAEXIII@Z 5f46aa24 f winsplit.obj
 0001:00069c81       ?OnSysCommand@CSplitterWnd@@IAEXIJ@Z 5f46ac81 f winsplit.obj
 0001:00069ceb       ?OnCommand@CSplitterWnd@@MAEHIJ@Z 5f46aceb f winsplit.obj
 0001:00069d41       ?OnNotify@CSplitterWnd@@MAEHIJPAJ@Z 5f46ad41 f winsplit.obj
 0001:00069da2       ?OnHScroll@CSplitterWnd@@IAEXIIPAVCScrollBar@@@Z 5f46ada2 f winsplit.obj
 0001:00069f08       ?OnVScroll@CSplitterWnd@@IAEXIIPAVCScrollBar@@@Z 5f46af08 f winsplit.obj
 0001:0006a06e       ?DoScroll@CSplitterWnd@@UAEHPAVCView@@IH@Z 5f46b06e f winsplit.obj
 0001:0006a355       ?DoScrollBy@CSplitterWnd@@UAEHPAVCView@@VCSize@@H@Z 5f46b355 f winsplit.obj
 0001:0006a635       ?CanActivateNext@CSplitterWnd@@UAEHH@Z 5f46b635 f winsplit.obj
 0001:0006a703       ?ActivateNext@CSplitterWnd@@UAEXH@Z 5f46b703 f winsplit.obj
 0001:0006a844       ?SetActivePane@CSplitterWnd@@UAEXHHPAVCWnd@@@Z 5f46b844 f winsplit.obj
 0001:0006a8e4       ?GetActivePane@CSplitterWnd@@UAEPAVCWnd@@PAH0@Z 5f46b8e4 f winsplit.obj
 0001:0006a981       ?AssertValid@CSplitterWnd@@UBEXXZ 5f46b981 f winsplit.obj
 0001:0006aab9       ?Dump@CSplitterWnd@@UBEXAAVCDumpContext@@@Z 5f46bab9 f winsplit.obj
 0001:0006aca0       ??_GCSplitterWnd@@UAEPAXI@Z 5f46bca0 f winsplit.obj
 0001:0006ace0       ?HideApplication@CWinApp@@QAEXXZ 5f46bce0 f appui.obj
 0001:0006ad3d       ?DoWaitCursor@CWinApp@@UAEXH@Z 5f46bd3d f appui.obj
 0001:0006ae2b       ?EnableModeless@CWinApp@@QAEXH@Z 5f46be2b f appui.obj
 0001:0006aec2       ?DoMessageBox@CWinApp@@UAEHPBGII@Z 5f46bec2 f appui.obj
 0001:0006b072       ?AfxMessageBox@@YGHPBGII@Z 5f46c072 f appui.obj
 0001:0006b0a9       ?AfxMessageBox@@YGHIII@Z   5f46c0a9 f appui.obj
 0001:0006b18b       ?MessageBoxW@CWnd@@QAEHPBG0I@Z 5f46c18b f appui.obj
 0001:0006b1de       ?SaveAllModified@CWinApp@@UAEHXZ 5f46c1de f appui.obj
 0001:0006b225       ?AddToRecentFileList@CWinApp@@UAEXPBG@Z 5f46c225 f appui.obj
 0001:0006b2ea       ?OpenDocumentFile@CWinApp@@UAEPAVCDocument@@PBG@Z 5f46c2ea f appui.obj
 0001:0006b345       ?CloseAllDocuments@CWinApp@@QAEXH@Z 5f46c345 f appui.obj
 0001:0006b388       ?OnUpdateRecentFileMenu@CWinApp@@IAEXPAVCCmdUI@@@Z 5f46c388 f appui.obj
 0001:0006b3ef       ?OnDDECommand@CWinApp@@UAEHPAG@Z 5f46c3ef f appui.obj
 0001:0006b43e       ?OnOpenRecentFile@CWinApp@@IAEHI@Z 5f46c43e f appui.obj
 0001:0006b5b0       ?AddDocTemplate@CWinApp@@QAEXPAVCDocTemplate@@@Z 5f46c5b0 f appui2.obj
 0001:0006b66a       ?GetFirstDocTemplatePosition@CWinApp@@QBEPAU__POSITION@@XZ 5f46c66a f appui2.obj
 0001:0006b6ae       ?GetNextDocTemplate@CWinApp@@QBEPAVCDocTemplate@@AAPAU__POSITION@@@Z 5f46c6ae f appui2.obj
 0001:0006b710       ?WriteProfileInt@CWinApp@@QAEHPBG0H@Z 5f46c710 f appui3.obj
 0001:0006b83b       ?WriteProfileStringW@CWinApp@@QAEHPBG00@Z 5f46c83b f appui3.obj
 0001:0006ba01       ?WriteProfileBinary@CWinApp@@QAEHPBG0PAEI@Z 5f46ca01 f appui3.obj
 0001:0006bb90       ?OnFileNew@CWinApp@@IAEXXZ 5f46cb90 f appdlg.obj
 0001:0006bbcd       ?OnFileOpen@CWinApp@@IAEXXZ 5f46cbcd f appdlg.obj
 0001:0006bc1f       ?DoPromptFileName@CWinApp@@QAEHAAVCString@@IKHPAVCDocTemplate@@@Z 5f46cc1f f appdlg.obj
 0001:0006bc90       ?AfxFormatStrings@@YGXAAVCString@@IPBQBGH@Z 5f46cc90 f apphelp.obj
 0001:0006bd08       ?AfxFormatStrings@@YGXAAVCString@@PBGPBQBGH@Z 5f46cd08 f apphelp.obj
 0001:0006bef4       ?AfxFormatString1@@YGXAAVCString@@IPBG@Z 5f46cef4 f apphelp.obj
 0001:0006bf19       ?AfxFormatString2@@YGXAAVCString@@IPBG1@Z 5f46cf19 f apphelp.obj
 0001:0006bf50       ?OnHelp@CWinApp@@IAEXXZ    5f46cf50 f apphelpx.obj
 0001:0006bfeb       ?OnHelpIndex@CWinApp@@IAEXXZ 5f46cfeb f apphelpx.obj
 0001:0006c013       ?OnHelpFinder@CWinApp@@IAEXXZ 5f46d013 f apphelpx.obj
 0001:0006c03b       ?OnHelpUsing@CWinApp@@IAEXXZ 5f46d03b f apphelpx.obj
 0001:0006c063       ?OnContextHelp@CWinApp@@IAEXXZ 5f46d063 f apphelpx.obj
 0001:0006c0f0       ??0CSharedFile@@QAE@II@Z   5f46d0f0 f fileshrd.obj
 0001:0006c182       ??1CSharedFile@@UAE@XZ     5f46d182 f fileshrd.obj
 0001:0006c221       ?SetHandle@CSharedFile@@QAEXPAXH@Z 5f46d221 f fileshrd.obj
 0001:0006c2e3       ?Alloc@CSharedFile@@MAEPAEK@Z 5f46d2e3 f fileshrd.obj
 0001:0006c355       ?Realloc@CSharedFile@@MAEPAEPAEK@Z 5f46d355 f fileshrd.obj
 0001:0006c3f2       ?Free@CSharedFile@@MAEXPAE@Z 5f46d3f2 f fileshrd.obj
 0001:0006c446       ?Detach@CSharedFile@@QAEPAXXZ 5f46d446 f fileshrd.obj
 0001:0006c4b0       ??_GCSharedFile@@UAEPAXI@Z 5f46d4b0 f fileshrd.obj
 0001:0006c52d       ?_GetBaseMessageMap@CFrameWnd@@KGPBUAFX_MSGMAP@@XZ 5f46d52d f winfrm.obj
 0001:0006c542       ?GetMessageMap@CFrameWnd@@MBEPBUAFX_MSGMAP@@XZ 5f46d542 f winfrm.obj
 0001:0006c55d       ??0CFrameWnd@@QAE@XZ       5f46d55d f winfrm.obj
 0001:0006c736       ??1CFrameWnd@@UAE@XZ       5f46d736 f winfrm.obj
 0001:0006c809       ?AddFrameWnd@CFrameWnd@@IAEXXZ 5f46d809 f winfrm.obj
 0001:0006c842       ?RemoveFrameWnd@CFrameWnd@@IAEXXZ 5f46d842 f winfrm.obj
 0001:0006c87b       ?LoadAccelTable@CFrameWnd@@QAEHPBG@Z 5f46d87b f winfrm.obj
 0001:0006c915       ?GetDefaultAccelerator@CFrameWnd@@UAEPAUHACCEL__@@XZ 5f46d915 f winfrm.obj
 0001:0006c973       ?PreTranslateMessage@CFrameWnd@@UAEHPAUtagMSG@@@Z 5f46d973 f winfrm.obj
 0001:0006ca73       ?PostNcDestroy@CFrameWnd@@MAEXXZ 5f46da73 f winfrm.obj
 0001:0006cab1       ?OnPaletteChanged@CFrameWnd@@IAEXPAVCWnd@@@Z 5f46dab1 f winfrm.obj
 0001:0006caf7       ?OnQueryNewPalette@CFrameWnd@@IAEHXZ 5f46daf7 f winfrm.obj
 0001:0006cb45       ?ExitHelpMode@CFrameWnd@@UAEXXZ 5f46db45 f winfrm.obj
 0001:0006cc25       ?OnSetCursor@CFrameWnd@@IAEHPAVCWnd@@II@Z 5f46dc25 f winfrm.obj
 0001:0006cc92       ?OnCommandHelp@CFrameWnd@@IAEJIJ@Z 5f46dc92 f winfrm.obj
 0001:0006cd23       ?OnHelpHitTest@CFrameWnd@@IAEJIJ@Z 5f46dd23 f winfrm.obj
 0001:0006cd65       ?OnCommand@CFrameWnd@@MAEHIJ@Z 5f46dd65 f winfrm.obj
 0001:0006ce38       ?AfxIsDescendant@@YGHPAUHWND__@@0@Z 5f46de38 f winfrm.obj
 0001:0006cecc       ?BeginModalState@CFrameWnd@@UAEXXZ 5f46decc f winfrm.obj
 0001:0006d12c       ?EndModalState@CFrameWnd@@UAEXXZ 5f46e12c f winfrm.obj
 0001:0006d25c       ?ShowOwnedWindows@CFrameWnd@@QAEXH@Z 5f46e25c f winfrm.obj
 0001:0006d359       ?OnEnable@CFrameWnd@@IAEXH@Z 5f46e359 f winfrm.obj
 0001:0006d49c       ?NotifyFloatingWindows@CFrameWnd@@QAEXK@Z 5f46e49c f winfrm.obj
 0001:0006d621       ?PreCreateWindow@CFrameWnd@@MAEHAAUtagCREATESTRUCTW@@@Z 5f46e621 f winfrm.obj
 0001:0006d6c8       ?Create@CFrameWnd@@QAEHPBG0KABUtagRECT@@PAVCWnd@@0KPAUCCreateContext@@@Z 5f46e6c8 f winfrm.obj
 0001:0006d7dc       ?CreateView@CFrameWnd@@QAEPAVCWnd@@PAUCCreateContext@@I@Z 5f46e7dc f winfrm.obj
 0001:0006d970       ?OnCreateClient@CFrameWnd@@MAEHPAUtagCREATESTRUCTW@@PAUCCreateContext@@@Z 5f46e970 f winfrm.obj
 0001:0006d9c3       ?OnCreate@CFrameWnd@@IAEHPAUtagCREATESTRUCTW@@@Z 5f46e9c3 f winfrm.obj
 0001:0006d9f3       ?OnCreateHelper@CFrameWnd@@IAEHPAUtagCREATESTRUCTW@@PAUCCreateContext@@@Z 5f46e9f3 f winfrm.obj
 0001:0006da8a       ?GetIconWndClass@CFrameWnd@@IAEPBGKI@Z 5f46ea8a f winfrm.obj
 0001:0006db77       ?LoadFrame@CFrameWnd@@UAEHIKPAVCWnd@@PAUCCreateContext@@@Z 5f46eb77 f winfrm.obj
 0001:0006ddb1       ?OnUpdateFrameMenu@CFrameWnd@@UAEXPAUHMENU__@@@Z 5f46edb1 f winfrm.obj
 0001:0006de23       ?InitialUpdateFrame@CFrameWnd@@QAEXPAVCDocument@@H@Z 5f46ee23 f winfrm.obj
 0001:0006df61       ?OnClose@CFrameWnd@@IAEXXZ 5f46ef61 f winfrm.obj
 0001:0006e124       ?OnDestroy@CFrameWnd@@IAEXXZ 5f46f124 f winfrm.obj
 0001:0006e1d9       ?RemoveControlBar@CFrameWnd@@QAEXPAVCControlBar@@@Z 5f46f1d9 f winfrm.obj
 0001:0006e21e       ?OnCmdMsg@CFrameWnd@@UAEHIHPAXPAUAFX_CMDHANDLERINFO@@@Z 5f46f21e f winfrm.obj
 0001:0006e2e3       ?OnHScroll@CFrameWnd@@IAEXIIPAVCScrollBar@@@Z 5f46f2e3 f winfrm.obj
 0001:0006e333       ?OnVScroll@CFrameWnd@@IAEXIIPAVCScrollBar@@@Z 5f46f333 f winfrm.obj
 0001:0006e383       ?OnActivateTopLevel@CFrameWnd@@IAEJIJ@Z 5f46f383 f winfrm.obj
 0001:0006e473       ?OnActivate@CFrameWnd@@IAEXIPAVCWnd@@H@Z 5f46f473 f winfrm.obj
 0001:0006e600       ?OnNcActivate@CFrameWnd@@IAEHH@Z 5f46f600 f winfrm.obj
 0001:0006e65c       ?OnSysCommand@CFrameWnd@@IAEXIJ@Z 5f46f65c f winfrm.obj
 0001:0006e884       ?OnDropFiles@CFrameWnd@@IAEXPAUHDROP__@@@Z 5f46f884 f winfrm.obj
 0001:0006e921       ?OnQueryEndSession@CFrameWnd@@IAEHXZ 5f46f921 f winfrm.obj
 0001:0006e966       ?OnEndSession@CFrameWnd@@IAEXH@Z 5f46f966 f winfrm.obj
 0001:0006e9ce       ?OnDDEInitiate@CFrameWnd@@IAEJIJ@Z 5f46f9ce f winfrm.obj
 0001:0006eb93       ?OnDDEExecute@CFrameWnd@@IAEJIJ@Z 5f46fb93 f winfrm.obj
 0001:0006ecd7       ?OnDDETerminate@CFrameWnd@@IAEJIJ@Z 5f46fcd7 f winfrm.obj
 0001:0006ed0b       ?GetActiveView@CFrameWnd@@QBEPAVCView@@XZ 5f46fd0b f winfrm.obj
 0001:0006ed6d       ?SetActiveView@CFrameWnd@@QAEXPAVCView@@H@Z 5f46fd6d f winfrm.obj
 0001:0006ee81       ?OnSetFocus@CFrameWnd@@IAEXPAVCWnd@@@Z 5f46fe81 f winfrm.obj
 0001:0006eec8       ?GetActiveDocument@CFrameWnd@@UAEPAVCDocument@@XZ 5f46fec8 f winfrm.obj
 0001:0006ef15       ?ShowControlBar@CFrameWnd@@QAEXPAVCControlBar@@HH@Z 5f46ff15 f winfrm.obj
 0001:0006f145       ?OnInitMenuPopup@CFrameWnd@@IAEXPAVCMenu@@IH@Z 5f470145 f winfrm.obj
 0001:0006f42e       ?OnMenuSelect@CFrameWnd@@IAEXIIPAUHMENU__@@@Z 5f47042e f winfrm.obj
 0001:0006f61f       ?GetMessageString@CFrameWnd@@UBEXIAAVCString@@@Z 5f47061f f winfrm.obj
 0001:0006f6a4       ?OnPopMessageString@CFrameWnd@@IAEJIJ@Z 5f4706a4 f winfrm.obj
 0001:0006f6e5       ?OnSetMessageString@CFrameWnd@@IAEJIJ@Z 5f4706e5 f winfrm.obj
 0001:0006f859       ?GetMessageBar@CFrameWnd@@UAEPAVCWnd@@XZ 5f470859 f winfrm.obj
 0001:0006f87e       ?OnEnterIdle@CFrameWnd@@IAEXIPAVCWnd@@@Z 5f47087e f winfrm.obj
 0001:0006f90f       ?SetMessageText@CFrameWnd@@QAEXPBG@Z 5f47090f f winfrm.obj
 0001:0006f93a       ?SetMessageText@CFrameWnd@@QAEXI@Z 5f47093a f winfrm.obj
 0001:0006f965       ?DestroyDockBars@CFrameWnd@@QAEXXZ 5f470965 f winfrm.obj
 0001:0006faaf       ?GetControlBar@CFrameWnd@@QAEPAVCControlBar@@I@Z 5f470aaf f winfrm.obj
 0001:0006fb7b       ?OnUpdateControlBarMenu@CFrameWnd@@QAEXPAVCCmdUI@@@Z 5f470b7b f winfrm.obj
 0001:0006fbe4       ?OnBarCheck@CFrameWnd@@QAEHI@Z 5f470be4 f winfrm.obj
 0001:0006fc50       ?OnToolTipText@CFrameWnd@@IAEHIPAUtagNMHDR@@PAJ@Z 5f470c50 f winfrm.obj
 0001:0006fe32       ?OnUpdateKeyIndicator@CFrameWnd@@IAEXPAVCCmdUI@@@Z 5f470e32 f winfrm.obj
 0001:0006ff3c       ?OnUpdateContextHelp@CFrameWnd@@IAEXPAVCCmdUI@@@Z 5f470f3c f winfrm.obj
 0001:0006ff85       ?OnUpdateFrameTitle@CFrameWnd@@UAEXH@Z 5f470f85 f winfrm.obj
 0001:0007002a       ?UpdateFrameTitleForDocument@CFrameWnd@@IAEXPBG@Z 5f47102a f winfrm.obj
 0001:00070192       ?OnSetPreviewMode@CFrameWnd@@UAEXHPAUCPrintPreviewState@@@Z 5f471192 f winfrm.obj
 0001:00070576       ?DelayUpdateFrameMenu@CFrameWnd@@UAEXPAUHMENU__@@@Z 5f471576 f winfrm.obj
 0001:000705a4       ?OnIdleUpdateCmdUI@CFrameWnd@@IAEXXZ 5f4715a4 f winfrm.obj
 0001:0007069c       ?GetActiveFrame@CFrameWnd@@UAEPAV1@XZ 5f47169c f winfrm.obj
 0001:000706b5       ?RecalcLayout@CFrameWnd@@UAEXH@Z 5f4716b5 f winfrm.obj
 0001:00070808       ?NegotiateBorderSpace@CFrameWnd@@UAEHIPAUtagRECT@@@Z 5f471808 f winfrm.obj
 0001:00070946       ?OnSize@CFrameWnd@@IAEXIHH@Z 5f471946 f winfrm.obj
 0001:0007098c       ?OnEraseBkgnd@CFrameWnd@@IAEHPAVCDC@@@Z 5f47198c f winfrm.obj
 0001:000709ca       ?ActivateFrame@CFrameWnd@@UAEXH@Z 5f4719ca f winfrm.obj
 0001:00070a4d       ?BringToTop@CFrameWnd@@IAEXH@Z 5f471a4d f winfrm.obj
 0001:00070ab1       ?AssertValid@CFrameWnd@@UBEXXZ 5f471ab1 f winfrm.obj
 0001:00070af8       ?Dump@CFrameWnd@@UBEXAAVCDumpContext@@@Z 5f471af8 f winfrm.obj
 0001:00070bf9       ?GetDockingFrame@CControlBar@@QBEPAVCFrameWnd@@XZ 5f471bf9 f winfrm.obj
 0001:00070c7f       ?IsFloating@CControlBar@@QBEHXZ 5f471c7f f winfrm.obj
 0001:00070cf0       ??_GCFrameWnd@@UAEPAXI@Z   5f471cf0 f winfrm.obj
 0001:00070d30       ?CreateFloatingFrame@CFrameWnd@@QAEPAVCMiniDockFrameWnd@@K@Z 5f471d30 f winfrm2.obj
 0001:00070de4       ?EnableDocking@CFrameWnd@@QAEXK@Z 5f471de4 f winfrm2.obj
 0001:00070eea       ?DockControlBar@CFrameWnd@@QAEXPAVCControlBar@@IPBUtagRECT@@@Z 5f471eea f winfrm2.obj
 0001:00070f3b       ?DockControlBar@CFrameWnd@@QAEXPAVCControlBar@@PAVCDockBar@@PBUtagRECT@@@Z 5f471f3b f winfrm2.obj
 0001:0007109f       ?ReDockControlBar@CFrameWnd@@QAEXPAVCControlBar@@PAVCDockBar@@PBUtagRECT@@@Z 5f47209f f winfrm2.obj
 0001:0007126f       ?FloatControlBar@CFrameWnd@@QAEXPAVCControlBar@@VCPoint@@K@Z 5f47226f f winfrm2.obj
 0001:00071513       ?CanDock@CFrameWnd@@QAEKVCRect@@KPAPAVCDockBar@@@Z 5f472513 f winfrm2.obj
 0001:00071650       ?_GetBaseMessageMap@CMDIFrameWnd@@KGPBUAFX_MSGMAP@@XZ 5f472650 f winmdi.obj
 0001:00071665       ?GetMessageMap@CMDIFrameWnd@@MBEPBUAFX_MSGMAP@@XZ 5f472665 f winmdi.obj
 0001:00071680       ??0CMDIFrameWnd@@QAE@XZ    5f472680 f winmdi.obj
 0001:000716fc       ?OnCommand@CMDIFrameWnd@@MAEHIJ@Z 5f4726fc f winmdi.obj
 0001:000717c8       ?OnCmdMsg@CMDIFrameWnd@@UAEHIHPAXPAUAFX_CMDHANDLERINFO@@@Z 5f4727c8 f winmdi.obj
 0001:00071866       ?OnCommandHelp@CMDIFrameWnd@@IAEJIJ@Z 5f472866 f winmdi.obj
 0001:00071949       ?OnCreateClient@CMDIFrameWnd@@UAEHPAUtagCREATESTRUCTW@@PAUCCreateContext@@@Z 5f472949 f winmdi.obj
 0001:00071a19       ?CreateClient@CMDIFrameWnd@@UAEHPAUtagCREATESTRUCTW@@PAVCMenu@@@Z 5f472a19 f winmdi.obj
 0001:00071b5f       ?DefWindowProcW@CMDIFrameWnd@@MAEJIIJ@Z 5f472b5f f winmdi.obj
 0001:00071b9a       ?PreTranslateMessage@CMDIFrameWnd@@UAEHPAUtagMSG@@@Z 5f472b9a f winmdi.obj
 0001:00071d19       ?DelayUpdateFrameMenu@CMDIFrameWnd@@UAEXPAUHMENU__@@@Z 5f472d19 f winmdi.obj
 0001:00071d4d       ?OnIdleUpdateCmdUI@CMDIFrameWnd@@IAEXXZ 5f472d4d f winmdi.obj
 0001:00071d8d       ?GetActiveFrame@CMDIFrameWnd@@UAEPAVCFrameWnd@@XZ 5f472d8d f winmdi.obj
 0001:00071dc5       ?PreCreateWindow@CMDIFrameWnd@@UAEHAAUtagCREATESTRUCTW@@@Z 5f472dc5 f winmdi.obj
 0001:00071e31       ?LoadFrame@CMDIFrameWnd@@UAEHIKPAVCWnd@@PAUCCreateContext@@@Z 5f472e31 f winmdi.obj
 0001:00071ecc       ?OnDestroy@CMDIFrameWnd@@IAEXXZ 5f472ecc f winmdi.obj
 0001:00071f5f       ?OnSize@CMDIFrameWnd@@IAEXIHH@Z 5f472f5f f winmdi.obj
 0001:00071f91       ?OnMenuChar@CMDIFrameWnd@@IAEJIIPAVCMenu@@@Z 5f472f91 f winmdi.obj
 0001:00071fd7       ?MDIGetActive@CMDIFrameWnd@@QBEPAVCMDIChildWnd@@PAH@Z 5f472fd7 f winmdi.obj
 0001:000720c4       ?AssertValid@CMDIFrameWnd@@UBEXXZ 5f4730c4 f winmdi.obj
 0001:0007215c       ?Dump@CMDIFrameWnd@@UBEXAAVCDumpContext@@@Z 5f47315c f winmdi.obj
 0001:000721c6       ?_GetBaseMessageMap@CMDIChildWnd@@KGPBUAFX_MSGMAP@@XZ 5f4731c6 f winmdi.obj
 0001:000721db       ?GetMessageMap@CMDIChildWnd@@MBEPBUAFX_MSGMAP@@XZ 5f4731db f winmdi.obj
 0001:000721f6       ??0CMDIChildWnd@@QAE@XZ    5f4731f6 f winmdi.obj
 0001:0007227f       ?DefWindowProcW@CMDIChildWnd@@MAEJIIJ@Z 5f47327f f winmdi.obj
 0001:000722b0       ?DestroyWindow@CMDIChildWnd@@UAEHXZ 5f4732b0 f winmdi.obj
 0001:0007239f       ?PreTranslateMessage@CMDIChildWnd@@UAEHPAUtagMSG@@@Z 5f47339f f winmdi.obj
 0001:00072470       ?PreCreateWindow@CMDIChildWnd@@UAEHAAUtagCREATESTRUCTW@@@Z 5f473470 f winmdi.obj
 0001:000724b9       ?Create@CMDIChildWnd@@UAEHPBG0KABUtagRECT@@PAVCMDIFrameWnd@@PAUCCreateContext@@@Z 5f4734b9 f winmdi.obj
 0001:00072791       ?LoadFrame@CMDIChildWnd@@UAEHIKPAVCWnd@@PAUCCreateContext@@@Z 5f473791 f winmdi.obj
 0001:00072a73       ?OnSize@CMDIChildWnd@@IAEXIHH@Z 5f473a73 f winmdi.obj
 0001:00072ac0       ?UpdateClientEdge@CMDIChildWnd@@IAEHPAUtagRECT@@@Z 5f473ac0 f winmdi.obj
 0001:00072bfa       ?OnWindowPosChanging@CMDIChildWnd@@IAEXPAUtagWINDOWPOS@@@Z 5f473bfa f winmdi.obj
 0001:00072cbd       ?OnDestroy@CMDIChildWnd@@IAEXXZ 5f473cbd f winmdi.obj
 0001:00072ce5       ?OnNcActivate@CMDIChildWnd@@IAEHH@Z 5f473ce5 f winmdi.obj
 0001:00072d09       ?OnMouseActivate@CMDIChildWnd@@IAEHPAVCWnd@@II@Z 5f473d09 f winmdi.obj
 0001:00072d96       ?ActivateFrame@CMDIChildWnd@@UAEXH@Z 5f473d96 f winmdi.obj
 0001:00072fee       ?AssertValid@CMDIChildWnd@@UBEXXZ 5f473fee f winmdi.obj
 0001:0007304c       ?Dump@CMDIChildWnd@@UBEXAAVCDumpContext@@@Z 5f47404c f winmdi.obj
 0001:0007309b       ?GetWindowMenuPopup@CMDIFrameWnd@@UAEPAUHMENU__@@PAU2@@Z 5f47409b f winmdi.obj
 0001:000731a2       ?OnUpdateFrameMenu@CMDIFrameWnd@@UAEXPAUHMENU__@@@Z 5f4741a2 f winmdi.obj
 0001:0007321c       ?GetMDIFrame@CMDIChildWnd@@QAEPAVCMDIFrameWnd@@XZ 5f47421c f winmdi.obj
 0001:00073358       ?GetMessageBar@CMDIChildWnd@@MAEPAVCWnd@@XZ 5f474358 f winmdi.obj
 0001:0007338d       ?OnUpdateFrameTitle@CMDIChildWnd@@MAEXH@Z 5f47438d f winmdi.obj
 0001:00073494       ?OnMDIActivate@CMDIChildWnd@@IAEXHPAVCWnd@@0@Z 5f474494 f winmdi.obj
 0001:000735e9       ?OnUpdateFrameMenu@CMDIChildWnd@@UAEXHPAVCWnd@@PAUHMENU__@@@Z 5f4745e9 f winmdi.obj
 0001:0007372e       ?OnNcCreate@CMDIChildWnd@@IAEHPAUtagCREATESTRUCTW@@@Z 5f47472e f winmdi.obj
 0001:000737ab       ?OnCreate@CMDIChildWnd@@IAEHPAUtagCREATESTRUCTW@@@Z 5f4747ab f winmdi.obj
 0001:000737e4       ?OnUpdateFrameTitle@CMDIFrameWnd@@UAEXH@Z 5f4747e4 f winmdi.obj
 0001:000738ce       ?OnUpdateMDIWindowCmd@CMDIFrameWnd@@IAEXPAVCCmdUI@@@Z 5f4748ce f winmdi.obj
 0001:00073929       ?OnMDIWindowCmd@CMDIFrameWnd@@IAEHI@Z 5f474929 f winmdi.obj
 0001:00073a02       ?OnWindowNew@CMDIFrameWnd@@IAEXXZ 5f474a02 f winmdi.obj
 0001:00073ae0       ??_GCMDIFrameWnd@@UAEPAXI@Z 5f474ae0 f winmdi.obj
 0001:00073ae0       ??_ECMDIFrameWnd@@UAEPAXI@Z 5f474ae0 f winmdi.obj
 0001:00073b20       ??1CMDIFrameWnd@@UAE@XZ    5f474b20 f winmdi.obj
 0001:00073b80       ??_ECMDIChildWnd@@UAEPAXI@Z 5f474b80 f winmdi.obj
 0001:00073b80       ??_GCMDIChildWnd@@UAEPAXI@Z 5f474b80 f winmdi.obj
 0001:00073bc0       ??1CMDIChildWnd@@UAE@XZ    5f474bc0 f winmdi.obj
 0001:00073c81       ?_GetBaseMessageMap@CMiniFrameWnd@@KGPBUAFX_MSGMAP@@XZ 5f474c81 f winmini.obj
 0001:00073c96       ?GetMessageMap@CMiniFrameWnd@@MBEPBUAFX_MSGMAP@@XZ 5f474c96 f winmini.obj
 0001:00073cb1       ??0CMiniFrameWnd@@QAE@XZ   5f474cb1 f winmini.obj
 0001:00073d53       ?Initialize@CMiniFrameWnd@@SAXXZ 5f474d53 f winmini.obj
 0001:00073f71       ??1CMiniFrameWnd@@UAE@XZ   5f474f71 f winmini.obj
 0001:00073ffd       ?Create@CMiniFrameWnd@@QAEHPBG0KABUtagRECT@@PAVCWnd@@I@Z 5f474ffd f winmini.obj
 0001:00074037       ?CreateEx@CMiniFrameWnd@@QAEHKPBG0KABUtagRECT@@PAVCWnd@@I@Z 5f475037 f winmini.obj
 0001:000740df       ?OnNcCreate@CMiniFrameWnd@@QAEHPAUtagCREATESTRUCTW@@@Z 5f4750df f winmini.obj
 0001:000741c2       ?PreCreateWindow@CMiniFrameWnd@@MAEHAAUtagCREATESTRUCTW@@@Z 5f4751c2 f winmini.obj
 0001:00074250       ?OnGetMinMaxInfo@CMiniFrameWnd@@QAEXPAUtagMINMAXINFO@@@Z 5f475250 f winmini.obj
 0001:000742c8       ?OnNcActivate@CMiniFrameWnd@@QAEHH@Z 5f4752c8 f winmini.obj
 0001:00074358       ?OnNcCalcSize@CMiniFrameWnd@@QAEXHPAUtagNCCALCSIZE_PARAMS@@@Z 5f475358 f winmini.obj
 0001:000743fc       ?OnNcHitTest@CMiniFrameWnd@@QAEIVCPoint@@@Z 5f4753fc f winmini.obj
 0001:000748e1       ?OnNcLButtonDown@CMiniFrameWnd@@QAEXIVCPoint@@@Z 5f4758e1 f winmini.obj
 0001:00074953       ?OnMouseMove@CMiniFrameWnd@@QAEXIVCPoint@@@Z 5f475953 f winmini.obj
 0001:00074a25       ?OnLButtonUp@CMiniFrameWnd@@QAEXIVCPoint@@@Z 5f475a25 f winmini.obj
 0001:00074aa8       ?InvertSysMenu@CMiniFrameWnd@@IAEXXZ 5f475aa8 f winmini.obj
 0001:00074b62       ?OnNcPaint@CMiniFrameWnd@@QAEXXZ 5f475b62 f winmini.obj
 0001:000752fb       ?OnSysCommand@CMiniFrameWnd@@QAEXIJ@Z 5f4762fb f winmini.obj
 0001:00075398       ?CalcWindowRect@CMiniFrameWnd@@UAEXPAUtagRECT@@I@Z 5f476398 f winmini.obj
 0001:00075441       ?CalcBorders@CMiniFrameWnd@@SGXPAUtagRECT@@KK@Z 5f476441 f winmini.obj
 0001:000754e3       ?OnGetText@CMiniFrameWnd@@QAEJIJ@Z 5f4764e3 f winmini.obj
 0001:0007555d       ?OnGetTextLength@CMiniFrameWnd@@QAEJIJ@Z 5f47655d f winmini.obj
 0001:0007559d       ?OnSetText@CMiniFrameWnd@@QAEJIJ@Z 5f47659d f winmini.obj
 0001:000756b0       ?OnFloatStatus@CMiniFrameWnd@@QAEJIJ@Z 5f4766b0 f winmini.obj
 0001:0007581b       ?OnQueryCenterWnd@CMiniFrameWnd@@QAEJIJ@Z 5f47681b f winmini.obj
 0001:00075870       ??_GCMiniFrameWnd@@UAEPAXI@Z 5f476870 f winmini.obj
 0001:00075870       ??_ECMiniFrameWnd@@UAEPAXI@Z 5f476870 f winmini.obj
 0001:00075911       ??0CRectTracker@@QAE@PBUtagRECT@@I@Z 5f476911 f trckrect.obj
 0001:000759ab       ?Construct@CRectTracker@@IAEXXZ 5f4769ab f trckrect.obj
 0001:00075c09       ??1CRectTracker@@UAE@XZ    5f476c09 f trckrect.obj
 0001:00075c28       ?Draw@CRectTracker@@QBEXPAVCDC@@@Z 5f476c28 f trckrect.obj
 0001:00075fbb       ?SetCursor@CRectTracker@@QBEHPAVCWnd@@I@Z 5f476fbb f trckrect.obj
 0001:000760a6       ?HitTest@CRectTracker@@QBEHVCPoint@@@Z 5f4770a6 f trckrect.obj
 0001:00076168       ?NormalizeHit@CRectTracker@@QBEHH@Z 5f477168 f trckrect.obj
 0001:0007621f       ?Track@CRectTracker@@QAEHPAVCWnd@@VCPoint@@H0@Z 5f47721f f trckrect.obj
 0001:00076280       ?TrackRubberBand@CRectTracker@@QAEHPAVCWnd@@VCPoint@@H@Z 5f477280 f trckrect.obj
 0001:000762d4       ?DrawTrackerRect@CRectTracker@@UAEXPBUtagRECT@@PAVCWnd@@PAVCDC@@1@Z 5f4772d4 f trckrect.obj
 0001:00076433       ?AdjustRect@CRectTracker@@UAEXHPAUtagRECT@@@Z 5f477433 f trckrect.obj
 0001:0007662a       ?GetTrueRect@CRectTracker@@QBEXPAUtagRECT@@@Z 5f47762a f trckrect.obj
 0001:000766f7       ?OnChangedRect@CRectTracker@@UAEXABVCRect@@@Z 5f4776f7 f trckrect.obj
 0001:0007670f       ?GetHandleRect@CRectTracker@@IBEXHPAVCRect@@@Z 5f47770f f trckrect.obj
 0001:00076880       ?GetHandleSize@CRectTracker@@MBEHPBUtagRECT@@@Z 5f477880 f trckrect.obj
 0001:00076945       ?HitTestHandles@CRectTracker@@IBEHVCPoint@@@Z 5f477945 f trckrect.obj
 0001:00076a7b       ?TrackHandle@CRectTracker@@IAEHHPAVCWnd@@VCPoint@@0@Z 5f477a7b f trckrect.obj
 0001:00076f58       ?GetModifyPointers@CRectTracker@@IAEXHPAPAH0PAH1@Z 5f477f58 f trckrect.obj
 0001:000770c0       ?GetHandleMask@CRectTracker@@UBEIXZ 5f4780c0 f trckrect.obj
 0001:00077140       ?Create@CStatic@@QAEHPBGKABUtagRECT@@PAVCWnd@@I@Z 5f478140 f winctrl1.obj
 0001:00077184       ??1CStatic@@UAE@XZ         5f478184 f winctrl1.obj
 0001:000771f4       ?Create@CButton@@QAEHPBGKABUtagRECT@@PAVCWnd@@I@Z 5f4781f4 f winctrl1.obj
 0001:00077238       ??1CButton@@UAE@XZ         5f478238 f winctrl1.obj
 0001:000772a8       ?GetCheckedRadioButton@CWnd@@QAEHHH@Z 5f4782a8 f winctrl1.obj
 0001:000772fd       ?DrawItem@CButton@@UAEXPAUtagDRAWITEMSTRUCT@@@Z 5f4782fd f winctrl1.obj
 0001:0007732a       ?OnChildNotify@CButton@@MAEHIIJPAJ@Z 5f47832a f winctrl1.obj
 0001:0007739f       ?Create@CListBox@@QAEHKABUtagRECT@@PAVCWnd@@I@Z 5f47839f f winctrl1.obj
 0001:000773e1       ??1CListBox@@UAE@XZ        5f4783e1 f winctrl1.obj
 0001:00077451       ?DrawItem@CListBox@@UAEXPAUtagDRAWITEMSTRUCT@@@Z 5f478451 f winctrl1.obj
 0001:0007747e       ?MeasureItem@CListBox@@UAEXPAUtagMEASUREITEMSTRUCT@@@Z 5f47847e f winctrl1.obj
 0001:000774ab       ?CompareItem@CListBox@@UAEHPAUtagCOMPAREITEMSTRUCT@@@Z 5f4784ab f winctrl1.obj
 0001:000774da       ?DeleteItem@CListBox@@UAEXPAUtagDELETEITEMSTRUCT@@@Z 5f4784da f winctrl1.obj
 0001:000774f2       ?VKeyToItem@CListBox@@UAEHII@Z 5f4784f2 f winctrl1.obj
 0001:00077512       ?CharToItem@CListBox@@UAEHII@Z 5f478512 f winctrl1.obj
 0001:00077532       ?OnChildNotify@CListBox@@MAEHIIJPAJ@Z 5f478532 f winctrl1.obj
 0001:0007770a       ?GetText@CListBox@@QBEXHAAVCString@@@Z 5f47870a f winctrl1.obj
 0001:0007777b       ?ItemFromPoint@CListBox@@QBEIVCPoint@@AAH@Z 5f47877b f winctrl1.obj
 0001:00077823       ?Create@CComboBox@@QAEHKABUtagRECT@@PAVCWnd@@I@Z 5f478823 f winctrl1.obj
 0001:00077865       ??1CComboBox@@UAE@XZ       5f478865 f winctrl1.obj
 0001:000778d5       ?DrawItem@CComboBox@@UAEXPAUtagDRAWITEMSTRUCT@@@Z 5f4788d5 f winctrl1.obj
 0001:00077905       ?MeasureItem@CComboBox@@UAEXPAUtagMEASUREITEMSTRUCT@@@Z 5f478905 f winctrl1.obj
 0001:00077935       ?CompareItem@CComboBox@@UAEHPAUtagCOMPAREITEMSTRUCT@@@Z 5f478935 f winctrl1.obj
 0001:00077967       ?DeleteItem@CComboBox@@UAEXPAUtagDELETEITEMSTRUCT@@@Z 5f478967 f winctrl1.obj
 0001:0007797f       ?OnChildNotify@CComboBox@@MAEHIIJPAJ@Z 5f47897f f winctrl1.obj
 0001:00077af5       ?GetLBText@CComboBox@@QBEXHAAVCString@@@Z 5f478af5 f winctrl1.obj
 0001:00077b66       ?Create@CEdit@@QAEHKABUtagRECT@@PAVCWnd@@I@Z 5f478b66 f winctrl1.obj
 0001:00077ba8       ??1CEdit@@UAE@XZ           5f478ba8 f winctrl1.obj
 0001:00077c18       ?Create@CScrollBar@@QAEHKABUtagRECT@@PAVCWnd@@I@Z 5f478c18 f winctrl1.obj
 0001:00077c5a       ??1CScrollBar@@UAE@XZ      5f478c5a f winctrl1.obj
 0001:00077cd0       ??0_AFX_CHECKLIST_STATE@@QAE@XZ 5f478cd0 f winctrl3.obj
 0001:00077e13       ??1_AFX_CHECKLIST_STATE@@UAE@XZ 5f478e13 f winctrl3.obj
 0001:00077e95       ?_GetBaseMessageMap@CCheckListBox@@KGPBUAFX_MSGMAP@@XZ 5f478e95 f winctrl3.obj
 0001:00077eaa       ?GetMessageMap@CCheckListBox@@MBEPBUAFX_MSGMAP@@XZ 5f478eaa f winctrl3.obj
 0001:00077ec5       ?Create@CCheckListBox@@QAEHKABUtagRECT@@PAVCWnd@@I@Z 5f478ec5 f winctrl3.obj
 0001:00077f03       ?SetCheckStyle@CCheckListBox@@QAEXI@Z 5f478f03 f winctrl3.obj
 0001:00077f83       ?SetCheck@CCheckListBox@@QAEXHH@Z 5f478f83 f winctrl3.obj
 0001:000780ac       ?GetCheck@CCheckListBox@@QAEHH@Z 5f4790ac f winctrl3.obj
 0001:00078133       ?Enable@CCheckListBox@@QAEXHH@Z 5f479133 f winctrl3.obj
 0001:00078237       ?IsEnabled@CCheckListBox@@QAEHH@Z 5f479237 f winctrl3.obj
 0001:000782c2       ?OnGetCheckPosition@CCheckListBox@@UAE?AVCRect@@V2@0@Z 5f4792c2 f winctrl3.obj
 0001:000782f9       ?DrawItem@CCheckListBox@@UAEXPAUtagDRAWITEMSTRUCT@@@Z 5f4792f9 f winctrl3.obj
 0001:00078570       ?MeasureItem@CCheckListBox@@UAEXPAUtagMEASUREITEMSTRUCT@@@Z 5f479570 f winctrl3.obj
 0001:000785b2       ?PreDrawItem@CCheckListBox@@IAEXPAUtagDRAWITEMSTRUCT@@@Z 5f4795b2 f winctrl3.obj
 0001:00078946       ?PreMeasureItem@CCheckListBox@@IAEXPAUtagMEASUREITEMSTRUCT@@@Z 5f479946 f winctrl3.obj
 0001:00078a1a       ?PreCompareItem@CCheckListBox@@IAEHPAUtagCOMPAREITEMSTRUCT@@@Z 5f479a1a f winctrl3.obj
 0001:00078a88       ?PreDeleteItem@CCheckListBox@@IAEXPAUtagDELETEITEMSTRUCT@@@Z 5f479a88 f winctrl3.obj
 0001:00078b2b       ?OnChildNotify@CCheckListBox@@MAEHIIJPAJ@Z 5f479b2b f winctrl3.obj
 0001:00078c89       ?PreSubclassWindow@CCheckListBox@@MAEXXZ 5f479c89 f winctrl3.obj
 0001:00078ccf       ?CalcMinimumItemHeight@CCheckListBox@@IAEHXZ 5f479ccf f winctrl3.obj
 0001:00078dd6       ?InvalidateCheck@CCheckListBox@@IAEXH@Z 5f479dd6 f winctrl3.obj
 0001:00078e3a       ?InvalidateItem@CCheckListBox@@IAEXH@Z 5f479e3a f winctrl3.obj
 0001:00078e82       ?CheckFromPoint@CCheckListBox@@IAEHVCPoint@@AAH@Z 5f479e82 f winctrl3.obj
 0001:00078fa2       ?OnLButtonDown@CCheckListBox@@IAEXIVCPoint@@@Z 5f479fa2 f winctrl3.obj
 0001:000790ea       ?OnLButtonDblClk@CCheckListBox@@IAEXIVCPoint@@@Z 5f47a0ea f winctrl3.obj
 0001:0007914d       ?OnKeyDown@CCheckListBox@@IAEXIII@Z 5f47a14d f winctrl3.obj
 0001:00079371       ?OnCreate@CCheckListBox@@IAEHPAUtagCREATESTRUCTW@@@Z 5f47a371 f winctrl3.obj
 0001:000793cf       ?OnSetFont@CCheckListBox@@IAEJIJ@Z 5f47a3cf f winctrl3.obj
 0001:00079416       ?OnLBAddString@CCheckListBox@@IAEJIJ@Z 5f47a416 f winctrl3.obj
 0001:000794d9       ?OnLBFindString@CCheckListBox@@IAEJIJ@Z 5f47a4d9 f winctrl3.obj
 0001:00079578       ?OnLBFindStringExact@CCheckListBox@@IAEJIJ@Z 5f47a578 f winctrl3.obj
 0001:00079617       ?OnLBGetItemData@CCheckListBox@@IAEJIJ@Z 5f47a617 f winctrl3.obj
 0001:0007967a       ?OnLBGetText@CCheckListBox@@IAEJIJ@Z 5f47a67a f winctrl3.obj
 0001:000796ee       ?OnLBInsertString@CCheckListBox@@IAEJIJ@Z 5f47a6ee f winctrl3.obj
 0001:000797b1       ?OnLBSelectString@CCheckListBox@@IAEJIJ@Z 5f47a7b1 f winctrl3.obj
 0001:0007985c       ?OnLBSetItemData@CCheckListBox@@IAEJIJ@Z 5f47a85c f winctrl3.obj
 0001:0007992e       ?OnLBSetItemHeight@CCheckListBox@@IAEJIJ@Z 5f47a92e f winctrl3.obj
 0001:000799a0       ??_G_AFX_CHECKLIST_STATE@@UAEPAXI@Z 5f47a9a0 f winctrl3.obj
 0001:000799a0       ??_E_AFX_CHECKLIST_STATE@@UAEPAXI@Z 5f47a9a0 f winctrl3.obj
 0001:000799e0       ?AfxPropPageCallback@@YGIPAUHWND__@@IPAU_PROPSHEETPAGEW@@@Z 5f47a9e0 f dlgprop.obj
 0001:00079b15       ?_GetBaseMessageMap@CPropertyPage@@KGPBUAFX_MSGMAP@@XZ 5f47ab15 f dlgprop.obj
 0001:00079b2a       ?GetMessageMap@CPropertyPage@@MBEPBUAFX_MSGMAP@@XZ 5f47ab2a f dlgprop.obj
 0001:00079b45       ??0CPropertyPage@@QAE@II@Z 5f47ab45 f dlgprop.obj
 0001:00079c0b       ??0CPropertyPage@@QAE@PBGI@Z 5f47ac0b f dlgprop.obj
 0001:00079cd5       ?Construct@CPropertyPage@@QAEXII@Z 5f47acd5 f dlgprop.obj
 0001:00079d21       ?Construct@CPropertyPage@@QAEXPBGI@Z 5f47ad21 f dlgprop.obj
 0001:00079d87       ??0CPropertyPage@@QAE@XZ   5f47ad87 f dlgprop.obj
 0001:00079e23       ?CommonConstruct@CPropertyPage@@IAEXPBGI@Z 5f47ae23 f dlgprop.obj
 0001:00079f4b       ??1CPropertyPage@@UAE@XZ   5f47af4b f dlgprop.obj
 0001:00079ff1       ?Cleanup@CPropertyPage@@IAEXXZ 5f47aff1 f dlgprop.obj
 0001:0007a058       ?InitDialogInfo@CPropertyPage@@IAEPBUDLGTEMPLATE@@PBU2@@Z 5f47b058 f dlgprop.obj
 0001:0007a0b3       ?PreProcessPageTemplate@CPropertyPage@@IAEXAAU_PROPSHEETPAGEW@@H@Z 5f47b0b3 f dlgprop.obj
 0001:0007a355       ?CancelToClose@CPropertyPage@@QAEXXZ 5f47b355 f dlgprop.obj
 0001:0007a3d8       ?SetModified@CPropertyPage@@QAEXH@Z 5f47b3d8 f dlgprop.obj
 0001:0007a49d       ?QuerySiblings@CPropertyPage@@QAEJIJ@Z 5f47b49d f dlgprop.obj
 0001:0007a526       ?OnApply@CPropertyPage@@UAEHXZ 5f47b526 f dlgprop.obj
 0001:0007a562       ?OnReset@CPropertyPage@@UAEXXZ 5f47b562 f dlgprop.obj
 0001:0007a599       ?OnOK@CPropertyPage@@UAEXXZ 5f47b599 f dlgprop.obj
 0001:0007a5c2       ?OnCancel@CPropertyPage@@UAEXXZ 5f47b5c2 f dlgprop.obj
 0001:0007a5eb       ?OnSetActive@CPropertyPage@@UAEHXZ 5f47b5eb f dlgprop.obj
 0001:0007a645       ?OnKillActive@CPropertyPage@@UAEHXZ 5f47b645 f dlgprop.obj
 0001:0007a69e       ?OnQueryCancel@CPropertyPage@@UAEHXZ 5f47b69e f dlgprop.obj
 0001:0007a6b9       ?OnWizardBack@CPropertyPage@@UAEJXZ 5f47b6b9 f dlgprop.obj
 0001:0007a6d1       ?OnWizardNext@CPropertyPage@@UAEJXZ 5f47b6d1 f dlgprop.obj
 0001:0007a6e9       ?OnWizardFinish@CPropertyPage@@UAEHXZ 5f47b6e9 f dlgprop.obj
 0001:0007a704       ?MapWizardResult@CPropertyPage@@IAEJJ@Z 5f47b704 f dlgprop.obj
 0001:0007a7b9       ?OnNotify@CPropertyPage@@MAEHIJPAJ@Z 5f47b7b9 f dlgprop.obj
 0001:0007aa19       ?PreTranslateMessage@CPropertyPage@@MAEHPAUtagMSG@@@Z 5f47ba19 f dlgprop.obj
 0001:0007aa5f       ?OnCtlColor@CPropertyPage@@IAEPAUHBRUSH__@@PAVCDC@@PAVCWnd@@I@Z 5f47ba5f f dlgprop.obj
 0001:0007aaf8       ?AssertValid@CPropertyPage@@UBEXXZ 5f47baf8 f dlgprop.obj
 0001:0007abaf       ?Dump@CPropertyPage@@UBEXAAVCDumpContext@@@Z 5f47bbaf f dlgprop.obj
 0001:0007ac22       ?EndDialog@CPropertyPage@@QAEXH@Z 5f47bc22 f dlgprop.obj
 0001:0007ac5b       ?_GetBaseMessageMap@CPropertySheet@@KGPBUAFX_MSGMAP@@XZ 5f47bc5b f dlgprop.obj
 0001:0007ac70       ?GetMessageMap@CPropertySheet@@MBEPBUAFX_MSGMAP@@XZ 5f47bc70 f dlgprop.obj
 0001:0007ac8b       ?OnSetDefID@CPropertySheet@@IAEJIJ@Z 5f47bc8b f dlgprop.obj
 0001:0007adad       ??0CPropertySheet@@QAE@XZ  5f47bdad f dlgprop.obj
 0001:0007ae5e       ??0CPropertySheet@@QAE@IPAVCWnd@@I@Z 5f47be5e f dlgprop.obj
 0001:0007af66       ??0CPropertySheet@@QAE@PBGPAVCWnd@@I@Z 5f47bf66 f dlgprop.obj
 0001:0007b04e       ?Construct@CPropertySheet@@QAEXIPAVCWnd@@I@Z 5f47c04e f dlgprop.obj
 0001:0007b0c7       ?Construct@CPropertySheet@@QAEXPBGPAVCWnd@@I@Z 5f47c0c7 f dlgprop.obj
 0001:0007b120       ?CommonConstruct@CPropertySheet@@QAEXPAVCWnd@@I@Z 5f47c120 f dlgprop.obj
 0001:0007b1b6       ?EnableStackedTabs@CPropertySheet@@QAEXH@Z 5f47c1b6 f dlgprop.obj
 0001:0007b1da       ?SetTitle@CPropertySheet@@QAEXPBGI@Z 5f47c1da f dlgprop.obj
 0001:0007b2a3       ??1CPropertySheet@@UAE@XZ  5f47c2a3 f dlgprop.obj
 0001:0007b358       ?PreTranslateMessage@CPropertySheet@@UAEHPAUtagMSG@@@Z 5f47c358 f dlgprop.obj
 0001:0007b41c       ?OnCmdMsg@CPropertySheet@@UAEHIHPAXPAUAFX_CMDHANDLERINFO@@@Z 5f47c41c f dlgprop.obj
 0001:0007b59e       ?GetActivePage@CPropertySheet@@QBEPAVCPropertyPage@@XZ 5f47c59e f dlgprop.obj
 0001:0007b61d       ?ContinueModal@CPropertySheet@@UAEHXZ 5f47c61d f dlgprop.obj
 0001:0007b68e       ?DoModal@CPropertySheet@@UAEHXZ 5f47c68e f dlgprop.obj
 0001:0007b8f8       ?AfxPropSheetCallback@@YGHPAUHWND__@@IJ@Z 5f47c8f8 f dlgprop.obj
 0001:0007b9bb       ?Create@CPropertySheet@@QAEHPAVCWnd@@KK@Z 5f47c9bb f dlgprop.obj
 0001:0007bb0d       ?BuildPropPageArray@CPropertySheet@@UAEXXZ 5f47cb0d f dlgprop.obj
 0001:0007bc03       ?GetPageCount@CPropertySheet@@QBEHXZ 5f47cc03 f dlgprop.obj
 0001:0007bc6f       ?GetActiveIndex@CPropertySheet@@QBEHXZ 5f47cc6f f dlgprop.obj
 0001:0007bcc3       ?SetActivePage@CPropertySheet@@QAEHH@Z 5f47ccc3 f dlgprop.obj
 0001:0007bd0e       ?GetPageIndex@CPropertySheet@@QAEHPAVCPropertyPage@@@Z 5f47cd0e f dlgprop.obj
 0001:0007bd6d       ?SetActivePage@CPropertySheet@@QAEHPAVCPropertyPage@@@Z 5f47cd6d f dlgprop.obj
 0001:0007be24       ?AddPage@CPropertySheet@@QAEXPAVCPropertyPage@@@Z 5f47ce24 f dlgprop.obj
 0001:0007bf3e       ?RemovePage@CPropertySheet@@QAEXPAVCPropertyPage@@@Z 5f47cf3e f dlgprop.obj
 0001:0007bff5       ?RemovePage@CPropertySheet@@QAEXH@Z 5f47cff5 f dlgprop.obj
 0001:0007c051       ?EndDialog@CPropertySheet@@QAEXH@Z 5f47d051 f dlgprop.obj
 0001:0007c0b6       ?OnClose@CPropertySheet@@IAEXXZ 5f47d0b6 f dlgprop.obj
 0001:0007c0f4       ?OnSysCommand@CPropertySheet@@IAEXIJ@Z 5f47d0f4 f dlgprop.obj
 0001:0007c15e       ?OnInitDialog@CPropertySheet@@UAEHXZ 5f47d15e f dlgprop.obj
 0001:0007c44f       ?OnNcCreate@CPropertySheet@@IAEHPAUtagCREATESTRUCTW@@@Z 5f47d44f f dlgprop.obj
 0001:0007c480       ?HandleInitDialog@CPropertySheet@@IAEJIJ@Z 5f47d480 f dlgprop.obj
 0001:0007c4ac       ?OnCommand@CPropertySheet@@UAEHIJ@Z 5f47d4ac f dlgprop.obj
 0001:0007c57f       ?OnCommandHelp@CPropertySheet@@IAEJIJ@Z 5f47d57f f dlgprop.obj
 0001:0007c5e5       ?OnCtlColor@CPropertySheet@@IAEPAUHBRUSH__@@PAVCDC@@PAVCWnd@@I@Z 5f47d5e5 f dlgprop.obj
 0001:0007c67e       ?AssertValid@CPropertySheet@@UBEXXZ 5f47d67e f dlgprop.obj
 0001:0007c6f5       ?Dump@CPropertySheet@@UBEXAAVCDumpContext@@@Z 5f47d6f5 f dlgprop.obj
 0001:0007c7c0       ??_ECPropertyPage@@UAEPAXI@Z 5f47d7c0 f dlgprop.obj
 0001:0007c7c0       ??_GCPropertyPage@@UAEPAXI@Z 5f47d7c0 f dlgprop.obj
 0001:0007c800       ??_ECPropertySheet@@UAEPAXI@Z 5f47d800 f dlgprop.obj
 0001:0007c800       ??_GCPropertySheet@@UAEPAXI@Z 5f47d800 f dlgprop.obj
 0001:0007c8a1       ?DPtoHIMETRIC@CDC@@QBEXPAUtagSIZE@@@Z 5f47d8a1 f wingdix.obj
 0001:0007ca03       ?HIMETRICtoDP@CDC@@QBEXPAUtagSIZE@@@Z 5f47da03 f wingdix.obj
 0001:0007cb65       ?LPtoHIMETRIC@CDC@@QBEXPAUtagSIZE@@@Z 5f47db65 f wingdix.obj
 0001:0007cbbf       ?HIMETRICtoLP@CDC@@QBEXPAUtagSIZE@@@Z 5f47dbbf f wingdix.obj
 0001:0007cc19       ?GetHalftoneBrush@CDC@@SGPAVCBrush@@XZ 5f47dc19 f wingdix.obj
 0001:0007ccbd       ?DrawDragRect@CDC@@QAEXPBUtagRECT@@UtagSIZE@@01PAVCBrush@@2@Z 5f47dcbd f wingdix.obj
 0001:0007d050       ?FillSolidRect@CDC@@QAEXPBUtagRECT@@K@Z 5f47e050 f wingdix.obj
 0001:0007d0ce       ?FillSolidRect@CDC@@QAEXHHHHK@Z 5f47e0ce f wingdix.obj
 0001:0007d16a       ?Draw3dRect@CDC@@QAEXPBUtagRECT@@KK@Z 5f47e16a f wingdix.obj
 0001:0007d1b8       ?Draw3dRect@CDC@@QAEXHHHHKK@Z 5f47e1b8 f wingdix.obj
 0001:0007d240       ?CreatePointFont@CFont@@QAEHHPBGPAVCDC@@@Z 5f47e240 f wingdix.obj
 0001:0007d2bd       ?CreatePointFontIndirect@CFont@@QAEHPBUtagLOGFONTW@@PAVCDC@@@Z 5f47e2bd f wingdix.obj
 0001:0007d3ef       ?NormalizeRect@CRect@@QAEXXZ 5f47e3ef f wingdix.obj
 0001:0007d462       ?InflateRect@CRect@@QAEXPBUtagRECT@@@Z 5f47e462 f wingdix.obj
 0001:0007d4b0       ?InflateRect@CRect@@QAEXHHHH@Z 5f47e4b0 f wingdix.obj
 0001:0007d4f3       ?DeflateRect@CRect@@QAEXPBUtagRECT@@@Z 5f47e4f3 f wingdix.obj
 0001:0007d541       ?DeflateRect@CRect@@QAEXHHHH@Z 5f47e541 f wingdix.obj
 0001:0007d584       ?MulDiv@CRect@@QBE?AV1@HH@Z 5f47e584 f wingdix.obj
 0001:0007d696       ?_GetBaseMessageMap@CEditView@@KGPBUAFX_MSGMAP@@XZ 5f47e696 f viewedit.obj
 0001:0007d6ab       ?GetMessageMap@CEditView@@MBEPBUAFX_MSGMAP@@XZ 5f47e6ab f viewedit.obj
 0001:0007d6c6       ??0_AFX_EDIT_STATE@@QAE@XZ 5f47e6c6 f viewedit.obj
 0001:0007d775       ??1_AFX_EDIT_STATE@@UAE@XZ 5f47e775 f viewedit.obj
 0001:0007d80f       ??0CEditView@@QAE@XZ       5f47e80f f viewedit.obj
 0001:0007d8d2       ??1CEditView@@UAE@XZ       5f47e8d2 f viewedit.obj
 0001:0007d9bf       ?PreCreateWindow@CEditView@@MAEHAAUtagCREATESTRUCTW@@@Z 5f47e9bf f viewedit.obj
 0001:0007d9ed       ?OnCreate@CEditView@@IAEHPAUtagCREATESTRUCTW@@@Z 5f47e9ed f viewedit.obj
 0001:0007db52       ?OnDestroy@CEditView@@IAEXXZ 5f47eb52 f viewedit.obj
 0001:0007db87       ?CalcWindowRect@CEditView@@MAEXPAUtagRECT@@I@Z 5f47eb87 f viewedit.obj
 0001:0007dc0d       ?DeleteContents@CEditView@@UAEXXZ 5f47ec0d f viewedit.obj
 0001:0007dc78       ?Serialize@CEditView@@UAEXAAVCArchive@@@Z 5f47ec78 f viewedit.obj
 0001:0007dd4b       ?ReadFromArchive@CEditView@@QAEXAAVCArchive@@I@Z 5f47ed4b f viewedit.obj
 0001:0007de8a       ?WriteToArchive@CEditView@@QAEXAAVCArchive@@@Z 5f47ee8a f viewedit.obj
 0001:0007df9f       ?SerializeRaw@CEditView@@QAEXAAVCArchive@@@Z 5f47ef9f f viewedit.obj
 0001:0007e07e       ?OnPreparePrinting@CEditView@@MAEHPAUCPrintInfo@@@Z 5f47f07e f viewedit.obj
 0001:0007e0a2       ?OnBeginPrinting@CEditView@@MAEXPAVCDC@@PAUCPrintInfo@@@Z 5f47f0a2 f viewedit.obj
 0001:0007e2ba       ?PaginateTo@CEditView@@IAEHPAVCDC@@PAUCPrintInfo@@@Z 5f47f2ba f viewedit.obj
 0001:0007e511       ?OnPrepareDC@CEditView@@UAEXPAVCDC@@PAUCPrintInfo@@@Z 5f47f511 f viewedit.obj
 0001:0007e5bd       ?PrintInsideRect@CEditView@@QAEIPAVCDC@@AAUtagRECT@@II@Z 5f47f5bd f viewedit.obj
 0001:0007ef06       ?OnPrint@CEditView@@MAEXPAVCDC@@PAUCPrintInfo@@@Z 5f47ff06 f viewedit.obj
 0001:0007f0e4       ?OnEndPrinting@CEditView@@MAEXPAVCDC@@PAUCPrintInfo@@@Z 5f4800e4 f viewedit.obj
 0001:0007f14f       ?OnUpdateNeedSel@CEditView@@IAEXPAVCCmdUI@@@Z 5f48014f f viewedit.obj
 0001:0007f1bb       ?OnUpdateNeedClip@CEditView@@IAEXPAVCCmdUI@@@Z 5f4801bb f viewedit.obj
 0001:0007f20c       ?OnUpdateNeedText@CEditView@@IAEXPAVCCmdUI@@@Z 5f48020c f viewedit.obj
 0001:0007f263       ?OnUpdateNeedFind@CEditView@@IAEXPAVCCmdUI@@@Z 5f480263 f viewedit.obj
 0001:0007f2f2       ?OnUpdateEditUndo@CEditView@@IAEXPAVCCmdUI@@@Z 5f4802f2 f viewedit.obj
 0001:0007f34a       ?OnEditChange@CEditView@@IAEHXZ 5f48034a f viewedit.obj
 0001:0007f3a6       ?OnEditCut@CEditView@@IAEXXZ 5f4803a6 f viewedit.obj
 0001:0007f3f1       ?OnEditCopy@CEditView@@IAEXXZ 5f4803f1 f viewedit.obj
 0001:0007f43c       ?OnEditPaste@CEditView@@IAEXXZ 5f48043c f viewedit.obj
 0001:0007f487       ?OnEditClear@CEditView@@IAEXXZ 5f480487 f viewedit.obj
 0001:0007f4d2       ?OnEditUndo@CEditView@@IAEXXZ 5f4804d2 f viewedit.obj
 0001:0007f51d       ?OnEditSelectAll@CEditView@@IAEXXZ 5f48051d f viewedit.obj
 0001:0007f56e       ?OnSetFont@CEditView@@IAEJIJ@Z 5f48056e f viewedit.obj
 0001:0007f5cc       ?SetPrinterFont@CEditView@@QAEXPAVCFont@@@Z 5f4805cc f viewedit.obj
 0001:0007f618       ?GetPrinterFont@CEditView@@QBEPAVCFont@@XZ 5f480618 f viewedit.obj
 0001:0007f64d       ?LockBuffer@CEditView@@QBEPBGXZ 5f48064d f viewedit.obj
 0001:0007f714       ?UnlockBuffer@CEditView@@QBEXXZ 5f480714 f viewedit.obj
 0001:0007f7a0       ?GetBufferLength@CEditView@@QBEIXZ 5f4807a0 f viewedit.obj
 0001:0007f811       ?GetSelectedText@CEditView@@QBEXAAVCString@@@Z 5f480811 f viewedit.obj
 0001:0007f8e9       ?OnEditFind@CEditView@@IAEXXZ 5f4808e9 f viewedit.obj
 0001:0007f92f       ?OnEditReplace@CEditView@@IAEXXZ 5f48092f f viewedit.obj
 0001:0007f975       ?OnEditRepeat@CEditView@@IAEXXZ 5f480975 f viewedit.obj
 0001:0007fa02       ?OnEditFindReplace@CEditView@@IAEXH@Z 5f480a02 f viewedit.obj
 0001:0007fccc       ?OnFindNext@CEditView@@MAEXPBGHH@Z 5f480ccc f viewedit.obj
 0001:0007fd76       ?OnReplaceSel@CEditView@@MAEXPBGHH0@Z 5f480d76 f viewedit.obj
 0001:0007fe3f       ?OnReplaceAll@CEditView@@MAEXPBG0H@Z 5f480e3f f viewedit.obj
 0001:0007ff32       ?InitializeReplace@CEditView@@IAEHXZ 5f480f32 f viewedit.obj
 0001:0008005c       ?OnFindReplaceCmd@CEditView@@IAEJIJ@Z 5f48105c f viewedit.obj
 0001:00080305       ?SameAsSelected@CEditView@@IAEHPBGH@Z 5f481305 f viewedit.obj
 0001:00080410       ?FindTextW@CEditView@@QAEHPBGHH@Z 5f481410 f viewedit.obj
 0001:0008094d       ?OnTextNotFound@CEditView@@MAEXPBG@Z 5f48194d f viewedit.obj
 0001:00080980       ?SetTabStops@CEditView@@QAEXH@Z 5f481980 f viewedit.obj
 0001:000809e7       ?AssertValid@CEditView@@UBEXXZ 5f4819e7 f viewedit.obj
 0001:00080a9d       ?Dump@CEditView@@UBEXAAVCDumpContext@@@Z 5f481a9d f viewedit.obj
 0001:00080c20       ??_G_AFX_EDIT_STATE@@UAEPAXI@Z 5f481c20 f viewedit.obj
 0001:00080c20       ??_E_AFX_EDIT_STATE@@UAEPAXI@Z 5f481c20 f viewedit.obj
 0001:00080c60       ??_GCEditView@@UAEPAXI@Z   5f481c60 f viewedit.obj
 0001:00080c60       ??_ECEditView@@UAEPAXI@Z   5f481c60 f viewedit.obj
 0001:00080ca0       ?_GetBaseMessageMap@CListView@@KGPBUAFX_MSGMAP@@XZ 5f481ca0 f viewcmn.obj
 0001:00080cb5       ?GetMessageMap@CListView@@MBEPBUAFX_MSGMAP@@XZ 5f481cb5 f viewcmn.obj
 0001:00080cd0       ?PreCreateWindow@CListView@@UAEHAAUtagCREATESTRUCTW@@@Z 5f481cd0 f viewcmn.obj
 0001:00080cf4       ?DrawItem@CListView@@UAEXPAUtagDRAWITEMSTRUCT@@@Z 5f481cf4 f viewcmn.obj
 0001:00080d21       ?OnChildNotify@CListView@@MAEHIIJPAJ@Z 5f481d21 f viewcmn.obj
 0001:00080d96       ?RemoveImageList@CListView@@IAEXH@Z 5f481d96 f viewcmn.obj
 0001:00080de8       ?OnNcDestroy@CListView@@QAEXXZ 5f481de8 f viewcmn.obj
 0001:00080e24       ?_GetBaseMessageMap@CTreeView@@KGPBUAFX_MSGMAP@@XZ 5f481e24 f viewcmn.obj
 0001:00080e39       ?GetMessageMap@CTreeView@@MBEPBUAFX_MSGMAP@@XZ 5f481e39 f viewcmn.obj
 0001:00080e54       ?PreCreateWindow@CTreeView@@UAEHAAUtagCREATESTRUCTW@@@Z 5f481e54 f viewcmn.obj
 0001:00080e78       ?RemoveImageList@CTreeView@@IAEXH@Z 5f481e78 f viewcmn.obj
 0001:00080eca       ?OnDestroy@CTreeView@@QAEXXZ 5f481eca f viewcmn.obj
 0001:00080efc       ??0CListView@@QAE@XZ       5f481efc f viewcmn.obj
 0001:00080f75       ?GetListCtrl@CListView@@QBEAAVCListCtrl@@XZ 5f481f75 f viewcmn.obj
 0001:00080f8e       ??0CTreeView@@QAE@XZ       5f481f8e f viewcmn.obj
 0001:00081007       ?GetTreeCtrl@CTreeView@@QBEAAVCTreeCtrl@@XZ 5f482007 f viewcmn.obj
 0001:00081020       ??_GCListView@@UAEPAXI@Z   5f482020 f viewcmn.obj
 0001:00081060       ??1CListView@@UAE@XZ       5f482060 f viewcmn.obj
 0001:000810c0       ??_GCTreeView@@UAEPAXI@Z   5f4820c0 f viewcmn.obj
 0001:00081100       ??1CTreeView@@UAE@XZ       5f482100 f viewcmn.obj
 0001:00081160       ?AfxOleOnReleaseAllObjects@@YGXXZ 5f482160 f olelock.obj
 0001:000811f3       ?AfxOleCanExitApp@@YGHXZ   5f4821f3 f olelock.obj
 0001:00081227       ?AfxOleLockApp@@YGXXZ      5f482227 f olelock.obj
 0001:0008124f       ?AfxOleUnlockApp@@YGXXZ    5f48224f f olelock.obj
 0001:000812a6       ?AfxOleSetUserCtrl@@YGXH@Z 5f4822a6 f olelock.obj
 0001:0008131d       ?AfxOleGetUserCtrl@@YGHXZ  5f48231d f olelock.obj
 0001:00081340       ?OutputString@CDumpContext@@IAEXPBG@Z 5f482340 f dumpcont.obj
 0001:0008141e       ??0CDumpContext@@QAE@PAVCFile@@@Z 5f48241e f dumpcont.obj
 0001:00081465       ?Flush@CDumpContext@@QAEXXZ 5f482465 f dumpcont.obj
 0001:00081499       ??6CDumpContext@@QAEAAV0@PBG@Z 5f482499 f dumpcont.obj
 0001:000815f0       ??6CDumpContext@@QAEAAV0@E@Z 5f4825f0 f dumpcont.obj
 0001:0008162f       ??6CDumpContext@@QAEAAV0@G@Z 5f48262f f dumpcont.obj
 0001:00081671       ??6CDumpContext@@QAEAAV0@I@Z 5f482671 f dumpcont.obj
 0001:000816ae       ??6CDumpContext@@QAEAAV0@J@Z 5f4826ae f dumpcont.obj
 0001:000816eb       ??6CDumpContext@@QAEAAV0@K@Z 5f4826eb f dumpcont.obj
 0001:00081728       ??6CDumpContext@@QAEAAV0@H@Z 5f482728 f dumpcont.obj
 0001:00081765       ??6CDumpContext@@QAEAAV0@PBVCObject@@@Z 5f482765 f dumpcont.obj
 0001:000817c0       ??6CDumpContext@@QAEAAV0@ABVCObject@@@Z 5f4827c0 f dumpcont.obj
 0001:000817e4       ??6CDumpContext@@QAEAAV0@PBX@Z 5f4827e4 f dumpcont.obj
 0001:00081821       ?HexDump@CDumpContext@@QAEXPBGPAEHH@Z 5f482821 f dumpcont.obj
 0001:0008199c       ??6CDumpContext@@QAEAAV0@PBD@Z 5f48299c f dumpcont.obj
 0001:00081a30       ??6CDumpContext@@QAEAAV0@M@Z 5f482a30 f dumpflt.obj
 0001:00081a6f       ??6CDumpContext@@QAEAAV0@N@Z 5f482a6f f dumpflt.obj
 0001:00081ab0       ?AfxAssertFailedLine@@YGHPBDH@Z 5f482ab0 f afxasert.obj
 0001:00081b10       ??0CObject@@IAE@XZ         5f482b10 f afxinl1.obj
 0001:00081b32       ??1CObject@@UAE@XZ         5f482b32 f afxinl1.obj
 0001:00081b51       ?Serialize@CObject@@UAEXAAVCArchive@@@Z 5f482b51 f afxinl1.obj
 0001:00081b69       ??2CObject@@SGPAXIPAX@Z    5f482b69 f afxinl1.obj
 0001:00081b7e       ?AfxDynamicDownCast@@YAPBVCObject@@PAUCRuntimeClass@@PBV1@@Z 5f482b7e f afxinl1.obj
 0001:00081b9e       ?AfxStaticDownCast@@YAPBVCObject@@PAUCRuntimeClass@@PBV1@@Z 5f482b9e f afxinl1.obj
 0001:00081bbe       ??1CException@@UAE@XZ      5f482bbe f afxinl1.obj
 0001:00081c26       ??0CSimpleException@@QAE@XZ 5f482c26 f afxinl1.obj
 0001:00081ca9       ??0CSimpleException@@QAE@H@Z 5f482ca9 f afxinl1.obj
 0001:00081d32       ??1CSimpleException@@UAE@XZ 5f482d32 f afxinl1.obj
 0001:00081d9a       ??0CMemoryException@@QAE@XZ 5f482d9a f afxinl1.obj
 0001:00081e09       ??0CMemoryException@@QAE@HI@Z 5f482e09 f afxinl1.obj
 0001:00081e8a       ??1CMemoryException@@UAE@XZ 5f482e8a f afxinl1.obj
 0001:00081ef2       ??0CNotSupportedException@@QAE@XZ 5f482ef2 f afxinl1.obj
 0001:00081f61       ??0CNotSupportedException@@QAE@HI@Z 5f482f61 f afxinl1.obj
 0001:00081fe2       ??1CNotSupportedException@@UAE@XZ 5f482fe2 f afxinl1.obj
 0001:0008204a       ??0CArchiveException@@QAE@HPBG@Z 5f48304a f afxinl1.obj
 0001:000820ee       ??1CArchiveException@@UAE@XZ 5f4830ee f afxinl1.obj
 0001:0008216f       ??0CFileException@@QAE@HJPBG@Z 5f48316f f afxinl1.obj
 0001:0008221c       ??1CFileException@@UAE@XZ  5f48321c f afxinl1.obj
 0001:0008229d       ??BCFile@@QBEHXZ           5f48329d f afxinl1.obj
 0001:000822b9       ?ReadHuge@CFile@@QAEKPAXK@Z 5f4832b9 f afxinl1.obj
 0001:000822e4       ?WriteHuge@CFile@@QAEXPBXK@Z 5f4832e4 f afxinl1.obj
 0001:0008230f       ?SeekToEnd@CFile@@QAEKXZ   5f48330f f afxinl1.obj
 0001:00082334       ?SeekToBegin@CFile@@QAEXXZ 5f483334 f afxinl1.obj
 0001:00082359       ?SetFilePath@CFile@@UAEXPBG@Z 5f483359 f afxinl1.obj
 0001:000823b8       ?IsReadOnly@CFileFind@@QBEHXZ 5f4833b8 f afxinl1.obj
 0001:000823db       ?IsDirectory@CFileFind@@QBEHXZ 5f4833db f afxinl1.obj
 0001:000823fe       ?IsCompressed@CFileFind@@QBEHXZ 5f4833fe f afxinl1.obj
 0001:00082424       ?IsSystem@CFileFind@@QBEHXZ 5f483424 f afxinl1.obj
 0001:00082447       ?IsHidden@CFileFind@@QBEHXZ 5f483447 f afxinl1.obj
 0001:0008246a       ?IsTemporary@CFileFind@@QBEHXZ 5f48346a f afxinl1.obj
 0001:00082490       ?IsNormal@CFileFind@@QBEHXZ 5f483490 f afxinl1.obj
 0001:000824b6       ?IsArchived@CFileFind@@QBEHXZ 5f4834b6 f afxinl1.obj
 0001:000824d9       ?GetData@CString@@IBEPAUCStringData@@XZ 5f4834d9 f afxinl1.obj
 0001:00082518       ?Init@CString@@IAEXXZ      5f483518 f afxinl1.obj
 0001:0008253a       ??0CString@@QAE@PBE@Z      5f48353a f afxinl1.obj
 0001:00082569       ??4CString@@QAEABV0@PBE@Z  5f483569 f afxinl1.obj
 0001:00082590       ??YCString@@QAEABV0@D@Z    5f483590 f afxinl1.obj
 0001:000825b9       ??4CString@@QAEABV0@D@Z    5f4835b9 f afxinl1.obj
 0001:000825e2       ??H@YG?AVCString@@ABV0@D@Z 5f4835e2 f afxinl1.obj
 0001:00082654       ??H@YG?AVCString@@DABV0@@Z 5f483654 f afxinl1.obj
 0001:000826c6       ?GetLength@CString@@QBEHXZ 5f4836c6 f afxinl1.obj
 0001:000826e7       ?GetAllocLength@CString@@QBEHXZ 5f4836e7 f afxinl1.obj
 0001:00082708       ?IsEmpty@CString@@QBEHXZ   5f483708 f afxinl1.obj
 0001:0008273c       ??BCString@@QBEPBGXZ       5f48373c f afxinl1.obj
 0001:00082757       ?SafeStrlen@CString@@KGHPBG@Z 5f483757 f afxinl1.obj
 0001:00082784       ?Compare@CString@@QBEHPBG@Z 5f483784 f afxinl1.obj
 0001:000827af       ?CompareNoCase@CString@@QBEHPBG@Z 5f4837af f afxinl1.obj
 0001:000827da       ?Collate@CString@@QBEHPBG@Z 5f4837da f afxinl1.obj
 0001:00082805       ?GetAt@CString@@QBEGH@Z    5f483805 f afxinl1.obj
 0001:00082877       ??ACString@@QBEGH@Z        5f483877 f afxinl1.obj
 0001:000828e9       ??8@YGHABVCString@@0@Z     5f4838e9 f afxinl1.obj
 0001:00082920       ??8@YGHABVCString@@PBG@Z   5f483920 f afxinl1.obj
 0001:00082952       ??8@YGHPBGABVCString@@@Z   5f483952 f afxinl1.obj
 0001:00082984       ??9@YGHABVCString@@0@Z     5f483984 f afxinl1.obj
 0001:000829bb       ??9@YGHABVCString@@PBG@Z   5f4839bb f afxinl1.obj
 0001:000829ed       ??9@YGHPBGABVCString@@@Z   5f4839ed f afxinl1.obj
 0001:00082a1f       ??M@YGHABVCString@@0@Z     5f483a1f f afxinl1.obj
 0001:00082a56       ??M@YGHABVCString@@PBG@Z   5f483a56 f afxinl1.obj
 0001:00082a88       ??M@YGHPBGABVCString@@@Z   5f483a88 f afxinl1.obj
 0001:00082aba       ??O@YGHABVCString@@0@Z     5f483aba f afxinl1.obj
 0001:00082af1       ??O@YGHABVCString@@PBG@Z   5f483af1 f afxinl1.obj
 0001:00082b23       ??O@YGHPBGABVCString@@@Z   5f483b23 f afxinl1.obj
 0001:00082b55       ??N@YGHABVCString@@0@Z     5f483b55 f afxinl1.obj
 0001:00082b8c       ??N@YGHABVCString@@PBG@Z   5f483b8c f afxinl1.obj
 0001:00082bbe       ??N@YGHPBGABVCString@@@Z   5f483bbe f afxinl1.obj
 0001:00082bf0       ??P@YGHABVCString@@0@Z     5f483bf0 f afxinl1.obj
 0001:00082c27       ??P@YGHABVCString@@PBG@Z   5f483c27 f afxinl1.obj
 0001:00082c59       ??P@YGHPBGABVCString@@@Z   5f483c59 f afxinl1.obj
 0001:00082c8b       ??0CTimeSpan@@QAE@XZ       5f483c8b f afxinl1.obj
 0001:00082ca4       ??0CTimeSpan@@QAE@J@Z      5f483ca4 f afxinl1.obj
 0001:00082cc7       ??0CTimeSpan@@QAE@JHHH@Z   5f483cc7 f afxinl1.obj
 0001:00082d0b       ??0CTimeSpan@@QAE@ABV0@@Z  5f483d0b f afxinl1.obj
 0001:00082d30       ??4CTimeSpan@@QAEABV0@ABV0@@Z 5f483d30 f afxinl1.obj
 0001:00082d55       ?GetDays@CTimeSpan@@QBEJXZ 5f483d55 f afxinl1.obj
 0001:00082d78       ?GetTotalHours@CTimeSpan@@QBEJXZ 5f483d78 f afxinl1.obj
 0001:00082d9b       ?GetHours@CTimeSpan@@QBEHXZ 5f483d9b f afxinl1.obj
 0001:00082dcd       ?GetTotalMinutes@CTimeSpan@@QBEJXZ 5f483dcd f afxinl1.obj
 0001:00082df0       ?GetMinutes@CTimeSpan@@QBEHXZ 5f483df0 f afxinl1.obj
 0001:00082e25       ?GetTotalSeconds@CTimeSpan@@QBEJXZ 5f483e25 f afxinl1.obj
 0001:00082e40       ?GetSeconds@CTimeSpan@@QBEHXZ 5f483e40 f afxinl1.obj
 0001:00082e75       ??GCTimeSpan@@QBE?AV0@V0@@Z 5f483e75 f afxinl1.obj
 0001:00082ea1       ??HCTimeSpan@@QBE?AV0@V0@@Z 5f483ea1 f afxinl1.obj
 0001:00082ecd       ??YCTimeSpan@@QAEABV0@V0@@Z 5f483ecd f afxinl1.obj
 0001:00082ef0       ??ZCTimeSpan@@QAEABV0@V0@@Z 5f483ef0 f afxinl1.obj
 0001:00082f17       ??8CTimeSpan@@QBEHV0@@Z    5f483f17 f afxinl1.obj
 0001:00082f49       ??9CTimeSpan@@QBEHV0@@Z    5f483f49 f afxinl1.obj
 0001:00082f7b       ??MCTimeSpan@@QBEHV0@@Z    5f483f7b f afxinl1.obj
 0001:00082fad       ??OCTimeSpan@@QBEHV0@@Z    5f483fad f afxinl1.obj
 0001:00082fdf       ??NCTimeSpan@@QBEHV0@@Z    5f483fdf f afxinl1.obj
 0001:00083011       ??PCTimeSpan@@QBEHV0@@Z    5f484011 f afxinl1.obj
 0001:00083043       ??0CTime@@QAE@XZ           5f484043 f afxinl1.obj
 0001:0008305c       ??0CTime@@QAE@J@Z          5f48405c f afxinl1.obj
 0001:0008307f       ??0CTime@@QAE@ABV0@@Z      5f48407f f afxinl1.obj
 0001:000830a4       ??4CTime@@QAEABV0@ABV0@@Z  5f4840a4 f afxinl1.obj
 0001:000830c9       ??4CTime@@QAEABV0@J@Z      5f4840c9 f afxinl1.obj
 0001:000830ec       ?GetTime@CTime@@QBEJXZ     5f4840ec f afxinl1.obj
 0001:00083107       ?GetYear@CTime@@QBEHXZ     5f484107 f afxinl1.obj
 0001:0008312f       ?GetMonth@CTime@@QBEHXZ    5f48412f f afxinl1.obj
 0001:00083153       ?GetDay@CTime@@QBEHXZ      5f484153 f afxinl1.obj
 0001:00083176       ?GetHour@CTime@@QBEHXZ     5f484176 f afxinl1.obj
 0001:00083199       ?GetMinute@CTime@@QBEHXZ   5f484199 f afxinl1.obj
 0001:000831bc       ?GetSecond@CTime@@QBEHXZ   5f4841bc f afxinl1.obj
 0001:000831de       ?GetDayOfWeek@CTime@@QBEHXZ 5f4841de f afxinl1.obj
 0001:00083202       ??GCTime@@QBE?AVCTimeSpan@@V0@@Z 5f484202 f afxinl1.obj
 0001:0008322e       ??GCTime@@QBE?AV0@VCTimeSpan@@@Z 5f48422e f afxinl1.obj
 0001:0008325a       ??HCTime@@QBE?AV0@VCTimeSpan@@@Z 5f48425a f afxinl1.obj
 0001:00083286       ??YCTime@@QAEABV0@VCTimeSpan@@@Z 5f484286 f afxinl1.obj
 0001:000832a9       ??ZCTime@@QAEABV0@VCTimeSpan@@@Z 5f4842a9 f afxinl1.obj
 0001:000832d0       ??8CTime@@QBEHV0@@Z        5f4842d0 f afxinl1.obj
 0001:00083302       ??9CTime@@QBEHV0@@Z        5f484302 f afxinl1.obj
 0001:00083334       ??MCTime@@QBEHV0@@Z        5f484334 f afxinl1.obj
 0001:00083366       ??OCTime@@QBEHV0@@Z        5f484366 f afxinl1.obj
 0001:00083398       ??NCTime@@QBEHV0@@Z        5f484398 f afxinl1.obj
 0001:000833ca       ??PCTime@@QBEHV0@@Z        5f4843ca f afxinl1.obj
 0001:000833fc       ?IsLoading@CArchive@@QBEHXZ 5f4843fc f afxinl1.obj
 0001:0008342b       ?IsStoring@CArchive@@QBEHXZ 5f48442b f afxinl1.obj
 0001:0008345a       ?IsByteSwapping@CArchive@@QBEHXZ 5f48445a f afxinl1.obj
 0001:00083489       ?IsBufferEmpty@CArchive@@QBEHXZ 5f484489 f afxinl1.obj
 0001:000834bd       ?GetFile@CArchive@@QBEPAVCFile@@XZ 5f4844bd f afxinl1.obj
 0001:000834d9       ?SetObjectSchema@CArchive@@QAEXI@Z 5f4844d9 f afxinl1.obj
 0001:000834fa       ?SetStoreParams@CArchive@@QAEXII@Z 5f4844fa f afxinl1.obj
 0001:00083571       ?SetLoadParams@CArchive@@QAEXI@Z 5f484571 f afxinl1.obj
 0001:000835df       ??6CArchive@@QAEAAV0@H@Z   5f4845df f afxinl1.obj
 0001:00083603       ??6CArchive@@QAEAAV0@I@Z   5f484603 f afxinl1.obj
 0001:00083627       ??6CArchive@@QAEAAV0@F@Z   5f484627 f afxinl1.obj
 0001:0008364b       ??6CArchive@@QAEAAV0@D@Z   5f48464b f afxinl1.obj
 0001:0008366f       ??6CArchive@@QAEAAV0@E@Z   5f48466f f afxinl1.obj
 0001:000836b6       ??6CArchive@@QAEAAV0@G@Z   5f4846b6 f afxinl1.obj
 0001:00083702       ??6CArchive@@QAEAAV0@J@Z   5f484702 f afxinl1.obj
 0001:0008374c       ??6CArchive@@QAEAAV0@K@Z   5f48474c f afxinl1.obj
 0001:00083796       ??6CArchive@@QAEAAV0@M@Z   5f484796 f afxinl1.obj
 0001:000837e0       ??6CArchive@@QAEAAV0@N@Z   5f4847e0 f afxinl1.obj
 0001:00083830       ??5CArchive@@QAEAAV0@AAH@Z 5f484830 f afxinl1.obj
 0001:00083854       ??5CArchive@@QAEAAV0@AAI@Z 5f484854 f afxinl1.obj
 0001:00083878       ??5CArchive@@QAEAAV0@AAF@Z 5f484878 f afxinl1.obj
 0001:0008389c       ??5CArchive@@QAEAAV0@AAD@Z 5f48489c f afxinl1.obj
 0001:000838c0       ??5CArchive@@QAEAAV0@AAE@Z 5f4848c0 f afxinl1.obj
 0001:0008391d       ??5CArchive@@QAEAAV0@AAG@Z 5f48491d f afxinl1.obj
 0001:0008397f       ??5CArchive@@QAEAAV0@AAK@Z 5f48497f f afxinl1.obj
 0001:000839df       ??5CArchive@@QAEAAV0@AAM@Z 5f4849df f afxinl1.obj
 0001:00083a3f       ??5CArchive@@QAEAAV0@AAN@Z 5f484a3f f afxinl1.obj
 0001:00083aa5       ??5CArchive@@QAEAAV0@AAJ@Z 5f484aa5 f afxinl1.obj
 0001:00083b05       ??0CArchive@@IAE@ABV0@@Z   5f484b05 f afxinl1.obj
 0001:00083b73       ??4CArchive@@IAEXABV0@@Z   5f484b73 f afxinl1.obj
 0001:00083b8b       ??6@YGAAVCArchive@@AAV0@PBVCObject@@@Z 5f484b8b f afxinl1.obj
 0001:00083bac       ??5@YGAAVCArchive@@AAV0@AAPAVCObject@@@Z 5f484bac f afxinl1.obj
 0001:00083bd0       ??5@YGAAVCArchive@@AAV0@AAPBVCObject@@@Z 5f484bd0 f afxinl1.obj
 0001:00083bf4       ?GetDepth@CDumpContext@@QBEHXZ 5f484bf4 f afxinl1.obj
 0001:00083c0f       ?SetDepth@CDumpContext@@QAEXH@Z 5f484c0f f afxinl1.obj
 0001:00083c2f       ??0CDumpContext@@IAE@ABV0@@Z 5f484c2f f afxinl1.obj
 0001:00083c4a       ??4CDumpContext@@IAEXABV0@@Z 5f484c4a f afxinl1.obj
 0001:00083c62       ?GetSize@CByteArray@@QBEHXZ 5f484c62 f afxinl1.obj
 0001:00083c7e       ?GetUpperBound@CByteArray@@QBEHXZ 5f484c7e f afxinl1.obj
 0001:00083c9b       ?RemoveAll@CByteArray@@QAEXXZ 5f484c9b f afxinl1.obj
 0001:00083cbd       ?GetAt@CByteArray@@QBEEH@Z 5f484cbd f afxinl1.obj
 0001:00083d0f       ?SetAt@CByteArray@@QAEXHE@Z 5f484d0f f afxinl1.obj
 0001:00083d64       ?ElementAt@CByteArray@@QAEAAEH@Z 5f484d64 f afxinl1.obj
 0001:00083db3       ?GetData@CByteArray@@QBEPBEXZ 5f484db3 f afxinl1.obj
 0001:00083dcf       ?GetData@CByteArray@@QAEPAEXZ 5f484dcf f afxinl1.obj
 0001:00083deb       ?Add@CByteArray@@QAEHE@Z   5f484deb f afxinl1.obj
 0001:00083e1f       ??ACByteArray@@QBEEH@Z     5f484e1f f afxinl1.obj
 0001:00083e43       ??ACByteArray@@QAEAAEH@Z   5f484e43 f afxinl1.obj
 0001:00083e67       ?GetSize@CWordArray@@QBEHXZ 5f484e67 f afxinl1.obj
 0001:00083e83       ?GetUpperBound@CWordArray@@QBEHXZ 5f484e83 f afxinl1.obj
 0001:00083ea0       ?RemoveAll@CWordArray@@QAEXXZ 5f484ea0 f afxinl1.obj
 0001:00083ec2       ?GetAt@CWordArray@@QBEGH@Z 5f484ec2 f afxinl1.obj
 0001:00083f15       ?SetAt@CWordArray@@QAEXHG@Z 5f484f15 f afxinl1.obj
 0001:00083f6c       ?ElementAt@CWordArray@@QAEAAGH@Z 5f484f6c f afxinl1.obj
 0001:00083fbe       ?GetData@CWordArray@@QBEPBGXZ 5f484fbe f afxinl1.obj
 0001:00083fda       ?GetData@CWordArray@@QAEPAGXZ 5f484fda f afxinl1.obj
 0001:00083ff6       ?Add@CWordArray@@QAEHG@Z   5f484ff6 f afxinl1.obj
 0001:0008402a       ??ACWordArray@@QBEGH@Z     5f48502a f afxinl1.obj
 0001:0008404e       ??ACWordArray@@QAEAAGH@Z   5f48504e f afxinl1.obj
 0001:00084072       ?GetSize@CDWordArray@@QBEHXZ 5f485072 f afxinl1.obj
 0001:0008408e       ?GetUpperBound@CDWordArray@@QBEHXZ 5f48508e f afxinl1.obj
 0001:000840ab       ?RemoveAll@CDWordArray@@QAEXXZ 5f4850ab f afxinl1.obj
 0001:000840cd       ?GetAt@CDWordArray@@QBEKH@Z 5f4850cd f afxinl1.obj
 0001:0008411f       ?SetAt@CDWordArray@@QAEXHK@Z 5f48511f f afxinl1.obj
 0001:00084174       ?ElementAt@CDWordArray@@QAEAAKH@Z 5f485174 f afxinl1.obj
 0001:000841c6       ?GetData@CDWordArray@@QBEPBKXZ 5f4851c6 f afxinl1.obj
 0001:000841e2       ?GetData@CDWordArray@@QAEPAKXZ 5f4851e2 f afxinl1.obj
 0001:000841fe       ?Add@CDWordArray@@QAEHK@Z  5f4851fe f afxinl1.obj
 0001:00084232       ??ACDWordArray@@QBEKH@Z    5f485232 f afxinl1.obj
 0001:00084256       ??ACDWordArray@@QAEAAKH@Z  5f485256 f afxinl1.obj
 0001:0008427a       ?GetSize@CUIntArray@@QBEHXZ 5f48527a f afxinl1.obj
 0001:00084296       ?GetUpperBound@CUIntArray@@QBEHXZ 5f485296 f afxinl1.obj
 0001:000842b3       ?RemoveAll@CUIntArray@@QAEXXZ 5f4852b3 f afxinl1.obj
 0001:000842d5       ?GetAt@CUIntArray@@QBEIH@Z 5f4852d5 f afxinl1.obj
 0001:00084327       ?SetAt@CUIntArray@@QAEXHI@Z 5f485327 f afxinl1.obj
 0001:0008437c       ?ElementAt@CUIntArray@@QAEAAIH@Z 5f48537c f afxinl1.obj
 0001:000843ce       ?GetData@CUIntArray@@QBEPBIXZ 5f4853ce f afxinl1.obj
 0001:000843ea       ?GetData@CUIntArray@@QAEPAIXZ 5f4853ea f afxinl1.obj
 0001:00084406       ?Add@CUIntArray@@QAEHI@Z   5f485406 f afxinl1.obj
 0001:0008443a       ??ACUIntArray@@QBEIH@Z     5f48543a f afxinl1.obj
 0001:0008445e       ??ACUIntArray@@QAEAAIH@Z   5f48545e f afxinl1.obj
 0001:00084482       ?GetSize@CPtrArray@@QBEHXZ 5f485482 f afxinl1.obj
 0001:0008449e       ?GetUpperBound@CPtrArray@@QBEHXZ 5f48549e f afxinl1.obj
 0001:000844bb       ?RemoveAll@CPtrArray@@QAEXXZ 5f4854bb f afxinl1.obj
 0001:000844dd       ?GetAt@CPtrArray@@QBEPAXH@Z 5f4854dd f afxinl1.obj
 0001:00084532       ?SetAt@CPtrArray@@QAEXHPAX@Z 5f485532 f afxinl1.obj
 0001:0008458a       ?ElementAt@CPtrArray@@QAEAAPAXH@Z 5f48558a f afxinl1.obj
 0001:000845df       ?GetData@CPtrArray@@QBEPAPBXXZ 5f4855df f afxinl1.obj
 0001:000845fb       ?GetData@CPtrArray@@QAEPAPAXXZ 5f4855fb f afxinl1.obj
 0001:00084617       ?Add@CPtrArray@@QAEHPAX@Z  5f485617 f afxinl1.obj
 0001:0008464b       ??ACPtrArray@@QBEPAXH@Z    5f48564b f afxinl1.obj
 0001:0008466f       ??ACPtrArray@@QAEAAPAXH@Z  5f48566f f afxinl1.obj
 0001:00084693       ?GetSize@CObArray@@QBEHXZ  5f485693 f afxinl1.obj
 0001:000846af       ?GetUpperBound@CObArray@@QBEHXZ 5f4856af f afxinl1.obj
 0001:000846cc       ?RemoveAll@CObArray@@QAEXXZ 5f4856cc f afxinl1.obj
 0001:000846ee       ?GetAt@CObArray@@QBEPAVCObject@@H@Z 5f4856ee f afxinl1.obj
 0001:00084743       ?SetAt@CObArray@@QAEXHPAVCObject@@@Z 5f485743 f afxinl1.obj
 0001:0008479b       ?ElementAt@CObArray@@QAEAAPAVCObject@@H@Z 5f48579b f afxinl1.obj
 0001:000847f0       ?GetData@CObArray@@QBEPAPBVCObject@@XZ 5f4857f0 f afxinl1.obj
 0001:0008480c       ?GetData@CObArray@@QAEPAPAVCObject@@XZ 5f48580c f afxinl1.obj
 0001:00084828       ?Add@CObArray@@QAEHPAVCObject@@@Z 5f485828 f afxinl1.obj
 0001:0008485c       ??ACObArray@@QBEPAVCObject@@H@Z 5f48585c f afxinl1.obj
 0001:00084880       ??ACObArray@@QAEAAPAVCObject@@H@Z 5f485880 f afxinl1.obj
 0001:000848a4       ?GetSize@CStringArray@@QBEHXZ 5f4858a4 f afxinl1.obj
 0001:000848c0       ?GetUpperBound@CStringArray@@QBEHXZ 5f4858c0 f afxinl1.obj
 0001:000848dd       ?RemoveAll@CStringArray@@QAEXXZ 5f4858dd f afxinl1.obj
 0001:000848ff       ?GetAt@CStringArray@@QBE?AVCString@@H@Z 5f4858ff f afxinl1.obj
 0001:000849a7       ?SetAt@CStringArray@@QAEXHPBG@Z 5f4859a7 f afxinl1.obj
 0001:00084a05       ?ElementAt@CStringArray@@QAEAAVCString@@H@Z 5f485a05 f afxinl1.obj
 0001:00084a5a       ?GetData@CStringArray@@QBEPBVCString@@XZ 5f485a5a f afxinl1.obj
 0001:00084a76       ?GetData@CStringArray@@QAEPAVCString@@XZ 5f485a76 f afxinl1.obj
 0001:00084a92       ?Add@CStringArray@@QAEHPBG@Z 5f485a92 f afxinl1.obj
 0001:00084ac6       ??ACStringArray@@QBE?AVCString@@H@Z 5f485ac6 f afxinl1.obj
 0001:00084b38       ??ACStringArray@@QAEAAVCString@@H@Z 5f485b38 f afxinl1.obj
 0001:00084b5c       ?GetCount@CPtrList@@QBEHXZ 5f485b5c f afxinl1.obj
 0001:00084b78       ?IsEmpty@CPtrList@@QBEHXZ  5f485b78 f afxinl1.obj
 0001:00084ba7       ?GetHead@CPtrList@@QAEAAPAXXZ 5f485ba7 f afxinl1.obj
 0001:00084beb       ?GetHead@CPtrList@@QBEPAXXZ 5f485beb f afxinl1.obj
 0001:00084c2f       ?GetTail@CPtrList@@QAEAAPAXXZ 5f485c2f f afxinl1.obj
 0001:00084c73       ?GetTail@CPtrList@@QBEPAXXZ 5f485c73 f afxinl1.obj
 0001:00084cb7       ?GetHeadPosition@CPtrList@@QBEPAU__POSITION@@XZ 5f485cb7 f afxinl1.obj
 0001:00084cd3       ?GetTailPosition@CPtrList@@QBEPAU__POSITION@@XZ 5f485cd3 f afxinl1.obj
 0001:00084cef       ?GetNext@CPtrList@@QAEAAPAXAAPAU__POSITION@@@Z 5f485cef f afxinl1.obj
 0001:00084d4c       ?GetNext@CPtrList@@QBEPAXAAPAU__POSITION@@@Z 5f485d4c f afxinl1.obj
 0001:00084da9       ?GetPrev@CPtrList@@QAEAAPAXAAPAU__POSITION@@@Z 5f485da9 f afxinl1.obj
 0001:00084e07       ?GetPrev@CPtrList@@QBEPAXAAPAU__POSITION@@@Z 5f485e07 f afxinl1.obj
 0001:00084e65       ?GetAt@CPtrList@@QAEAAPAXPAU__POSITION@@@Z 5f485e65 f afxinl1.obj
 0001:00084eb6       ?GetAt@CPtrList@@QBEPAXPAU__POSITION@@@Z 5f485eb6 f afxinl1.obj
 0001:00084f07       ?SetAt@CPtrList@@QAEXPAU__POSITION@@PAX@Z 5f485f07 f afxinl1.obj
 0001:00084f5b       ?GetCount@CObList@@QBEHXZ  5f485f5b f afxinl1.obj
 0001:00084f77       ?IsEmpty@CObList@@QBEHXZ   5f485f77 f afxinl1.obj
 0001:00084fa6       ?GetHead@CObList@@QAEAAPAVCObject@@XZ 5f485fa6 f afxinl1.obj
 0001:00084fea       ?GetHead@CObList@@QBEPAVCObject@@XZ 5f485fea f afxinl1.obj
 0001:0008502e       ?GetTail@CObList@@QAEAAPAVCObject@@XZ 5f48602e f afxinl1.obj
 0001:00085072       ?GetTail@CObList@@QBEPAVCObject@@XZ 5f486072 f afxinl1.obj
 0001:000850b6       ?GetHeadPosition@CObList@@QBEPAU__POSITION@@XZ 5f4860b6 f afxinl1.obj
 0001:000850d2       ?GetTailPosition@CObList@@QBEPAU__POSITION@@XZ 5f4860d2 f afxinl1.obj
 0001:000850ee       ?GetNext@CObList@@QAEAAPAVCObject@@AAPAU__POSITION@@@Z 5f4860ee f afxinl1.obj
 0001:0008514b       ?GetNext@CObList@@QBEPAVCObject@@AAPAU__POSITION@@@Z 5f48614b f afxinl1.obj
 0001:000851a8       ?GetPrev@CObList@@QAEAAPAVCObject@@AAPAU__POSITION@@@Z 5f4861a8 f afxinl1.obj
 0001:00085206       ?GetPrev@CObList@@QBEPAVCObject@@AAPAU__POSITION@@@Z 5f486206 f afxinl1.obj
 0001:00085264       ?GetAt@CObList@@QAEAAPAVCObject@@PAU__POSITION@@@Z 5f486264 f afxinl1.obj
 0001:000852b5       ?GetAt@CObList@@QBEPAVCObject@@PAU__POSITION@@@Z 5f4862b5 f afxinl1.obj
 0001:00085306       ?SetAt@CObList@@QAEXPAU__POSITION@@PAVCObject@@@Z 5f486306 f afxinl1.obj
 0001:0008535a       ?GetCount@CStringList@@QBEHXZ 5f48635a f afxinl1.obj
 0001:00085376       ?IsEmpty@CStringList@@QBEHXZ 5f486376 f afxinl1.obj
 0001:000853a5       ?GetHead@CStringList@@QAEAAVCString@@XZ 5f4863a5 f afxinl1.obj
 0001:000853e9       ?GetHead@CStringList@@QBE?AVCString@@XZ 5f4863e9 f afxinl1.obj
 0001:00085482       ?GetTail@CStringList@@QAEAAVCString@@XZ 5f486482 f afxinl1.obj
 0001:000854c6       ?GetTail@CStringList@@QBE?AVCString@@XZ 5f4864c6 f afxinl1.obj
 0001:0008555f       ?GetHeadPosition@CStringList@@QBEPAU__POSITION@@XZ 5f48655f f afxinl1.obj
 0001:0008557b       ?GetTailPosition@CStringList@@QBEPAU__POSITION@@XZ 5f48657b f afxinl1.obj
 0001:00085597       ?GetNext@CStringList@@QAEAAVCString@@AAPAU__POSITION@@@Z 5f486597 f afxinl1.obj
 0001:000855f4       ?GetNext@CStringList@@QBE?AVCString@@AAPAU__POSITION@@@Z 5f4865f4 f afxinl1.obj
 0001:000856a4       ?GetPrev@CStringList@@QAEAAVCString@@AAPAU__POSITION@@@Z 5f4866a4 f afxinl1.obj
 0001:00085702       ?GetPrev@CStringList@@QBE?AVCString@@AAPAU__POSITION@@@Z 5f486702 f afxinl1.obj
 0001:000857b3       ?GetAt@CStringList@@QAEAAVCString@@PAU__POSITION@@@Z 5f4867b3 f afxinl1.obj
 0001:00085804       ?GetAt@CStringList@@QBE?AVCString@@PAU__POSITION@@@Z 5f486804 f afxinl1.obj
 0001:000858a8       ?SetAt@CStringList@@QAEXPAU__POSITION@@PBG@Z 5f4868a8 f afxinl1.obj
 0001:00085902       ?GetCount@CMapWordToPtr@@QBEHXZ 5f486902 f afxinl1.obj
 0001:0008591e       ?IsEmpty@CMapWordToPtr@@QBEHXZ 5f48691e f afxinl1.obj
 0001:0008594d       ?SetAt@CMapWordToPtr@@QAEXGPAX@Z 5f48694d f afxinl1.obj
 0001:0008597c       ?GetStartPosition@CMapWordToPtr@@QBEPAU__POSITION@@XZ 5f48697c f afxinl1.obj
 0001:000859ab       ?GetHashTableSize@CMapWordToPtr@@QBEIXZ 5f4869ab f afxinl1.obj
 0001:000859c7       ?GetCount@CMapPtrToWord@@QBEHXZ 5f4869c7 f afxinl1.obj
 0001:000859e3       ?IsEmpty@CMapPtrToWord@@QBEHXZ 5f4869e3 f afxinl1.obj
 0001:00085a12       ?SetAt@CMapPtrToWord@@QAEXPAXG@Z 5f486a12 f afxinl1.obj
 0001:00085a43       ?GetStartPosition@CMapPtrToWord@@QBEPAU__POSITION@@XZ 5f486a43 f afxinl1.obj
 0001:00085a72       ?GetHashTableSize@CMapPtrToWord@@QBEIXZ 5f486a72 f afxinl1.obj
 0001:00085a8e       ?GetCount@CMapPtrToPtr@@QBEHXZ 5f486a8e f afxinl1.obj
 0001:00085aaa       ?IsEmpty@CMapPtrToPtr@@QBEHXZ 5f486aaa f afxinl1.obj
 0001:00085ad9       ?SetAt@CMapPtrToPtr@@QAEXPAX0@Z 5f486ad9 f afxinl1.obj
 0001:00085b08       ?GetStartPosition@CMapPtrToPtr@@QBEPAU__POSITION@@XZ 5f486b08 f afxinl1.obj
 0001:00085b37       ?GetHashTableSize@CMapPtrToPtr@@QBEIXZ 5f486b37 f afxinl1.obj
 0001:00085b53       ?GetCount@CMapWordToOb@@QBEHXZ 5f486b53 f afxinl1.obj
 0001:00085b6f       ?IsEmpty@CMapWordToOb@@QBEHXZ 5f486b6f f afxinl1.obj
 0001:00085b9e       ?SetAt@CMapWordToOb@@QAEXGPAVCObject@@@Z 5f486b9e f afxinl1.obj
 0001:00085bcd       ?GetStartPosition@CMapWordToOb@@QBEPAU__POSITION@@XZ 5f486bcd f afxinl1.obj
 0001:00085bfc       ?GetHashTableSize@CMapWordToOb@@QBEIXZ 5f486bfc f afxinl1.obj
 0001:00085c18       ?GetCount@CMapStringToPtr@@QBEHXZ 5f486c18 f afxinl1.obj
 0001:00085c34       ?IsEmpty@CMapStringToPtr@@QBEHXZ 5f486c34 f afxinl1.obj
 0001:00085c63       ?SetAt@CMapStringToPtr@@QAEXPBGPAX@Z 5f486c63 f afxinl1.obj
 0001:00085c92       ?GetStartPosition@CMapStringToPtr@@QBEPAU__POSITION@@XZ 5f486c92 f afxinl1.obj
 0001:00085cc1       ?GetHashTableSize@CMapStringToPtr@@QBEIXZ 5f486cc1 f afxinl1.obj
 0001:00085cdd       ?GetCount@CMapStringToOb@@QBEHXZ 5f486cdd f afxinl1.obj
 0001:00085cf9       ?IsEmpty@CMapStringToOb@@QBEHXZ 5f486cf9 f afxinl1.obj
 0001:00085d28       ?SetAt@CMapStringToOb@@QAEXPBGPAVCObject@@@Z 5f486d28 f afxinl1.obj
 0001:00085d57       ?GetStartPosition@CMapStringToOb@@QBEPAU__POSITION@@XZ 5f486d57 f afxinl1.obj
 0001:00085d86       ?GetHashTableSize@CMapStringToOb@@QBEIXZ 5f486d86 f afxinl1.obj
 0001:00085da2       ?GetCount@CMapStringToString@@QBEHXZ 5f486da2 f afxinl1.obj
 0001:00085dbe       ?IsEmpty@CMapStringToString@@QBEHXZ 5f486dbe f afxinl1.obj
 0001:00085ded       ?SetAt@CMapStringToString@@QAEXPBG0@Z 5f486ded f afxinl1.obj
 0001:00085e1c       ?GetStartPosition@CMapStringToString@@QBEPAU__POSITION@@XZ 5f486e1c f afxinl1.obj
 0001:00085e4b       ?GetHashTableSize@CMapStringToString@@QBEIXZ 5f486e4b f afxinl1.obj
 0001:00085e67       ??0CCommonDialog@@QAE@PAVCWnd@@@Z 5f486e67 f afxinl1.obj
 0001:00085ede       ?GetReadOnlyPref@CFileDialog@@QBEHXZ 5f486ede f afxinl1.obj
 0001:00085f10       ?SetTemplate@CFileDialog@@QAEXII@Z 5f486f10 f afxinl1.obj
 0001:00085f42       ?GetStartPosition@CFileDialog@@QBEPAU__POSITION@@XZ 5f486f42 f afxinl1.obj
 0001:00085f5e       ?GetFaceName@CFontDialog@@QBE?AVCString@@XZ 5f486f5e f afxinl1.obj
 0001:00085fd2       ?GetStyleName@CFontDialog@@QBE?AVCString@@XZ 5f486fd2 f afxinl1.obj
 0001:00086046       ?GetSize@CFontDialog@@QBEHXZ 5f487046 f afxinl1.obj
 0001:00086062       ?GetWeight@CFontDialog@@QBEHXZ 5f487062 f afxinl1.obj
 0001:00086081       ?IsItalic@CFontDialog@@QBEHXZ 5f487081 f afxinl1.obj
 0001:000860b6       ?IsStrikeOut@CFontDialog@@QBEHXZ 5f4870b6 f afxinl1.obj
 0001:000860eb       ?IsBold@CFontDialog@@QBEHXZ 5f4870eb f afxinl1.obj
 0001:00086120       ?IsUnderline@CFontDialog@@QBEHXZ 5f487120 f afxinl1.obj
 0001:00086155       ?GetColor@CFontDialog@@QBEKXZ 5f487155 f afxinl1.obj
 0001:00086171       ?GetColor@CColorDialog@@QBEKXZ 5f487171 f afxinl1.obj
 0001:0008618d       ?PrintSelection@CPrintDialog@@QBEHXZ 5f48718d f afxinl1.obj
 0001:000861bf       ?PrintRange@CPrintDialog@@QBEHXZ 5f4871bf f afxinl1.obj
 0001:000861f1       ?PrintAll@CPrintDialog@@QBEHXZ 5f4871f1 f afxinl1.obj
 0001:00086233       ?PrintCollate@CPrintDialog@@QBEHXZ 5f487233 f afxinl1.obj
 0001:00086265       ?GetFromPage@CPrintDialog@@QBEHXZ 5f487265 f afxinl1.obj
 0001:000862a3       ?GetToPage@CPrintDialog@@QBEHXZ 5f4872a3 f afxinl1.obj
 0001:000862e1       ?GetPrinterDC@CPrintDialog@@QBEPAUHDC__@@XZ 5f4872e1 f afxinl1.obj
 0001:00086335       ?IsTerminating@CFindReplaceDialog@@QBEHXZ 5f487335 f afxinl1.obj
 0001:00086364       ?GetReplaceString@CFindReplaceDialog@@QBE?AVCString@@XZ 5f487364 f afxinl1.obj
 0001:000863d5       ?GetFindString@CFindReplaceDialog@@QBE?AVCString@@XZ 5f4873d5 f afxinl1.obj
 0001:00086446       ?SearchDown@CFindReplaceDialog@@QBEHXZ 5f487446 f afxinl1.obj
 0001:00086475       ?FindNext@CFindReplaceDialog@@QBEHXZ 5f487475 f afxinl1.obj
 0001:000864a4       ?MatchCase@CFindReplaceDialog@@QBEHXZ 5f4874a4 f afxinl1.obj
 0001:000864d3       ?MatchWholeWord@CFindReplaceDialog@@QBEHXZ 5f4874d3 f afxinl1.obj
 0001:00086502       ?ReplaceCurrent@CFindReplaceDialog@@QBEHXZ 5f487502 f afxinl1.obj
 0001:00086531       ?ReplaceAll@CFindReplaceDialog@@QBEHXZ 5f487531 f afxinl1.obj
 0001:00086560       ?GetPage@CPropertySheet@@QBEPAVCPropertyPage@@H@Z 5f487560 f afxinl1.obj
 0001:00086595       ?SetWizardMode@CPropertySheet@@QAEXXZ 5f487595 f afxinl1.obj
 0001:000865b2       ?SetFinishText@CPropertySheet@@QAEXPBG@Z 5f4875b2 f afxinl1.obj
 0001:0008660c       ?SetWizardButtons@CPropertySheet@@QAEXK@Z 5f48760c f afxinl1.obj
 0001:00086666       ?GetTabControl@CPropertySheet@@QBEPAVCTabCtrl@@XZ 5f487666 f afxinl1.obj
 0001:000866c2       ?PressButton@CPropertySheet@@QAEHH@Z 5f4876c2 f afxinl1.obj
 0001:0008671c       ?GetPaperSize@CPageSetupDialog@@QBE?AVCSize@@XZ 5f48771c f afxinl1.obj
 0001:0008674d       ??0CCreateContext@@QAE@XZ  5f48774d f afxinl1.obj
 0001:00086776       ?Create@CMetaFileDC@@QAEHPBG@Z 5f487776 f afxinl1.obj
 0001:000867a1       ?Close@CMetaFileDC@@QAEPAUHMETAFILE__@@XZ 5f4877a1 f afxinl1.obj
 0001:000867c6       ?CreateEnhanced@CMetaFileDC@@QAEHPAVCDC@@PBGPBUtagRECT@@1@Z 5f4877c6 f afxinl1.obj
 0001:00086802       ?CloseEnhanced@CMetaFileDC@@QAEPAUHENHMETAFILE__@@XZ 5f487802 f afxinl1.obj
 0001:00086827       ?SetViewportOrg@CMetaFileDC@@QAE?AVCPoint@@UtagPOINT@@@Z 5f487827 f afxinl1.obj
 0001:0008687b       ?SetViewportExt@CMetaFileDC@@QAE?AVCSize@@UtagSIZE@@@Z 5f48787b f afxinl1.obj
 0001:000868cf       ?TextOutW@CMetaFileDC@@QAEHHHABVCString@@@Z 5f4878cf f afxinl1.obj
 0001:0008692e       ?ExtTextOutW@CMetaFileDC@@QAEHHHIPBUtagRECT@@ABVCString@@PAH@Z 5f48792e f afxinl1.obj
 0001:0008699b       ?TabbedTextOutW@CMetaFileDC@@QAE?AVCSize@@HHABVCString@@HPAHH@Z 5f48799b f afxinl1.obj
 0001:00086a14       ?DrawTextW@CMetaFileDC@@QAEHABVCString@@PAUtagRECT@@I@Z 5f487a14 f afxinl1.obj
 0001:00086a73       ?PtVisible@CMetaFileDC@@QBEHUtagPOINT@@@Z 5f487a73 f afxinl1.obj
 0001:00086ac0       ?GetRowCount@CSplitterWnd@@QBEHXZ 5f487ac0 f afxinl1.obj
 0001:00086adc       ?GetColumnCount@CSplitterWnd@@QBEHXZ 5f487adc f afxinl1.obj
 0001:00086af8       ?IsChildPane@CSplitterWnd@@QAEHPAVCWnd@@AAH1@Z 5f487af8 f afxinl1.obj
 0001:00086b24       ?GetActivePane@CSplitterWnd@@IAEPAVCWnd@@AAH0@Z 5f487b24 f afxinl1.obj
 0001:00086b52       ?IsTracking@CSplitterWnd@@QAEHXZ 5f487b52 f afxinl1.obj
 0001:00086b71       ?GetCount@CControlBar@@QBEHXZ 5f487b71 f afxinl1.obj
 0001:00086b8d       ?GetBarStyle@CControlBar@@QAEKXZ 5f487b8d f afxinl1.obj
 0001:00086ba9       ?LoadToolBar@CToolBar@@QAEHI@Z 5f487ba9 f afxinl1.obj
 0001:00086bd2       ?LoadBitmapW@CToolBar@@QAEHI@Z 5f487bd2 f afxinl1.obj
 0001:00086bfb       ?GetToolBarCtrl@CToolBar@@QBEAAVCToolBarCtrl@@XZ 5f487bfb f afxinl1.obj
 0001:00086c14       ?Create@CDialogBar@@QAEHPAVCWnd@@III@Z 5f487c14 f afxinl1.obj
 0001:00086c49       ?GetStatusBarCtrl@CStatusBar@@QBEAAVCStatusBarCtrl@@XZ 5f487c49 f afxinl1.obj
 0001:00086c62       ?EnableDocking@CStatusBar@@QAEXK@Z 5f487c62 f afxinl1.obj
 0001:00086c8f       ??0CRectTracker@@QAE@XZ    5f487c8f f afxinl1.obj
 0001:00086ce5       ??0CBitmapButton@@QAE@XZ   5f487ce5 f afxinl1.obj
 0001:00086dc0       ?LoadBitmaps@CBitmapButton@@QAEHIIII@Z 5f487dc0 f afxinl1.obj
 0001:00086e04       ?SetMinPage@CPrintInfo@@QAEXI@Z 5f487e04 f afxinl1.obj
 0001:00086e2b       ?SetMaxPage@CPrintInfo@@QAEXI@Z 5f487e2b f afxinl1.obj
 0001:00086e52       ?GetMinPage@CPrintInfo@@QBEIXZ 5f487e52 f afxinl1.obj
 0001:00086e78       ?GetMaxPage@CPrintInfo@@QBEIXZ 5f487e78 f afxinl1.obj
 0001:00086e9e       ?GetFromPage@CPrintInfo@@QBEIXZ 5f487e9e f afxinl1.obj
 0001:00086ec4       ?GetToPage@CPrintInfo@@QBEIXZ 5f487ec4 f afxinl1.obj
 0001:00086eea       ?GetEditCtrl@CEditView@@QBEAAVCEdit@@XZ 5f487eea f afxinl1.obj
 0001:00086f10       ??_ECObject@@UAEPAXI@Z     5f487f10 f afxinl1.obj
 0001:00086f10       ??_GCObject@@UAEPAXI@Z     5f487f10 f afxinl1.obj
 0001:00086f50       ??_GCSimpleException@@UAEPAXI@Z 5f487f50 f afxinl1.obj
 0001:00086f50       ??_ECSimpleException@@UAEPAXI@Z 5f487f50 f afxinl1.obj
 0001:00086f90       ??_GCMemoryException@@UAEPAXI@Z 5f487f90 f afxinl1.obj
 0001:00086f90       ??_ECMemoryException@@UAEPAXI@Z 5f487f90 f afxinl1.obj
 0001:00086fd0       ??_GCNotSupportedException@@UAEPAXI@Z 5f487fd0 f afxinl1.obj
 0001:00086fd0       ??_ECNotSupportedException@@UAEPAXI@Z 5f487fd0 f afxinl1.obj
 0001:00087010       ??_ECArchiveException@@UAEPAXI@Z 5f488010 f afxinl1.obj
 0001:00087010       ??_GCArchiveException@@UAEPAXI@Z 5f488010 f afxinl1.obj
 0001:00087050       ??_GCFileException@@UAEPAXI@Z 5f488050 f afxinl1.obj
 0001:00087050       ??_ECFileException@@UAEPAXI@Z 5f488050 f afxinl1.obj
 0001:00087090       ??_ECCommonDialog@@UAEPAXI@Z 5f488090 f afxinl1.obj
 0001:00087090       ??_GCCommonDialog@@UAEPAXI@Z 5f488090 f afxinl1.obj
 0001:000870d0       ??1CCommonDialog@@UAE@XZ   5f4880d0 f afxinl1.obj
 0001:00087130       ??_GCRectTracker@@UAEPAXI@Z 5f488130 f afxinl1.obj
 0001:00087170       ??_GCBitmapButton@@UAEPAXI@Z 5f488170 f afxinl1.obj
 0001:000871b0       ??1CBitmapButton@@UAE@XZ   5f4881b0 f afxinl1.obj
 0001:00087280       ?_AfxTraceMsg@@YGXPBGPBUtagMSG@@@Z 5f488280 f afxtrace.obj
 0001:00087780       ?AfxGetApp@@YGPAVCWinApp@@XZ 5f488780 f afxinl2.obj
 0001:00087798       ?AfxGetInstanceHandle@@YGPAUHINSTANCE__@@XZ 5f488798 f afxinl2.obj
 0001:000877d4       ?AfxGetResourceHandle@@YGPAUHINSTANCE__@@XZ 5f4887d4 f afxinl2.obj
 0001:00087810       ?AfxSetResourceHandle@@YGXPAUHINSTANCE__@@@Z 5f488810 f afxinl2.obj
 0001:00087855       ?AfxGetAppName@@YGPBGXZ    5f488855 f afxinl2.obj
 0001:00087891       ?AfxOleGetMessageFilter@@YGPAVCOleMessageFilter@@XZ 5f488891 f afxinl2.obj
 0001:000878bb       ?AfxGetMainWnd@@YGPAVCWnd@@XZ 5f4888bb f afxinl2.obj
 0001:000878fb       ??0AFX_MAINTAIN_STATE@@QAE@PAVAFX_MODULE_STATE@@@Z 5f4888fb f afxinl2.obj
 0001:00087924       ??0CSize@@QAE@XZ           5f488924 f afxinl2.obj
 0001:0008793d       ??0CSize@@QAE@HH@Z         5f48893d f afxinl2.obj
 0001:00087969       ??0CSize@@QAE@UtagSIZE@@@Z 5f488969 f afxinl2.obj
 0001:00087992       ??0CSize@@QAE@UtagPOINT@@@Z 5f488992 f afxinl2.obj
 0001:000879bb       ??0CSize@@QAE@K@Z          5f4889bb f afxinl2.obj
 0001:000879f3       ??8CSize@@QBEHUtagSIZE@@@Z 5f4889f3 f afxinl2.obj
 0001:00087a34       ??9CSize@@QBEHUtagSIZE@@@Z 5f488a34 f afxinl2.obj
 0001:00087a75       ??YCSize@@QAEXUtagSIZE@@@Z 5f488a75 f afxinl2.obj
 0001:00087a9e       ??ZCSize@@QAEXUtagSIZE@@@Z 5f488a9e f afxinl2.obj
 0001:00087acf       ??HCSize@@QBE?AV0@UtagSIZE@@@Z 5f488acf f afxinl2.obj
 0001:00087b05       ??GCSize@@QBE?AV0@UtagSIZE@@@Z 5f488b05 f afxinl2.obj
 0001:00087b3b       ??GCSize@@QBE?AV0@XZ       5f488b3b f afxinl2.obj
 0001:00087b6f       ??HCSize@@QBE?AVCPoint@@UtagPOINT@@@Z 5f488b6f f afxinl2.obj
 0001:00087ba5       ??GCSize@@QBE?AVCPoint@@UtagPOINT@@@Z 5f488ba5 f afxinl2.obj
 0001:00087bdb       ??HCSize@@QBE?AVCRect@@PBUtagRECT@@@Z 5f488bdb f afxinl2.obj
 0001:00087c17       ??GCSize@@QBE?AVCRect@@PBUtagRECT@@@Z 5f488c17 f afxinl2.obj
 0001:00087c53       ??0CPoint@@QAE@XZ          5f488c53 f afxinl2.obj
 0001:00087c6c       ??0CPoint@@QAE@HH@Z        5f488c6c f afxinl2.obj
 0001:00087c98       ??0CPoint@@QAE@UtagPOINT@@@Z 5f488c98 f afxinl2.obj
 0001:00087cc1       ??0CPoint@@QAE@UtagSIZE@@@Z 5f488cc1 f afxinl2.obj
 0001:00087cea       ??0CPoint@@QAE@K@Z         5f488cea f afxinl2.obj
 0001:00087d22       ?Offset@CPoint@@QAEXHH@Z   5f488d22 f afxinl2.obj
 0001:00087d4b       ?Offset@CPoint@@QAEXUtagPOINT@@@Z 5f488d4b f afxinl2.obj
 0001:00087d74       ?Offset@CPoint@@QAEXUtagSIZE@@@Z 5f488d74 f afxinl2.obj
 0001:00087d9d       ??8CPoint@@QBEHUtagPOINT@@@Z 5f488d9d f afxinl2.obj
 0001:00087dde       ??9CPoint@@QBEHUtagPOINT@@@Z 5f488dde f afxinl2.obj
 0001:00087e1f       ??YCPoint@@QAEXUtagSIZE@@@Z 5f488e1f f afxinl2.obj
 0001:00087e48       ??ZCPoint@@QAEXUtagSIZE@@@Z 5f488e48 f afxinl2.obj
 0001:00087e79       ??YCPoint@@QAEXUtagPOINT@@@Z 5f488e79 f afxinl2.obj
 0001:00087ea2       ??ZCPoint@@QAEXUtagPOINT@@@Z 5f488ea2 f afxinl2.obj
 0001:00087ed3       ??HCPoint@@QBE?AV0@UtagSIZE@@@Z 5f488ed3 f afxinl2.obj
 0001:00087f09       ??GCPoint@@QBE?AV0@UtagSIZE@@@Z 5f488f09 f afxinl2.obj
 0001:00087f3f       ??GCPoint@@QBE?AV0@XZ      5f488f3f f afxinl2.obj
 0001:00087f73       ??HCPoint@@QBE?AV0@UtagPOINT@@@Z 5f488f73 f afxinl2.obj
 0001:00087fa9       ??GCPoint@@QBE?AVCSize@@UtagPOINT@@@Z 5f488fa9 f afxinl2.obj
 0001:00087fdf       ??HCPoint@@QBE?AVCRect@@PBUtagRECT@@@Z 5f488fdf f afxinl2.obj
 0001:0008801b       ??GCPoint@@QBE?AVCRect@@PBUtagRECT@@@Z 5f48901b f afxinl2.obj
 0001:00088057       ??0CRect@@QAE@XZ           5f489057 f afxinl2.obj
 0001:00088070       ??0CRect@@QAE@HHHH@Z       5f489070 f afxinl2.obj
 0001:000880ae       ??0CRect@@QAE@ABUtagRECT@@@Z 5f4890ae f afxinl2.obj
 0001:000880d7       ??0CRect@@QAE@PBUtagRECT@@@Z 5f4890d7 f afxinl2.obj
 0001:00088100       ??0CRect@@QAE@UtagPOINT@@UtagSIZE@@@Z 5f489100 f afxinl2.obj
 0001:00088149       ??0CRect@@QAE@UtagPOINT@@0@Z 5f489149 f afxinl2.obj
 0001:00088187       ?Width@CRect@@QBEHXZ       5f489187 f afxinl2.obj
 0001:000881a8       ?Height@CRect@@QBEHXZ      5f4891a8 f afxinl2.obj
 0001:000881ca       ?Size@CRect@@QBE?AVCSize@@XZ 5f4891ca f afxinl2.obj
 0001:00088206       ?TopLeft@CRect@@QAEAAVCPoint@@XZ 5f489206 f afxinl2.obj
 0001:0008821f       ?BottomRight@CRect@@QAEAAVCPoint@@XZ 5f48921f f afxinl2.obj
 0001:0008823b       ?TopLeft@CRect@@QBEABVCPoint@@XZ 5f48923b f afxinl2.obj
 0001:00088254       ?BottomRight@CRect@@QBEABVCPoint@@XZ 5f489254 f afxinl2.obj
 0001:00088270       ?CenterPoint@CRect@@QBE?AVCPoint@@XZ 5f489270 f afxinl2.obj
 0001:000882b8       ??BCRect@@QAEPAUtagRECT@@XZ 5f4892b8 f afxinl2.obj
 0001:000882d1       ??BCRect@@QBEPBUtagRECT@@XZ 5f4892d1 f afxinl2.obj
 0001:000882ea       ?IsRectEmpty@CRect@@QBEHXZ 5f4892ea f afxinl2.obj
 0001:0008830a       ?IsRectNull@CRect@@QBEHXZ  5f48930a f afxinl2.obj
 0001:0008835f       ?PtInRect@CRect@@QBEHUtagPOINT@@@Z 5f48935f f afxinl2.obj
 0001:00088389       ?SetRect@CRect@@QAEXHHHH@Z 5f489389 f afxinl2.obj
 0001:000883bb       ?SetRect@CRect@@QAEXUtagPOINT@@0@Z 5f4893bb f afxinl2.obj
 0001:000883ed       ?SetRectEmpty@CRect@@QAEXXZ 5f4893ed f afxinl2.obj
 0001:0008840d       ?CopyRect@CRect@@QAEXPBUtagRECT@@@Z 5f48940d f afxinl2.obj
 0001:00088433       ?EqualRect@CRect@@QBEHPBUtagRECT@@@Z 5f489433 f afxinl2.obj
 0001:00088459       ?InflateRect@CRect@@QAEXHH@Z 5f489459 f afxinl2.obj
 0001:00088483       ?InflateRect@CRect@@QAEXUtagSIZE@@@Z 5f489483 f afxinl2.obj
 0001:000884ad       ?DeflateRect@CRect@@QAEXHH@Z 5f4894ad f afxinl2.obj
 0001:000884db       ?DeflateRect@CRect@@QAEXUtagSIZE@@@Z 5f4894db f afxinl2.obj
 0001:00088509       ?OffsetRect@CRect@@QAEXHH@Z 5f489509 f afxinl2.obj
 0001:00088533       ?OffsetRect@CRect@@QAEXUtagPOINT@@@Z 5f489533 f afxinl2.obj
 0001:0008855d       ?OffsetRect@CRect@@QAEXUtagSIZE@@@Z 5f48955d f afxinl2.obj
 0001:00088587       ?IntersectRect@CRect@@QAEHPBUtagRECT@@0@Z 5f489587 f afxinl2.obj
 0001:000885b1       ?UnionRect@CRect@@QAEHPBUtagRECT@@0@Z 5f4895b1 f afxinl2.obj
 0001:000885db       ??4CRect@@QAEXABUtagRECT@@@Z 5f4895db f afxinl2.obj
 0001:00088601       ??8CRect@@QBEHABUtagRECT@@@Z 5f489601 f afxinl2.obj
 0001:00088627       ??9CRect@@QBEHABUtagRECT@@@Z 5f489627 f afxinl2.obj
 0001:00088661       ??YCRect@@QAEXUtagPOINT@@@Z 5f489661 f afxinl2.obj
 0001:0008868b       ??YCRect@@QAEXUtagSIZE@@@Z 5f48968b f afxinl2.obj
 0001:000886b5       ??YCRect@@QAEXPBUtagRECT@@@Z 5f4896b5 f afxinl2.obj
 0001:000886d9       ??ZCRect@@QAEXUtagPOINT@@@Z 5f4896d9 f afxinl2.obj
 0001:00088707       ??ZCRect@@QAEXUtagSIZE@@@Z 5f489707 f afxinl2.obj
 0001:00088735       ??ZCRect@@QAEXPBUtagRECT@@@Z 5f489735 f afxinl2.obj
 0001:00088759       ??_4CRect@@QAEXABUtagRECT@@@Z 5f489759 f afxinl2.obj
 0001:00088783       ??_5CRect@@QAEXABUtagRECT@@@Z 5f489783 f afxinl2.obj
 0001:000887ad       ??HCRect@@QBE?AV0@UtagPOINT@@@Z 5f4897ad f afxinl2.obj
 0001:00088812       ??GCRect@@QBE?AV0@UtagPOINT@@@Z 5f489812 f afxinl2.obj
 0001:0008887b       ??HCRect@@QBE?AV0@UtagSIZE@@@Z 5f48987b f afxinl2.obj
 0001:000888e0       ??GCRect@@QBE?AV0@UtagSIZE@@@Z 5f4898e0 f afxinl2.obj
 0001:00088949       ??HCRect@@QBE?AV0@PBUtagRECT@@@Z 5f489949 f afxinl2.obj
 0001:00088998       ??GCRect@@QBE?AV0@PBUtagRECT@@@Z 5f489998 f afxinl2.obj
 0001:000889e7       ??ICRect@@QBE?AV0@ABUtagRECT@@@Z 5f4899e7 f afxinl2.obj
 0001:00088a38       ??UCRect@@QBE?AV0@ABUtagRECT@@@Z 5f489a38 f afxinl2.obj
 0001:00088a89       ?SubtractRect@CRect@@QAEHPBUtagRECT@@0@Z 5f489a89 f afxinl2.obj
 0001:00088ab3       ??6@YGAAVCArchive@@AAV0@UtagSIZE@@@Z 5f489ab3 f afxinl2.obj
 0001:00088ad6       ??6@YGAAVCArchive@@AAV0@UtagPOINT@@@Z 5f489ad6 f afxinl2.obj
 0001:00088af9       ??6@YGAAVCArchive@@AAV0@ABUtagRECT@@@Z 5f489af9 f afxinl2.obj
 0001:00088b1c       ??5@YGAAVCArchive@@AAV0@AAUtagSIZE@@@Z 5f489b1c f afxinl2.obj
 0001:00088b3f       ??5@YGAAVCArchive@@AAV0@AAUtagPOINT@@@Z 5f489b3f f afxinl2.obj
 0001:00088b62       ??5@YGAAVCArchive@@AAV0@AAUtagRECT@@@Z 5f489b62 f afxinl2.obj
 0001:00088b85       ??0CResourceException@@QAE@XZ 5f489b85 f afxinl2.obj
 0001:00088bf4       ??0CResourceException@@QAE@HI@Z 5f489bf4 f afxinl2.obj
 0001:00088c75       ??1CResourceException@@UAE@XZ 5f489c75 f afxinl2.obj
 0001:00088cdd       ??0CUserException@@QAE@XZ  5f489cdd f afxinl2.obj
 0001:00088d4c       ??0CUserException@@QAE@HI@Z 5f489d4c f afxinl2.obj
 0001:00088dcd       ??1CUserException@@UAE@XZ  5f489dcd f afxinl2.obj
 0001:00088e35       ??BCGdiObject@@QBEPAXXZ    5f489e35 f afxinl2.obj
 0001:00088e62       ?GetSafeHandle@CGdiObject@@QBEPAXXZ 5f489e62 f afxinl2.obj
 0001:00088e8f       ??0CGdiObject@@QAE@XZ      5f489e8f f afxinl2.obj
 0001:00088f08       ??1CGdiObject@@UAE@XZ      5f489f08 f afxinl2.obj
 0001:00088f78       ?GetObjectW@CGdiObject@@QBEHHPAX@Z 5f489f78 f afxinl2.obj
 0001:00088fca       ?CreateStockObject@CGdiObject@@QAEHH@Z 5f489fca f afxinl2.obj
 0001:0008900b       ?UnrealizeObject@CGdiObject@@QAEHXZ 5f48a00b f afxinl2.obj
 0001:00089053       ?GetObjectType@CGdiObject@@QBEIXZ 5f48a053 f afxinl2.obj
 0001:00089076       ??BCPen@@QBEPAUHPEN__@@XZ  5f48a076 f afxinl2.obj
 0001:000890a3       ?FromHandle@CPen@@SGPAV1@PAUHPEN__@@@Z 5f48a0a3 f afxinl2.obj
 0001:000890be       ??0CPen@@QAE@XZ            5f48a0be f afxinl2.obj
 0001:0008912d       ??1CPen@@UAE@XZ            5f48a12d f afxinl2.obj
 0001:00089195       ?CreatePen@CPen@@QAEHHHK@Z 5f48a195 f afxinl2.obj
 0001:000891c8       ?CreatePenIndirect@CPen@@QAEHPAUtagLOGPEN@@@Z 5f48a1c8 f afxinl2.obj
 0001:000891f3       ?CreatePen@CPen@@QAEHHHPBUtagLOGBRUSH@@HPBK@Z 5f48a1f3 f afxinl2.obj
 0001:0008922e       ?GetExtLogPen@CPen@@QAEHPAUtagEXTLOGPEN@@@Z 5f48a22e f afxinl2.obj
 0001:0008927e       ?GetLogPen@CPen@@QAEHPAUtagLOGPEN@@@Z 5f48a27e f afxinl2.obj
 0001:000892ce       ??BCBrush@@QBEPAUHBRUSH__@@XZ 5f48a2ce f afxinl2.obj
 0001:000892fb       ?FromHandle@CBrush@@SGPAV1@PAUHBRUSH__@@@Z 5f48a2fb f afxinl2.obj
 0001:00089316       ??0CBrush@@QAE@XZ          5f48a316 f afxinl2.obj
 0001:00089385       ??1CBrush@@UAE@XZ          5f48a385 f afxinl2.obj
 0001:000893ed       ?CreateSolidBrush@CBrush@@QAEHK@Z 5f48a3ed f afxinl2.obj
 0001:00089418       ?CreateHatchBrush@CBrush@@QAEHHK@Z 5f48a418 f afxinl2.obj
 0001:00089447       ?CreateBrushIndirect@CBrush@@QAEHPBUtagLOGBRUSH@@@Z 5f48a447 f afxinl2.obj
 0001:00089472       ?CreatePatternBrush@CBrush@@QAEHPAVCBitmap@@@Z 5f48a472 f afxinl2.obj
 0001:000894a2       ?CreateDIBPatternBrush@CBrush@@QAEHPBXI@Z 5f48a4a2 f afxinl2.obj
 0001:000894d1       ?CreateSysColorBrush@CBrush@@QAEHH@Z 5f48a4d1 f afxinl2.obj
 0001:000894fc       ?GetLogBrush@CBrush@@QAEHPAUtagLOGBRUSH@@@Z 5f48a4fc f afxinl2.obj
 0001:0008954c       ??BCFont@@QBEPAUHFONT__@@XZ 5f48a54c f afxinl2.obj
 0001:00089579       ?FromHandle@CFont@@SGPAV1@PAUHFONT__@@@Z 5f48a579 f afxinl2.obj
 0001:00089594       ??0CFont@@QAE@XZ           5f48a594 f afxinl2.obj
 0001:00089603       ??1CFont@@UAE@XZ           5f48a603 f afxinl2.obj
 0001:0008966b       ?CreateFontIndirectW@CFont@@QAEHPBUtagLOGFONTW@@@Z 5f48a66b f afxinl2.obj
 0001:00089696       ?CreateFontW@CFont@@QAEHHHHHHEEEEEEEEPBG@Z 5f48a696 f afxinl2.obj
 0001:00089705       ?GetLogFont@CFont@@QAEHPAUtagLOGFONTW@@@Z 5f48a705 f afxinl2.obj
 0001:00089755       ??BCBitmap@@QBEPAUHBITMAP__@@XZ 5f48a755 f afxinl2.obj
 0001:00089782       ?FromHandle@CBitmap@@SGPAV1@PAUHBITMAP__@@@Z 5f48a782 f afxinl2.obj
 0001:0008979d       ??0CBitmap@@QAE@XZ         5f48a79d f afxinl2.obj
 0001:0008980c       ??1CBitmap@@UAE@XZ         5f48a80c f afxinl2.obj
 0001:00089874       ?CreateBitmap@CBitmap@@QAEHHHIIPBX@Z 5f48a874 f afxinl2.obj
 0001:000898af       ?CreateBitmapIndirect@CBitmap@@QAEHPAUtagBITMAP@@@Z 5f48a8af f afxinl2.obj
 0001:000898da       ?SetBitmapBits@CBitmap@@QAEKKPBX@Z 5f48a8da f afxinl2.obj
 0001:00089907       ?GetBitmapBits@CBitmap@@QBEKKPAX@Z 5f48a907 f afxinl2.obj
 0001:00089934       ?LoadBitmapW@CBitmap@@QAEHPBG@Z 5f48a934 f afxinl2.obj
 0001:0008996b       ?LoadMappedBitmap@CBitmap@@QAEHIIPAU_COLORMAP@@H@Z 5f48a96b f afxinl2.obj
 0001:000899b8       ?SetBitmapDimension@CBitmap@@QAE?AVCSize@@HH@Z 5f48a9b8 f afxinl2.obj
 0001:00089a1c       ?GetBitmapDimension@CBitmap@@QBE?AVCSize@@XZ 5f48aa1c f afxinl2.obj
 0001:00089a78       ?LoadBitmapW@CBitmap@@QAEHI@Z 5f48aa78 f afxinl2.obj
 0001:00089ab9       ?LoadOEMBitmap@CBitmap@@QAEHI@Z 5f48aab9 f afxinl2.obj
 0001:00089aeb       ?CreateCompatibleBitmap@CBitmap@@QAEHPAVCDC@@HH@Z 5f48aaeb f afxinl2.obj
 0001:00089b21       ?CreateDiscardableBitmap@CBitmap@@QAEHPAVCDC@@HH@Z 5f48ab21 f afxinl2.obj
 0001:00089b57       ?GetBitmap@CBitmap@@QAEHPAUtagBITMAP@@@Z 5f48ab57 f afxinl2.obj
 0001:00089ba7       ??BCPalette@@QBEPAUHPALETTE__@@XZ 5f48aba7 f afxinl2.obj
 0001:00089bd4       ?FromHandle@CPalette@@SGPAV1@PAUHPALETTE__@@@Z 5f48abd4 f afxinl2.obj
 0001:00089bef       ??0CPalette@@QAE@XZ        5f48abef f afxinl2.obj
 0001:00089c5e       ??1CPalette@@UAE@XZ        5f48ac5e f afxinl2.obj
 0001:00089cc6       ?CreatePalette@CPalette@@QAEHPAUtagLOGPALETTE@@@Z 5f48acc6 f afxinl2.obj
 0001:00089cf1       ?CreateHalftonePalette@CPalette@@QAEHPAVCDC@@@Z 5f48acf1 f afxinl2.obj
 0001:00089d4e       ?GetPaletteEntries@CPalette@@QBEIIIPAUtagPALETTEENTRY@@@Z 5f48ad4e f afxinl2.obj
 0001:00089da4       ?SetPaletteEntries@CPalette@@QAEIIIPAUtagPALETTEENTRY@@@Z 5f48ada4 f afxinl2.obj
 0001:00089dfa       ?AnimatePalette@CPalette@@QAEXIIPAUtagPALETTEENTRY@@@Z 5f48adfa f afxinl2.obj
 0001:00089e50       ?GetNearestPaletteIndex@CPalette@@QBEIK@Z 5f48ae50 f afxinl2.obj
 0001:00089e9e       ?ResizePalette@CPalette@@QAEHI@Z 5f48ae9e f afxinl2.obj
 0001:00089eec       ?GetEntryCount@CPalette@@QAEHXZ 5f48aeec f afxinl2.obj
 0001:00089f42       ??BCRgn@@QBEPAUHRGN__@@XZ  5f48af42 f afxinl2.obj
 0001:00089f6f       ?FromHandle@CRgn@@SGPAV1@PAUHRGN__@@@Z 5f48af6f f afxinl2.obj
 0001:00089f8a       ??0CRgn@@QAE@XZ            5f48af8a f afxinl2.obj
 0001:00089ff9       ??1CRgn@@UAE@XZ            5f48aff9 f afxinl2.obj
 0001:0008a061       ?CreateRectRgn@CRgn@@QAEHHHHH@Z 5f48b061 f afxinl2.obj
 0001:0008a098       ?CreateRectRgnIndirect@CRgn@@QAEHPBUtagRECT@@@Z 5f48b098 f afxinl2.obj
 0001:0008a0c3       ?CreateEllipticRgn@CRgn@@QAEHHHHH@Z 5f48b0c3 f afxinl2.obj
 0001:0008a0fa       ?CreateEllipticRgnIndirect@CRgn@@QAEHPBUtagRECT@@@Z 5f48b0fa f afxinl2.obj
 0001:0008a125       ?CreatePolygonRgn@CRgn@@QAEHPAUtagPOINT@@HH@Z 5f48b125 f afxinl2.obj
 0001:0008a158       ?CreatePolyPolygonRgn@CRgn@@QAEHPAUtagPOINT@@PAHHH@Z 5f48b158 f afxinl2.obj
 0001:0008a18f       ?CreateRoundRectRgn@CRgn@@QAEHHHHHHH@Z 5f48b18f f afxinl2.obj
 0001:0008a1ce       ?CreateFromPath@CRgn@@QAEHPAVCDC@@@Z 5f48b1ce f afxinl2.obj
 0001:0008a21e       ?CreateFromData@CRgn@@QAEHPBUtagXFORM@@HPBU_RGNDATA@@@Z 5f48b21e f afxinl2.obj
 0001:0008a251       ?GetRegionData@CRgn@@QBEHPAU_RGNDATA@@H@Z 5f48b251 f afxinl2.obj
 0001:0008a2a3       ?SetRectRgn@CRgn@@QAEXHHHH@Z 5f48b2a3 f afxinl2.obj
 0001:0008a2fd       ?SetRectRgn@CRgn@@QAEXPBUtagRECT@@@Z 5f48b2fd f afxinl2.obj
 0001:0008a362       ?CombineRgn@CRgn@@QAEHPAV1@0H@Z 5f48b362 f afxinl2.obj
 0001:0008a3c2       ?CopyRgn@CRgn@@QAEHPAV1@@Z 5f48b3c2 f afxinl2.obj
 0001:0008a419       ?EqualRgn@CRgn@@QBEHPAV1@@Z 5f48b419 f afxinl2.obj
 0001:0008a46c       ?OffsetRgn@CRgn@@QAEHHH@Z  5f48b46c f afxinl2.obj
 0001:0008a4be       ?OffsetRgn@CRgn@@QAEHUtagPOINT@@@Z 5f48b4be f afxinl2.obj
 0001:0008a510       ?GetRgnBox@CRgn@@QBEHPAUtagRECT@@@Z 5f48b510 f afxinl2.obj
 0001:0008a55e       ?PtInRegion@CRgn@@QBEHHH@Z 5f48b55e f afxinl2.obj
 0001:0008a5b0       ?PtInRegion@CRgn@@QBEHUtagPOINT@@@Z 5f48b5b0 f afxinl2.obj
 0001:0008a602       ?RectInRegion@CRgn@@QBEHPBUtagRECT@@@Z 5f48b602 f afxinl2.obj
 0001:0008a650       ??BCDC@@QBEPAUHDC__@@XZ    5f48b650 f afxinl2.obj
 0001:0008a67d       ?GetSafeHdc@CDC@@QBEPAUHDC__@@XZ 5f48b67d f afxinl2.obj
 0001:0008a6aa       ?GetWindow@CDC@@QBEPAVCWnd@@XZ 5f48b6aa f afxinl2.obj
 0001:0008a6f8       ?IsPrinting@CDC@@QBEHXZ    5f48b6f8 f afxinl2.obj
 0001:0008a714       ?CreateDCW@CDC@@QAEHPBG00PBX@Z 5f48b714 f afxinl2.obj
 0001:0008a74b       ?CreateICW@CDC@@QAEHPBG00PBX@Z 5f48b74b f afxinl2.obj
 0001:0008a782       ?CreateCompatibleDC@CDC@@QAEHPAV1@@Z 5f48b782 f afxinl2.obj
 0001:0008a7b2       ?ExcludeUpdateRgn@CDC@@QAEHPAVCWnd@@@Z 5f48b7b2 f afxinl2.obj
 0001:0008a803       ?GetDeviceCaps@CDC@@QBEHH@Z 5f48b803 f afxinl2.obj
 0001:0008a851       ?GetBrushOrg@CDC@@QBE?AVCPoint@@XZ 5f48b851 f afxinl2.obj
 0001:0008a8d2       ?SetBrushOrg@CDC@@QAE?AVCPoint@@HH@Z 5f48b8d2 f afxinl2.obj
 0001:0008a95b       ?SetBrushOrg@CDC@@QAE?AVCPoint@@UtagPOINT@@@Z 5f48b95b f afxinl2.obj
 0001:0008a9e4       ?EnumObjects@CDC@@QAEHHP6GHPAXJ@ZJ@Z 5f48b9e4 f afxinl2.obj
 0001:0008aa3a       ?SelectObject@CDC@@QAEPAVCBitmap@@PAV2@@Z 5f48ba3a f afxinl2.obj
 0001:0008aa8c       ?SelectObject@CDC@@QAEPAVCGdiObject@@PAV2@@Z 5f48ba8c f afxinl2.obj
 0001:0008aade       ?SelectObject@CDC@@QAEPAXPAX@Z 5f48bade f afxinl2.obj
 0001:0008ab42       ?GetNearestColor@CDC@@QBEKK@Z 5f48bb42 f afxinl2.obj
 0001:0008ab90       ?RealizePalette@CDC@@QAEIXZ 5f48bb90 f afxinl2.obj
 0001:0008abd8       ?UpdateColors@CDC@@QAEXXZ  5f48bbd8 f afxinl2.obj
 0001:0008ac20       ?GetBkColor@CDC@@QBEKXZ    5f48bc20 f afxinl2.obj
 0001:0008ac68       ?GetBkMode@CDC@@QBEHXZ     5f48bc68 f afxinl2.obj
 0001:0008acb0       ?GetPolyFillMode@CDC@@QBEHXZ 5f48bcb0 f afxinl2.obj
 0001:0008acf8       ?GetROP2@CDC@@QBEHXZ       5f48bcf8 f afxinl2.obj
 0001:0008ad40       ?GetStretchBltMode@CDC@@QBEHXZ 5f48bd40 f afxinl2.obj
 0001:0008ad88       ?GetTextColor@CDC@@QBEKXZ  5f48bd88 f afxinl2.obj
 0001:0008add0       ?GetMapMode@CDC@@QBEHXZ    5f48bdd0 f afxinl2.obj
 0001:0008ae18       ?GetViewportOrg@CDC@@QBE?AVCPoint@@XZ 5f48be18 f afxinl2.obj
 0001:0008ae99       ?GetViewportExt@CDC@@QBE?AVCSize@@XZ 5f48be99 f afxinl2.obj
 0001:0008af1a       ?GetWindowOrg@CDC@@QBE?AVCPoint@@XZ 5f48bf1a f afxinl2.obj
 0001:0008af9b       ?GetWindowExt@CDC@@QBE?AVCSize@@XZ 5f48bf9b f afxinl2.obj
 0001:0008b01c       ?SetViewportOrg@CDC@@QAE?AVCPoint@@UtagPOINT@@@Z 5f48c01c f afxinl2.obj
 0001:0008b073       ?SetViewportExt@CDC@@QAE?AVCSize@@UtagSIZE@@@Z 5f48c073 f afxinl2.obj
 0001:0008b0ca       ?SetWindowOrg@CDC@@QAE?AVCPoint@@UtagPOINT@@@Z 5f48c0ca f afxinl2.obj
 0001:0008b11e       ?SetWindowExt@CDC@@QAE?AVCSize@@UtagSIZE@@@Z 5f48c11e f afxinl2.obj
 0001:0008b175       ?DPtoLP@CDC@@QBEXPAUtagPOINT@@H@Z 5f48c175 f afxinl2.obj
 0001:0008b1e7       ?DPtoLP@CDC@@QBEXPAUtagRECT@@@Z 5f48c1e7 f afxinl2.obj
 0001:0008b257       ?LPtoDP@CDC@@QBEXPAUtagPOINT@@H@Z 5f48c257 f afxinl2.obj
 0001:0008b2c9       ?LPtoDP@CDC@@QBEXPAUtagRECT@@@Z 5f48c2c9 f afxinl2.obj
 0001:0008b339       ?FillRgn@CDC@@QAEHPAVCRgn@@PAVCBrush@@@Z 5f48c339 f afxinl2.obj
 0001:0008b395       ?FrameRgn@CDC@@QAEHPAVCRgn@@PAVCBrush@@HH@Z 5f48c395 f afxinl2.obj
 0001:0008b3f9       ?InvertRgn@CDC@@QAEHPAVCRgn@@@Z 5f48c3f9 f afxinl2.obj
 0001:0008b44c       ?PaintRgn@CDC@@QAEHPAVCRgn@@@Z 5f48c44c f afxinl2.obj
 0001:0008b49f       ?PtVisible@CDC@@UBEHHH@Z   5f48c49f f afxinl2.obj
 0001:0008b4f1       ?PtVisible@CDC@@QBEHUtagPOINT@@@Z 5f48c4f1 f afxinl2.obj
 0001:0008b541       ?RectVisible@CDC@@UBEHPBUtagRECT@@@Z 5f48c541 f afxinl2.obj
 0001:0008b58f       ?GetCurrentPosition@CDC@@QBE?AVCPoint@@XZ 5f48c58f f afxinl2.obj
 0001:0008b610       ?MoveTo@CDC@@QAE?AVCPoint@@UtagPOINT@@@Z 5f48c610 f afxinl2.obj
 0001:0008b664       ?LineTo@CDC@@QAEHUtagPOINT@@@Z 5f48c664 f afxinl2.obj
 0001:0008b6b1       ?Arc@CDC@@QAEHHHHHHHHH@Z   5f48c6b1 f afxinl2.obj
 0001:0008b71b       ?Arc@CDC@@QAEHPBUtagRECT@@UtagPOINT@@1@Z 5f48c71b f afxinl2.obj
 0001:0008b790       ?Polyline@CDC@@QAEHPAUtagPOINT@@H@Z 5f48c790 f afxinl2.obj
 0001:0008b7e2       ?FillRect@CDC@@QAEXPBUtagRECT@@PAVCBrush@@@Z 5f48c7e2 f afxinl2.obj
 0001:0008b839       ?FrameRect@CDC@@QAEXPBUtagRECT@@PAVCBrush@@@Z 5f48c839 f afxinl2.obj
 0001:0008b890       ?InvertRect@CDC@@QAEXPBUtagRECT@@@Z 5f48c890 f afxinl2.obj
 0001:0008b8de       ?DrawIcon@CDC@@QAEHHHPAUHICON__@@@Z 5f48c8de f afxinl2.obj
 0001:0008b934       ?DrawIcon@CDC@@QAEHUtagPOINT@@PAUHICON__@@@Z 5f48c934 f afxinl2.obj
 0001:0008b98a       ?DrawState@CDC@@QAEHVCPoint@@VCSize@@PAUHBITMAP__@@IPAUHBRUSH__@@@Z 5f48c98a f afxinl2.obj
 0001:0008b9f6       ?DrawState@CDC@@QAEHVCPoint@@VCSize@@PAVCBitmap@@IPAVCBrush@@@Z 5f48c9f6 f afxinl2.obj
 0001:0008ba6c       ?DrawState@CDC@@QAEHVCPoint@@VCSize@@PAUHICON__@@IPAUHBRUSH__@@@Z 5f48ca6c f afxinl2.obj
 0001:0008bad8       ?DrawState@CDC@@QAEHVCPoint@@VCSize@@PAUHICON__@@IPAVCBrush@@@Z 5f48cad8 f afxinl2.obj
 0001:0008bb49       ?DrawState@CDC@@QAEHVCPoint@@VCSize@@PBGIHHPAUHBRUSH__@@@Z 5f48cb49 f afxinl2.obj
 0001:0008bbbd       ?DrawState@CDC@@QAEHVCPoint@@VCSize@@PBGIHHPAVCBrush@@@Z 5f48cbbd f afxinl2.obj
 0001:0008bc36       ?DrawState@CDC@@QAEHVCPoint@@VCSize@@P6GHPAUHDC__@@JIHH@ZJIPAUHBRUSH__@@@Z 5f48cc36 f afxinl2.obj
 0001:0008bca1       ?DrawState@CDC@@QAEHVCPoint@@VCSize@@P6GHPAUHDC__@@JIHH@ZJIPAVCBrush@@@Z 5f48cca1 f afxinl2.obj
 0001:0008bd11       ?DrawEdge@CDC@@QAEHPAUtagRECT@@II@Z 5f48cd11 f afxinl2.obj
 0001:0008bd67       ?DrawFrameControl@CDC@@QAEHPAUtagRECT@@II@Z 5f48cd67 f afxinl2.obj
 0001:0008bdbd       ?Chord@CDC@@QAEHHHHHHHHH@Z 5f48cdbd f afxinl2.obj
 0001:0008be27       ?Chord@CDC@@QAEHPBUtagRECT@@UtagPOINT@@1@Z 5f48ce27 f afxinl2.obj
 0001:0008be9c       ?DrawFocusRect@CDC@@QAEXPBUtagRECT@@@Z 5f48ce9c f afxinl2.obj
 0001:0008beea       ?Ellipse@CDC@@QAEHHHHH@Z   5f48ceea f afxinl2.obj
 0001:0008bf44       ?Ellipse@CDC@@QAEHPBUtagRECT@@@Z 5f48cf44 f afxinl2.obj
 0001:0008bfa9       ?Pie@CDC@@QAEHHHHHHHHH@Z   5f48cfa9 f afxinl2.obj
 0001:0008c013       ?Pie@CDC@@QAEHPBUtagRECT@@UtagPOINT@@1@Z 5f48d013 f afxinl2.obj
 0001:0008c088       ?Polygon@CDC@@QAEHPAUtagPOINT@@H@Z 5f48d088 f afxinl2.obj
 0001:0008c0da       ?PolyPolygon@CDC@@QAEHPAUtagPOINT@@PAHH@Z 5f48d0da f afxinl2.obj
 0001:0008c130       ?Rectangle@CDC@@QAEHHHHH@Z 5f48d130 f afxinl2.obj
 0001:0008c18a       ?Rectangle@CDC@@QAEHPBUtagRECT@@@Z 5f48d18a f afxinl2.obj
 0001:0008c1ef       ?RoundRect@CDC@@QAEHHHHHHH@Z 5f48d1ef f afxinl2.obj
 0001:0008c251       ?RoundRect@CDC@@QAEHPBUtagRECT@@UtagPOINT@@@Z 5f48d251 f afxinl2.obj
 0001:0008c2be       ?PatBlt@CDC@@QAEHHHHHK@Z   5f48d2be f afxinl2.obj
 0001:0008c31c       ?BitBlt@CDC@@QAEHHHHHPAV1@HHK@Z 5f48d31c f afxinl2.obj
 0001:0008c38b       ?StretchBlt@CDC@@QAEHHHHHPAV1@HHHHK@Z 5f48d38b f afxinl2.obj
 0001:0008c402       ?GetPixel@CDC@@QBEKHH@Z    5f48d402 f afxinl2.obj
 0001:0008c454       ?GetPixel@CDC@@QBEKUtagPOINT@@@Z 5f48d454 f afxinl2.obj
 0001:0008c4a6       ?SetPixel@CDC@@QAEKHHK@Z   5f48d4a6 f afxinl2.obj
 0001:0008c4fc       ?SetPixel@CDC@@QAEKUtagPOINT@@K@Z 5f48d4fc f afxinl2.obj
 0001:0008c552       ?FloodFill@CDC@@QAEHHHK@Z  5f48d552 f afxinl2.obj
 0001:0008c5a8       ?ExtFloodFill@CDC@@QAEHHHKI@Z 5f48d5a8 f afxinl2.obj
 0001:0008c602       ?TextOutW@CDC@@UAEHHHPBGH@Z 5f48d602 f afxinl2.obj
 0001:0008c65c       ?TextOutW@CDC@@QAEHHHABVCString@@@Z 5f48d65c f afxinl2.obj
 0001:0008c6be       ?ExtTextOutW@CDC@@UAEHHHIPBUtagRECT@@PBGIPAH@Z 5f48d6be f afxinl2.obj
 0001:0008c724       ?ExtTextOutW@CDC@@QAEHHHIPBUtagRECT@@ABVCString@@PAH@Z 5f48d724 f afxinl2.obj
 0001:0008c794       ?TabbedTextOutW@CDC@@UAE?AVCSize@@HHPBGHHPAHH@Z 5f48d794 f afxinl2.obj
 0001:0008c806       ?TabbedTextOutW@CDC@@QAE?AVCSize@@HHABVCString@@HPAHH@Z 5f48d806 f afxinl2.obj
 0001:0008c882       ?DrawTextW@CDC@@UAEHPBGHPAUtagRECT@@I@Z 5f48d882 f afxinl2.obj
 0001:0008c8dc       ?DrawTextW@CDC@@QAEHABVCString@@PAUtagRECT@@I@Z 5f48d8dc f afxinl2.obj
 0001:0008c93e       ?GetTextExtent@CDC@@QBE?AVCSize@@PBGH@Z 5f48d93e f afxinl2.obj
 0001:0008c9c7       ?GetTextExtent@CDC@@QBE?AVCSize@@ABVCString@@@Z 5f48d9c7 f afxinl2.obj
 0001:0008ca5a       ?GetOutputTextExtent@CDC@@QBE?AVCSize@@PBGH@Z 5f48da5a f afxinl2.obj
 0001:0008cae3       ?GetOutputTextExtent@CDC@@QBE?AVCSize@@ABVCString@@@Z 5f48dae3 f afxinl2.obj
 0001:0008cb76       ?GetTabbedTextExtentW@CDC@@QBE?AVCSize@@PBGHHPAH@Z 5f48db76 f afxinl2.obj
 0001:0008cbdc       ?GetTabbedTextExtentW@CDC@@QBE?AVCSize@@ABVCString@@HPAH@Z 5f48dbdc f afxinl2.obj
 0001:0008cc4c       ?GetOutputTabbedTextExtent@CDC@@QBE?AVCSize@@PBGHHPAH@Z 5f48dc4c f afxinl2.obj
 0001:0008ccb2       ?GetOutputTabbedTextExtent@CDC@@QBE?AVCSize@@ABVCString@@HPAH@Z 5f48dcb2 f afxinl2.obj
 0001:0008cd22       ?GrayStringW@CDC@@UAEHPAVCBrush@@P6GHPAUHDC__@@JH@ZJHHHHH@Z 5f48dd22 f afxinl2.obj
 0001:0008cd91       ?GetTextAlign@CDC@@QBEIXZ  5f48dd91 f afxinl2.obj
 0001:0008cdd9       ?GetTextFaceW@CDC@@QBEHHPAG@Z 5f48ddd9 f afxinl2.obj
 0001:0008ce2b       ?GetTextFaceW@CDC@@QBEHAAVCString@@@Z 5f48de2b f afxinl2.obj
 0001:0008ce98       ?GetTextMetricsW@CDC@@QBEHPAUtagTEXTMETRICW@@@Z 5f48de98 f afxinl2.obj
 0001:0008cee6       ?GetOutputTextMetrics@CDC@@QBEHPAUtagTEXTMETRICW@@@Z 5f48dee6 f afxinl2.obj
 0001:0008cf34       ?GetTextCharacterExtra@CDC@@QBEHXZ 5f48df34 f afxinl2.obj
 0001:0008cf7c       ?GetCharWidthW@CDC@@QBEHIIPAH@Z 5f48df7c f afxinl2.obj
 0001:0008cfd2       ?GetOutputCharWidth@CDC@@QBEHIIPAH@Z 5f48dfd2 f afxinl2.obj
 0001:0008d028       ?GetAspectRatioFilter@CDC@@QBE?AVCSize@@XZ 5f48e028 f afxinl2.obj
 0001:0008d0a9       ?ScrollDC@CDC@@QAEHHHPBUtagRECT@@0PAVCRgn@@PAU2@@Z 5f48e0a9 f afxinl2.obj
 0001:0008d110       ?Escape@CDC@@UAEHHHPBDPAX@Z 5f48e110 f afxinl2.obj
 0001:0008d16a       ?SetBoundsRect@CDC@@QAEIPBUtagRECT@@I@Z 5f48e16a f afxinl2.obj
 0001:0008d1bc       ?GetBoundsRect@CDC@@QAEIPAUtagRECT@@I@Z 5f48e1bc f afxinl2.obj
 0001:0008d20e       ?ResetDCW@CDC@@QAEHPBU_devicemodeW@@@Z 5f48e20e f afxinl2.obj
 0001:0008d270       ?GetOutlineTextMetricsW@CDC@@QBEIIPAU_OUTLINETEXTMETRICW@@@Z 5f48e270 f afxinl2.obj
 0001:0008d2c2       ?GetCharABCWidthsW@CDC@@QBEHIIPAU_ABC@@@Z 5f48e2c2 f afxinl2.obj
 0001:0008d318       ?GetFontData@CDC@@QBEKKKPAXK@Z 5f48e318 f afxinl2.obj
 0001:0008d372       ?GetKerningPairsW@CDC@@QBEHHPAUtagKERNINGPAIR@@@Z 5f48e372 f afxinl2.obj
 0001:0008d3c4       ?GetGlyphOutlineW@CDC@@QBEKIIPAU_GLYPHMETRICS@@KPAXPBU_MAT2@@@Z 5f48e3c4 f afxinl2.obj
 0001:0008d426       ?StartDocW@CDC@@QAEHPAU_DOCINFOW@@@Z 5f48e426 f afxinl2.obj
 0001:0008d474       ?StartPage@CDC@@QAEHXZ     5f48e474 f afxinl2.obj
 0001:0008d4bc       ?EndPage@CDC@@QAEHXZ       5f48e4bc f afxinl2.obj
 0001:0008d504       ?SetAbortProc@CDC@@QAEHP6GHPAUHDC__@@H@Z@Z 5f48e504 f afxinl2.obj
 0001:0008d552       ?AbortDoc@CDC@@QAEHXZ      5f48e552 f afxinl2.obj
 0001:0008d59a       ?EndDoc@CDC@@QAEHXZ        5f48e59a f afxinl2.obj
 0001:0008d5e2       ?MaskBlt@CDC@@QAEHHHHHPAV1@HHAAVCBitmap@@HHK@Z 5f48e5e2 f afxinl2.obj
 0001:0008d660       ?PlgBlt@CDC@@QAEHPAUtagPOINT@@PAV1@HHHHAAVCBitmap@@HH@Z 5f48e660 f afxinl2.obj
 0001:0008d6d6       ?SetPixelV@CDC@@QAEHHHK@Z  5f48e6d6 f afxinl2.obj
 0001:0008d72c       ?SetPixelV@CDC@@QAEHUtagPOINT@@K@Z 5f48e72c f afxinl2.obj
 0001:0008d782       ?AngleArc@CDC@@QAEHHHHMM@Z 5f48e782 f afxinl2.obj
 0001:0008d7e0       ?ArcTo@CDC@@QAEHPBUtagRECT@@UtagPOINT@@1@Z 5f48e7e0 f afxinl2.obj
 0001:0008d850       ?GetArcDirection@CDC@@QBEHXZ 5f48e850 f afxinl2.obj
 0001:0008d898       ?PolyPolyline@CDC@@QAEHPBUtagPOINT@@PBKH@Z 5f48e898 f afxinl2.obj
 0001:0008d8ee       ?GetColorAdjustment@CDC@@QBEHPAUtagCOLORADJUSTMENT@@@Z 5f48e8ee f afxinl2.obj
 0001:0008d93c       ?GetCurrentPen@CDC@@QBEPAVCPen@@XZ 5f48e93c f afxinl2.obj
 0001:0008d98c       ?GetCurrentBrush@CDC@@QBEPAVCBrush@@XZ 5f48e98c f afxinl2.obj
 0001:0008d9dc       ?GetCurrentPalette@CDC@@QBEPAVCPalette@@XZ 5f48e9dc f afxinl2.obj
 0001:0008da2c       ?GetCurrentFont@CDC@@QBEPAVCFont@@XZ 5f48ea2c f afxinl2.obj
 0001:0008da7c       ?GetCurrentBitmap@CDC@@QBEPAVCBitmap@@XZ 5f48ea7c f afxinl2.obj
 0001:0008dacc       ?PolyBezier@CDC@@QAEHPBUtagPOINT@@H@Z 5f48eacc f afxinl2.obj
 0001:0008db1e       ?DrawEscape@CDC@@QAEHHHPBD@Z 5f48eb1e f afxinl2.obj
 0001:0008db74       ?Escape@CDC@@QAEHHHPBDHPAD@Z 5f48eb74 f afxinl2.obj
 0001:0008dbd2       ?GetCharABCWidthsW@CDC@@QBEHIIPAU_ABCFLOAT@@@Z 5f48ebd2 f afxinl2.obj
 0001:0008dc28       ?GetCharWidthW@CDC@@QBEHIIPAM@Z 5f48ec28 f afxinl2.obj
 0001:0008dc7e       ?AbortPath@CDC@@QAEHXZ     5f48ec7e f afxinl2.obj
 0001:0008dcc6       ?BeginPath@CDC@@QAEHXZ     5f48ecc6 f afxinl2.obj
 0001:0008dd0e       ?CloseFigure@CDC@@QAEHXZ   5f48ed0e f afxinl2.obj
 0001:0008dd56       ?EndPath@CDC@@QAEHXZ       5f48ed56 f afxinl2.obj
 0001:0008dd9e       ?FillPath@CDC@@QAEHXZ      5f48ed9e f afxinl2.obj
 0001:0008dde6       ?FlattenPath@CDC@@QAEHXZ   5f48ede6 f afxinl2.obj
 0001:0008de2e       ?GetMiterLimit@CDC@@QBEMXZ 5f48ee2e f afxinl2.obj
 0001:0008de9d       ?GetPath@CDC@@QBEHPAUtagPOINT@@PAEH@Z 5f48ee9d f afxinl2.obj
 0001:0008def3       ?SetMiterLimit@CDC@@QAEHM@Z 5f48eef3 f afxinl2.obj
 0001:0008df43       ?StrokeAndFillPath@CDC@@QAEHXZ 5f48ef43 f afxinl2.obj
 0001:0008df8b       ?StrokePath@CDC@@QAEHXZ    5f48ef8b f afxinl2.obj
 0001:0008dfd3       ?WidenPath@CDC@@QAEHXZ     5f48efd3 f afxinl2.obj
 0001:0008e01b       ?AddMetaFileComment@CDC@@QAEHIPBE@Z 5f48f01b f afxinl2.obj
 0001:0008e06d       ?PlayMetaFile@CDC@@QAEHPAUHENHMETAFILE__@@PBUtagRECT@@@Z 5f48f06d f afxinl2.obj
 0001:0008e0bf       ??0CMenu@@QAE@XZ           5f48f0bf f afxinl2.obj
 0001:0008e138       ??1CMenu@@UAE@XZ           5f48f138 f afxinl2.obj
 0001:0008e1a8       ?CreateMenu@CMenu@@QAEHXZ  5f48f1a8 f afxinl2.obj
 0001:0008e1cd       ?CreatePopupMenu@CMenu@@QAEHXZ 5f48f1cd f afxinl2.obj
 0001:0008e1f2       ??BCMenu@@QBEPAUHMENU__@@XZ 5f48f1f2 f afxinl2.obj
 0001:0008e263       ?GetSafeHmenu@CMenu@@QBEPAUHMENU__@@XZ 5f48f263 f afxinl2.obj
 0001:0008e2d4       ?DeleteMenu@CMenu@@QAEHII@Z 5f48f2d4 f afxinl2.obj
 0001:0008e32e       ?AppendMenuW@CMenu@@QAEHIIPBG@Z 5f48f32e f afxinl2.obj
 0001:0008e38c       ?AppendMenuW@CMenu@@QAEHIIPBVCBitmap@@@Z 5f48f38c f afxinl2.obj
 0001:0008e3f2       ?CheckMenuItem@CMenu@@QAEIII@Z 5f48f3f2 f afxinl2.obj
 0001:0008e44c       ?EnableMenuItem@CMenu@@QAEIII@Z 5f48f44c f afxinl2.obj
 0001:0008e4a6       ?GetMenuItemCount@CMenu@@QBEIXZ 5f48f4a6 f afxinl2.obj
 0001:0008e4f6       ?GetMenuItemID@CMenu@@QBEIH@Z 5f48f4f6 f afxinl2.obj
 0001:0008e54c       ?GetMenuState@CMenu@@QBEIII@Z 5f48f54c f afxinl2.obj
 0001:0008e5a6       ?GetMenuStringW@CMenu@@QBEHIPAGHI@Z 5f48f5a6 f afxinl2.obj
 0001:0008e608       ?GetMenuStringW@CMenu@@QBEHIAAVCString@@I@Z 5f48f608 f afxinl2.obj
 0001:0008e685       ?GetSubMenu@CMenu@@QBEPAV1@H@Z 5f48f685 f afxinl2.obj
 0001:0008e6e1       ?InsertMenuW@CMenu@@QAEHIIIPBG@Z 5f48f6e1 f afxinl2.obj
 0001:0008e743       ?InsertMenuW@CMenu@@QAEHIIIPBVCBitmap@@@Z 5f48f743 f afxinl2.obj
 0001:0008e7ad       ?ModifyMenuW@CMenu@@QAEHIIIPBG@Z 5f48f7ad f afxinl2.obj
 0001:0008e80f       ?ModifyMenuW@CMenu@@QAEHIIIPBVCBitmap@@@Z 5f48f80f f afxinl2.obj
 0001:0008e879       ?RemoveMenu@CMenu@@QAEHII@Z 5f48f879 f afxinl2.obj
 0001:0008e8d3       ?SetMenuItemBitmaps@CMenu@@QAEHIIPBVCBitmap@@0@Z 5f48f8d3 f afxinl2.obj
 0001:0008e93f       ?LoadMenuW@CMenu@@QAEHPBG@Z 5f48f93f f afxinl2.obj
 0001:0008e976       ?LoadMenuW@CMenu@@QAEHI@Z  5f48f976 f afxinl2.obj
 0001:0008e9b7       ?LoadMenuIndirectW@CMenu@@QAEHPBX@Z 5f48f9b7 f afxinl2.obj
 0001:0008e9e2       ?SetMenuContextHelpId@CMenu@@QAEHK@Z 5f48f9e2 f afxinl2.obj
 0001:0008ea0b       ?GetMenuContextHelpId@CMenu@@QBEKXZ 5f48fa0b f afxinl2.obj
 0001:0008ea2e       ?CheckMenuRadioItem@CMenu@@QAEHIIII@Z 5f48fa2e f afxinl2.obj
 0001:0008ea63       ?ContinueRouting@CCmdUI@@QAEXXZ 5f48fa63 f afxinl2.obj
 0001:0008ea90       ??_GCResourceException@@UAEPAXI@Z 5f48fa90 f afxinl2.obj
 0001:0008ea90       ??_ECResourceException@@UAEPAXI@Z 5f48fa90 f afxinl2.obj
 0001:0008ead0       ??_ECUserException@@UAEPAXI@Z 5f48fad0 f afxinl2.obj
 0001:0008ead0       ??_GCUserException@@UAEPAXI@Z 5f48fad0 f afxinl2.obj
 0001:0008eb10       ??_GCGdiObject@@UAEPAXI@Z  5f48fb10 f afxinl2.obj
 0001:0008eb50       ??_GCPen@@UAEPAXI@Z        5f48fb50 f afxinl2.obj
 0001:0008eb90       ??_GCBrush@@UAEPAXI@Z      5f48fb90 f afxinl2.obj
 0001:0008ebd0       ??_GCFont@@UAEPAXI@Z       5f48fbd0 f afxinl2.obj
 0001:0008ec10       ??_GCBitmap@@UAEPAXI@Z     5f48fc10 f afxinl2.obj
 0001:0008ec50       ??_GCPalette@@UAEPAXI@Z    5f48fc50 f afxinl2.obj
 0001:0008ec90       ??_GCRgn@@UAEPAXI@Z        5f48fc90 f afxinl2.obj
 0001:0008ecd0       ??_GCMenu@@UAEPAXI@Z       5f48fcd0 f afxinl2.obj
 0001:0008ed10       ??BCWnd@@QBEPAUHWND__@@XZ  5f48fd10 f afxinl3.obj
 0001:0008ed3d       ?GetSafeHwnd@CWnd@@QBEPAUHWND__@@XZ 5f48fd3d f afxinl3.obj
 0001:0008ed6a       ?GetOwner@CWnd@@QBEPAV1@XZ 5f48fd6a f afxinl3.obj
 0001:0008eda6       ?SetOwner@CWnd@@QAEXPAV1@@Z 5f48fda6 f afxinl3.obj
 0001:0008ede3       ?SendMessageW@CWnd@@QAEJIIJ@Z 5f48fde3 f afxinl3.obj
 0001:0008ee3e       ?PostMessageW@CWnd@@QAEHIIJ@Z 5f48fe3e f afxinl3.obj
 0001:0008ee99       ?SetFont@CWnd@@QAEXPAVCFont@@H@Z 5f48fe99 f afxinl3.obj
 0001:0008eef7       ?GetFont@CWnd@@QBEPAVCFont@@XZ 5f48fef7 f afxinl3.obj
 0001:0008ef50       ?GetMenu@CWnd@@QBEPAVCMenu@@XZ 5f48ff50 f afxinl3.obj
 0001:0008efa3       ?SetMenu@CWnd@@QAEHPAVCMenu@@@Z 5f48ffa3 f afxinl3.obj
 0001:0008effb       ?DrawMenuBar@CWnd@@QAEXXZ  5f48fffb f afxinl3.obj
 0001:0008f048       ?GetSystemMenu@CWnd@@QBEPAVCMenu@@H@Z 5f490048 f afxinl3.obj
 0001:0008f0a1       ?HiliteMenuItem@CWnd@@QAEHPAVCMenu@@II@Z 5f4900a1 f afxinl3.obj
 0001:0008f0ff       ?IsIconic@CWnd@@QBEHXZ     5f4900ff f afxinl3.obj
 0001:0008f14c       ?IsZoomed@CWnd@@QBEHXZ     5f49014c f afxinl3.obj
 0001:0008f199       ?MoveWindow@CWnd@@QAEXPBUtagRECT@@H@Z 5f490199 f afxinl3.obj
 0001:0008f1e3       ?ArrangeIconicWindows@CWnd@@QAEIXZ 5f4901e3 f afxinl3.obj
 0001:0008f230       ?BringWindowToTop@CWnd@@QAEXXZ 5f490230 f afxinl3.obj
 0001:0008f27d       ?GetWindowRect@CWnd@@QBEXPAUtagRECT@@@Z 5f49027d f afxinl3.obj
 0001:0008f2d0       ?GetClientRect@CWnd@@QBEXPAUtagRECT@@@Z 5f4902d0 f afxinl3.obj
 0001:0008f323       ?MapWindowPoints@CWnd@@QBEXPAV1@PAUtagPOINT@@I@Z 5f490323 f afxinl3.obj
 0001:0008f383       ?MapWindowPoints@CWnd@@QBEXPAV1@PAUtagRECT@@@Z 5f490383 f afxinl3.obj
 0001:0008f3e1       ?ClientToScreen@CWnd@@QBEXPAUtagPOINT@@@Z 5f4903e1 f afxinl3.obj
 0001:0008f434       ?ClientToScreen@CWnd@@QBEXPAUtagRECT@@@Z 5f490434 f afxinl3.obj
 0001:0008f49b       ?ScreenToClient@CWnd@@QBEXPAUtagPOINT@@@Z 5f49049b f afxinl3.obj
 0001:0008f4ee       ?ScreenToClient@CWnd@@QBEXPAUtagRECT@@@Z 5f4904ee f afxinl3.obj
 0001:0008f555       ?BeginPaint@CWnd@@QAEPAVCDC@@PAUtagPAINTSTRUCT@@@Z 5f490555 f afxinl3.obj
 0001:0008f5ae       ?EndPaint@CWnd@@QAEXPAUtagPAINTSTRUCT@@@Z 5f4905ae f afxinl3.obj
 0001:0008f601       ?GetDC@CWnd@@QAEPAVCDC@@XZ 5f490601 f afxinl3.obj
 0001:0008f654       ?GetWindowDC@CWnd@@QAEPAVCDC@@XZ 5f490654 f afxinl3.obj
 0001:0008f6a7       ?ReleaseDC@CWnd@@QAEHPAVCDC@@@Z 5f4906a7 f afxinl3.obj
 0001:0008f6fd       ?UpdateWindow@CWnd@@QAEXXZ 5f4906fd f afxinl3.obj
 0001:0008f74a       ?SetRedraw@CWnd@@QAEXH@Z   5f49074a f afxinl3.obj
 0001:0008f7a1       ?GetUpdateRect@CWnd@@QAEHPAUtagRECT@@H@Z 5f4907a1 f afxinl3.obj
 0001:0008f7f8       ?GetUpdateRgn@CWnd@@QAEHPAVCRgn@@H@Z 5f4907f8 f afxinl3.obj
 0001:0008f854       ?Invalidate@CWnd@@QAEXH@Z  5f490854 f afxinl3.obj
 0001:0008f8a9       ?InvalidateRect@CWnd@@QAEXPBUtagRECT@@H@Z 5f4908a9 f afxinl3.obj
 0001:0008f903       ?InvalidateRgn@CWnd@@QAEXPAVCRgn@@H@Z 5f490903 f afxinl3.obj
 0001:0008f962       ?ValidateRect@CWnd@@QAEXPBUtagRECT@@@Z 5f490962 f afxinl3.obj
 0001:0008f9b8       ?ValidateRgn@CWnd@@QAEXPAVCRgn@@@Z 5f4909b8 f afxinl3.obj
 0001:0008fa13       ?IsWindowVisible@CWnd@@QBEHXZ 5f490a13 f afxinl3.obj
 0001:0008fa63       ?ShowOwnedPopups@CWnd@@QAEXH@Z 5f490a63 f afxinl3.obj
 0001:0008fab9       ?SendMessageToDescendants@CWnd@@QAEXIIJHH@Z 5f490ab9 f afxinl3.obj
 0001:0008fb1e       ?GetDescendantWindow@CWnd@@QBEPAV1@HH@Z 5f490b1e f afxinl3.obj
 0001:0008fb77       ?GetDCEx@CWnd@@QAEPAVCDC@@PAVCRgn@@K@Z 5f490b77 f afxinl3.obj
 0001:0008fbdc       ?LockWindowUpdate@CWnd@@QAEHXZ 5f490bdc f afxinl3.obj
 0001:0008fc2c       ?UnlockWindowUpdate@CWnd@@QAEXXZ 5f490c2c f afxinl3.obj
 0001:0008fc77       ?RedrawWindow@CWnd@@QAEHPBUtagRECT@@PAVCRgn@@I@Z 5f490c77 f afxinl3.obj
 0001:0008fcda       ?EnableScrollBar@CWnd@@QAEHHI@Z 5f490cda f afxinl3.obj
 0001:0008fd34       ?SetTimer@CWnd@@QAEIIIP6GXPAUHWND__@@IIK@Z@Z 5f490d34 f afxinl3.obj
 0001:0008fd92       ?KillTimer@CWnd@@QAEHH@Z   5f490d92 f afxinl3.obj
 0001:0008fde8       ?GetActiveWindow@CWnd@@SGPAV1@XZ 5f490de8 f afxinl3.obj
 0001:0008fe04       ?SetActiveWindow@CWnd@@QAEPAV1@XZ 5f490e04 f afxinl3.obj
 0001:0008fe5a       ?GetCapture@CWnd@@SGPAV1@XZ 5f490e5a f afxinl3.obj
 0001:0008fe76       ?SetCapture@CWnd@@QAEPAV1@XZ 5f490e76 f afxinl3.obj
 0001:0008fecc       ?GetFocus@CWnd@@SGPAV1@XZ  5f490ecc f afxinl3.obj
 0001:0008fee8       ?GetDesktopWindow@CWnd@@SGPAV1@XZ 5f490ee8 f afxinl3.obj
 0001:0008ff04       ?DlgDirListW@CWnd@@QAEHPAGHHI@Z 5f490f04 f afxinl3.obj
 0001:0008ff66       ?DlgDirListComboBoxW@CWnd@@QAEHPAGHHI@Z 5f490f66 f afxinl3.obj
 0001:0008ffc8       ?DlgDirSelect@CWnd@@QAEHPAGH@Z 5f490fc8 f afxinl3.obj
 0001:00090027       ?DlgDirSelectComboBox@CWnd@@QAEHPAGH@Z 5f491027 f afxinl3.obj
 0001:00090086       ?GetNextDlgGroupItem@CWnd@@QBEPAV1@PAV1@H@Z 5f491086 f afxinl3.obj
 0001:000900eb       ?GetNextDlgTabItem@CWnd@@QBEPAV1@PAV1@H@Z 5f4910eb f afxinl3.obj
 0001:00090150       ?ShowScrollBar@CWnd@@QAEXIH@Z 5f491150 f afxinl3.obj
 0001:000901aa       ?ChildWindowFromPoint@CWnd@@QBEPAV1@UtagPOINT@@@Z 5f4911aa f afxinl3.obj
 0001:0009020a       ?ChildWindowFromPoint@CWnd@@QBEPAV1@UtagPOINT@@I@Z 5f49120a f afxinl3.obj
 0001:0009026e       ?FindWindowW@CWnd@@SGPAV1@PBG0@Z 5f49126e f afxinl3.obj
 0001:00090294       ?GetNextWindow@CWnd@@QBEPAV1@I@Z 5f491294 f afxinl3.obj
 0001:000902f2       ?GetTopWindow@CWnd@@QBEPAV1@XZ 5f4912f2 f afxinl3.obj
 0001:00090348       ?GetWindow@CWnd@@QBEPAV1@I@Z 5f491348 f afxinl3.obj
 0001:000903a4       ?GetLastActivePopup@CWnd@@QBEPAV1@XZ 5f4913a4 f afxinl3.obj
 0001:000903fa       ?IsChild@CWnd@@QBEHPBV1@@Z 5f4913fa f afxinl3.obj
 0001:00090455       ?GetParent@CWnd@@QBEPAV1@XZ 5f491455 f afxinl3.obj
 0001:000904ab       ?SetParent@CWnd@@QAEPAV1@PAV1@@Z 5f4914ab f afxinl3.obj
 0001:0009050c       ?WindowFromPoint@CWnd@@SGPAV1@UtagPOINT@@@Z 5f49150c f afxinl3.obj
 0001:00090532       ?FlashWindow@CWnd@@QAEHH@Z 5f491532 f afxinl3.obj
 0001:00090588       ?ChangeClipboardChain@CWnd@@QAEHPAUHWND__@@@Z 5f491588 f afxinl3.obj
 0001:000905de       ?SetClipboardViewer@CWnd@@QAEPAUHWND__@@XZ 5f4915de f afxinl3.obj
 0001:0009062e       ?OpenClipboard@CWnd@@QAEHXZ 5f49162e f afxinl3.obj
 0001:0009067e       ?GetOpenClipboardWindow@CWnd@@SGPAV1@XZ 5f49167e f afxinl3.obj
 0001:0009069a       ?GetClipboardOwner@CWnd@@SGPAV1@XZ 5f49169a f afxinl3.obj
 0001:000906b6       ?GetClipboardViewer@CWnd@@SGPAV1@XZ 5f4916b6 f afxinl3.obj
 0001:000906d2       ?CreateCaret@CWnd@@QAEXPAVCBitmap@@@Z 5f4916d2 f afxinl3.obj
 0001:00090731       ?CreateSolidCaret@CWnd@@QAEXHH@Z 5f491731 f afxinl3.obj
 0001:0009078d       ?CreateGrayCaret@CWnd@@QAEXHH@Z 5f49178d f afxinl3.obj
 0001:000907e9       ?GetCaretPos@CWnd@@SG?AVCPoint@@XZ 5f4917e9 f afxinl3.obj
 0001:00090821       ?SetCaretPos@CWnd@@SGXUtagPOINT@@@Z 5f491821 f afxinl3.obj
 0001:00090841       ?HideCaret@CWnd@@QAEXXZ    5f491841 f afxinl3.obj
 0001:00090891       ?ShowCaret@CWnd@@QAEXXZ    5f491891 f afxinl3.obj
 0001:000908e1       ?SetForegroundWindow@CWnd@@QAEHXZ 5f4918e1 f afxinl3.obj
 0001:00090931       ?GetForegroundWindow@CWnd@@SGPAV1@XZ 5f491931 f afxinl3.obj
 0001:0009094d       ?SendNotifyMessageW@CWnd@@QAEHIIJ@Z 5f49194d f afxinl3.obj
 0001:000909ab       ?SetIcon@CWnd@@QAEPAUHICON__@@PAU2@H@Z 5f4919ab f afxinl3.obj
 0001:00090a0a       ?GetIcon@CWnd@@QBEPAUHICON__@@H@Z 5f491a0a f afxinl3.obj
 0001:00090a64       ?Print@CWnd@@QBEXPAVCDC@@K@Z 5f491a64 f afxinl3.obj
 0001:00090ac8       ?PrintClient@CWnd@@QBEXPAVCDC@@K@Z 5f491ac8 f afxinl3.obj
 0001:00090b2c       ?SetWindowContextHelpId@CWnd@@QAEHK@Z 5f491b2c f afxinl3.obj
 0001:00090b82       ?GetWindowContextHelpId@CWnd@@QBEKXZ 5f491b82 f afxinl3.obj
 0001:00090bd2       ?OnActivateApp@CWnd@@IAEXHPAUHTASK__@@@Z 5f491bd2 f afxinl3.obj
 0001:00090bf2       ?OnActivate@CWnd@@IAEXIPAV1@H@Z 5f491bf2 f afxinl3.obj
 0001:00090c12       ?OnCancelMode@CWnd@@IAEXXZ 5f491c12 f afxinl3.obj
 0001:00090c30       ?OnChildActivate@CWnd@@IAEXXZ 5f491c30 f afxinl3.obj
 0001:00090c4e       ?OnClose@CWnd@@IAEXXZ      5f491c4e f afxinl3.obj
 0001:00090c6c       ?OnContextMenu@CWnd@@IAEXPAV1@VCPoint@@@Z 5f491c6c f afxinl3.obj
 0001:00090c8c       ?OnCreate@CWnd@@IAEHPAUtagCREATESTRUCTW@@@Z 5f491c8c f afxinl3.obj
 0001:00090cac       ?OnDestroy@CWnd@@IAEXXZ    5f491cac f afxinl3.obj
 0001:00090cca       ?OnEnable@CWnd@@IAEXH@Z    5f491cca f afxinl3.obj
 0001:00090cea       ?OnEndSession@CWnd@@IAEXH@Z 5f491cea f afxinl3.obj
 0001:00090d0a       ?OnEraseBkgnd@CWnd@@IAEHPAVCDC@@@Z 5f491d0a f afxinl3.obj
 0001:00090d2a       ?OnGetMinMaxInfo@CWnd@@IAEXPAUtagMINMAXINFO@@@Z 5f491d2a f afxinl3.obj
 0001:00090d4a       ?OnIconEraseBkgnd@CWnd@@IAEXPAVCDC@@@Z 5f491d4a f afxinl3.obj
 0001:00090d6a       ?OnKillFocus@CWnd@@IAEXPAV1@@Z 5f491d6a f afxinl3.obj
 0001:00090d8a       ?OnMenuChar@CWnd@@IAEJIIPAVCMenu@@@Z 5f491d8a f afxinl3.obj
 0001:00090daa       ?OnMenuSelect@CWnd@@IAEXIIPAUHMENU__@@@Z 5f491daa f afxinl3.obj
 0001:00090dca       ?OnMove@CWnd@@IAEXHH@Z     5f491dca f afxinl3.obj
 0001:00090dea       ?OnPaint@CWnd@@IAEXXZ      5f491dea f afxinl3.obj
 0001:00090e08       ?OnQueryDragIcon@CWnd@@IAEPAUHICON__@@XZ 5f491e08 f afxinl3.obj
 0001:00090e26       ?OnQueryEndSession@CWnd@@IAEHXZ 5f491e26 f afxinl3.obj
 0001:00090e44       ?OnQueryNewPalette@CWnd@@IAEHXZ 5f491e44 f afxinl3.obj
 0001:00090e62       ?OnQueryOpen@CWnd@@IAEHXZ  5f491e62 f afxinl3.obj
 0001:00090e80       ?OnSetCursor@CWnd@@IAEHPAV1@II@Z 5f491e80 f afxinl3.obj
 0001:00090ea0       ?OnSetFocus@CWnd@@IAEXPAV1@@Z 5f491ea0 f afxinl3.obj
 0001:00090ec0       ?OnShowWindow@CWnd@@IAEXHI@Z 5f491ec0 f afxinl3.obj
 0001:00090ee0       ?OnSize@CWnd@@IAEXIHH@Z    5f491ee0 f afxinl3.obj
 0001:00090f00       ?OnTCard@CWnd@@IAEXIK@Z    5f491f00 f afxinl3.obj
 0001:00090f20       ?OnWindowPosChanging@CWnd@@IAEXPAUtagWINDOWPOS@@@Z 5f491f20 f afxinl3.obj
 0001:00090f40       ?OnWindowPosChanged@CWnd@@IAEXPAUtagWINDOWPOS@@@Z 5f491f40 f afxinl3.obj
 0001:00090f60       ?OnDropFiles@CWnd@@IAEXPAUHDROP__@@@Z 5f491f60 f afxinl3.obj
 0001:00090f80       ?OnPaletteIsChanging@CWnd@@IAEXPAV1@@Z 5f491f80 f afxinl3.obj
 0001:00090fa0       ?OnNcActivate@CWnd@@IAEHH@Z 5f491fa0 f afxinl3.obj
 0001:00090fc0       ?OnNcCalcSize@CWnd@@IAEXHPAUtagNCCALCSIZE_PARAMS@@@Z 5f491fc0 f afxinl3.obj
 0001:00090fe0       ?OnNcCreate@CWnd@@IAEHPAUtagCREATESTRUCTW@@@Z 5f491fe0 f afxinl3.obj
 0001:00091000       ?OnNcHitTest@CWnd@@IAEIVCPoint@@@Z 5f492000 f afxinl3.obj
 0001:00091020       ?OnNcLButtonDblClk@CWnd@@IAEXIVCPoint@@@Z 5f492020 f afxinl3.obj
 0001:00091040       ?OnNcLButtonDown@CWnd@@IAEXIVCPoint@@@Z 5f492040 f afxinl3.obj
 0001:00091060       ?OnNcLButtonUp@CWnd@@IAEXIVCPoint@@@Z 5f492060 f afxinl3.obj
 0001:00091080       ?OnNcMButtonDblClk@CWnd@@IAEXIVCPoint@@@Z 5f492080 f afxinl3.obj
 0001:000910a0       ?OnNcMButtonDown@CWnd@@IAEXIVCPoint@@@Z 5f4920a0 f afxinl3.obj
 0001:000910c0       ?OnNcMButtonUp@CWnd@@IAEXIVCPoint@@@Z 5f4920c0 f afxinl3.obj
 0001:000910e0       ?OnNcMouseMove@CWnd@@IAEXIVCPoint@@@Z 5f4920e0 f afxinl3.obj
 0001:00091100       ?OnNcPaint@CWnd@@IAEXXZ    5f492100 f afxinl3.obj
 0001:0009111e       ?OnNcRButtonDblClk@CWnd@@IAEXIVCPoint@@@Z 5f49211e f afxinl3.obj
 0001:0009113e       ?OnNcRButtonDown@CWnd@@IAEXIVCPoint@@@Z 5f49213e f afxinl3.obj
 0001:0009115e       ?OnNcRButtonUp@CWnd@@IAEXIVCPoint@@@Z 5f49215e f afxinl3.obj
 0001:0009117e       ?OnSysChar@CWnd@@IAEXIII@Z 5f49217e f afxinl3.obj
 0001:0009119e       ?OnSysCommand@CWnd@@IAEXIJ@Z 5f49219e f afxinl3.obj
 0001:000911be       ?OnSysDeadChar@CWnd@@IAEXIII@Z 5f4921be f afxinl3.obj
 0001:000911de       ?OnSysKeyDown@CWnd@@IAEXIII@Z 5f4921de f afxinl3.obj
 0001:000911fe       ?OnSysKeyUp@CWnd@@IAEXIII@Z 5f4921fe f afxinl3.obj
 0001:0009121e       ?OnCompacting@CWnd@@IAEXI@Z 5f49221e f afxinl3.obj
 0001:0009123e       ?OnFontChange@CWnd@@IAEXXZ 5f49223e f afxinl3.obj
 0001:0009125c       ?OnPaletteChanged@CWnd@@IAEXPAV1@@Z 5f49225c f afxinl3.obj
 0001:0009127c       ?OnSpoolerStatus@CWnd@@IAEXII@Z 5f49227c f afxinl3.obj
 0001:0009129c       ?OnTimeChange@CWnd@@IAEXXZ 5f49229c f afxinl3.obj
 0001:000912ba       ?OnChar@CWnd@@IAEXIII@Z    5f4922ba f afxinl3.obj
 0001:000912da       ?OnDeadChar@CWnd@@IAEXIII@Z 5f4922da f afxinl3.obj
 0001:000912fa       ?OnKeyDown@CWnd@@IAEXIII@Z 5f4922fa f afxinl3.obj
 0001:0009131a       ?OnKeyUp@CWnd@@IAEXIII@Z   5f49231a f afxinl3.obj
 0001:0009133a       ?OnLButtonDblClk@CWnd@@IAEXIVCPoint@@@Z 5f49233a f afxinl3.obj
 0001:0009135a       ?OnLButtonDown@CWnd@@IAEXIVCPoint@@@Z 5f49235a f afxinl3.obj
 0001:0009137a       ?OnLButtonUp@CWnd@@IAEXIVCPoint@@@Z 5f49237a f afxinl3.obj
 0001:0009139a       ?OnMButtonDblClk@CWnd@@IAEXIVCPoint@@@Z 5f49239a f afxinl3.obj
 0001:000913ba       ?OnMButtonDown@CWnd@@IAEXIVCPoint@@@Z 5f4923ba f afxinl3.obj
 0001:000913da       ?OnMButtonUp@CWnd@@IAEXIVCPoint@@@Z 5f4923da f afxinl3.obj
 0001:000913fa       ?OnMouseActivate@CWnd@@IAEHPAV1@II@Z 5f4923fa f afxinl3.obj
 0001:0009141a       ?OnMouseMove@CWnd@@IAEXIVCPoint@@@Z 5f49241a f afxinl3.obj
 0001:0009143a       ?OnRButtonDblClk@CWnd@@IAEXIVCPoint@@@Z 5f49243a f afxinl3.obj
 0001:0009145a       ?OnRButtonDown@CWnd@@IAEXIVCPoint@@@Z 5f49245a f afxinl3.obj
 0001:0009147a       ?OnRButtonUp@CWnd@@IAEXIVCPoint@@@Z 5f49247a f afxinl3.obj
 0001:0009149a       ?OnTimer@CWnd@@IAEXI@Z     5f49249a f afxinl3.obj
 0001:000914ba       ?OnInitMenu@CWnd@@IAEXPAVCMenu@@@Z 5f4924ba f afxinl3.obj
 0001:000914da       ?OnInitMenuPopup@CWnd@@IAEXPAVCMenu@@IH@Z 5f4924da f afxinl3.obj
 0001:000914fa       ?OnAskCbFormatName@CWnd@@IAEXIPAG@Z 5f4924fa f afxinl3.obj
 0001:0009151a       ?OnChangeCbChain@CWnd@@IAEXPAUHWND__@@0@Z 5f49251a f afxinl3.obj
 0001:0009153a       ?OnDestroyClipboard@CWnd@@IAEXXZ 5f49253a f afxinl3.obj
 0001:00091558       ?OnDrawClipboard@CWnd@@IAEXXZ 5f492558 f afxinl3.obj
 0001:00091576       ?OnHScrollClipboard@CWnd@@IAEXPAV1@II@Z 5f492576 f afxinl3.obj
 0001:00091596       ?OnPaintClipboard@CWnd@@IAEXPAV1@PAX@Z 5f492596 f afxinl3.obj
 0001:000915b6       ?OnRenderAllFormats@CWnd@@IAEXXZ 5f4925b6 f afxinl3.obj
 0001:000915d4       ?OnRenderFormat@CWnd@@IAEXI@Z 5f4925d4 f afxinl3.obj
 0001:000915f4       ?OnSizeClipboard@CWnd@@IAEXPAV1@PAX@Z 5f4925f4 f afxinl3.obj
 0001:00091614       ?OnVScrollClipboard@CWnd@@IAEXPAV1@II@Z 5f492614 f afxinl3.obj
 0001:00091634       ?OnGetDlgCode@CWnd@@IAEIXZ 5f492634 f afxinl3.obj
 0001:00091652       ?OnMDIActivate@CWnd@@IAEXHPAV1@0@Z 5f492652 f afxinl3.obj
 0001:00091672       ?OnEnterMenuLoop@CWnd@@IAEXH@Z 5f492672 f afxinl3.obj
 0001:00091692       ?OnExitMenuLoop@CWnd@@IAEXH@Z 5f492692 f afxinl3.obj
 0001:000916b2       ?OnStyleChanged@CWnd@@IAEXHPAUtagSTYLESTRUCT@@@Z 5f4926b2 f afxinl3.obj
 0001:000916d2       ?OnStyleChanging@CWnd@@IAEXHPAUtagSTYLESTRUCT@@@Z 5f4926d2 f afxinl3.obj
 0001:000916f2       ?OnSizing@CWnd@@IAEXIPAUtagRECT@@@Z 5f4926f2 f afxinl3.obj
 0001:00091712       ?OnMoving@CWnd@@IAEXIPAUtagRECT@@@Z 5f492712 f afxinl3.obj
 0001:00091732       ?OnCaptureChanged@CWnd@@IAEXPAV1@@Z 5f492732 f afxinl3.obj
 0001:00091752       ?OnDeviceChange@CWnd@@IAEHIK@Z 5f492752 f afxinl3.obj
 0001:00091772       ?DoDataExchange@CWnd@@MAEXPAVCDataExchange@@@Z 5f492772 f afxinl3.obj
 0001:0009178a       ?BeginModalState@CWnd@@UAEXXZ 5f49278a f afxinl3.obj
 0001:000917af       ?EndModalState@CWnd@@UAEXXZ 5f4927af f afxinl3.obj
 0001:000917d4       ?DelayUpdateFrameTitle@CFrameWnd@@QAEXXZ 5f4927d4 f afxinl3.obj
 0001:000917f4       ?DelayRecalcLayout@CFrameWnd@@QAEXH@Z 5f4927f4 f afxinl3.obj
 0001:00091827       ?InModalState@CFrameWnd@@QBEHXZ 5f492827 f afxinl3.obj
 0001:00091859       ?AddControlBar@CFrameWnd@@QAEXPAVCControlBar@@@Z 5f492859 f afxinl3.obj
 0001:00091880       ?Create@CDialog@@QAEHIPAVCWnd@@@Z 5f492880 f afxinl3.obj
 0001:000918ad       ?MapDialogRect@CDialog@@QBEXPAUtagRECT@@@Z 5f4928ad f afxinl3.obj
 0001:00091903       ?SetHelpID@CDialog@@QAEXI@Z 5f492903 f afxinl3.obj
 0001:00091924       ?NextDlgCtrl@CDialog@@QBEXXZ 5f492924 f afxinl3.obj
 0001:0009197a       ?PrevDlgCtrl@CDialog@@QBEXXZ 5f49297a f afxinl3.obj
 0001:000919d0       ?GotoDlgCtrl@CDialog@@QAEXPAVCWnd@@@Z 5f4929d0 f afxinl3.obj
 0001:00091a2d       ?SetDefID@CDialog@@QAEXI@Z 5f492a2d f afxinl3.obj
 0001:00091a8a       ?GetDefID@CDialog@@QBEKXZ  5f492a8a f afxinl3.obj
 0001:00091ae3       ??0CStatic@@QAE@XZ         5f492ae3 f afxinl3.obj
 0001:00091b52       ?SetIcon@CStatic@@QAEPAUHICON__@@PAU2@@Z 5f492b52 f afxinl3.obj
 0001:00091baf       ?GetIcon@CStatic@@QBEPAUHICON__@@XZ 5f492baf f afxinl3.obj
 0001:00091c08       ?SetEnhMetaFile@CStatic@@QAEPAUHENHMETAFILE__@@PAU2@@Z 5f492c08 f afxinl3.obj
 0001:00091c65       ?GetEnhMetaFileW@CStatic@@QBEPAUHENHMETAFILE__@@XZ 5f492c65 f afxinl3.obj
 0001:00091cbe       ?SetBitmap@CStatic@@QAEPAUHBITMAP__@@PAU2@@Z 5f492cbe f afxinl3.obj
 0001:00091d1b       ?GetBitmap@CStatic@@QBEPAUHBITMAP__@@XZ 5f492d1b f afxinl3.obj
 0001:00091d74       ?SetCursor@CStatic@@QAEPAUHICON__@@PAU2@@Z 5f492d74 f afxinl3.obj
 0001:00091dd1       ?GetCursor@CStatic@@QAEPAUHICON__@@XZ 5f492dd1 f afxinl3.obj
 0001:00091e2a       ??0CButton@@QAE@XZ         5f492e2a f afxinl3.obj
 0001:00091e99       ?GetState@CButton@@QBEIXZ  5f492e99 f afxinl3.obj
 0001:00091ef2       ?SetState@CButton@@QAEXH@Z 5f492ef2 f afxinl3.obj
 0001:00091f22       ?GetCheck@CButton@@QBEHXZ  5f492f22 f afxinl3.obj
 0001:00091f7b       ?SetCheck@CButton@@QAEXH@Z 5f492f7b f afxinl3.obj
 0001:00091fd8       ?GetButtonStyle@CButton@@QBEIXZ 5f492fd8 f afxinl3.obj
 0001:0009202f       ?SetButtonStyle@CButton@@QAEXIH@Z 5f49302f f afxinl3.obj
 0001:0009208e       ?SetIcon@CButton@@QAEPAUHICON__@@PAU2@@Z 5f49308e f afxinl3.obj
 0001:000920eb       ?GetIcon@CButton@@QBEPAUHICON__@@XZ 5f4930eb f afxinl3.obj
 0001:00092144       ?SetBitmap@CButton@@QAEPAUHBITMAP__@@PAU2@@Z 5f493144 f afxinl3.obj
 0001:000921a1       ?GetBitmap@CButton@@QBEPAUHBITMAP__@@XZ 5f4931a1 f afxinl3.obj
 0001:000921fa       ?SetCursor@CButton@@QAEPAUHICON__@@PAU2@@Z 5f4931fa f afxinl3.obj
 0001:00092257       ?GetCursor@CButton@@QAEPAUHICON__@@XZ 5f493257 f afxinl3.obj
 0001:000922b0       ??0CListBox@@QAE@XZ        5f4932b0 f afxinl3.obj
 0001:0009231f       ?GetCount@CListBox@@QBEHXZ 5f49331f f afxinl3.obj
 0001:00092378       ?GetCurSel@CListBox@@QBEHXZ 5f493378 f afxinl3.obj
 0001:000923d1       ?SetCurSel@CListBox@@QAEHH@Z 5f4933d1 f afxinl3.obj
 0001:0009242e       ?GetHorizontalExtent@CListBox@@QBEHXZ 5f49342e f afxinl3.obj
 0001:00092487       ?SetHorizontalExtent@CListBox@@QAEXH@Z 5f493487 f afxinl3.obj
 0001:000924e4       ?GetSelCount@CListBox@@QBEHXZ 5f4934e4 f afxinl3.obj
 0001:0009253d       ?GetSelItems@CListBox@@QBEHHPAH@Z 5f49353d f afxinl3.obj
 0001:0009259c       ?GetTopIndex@CListBox@@QBEHXZ 5f49359c f afxinl3.obj
 0001:000925f5       ?SetTopIndex@CListBox@@QAEHH@Z 5f4935f5 f afxinl3.obj
 0001:00092652       ?GetItemData@CListBox@@QBEKH@Z 5f493652 f afxinl3.obj
 0001:000926af       ?SetItemData@CListBox@@QAEHHK@Z 5f4936af f afxinl3.obj
 0001:0009270e       ?GetItemDataPtr@CListBox@@QBEPAXH@Z 5f49370e f afxinl3.obj
 0001:0009276b       ?SetItemDataPtr@CListBox@@QAEHHPAX@Z 5f49376b f afxinl3.obj
 0001:000927c0       ?GetItemRect@CListBox@@QBEHHPAUtagRECT@@@Z 5f4937c0 f afxinl3.obj
 0001:0009281f       ?GetSel@CListBox@@QBEHH@Z  5f49381f f afxinl3.obj
 0001:0009287c       ?SetSel@CListBox@@QAEHHH@Z 5f49387c f afxinl3.obj
 0001:000928db       ?GetText@CListBox@@QBEHHPAG@Z 5f4938db f afxinl3.obj
 0001:0009293a       ?GetTextLen@CListBox@@QBEHH@Z 5f49393a f afxinl3.obj
 0001:00092997       ?SetColumnWidth@CListBox@@QAEXH@Z 5f493997 f afxinl3.obj
 0001:000929f4       ?SetTabStops@CListBox@@QAEHHPAH@Z 5f4939f4 f afxinl3.obj
 0001:00092a53       ?SetTabStops@CListBox@@QAEXXZ 5f493a53 f afxinl3.obj
 0001:00092acc       ?SetTabStops@CListBox@@QAEHABH@Z 5f493acc f afxinl3.obj
 0001:00092b29       ?SetItemHeight@CListBox@@QAEHHI@Z 5f493b29 f afxinl3.obj
 0001:00092b8d       ?GetItemHeight@CListBox@@QBEHH@Z 5f493b8d f afxinl3.obj
 0001:00092bea       ?FindStringExact@CListBox@@QBEHHPBG@Z 5f493bea f afxinl3.obj
 0001:00092c49       ?GetCaretIndex@CListBox@@QBEHXZ 5f493c49 f afxinl3.obj
 0001:00092ca2       ?SetCaretIndex@CListBox@@QAEHHH@Z 5f493ca2 f afxinl3.obj
 0001:00092d06       ?AddString@CListBox@@QAEHPBG@Z 5f493d06 f afxinl3.obj
 0001:00092d63       ?DeleteString@CListBox@@QAEHI@Z 5f493d63 f afxinl3.obj
 0001:00092dc0       ?InsertString@CListBox@@QAEHHPBG@Z 5f493dc0 f afxinl3.obj
 0001:00092e1f       ?ResetContent@CListBox@@QAEXXZ 5f493e1f f afxinl3.obj
 0001:00092e78       ?Dir@CListBox@@QAEHIPBG@Z  5f493e78 f afxinl3.obj
 0001:00092ed7       ?FindString@CListBox@@QBEHHPBG@Z 5f493ed7 f afxinl3.obj
 0001:00092f36       ?SelectString@CListBox@@QAEHHPBG@Z 5f493f36 f afxinl3.obj
 0001:00092f95       ?SelItemRange@CListBox@@QAEHHHH@Z 5f493f95 f afxinl3.obj
 0001:0009301d       ?SetAnchorIndex@CListBox@@QAEXH@Z 5f49401d f afxinl3.obj
 0001:0009307a       ?GetAnchorIndex@CListBox@@QBEHXZ 5f49407a f afxinl3.obj
 0001:000930d3       ?GetLocale@CListBox@@QBEKXZ 5f4940d3 f afxinl3.obj
 0001:0009312c       ?SetLocale@CListBox@@QAEKK@Z 5f49412c f afxinl3.obj
 0001:00093189       ?InitStorage@CListBox@@QAEHHI@Z 5f494189 f afxinl3.obj
 0001:000931e8       ??0CCheckListBox@@QAE@XZ   5f4941e8 f afxinl3.obj
 0001:0009326b       ?GetCheckStyle@CCheckListBox@@QAEIXZ 5f49426b f afxinl3.obj
 0001:00093287       ??0CComboBox@@QAE@XZ       5f494287 f afxinl3.obj
 0001:000932f6       ?GetCount@CComboBox@@QBEHXZ 5f4942f6 f afxinl3.obj
 0001:0009334f       ?GetCurSel@CComboBox@@QBEHXZ 5f49434f f afxinl3.obj
 0001:000933a8       ?SetCurSel@CComboBox@@QAEHH@Z 5f4943a8 f afxinl3.obj
 0001:00093405       ?GetEditSel@CComboBox@@QBEKXZ 5f494405 f afxinl3.obj
 0001:0009345e       ?LimitText@CComboBox@@QAEHH@Z 5f49445e f afxinl3.obj
 0001:000934bb       ?SetEditSel@CComboBox@@QAEHHH@Z 5f4944bb f afxinl3.obj
 0001:0009352b       ?GetItemData@CComboBox@@QBEKH@Z 5f49452b f afxinl3.obj
 0001:00093588       ?SetItemData@CComboBox@@QAEHHK@Z 5f494588 f afxinl3.obj
 0001:000935e7       ?GetItemDataPtr@CComboBox@@QBEPAXH@Z 5f4945e7 f afxinl3.obj
 0001:00093638       ?SetItemDataPtr@CComboBox@@QAEHHPAX@Z 5f494638 f afxinl3.obj
 0001:0009368d       ?GetLBText@CComboBox@@QBEHHPAG@Z 5f49468d f afxinl3.obj
 0001:000936ec       ?GetLBTextLen@CComboBox@@QBEHH@Z 5f4946ec f afxinl3.obj
 0001:00093749       ?ShowDropDown@CComboBox@@QAEXH@Z 5f494749 f afxinl3.obj
 0001:000937a6       ?AddString@CComboBox@@QAEHPBG@Z 5f4947a6 f afxinl3.obj
 0001:00093803       ?DeleteString@CComboBox@@QAEHI@Z 5f494803 f afxinl3.obj
 0001:00093860       ?InsertString@CComboBox@@QAEHHPBG@Z 5f494860 f afxinl3.obj
 0001:000938bf       ?ResetContent@CComboBox@@QAEXXZ 5f4948bf f afxinl3.obj
 0001:00093918       ?Dir@CComboBox@@QAEHIPBG@Z 5f494918 f afxinl3.obj
 0001:00093977       ?FindString@CComboBox@@QBEHHPBG@Z 5f494977 f afxinl3.obj
 0001:000939d6       ?SelectString@CComboBox@@QAEHHPBG@Z 5f4949d6 f afxinl3.obj
 0001:00093a35       ?Clear@CComboBox@@QAEXXZ   5f494a35 f afxinl3.obj
 0001:00093a8e       ?Copy@CComboBox@@QAEXXZ    5f494a8e f afxinl3.obj
 0001:00093ae7       ?Cut@CComboBox@@QAEXXZ     5f494ae7 f afxinl3.obj
 0001:00093b40       ?Paste@CComboBox@@QAEXXZ   5f494b40 f afxinl3.obj
 0001:00093b99       ?SetItemHeight@CComboBox@@QAEHHI@Z 5f494b99 f afxinl3.obj
 0001:00093bfd       ?GetItemHeight@CComboBox@@QBEHH@Z 5f494bfd f afxinl3.obj
 0001:00093c5a       ?FindStringExact@CComboBox@@QBEHHPBG@Z 5f494c5a f afxinl3.obj
 0001:00093cb9       ?SetExtendedUI@CComboBox@@QAEHH@Z 5f494cb9 f afxinl3.obj
 0001:00093d16       ?GetExtendedUI@CComboBox@@QBEHXZ 5f494d16 f afxinl3.obj
 0001:00093d6f       ?GetDroppedControlRect@CComboBox@@QBEXPAUtagRECT@@@Z 5f494d6f f afxinl3.obj
 0001:00093dcc       ?GetDroppedState@CComboBox@@QBEHXZ 5f494dcc f afxinl3.obj
 0001:00093e25       ?GetLocale@CComboBox@@QBEKXZ 5f494e25 f afxinl3.obj
 0001:00093e7e       ?SetLocale@CComboBox@@QAEKK@Z 5f494e7e f afxinl3.obj
 0001:00093edb       ?GetTopIndex@CComboBox@@QBEHXZ 5f494edb f afxinl3.obj
 0001:00093f34       ?SetTopIndex@CComboBox@@QAEHH@Z 5f494f34 f afxinl3.obj
 0001:00093f91       ?InitStorage@CComboBox@@QAEHHI@Z 5f494f91 f afxinl3.obj
 0001:00093ff0       ?SetHorizontalExtent@CComboBox@@QAEXI@Z 5f494ff0 f afxinl3.obj
 0001:0009404d       ?GetHorizontalExtent@CComboBox@@QBEIXZ 5f49504d f afxinl3.obj
 0001:000940a6       ?SetDroppedWidth@CComboBox@@QAEHI@Z 5f4950a6 f afxinl3.obj
 0001:00094103       ?GetDroppedWidth@CComboBox@@QBEHXZ 5f495103 f afxinl3.obj
 0001:0009415c       ??0CEdit@@QAE@XZ           5f49515c f afxinl3.obj
 0001:000941cb       ?CanUndo@CEdit@@QBEHXZ     5f4951cb f afxinl3.obj
 0001:00094224       ?GetLineCount@CEdit@@QBEHXZ 5f495224 f afxinl3.obj
 0001:0009427d       ?GetModify@CEdit@@QBEHXZ   5f49527d f afxinl3.obj
 0001:000942d6       ?SetModify@CEdit@@QAEXH@Z  5f4952d6 f afxinl3.obj
 0001:00094333       ?GetRect@CEdit@@QBEXPAUtagRECT@@@Z 5f495333 f afxinl3.obj
 0001:00094390       ?GetSel@CEdit@@QBEXAAH0@Z  5f495390 f afxinl3.obj
 0001:000943ef       ?GetSel@CEdit@@QBEKXZ      5f4953ef f afxinl3.obj
 0001:00094448       ?GetHandle@CEdit@@QBEPAXXZ 5f495448 f afxinl3.obj
 0001:000944a1       ?SetHandle@CEdit@@QAEXPAX@Z 5f4954a1 f afxinl3.obj
 0001:000944fe       ?GetLine@CEdit@@QBEHHPAG@Z 5f4954fe f afxinl3.obj
 0001:0009455d       ?GetLine@CEdit@@QBEHHPAGH@Z 5f49555d f afxinl3.obj
 0001:000945c5       ?EmptyUndoBuffer@CEdit@@QAEXXZ 5f4955c5 f afxinl3.obj
 0001:0009461e       ?FmtLines@CEdit@@QAEHH@Z   5f49561e f afxinl3.obj
 0001:0009467b       ?LimitText@CEdit@@QAEXH@Z  5f49567b f afxinl3.obj
 0001:000946d8       ?LineFromChar@CEdit@@QBEHH@Z 5f4956d8 f afxinl3.obj
 0001:00094735       ?LineIndex@CEdit@@QBEHH@Z  5f495735 f afxinl3.obj
 0001:00094792       ?LineLength@CEdit@@QBEHH@Z 5f495792 f afxinl3.obj
 0001:000947ef       ?LineScroll@CEdit@@QAEXHH@Z 5f4957ef f afxinl3.obj
 0001:0009484e       ?ReplaceSel@CEdit@@QAEXPBGH@Z 5f49584e f afxinl3.obj
 0001:000948ad       ?SetPasswordChar@CEdit@@QAEXG@Z 5f4958ad f afxinl3.obj
 0001:0009490f       ?SetRect@CEdit@@QAEXPBUtagRECT@@@Z 5f49590f f afxinl3.obj
 0001:0009496c       ?SetRectNP@CEdit@@QAEXPBUtagRECT@@@Z 5f49596c f afxinl3.obj
 0001:000949c9       ?SetSel@CEdit@@QAEXKH@Z    5f4959c9 f afxinl3.obj
 0001:00094a58       ?SetSel@CEdit@@QAEXHHH@Z   5f495a58 f afxinl3.obj
 0001:00094ad7       ?SetTabStops@CEdit@@QAEHHPAH@Z 5f495ad7 f afxinl3.obj
 0001:00094b36       ?SetTabStops@CEdit@@QAEXXZ 5f495b36 f afxinl3.obj
 0001:00094baf       ?SetTabStops@CEdit@@QAEHABH@Z 5f495baf f afxinl3.obj
 0001:00094c0c       ?Undo@CEdit@@QAEHXZ        5f495c0c f afxinl3.obj
 0001:00094c65       ?Clear@CEdit@@QAEXXZ       5f495c65 f afxinl3.obj
 0001:00094cbe       ?Copy@CEdit@@QAEXXZ        5f495cbe f afxinl3.obj
 0001:00094d17       ?Cut@CEdit@@QAEXXZ         5f495d17 f afxinl3.obj
 0001:00094d70       ?Paste@CEdit@@QAEXXZ       5f495d70 f afxinl3.obj
 0001:00094dc9       ?SetReadOnly@CEdit@@QAEHH@Z 5f495dc9 f afxinl3.obj
 0001:00094e26       ?GetFirstVisibleLine@CEdit@@QBEHXZ 5f495e26 f afxinl3.obj
 0001:00094e7f       ?GetPasswordChar@CEdit@@QBEGXZ 5f495e7f f afxinl3.obj
 0001:00094ed8       ?SetMargins@CEdit@@QAEXII@Z 5f495ed8 f afxinl3.obj
 0001:00094f48       ?GetMargins@CEdit@@QBEKXZ  5f495f48 f afxinl3.obj
 0001:00094fa1       ?SetLimitText@CEdit@@QAEXI@Z 5f495fa1 f afxinl3.obj
 0001:00094ffe       ?GetLimitText@CEdit@@QBEIXZ 5f495ffe f afxinl3.obj
 0001:00095057       ?PosFromChar@CEdit@@QBE?AVCPoint@@I@Z 5f496057 f afxinl3.obj
 0001:000950c0       ?CharFromPos@CEdit@@QBEHVCPoint@@@Z 5f4960c0 f afxinl3.obj
 0001:00095130       ??0CScrollBar@@QAE@XZ      5f496130 f afxinl3.obj
 0001:0009519f       ?GetScrollPos@CScrollBar@@QBEHXZ 5f49619f f afxinl3.obj
 0001:000951f1       ?SetScrollPos@CScrollBar@@QAEHHH@Z 5f4961f1 f afxinl3.obj
 0001:0009524d       ?GetScrollRange@CScrollBar@@QBEXPAH0@Z 5f49624d f afxinl3.obj
 0001:000952a9       ?SetScrollRange@CScrollBar@@QAEXHHH@Z 5f4962a9 f afxinl3.obj
 0001:00095309       ?ShowScrollBar@CScrollBar@@QAEXH@Z 5f496309 f afxinl3.obj
 0001:00095361       ?EnableScrollBar@CScrollBar@@QAEHI@Z 5f496361 f afxinl3.obj
 0001:000953b9       ?SetScrollInfo@CScrollBar@@QAEHPAUtagSCROLLINFO@@H@Z 5f4963b9 f afxinl3.obj
 0001:000953e3       ?GetScrollInfo@CScrollBar@@QAEHPAUtagSCROLLINFO@@I@Z 5f4963e3 f afxinl3.obj
 0001:0009540d       ?GetScrollLimit@CScrollBar@@QAEHXZ 5f49640d f afxinl3.obj
 0001:0009542d       ?MDIActivate@CMDIFrameWnd@@QAEXPAVCWnd@@@Z 5f49642d f afxinl3.obj
 0001:00095490       ?MDIIconArrange@CMDIFrameWnd@@QAEXXZ 5f496490 f afxinl3.obj
 0001:000954ec       ?MDIMaximize@CMDIFrameWnd@@QAEXPAVCWnd@@@Z 5f4964ec f afxinl3.obj
 0001:0009554f       ?MDINext@CMDIFrameWnd@@QAEXXZ 5f49654f f afxinl3.obj
 0001:000955ab       ?MDIRestore@CMDIFrameWnd@@QAEXPAVCWnd@@@Z 5f4965ab f afxinl3.obj
 0001:0009560e       ?MDISetMenu@CMDIFrameWnd@@QAEPAVCMenu@@PAV2@0@Z 5f49660e f afxinl3.obj
 0001:00095680       ?MDITile@CMDIFrameWnd@@QAEXXZ 5f496680 f afxinl3.obj
 0001:000956dc       ?MDICascade@CMDIFrameWnd@@QAEXXZ 5f4966dc f afxinl3.obj
 0001:00095738       ?MDICascade@CMDIFrameWnd@@QAEXH@Z 5f496738 f afxinl3.obj
 0001:00095798       ?MDITile@CMDIFrameWnd@@QAEXH@Z 5f496798 f afxinl3.obj
 0001:000957f8       ?MDIDestroy@CMDIChildWnd@@QAEXXZ 5f4967f8 f afxinl3.obj
 0001:0009585b       ?MDIActivate@CMDIChildWnd@@QAEXXZ 5f49685b f afxinl3.obj
 0001:000958be       ?MDIMaximize@CMDIChildWnd@@QAEXXZ 5f4968be f afxinl3.obj
 0001:00095921       ?MDIRestore@CMDIChildWnd@@QAEXXZ 5f496921 f afxinl3.obj
 0001:00095984       ?GetDocument@CView@@QBEPAVCDocument@@XZ 5f496984 f afxinl3.obj
 0001:000959c2       ?GetTotalSize@CScrollView@@QBE?AVCSize@@XZ 5f4969c2 f afxinl3.obj
 0001:00095a12       ?GetTitle@CDocument@@QBEABVCString@@XZ 5f496a12 f afxinl3.obj
 0001:00095a50       ?GetPathName@CDocument@@QBEABVCString@@XZ 5f496a50 f afxinl3.obj
 0001:00095a8e       ?GetDocTemplate@CDocument@@QBEPAVCDocTemplate@@XZ 5f496a8e f afxinl3.obj
 0001:00095acc       ?IsModified@CDocument@@UAEHXZ 5f496acc f afxinl3.obj
 0001:00095b0a       ?SetModifiedFlag@CDocument@@UAEXH@Z 5f496b0a f afxinl3.obj
 0001:00095b4d       ??BCWinThread@@QBEPAXXZ    5f496b4d f afxinl3.obj
 0001:00095b7a       ?SetThreadPriority@CWinThread@@QAEHH@Z 5f496b7a f afxinl3.obj
 0001:00095bc8       ?GetThreadPriority@CWinThread@@QAEHXZ 5f496bc8 f afxinl3.obj
 0001:00095c10       ?ResumeThread@CWinThread@@QAEKXZ 5f496c10 f afxinl3.obj
 0001:00095c58       ?SuspendThread@CWinThread@@QAEKXZ 5f496c58 f afxinl3.obj
 0001:00095ca0       ?PostThreadMessageW@CWinThread@@QAEHIIJ@Z 5f496ca0 f afxinl3.obj
 0001:00095cf6       ?LoadCursorW@CWinApp@@QBEPAUHICON__@@PBG@Z 5f496cf6 f afxinl3.obj
 0001:00095d24       ?LoadCursorW@CWinApp@@QBEPAUHICON__@@I@Z 5f496d24 f afxinl3.obj
 0001:00095d5c       ?LoadStandardCursor@CWinApp@@QBEPAUHICON__@@PBG@Z 5f496d5c f afxinl3.obj
 0001:00095d80       ?LoadOEMCursor@CWinApp@@QBEPAUHICON__@@I@Z 5f496d80 f afxinl3.obj
 0001:00095da9       ?LoadIconW@CWinApp@@QBEPAUHICON__@@PBG@Z 5f496da9 f afxinl3.obj
 0001:00095dd7       ?LoadIconW@CWinApp@@QBEPAUHICON__@@I@Z 5f496dd7 f afxinl3.obj
 0001:00095e0f       ?LoadStandardIcon@CWinApp@@QBEPAUHICON__@@PBG@Z 5f496e0f f afxinl3.obj
 0001:00095e33       ?LoadOEMIcon@CWinApp@@QBEPAUHICON__@@I@Z 5f496e33 f afxinl3.obj
 0001:00095e5c       ??0CWaitCursor@@QAE@XZ     5f496e5c f afxinl3.obj
 0001:00095e81       ??1CWaitCursor@@QAE@XZ     5f496e81 f afxinl3.obj
 0001:00095ea3       ?Restore@CWaitCursor@@QAEXXZ 5f496ea3 f afxinl3.obj
 0001:00095ec5       ?CloseWindow@CWnd@@QAEXXZ  5f496ec5 f afxinl3.obj
 0001:00095f15       ?OpenIcon@CWnd@@QAEHXZ     5f496f15 f afxinl3.obj
 0001:00095f70       ??_GCStatic@@UAEPAXI@Z     5f496f70 f afxinl3.obj
 0001:00095fb0       ??_GCButton@@UAEPAXI@Z     5f496fb0 f afxinl3.obj
 0001:00095ff0       ??_GCListBox@@UAEPAXI@Z    5f496ff0 f afxinl3.obj
 0001:00096030       ??_GCCheckListBox@@UAEPAXI@Z 5f497030 f afxinl3.obj
 0001:00096070       ??1CCheckListBox@@UAE@XZ   5f497070 f afxinl3.obj
 0001:000960d0       ??_GCComboBox@@UAEPAXI@Z   5f4970d0 f afxinl3.obj
 0001:00096110       ??_GCEdit@@UAEPAXI@Z       5f497110 f afxinl3.obj
 0001:00096150       ??_GCScrollBar@@UAEPAXI@Z  5f497150 f afxinl3.obj
 0001:00096190       ?_GetBaseClass@CException@@KGPAUCRuntimeClass@@XZ 5f497190 f except.obj
 0001:000961a5       ?GetRuntimeClass@CException@@UBEPAUCRuntimeClass@@XZ 5f4971a5 f except.obj
 0001:000961c0       ?_GetBaseClass@CMemoryException@@KGPAUCRuntimeClass@@XZ 5f4971c0 f except.obj
 0001:000961d5       ?GetRuntimeClass@CMemoryException@@UBEPAUCRuntimeClass@@XZ 5f4971d5 f except.obj
 0001:00096262       ?_GetBaseClass@CNotSupportedException@@KGPAUCRuntimeClass@@XZ 5f497262 f except.obj
 0001:00096277       ?GetRuntimeClass@CNotSupportedException@@UBEPAUCRuntimeClass@@XZ 5f497277 f except.obj
 0001:00096310       ?_GetBaseClass@CArchiveException@@KGPAUCRuntimeClass@@XZ 5f497310 f arcex.obj
 0001:00096325       ?GetRuntimeClass@CArchiveException@@UBEPAUCRuntimeClass@@XZ 5f497325 f arcex.obj
 0001:00096340       ?_GetBaseClass@CFile@@KGPAUCRuntimeClass@@XZ 5f497340 f filecore.obj
 0001:00096355       ?GetRuntimeClass@CFile@@UBEPAUCRuntimeClass@@XZ 5f497355 f filecore.obj
 0001:00096370       ?_GetBaseClass@CStdioFile@@KGPAUCRuntimeClass@@XZ 5f497370 f filetxt.obj
 0001:00096385       ?GetRuntimeClass@CStdioFile@@UBEPAUCRuntimeClass@@XZ 5f497385 f filetxt.obj
 0001:000963a0       ?_GetBaseClass@CMemFile@@KGPAUCRuntimeClass@@XZ 5f4973a0 f filemem.obj
 0001:000963b5       ?GetRuntimeClass@CMemFile@@UBEPAUCRuntimeClass@@XZ 5f4973b5 f filemem.obj
 0001:000963d0       ?_GetBaseClass@CSharedFile@@KGPAUCRuntimeClass@@XZ 5f4973d0 f fileshrd.obj
 0001:000963e5       ?GetRuntimeClass@CSharedFile@@UBEPAUCRuntimeClass@@XZ 5f4973e5 f fileshrd.obj
 0001:00096400       ?_GetBaseClass@CFileException@@KGPAUCRuntimeClass@@XZ 5f497400 f filex.obj
 0001:00096415       ?GetRuntimeClass@CFileException@@UBEPAUCRuntimeClass@@XZ 5f497415 f filex.obj
 0001:00096430       ?CreateObject@CByteArray@@SGPAVCObject@@XZ 5f497430 f array_b.obj
 0001:00096470       ?_GetBaseClass@CByteArray@@KGPAUCRuntimeClass@@XZ 5f497470 f array_b.obj
 0001:00096485       ?GetRuntimeClass@CByteArray@@UBEPAUCRuntimeClass@@XZ 5f497485 f array_b.obj
 0001:000964d4       ??5@YGAAVCArchive@@AAV0@AAPAVCByteArray@@@Z 5f4974d4 f array_b.obj
 0001:00096500       ?CreateObject@CDWordArray@@SGPAVCObject@@XZ 5f497500 f array_d.obj
 0001:00096540       ?_GetBaseClass@CDWordArray@@KGPAUCRuntimeClass@@XZ 5f497540 f array_d.obj
 0001:00096555       ?GetRuntimeClass@CDWordArray@@UBEPAUCRuntimeClass@@XZ 5f497555 f array_d.obj
 0001:000965a4       ??5@YGAAVCArchive@@AAV0@AAPAVCDWordArray@@@Z 5f4975a4 f array_d.obj
 0001:000965d0       ?_GetBaseClass@CPtrArray@@KGPAUCRuntimeClass@@XZ 5f4975d0 f array_p.obj
 0001:000965e5       ?GetRuntimeClass@CPtrArray@@UBEPAUCRuntimeClass@@XZ 5f4975e5 f array_p.obj
 0001:00096600       ?CreateObject@CObArray@@SGPAVCObject@@XZ 5f497600 f array_o.obj
 0001:00096640       ?_GetBaseClass@CObArray@@KGPAUCRuntimeClass@@XZ 5f497640 f array_o.obj
 0001:00096655       ?GetRuntimeClass@CObArray@@UBEPAUCRuntimeClass@@XZ 5f497655 f array_o.obj
 0001:000966a4       ??5@YGAAVCArchive@@AAV0@AAPAVCObArray@@@Z 5f4976a4 f array_o.obj
 0001:000966d0       ?CreateObject@CStringArray@@SGPAVCObject@@XZ 5f4976d0 f array_s.obj
 0001:00096710       ?_GetBaseClass@CStringArray@@KGPAUCRuntimeClass@@XZ 5f497710 f array_s.obj
 0001:00096725       ?GetRuntimeClass@CStringArray@@UBEPAUCRuntimeClass@@XZ 5f497725 f array_s.obj
 0001:00096774       ??5@YGAAVCArchive@@AAV0@AAPAVCStringArray@@@Z 5f497774 f array_s.obj
 0001:000967a0       ?_GetBaseClass@CUIntArray@@KGPAUCRuntimeClass@@XZ 5f4977a0 f array_u.obj
 0001:000967b5       ?GetRuntimeClass@CUIntArray@@UBEPAUCRuntimeClass@@XZ 5f4977b5 f array_u.obj
 0001:000967d0       ?CreateObject@CWordArray@@SGPAVCObject@@XZ 5f4977d0 f array_w.obj
 0001:00096810       ?_GetBaseClass@CWordArray@@KGPAUCRuntimeClass@@XZ 5f497810 f array_w.obj
 0001:00096825       ?GetRuntimeClass@CWordArray@@UBEPAUCRuntimeClass@@XZ 5f497825 f array_w.obj
 0001:00096874       ??5@YGAAVCArchive@@AAV0@AAPAVCWordArray@@@Z 5f497874 f array_w.obj
 0001:000968a0       ?CreateObject@CObList@@SGPAVCObject@@XZ 5f4978a0 f list_o.obj
 0001:000968e2       ?_GetBaseClass@CObList@@KGPAUCRuntimeClass@@XZ 5f4978e2 f list_o.obj
 0001:000968f7       ?GetRuntimeClass@CObList@@UBEPAUCRuntimeClass@@XZ 5f4978f7 f list_o.obj
 0001:00096946       ??5@YGAAVCArchive@@AAV0@AAPAVCObList@@@Z 5f497946 f list_o.obj
 0001:00096970       ?_GetBaseClass@CPtrList@@KGPAUCRuntimeClass@@XZ 5f497970 f list_p.obj
 0001:00096985       ?GetRuntimeClass@CPtrList@@UBEPAUCRuntimeClass@@XZ 5f497985 f list_p.obj
 0001:000969a0       ?CreateObject@CStringList@@SGPAVCObject@@XZ 5f4979a0 f list_s.obj
 0001:000969e2       ?_GetBaseClass@CStringList@@KGPAUCRuntimeClass@@XZ 5f4979e2 f list_s.obj
 0001:000969f7       ?GetRuntimeClass@CStringList@@UBEPAUCRuntimeClass@@XZ 5f4979f7 f list_s.obj
 0001:00096a46       ??5@YGAAVCArchive@@AAV0@AAPAVCStringList@@@Z 5f497a46 f list_s.obj
 0001:00096a70       ?_GetBaseClass@CMapPtrToPtr@@KGPAUCRuntimeClass@@XZ 5f497a70 f map_pp.obj
 0001:00096a85       ?GetRuntimeClass@CMapPtrToPtr@@UBEPAUCRuntimeClass@@XZ 5f497a85 f map_pp.obj
 0001:00096aa0       ?_GetBaseClass@CMapPtrToWord@@KGPAUCRuntimeClass@@XZ 5f497aa0 f map_pw.obj
 0001:00096ab5       ?GetRuntimeClass@CMapPtrToWord@@UBEPAUCRuntimeClass@@XZ 5f497ab5 f map_pw.obj
 0001:00096ad0       ?CreateObject@CMapStringToOb@@SGPAVCObject@@XZ 5f497ad0 f map_so.obj
 0001:00096b12       ?_GetBaseClass@CMapStringToOb@@KGPAUCRuntimeClass@@XZ 5f497b12 f map_so.obj
 0001:00096b27       ?GetRuntimeClass@CMapStringToOb@@UBEPAUCRuntimeClass@@XZ 5f497b27 f map_so.obj
 0001:00096b76       ??5@YGAAVCArchive@@AAV0@AAPAVCMapStringToOb@@@Z 5f497b76 f map_so.obj
 0001:00096ba0       ?_GetBaseClass@CMapStringToPtr@@KGPAUCRuntimeClass@@XZ 5f497ba0 f map_sp.obj
 0001:00096bb5       ?GetRuntimeClass@CMapStringToPtr@@UBEPAUCRuntimeClass@@XZ 5f497bb5 f map_sp.obj
 0001:00096bd0       ?CreateObject@CMapStringToString@@SGPAVCObject@@XZ 5f497bd0 f map_ss.obj
 0001:00096c12       ?_GetBaseClass@CMapStringToString@@KGPAUCRuntimeClass@@XZ 5f497c12 f map_ss.obj
 0001:00096c27       ?GetRuntimeClass@CMapStringToString@@UBEPAUCRuntimeClass@@XZ 5f497c27 f map_ss.obj
 0001:00096c76       ??5@YGAAVCArchive@@AAV0@AAPAVCMapStringToString@@@Z 5f497c76 f map_ss.obj
 0001:00096ca0       ?CreateObject@CMapWordToOb@@SGPAVCObject@@XZ 5f497ca0 f map_wo.obj
 0001:00096ce2       ?_GetBaseClass@CMapWordToOb@@KGPAUCRuntimeClass@@XZ 5f497ce2 f map_wo.obj
 0001:00096cf7       ?GetRuntimeClass@CMapWordToOb@@UBEPAUCRuntimeClass@@XZ 5f497cf7 f map_wo.obj
 0001:00096d46       ??5@YGAAVCArchive@@AAV0@AAPAVCMapWordToOb@@@Z 5f497d46 f map_wo.obj
 0001:00096d70       ?_GetBaseClass@CMapWordToPtr@@KGPAUCRuntimeClass@@XZ 5f497d70 f map_wp.obj
 0001:00096d85       ?GetRuntimeClass@CMapWordToPtr@@UBEPAUCRuntimeClass@@XZ 5f497d85 f map_wp.obj
 0001:00096da0       ?AfxSetModuleState@@YGPAVAFX_MODULE_STATE@@PAV1@@Z 5f497da0 f afxstate.obj
 0001:00096dd7       ??1AFX_MAINTAIN_STATE@@QAE@XZ 5f497dd7 f afxstate.obj
 0001:00096e05       ??0_AFX_THREAD_STATE@@QAE@XZ 5f497e05 f afxstate.obj
 0001:00096e8e       ??1_AFX_THREAD_STATE@@UAE@XZ 5f497e8e f afxstate.obj
 0001:00096fc1       ?AfxGetThreadState@@YGPAV_AFX_THREAD_STATE@@XZ 5f497fc1 f afxstate.obj
 0001:0009703c       ??0AFX_MODULE_STATE@@QAE@HP6GJPAUHWND__@@IIJ@ZKH@Z 5f49803c f afxstate.obj
 0001:0009717f       ??0AFX_MODULE_STATE@@QAE@HP6GJPAUHWND__@@IIJ@ZK@Z 5f49817f f afxstate.obj
 0001:00097284       ??1AFX_MODULE_STATE@@UAE@XZ 5f498284 f afxstate.obj
 0001:000973d6       ??0AFX_MODULE_THREAD_STATE@@QAE@XZ 5f4983d6 f afxstate.obj
 0001:000974c0       ??1AFX_MODULE_THREAD_STATE@@UAE@XZ 5f4984c0 f afxstate.obj
 0001:000976d4       ?AfxWndProcBase@@YGJPAUHWND__@@IIJ@Z 5f4986d4 f afxstate.obj
 0001:0009775c       ?AfxGetAppModuleState@@YGPAVAFX_MODULE_STATE@@XZ 5f49875c f afxstate.obj
 0001:00097776       ?AfxGetModuleState@@YGPAVAFX_MODULE_STATE@@XZ 5f498776 f afxstate.obj
 0001:000977e3       ?AfxGetModuleThreadState@@YGPAVAFX_MODULE_THREAD_STATE@@XZ 5f4987e3 f afxstate.obj
 0001:00097803       ?Unlock@CTypeLibCache@@QAEXXZ 5f498803 f afxstate.obj
 0001:000978b0       ??_E_AFX_THREAD_STATE@@UAEPAXI@Z 5f4988b0 f afxstate.obj
 0001:000978b0       ??_G_AFX_THREAD_STATE@@UAEPAXI@Z 5f4988b0 f afxstate.obj
 0001:000978f0       ??1?$CThreadLocal@V_AFX_THREAD_STATE@@@@QAE@XZ 5f4988f0 f afxstate.obj
 0001:00097950       ??_GAFX_MODULE_STATE@@UAEPAXI@Z 5f498950 f afxstate.obj
 0001:00097950       ??_EAFX_MODULE_STATE@@UAEPAXI@Z 5f498950 f afxstate.obj
 0001:00097990       ??1?$CThreadLocal@VAFX_MODULE_THREAD_STATE@@@@QAE@XZ 5f498990 f afxstate.obj
 0001:000979f0       ??_GAFX_MODULE_THREAD_STATE@@UAEPAXI@Z 5f4989f0 f afxstate.obj
 0001:000979f0       ??_EAFX_MODULE_THREAD_STATE@@UAEPAXI@Z 5f4989f0 f afxstate.obj
 0001:00097a30       ??_GCHandleMap@@QAEPAXI@Z  5f498a30 f afxstate.obj
 0001:00097a70       ??1?$CProcessLocal@V_AFX_BASE_MODULE_STATE@@@@QAE@XZ 5f498a70 f afxstate.obj
 0001:00097ad0       ??_E_AFX_BASE_MODULE_STATE@@UAEPAXI@Z 5f498ad0 f afxstate.obj
 0001:00097ad0       ??_G_AFX_BASE_MODULE_STATE@@UAEPAXI@Z 5f498ad0 f afxstate.obj
 0001:00097b10       ??1_AFX_BASE_MODULE_STATE@@UAE@XZ 5f498b10 f afxstate.obj
 0001:00097b70       ?AddHead@CSimpleList@@QAEXPAX@Z 5f498b70 f afxtls.obj
 0001:00097bf2       ?Remove@CSimpleList@@QAEHPAX@Z 5f498bf2 f afxtls.obj
 0001:00097d15       ??2CNoTrackObject@@SGPAXIPBDH@Z 5f498d15 f afxtls.obj
 0001:00097d30       ??2CNoTrackObject@@SGPAXI@Z 5f498d30 f afxtls.obj
 0001:00097d66       ??3CNoTrackObject@@SGXPAX@Z 5f498d66 f afxtls.obj
 0001:00097d8c       ??0CThreadSlotData@@QAE@XZ 5f498d8c f afxtls.obj
 0001:00097e10       ??1CThreadSlotData@@QAE@XZ 5f498e10 f afxtls.obj
 0001:00097ec9       ?AllocSlot@CThreadSlotData@@QAEHXZ 5f498ec9 f afxtls.obj
 0001:000980c2       ?FreeSlot@CThreadSlotData@@QAEXH@Z 5f4990c2 f afxtls.obj
 0001:000981f7       ?SetValue@CThreadSlotData@@QAEXHPAX@Z 5f4991f7 f afxtls.obj
 0001:0009844e       ?AssignInstance@CThreadSlotData@@QAEXPAUHINSTANCE__@@@Z 5f49944e f afxtls.obj
 0001:00098521       ?DeleteValues@CThreadSlotData@@QAEXPAUCThreadData@@PAUHINSTANCE__@@@Z 5f499521 f afxtls.obj
 0001:0009865f       ?DeleteValues@CThreadSlotData@@QAEXPAUHINSTANCE__@@H@Z 5f49965f f afxtls.obj
 0001:00098705       ?GetData@CThreadLocalObject@@QAEPAVCNoTrackObject@@P6GPAV2@XZ@Z 5f499705 f afxtls.obj
 0001:00098832       ?GetDataNA@CThreadLocalObject@@QAEPAVCNoTrackObject@@XZ 5f499832 f afxtls.obj
 0001:0009887f       ??1CThreadLocalObject@@QAE@XZ 5f49987f f afxtls.obj
 0001:000988c8       ?GetData@CProcessLocalObject@@QAEPAVCNoTrackObject@@P6GPAV2@XZ@Z 5f4998c8 f afxtls.obj
 0001:00098998       ??1CProcessLocalObject@@QAE@XZ 5f499998 f afxtls.obj
 0001:000989f5       ?AfxInitLocalData@@YGXPAUHINSTANCE__@@@Z 5f4999f5 f afxtls.obj
 0001:00098a23       ?AfxTermLocalData@@YGXPAUHINSTANCE__@@H@Z 5f499a23 f afxtls.obj
 0001:00098a55       ?AfxTlsAddRef@@YGXXZ       5f499a55 f afxtls.obj
 0001:00098a6b       ?AfxTlsRelease@@YGXXZ      5f499a6b f afxtls.obj
 0001:00098ac0       ??0CThreadData@@QAE@XZ     5f499ac0 f afxtls.obj
 0001:00098b30       ??_ECThreadData@@UAEPAXI@Z 5f499b30 f afxtls.obj
 0001:00098b30       ??_GCThreadData@@UAEPAXI@Z 5f499b30 f afxtls.obj
 0001:00098b70       ??1CThreadData@@UAE@XZ     5f499b70 f afxtls.obj
 0001:00098bd0       ?GetThreadValue@CThreadSlotData@@QAEPAXH@Z 5f499bd0 f afxtls.obj
 0001:00098cd0       ??_GCThreadSlotData@@QAEPAXI@Z 5f499cd0 f afxtls.obj
 0001:00098d10       ?_GetBaseClass@CCriticalSection@@KGPAUCRuntimeClass@@XZ 5f499d10 f mtcore.obj
 0001:00098d25       ?GetRuntimeClass@CCriticalSection@@UBEPAUCRuntimeClass@@XZ 5f499d25 f mtcore.obj
 0001:00098d40       ?_GetBaseClass@CSyncObject@@KGPAUCRuntimeClass@@XZ 5f499d40 f mtcore.obj
 0001:00098d55       ?GetRuntimeClass@CSyncObject@@UBEPAUCRuntimeClass@@XZ 5f499d55 f mtcore.obj
 0001:00098d70       ?_GetBaseClass@CEvent@@KGPAUCRuntimeClass@@XZ 5f499d70 f mtex.obj
 0001:00098d85       ?GetRuntimeClass@CEvent@@UBEPAUCRuntimeClass@@XZ 5f499d85 f mtex.obj
 0001:00098da0       ?_GetBaseClass@CSemaphore@@KGPAUCRuntimeClass@@XZ 5f499da0 f mtex.obj
 0001:00098db5       ?GetRuntimeClass@CSemaphore@@UBEPAUCRuntimeClass@@XZ 5f499db5 f mtex.obj
 0001:00098dd0       ?_GetBaseClass@CMutex@@KGPAUCRuntimeClass@@XZ 5f499dd0 f mtex.obj
 0001:00098de5       ?GetRuntimeClass@CMutex@@UBEPAUCRuntimeClass@@XZ 5f499de5 f mtex.obj
 0001:00098e00       ?CreateObject@CWnd@@SGPAVCObject@@XZ 5f499e00 f wincore.obj
 0001:00098e40       ?_GetBaseClass@CWnd@@KGPAUCRuntimeClass@@XZ 5f499e40 f wincore.obj
 0001:00098e55       ?GetRuntimeClass@CWnd@@UBEPAUCRuntimeClass@@XZ 5f499e55 f wincore.obj
 0001:00098e70       ?CreateObject@CFrameWnd@@SGPAVCObject@@XZ 5f499e70 f winfrm.obj
 0001:00098eb3       ?_GetBaseClass@CFrameWnd@@KGPAUCRuntimeClass@@XZ 5f499eb3 f winfrm.obj
 0001:00098ec8       ?GetRuntimeClass@CFrameWnd@@UBEPAUCRuntimeClass@@XZ 5f499ec8 f winfrm.obj
 0001:00098ee3       ?_GetBaseClass@CView@@KGPAUCRuntimeClass@@XZ 5f499ee3 f winfrm.obj
 0001:00098ef8       ?GetRuntimeClass@CView@@UBEPAUCRuntimeClass@@XZ 5f499ef8 f winfrm.obj
 0001:00098f13       ?_GetBaseClass@CControlBar@@KGPAUCRuntimeClass@@XZ 5f499f13 f winfrm.obj
 0001:00098f28       ?GetRuntimeClass@CControlBar@@UBEPAUCRuntimeClass@@XZ 5f499f28 f winfrm.obj
 0001:00098f50       ?CreateObject@CMDIFrameWnd@@SGPAVCObject@@XZ 5f499f50 f winmdi.obj
 0001:00098fdb       ?_GetBaseClass@CMDIFrameWnd@@KGPAUCRuntimeClass@@XZ 5f499fdb f winmdi.obj
 0001:00098ff0       ?GetRuntimeClass@CMDIFrameWnd@@UBEPAUCRuntimeClass@@XZ 5f499ff0 f winmdi.obj
 0001:0009900b       ?CreateObject@CMDIChildWnd@@SGPAVCObject@@XZ 5f49a00b f winmdi.obj
 0001:00099096       ?_GetBaseClass@CMDIChildWnd@@KGPAUCRuntimeClass@@XZ 5f49a096 f winmdi.obj
 0001:000990ab       ?GetRuntimeClass@CMDIChildWnd@@UBEPAUCRuntimeClass@@XZ 5f49a0ab f winmdi.obj
 0001:000990d0       ?_GetBaseClass@CToolTipCtrl@@KGPAUCRuntimeClass@@XZ 5f49a0d0 f tooltip.obj
 0001:000990e5       ?GetRuntimeClass@CToolTipCtrl@@UBEPAUCRuntimeClass@@XZ 5f49a0e5 f tooltip.obj
 0001:00099100       ?CreateObject@CMiniFrameWnd@@SGPAVCObject@@XZ 5f49a100 f winmini.obj
 0001:00099143       ?_GetBaseClass@CMiniFrameWnd@@KGPAUCRuntimeClass@@XZ 5f49a143 f winmini.obj
 0001:00099158       ?GetRuntimeClass@CMiniFrameWnd@@UBEPAUCRuntimeClass@@XZ 5f49a158 f winmini.obj
 0001:00099180       ??0CControlBar@@IAE@XZ     5f49a180 f barcore.obj
 0001:00099289       ?PreCreateWindow@CControlBar@@UAEHAAUtagCREATESTRUCTW@@@Z 5f49a289 f barcore.obj
 0001:0009939a       ?SetBarStyle@CControlBar@@QAEXK@Z 5f49a39a f barcore.obj
 0001:000993f8       ?OnBarStyleChange@CControlBar@@UAEXKK@Z 5f49a3f8 f barcore.obj
 0001:00099410       ?AllocElements@CControlBar@@QAEHHH@Z 5f49a410 f barcore.obj
 0001:00099520       ??_GCControlBar@@UAEPAXI@Z 5f49a520 f barcore.obj
 0001:00099520       ??_ECControlBar@@UAEPAXI@Z 5f49a520 f barcore.obj
 0001:00099560       ??0CToolBar@@QAE@XZ        5f49a560 f bartool.obj
 0001:00099671       ??1CToolBar@@UAE@XZ        5f49a671 f bartool.obj
 0001:0009971f       ?Create@CToolBar@@QAEHPAVCWnd@@KI@Z 5f49a71f f bartool.obj
 0001:0009982c       ?OnNcCreate@CToolBar@@IAEHPAUtagCREATESTRUCTW@@@Z 5f49a82c f bartool.obj
 0001:000998a4       ?SetOwner@CToolBar@@QAEXPAVCWnd@@@Z 5f49a8a4 f bartool.obj
 0001:00099933       ?SetSizes@CToolBar@@QAEXUtagSIZE@@0@Z 5f49a933 f bartool.obj
 0001:00099ac7       ?SetHeight@CToolBar@@QAEXH@Z 5f49aac7 f bartool.obj
 0001:00099bae       ?LoadToolBar@CToolBar@@QAEHPBG@Z 5f49abae f bartool.obj
 0001:00099db8       ?LoadBitmapW@CToolBar@@QAEHPBG@Z 5f49adb8 f bartool.obj
 0001:00099e7e       ?SetBitmap@CToolBar@@QAEHPAUHBITMAP__@@@Z 5f49ae7e f bartool.obj
 0001:00099eee       ?AddReplaceBitmap@CToolBar@@QAEHPAUHBITMAP__@@@Z 5f49aeee f bartool.obj
 0001:0009a00b       ?SetButtons@CToolBar@@QAEHPBIH@Z 5f49b00b f bartool.obj
 0001:0009a252       ?_GetBaseClass@CToolBar@@KGPAUCRuntimeClass@@XZ 5f49b252 f bartool.obj
 0001:0009a267       ?GetRuntimeClass@CToolBar@@UBEPAUCRuntimeClass@@XZ 5f49b267 f bartool.obj
 0001:0009a290       ??_GCToolBar@@UAEPAXI@Z    5f49b290 f bartool.obj
 0001:0009a2d0       ?_GetBaseClass@CDialogBar@@KGPAUCRuntimeClass@@XZ 5f49b2d0 f bardlg.obj
 0001:0009a2e5       ?GetRuntimeClass@CDialogBar@@UBEPAUCRuntimeClass@@XZ 5f49b2e5 f bardlg.obj
 0001:0009a300       ??0CStatusBar@@QAE@XZ      5f49b300 f barstat.obj
 0001:0009a3d1       ??1CStatusBar@@UAE@XZ      5f49b3d1 f barstat.obj
 0001:0009a445       ?Create@CStatusBar@@QAEHPAVCWnd@@KI@Z 5f49b445 f barstat.obj
 0001:0009a512       ?PreCreateWindow@CStatusBar@@UAEHAAUtagCREATESTRUCTW@@@Z 5f49b512 f barstat.obj
 0001:0009a55a       ?SetIndicators@CStatusBar@@QAEHPBIH@Z 5f49b55a f barstat.obj
 0001:0009a823       ?AllocElements@CStatusBar@@QAEHHH@Z 5f49b823 f barstat.obj
 0001:0009a8e9       ?CalcInsideRect@CStatusBar@@QBEXAAVCRect@@H@Z 5f49b8e9 f barstat.obj
 0001:0009a9e7       ?UpdateAllPanes@CStatusBar@@IAEXHH@Z 5f49b9e7 f barstat.obj
 0001:0009ac9e       ?_GetBaseClass@CStatusBar@@KGPAUCRuntimeClass@@XZ 5f49bc9e f barstat.obj
 0001:0009acb3       ?GetRuntimeClass@CStatusBar@@UBEPAUCRuntimeClass@@XZ 5f49bcb3 f barstat.obj
 0001:0009acd0       ??_GCStatusBar@@UAEPAXI@Z  5f49bcd0 f barstat.obj
 0001:0009ad10       ?_GetBaseClass@CDockBar@@KGPAUCRuntimeClass@@XZ 5f49bd10 f bardock.obj
 0001:0009ad25       ?GetRuntimeClass@CDockBar@@UBEPAUCRuntimeClass@@XZ 5f49bd25 f bardock.obj
 0001:0009ad40       ?CreateObject@CMiniDockFrameWnd@@SGPAVCObject@@XZ 5f49bd40 f bardock.obj
 0001:0009ad83       ?_GetBaseClass@CMiniDockFrameWnd@@KGPAUCRuntimeClass@@XZ 5f49bd83 f bardock.obj
 0001:0009ad98       ?GetRuntimeClass@CMiniDockFrameWnd@@UBEPAUCRuntimeClass@@XZ 5f49bd98 f bardock.obj
 0001:0009adc0       ?CreateObject@CDockState@@SGPAVCObject@@XZ 5f49bdc0 f dockstat.obj
 0001:0009ae00       ?_GetBaseClass@CDockState@@KGPAUCRuntimeClass@@XZ 5f49be00 f dockstat.obj
 0001:0009ae15       ?GetRuntimeClass@CDockState@@UBEPAUCRuntimeClass@@XZ 5f49be15 f dockstat.obj
 0001:0009ae64       ??5@YGAAVCArchive@@AAV0@AAPAVCDockState@@@Z 5f49be64 f dockstat.obj
 0001:0009ae90       ?_GetBaseClass@CPreviewDC@@KGPAUCRuntimeClass@@XZ 5f49be90 f dcprev.obj
 0001:0009aea5       ?GetRuntimeClass@CPreviewDC@@UBEPAUCRuntimeClass@@XZ 5f49bea5 f dcprev.obj
 0001:0009aec0       ?_GetBaseClass@CMetaFileDC@@KGPAUCRuntimeClass@@XZ 5f49bec0 f dcmeta.obj
 0001:0009aed5       ?GetRuntimeClass@CMetaFileDC@@UBEPAUCRuntimeClass@@XZ 5f49bed5 f dcmeta.obj
 0001:0009aef0       ?_GetBaseClass@CStatic@@KGPAUCRuntimeClass@@XZ 5f49bef0 f winctrl1.obj
 0001:0009af05       ?GetRuntimeClass@CStatic@@UBEPAUCRuntimeClass@@XZ 5f49bf05 f winctrl1.obj
 0001:0009af20       ?_GetBaseClass@CButton@@KGPAUCRuntimeClass@@XZ 5f49bf20 f winctrl1.obj
 0001:0009af35       ?GetRuntimeClass@CButton@@UBEPAUCRuntimeClass@@XZ 5f49bf35 f winctrl1.obj
 0001:0009af50       ?_GetBaseClass@CListBox@@KGPAUCRuntimeClass@@XZ 5f49bf50 f winctrl1.obj
 0001:0009af65       ?GetRuntimeClass@CListBox@@UBEPAUCRuntimeClass@@XZ 5f49bf65 f winctrl1.obj
 0001:0009af80       ?_GetBaseClass@CComboBox@@KGPAUCRuntimeClass@@XZ 5f49bf80 f winctrl1.obj
 0001:0009af95       ?GetRuntimeClass@CComboBox@@UBEPAUCRuntimeClass@@XZ 5f49bf95 f winctrl1.obj
 0001:0009afb0       ?_GetBaseClass@CEdit@@KGPAUCRuntimeClass@@XZ 5f49bfb0 f winctrl1.obj
 0001:0009afc5       ?GetRuntimeClass@CEdit@@UBEPAUCRuntimeClass@@XZ 5f49bfc5 f winctrl1.obj
 0001:0009afe0       ?_GetBaseClass@CScrollBar@@KGPAUCRuntimeClass@@XZ 5f49bfe0 f winctrl1.obj
 0001:0009aff5       ?GetRuntimeClass@CScrollBar@@UBEPAUCRuntimeClass@@XZ 5f49bff5 f winctrl1.obj
 0001:0009b010       ?_GetBaseClass@CDragListBox@@KGPAUCRuntimeClass@@XZ 5f49c010 f winctrl2.obj
 0001:0009b025       ?GetRuntimeClass@CDragListBox@@UBEPAUCRuntimeClass@@XZ 5f49c025 f winctrl2.obj
 0001:0009b040       ?_GetBaseClass@CSpinButtonCtrl@@KGPAUCRuntimeClass@@XZ 5f49c040 f winctrl2.obj
 0001:0009b055       ?GetRuntimeClass@CSpinButtonCtrl@@UBEPAUCRuntimeClass@@XZ 5f49c055 f winctrl2.obj
 0001:0009b070       ?_GetBaseClass@CSliderCtrl@@KGPAUCRuntimeClass@@XZ 5f49c070 f winctrl2.obj
 0001:0009b085       ?GetRuntimeClass@CSliderCtrl@@UBEPAUCRuntimeClass@@XZ 5f49c085 f winctrl2.obj
 0001:0009b0a0       ?_GetBaseClass@CProgressCtrl@@KGPAUCRuntimeClass@@XZ 5f49c0a0 f winctrl2.obj
 0001:0009b0b5       ?GetRuntimeClass@CProgressCtrl@@UBEPAUCRuntimeClass@@XZ 5f49c0b5 f winctrl2.obj
 0001:0009b0d0       ?_GetBaseClass@CHeaderCtrl@@KGPAUCRuntimeClass@@XZ 5f49c0d0 f winctrl2.obj
 0001:0009b0e5       ?GetRuntimeClass@CHeaderCtrl@@UBEPAUCRuntimeClass@@XZ 5f49c0e5 f winctrl2.obj
 0001:0009b100       ?_GetBaseClass@CHotKeyCtrl@@KGPAUCRuntimeClass@@XZ 5f49c100 f winctrl2.obj
 0001:0009b115       ?GetRuntimeClass@CHotKeyCtrl@@UBEPAUCRuntimeClass@@XZ 5f49c115 f winctrl2.obj
 0001:0009b130       ?_GetBaseClass@CAnimateCtrl@@KGPAUCRuntimeClass@@XZ 5f49c130 f winctrl2.obj
 0001:0009b145       ?GetRuntimeClass@CAnimateCtrl@@UBEPAUCRuntimeClass@@XZ 5f49c145 f winctrl2.obj
 0001:0009b160       ?_GetBaseClass@CTabCtrl@@KGPAUCRuntimeClass@@XZ 5f49c160 f winctrl2.obj
 0001:0009b175       ?GetRuntimeClass@CTabCtrl@@UBEPAUCRuntimeClass@@XZ 5f49c175 f winctrl2.obj
 0001:0009b190       ?_GetBaseClass@CTreeCtrl@@KGPAUCRuntimeClass@@XZ 5f49c190 f winctrl2.obj
 0001:0009b1a5       ?GetRuntimeClass@CTreeCtrl@@UBEPAUCRuntimeClass@@XZ 5f49c1a5 f winctrl2.obj
 0001:0009b1c0       ?_GetBaseClass@CListCtrl@@KGPAUCRuntimeClass@@XZ 5f49c1c0 f winctrl2.obj
 0001:0009b1d5       ?GetRuntimeClass@CListCtrl@@UBEPAUCRuntimeClass@@XZ 5f49c1d5 f winctrl2.obj
 0001:0009b1f0       ?_GetBaseClass@CToolBarCtrl@@KGPAUCRuntimeClass@@XZ 5f49c1f0 f winctrl2.obj
 0001:0009b205       ?GetRuntimeClass@CToolBarCtrl@@UBEPAUCRuntimeClass@@XZ 5f49c205 f winctrl2.obj
 0001:0009b220       ?_GetBaseClass@CStatusBarCtrl@@KGPAUCRuntimeClass@@XZ 5f49c220 f winctrl2.obj
 0001:0009b235       ?GetRuntimeClass@CStatusBarCtrl@@UBEPAUCRuntimeClass@@XZ 5f49c235 f winctrl2.obj
 0001:0009b250       ?CreateObject@CImageList@@SGPAVCObject@@XZ 5f49c250 f winctrl2.obj
 0001:0009b290       ?_GetBaseClass@CImageList@@KGPAUCRuntimeClass@@XZ 5f49c290 f winctrl2.obj
 0001:0009b2a5       ?GetRuntimeClass@CImageList@@UBEPAUCRuntimeClass@@XZ 5f49c2a5 f winctrl2.obj
 0001:0009b2c0       ?_GetBaseClass@CRichEditCtrl@@KGPAUCRuntimeClass@@XZ 5f49c2c0 f winctrl2.obj
 0001:0009b2d5       ?GetRuntimeClass@CRichEditCtrl@@UBEPAUCRuntimeClass@@XZ 5f49c2d5 f winctrl2.obj
 0001:0009b2f0       ?_GetBaseClass@CCheckListBox@@KGPAUCRuntimeClass@@XZ 5f49c2f0 f winctrl3.obj
 0001:0009b305       ?GetRuntimeClass@CCheckListBox@@UBEPAUCRuntimeClass@@XZ 5f49c305 f winctrl3.obj
 0001:0009b390       ??1?$CProcessLocal@V_AFX_CHECKLIST_STATE@@@@QAE@XZ 5f49c390 f winctrl3.obj
 0001:0009b3f0       ?_GetBaseClass@CBitmapButton@@KGPAUCRuntimeClass@@XZ 5f49c3f0 f winbtn.obj
 0001:0009b405       ?GetRuntimeClass@CBitmapButton@@UBEPAUCRuntimeClass@@XZ 5f49c405 f winbtn.obj
 0001:0009b420       ?_GetBaseClass@CDialog@@KGPAUCRuntimeClass@@XZ 5f49c420 f dlgcore.obj
 0001:0009b435       ?GetRuntimeClass@CDialog@@UBEPAUCRuntimeClass@@XZ 5f49c435 f dlgcore.obj
 0001:0009b450       ?_GetBaseClass@CPropertyPage@@KGPAUCRuntimeClass@@XZ 5f49c450 f dlgprop.obj
 0001:0009b465       ?GetRuntimeClass@CPropertyPage@@UBEPAUCRuntimeClass@@XZ 5f49c465 f dlgprop.obj
 0001:0009b480       ?_GetBaseClass@CPropertySheet@@KGPAUCRuntimeClass@@XZ 5f49c480 f dlgprop.obj
 0001:0009b495       ?GetRuntimeClass@CPropertySheet@@UBEPAUCRuntimeClass@@XZ 5f49c495 f dlgprop.obj
 0001:0009b4b0       ?_GetBaseClass@CFileDialog@@KGPAUCRuntimeClass@@XZ 5f49c4b0 f dlgfile.obj
 0001:0009b4c5       ?GetRuntimeClass@CFileDialog@@UBEPAUCRuntimeClass@@XZ 5f49c4c5 f dlgfile.obj
 0001:0009b4e0       ?_GetBaseClass@CPrintDialog@@KGPAUCRuntimeClass@@XZ 5f49c4e0 f dlgprnt.obj
 0001:0009b4f5       ?GetRuntimeClass@CPrintDialog@@UBEPAUCRuntimeClass@@XZ 5f49c4f5 f dlgprnt.obj
 0001:0009b510       ?_GetBaseClass@CPageSetupDialog@@KGPAUCRuntimeClass@@XZ 5f49c510 f dlgprnt.obj
 0001:0009b525       ?GetRuntimeClass@CPageSetupDialog@@UBEPAUCRuntimeClass@@XZ 5f49c525 f dlgprnt.obj
 0001:0009b540       ?_GetBaseClass@CColorDialog@@KGPAUCRuntimeClass@@XZ 5f49c540 f dlgclr.obj
 0001:0009b555       ?GetRuntimeClass@CColorDialog@@UBEPAUCRuntimeClass@@XZ 5f49c555 f dlgclr.obj
 0001:0009b5e0       ??1?$CProcessLocal@V_AFX_COLOR_STATE@@@@QAE@XZ 5f49c5e0 f dlgclr.obj
 0001:0009b640       ?_GetBaseClass@CFontDialog@@KGPAUCRuntimeClass@@XZ 5f49c640 f dlgfnt.obj
 0001:0009b655       ?GetRuntimeClass@CFontDialog@@UBEPAUCRuntimeClass@@XZ 5f49c655 f dlgfnt.obj
 0001:0009b670       ?_GetBaseClass@CFindReplaceDialog@@KGPAUCRuntimeClass@@XZ 5f49c670 f dlgfr.obj
 0001:0009b685       ?GetRuntimeClass@CFindReplaceDialog@@UBEPAUCRuntimeClass@@XZ 5f49c685 f dlgfr.obj
 0001:0009b6a0       ?AfxThunkInitCommonControls@@YGXXZ 5f49c6a0 f ccdata.obj
 0001:0009b6c8       ?AfxThunkLBItemFromPt@@YGHPAUHWND__@@UtagPOINT@@H@Z 5f49c6c8 f ccdata.obj
 0001:0009b706       ?AfxThunkCreateMappedBitmap@@YGPAUHBITMAP__@@PAUHINSTANCE__@@HIPAU_COLORMAP@@H@Z 5f49c706 f ccdata.obj
 0001:0009b748       ?AfxThunkMakeDragList@@YGHPAUHWND__@@@Z 5f49c748 f ccdata.obj
 0001:0009b77a       ?AfxThunkImageList_SetOverlayImage@@YGHPAU_IMAGELIST@@HH@Z 5f49c77a f ccdata.obj
 0001:0009b7b4       ?AfxThunkImageList_GetBkColor@@YGKPAU_IMAGELIST@@@Z 5f49c7b4 f ccdata.obj
 0001:0009b7e6       ?AfxThunkImageList_SetBkColor@@YGKPAU_IMAGELIST@@K@Z 5f49c7e6 f ccdata.obj
 0001:0009b81c       ?AfxThunkImageList_GetImageInfo@@YGHPAU_IMAGELIST@@HPAU_IMAGEINFO@@@Z 5f49c81c f ccdata.obj
 0001:0009b856       ?AfxThunkImageList_Draw@@YGHPAU_IMAGELIST@@HPAUHDC__@@HHI@Z 5f49c856 f ccdata.obj
 0001:0009b89c       ?AfxThunkImageList_GetIcon@@YGPAUHICON__@@PAU_IMAGELIST@@HI@Z 5f49c89c f ccdata.obj
 0001:0009b8d6       ?AfxThunkImageList_ReplaceIcon@@YGHPAU_IMAGELIST@@HPAUHICON__@@@Z 5f49c8d6 f ccdata.obj
 0001:0009b910       ?AfxThunkImageList_Replace@@YGHPAU_IMAGELIST@@HPAUHBITMAP__@@1@Z 5f49c910 f ccdata.obj
 0001:0009b94e       ?AfxThunkImageList_Remove@@YGHPAU_IMAGELIST@@H@Z 5f49c94e f ccdata.obj
 0001:0009b984       ?AfxThunkImageList_AddMasked@@YGHPAU_IMAGELIST@@PAUHBITMAP__@@K@Z 5f49c984 f ccdata.obj
 0001:0009b9be       ?AfxThunkImageList_EndDrag@@YGXXZ 5f49c9be f ccdata.obj
 0001:0009b9ea       ?AfxThunkImageList_BeginDrag@@YGHPAU_IMAGELIST@@HHH@Z 5f49c9ea f ccdata.obj
 0001:0009ba28       ?AfxThunkImageList_Write@@YGHPAU_IMAGELIST@@PAUIStream@@@Z 5f49ca28 f ccdata.obj
 0001:0009ba5e       ?AfxThunkImageList_Read@@YGPAU_IMAGELIST@@PAUIStream@@@Z 5f49ca5e f ccdata.obj
 0001:0009ba90       ?AfxThunkImageList_Merge@@YGPAU_IMAGELIST@@PAU1@H0HHH@Z 5f49ca90 f ccdata.obj
 0001:0009bad6       ?AfxThunkImageList_Create@@YGPAU_IMAGELIST@@HHIHH@Z 5f49cad6 f ccdata.obj
 0001:0009bb18       ?AfxThunkImageList_Destroy@@YGHPAU_IMAGELIST@@@Z 5f49cb18 f ccdata.obj
 0001:0009bb4a       ?AfxThunkImageList_DragMove@@YGHHH@Z 5f49cb4a f ccdata.obj
 0001:0009bb80       ?AfxThunkImageList_SetDragCursorImage@@YGHPAU_IMAGELIST@@HHH@Z 5f49cb80 f ccdata.obj
 0001:0009bbbe       ?AfxThunkImageList_DragShowNolock@@YGHH@Z 5f49cbbe f ccdata.obj
 0001:0009bbf0       ?AfxThunkImageList_GetDragImage@@YGPAU_IMAGELIST@@PAUtagPOINT@@0@Z 5f49cbf0 f ccdata.obj
 0001:0009bc26       ?AfxThunkImageList_DragEnter@@YGHPAUHWND__@@HH@Z 5f49cc26 f ccdata.obj
 0001:0009bc60       ?AfxThunkImageList_DragLeave@@YGHPAUHWND__@@@Z 5f49cc60 f ccdata.obj
 0001:0009bc92       ?AfxThunkImageList_GetImageCount@@YGHPAU_IMAGELIST@@@Z 5f49cc92 f ccdata.obj
 0001:0009bcc4       ?AfxThunkImageList_Add@@YGHPAU_IMAGELIST@@PAUHBITMAP__@@1@Z 5f49ccc4 f ccdata.obj
 0001:0009bcfe       ?AfxThunkImageList_LoadImage@@YGPAU_IMAGELIST@@PAUHINSTANCE__@@PBGHHKII@Z 5f49ccfe f ccdata.obj
 0001:0009bd48       ?AfxThunkDestroyPropertySheetPage@@YGHPAU_PSP@@@Z 5f49cd48 f ccdata.obj
 0001:0009bd7a       ?AfxThunkPropertySheet@@YGHPBU_PROPSHEETHEADERW@@@Z 5f49cd7a f ccdata.obj
 0001:0009bdac       ?AfxThunkCreatePropertySheetPage@@YGPAU_PSP@@PBU_PROPSHEETPAGEW@@@Z 5f49cdac f ccdata.obj
 0001:0009bde0       ?AfxThunkSHGetFileInfo@@YGKPBGKPAU_SHFILEINFOW@@II@Z 5f49cde0 f ccdata.obj
 0001:0009be1e       ?AfxThunkExtractIcon@@YGPAUHICON__@@PAUHINSTANCE__@@PBGI@Z 5f49ce1e f ccdata.obj
 0001:0009be58       ?AfxThunkDragQueryFile@@YGIPAUHDROP__@@IPAGI@Z 5f49ce58 f ccdata.obj
 0001:0009be96       ?AfxThunkDragAcceptFiles@@YGXPAUHWND__@@H@Z 5f49ce96 f ccdata.obj
 0001:0009becc       ?AfxThunkDragFinish@@YGXPAUHDROP__@@@Z 5f49cecc f ccdata.obj
 0001:0009befe       ?AfxThunkChooseColor@@YGHPAUtagCHOOSECOLORW@@@Z 5f49cefe f ccdata.obj
 0001:0009bf2c       ?AfxThunkCommDlgExtendedError@@YGKXZ 5f49cf2c f ccdata.obj
 0001:0009bf58       ?AfxThunkReplaceText@@YGPAUHWND__@@PAUtagFINDREPLACEW@@@Z 5f49cf58 f ccdata.obj
 0001:0009bf8a       ?AfxThunkGetSaveFileName@@YGHPAUtagOFNW@@@Z 5f49cf8a f ccdata.obj
 0001:0009bfbc       ?AfxThunkGetFileTitle@@YGFPBGPAGG@Z 5f49cfbc f ccdata.obj
 0001:0009bff6       ?AfxThunkPrintDlg@@YGHPAUtagPDW@@@Z 5f49cff6 f ccdata.obj
 0001:0009c028       ?AfxThunkChooseFont@@YGHPAUtagCHOOSEFONTW@@@Z 5f49d028 f ccdata.obj
 0001:0009c05a       ?AfxThunkFindText@@YGPAUHWND__@@PAUtagFINDREPLACEW@@@Z 5f49d05a f ccdata.obj
 0001:0009c08c       ?AfxThunkPageSetupDlg@@YGHPAUtagPSDW@@@Z 5f49d08c f ccdata.obj
 0001:0009c0be       ?AfxThunkGetOpenFileName@@YGHPAUtagOFNW@@@Z 5f49d0be f ccdata.obj
 0001:0009c0f0       ?AfxThunkDocumentProperties@@YGJPAUHWND__@@PAXPAGPAU_devicemodeW@@3K@Z 5f49d0f0 f ccdata.obj
 0001:0009c136       ?AfxThunkOpenPrinter@@YGHPAGPAPAXPAU_PRINTER_DEFAULTSW@@@Z 5f49d136 f ccdata.obj
 0001:0009c16c       ?AfxThunkClosePrinter@@YGHPAX@Z 5f49d16c f ccdata.obj
 0001:0009c19e       ?AfxThunkRegCreateKeyEx@@YGJPAUHKEY__@@PBGKPAGKKPAU_SECURITY_ATTRIBUTES@@PAPAU1@PAK@Z 5f49d19e f ccdata.obj
 0001:0009c1ec       ?AfxThunkRegEnumKey@@YGJPAUHKEY__@@KPAGK@Z 5f49d1ec f ccdata.obj
 0001:0009c22a       ?AfxThunkRegDeleteKey@@YGJPAUHKEY__@@PBG@Z 5f49d22a f ccdata.obj
 0001:0009c260       ?AfxThunkRegDeleteValue@@YGJPAUHKEY__@@PBG@Z 5f49d260 f ccdata.obj
 0001:0009c296       ?AfxThunkRegOpenKeyEx@@YGJPAUHKEY__@@PBGKKPAPAU1@@Z 5f49d296 f ccdata.obj
 0001:0009c2d8       ?AfxThunkRegCloseKey@@YGJPAUHKEY__@@@Z 5f49d2d8 f ccdata.obj
 0001:0009c30a       ?AfxThunkRegSetValue@@YGJPAUHKEY__@@PBGK1K@Z 5f49d30a f ccdata.obj
 0001:0009c34c       ?AfxThunkRegCreateKey@@YGJPAUHKEY__@@PBGPAPAU1@@Z 5f49d34c f ccdata.obj
 0001:0009c386       ?AfxThunkRegSetValueEx@@YGJPAUHKEY__@@PBGKKPBEK@Z 5f49d386 f ccdata.obj
 0001:0009c3cc       ?AfxThunkRegQueryValue@@YGJPAUHKEY__@@PBGPAGPAJ@Z 5f49d3cc f ccdata.obj
 0001:0009c40a       ?AfxThunkRegOpenKey@@YGJPAUHKEY__@@PBGPAPAU1@@Z 5f49d40a f ccdata.obj
 0001:0009c444       ?AfxThunkRegQueryValueEx@@YGJPAUHKEY__@@PBGPAK2PAE2@Z 5f49d444 f ccdata.obj
 0001:0009c48a       ?AfxThunkSetFileSecurity@@YGHPBGKPAX@Z 5f49d48a f ccdata.obj
 0001:0009c4c4       ?AfxThunkGetFileSecurity@@YGHPBGKPAXKPAK@Z 5f49d4c4 f ccdata.obj
 0001:0009c567       ?AfxGetPropSheetFont@@YGHAAVCString@@AAGH@Z 5f49d567 f ccdata.obj
 0001:0009c69e       ??1_AFX_EXTDLL_STATE@@UAE@XZ 5f49d69e f ccdata.obj
 0001:0009c810       ?AfxLoadCommCtrl@@YAPAUHINSTANCE__@@PAP6GHXZPBD@Z 5f49d810 f ccdata.obj
 0001:0009c840       ?AfxLoadShell@@YAPAUHINSTANCE__@@PAP6GHXZPBD@Z 5f49d840 f ccdata.obj
 0001:0009c870       ?AfxLoadComDlg@@YAPAUHINSTANCE__@@PAP6GHXZPBD@Z 5f49d870 f ccdata.obj
 0001:0009c8a0       ?AfxLoadWinSpool@@YAPAUHINSTANCE__@@PAP6GHXZPBD@Z 5f49d8a0 f ccdata.obj
 0001:0009c8d0       ?AfxLoadAdvApi@@YAPAUHINSTANCE__@@PAP6GHXZPBD@Z 5f49d8d0 f ccdata.obj
 0001:0009c900       ??1?$CProcessLocal@U_AFX_PROPPAGEFONTINFO@@@@QAE@XZ 5f49d900 f ccdata.obj
 0001:0009c960       ??_E_AFX_PROPPAGEFONTINFO@@UAEPAXI@Z 5f49d960 f ccdata.obj
 0001:0009c960       ??_G_AFX_PROPPAGEFONTINFO@@UAEPAXI@Z 5f49d960 f ccdata.obj
 0001:0009c9a0       ?AfxLoadCommCtrl@@YAPAUHINSTANCE__@@XZ 5f49d9a0 f ccdata.obj
 0001:0009c9d0       ??1?$CProcessLocal@V_AFX_EXTDLL_STATE@@@@QAE@XZ 5f49d9d0 f ccdata.obj
 0001:0009ca30       ?_GetBaseClass@CResourceException@@KGPAUCRuntimeClass@@XZ 5f49da30 f wingdi.obj
 0001:0009ca45       ?GetRuntimeClass@CResourceException@@UBEPAUCRuntimeClass@@XZ 5f49da45 f wingdi.obj
 0001:0009cad2       ?_GetBaseClass@CUserException@@KGPAUCRuntimeClass@@XZ 5f49dad2 f wingdi.obj
 0001:0009cae7       ?GetRuntimeClass@CUserException@@UBEPAUCRuntimeClass@@XZ 5f49dae7 f wingdi.obj
 0001:0009cb74       ?CreateObject@CDC@@SGPAVCObject@@XZ 5f49db74 f wingdi.obj
 0001:0009cbfc       ?_GetBaseClass@CDC@@KGPAUCRuntimeClass@@XZ 5f49dbfc f wingdi.obj
 0001:0009cc11       ?GetRuntimeClass@CDC@@UBEPAUCRuntimeClass@@XZ 5f49dc11 f wingdi.obj
 0001:0009cc2c       ?_GetBaseClass@CClientDC@@KGPAUCRuntimeClass@@XZ 5f49dc2c f wingdi.obj
 0001:0009cc41       ?GetRuntimeClass@CClientDC@@UBEPAUCRuntimeClass@@XZ 5f49dc41 f wingdi.obj
 0001:0009cc5c       ?_GetBaseClass@CWindowDC@@KGPAUCRuntimeClass@@XZ 5f49dc5c f wingdi.obj
 0001:0009cc71       ?GetRuntimeClass@CWindowDC@@UBEPAUCRuntimeClass@@XZ 5f49dc71 f wingdi.obj
 0001:0009cc8c       ?_GetBaseClass@CPaintDC@@KGPAUCRuntimeClass@@XZ 5f49dc8c f wingdi.obj
 0001:0009cca1       ?GetRuntimeClass@CPaintDC@@UBEPAUCRuntimeClass@@XZ 5f49dca1 f wingdi.obj
 0001:0009ccbc       ?CreateObject@CGdiObject@@SGPAVCObject@@XZ 5f49dcbc f wingdi.obj
 0001:0009cd44       ?_GetBaseClass@CGdiObject@@KGPAUCRuntimeClass@@XZ 5f49dd44 f wingdi.obj
 0001:0009cd59       ?GetRuntimeClass@CGdiObject@@UBEPAUCRuntimeClass@@XZ 5f49dd59 f wingdi.obj
 0001:0009cd74       ?_GetBaseClass@CPen@@KGPAUCRuntimeClass@@XZ 5f49dd74 f wingdi.obj
 0001:0009cd89       ?GetRuntimeClass@CPen@@UBEPAUCRuntimeClass@@XZ 5f49dd89 f wingdi.obj
 0001:0009cda4       ?_GetBaseClass@CBrush@@KGPAUCRuntimeClass@@XZ 5f49dda4 f wingdi.obj
 0001:0009cdb9       ?GetRuntimeClass@CBrush@@UBEPAUCRuntimeClass@@XZ 5f49ddb9 f wingdi.obj
 0001:0009cdd4       ?_GetBaseClass@CFont@@KGPAUCRuntimeClass@@XZ 5f49ddd4 f wingdi.obj
 0001:0009cde9       ?GetRuntimeClass@CFont@@UBEPAUCRuntimeClass@@XZ 5f49dde9 f wingdi.obj
 0001:0009ce04       ?_GetBaseClass@CBitmap@@KGPAUCRuntimeClass@@XZ 5f49de04 f wingdi.obj
 0001:0009ce19       ?GetRuntimeClass@CBitmap@@UBEPAUCRuntimeClass@@XZ 5f49de19 f wingdi.obj
 0001:0009ce34       ?_GetBaseClass@CPalette@@KGPAUCRuntimeClass@@XZ 5f49de34 f wingdi.obj
 0001:0009ce49       ?GetRuntimeClass@CPalette@@UBEPAUCRuntimeClass@@XZ 5f49de49 f wingdi.obj
 0001:0009ce64       ?_GetBaseClass@CRgn@@KGPAUCRuntimeClass@@XZ 5f49de64 f wingdi.obj
 0001:0009ce79       ?GetRuntimeClass@CRgn@@UBEPAUCRuntimeClass@@XZ 5f49de79 f wingdi.obj
 0001:0009cea0       ?CreateObject@CMenu@@SGPAVCObject@@XZ 5f49dea0 f winmenu.obj
 0001:0009cee0       ?_GetBaseClass@CMenu@@KGPAUCRuntimeClass@@XZ 5f49dee0 f winmenu.obj
 0001:0009cef5       ?GetRuntimeClass@CMenu@@UBEPAUCRuntimeClass@@XZ 5f49def5 f winmenu.obj
 0001:0009cf7b       ?AfxEnableWin40Compatibility@@YGXXZ 5f49df7b f auxdata.obj
 0001:0009cfbe       ?AfxEnableWin31Compatibility@@YGXXZ 5f49dfbe f auxdata.obj
 0001:0009cff2       ??0AUX_DATA@@QAE@XZ        5f49dff2 f auxdata.obj
 0001:0009d1d0       ?AfxCriticalInit@@YGHXZ    5f49e1d0 f afxcrit.obj
 0001:0009d268       ?AfxCriticalTerm@@YGXXZ    5f49e268 f afxcrit.obj
 0001:0009d35a       ?AfxLockGlobals@@YGXH@Z    5f49e35a f afxcrit.obj
 0001:0009d491       ?AfxUnlockGlobals@@YGXH@Z  5f49e491 f afxcrit.obj
 0001:0009d726       ?Dump@CCmdTarget@@UBEXAAVCDumpContext@@@Z 5f49e726 f cmdtarg.obj
 0001:0009d825       ?AssertValid@CCmdTarget@@UBEXXZ 5f49e825 f cmdtarg.obj
 0001:0009d843       ?_GetBaseClass@CCmdTarget@@KGPAUCRuntimeClass@@XZ 5f49e843 f cmdtarg.obj
 0001:0009d858       ?GetRuntimeClass@CCmdTarget@@UBEPAUCRuntimeClass@@XZ 5f49e858 f cmdtarg.obj
 0001:0009d880       ?_GetBaseClass@CDocument@@KGPAUCRuntimeClass@@XZ 5f49e880 f doccore.obj
 0001:0009d895       ?GetRuntimeClass@CDocument@@UBEPAUCRuntimeClass@@XZ 5f49e895 f doccore.obj
 0001:0009d8b0       ?_GetBaseClass@CDocTemplate@@KGPAUCRuntimeClass@@XZ 5f49e8b0 f doctempl.obj
 0001:0009d8c5       ?GetRuntimeClass@CDocTemplate@@UBEPAUCRuntimeClass@@XZ 5f49e8c5 f doctempl.obj
 0001:0009d8e0       ?_GetBaseClass@CSingleDocTemplate@@KGPAUCRuntimeClass@@XZ 5f49e8e0 f docsingl.obj
 0001:0009d8f5       ?GetRuntimeClass@CSingleDocTemplate@@UBEPAUCRuntimeClass@@XZ 5f49e8f5 f docsingl.obj
 0001:0009d910       ?_GetBaseClass@CMultiDocTemplate@@KGPAUCRuntimeClass@@XZ 5f49e910 f docmulti.obj
 0001:0009d925       ?GetRuntimeClass@CMultiDocTemplate@@UBEPAUCRuntimeClass@@XZ 5f49e925 f docmulti.obj
 0001:0009d940       ??0CDocManager@@QAE@XZ     5f49e940 f docmgr.obj
 0001:0009d9cc       ?RegisterShellFileTypes@CDocManager@@UAEXH@Z 5f49e9cc f docmgr.obj
 0001:0009e39b       ?_GetBaseClass@CDocManager@@KGPAUCRuntimeClass@@XZ 5f49f39b f docmgr.obj
 0001:0009e3b0       ?GetRuntimeClass@CDocManager@@UBEPAUCRuntimeClass@@XZ 5f49f3b0 f docmgr.obj
 0001:0009e3d0       ??_GCDocManager@@UAEPAXI@Z 5f49f3d0 f docmgr.obj
 0001:0009e410       ?_GetBaseClass@CSplitterWnd@@KGPAUCRuntimeClass@@XZ 5f49f410 f viewcore.obj
 0001:0009e425       ?GetRuntimeClass@CSplitterWnd@@UBEPAUCRuntimeClass@@XZ 5f49f425 f viewcore.obj
 0001:0009e440       ?_GetBaseClass@CCtrlView@@KGPAUCRuntimeClass@@XZ 5f49f440 f viewcore.obj
 0001:0009e455       ?GetRuntimeClass@CCtrlView@@UBEPAUCRuntimeClass@@XZ 5f49f455 f viewcore.obj
 0001:0009e470       ?_GetBaseClass@CScrollView@@KGPAUCRuntimeClass@@XZ 5f49f470 f viewscrl.obj
 0001:0009e485       ?GetRuntimeClass@CScrollView@@UBEPAUCRuntimeClass@@XZ 5f49f485 f viewscrl.obj
 0001:0009e4a0       ?_GetBaseClass@CFormView@@KGPAUCRuntimeClass@@XZ 5f49f4a0 f viewform.obj
 0001:0009e4b5       ?GetRuntimeClass@CFormView@@UBEPAUCRuntimeClass@@XZ 5f49f4b5 f viewform.obj
 0001:0009e4d0       ?CreateObject@CEditView@@SGPAVCObject@@XZ 5f49f4d0 f viewedit.obj
 0001:0009e510       ?_GetBaseClass@CEditView@@KGPAUCRuntimeClass@@XZ 5f49f510 f viewedit.obj
 0001:0009e525       ?GetRuntimeClass@CEditView@@UBEPAUCRuntimeClass@@XZ 5f49f525 f viewedit.obj
 0001:0009e5b0       ??1?$CProcessLocal@V_AFX_EDIT_STATE@@@@QAE@XZ 5f49f5b0 f viewedit.obj
 0001:0009e610       ?CreateObject@CPreviewView@@SGPAVCObject@@XZ 5f49f610 f viewprev.obj
 0001:0009e69b       ?_GetBaseClass@CPreviewView@@KGPAUCRuntimeClass@@XZ 5f49f69b f viewprev.obj
 0001:0009e6b0       ?GetRuntimeClass@CPreviewView@@UBEPAUCRuntimeClass@@XZ 5f49f6b0 f viewprev.obj
 0001:0009e6d0       ?CreateObject@CListView@@SGPAVCObject@@XZ 5f49f6d0 f viewcmn.obj
 0001:0009e70d       ?_GetBaseClass@CListView@@KGPAUCRuntimeClass@@XZ 5f49f70d f viewcmn.obj
 0001:0009e722       ?GetRuntimeClass@CListView@@UBEPAUCRuntimeClass@@XZ 5f49f722 f viewcmn.obj
 0001:0009e73d       ?CreateObject@CTreeView@@SGPAVCObject@@XZ 5f49f73d f viewcmn.obj
 0001:0009e77a       ?_GetBaseClass@CTreeView@@KGPAUCRuntimeClass@@XZ 5f49f77a f viewcmn.obj
 0001:0009e78f       ?GetRuntimeClass@CTreeView@@UBEPAUCRuntimeClass@@XZ 5f49f78f f viewcmn.obj
 0001:0009e820       ??1?$CProcessLocal@V_AFX_MAIL_STATE@@@@QAE@XZ 5f49f820 f docmapi.obj
 0001:0009e880       ??0CWinThread@@QAE@P6AIPAX@Z0@Z 5f49f880 f thrdcore.obj
 0001:0009e916       ??0CWinThread@@QAE@XZ      5f49f916 f thrdcore.obj
 0001:0009e9ac       ?CommonConstruct@CWinThread@@QAEXXZ 5f49f9ac f thrdcore.obj
 0001:0009ea33       ?_GetBaseClass@CWinThread@@KGPAUCRuntimeClass@@XZ 5f49fa33 f thrdcore.obj
 0001:0009ea48       ?GetRuntimeClass@CWinThread@@UBEPAUCRuntimeClass@@XZ 5f49fa48 f thrdcore.obj
 0001:0009ea70       ??_GCWinThread@@UAEPAXI@Z  5f49fa70 f thrdcore.obj
 0001:0009ea70       ??_ECWinThread@@UAEPAXI@Z  5f49fa70 f thrdcore.obj
 0001:0009eab0       ??0_AFX_WIN_STATE@@QAE@XZ  5f49fab0 f appcore.obj
 0001:0009eb1f       ??0CWinApp@@QAE@PBG@Z      5f49fb1f f appcore.obj
 0001:0009ed89       ?InitApplication@CWinApp@@UAEHXZ 5f49fd89 f appcore.obj
 0001:0009ee11       ?InitInstance@CWinApp@@UAEHXZ 5f49fe11 f appcore.obj
 0001:0009ee2c       ?LoadStdProfileSettings@CWinApp@@IAEXI@Z 5f49fe2c f appcore.obj
 0001:0009ef4c       ?ParseCommandLine@CWinApp@@QAEXAAVCCommandLineInfo@@@Z 5f49ff4c f appcore.obj
 0001:0009f00a       ??0CCommandLineInfo@@QAE@XZ 5f4a000a f appcore.obj
 0001:0009f10d       ??1CCommandLineInfo@@UAE@XZ 5f4a010d f appcore.obj
 0001:0009f1d9       ?ParseParam@CCommandLineInfo@@UAEXPBGHH@Z 5f4a01d9 f appcore.obj
 0001:0009f280       ?ParseParam@CCommandLineInfo@@UAEXPBDHH@Z 5f4a0280 f appcore.obj
 0001:0009f2cb       ?ParseParamFlag@CCommandLineInfo@@IAEXPBD@Z 5f4a02cb f appcore.obj
 0001:0009f3eb       ?ParseParamNotFlag@CCommandLineInfo@@IAEXPBG@Z 5f4a03eb f appcore.obj
 0001:0009f4c1       ?ParseParamNotFlag@CCommandLineInfo@@IAEXPBD@Z 5f4a04c1 f appcore.obj
 0001:0009f597       ?ParseLast@CCommandLineInfo@@IAEXH@Z 5f4a0597 f appcore.obj
 0001:0009f616       ??1CWinApp@@UAE@XZ         5f4a0616 f appcore.obj
 0001:0009f8f4       ?SaveStdProfileSettings@CWinApp@@IAEXXZ 5f4a08f4 f appcore.obj
 0001:0009f972       ?ExitInstance@CWinApp@@UAEHXZ 5f4a0972 f appcore.obj
 0001:0009f9eb       ?_GetBaseClass@CWinApp@@KGPAUCRuntimeClass@@XZ 5f4a09eb f appcore.obj
 0001:0009fa00       ?GetRuntimeClass@CWinApp@@UBEPAUCRuntimeClass@@XZ 5f4a0a00 f appcore.obj
 0001:0009fa80       ??_E_AFX_WIN_STATE@@UAEPAXI@Z 5f4a0a80 f appcore.obj
 0001:0009fa80       ??_G_AFX_WIN_STATE@@UAEPAXI@Z 5f4a0a80 f appcore.obj
 0001:0009fac0       ??_GCWinApp@@UAEPAXI@Z     5f4a0ac0 f appcore.obj
 0001:0009fac0       ??_ECWinApp@@UAEPAXI@Z     5f4a0ac0 f appcore.obj
 0001:0009fb00       ??_GCCommandLineInfo@@UAEPAXI@Z 5f4a0b00 f appcore.obj
 0001:0009fb40       ??1?$CProcessLocal@V_AFX_WIN_STATE@@@@QAE@XZ 5f4a0b40 f appcore.obj
 0001:0009fba0       ?AfxWinInit@@YGHPAUHINSTANCE__@@0PAGH@Z 5f4a0ba0 f appinit.obj
 0001:0009fc5c       ?SetCurrentHandles@CWinApp@@QAEXXZ 5f4a0c5c f appinit.obj
 0001:0009ff9a       ?AfxGetFileName@@YGIPBGPAGI@Z 5f4a0f9a f appinit.obj
 0001:000a00c0       ?ProcessShellCommand@CWinApp@@QAEHAAVCCommandLineInfo@@@Z 5f4a10c0 f appui2.obj
 0001:000a0276       ?Unregister@CWinApp@@QAEHXZ 5f4a1276 f appui2.obj
 0001:000a05f7       ?DelRegTree@CWinApp@@QAEJPAUHKEY__@@ABVCString@@@Z 5f4a15f7 f appui2.obj
 0001:000a0758       ?EnableShellOpen@CWinApp@@IAEXXZ 5f4a1758 f appui2.obj
 0001:000a07dd       ?RegisterShellFileTypes@CWinApp@@IAEXH@Z 5f4a17dd f appui2.obj
 0001:000a0838       ?RegisterShellFileTypesCompat@CWinApp@@IAEXXZ 5f4a1838 f appui2.obj
 0001:000a0890       ?SetRegistryKey@CWinApp@@IAEXPBG@Z 5f4a1890 f appui3.obj
 0001:000a097c       ?SetRegistryKey@CWinApp@@IAEXI@Z 5f4a197c f appui3.obj
 0001:000a0a06       ?GetAppRegistryKey@CWinApp@@QAEPAUHKEY__@@XZ 5f4a1a06 f appui3.obj
 0001:000a0b23       ?GetSectionKey@CWinApp@@QAEPAUHKEY__@@PBG@Z 5f4a1b23 f appui3.obj
 0001:000a0bad       ?GetProfileIntW@CWinApp@@QAEIPBG0H@Z 5f4a1bad f appui3.obj
 0001:000a0d0b       ?GetProfileStringW@CWinApp@@QAE?AVCString@@PBG00@Z 5f4a1d0b f appui3.obj
 0001:000a0fd0       ?GetProfileBinary@CWinApp@@QAEHPBG0PAPAEPAI@Z 5f4a1fd0 f appui3.obj
 0001:000a1330       ?SetDialogBkColor@CWinApp@@IAEXKK@Z 5f4a2330 f appgray.obj
 0001:000a13f0       ??1_AFX_CTL3D_STATE@@UAE@XZ 5f4a23f0 f app3d.obj
 0001:000a1487       ??1_AFX_CTL3D_THREAD@@UAE@XZ 5f4a2487 f app3d.obj
 0001:000a1519       ?Enable3dControls@CWinApp@@IAEHXZ 5f4a2519 f app3d.obj
 0001:000a175f       ?AfxGetCtl3dState@@YGPAV_AFX_CTL3D_STATE@@XZ 5f4a275f f app3d.obj
 0001:000a1840       ??1?$CThreadLocal@V_AFX_CTL3D_THREAD@@@@QAE@XZ 5f4a2840 f app3d.obj
 0001:000a18a0       ??1?$CProcessLocal@V_AFX_CTL3D_STATE@@@@QAE@XZ 5f4a28a0 f app3d.obj
 0001:000a1900       ?_GetBaseClass@CInternetException@@KGPAUCRuntimeClass@@XZ 5f4a2900 f inet.obj
 0001:000a1915       ?GetRuntimeClass@CInternetException@@UBEPAUCRuntimeClass@@XZ 5f4a2915 f inet.obj
 0001:000a1930       ?_GetBaseClass@CInternetFile@@KGPAUCRuntimeClass@@XZ 5f4a2930 f inet.obj
 0001:000a1945       ?GetRuntimeClass@CInternetFile@@UBEPAUCRuntimeClass@@XZ 5f4a2945 f inet.obj
 0001:000a1960       ?_GetBaseClass@CHttpFile@@KGPAUCRuntimeClass@@XZ 5f4a2960 f inet.obj
 0001:000a1975       ?GetRuntimeClass@CHttpFile@@UBEPAUCRuntimeClass@@XZ 5f4a2975 f inet.obj
 0001:000a1990       ?_GetBaseClass@CGopherFile@@KGPAUCRuntimeClass@@XZ 5f4a2990 f inet.obj
 0001:000a19a5       ?GetRuntimeClass@CGopherFile@@UBEPAUCRuntimeClass@@XZ 5f4a29a5 f inet.obj
 0001:000a19c0       ?_GetBaseClass@CInternetSession@@KGPAUCRuntimeClass@@XZ 5f4a29c0 f inet.obj
 0001:000a19d5       ?GetRuntimeClass@CInternetSession@@UBEPAUCRuntimeClass@@XZ 5f4a29d5 f inet.obj
 0001:000a19f0       ?_GetBaseClass@CInternetConnection@@KGPAUCRuntimeClass@@XZ 5f4a29f0 f inet.obj
 0001:000a1a05       ?GetRuntimeClass@CInternetConnection@@UBEPAUCRuntimeClass@@XZ 5f4a2a05 f inet.obj
 0001:000a1a20       ?_GetBaseClass@CFtpConnection@@KGPAUCRuntimeClass@@XZ 5f4a2a20 f inet.obj
 0001:000a1a35       ?GetRuntimeClass@CFtpConnection@@UBEPAUCRuntimeClass@@XZ 5f4a2a35 f inet.obj
 0001:000a1a50       ?_GetBaseClass@CHttpConnection@@KGPAUCRuntimeClass@@XZ 5f4a2a50 f inet.obj
 0001:000a1a65       ?GetRuntimeClass@CHttpConnection@@UBEPAUCRuntimeClass@@XZ 5f4a2a65 f inet.obj
 0001:000a1a80       ?_GetBaseClass@CGopherConnection@@KGPAUCRuntimeClass@@XZ 5f4a2a80 f inet.obj
 0001:000a1a95       ?GetRuntimeClass@CGopherConnection@@UBEPAUCRuntimeClass@@XZ 5f4a2a95 f inet.obj
 0001:000a1ab0       ?_GetBaseClass@CFtpFileFind@@KGPAUCRuntimeClass@@XZ 5f4a2ab0 f inet.obj
 0001:000a1ac5       ?GetRuntimeClass@CFtpFileFind@@UBEPAUCRuntimeClass@@XZ 5f4a2ac5 f inet.obj
 0001:000a1ae0       ?_GetBaseClass@CGopherFileFind@@KGPAUCRuntimeClass@@XZ 5f4a2ae0 f inet.obj
 0001:000a1af5       ?GetRuntimeClass@CGopherFileFind@@UBEPAUCRuntimeClass@@XZ 5f4a2af5 f inet.obj
 0001:000a1b80       ?_GetBaseClass@CFileFind@@KGPAUCRuntimeClass@@XZ 5f4a2b80 f filefind.obj
 0001:000a1b95       ?GetRuntimeClass@CFileFind@@UBEPAUCRuntimeClass@@XZ 5f4a2b95 f filefind.obj
 0001:000a1bb0       ?AfxThunkINetInternetOpen@@YGPAXPBGK00K@Z 5f4a2bb0 f inetimpl.obj
 0001:000a1beb       ?AfxThunkINetInternetCloseHandle@@YGPAXPAX@Z 5f4a2beb f inetimpl.obj
 0001:000a1c1a       ?AfxThunkINetInternetOpenUrl@@YGPAXPAXPBG1KKK@Z 5f4a2c1a f inetimpl.obj
 0001:000a1c5d       ?AfxThunkINetInternetReadFile@@YGPAXPAX0KPAK@Z 5f4a2c5d f inetimpl.obj
 0001:000a1c98       ?AfxThunkINetInternetWriteFile@@YGPAXPAXPBXKPAK@Z 5f4a2c98 f inetimpl.obj
 0001:000a1cd3       ?AfxThunkINetInternetSetStatusCallback@@YGP6GXPAXKK0K@Z0P6GX0KK0K@Z@Z 5f4a2cd3 f inetimpl.obj
 0001:000a1d06       ?AfxThunkINetInternetQueryOption@@YGHPAXK0PAK@Z 5f4a2d06 f inetimpl.obj
 0001:000a1d41       ?AfxThunkINetInternetSetOption@@YGHPAXK0K@Z 5f4a2d41 f inetimpl.obj
 0001:000a1d7c       ?AfxThunkINetInternetSetOptionEx@@YGHPAXK0KK@Z 5f4a2d7c f inetimpl.obj
 0001:000a1dbb       ?AfxThunkINetInternetGetLastResponseInfo@@YGHPAKPAG0@Z 5f4a2dbb f inetimpl.obj
 0001:000a1df2       ?AfxThunkINetInternetFindNextFile@@YGHPAX0@Z 5f4a2df2 f inetimpl.obj
 0001:000a1e25       ?AfxThunkINetInternetConnect@@YGPAXPAXPBGG11KKK@Z 5f4a2e25 f inetimpl.obj
 0001:000a1e70       ?AfxThunkINetInternetSetFilePointer@@YGKPAXJ0KK@Z 5f4a2e70 f inetimpl.obj
 0001:000a1eaf       ?AfxThunkINetInternetQueryDataAvailable@@YGHPAXPAKKK@Z 5f4a2eaf f inetimpl.obj
 0001:000a1eea       ?AfxThunkINetFtpFindFirstFile@@YGPAXPAXPBGPAU_WIN32_FIND_DATAW@@KK@Z 5f4a2eea f inetimpl.obj
 0001:000a1f29       ?AfxThunkINetFtpGetFile@@YGHPAXPBG1HKKK@Z 5f4a2f29 f inetimpl.obj
 0001:000a1f70       ?AfxThunkINetFtpPutFile@@YGHPAXPBG1KK@Z 5f4a2f70 f inetimpl.obj
 0001:000a1faf       ?AfxThunkINetFtpDeleteFile@@YGHPAXPBG@Z 5f4a2faf f inetimpl.obj
 0001:000a1fe2       ?AfxThunkINetFtpRenameFile@@YGHPAXPBG1@Z 5f4a2fe2 f inetimpl.obj
 0001:000a2019       ?AfxThunkINetFtpCreateDirectory@@YGHPAXPBG@Z 5f4a3019 f inetimpl.obj
 0001:000a204c       ?AfxThunkINetFtpRemoveDirectory@@YGHPAXPBG@Z 5f4a304c f inetimpl.obj
 0001:000a207f       ?AfxThunkINetFtpSetCurrentDirectory@@YGHPAXPBG@Z 5f4a307f f inetimpl.obj
 0001:000a20b2       ?AfxThunkINetFtpGetCurrentDirectory@@YGHPAXPBGPAK@Z 5f4a30b2 f inetimpl.obj
 0001:000a20e9       ?AfxThunkINetFtpCommand@@YGHPAXHKPBGK@Z 5f4a30e9 f inetimpl.obj
 0001:000a2128       ?AfxThunkINetFtpOpenFile@@YGPAXPAXPBGKKK@Z 5f4a3128 f inetimpl.obj
 0001:000a2167       ?AfxThunkINetGopherFindFirstFile@@YGPAXPAXPBG1PAUGOPHER_FIND_DATAW@@KK@Z 5f4a3167 f inetimpl.obj
 0001:000a21aa       ?AfxThunkINetGopherOpenFile@@YGPAXPAXPBG1KK@Z 5f4a31aa f inetimpl.obj
 0001:000a21e9       ?AfxThunkINetGopherCreateLocator@@YGHPBGG00KPAGPAK@Z 5f4a31e9 f inetimpl.obj
 0001:000a2230       ?AfxThunkINetGopherGetAttribute@@YGHPAXPBG1PAEKPAKP6GHPAUGOPHER_ATTRIBUTE_TYPE@@K@ZK@Z 5f4a3230 f inetimpl.obj
 0001:000a227b       ?AfxThunkINetGopherGetLocatorType@@YGHPBGPAK@Z 5f4a327b f inetimpl.obj
 0001:000a22ae       ?AfxThunkINetHttpOpenRequest@@YGPAXPAXPBG111PAPBGKK@Z 5f4a32ae f inetimpl.obj
 0001:000a22f9       ?AfxThunkINetHttpAddRequestHeaders@@YGHPAXPBGKK@Z 5f4a32f9 f inetimpl.obj
 0001:000a2334       ?AfxThunkINetHttpSendRequest@@YGHPAXPBGK0K@Z 5f4a3334 f inetimpl.obj
 0001:000a2375       ?AfxThunkINetHttpQueryInfo@@YGHPAXK0PAK1@Z 5f4a3375 f inetimpl.obj
 0001:000a23b6       ?AfxThunkINetInternetErrorDlg@@YGKPAUHWND__@@PAXKKPAPAX@Z 5f4a33b6 f inetimpl.obj
 0001:000a2400       ?AfxINetLoad@@YGXPAP6GHXZPBD@Z 5f4a3400 f inetimpl.obj
 0001:000a2550       ?_GetBaseClass@CDynLinkLibrary@@KGPAUCRuntimeClass@@XZ 5f4a3550 f dllinit.obj
 0001:000a2565       ?GetRuntimeClass@CDynLinkLibrary@@UBEPAUCRuntimeClass@@XZ 5f4a3565 f dllinit.obj
 0001:000a2580       ??0CDynLinkLibrary@@QAE@AAUAFX_EXTENSION_MODULE@@H@Z 5f4a3580 f dllinit.obj
 0001:000a26ad       ?AfxInitExtensionModule@@YGHAAUAFX_EXTENSION_MODULE@@PAUHINSTANCE__@@@Z 5f4a36ad f dllinit.obj
 0001:000a2765       _RawDllMain@12             5f4a3765 f dllinit.obj
 0001:000a2843       _DllMain@12                5f4a3843 f dllinit.obj
 0001:000a2ae2       ?AfxCoreInitModule@@YGXXZ  5f4a3ae2 f dllinit.obj
 0001:000a2c00       ??_GCDynLinkLibrary@@UAEPAXI@Z 5f4a3c00 f dllinit.obj
 0001:000a2c00       ??_ECDynLinkLibrary@@UAEPAXI@Z 5f4a3c00 f dllinit.obj
 0001:000a2c40       ??1_AFX_MAIL_STATE@@UAE@XZ 5f4a3c40 f docmapi.obj
 0001:000a2cc2       ?OnFileSendMail@CDocument@@IAEXXZ 5f4a3cc2 f docmapi.obj
 0001:000a323f       ?OnUpdateFileSendMail@CDocument@@IAEXPAVCCmdUI@@@Z 5f4a423f f docmapi.obj
 0001:000a338c       ?OnFileSendMail@COleDocument@@IAEXXZ 5f4a438c f docmapi.obj
 0001:000a34b0       ??_G_AFX_MAIL_STATE@@UAEPAXI@Z 5f4a44b0 f docmapi.obj
 0001:000a34b0       ??_E_AFX_MAIL_STATE@@UAEPAXI@Z 5f4a44b0 f docmapi.obj
 0001:000a34f0       ??0_AFX_MAIL_STATE@@QAE@XZ 5f4a44f0 f docmapi.obj
 0001:000a3560       ??0CPreviewDC@@QAE@XZ      5f4a4560 f dcprev.obj
 0001:000a3632       ?SetOutputDC@CPreviewDC@@UAEXPAUHDC__@@@Z 5f4a4632 f dcprev.obj
 0001:000a36d2       ?ReleaseOutputDC@CPreviewDC@@UAEXXZ 5f4a46d2 f dcprev.obj
 0001:000a3726       ?SetAttribDC@CPreviewDC@@UAEXPAUHDC__@@@Z 5f4a4726 f dcprev.obj
 0001:000a3783       ??1CPreviewDC@@UAE@XZ      5f4a4783 f dcprev.obj
 0001:000a3819       ?SetScaleRatio@CPreviewDC@@QAEXHH@Z 5f4a4819 f dcprev.obj
 0001:000a3862       ?AssertValid@CPreviewDC@@UBEXXZ 5f4a4862 f dcprev.obj
 0001:000a3880       ?Dump@CPreviewDC@@UBEXAAVCDumpContext@@@Z 5f4a4880 f dcprev.obj
 0001:000a38e6       ?SaveDC@CPreviewDC@@UAEHXZ 5f4a48e6 f dcprev.obj
 0001:000a398d       ?RestoreDC@CPreviewDC@@UAEHH@Z 5f4a498d f dcprev.obj
 0001:000a3a79       ?MirrorAttributes@CPreviewDC@@IAEXXZ 5f4a4a79 f dcprev.obj
 0001:000a3bc6       ?SelectStockObject@CPreviewDC@@UAEPAVCGdiObject@@H@Z 5f4a4bc6 f dcprev.obj
 0001:000a3cf8       ?MirrorFont@CPreviewDC@@IAEXXZ 5f4a4cf8 f dcprev.obj
 0001:000a4034       ?SelectObject@CPreviewDC@@UAEPAVCFont@@PAV2@@Z 5f4a5034 f dcprev.obj
 0001:000a40db       ?SetBkColor@CPreviewDC@@UAEKK@Z 5f4a50db f dcprev.obj
 0001:000a4155       ?SetTextColor@CPreviewDC@@UAEKK@Z 5f4a5155 f dcprev.obj
 0001:000a41cf       ?SetMapMode@CPreviewDC@@UAEHH@Z 5f4a51cf f dcprev.obj
 0001:000a422d       ?SetViewportOrg@CPreviewDC@@UAE?AVCPoint@@HH@Z 5f4a522d f dcprev.obj
 0001:000a42c4       ?OffsetViewportOrg@CPreviewDC@@UAE?AVCPoint@@HH@Z 5f4a52c4 f dcprev.obj
 0001:000a435b       ?SetViewportExt@CPreviewDC@@UAE?AVCSize@@HH@Z 5f4a535b f dcprev.obj
 0001:000a43f4       ?ScaleViewportExt@CPreviewDC@@UAE?AVCSize@@HHHH@Z 5f4a53f4 f dcprev.obj
 0001:000a4495       ?SetWindowExt@CPreviewDC@@UAE?AVCSize@@HH@Z 5f4a5495 f dcprev.obj
 0001:000a452e       ?ScaleWindowExt@CPreviewDC@@UAE?AVCSize@@HHHH@Z 5f4a552e f dcprev.obj
 0001:000a45cf       ?ComputeDeltas@CPreviewDC@@IAE?AVCSize@@AAHPBGAAIHIPAHHPAG30@Z 5f4a55cf f dcprev.obj
 0001:000a4ad6       ?TextOutW@CPreviewDC@@UAEHHHPBGH@Z 5f4a5ad6 f dcprev.obj
 0001:000a4b0f       ?ExtTextOutW@CPreviewDC@@UAEHHHIPBUtagRECT@@PBGIPAH@Z 5f4a5b0f f dcprev.obj
 0001:000a4df5       ?TabbedTextOutW@CPreviewDC@@UAE?AVCSize@@HHPBGHHPAHH@Z 5f4a5df5 f dcprev.obj
 0001:000a50d3       ?DrawTextW@CPreviewDC@@UAEHPBGHPAUtagRECT@@I@Z 5f4a60d3 f dcprev.obj
 0001:000a524a       ?GrayStringW@CPreviewDC@@UAEHPAVCBrush@@P6GHPAUHDC__@@JH@ZJHHHHH@Z 5f4a624a f dcprev.obj
 0001:000a528f       ?Escape@CPreviewDC@@UAEHHHPBDPAX@Z 5f4a628f f dcprev.obj
 0001:000a53ec       ?MirrorMappingMode@CPreviewDC@@IAEXH@Z 5f4a63ec f dcprev.obj
 0001:000a5661       ?MirrorViewportOrg@CPreviewDC@@IAEXXZ 5f4a6661 f dcprev.obj
 0001:000a5757       ?SetTopLeftOffset@CPreviewDC@@QAEXVCSize@@@Z 5f4a6757 f dcprev.obj
 0001:000a57ad       ?ClipToPage@CPreviewDC@@QAEXXZ 5f4a67ad f dcprev.obj
 0001:000a58a9       ?PrinterDPtoScreenDP@CPreviewDC@@QBEXPAUtagPOINT@@@Z 5f4a68a9 f dcprev.obj
 0001:000a5c20       ??_ECPreviewDC@@UAEPAXI@Z  5f4a6c20 f dcprev.obj
 0001:000a5c20       ??_GCPreviewDC@@UAEPAXI@Z  5f4a6c20 f dcprev.obj
 0001:000a5c60       ??0CMetaFileDC@@QAE@XZ     5f4a6c60 f dcmeta.obj
 0001:000a5ccf       ?SetOutputDC@CMetaFileDC@@MAEXPAUHDC__@@@Z 5f4a6ccf f dcmeta.obj
 0001:000a5d0e       ?ReleaseOutputDC@CMetaFileDC@@MAEXXZ 5f4a6d0e f dcmeta.obj
 0001:000a5d4b       ?SetAttribDC@CMetaFileDC@@UAEXPAUHDC__@@@Z 5f4a6d4b f dcmeta.obj
 0001:000a5d9b       ??1CMetaFileDC@@UAE@XZ     5f4a6d9b f dcmeta.obj
 0001:000a5e37       ?GetClipBox@CMetaFileDC@@UBEHPAUtagRECT@@@Z 5f4a6e37 f dcmeta.obj
 0001:000a5ecb       ?PtVisible@CMetaFileDC@@UBEHHH@Z 5f4a6ecb f dcmeta.obj
 0001:000a5f1a       ?RectVisible@CMetaFileDC@@UBEHPBUtagRECT@@@Z 5f4a6f1a f dcmeta.obj
 0001:000a5f59       ?TextOutW@CMetaFileDC@@UAEHHHPBGH@Z 5f4a6f59 f dcmeta.obj
 0001:000a607e       ?ExtTextOutW@CMetaFileDC@@UAEHHHIPBUtagRECT@@PBGIPAH@Z 5f4a707e f dcmeta.obj
 0001:000a61f8       ?TabbedTextOutW@CMetaFileDC@@UAE?AVCSize@@HHPBGHHPAHH@Z 5f4a71f8 f dcmeta.obj
 0001:000a64f2       ?AdjustCP@CMetaFileDC@@IAEXH@Z 5f4a74f2 f dcmeta.obj
 0001:000a6574       ?DrawTextW@CMetaFileDC@@UAEHPBGHPAUtagRECT@@I@Z 5f4a7574 f dcmeta.obj
 0001:000a6728       ?Escape@CMetaFileDC@@UAEHHHPBDPAX@Z 5f4a7728 f dcmeta.obj
 0001:000a68ea       ?SetViewportOrg@CMetaFileDC@@UAE?AVCPoint@@HH@Z 5f4a78ea f dcmeta.obj
 0001:000a6984       ?OffsetViewportOrg@CMetaFileDC@@UAE?AVCPoint@@HH@Z 5f4a7984 f dcmeta.obj
 0001:000a6a1e       ?SetViewportExt@CMetaFileDC@@UAE?AVCSize@@HH@Z 5f4a7a1e f dcmeta.obj
 0001:000a6ab8       ?ScaleViewportExt@CMetaFileDC@@UAE?AVCSize@@HHHH@Z 5f4a7ab8 f dcmeta.obj
 0001:000a6b70       ??_GCMetaFileDC@@UAEPAXI@Z 5f4a7b70 f dcmeta.obj
 0001:000a6bb0       ?_AfxAbortProc@@YGHPAUHDC__@@H@Z 5f4a7bb0 f viewprnt.obj
 0001:000a6c3f       ?OnInitDialog@CPrintingDialog@@UAEHXZ 5f4a7c3f f viewprnt.obj
 0001:000a6c75       ?OnCancel@CPrintingDialog@@UAEXXZ 5f4a7c75 f viewprnt.obj
 0001:000a6caa       ?DoPreparePrinting@CView@@QAEHPAUCPrintInfo@@@Z 5f4a7caa f viewprnt.obj
 0001:000a6ed7       ?OnFilePrint@CView@@IAEXXZ 5f4a7ed7 f viewprnt.obj
 0001:000a7853       ??0CPrintInfo@@QAE@XZ      5f4a8853 f viewprnt.obj
 0001:000a79ac       ??1CPrintInfo@@QAE@XZ      5f4a89ac f viewprnt.obj
 0001:000a7a80       ??_ECPrintingDialog@@UAEPAXI@Z 5f4a8a80 f viewprnt.obj
 0001:000a7a80       ??_GCPrintingDialog@@UAEPAXI@Z 5f4a8a80 f viewprnt.obj
 0001:000a7ac0       ??0CPrintPreviewState@@QAE@XZ 5f4a8ac0 f viewprev.obj
 0001:000a7b14       ?OnFilePrintPreview@CView@@IAEXXZ 5f4a8b14 f viewprev.obj
 0001:000a7bfb       ?DoPrintPreview@CView@@QAEHIPAV1@PAUCRuntimeClass@@PAUCPrintPreviewState@@@Z 5f4a8bfb f viewprev.obj
 0001:000a8034       ?_AfxPreviewCloseProc@@YGHPAVCFrameWnd@@@Z 5f4a9034 f viewprev.obj
 0001:000a80a3       ?_GetBaseMessageMap@CPreviewView@@KGPBUAFX_MSGMAP@@XZ 5f4a90a3 f viewprev.obj
 0001:000a80b8       ?GetMessageMap@CPreviewView@@MBEPBUAFX_MSGMAP@@XZ 5f4a90b8 f viewprev.obj
 0001:000a80d3       ??0CPreviewView@@QAE@XZ    5f4a90d3 f viewprev.obj
 0001:000a8221       ??1CPreviewView@@UAE@XZ    5f4a9221 f viewprev.obj
 0001:000a8355       ?OnCreate@CPreviewView@@IAEHPAUtagCREATESTRUCTW@@@Z 5f4a9355 f viewprev.obj
 0001:000a83fc       ?SetPrintView@CPreviewView@@QAEHPAVCView@@@Z 5f4a93fc f viewprev.obj
 0001:000a8839       ?OnSize@CPreviewView@@IAEXIHH@Z 5f4a9839 f viewprev.obj
 0001:000a88ff       ?OnActivateView@CPreviewView@@MAEXHPAVCView@@0@Z 5f4a98ff f viewprev.obj
 0001:000a8977       ?OnPreviewClose@CPreviewView@@IAEXXZ 5f4a9977 f viewprev.obj
 0001:000a8a02       ?CalcScaleRatio@CPreviewView@@MAE?AVCSize@@V2@0@Z 5f4a9a02 f viewprev.obj
 0001:000a8a6e       ?PositionPage@CPreviewView@@MAEXI@Z 5f4a9a6e f viewprev.obj
 0001:000a8b88       ?CalcPageDisplaySize@CPreviewView@@IAE?AVCSize@@XZ 5f4a9b88 f viewprev.obj
 0001:000a8c6b       ?SetScaledSize@CPreviewView@@IAEXI@Z 5f4a9c6b f viewprev.obj
 0001:000a8f29       ?OnPrepareDC@CPreviewView@@UAEXPAVCDC@@PAUCPrintInfo@@@Z 5f4a9f29 f viewprev.obj
 0001:000a8f9c       ?OnEraseBkgnd@CPreviewView@@IAEHPAVCDC@@@Z 5f4a9f9c f viewprev.obj
 0001:000a9080       ?OnDraw@CPreviewView@@MAEXPAVCDC@@@Z 5f4aa080 f viewprev.obj
 0001:000a96be       ?OnHScroll@CPreviewView@@IAEXIIPAVCScrollBar@@@Z 5f4aa6be f viewprev.obj
 0001:000a96fa       ?OnVScroll@CPreviewView@@IAEXIIPAVCScrollBar@@@Z 5f4aa6fa f viewprev.obj
 0001:000a9890       ?OnNumPageChange@CPreviewView@@IAEXXZ 5f4aa890 f viewprev.obj
 0001:000a9935       ?OnNextPage@CPreviewView@@IAEXXZ 5f4aa935 f viewprev.obj
 0001:000a9960       ?OnPrevPage@CPreviewView@@IAEXXZ 5f4aa960 f viewprev.obj
 0001:000a998b       ?OnPreviewPrint@CPreviewView@@IAEXXZ 5f4aa98b f viewprev.obj
 0001:000a99e4       ?FindPageRect@CPreviewView@@IAEHAAVCPoint@@AAI@Z 5f4aa9e4 f viewprev.obj
 0001:000a9b50       ?OnLButtonDown@CPreviewView@@IAEXIVCPoint@@@Z 5f4aab50 f viewprev.obj
 0001:000a9bc6       ?SetZoomState@CPreviewView@@IAEXIIVCPoint@@@Z 5f4aabc6 f viewprev.obj
 0001:000a9c10       ?OnZoomIn@CPreviewView@@IAEXXZ 5f4aac10 f viewprev.obj
 0001:000a9c5e       ?OnZoomOut@CPreviewView@@IAEXXZ 5f4aac5e f viewprev.obj
 0001:000a9cac       ?DoZoom@CPreviewView@@IAEXIVCPoint@@@Z 5f4aacac f viewprev.obj
 0001:000a9ec7       ?SetCurrentPage@CPreviewView@@IAEXIH@Z 5f4aaec7 f viewprev.obj
 0001:000a9fca       ?OnDisplayPageNumber@CPreviewView@@MAEXII@Z 5f4aafca f viewprev.obj
 0001:000aa103       ?OnUpdateNumPageChange@CPreviewView@@IAEXPAVCCmdUI@@@Z 5f4ab103 f viewprev.obj
 0001:000aa248       ?OnUpdateNextPage@CPreviewView@@IAEXPAVCCmdUI@@@Z 5f4ab248 f viewprev.obj
 0001:000aa296       ?OnUpdatePrevPage@CPreviewView@@IAEXPAVCCmdUI@@@Z 5f4ab296 f viewprev.obj
 0001:000aa2d8       ?OnUpdateZoomIn@CPreviewView@@IAEXPAVCCmdUI@@@Z 5f4ab2d8 f viewprev.obj
 0001:000aa30d       ?OnUpdateZoomOut@CPreviewView@@IAEXPAVCCmdUI@@@Z 5f4ab30d f viewprev.obj
 0001:000aa33d       ?OnSetCursor@CPreviewView@@IAEHPAVCWnd@@II@Z 5f4ab33d f viewprev.obj
 0001:000aa420       ?AssertValid@CPreviewView@@UBEXXZ 5f4ab420 f viewprev.obj
 0001:000aa50c       ?Dump@CPreviewView@@UBEXAAVCDumpContext@@@Z 5f4ab50c f viewprev.obj
 0001:000aa830       ??_ECPreviewView@@UAEPAXI@Z 5f4ab830 f viewprev.obj
 0001:000aa830       ??_GCPreviewView@@UAEPAXI@Z 5f4ab830 f viewprev.obj
 0001:000aa870       ??0PAGE_INFO@CPreviewView@@QAE@XZ 5f4ab870 f viewprev.obj
 0001:000aa8c0       ??_GCPrintInfo@@QAEPAXI@Z  5f4ab8c0 f viewprev.obj
 0001:000aa900       ?GetPrinterDeviceDefaults@CWinApp@@QAEHPAUtagPDW@@@Z 5f4ab900 f appprnt.obj
 0001:000aa989       ?UpdatePrinterSelection@CWinApp@@IAEXH@Z 5f4ab989 f appprnt.obj
 0001:000aadb7       ?DoPrintDialog@CWinApp@@QAEHPAVCPrintDialog@@@Z 5f4abdb7 f appprnt.obj
 0001:000aaf7a       ?OnFilePrintSetup@CWinApp@@IAEXXZ 5f4abf7a f appprnt.obj
 0001:000ab003       ?SelectPrinter@CWinApp@@QAEXPAX0H@Z 5f4ac003 f appprnt.obj
 0001:000ab0a9       ?CreatePrinterDC@CWinApp@@QAEHAAVCDC@@@Z 5f4ac0a9 f appprnt.obj
 0001:000ab130       ??1AUX_DATA@@QAE@XZ        5f4ac130 f auxdata.obj
 0001:000ab160       ??1CDocManager@@UAE@XZ     5f4ac160 f docmgr.obj
 0001:000ab260       ??1CWinThread@@UAE@XZ      5f4ac260 f thrdcore.obj
 0001:000ab310       ??1_AFX_WIN_STATE@@UAE@XZ  5f4ac310 f appcore.obj
 0001:000ab384       ?AfxPostQuitMessage@@YGXH@Z 5f4ac384 f appcore.obj
 0001:000ab3d0       ?AfxWinTerm@@YGXXZ         5f4ac3d0 f appterm.obj
 0001:000ab530       ??1CDynLinkLibrary@@UAE@XZ 5f4ac530 f dllinit.obj
 0001:000ab5bb       ?AssertValid@CDynLinkLibrary@@UBEXXZ 5f4ac5bb f dllinit.obj
 0001:000ab5f3       ?Dump@CDynLinkLibrary@@UBEXAAVCDumpContext@@@Z 5f4ac5f3 f dllinit.obj
 0001:000ab6c2       ?AfxTermExtensionModule@@YGXAAUAFX_EXTENSION_MODULE@@H@Z 5f4ac6c2 f dllinit.obj
 0001:000ab7a9       ?AfxLoadLibrary@@YGPAUHINSTANCE__@@PBG@Z 5f4ac7a9 f dllinit.obj
 0001:000ab7fe       ?AfxFreeLibrary@@YGHPAUHINSTANCE__@@@Z 5f4ac7fe f dllinit.obj
 0001:000ae220       ??_ECBitmap@@UAEPAXI@Z     5f4af220 f dllinit.obj
 0001:000ae290       ??_ECBitmapButton@@UAEPAXI@Z 5f4af290 f dllinit.obj
 0001:000ae300       ??_ECBrush@@UAEPAXI@Z      5f4af300 f dllinit.obj
 0001:000ae370       ??_ECButton@@UAEPAXI@Z     5f4af370 f dllinit.obj
 0001:000ae3e0       ??_ECByteArray@@UAEPAXI@Z  5f4af3e0 f dllinit.obj
 0001:000ae450       ??_ECCmdTarget@@UAEPAXI@Z  5f4af450 f dllinit.obj
 0001:000ae4c0       ??_ECComboBox@@UAEPAXI@Z   5f4af4c0 f dllinit.obj
 0001:000ae530       ??_ECDC@@UAEPAXI@Z         5f4af530 f dllinit.obj
 0001:000ae5a0       ??_ECDWordArray@@UAEPAXI@Z 5f4af5a0 f dllinit.obj
 0001:000ae610       ??_ECDialog@@UAEPAXI@Z     5f4af610 f dllinit.obj
 0001:000ae680       ??_ECDialogBar@@UAEPAXI@Z  5f4af680 f dllinit.obj
 0001:000ae6f0       ??_ECEdit@@UAEPAXI@Z       5f4af6f0 f dllinit.obj
 0001:000ae760       ??_ECFile@@UAEPAXI@Z       5f4af760 f dllinit.obj
 0001:000ae7d0       ??_ECFont@@UAEPAXI@Z       5f4af7d0 f dllinit.obj
 0001:000ae840       ??_ECFrameWnd@@UAEPAXI@Z   5f4af840 f dllinit.obj
 0001:000ae8b0       ??_ECGdiObject@@UAEPAXI@Z  5f4af8b0 f dllinit.obj
 0001:000ae920       ??_ECListBox@@UAEPAXI@Z    5f4af920 f dllinit.obj
 0001:000ae990       ??_ECCheckListBox@@UAEPAXI@Z 5f4af990 f dllinit.obj
 0001:000aea00       ??_ECMapPtrToPtr@@UAEPAXI@Z 5f4afa00 f dllinit.obj
 0001:000aea70       ??_FCMapPtrToPtr@@QAEXXZ   5f4afa70 f dllinit.obj
 0001:000aea90       ??_ECMapPtrToWord@@UAEPAXI@Z 5f4afa90 f dllinit.obj
 0001:000aeb00       ??_FCMapPtrToWord@@QAEXXZ  5f4afb00 f dllinit.obj
 0001:000aeb20       ??_ECMapStringToOb@@UAEPAXI@Z 5f4afb20 f dllinit.obj
 0001:000aeb90       ??_FCMapStringToOb@@QAEXXZ 5f4afb90 f dllinit.obj
 0001:000aebb0       ??_ECMapStringToPtr@@UAEPAXI@Z 5f4afbb0 f dllinit.obj
 0001:000aec20       ??_FCMapStringToPtr@@QAEXXZ 5f4afc20 f dllinit.obj
 0001:000aec40       ??_ECMapStringToString@@UAEPAXI@Z 5f4afc40 f dllinit.obj
 0001:000aecb0       ??_FCMapStringToString@@QAEXXZ 5f4afcb0 f dllinit.obj
 0001:000aecd0       ??_ECMapWordToOb@@UAEPAXI@Z 5f4afcd0 f dllinit.obj
 0001:000aed40       ??_FCMapWordToOb@@QAEXXZ   5f4afd40 f dllinit.obj
 0001:000aed60       ??_ECMapWordToPtr@@UAEPAXI@Z 5f4afd60 f dllinit.obj
 0001:000aedd0       ??_FCMapWordToPtr@@QAEXXZ  5f4afdd0 f dllinit.obj
 0001:000aedf0       ??_ECMemFile@@UAEPAXI@Z    5f4afdf0 f dllinit.obj
 0001:000aee60       ??_FCMemFile@@QAEXXZ       5f4afe60 f dllinit.obj
 0001:000aee90       ??_ECMenu@@UAEPAXI@Z       5f4afe90 f dllinit.obj
 0001:000aef00       ??_ECMetaFileDC@@UAEPAXI@Z 5f4aff00 f dllinit.obj
 0001:000aef70       ??_ECObArray@@UAEPAXI@Z    5f4aff70 f dllinit.obj
 0001:000aefe0       ??_ECObList@@UAEPAXI@Z     5f4affe0 f dllinit.obj
 0001:000af050       ??_FCObList@@QAEXXZ        5f4b0050 f dllinit.obj
 0001:000af070       ??_ECPalette@@UAEPAXI@Z    5f4b0070 f dllinit.obj
 0001:000af0e0       ??_ECPen@@UAEPAXI@Z        5f4b00e0 f dllinit.obj
 0001:000af150       ??_ECPtrArray@@UAEPAXI@Z   5f4b0150 f dllinit.obj
 0001:000af1c0       ??_ECPtrList@@UAEPAXI@Z    5f4b01c0 f dllinit.obj
 0001:000af230       ??_FCPtrList@@QAEXXZ       5f4b0230 f dllinit.obj
 0001:000af250       ??_ECRectTracker@@UAEPAXI@Z 5f4b0250 f dllinit.obj
 0001:000af2c0       ??_ECRgn@@UAEPAXI@Z        5f4b02c0 f dllinit.obj
 0001:000af330       ??_ECScrollBar@@UAEPAXI@Z  5f4b0330 f dllinit.obj
 0001:000af3a0       ??_ECSharedFile@@UAEPAXI@Z 5f4b03a0 f dllinit.obj
 0001:000af410       ??_FCSharedFile@@QAEXXZ    5f4b0410 f dllinit.obj
 0001:000af440       ??_ECSplitterWnd@@UAEPAXI@Z 5f4b0440 f dllinit.obj
 0001:000af4b0       ??_ECStatic@@UAEPAXI@Z     5f4b04b0 f dllinit.obj
 0001:000af520       ??_ECStatusBar@@UAEPAXI@Z  5f4b0520 f dllinit.obj
 0001:000af590       ??_ECStdioFile@@UAEPAXI@Z  5f4b0590 f dllinit.obj
 0001:000af600       ??_ECStringArray@@UAEPAXI@Z 5f4b0600 f dllinit.obj
 0001:000af670       ??_ECStringList@@UAEPAXI@Z 5f4b0670 f dllinit.obj
 0001:000af6e0       ??_FCStringList@@QAEXXZ    5f4b06e0 f dllinit.obj
 0001:000af700       ??_ECThreadSlotData@@QAEPAXI@Z 5f4b0700 f dllinit.obj
 0001:000af770       ??_ECToolBar@@UAEPAXI@Z    5f4b0770 f dllinit.obj
 0001:000af7e0       ??_ECUIntArray@@UAEPAXI@Z  5f4b07e0 f dllinit.obj
 0001:000af850       ??_ECWnd@@UAEPAXI@Z        5f4b0850 f dllinit.obj
 0001:000af8c0       ??_ECWordArray@@UAEPAXI@Z  5f4b08c0 f dllinit.obj
 0001:000af930       ??_ECFileFind@@UAEPAXI@Z   5f4b0930 f dllinit.obj
 0001:000af9a0       ??_ECInternetSession@@UAEPAXI@Z 5f4b09a0 f dllinit.obj
 0001:000afa10       ??_FCInternetSession@@QAEXXZ 5f4b0a10 f dllinit.obj
 0001:000afa40       ??_ECDragListBox@@UAEPAXI@Z 5f4b0a40 f dllinit.obj
 0001:000afab0       ??_ECStatusBarCtrl@@UAEPAXI@Z 5f4b0ab0 f dllinit.obj
 0001:000afb20       ??_ECListCtrl@@UAEPAXI@Z   5f4b0b20 f dllinit.obj
 0001:000afb90       ??_ECTreeCtrl@@UAEPAXI@Z   5f4b0b90 f dllinit.obj
 0001:000afc00       ??_ECSpinButtonCtrl@@UAEPAXI@Z 5f4b0c00 f dllinit.obj
 0001:000afc70       ??_ECSliderCtrl@@UAEPAXI@Z 5f4b0c70 f dllinit.obj
 0001:000afce0       ??_ECProgressCtrl@@UAEPAXI@Z 5f4b0ce0 f dllinit.obj
 0001:000afd50       ??_ECHeaderCtrl@@UAEPAXI@Z 5f4b0d50 f dllinit.obj
 0001:000afdc0       ??_ECHotKeyCtrl@@UAEPAXI@Z 5f4b0dc0 f dllinit.obj
 0001:000afe30       ??_ECToolTipCtrl@@UAEPAXI@Z 5f4b0e30 f dllinit.obj
 0001:000afea0       ??_ECTabCtrl@@UAEPAXI@Z    5f4b0ea0 f dllinit.obj
 0001:000aff10       ??_ECAnimateCtrl@@UAEPAXI@Z 5f4b0f10 f dllinit.obj
 0001:000aff80       ??_ECImageList@@UAEPAXI@Z  5f4b0f80 f dllinit.obj
 0001:000afff0       ??_ECToolBarCtrl@@UAEPAXI@Z 5f4b0ff0 f dllinit.obj
 0001:000b0060       ??_ECRichEditCtrl@@UAEPAXI@Z 5f4b1060 f dllinit.obj
 0001:000b00d0       ??_ECMirrorFile@@UAEPAXI@Z 5f4b10d0 f dllinit.obj
 0001:000b0140       ??_ECDockState@@UAEPAXI@Z  5f4b1140 f dllinit.obj
 0001:000b01b0       ??_ECListView@@UAEPAXI@Z   5f4b11b0 f dllinit.obj
 0001:000b0220       ??_ECTreeView@@UAEPAXI@Z   5f4b1220 f dllinit.obj
 0001:000b0290       ??_ECCommandLineInfo@@UAEPAXI@Z 5f4b1290 f dllinit.obj
 0001:000b0300       ??_ECDocManager@@UAEPAXI@Z 5f4b1300 f dllinit.obj
 0001:000b0370       ??_ECPageSetupDialog@@UAEPAXI@Z 5f4b1370 f dllinit.obj
 0001:000b03e0       ??_FCPageSetupDialog@@QAEXXZ 5f4b13e0 f dllinit.obj
 0001:000b0410       ??_ECSemaphore@@UAEPAXI@Z  5f4b1410 f dllinit.obj
 0001:000b0480       ??_FCSemaphore@@QAEXXZ     5f4b1480 f dllinit.obj
 0001:000b04b0       ??_ECMutex@@UAEPAXI@Z      5f4b14b0 f dllinit.obj
 0001:000b0520       ??_FCMutex@@QAEXXZ         5f4b1520 f dllinit.obj
 0001:000b0550       ??_ECEvent@@UAEPAXI@Z      5f4b1550 f dllinit.obj
 0001:000b05c0       ??_FCEvent@@QAEXXZ         5f4b15c0 f dllinit.obj
 0001:000b05f0       ??_ECCriticalSection@@UAEPAXI@Z 5f4b15f0 f dllinit.obj
 0002:00000054       ??_C@_07EFMO@CObject?$AA@  5f4b2054   objcore.obj
 0002:00000060       ?classCObject@CObject@@2UCRuntimeClass@@B 5f4b2060   objcore.obj
 0002:00000078       ??_C@_1GC@OANJ@?$AAA?$AAS?$AAS?$AAE?$AAR?$AAT?$AA_?$AAV?$AAA?$AAL?$AAI?$AAD?$AA?5?$AAf?$AAa?$AAi?$AAl?$AAs?$AA?5?$AAw@ 5f4b2078   objcore.obj
 0002:000000dc       ??_C@_1FE@IBFO@?$AAA?$AAS?$AAS?$AAE?$AAR?$AAT?$AA_?$AAV?$AAA?$AAL?$AAI?$AAD?$AA?5?$AAf?$AAa?$AAi?$AAl?$AAs?$AA?5?$AAw@ 5f4b20dc   objcore.obj
 0002:00000130       ??_C@_15DEDE@?$AA?$CF?$AAs?$AA?$AA?$AA?$AA?$AA?$AH?$AA?$AA@ 5f4b2130   objcore.obj
 0002:00000138       ??_C@_1EO@MGBE@?$AAA?$AAS?$AAS?$AAE?$AAR?$AAT?$AA_?$AAV?$AAA?$AAL?$AAI?$AAD?$AA?5?$AAf?$AAa?$AAi?$AAl?$AAs?$AA?5?$AAw@ 5f4b2138   objcore.obj
 0002:00000188       ??_C@_01BJG@?6?$AA@        5f4b2188   objcore.obj
 0002:0000018c       ??_C@_04CCDP@?5at?5?$AA@   5f4b218c   objcore.obj
 0002:00000194       ??_C@_02DLLN@a?5?$AA@      5f4b2194   objcore.obj
 0002:00000198       ??_C@_1LA@PGEA@?$AAE?$AAr?$AAr?$AAo?$AAr?$AA?3?$AA?5?$AAT?$AAr?$AAy?$AAi?$AAn?$AAg?$AA?5?$AAt?$AAo?$AA?5?$AAc?$AAr?$AAe@ 5f4b2198   objcore.obj
 0002:00000248       ??_C@_0BH@JODH@CNotSupportedException?$AA@ 5f4b2248   except.obj
 0002:00000260       ??_C@_0BB@NODM@CMemoryException?$AA@ 5f4b2260   except.obj
 0002:00000274       ??_C@_0L@CMNH@CException?$AA@ 5f4b2274   except.obj
 0002:00000280       ?classCException@CException@@2UCRuntimeClass@@B 5f4b2280   except.obj
 0002:00000298       ?classCMemoryException@CMemoryException@@2UCRuntimeClass@@B 5f4b2298   except.obj
 0002:000002b0       ?classCNotSupportedException@CNotSupportedException@@2UCRuntimeClass@@B 5f4b22b0   except.obj
 0002:000002cc       ??_7CException@@6B@        5f4b22cc   except.obj
 0002:000002e8       ??_C@_0BP@CJDN@d?3?2msdev?2mfc?2include?2afxtls_?4h?$AA@ 5f4b22e8   except.obj
 0002:00000308       ??_C@_02DILL@?$CFs?$AA@    5f4b2308   dumpcont.obj
 0002:0000030c       ??_C@_1O@DAJD@?$AA?$CI?$AAN?$AAU?$AAL?$AAL?$AA?$CJ?$AA?$AA?$AA?$AA?$AA?$AH?$AA?$AA?$AA?$AA?$AA?$AA?$AE?$CI?$AF?$:O@ 5f4b230c   dumpcont.obj
 0002:0000031c       ??_C@_15KLDP@?$AA?$CF?$AAd?$AA?$AA?$AA?$AA?$AA?$AH?$AA?$AA@ 5f4b231c   dumpcont.obj
 0002:00000324       ??_C@_15NIED@?$AA?$CF?$AAu?$AA?$AA?$AA?$AA?$AA?$AH?$AA?$AA@ 5f4b2324   dumpcont.obj
 0002:0000032c       ??_C@_19JHMD@?$AA0?$AAx?$AA?$CF?$AAX?$AA?$AA?$AA?$AA?$AA?$AH?$AA?$AA?$AA?$AA?$AA?$AA@ 5f4b232c   dumpcont.obj
 0002:00000338       ??_C@_17EFBD@?$AA?$CF?$AAl?$AAd?$AA?$AA?$AA?$AH?$AA?$AA?$AA?$AA?$AA?$AA@ 5f4b2338   dumpcont.obj
 0002:00000340       ??_C@_17DGGP@?$AA?$CF?$AAl?$AAu?$AA?$AA?$AA?$AH?$AA?$AA?$AA?$AA?$AA?$AA@ 5f4b2340   dumpcont.obj
 0002:00000348       ??_C@_19KF@?$AAN?$AAU?$AAL?$AAL?$AA?$AA?$AA?$AA?$AA?$AH?$AA?$AA?$AA?$AA?$AA?$AA@ 5f4b2348   dumpcont.obj
 0002:00000354       ??_C@_19LOGG@?$AA$?$AA?$CF?$AAl?$AAX?$AA?$AA?$AA?$AA?$AA?$AH?$AA?$AA?$AA?$AA?$AA?$AA@ 5f4b2354   dumpcont.obj
 0002:00000360       ??_C@_13DEJI@?$AA?6?$AA?$AA?$AA?$AH?$AA?$AA@ 5f4b2360   dumpcont.obj
 0002:00000364       ??_C@_1M@JKLL@?$AA?5?$AA?$CF?$AA0?$AA2?$AAX?$AA?$AA?$AA?$AH?$AA?$AA?$AA?$AA?$AA?$AA?$BH?$AF?$:O@ 5f4b2364   dumpcont.obj
 0002:00000370       ??_C@_1HI@FMGH@?$AAW?$AAa?$AAr?$AAn?$AAi?$AAn?$AAg?$AA?3?$AA?5?$AAC?$AAa?$AAn?$AAn?$AAo?$AAt?$AA?5?$AAl?$AAo?$AAa?$AAd@ 5f4b2370   arccore.obj
 0002:000003e8       ??_C@_1GM@INHD@?$AAW?$AAa?$AAr?$AAn?$AAi?$AAn?$AAg?$AA?3?$AA?5?$AAC?$AAa?$AAn?$AAn?$AAo?$AAt?$AA?5?$AAc?$AAa?$AAl?$AAl@ 5f4b23e8   arcobj.obj
 0002:00000454       ??_C@_1GI@EPDB@?$AAW?$AAa?$AAr?$AAn?$AAi?$AAn?$AAg?$AA?3?$AA?5?$AAC?$AAa?$AAn?$AAn?$AAo?$AAt?$AA?5?$AAc?$AAa?$AAl?$AAl@ 5f4b2454   arcobj.obj
 0002:000004bc       ??_C@_0BC@BIF@CArchiveException?$AA@ 5f4b24bc   arcex.obj
 0002:000004d0       ??_C@_09GHEH@badSchema?$AA@ 5f4b24d0   arcex.obj
 0002:000004dc       ??_C@_08PPOL@badClass?$AA@ 5f4b24dc   arcex.obj
 0002:000004e8       ??_C@_08FIDE@badIndex?$AA@ 5f4b24e8   arcex.obj
 0002:000004f4       ??_C@_09HDPC@writeOnly?$AA@ 5f4b24f4   arcex.obj
 0002:00000500       ??_C@_09CLBG@endOfFile?$AA@ 5f4b2500   arcex.obj
 0002:0000050c       ??_C@_08DEHK@readOnly?$AA@ 5f4b250c   arcex.obj
 0002:00000518       ??_C@_07LFGH@generic?$AA@  5f4b2518   arcex.obj
 0002:00000520       ??_C@_04KIKH@none?$AA@     5f4b2520   arcex.obj
 0002:00000550       ?classCArchiveException@CArchiveException@@2UCRuntimeClass@@B 5f4b2550   arcex.obj
 0002:00000568       ??_C@_0M@EBCL@?5m_cause?5?$DN?5?$AA@ 5f4b2568   arcex.obj
 0002:00000574       ??_C@_1DE@DAPO@?$AAC?$AAA?$AAr?$AAc?$AAh?$AAi?$AAv?$AAe?$AA?5?$AAe?$AAx?$AAc?$AAe?$AAp?$AAt?$AAi?$AAo?$AAn?$AA?3?$AA?5@ 5f4b2574   arcex.obj
 0002:000005cc       ??_7CArchiveStream@@6B@    5f4b25cc   arcstrm.obj
 0002:0000060c       ??_7IStream@@6B@           5f4b260c   arcstrm.obj
 0002:0000064c       ??_7ISequentialStream@@6B@ 5f4b264c   arcstrm.obj
 0002:00000664       ??_7IUnknown@@6B@          5f4b2664   arcstrm.obj
 0002:000006dc       ??_C@_0DH@ODEG@faulted?5while?5dumping?5object?5at?5@ 5f4b26dc   dumpinit.obj
 0002:00000714       ??_C@_0CH@OFAB@a?5?$CFhs?5object?5at?5$?$CF08lX?0?5?$CFu?5bytes@ 5f4b2714   dumpinit.obj
 0002:0000073c       ??_C@_0CM@EDOO@an?5invalid?5object?5at?5$?$CF08lX?0?5?$CFu?5@ 5f4b273c   dumpinit.obj
 0002:00000768       ??_C@_0N@POFF@dumpinit?4cpp?$AA@ 5f4b2768   dumpinit.obj
 0002:0000077c       ??_7_AFX_DEBUG_STATE@@6B@  5f4b277c   dumpinit.obj
 0002:00000784       ??_7CNoTrackObject@@6B@    5f4b2784   dumpinit.obj
 0002:00000788       ??_C@_02HFBK@?3?5?$AA@     5f4b2788   dumpout.obj
 0002:00000790       ??_C@_1CE@MDGC@?$AAA?$AAf?$AAx?$AAA?$AAb?$AAo?$AAr?$AAt?$AA?5?$AAc?$AAa?$AAl?$AAl?$AAe?$AAd?$AA?4?$AA?6?$AA?$AA?$AA?$AH?$AA?$AA@ 5f4b2790   afxabort.obj
 0002:000007f4       ??_7CObject@@6B@           5f4b27f4   afxinl1.obj
 0002:0000080c       ??_7CSimpleException@@6B@  5f4b280c   afxinl1.obj
 0002:0000082c       ??_7CMemoryException@@6B@  5f4b282c   afxinl1.obj
 0002:0000084c       ??_7CNotSupportedException@@6B@ 5f4b284c   afxinl1.obj
 0002:0000086c       ??_7CArchiveException@@6B@ 5f4b286c   afxinl1.obj
 0002:0000088c       ??_7CFileException@@6B@    5f4b288c   afxinl1.obj
 0002:000008ac       ??_7CCommonDialog@@6B@     5f4b28ac   afxinl1.obj
 0002:0000098c       ??_7CRectTracker@@6B@      5f4b298c   afxinl1.obj
 0002:000009ac       ??_7CBitmapButton@@6B@     5f4b29ac   afxinl1.obj
 0002:00000a84       ??_7CResourceException@@6B@ 5f4b2a84   afxinl2.obj
 0002:00000aa4       ??_7CUserException@@6B@    5f4b2aa4   afxinl2.obj
 0002:00000ac4       ??_7CGdiObject@@6B@        5f4b2ac4   afxinl2.obj
 0002:00000adc       ??_7CPen@@6B@              5f4b2adc   afxinl2.obj
 0002:00000af4       ??_7CBrush@@6B@            5f4b2af4   afxinl2.obj
 0002:00000b0c       ??_7CFont@@6B@             5f4b2b0c   afxinl2.obj
 0002:00000b24       ??_7CBitmap@@6B@           5f4b2b24   afxinl2.obj
 0002:00000b3c       ??_7CPalette@@6B@          5f4b2b3c   afxinl2.obj
 0002:00000b54       ??_7CRgn@@6B@              5f4b2b54   afxinl2.obj
 0002:00000b6c       ??_7CMenu@@6B@             5f4b2b6c   afxinl2.obj
 0002:00000b9c       ??_7CStatic@@6B@           5f4b2b9c   afxinl3.obj
 0002:00000c64       ??_7CButton@@6B@           5f4b2c64   afxinl3.obj
 0002:00000d2c       ??_7CListBox@@6B@          5f4b2d2c   afxinl3.obj
 0002:00000e0c       ??_7CCheckListBox@@6B@     5f4b2e0c   afxinl3.obj
 0002:00000eec       ??_7CComboBox@@6B@         5f4b2eec   afxinl3.obj
 0002:00000fc4       ??_7CEdit@@6B@             5f4b2fc4   afxinl3.obj
 0002:0000108c       ??_7CScrollBar@@6B@        5f4b308c   afxinl3.obj
 0002:0000114c       ??_C@_05GM@CFile?$AA@      5f4b314c   filecore.obj
 0002:00001158       _afxIID_IClassFactory      5f4b3158   filecore.obj
 0002:00001168       _afxIID_IPersistFile       5f4b3168   filecore.obj
 0002:00001178       _afxCLSID_ShellLink        5f4b3178   filecore.obj
 0002:00001188       _afxIID_IShellLinkW        5f4b3188   filecore.obj
 0002:00001198       ?classCFile@CFile@@2UCRuntimeClass@@B 5f4b3198   filecore.obj
 0002:000011b4       ??_7CFile@@6B@             5f4b31b4   filecore.obj
 0002:00001210       ??_C@_0BC@KFKC@DllGetClassObject?$AA@ 5f4b3210   filecore.obj
 0002:00001224       ??_C@_1GG@OAL@?$AA?$HL?$AA?$CF?$AA0?$AA8?$AAX?$AA?9?$AA?$CF?$AA0?$AA4?$AAX?$AA?9?$AA?$CF?$AA0?$AA4?$AAX?$AA?9?$AA?$CF?$AA0?$AA2?$AAX@ 5f4b3224   filecore.obj
 0002:0000128c       ??_C@_11A@?$AA?$AA?$AA?$AA@ 5f4b328c   filecore.obj
 0002:00001290       ??_C@_1BO@DEPG@?$AAI?$AAn?$AAP?$AAr?$AAo?$AAc?$AAS?$AAe?$AAr?$AAv?$AAe?$AAr?$AA3?$AA2?$AA?$AA?$AA?$AA?$AA?$AH?$AA?$AA?$AA?$AA?$AA?$AA@ 5f4b3290   filecore.obj
 0002:000012b0       ??_C@_1M@EPCN@?$AAC?$AAL?$AAS?$AAI?$AAD?$AA?$AA?$AA?$AH?$AA?$AA?$AA?$AA?$AA?$AA?$AF?$AF?$:O@ 5f4b32b0   filecore.obj
 0002:000012bc       ??_C@_1GC@CEID@?$AAW?$AAa?$AAr?$AAn?$AAi?$AAn?$AAg?$AA?3?$AA?5?$AAc?$AAo?$AAu?$AAl?$AAd?$AA?5?$AAn?$AAo?$AAt?$AA?5?$AAg@ 5f4b32bc   filecore.obj
 0002:00001320       ??_C@_1FC@EIIJ@?$AAW?$AAa?$AAr?$AAn?$AAi?$AAn?$AAg?$AA?3?$AA?5?$AAc?$AAo?$AAu?$AAl?$AAd?$AA?5?$AAn?$AAo?$AAt?$AA?5?$AAp@ 5f4b3320   filecore.obj
 0002:00001374       ??_C@_01HMO@?$CC?$AA@      5f4b3374   filecore.obj
 0002:00001378       ??_C@_0M@KEJC@?5and?5name?5?$CC?$AA@ 5f4b3378   filecore.obj
 0002:00001384       ??_C@_0N@MAIC@with?5handle?5?$AA@ 5f4b3384   filecore.obj
 0002:00001394       ??_C@_0L@JAPO@CStdioFile?$AA@ 5f4b3394   filetxt.obj
 0002:000013a0       ?classCStdioFile@CStdioFile@@2UCRuntimeClass@@B 5f4b33a0   filetxt.obj
 0002:000013bc       ??_7CStdioFile@@6B@        5f4b33bc   filetxt.obj
 0002:00001424       ??_C@_0N@FDDN@m_pStream?5?$DN?5?$AA@ 5f4b3424   filetxt.obj
 0002:00001434       ??_C@_08EMMO@CMemFile?$AA@ 5f4b3434   filemem.obj
 0002:00001440       ?classCMemFile@CMemFile@@2UCRuntimeClass@@B 5f4b3440   filemem.obj
 0002:0000145c       ??_7CMemFile@@6B@          5f4b345c   filemem.obj
 0002:000014cc       ??_C@_0BB@KJDL@?6m_nGrowBytes?5?$DN?5?$AA@ 5f4b34cc   filemem.obj
 0002:000014e0       ??_C@_0BA@IEDI@?6m_nPosition?5?$DN?5?$AA@ 5f4b34e0   filemem.obj
 0002:000014f0       ??_C@_0BC@LAMI@?6m_nBufferSize?5?$DN?5?$AA@ 5f4b34f0   filemem.obj
 0002:00001504       ??_C@_0P@IHAB@m_nFileSize?5?$DN?5?$AA@ 5f4b3504   filemem.obj
 0002:00001514       ??_C@_0M@DHDK@CSharedFile?$AA@ 5f4b3514   fileshrd.obj
 0002:00001520       ?classCSharedFile@CSharedFile@@2UCRuntimeClass@@B 5f4b3520   fileshrd.obj
 0002:0000153c       ??_7CSharedFile@@6B@       5f4b353c   fileshrd.obj
 0002:000015ac       ??_C@_0P@HFKI@CFileException?$AA@ 5f4b35ac   filex.obj
 0002:000015bc       ??_C@_08DJIA@diskFull?$AA@ 5f4b35bc   filex.obj
 0002:000015c8       ??_C@_0O@IKIP@lockViolation?$AA@ 5f4b35c8   filex.obj
 0002:000015d8       ??_C@_0BB@KIFC@sharingViolation?$AA@ 5f4b35d8   filex.obj
 0002:000015ec       ??_C@_06BPHG@hardIO?$AA@   5f4b35ec   filex.obj
 0002:000015f4       ??_C@_07DCIG@badSeek?$AA@  5f4b35f4   filex.obj
 0002:000015fc       ??_C@_0O@NHLK@directoryFull?$AA@ 5f4b35fc   filex.obj
 0002:0000160c       ??_C@_0BB@OOOA@removeCurrentDir?$AA@ 5f4b360c   filex.obj
 0002:00001620       ??_C@_0M@BHGP@invalidFile?$AA@ 5f4b3620   filex.obj
 0002:0000162c       ??_C@_0N@CFIF@accessDenied?$AA@ 5f4b362c   filex.obj
 0002:0000163c       ??_C@_0BB@KBLL@tooManyOpenFiles?$AA@ 5f4b363c   filex.obj
 0002:00001650       ??_C@_07JGJA@badPath?$AA@  5f4b3650   filex.obj
 0002:00001658       ??_C@_0N@KFOJ@fileNotFound?$AA@ 5f4b3658   filex.obj
 0002:000016b0       ?classCFileException@CFileException@@2UCRuntimeClass@@B 5f4b36b0   filex.obj
 0002:000016c8       ??_C@_0P@CDGG@?6m_lOsError?5?$DN?5?$AA@ 5f4b36c8   filex.obj
 0002:000016d8       ??_C@_0L@BAND@m_cause?5?$DN?5?$AA@ 5f4b36d8   filex.obj
 0002:000016e4       ??_C@_1HI@GAHB@?$AAC?$AAF?$AAi?$AAl?$AAe?$AA?5?$AAe?$AAx?$AAc?$AAe?$AAp?$AAt?$AAi?$AAo?$AAn?$AA?3?$AA?5?$AA?$CF?$AAh?$AAs@ 5f4b36e4   filex.obj
 0002:0000175c       ??_C@_1BA@JDJI@?$AAU?$AAn?$AAk?$AAn?$AAo?$AAw?$AAn?$AA?$AA?$AA?$AH?$AA?$AA?$AA?$AA?$AA?$AA?$AH?$AF?$:O?$AA?$BA?$AA?$AB@ 5f4b375c   filex.obj
 0002:0000176c       ??_C@_0BB@FMKN@?6m_szFullName?5?$DN?5?$AA@ 5f4b376c   filest.obj
 0002:00001780       ??_C@_0BA@MINE@?6m_attribute?5?$DN?5?$AA@ 5f4b3780   filest.obj
 0002:00001790       ??_C@_0L@MFI@?6m_size?5?$DN?5?$AA@ 5f4b3790   filest.obj
 0002:0000179c       ??_C@_0M@BOFF@?6m_atime?5?$DN?5?$AA@ 5f4b379c   filest.obj
 0002:000017a8       ??_C@_0M@HPJL@?6m_mtime?5?$DN?5?$AA@ 5f4b37a8   filest.obj
 0002:000017b4       ??_C@_0M@IOAI@?6m_ctime?5?$DN?5?$AA@ 5f4b37b4   filest.obj
 0002:000017c0       ??_C@_0BC@PLAF@a?5CFileStatus?5at?5?$AA@ 5f4b37c0   filest.obj
 0002:000017d4       ??_C@_0L@LFP@CByteArray?$AA@ 5f4b37d4   array_b.obj
 0002:000017e4       ??_7CByteArray@@6B@        5f4b37e4   array_b.obj
 0002:000017f8       ??_C@_04MNLE@?$FN?5?$DN?5?$AA@ 5f4b37f8   array_b.obj
 0002:00001800       ??_C@_03DANH@?6?7?$FL?$AA@ 5f4b3800   array_b.obj
 0002:00001804       ??_C@_09LOPF@?5elements?$AA@ 5f4b3804   array_b.obj
 0002:00001810       ??_C@_05KIFI@with?5?$AA@   5f4b3810   array_b.obj
 0002:00001818       ??_C@_0M@JHEJ@CDWordArray?$AA@ 5f4b3818   array_d.obj
 0002:0000182c       ??_7CDWordArray@@6B@       5f4b382c   array_d.obj
 0002:00001840       ??_C@_09BHCJ@CPtrArray?$AA@ 5f4b3840   array_p.obj
 0002:00001850       ?classCPtrArray@CPtrArray@@2UCRuntimeClass@@B 5f4b3850   array_p.obj
 0002:0000186c       ??_7CPtrArray@@6B@         5f4b386c   array_p.obj
 0002:00001880       ??_C@_08PPJP@CObArray?$AA@ 5f4b3880   array_o.obj
 0002:00001894       ??_7CObArray@@6B@          5f4b3894   array_o.obj
 0002:000018a8       ??_C@_0N@FMIP@CStringArray?$AA@ 5f4b38a8   array_s.obj
 0002:000018bc       ??_7CStringArray@@6B@      5f4b38bc   array_s.obj
 0002:000018d0       ??_C@_0L@OIGA@CUIntArray?$AA@ 5f4b38d0   array_u.obj
 0002:000018e0       ?classCUIntArray@CUIntArray@@2UCRuntimeClass@@B 5f4b38e0   array_u.obj
 0002:000018fc       ??_7CUIntArray@@6B@        5f4b38fc   array_u.obj
 0002:00001910       ??_C@_0L@KEGG@CWordArray?$AA@ 5f4b3910   array_w.obj
 0002:00001924       ??_7CWordArray@@6B@        5f4b3924   array_w.obj
 0002:00001938       ??_C@_07ICCG@CObList?$AA@  5f4b3938   list_o.obj
 0002:00001944       ??_7CObList@@6B@           5f4b3944   list_o.obj
 0002:00001958       ??_C@_02GGCO@?6?7?$AA@     5f4b3958   list_o.obj
 0002:0000195c       ??_C@_08DEKG@CPtrList?$AA@ 5f4b395c   list_p.obj
 0002:00001968       ?classCPtrList@CPtrList@@2UCRuntimeClass@@B 5f4b3968   list_p.obj
 0002:00001984       ??_7CPtrList@@6B@          5f4b3984   list_p.obj
 0002:00001998       ??_C@_0M@JCPP@CStringList?$AA@ 5f4b3998   list_s.obj
 0002:000019ac       ??_7CStringList@@6B@       5f4b39ac   list_s.obj
 0002:000019c0       ??_C@_0N@EGND@CMapPtrToPtr?$AA@ 5f4b39c0   map_pp.obj
 0002:000019d0       ?classCMapPtrToPtr@CMapPtrToPtr@@2UCRuntimeClass@@B 5f4b39d0   map_pp.obj
 0002:000019ec       ??_7CMapPtrToPtr@@6B@      5f4b39ec   map_pp.obj
 0002:00001a00       ??_C@_0O@CNGA@CMapPtrToWord?$AA@ 5f4b3a00   map_pw.obj
 0002:00001a10       ?classCMapPtrToWord@CMapPtrToWord@@2UCRuntimeClass@@B 5f4b3a10   map_pw.obj
 0002:00001a2c       ??_7CMapPtrToWord@@6B@     5f4b3a2c   map_pw.obj
 0002:00001a40       ??_C@_0P@FLNF@CMapStringToOb?$AA@ 5f4b3a40   map_so.obj
 0002:00001a54       ??_7CMapStringToOb@@6B@    5f4b3a54   map_so.obj
 0002:00001a68       ??_C@_0BA@PAMN@CMapStringToPtr?$AA@ 5f4b3a68   map_sp.obj
 0002:00001a78       ?classCMapStringToPtr@CMapStringToPtr@@2UCRuntimeClass@@B 5f4b3a78   map_sp.obj
 0002:00001a94       ??_7CMapStringToPtr@@6B@   5f4b3a94   map_sp.obj
 0002:00001aa8       ??_C@_0BD@HCIA@CMapStringToString?$AA@ 5f4b3aa8   map_ss.obj
 0002:00001ac4       ??_7CMapStringToString@@6B@ 5f4b3ac4   map_ss.obj
 0002:00001ad8       ??_C@_0N@DJOC@CMapWordToOb?$AA@ 5f4b3ad8   map_wo.obj
 0002:00001aec       ??_7CMapWordToOb@@6B@      5f4b3aec   map_wo.obj
 0002:00001b00       ??_C@_0O@MJKP@CMapWordToPtr?$AA@ 5f4b3b00   map_wp.obj
 0002:00001b10       ?classCMapWordToPtr@CMapWordToPtr@@2UCRuntimeClass@@B 5f4b3b10   map_wp.obj
 0002:00001b2c       ??_7CMapWordToPtr@@6B@     5f4b3b2c   map_wp.obj
 0002:00001b40       ??_C@_1FC@LHMI@?$AAW?$AAa?$AAr?$AAn?$AAi?$AAn?$AAg?$AA?3?$AA?5?$AAi?$AAm?$AAp?$AAl?$AAi?$AAc?$AAi?$AAt?$AA?5?$AAL?$AAo@ 5f4b3b40   strcore.obj
 0002:00001b94       ??_C@_02FEMI@?$CC?$CJ?$AA@ 5f4b3b94   timecore.obj
 0002:00001b98       ??_C@_07MABK@CTime?$CI?$CC?$AA@ 5f4b3b98   timecore.obj
 0002:00001ba0       ??_C@_01KMMP@?$CJ?$AA@     5f4b3ba0   timecore.obj
 0002:00001ba4       ??_C@_0BA@NLOD@CTime?$CIinvalid?5?$CD?$AA@ 5f4b3ba4   timecore.obj
 0002:00001bb4       ??_C@_09PGME@?5seconds?$CJ?$AA@ 5f4b3bb4   timecore.obj
 0002:00001bc0       ??_C@_0O@BFOJ@?5minutes?5and?5?$AA@ 5f4b3bc0   timecore.obj
 0002:00001bd0       ??_C@_08CJPE@?5hours?0?5?$AA@ 5f4b3bd0   timecore.obj
 0002:00001bdc       ??_C@_07CJKE@?5days?0?5?$AA@ 5f4b3bdc   timecore.obj
 0002:00001be4       ??_C@_0L@DOCK@CTimeSpan?$CI?$AA@ 5f4b3be4   timecore.obj
 0002:00001bf0       ??_C@_19HABD@?$AA?$CF?$AA0?$AA2?$AAd?$AA?$AA?$AA?$AA?$AA?$AH?$AA?$AA?$AA?$AA?$AA?$AA@ 5f4b3bf0   timecore.obj
 0002:00001c04       ??_7_AFX_THREAD_STATE@@6B@ 5f4b3c04   afxstate.obj
 0002:00001c0c       ??_7AFX_MODULE_STATE@@6B@  5f4b3c0c   afxstate.obj
 0002:00001c14       ??_7AFX_MODULE_THREAD_STATE@@6B@ 5f4b3c14   afxstate.obj
 0002:00001c1c       ??_7_AFX_BASE_MODULE_STATE@@6B@ 5f4b3c1c   afxstate.obj
 0002:00001c24       ??_7CThreadData@@6B@       5f4b3c24   afxtls.obj
 0002:00001c28       ??_C@_0M@EHIL@CSyncObject?$AA@ 5f4b3c28   mtcore.obj
 0002:00001c34       ??_C@_0BB@HCJ@CCriticalSection?$AA@ 5f4b3c34   mtcore.obj
 0002:00001c48       ?classCCriticalSection@CCriticalSection@@2UCRuntimeClass@@B 5f4b3c48   mtcore.obj
 0002:00001c60       ?classCSyncObject@CSyncObject@@2UCRuntimeClass@@B 5f4b3c60   mtcore.obj
 0002:00001c7c       ??_7CSyncObject@@6B@       5f4b3c7c   mtcore.obj
 0002:00001c9c       ??_C@_07LNGA@?5named?5?$AA@ 5f4b3c9c   mtcore.obj
 0002:00001ca4       ??_C@_07MBHD@Object?5?$AA@ 5f4b3ca4   mtcore.obj
 0002:00001cb4       ??_7CCriticalSection@@6B@  5f4b3cb4   mtcore.obj
 0002:00001cd4       ??_C@_06HCIL@CMutex?$AA@   5f4b3cd4   mtex.obj
 0002:00001cdc       ??_C@_0L@NFMO@CSemaphore?$AA@ 5f4b3cdc   mtex.obj
 0002:00001ce8       ??_C@_06BPGE@CEvent?$AA@   5f4b3ce8   mtex.obj
 0002:00001cf0       ?classCEvent@CEvent@@2UCRuntimeClass@@B 5f4b3cf0   mtex.obj
 0002:00001d08       ?classCSemaphore@CSemaphore@@2UCRuntimeClass@@B 5f4b3d08   mtex.obj
 0002:00001d20       ?classCMutex@CMutex@@2UCRuntimeClass@@B 5f4b3d20   mtex.obj
 0002:00001d3c       ??_7CSemaphore@@6B@        5f4b3d3c   mtex.obj
 0002:00001d64       ??_7CMutex@@6B@            5f4b3d64   mtex.obj
 0002:00001d8c       ??_7CEvent@@6B@            5f4b3d8c   mtex.obj
 0002:00001dac       ??_C@_04MBPC@CWnd?$AA@     5f4b3dac   wincore.obj
 0002:00001db8       ?_afxWnd@@3PBGB            5f4b3db8   wincore.obj
 0002:00001dd0       ?_afxWndControlBar@@3PBGB  5f4b3dd0   wincore.obj
 0002:00001df8       ?_afxWndMDIFrame@@3PBGB    5f4b3df8   wincore.obj
 0002:00001e18       ?_afxWndFrameOrView@@3PBGB 5f4b3e18   wincore.obj
 0002:00001e40       ?_afxWndOleControl@@3PBGB  5f4b3e40   wincore.obj
 0002:00001e88       ?messageMap@CWnd@@1UAFX_MSGMAP@@B 5f4b3e88   wincore.obj
 0002:00001e90       ?_messageEntries@CWnd@@0PBUAFX_MSGMAP_ENTRY@@B 5f4b3e90   wincore.obj
 0002:00002118       ?classCWnd@CWnd@@2UCRuntimeClass@@B 5f4b4118   wincore.obj
 0002:00002130       ??_C@_1CK@HBPJ@?$AAc?$AAo?$AAm?$AAm?$AAc?$AAt?$AAr?$AAl?$AA_?$AAD?$AAr?$AAa?$AAg?$AAL?$AAi?$AAs?$AAt?$AAM?$AAs?$AAg@ 5f4b4130   wincore.obj
 0002:00002164       ??_7CWnd@@6B@              5f4b4164   wincore.obj
 0002:00002224       ??_C@_1HI@NNAA@?$AAW?$AAa?$AAr?$AAn?$AAi?$AAn?$AAg?$AA?3?$AA?5?$AAU?$AAn?$AAc?$AAa?$AAu?$AAg?$AAh?$AAt?$AA?5?$AAe?$AAx@ 5f4b4224   wincore.obj
 0002:0000229c       ??_C@_1BA@KFMN@?$AAW?$AAn?$AAd?$AAP?$AAr?$AAo?$AAc?$AA?$AA?$AA?$AH?$AA?$AA?$AA?$AA?$AA?$AA?$ALT?$AF?$:O?$AA?$BA?$AA?$AB@ 5f4b429c   wincore.obj
 0002:000022ac       ??_C@_1IO@PHDK@?$AAW?$AAa?$AAr?$AAn?$AAi?$AAn?$AAg?$AA?3?$AA?5?$AAU?$AAn?$AAc?$AAa?$AAu?$AAg?$AAh?$AAt?$AA?5?$AAe?$AAx@ 5f4b42ac   wincore.obj
 0002:0000233c       ??_C@_1HO@OOAB@?$AAW?$AAa?$AAr?$AAn?$AAi?$AAn?$AAg?$AA?3?$AA?5?$AAW?$AAi?$AAn?$AAd?$AAo?$AAw?$AA?5?$AAc?$AAr?$AAe?$AAa@ 5f4b433c   wincore.obj
 0002:000023bc       ??_C@_1OA@CIKK@?$AAW?$AAa?$AAr?$AAn?$AAi?$AAn?$AAg?$AA?3?$AA?5?$AAc?$AAa?$AAl?$AAl?$AAi?$AAn?$AAg?$AA?5?$AAD?$AAe?$AAs@ 5f4b43bc   wincore.obj
 0002:0000249c       ??_C@_06BHKF@?6id?5?$DN?5?$AA@ 5f4b449c   wincore.obj
 0002:000024a4       ??_C@_09MMEE@?6style?5?$DN?5?$AA@ 5f4b44a4   wincore.obj
 0002:000024b0       ??_C@_0BB@OKDO@?6parent?5CWnd?$CK?5?$DN?5?$AA@ 5f4b44b0   wincore.obj
 0002:000024c4       ??_C@_08IIAM@?6rect?5?$DN?5?$AA@ 5f4b44c4   wincore.obj
 0002:000024d0       ??_C@_0BA@JMEP@?6class?5name?5?$DN?5?$CC?$AA@ 5f4b44d0   wincore.obj
 0002:000024e0       ??_C@_0N@EELD@?6caption?5?$DN?5?$CC?$AA@ 5f4b44e0   wincore.obj
 0002:000024f0       ??_C@_0BE@EMJB@?5?$CIpermanent?5window?$CJ?$AA@ 5f4b44f0   wincore.obj
 0002:00002504       ??_C@_0CA@HEAL@?5?$CIDetached?5or?5temporary?5window?$CJ?$AA@ 5f4b4504   wincore.obj
 0002:00002524       ??_C@_0BA@NCHM@?5?$CIillegal?5HWND?$CJ?$AA@ 5f4b4524   wincore.obj
 0002:00002534       ??_C@_0L@HLEE@?6m_hWnd?5?$DN?5?$AA@ 5f4b4534   wincore.obj
 0002:00002540       ??_C@_1GO@BJLB@?$AAW?$AAa?$AAr?$AAn?$AAi?$AAn?$AAg?$AA?3?$AA?5?$AAu?$AAn?$AAk?$AAn?$AAo?$AAw?$AAn?$AA?5?$AAW?$AAM?$AA_@ 5f4b4540   wincore.obj
 0002:000025b0       ??_C@_1EM@OKFH@?$AAC?$AAa?$AAn?$AA?8?$AAt?$AA?5?$AAr?$AAe?$AAg?$AAi?$AAs?$AAt?$AAe?$AAr?$AA?5?$AAw?$AAi?$AAn?$AAd?$AAo@ 5f4b45b0   wincore.obj
 0002:000025fc       ??_C@_1CG@HFFM@?$AAA?$AAf?$AAx?$AA?3?$AA?$CF?$AAx?$AA?3?$AA?$CF?$AAx?$AA?3?$AA?$CF?$AAx?$AA?3?$AA?$CF?$AAx?$AA?3?$AA?$CF?$AAx?$AA?$AA?$AA?$AA@ 5f4b45fc   wincore.obj
 0002:00002624       ??_C@_1BE@KCHN@?$AAA?$AAf?$AAx?$AA?3?$AA?$CF?$AAx?$AA?3?$AA?$CF?$AAx?$AA?$AA?$AA?$AH?$AA?$AA?$AA?$AA?$AA?$AA?$AI?$GA?$AF?$:O?$AA?$BE?$AA?$AB?$AA?$AA?$AA?$AA@ 5f4b4624   wincore.obj
 0002:00002638       ??_C@_1HG@BIMO@?$AAW?$AAi?$AAn?$AAH?$AAe?$AAl?$AAp?$AA?3?$AA?5?$AAp?$AAs?$AAz?$AAH?$AAe?$AAl?$AAp?$AAF?$AAi?$AAl?$AAe@ 5f4b4638   wincore.obj
 0002:000026b4       ??_7CTestCmdUI@@6B@        5f4b46b4   wincore.obj
 0002:000026c4       ??_C@_1GK@IJAD@?$AAI?$AAm?$AAp?$AAl?$AAe?$AAm?$AAe?$AAn?$AAt?$AAa?$AAt?$AAi?$AAo?$AAn?$AA?5?$AAW?$AAa?$AAr?$AAn?$AAi@ 5f4b46c4   wincore.obj
 0002:00002730       ??_C@_1FI@PDNK@?$AAW?$AAa?$AAr?$AAn?$AAi?$AAn?$AAg?$AA?3?$AA?5?$AAn?$AAo?$AAt?$AA?5?$AAe?$AAx?$AAe?$AAc?$AAu?$AAt?$AAi@ 5f4b4730   wincore.obj
 0002:00002788       ??_C@_1HA@LPHL@?$AAW?$AAa?$AAr?$AAn?$AAi?$AAn?$AAg?$AA?3?$AA?5?$AAD?$AAe?$AAf?$AAe?$AAr?$AAW?$AAi?$AAn?$AAd?$AAo?$AAw@ 5f4b4788   wincore.obj
 0002:000027fc       ??_7_AFX_CTL3D_STATE@@6B@  5f4b47fc   wincore.obj
 0002:00002800       ??_C@_1JA@JGEC@?$AAW?$AAa?$AAr?$AAn?$AAi?$AAn?$AAg?$AA?3?$AA?5?$AAh?$AAD?$AAC?$AA?5?$AAi?$AAs?$AA?5?$AAN?$AAU?$AAL?$AAL@ 5f4b4800   wincore.obj
 0002:00002890       ??_C@_1FE@IHBG@?$AA?7?$AAh?$AAW?$AAn?$AAd?$AA?5?$AA?$DN?$AA?5?$AA$?$AA?$CF?$AA0?$AA4?$AAX?$AA?5?$AA?$CI?$AAn?$AAI?$AAD?$AAC?$AA?$DN@ 5f4b4890   wincore.obj
 0002:000028e4       ??_C@_1CC@BBNA@?$AA?7?$AAd?$AAe?$AAr?$AAi?$AAv?$AAe?$AAd?$AA?5?$AAc?$AAl?$AAa?$AAs?$AAs?$AA?4?$AA?6?$AA?$AA?$AA?$AA?$AA?$AH?$AA?$AA@ 5f4b48e4   wincore.obj
 0002:00002908       ??_C@_1HC@NHDM@?$AAE?$AAr?$AAr?$AAo?$AAr?$AA?3?$AA?5?$AAT?$AAr?$AAy?$AAi?$AAn?$AAg?$AA?5?$AAt?$AAo?$AA?5?$AAu?$AAs?$AAe@ 5f4b4908   wincore.obj
 0002:0000297c       ??_C@_0M@GCON@CControlBar?$AA@ 5f4b497c   winfrm.obj
 0002:00002988       ??_C@_05KON@CView?$AA@     5f4b4988   winfrm.obj
 0002:00002990       ??_C@_09HNKJ@CFrameWnd?$AA@ 5f4b4990   winfrm.obj
 0002:000029a0       ?messageMap@CFrameWnd@@1UAFX_MSGMAP@@B 5f4b49a0   winfrm.obj
 0002:000029a8       ?_messageEntries@CFrameWnd@@0PBUAFX_MSGMAP_ENTRY@@B 5f4b49a8   winfrm.obj
 0002:00002d98       ?classCFrameWnd@CFrameWnd@@2UCRuntimeClass@@B 5f4b4d98   winfrm.obj
 0002:00002db0       ?classCView@CView@@2UCRuntimeClass@@B 5f4b4db0   winfrm.obj
 0002:00002dc8       ?classCControlBar@CControlBar@@2UCRuntimeClass@@B 5f4b4dc8   winfrm.obj
 0002:00002de4       ??_7CFrameWnd@@6B@         5f4b4de4   winfrm.obj
 0002:00002ee0       ??_C@_1EM@DDNK@?$AAW?$AAa?$AAr?$AAn?$AAi?$AAn?$AAg?$AA?3?$AA?5?$AAf?$AAa?$AAi?$AAl?$AAe?$AAd?$AA?5?$AAt?$AAo?$AA?5?$AAc@ 5f4b4ee0   winfrm.obj
 0002:00002f2c       ??_C@_1FK@IOMB@?$AAW?$AAa?$AAr?$AAn?$AAi?$AAn?$AAg?$AA?3?$AA?5?$AAf?$AAa?$AAi?$AAl?$AAe?$AAd?$AA?5?$AAt?$AAo?$AA?5?$AAl@ 5f4b4f2c   winfrm.obj
 0002:00002f88       ??_C@_1FG@DHFK@?$AAW?$AAa?$AAr?$AAn?$AAi?$AAn?$AAg?$AA?3?$AA?5?$AAc?$AAo?$AAu?$AAl?$AAd?$AA?5?$AAn?$AAo?$AAt?$AA?5?$AAc@ 5f4b4f88   winfrm.obj
 0002:00002fe0       ??_C@_1GE@OKMP@?$AAW?$AAa?$AAr?$AAn?$AAi?$AAn?$AAg?$AA?3?$AA?5?$AAD?$AAy?$AAn?$AAa?$AAm?$AAi?$AAc?$AA?5?$AAc?$AAr?$AAe@ 5f4b4fe0   winfrm.obj
 0002:00003044       ??_C@_1FM@MAKN@?$AAF?$AAa?$AAi?$AAl?$AAe?$AAd?$AA?5?$AAt?$AAo?$AA?5?$AAc?$AAr?$AAe?$AAa?$AAt?$AAe?$AA?5?$AAc?$AAl?$AAi@ 5f4b5044   winfrm.obj
 0002:000030a0       ??_C@_1FI@CHH@?$AAE?$AAr?$AAr?$AAo?$AAr?$AA?3?$AA?5?$AAf?$AAa?$AAi?$AAl?$AAe?$AAd?$AA?5?$AAt?$AAo?$AA?5?$AAe?$AAx?$AAe@ 5f4b50a0   winfrm.obj
 0002:000030f8       ??_C@_1HO@HABA@?$AAW?$AAa?$AAr?$AAn?$AAi?$AAn?$AAg?$AA?3?$AA?5?$AAD?$AAD?$AAE?$AA?5?$AAc?$AAo?$AAm?$AAm?$AAa?$AAn?$AAd@ 5f4b50f8   winfrm.obj
 0002:00003178       ??_C@_1GA@KHGF@?$AAW?$AAa?$AAr?$AAn?$AAi?$AAn?$AAg?$AA?3?$AA?5?$AAn?$AAo?$AA?5?$AAm?$AAe?$AAs?$AAs?$AAa?$AAg?$AAe?$AA?5@ 5f4b5178   winfrm.obj
 0002:000031d8       ??_C@_1HG@CHFH@?$AAW?$AAa?$AAr?$AAn?$AAi?$AAn?$AAg?$AA?3?$AA?5?$AAO?$AAn?$AAU?$AAp?$AAd?$AAa?$AAt?$AAe?$AAK?$AAe?$AAy@ 5f4b51d8   winfrm.obj
 0002:00003250       ??_C@_17LFFB@?$AA?5?$AA?9?$AA?5?$AA?$AA?$AA?$AH?$AA?$AA?$AA?$AA?$AA?$AA@ 5f4b5250   winfrm.obj
 0002:00003258       ??_C@_17LJFH@?$AA?3?$AA?$CF?$AAd?$AA?$AA?$AA?$AH?$AA?$AA?$AA?$AA?$AA?$AA@ 5f4b5258   winfrm.obj
 0002:00003260       ??_C@_1II@MAFK@?$AAW?$AAa?$AAr?$AAn?$AAi?$AAn?$AAg?$AA?3?$AA?5?$AAs?$AAc?$AAr?$AAo?$AAl?$AAl?$AA?5?$AAb?$AAa?$AAr?$AAs@ 5f4b5260   winfrm.obj
 0002:000032e8       ??_C@_0BA@OBND@?6no?5active?5view?$AA@ 5f4b52e8   winfrm.obj
 0002:000032f8       ??_C@_0BE@LNEN@?6with?5active?5view?3?5?$AA@ 5f4b52f8   winfrm.obj
 0002:0000330c       ??_C@_0BF@GBOK@?6m_nIDLastMessage?5?$DN?5?$AA@ 5f4b530c   winfrm.obj
 0002:00003324       ??_C@_0BC@GNPE@?6m_nIDTracking?5?$DN?5?$AA@ 5f4b5324   winfrm.obj
 0002:00003338       ??_C@_0O@BBAD@?6m_nIDHelp?5?$DN?5?$AA@ 5f4b5338   winfrm.obj
 0002:00003348       ??_C@_0O@DMPK@?6m_nWindow?5?$DN?5?$AA@ 5f4b5348   winfrm.obj
 0002:00003358       ??_C@_0BB@HLGH@m_hAccelTable?5?$DN?5?$AA@ 5f4b5358   winfrm.obj
 0002:00003370       ?dwDockBarMap@CFrameWnd@@1PAY01$$CBKA 5f4b5370   winfrm2.obj
 0002:00003390       ??_C@_1HM@LAGL@?$AAE?$AAr?$AAr?$AAo?$AAr?$AA?3?$AA?5?$AAa?$AAn?$AA?5?$AAi?$AAn?$AA?9?$AAp?$AAl?$AAa?$AAc?$AAe?$AA?5?$AAs@ 5f4b5390   winfrmx.obj
 0002:0000340c       ??_C@_0N@NPHP@CMDIChildWnd?$AA@ 5f4b540c   winmdi.obj
 0002:0000341c       ??_C@_0N@FPEB@CMDIFrameWnd?$AA@ 5f4b541c   winmdi.obj
 0002:00003430       ?messageMap@CMDIFrameWnd@@1UAFX_MSGMAP@@B 5f4b5430   winmdi.obj
 0002:00003438       ?_messageEntries@CMDIFrameWnd@@0PBUAFX_MSGMAP_ENTRY@@B 5f4b5438   winmdi.obj
 0002:000035b8       ?messageMap@CMDIChildWnd@@1UAFX_MSGMAP@@B 5f4b55b8   winmdi.obj
 0002:000035c0       ?_messageEntries@CMDIChildWnd@@0PBUAFX_MSGMAP_ENTRY@@B 5f4b55c0   winmdi.obj
 0002:00003698       ?classCMDIFrameWnd@CMDIFrameWnd@@2UCRuntimeClass@@B 5f4b5698   winmdi.obj
 0002:000036b0       ?classCMDIChildWnd@CMDIChildWnd@@2UCRuntimeClass@@B 5f4b56b0   winmdi.obj
 0002:000036cc       ??_7CMDIFrameWnd@@6B@      5f4b56cc   winmdi.obj
 0002:000037d0       ??_C@_1II@NOMC@?$AAW?$AAa?$AAr?$AAn?$AAi?$AAn?$AAg?$AA?3?$AA?5?$AAC?$AAM?$AAD?$AAI?$AAF?$AAr?$AAa?$AAm?$AAe?$AAW?$AAn@ 5f4b57d0   winmdi.obj
 0002:00003858       ??_C@_1BE@MFDJ@?$AAm?$AAd?$AAi?$AAc?$AAl?$AAi?$AAe?$AAn?$AAt?$AA?$AA?$AA?$AH?$AA?$AA?$AA?$AA?$AA?$AA?$BE?$AE?$AF?$:O?$AA?$BE?$AA?$AB?$AA?5?$AA?$AA@ 5f4b5858   winmdi.obj
 0002:0000386c       ??_C@_1FO@CGDK@?$AAW?$AAa?$AAr?$AAn?$AAi?$AAn?$AAg?$AA?3?$AA?5?$AAC?$AAM?$AAD?$AAI?$AAF?$AAr?$AAa?$AAm?$AAe?$AAW?$AAn@ 5f4b586c   winmdi.obj
 0002:000038cc       ??_C@_0BD@PBFF@?6m_hMenuDefault?5?$DN?5?$AA@ 5f4b58cc   winmdi.obj
 0002:000038e0       ??_C@_0BD@IENL@m_hWndMDIClient?5?$DN?5?$AA@ 5f4b58e0   winmdi.obj
 0002:000038fc       ??_7CMDIChildWnd@@6B@      5f4b58fc   winmdi.obj
 0002:00003a00       ??_C@_1HE@JNPH@?$AAW?$AAa?$AAr?$AAn?$AAi?$AAn?$AAg?$AA?3?$AA?5?$AAn?$AAo?$AA?5?$AAs?$AAh?$AAa?$AAr?$AAe?$AAd?$AA?5?$AAm@ 5f4b5a00   winmdi.obj
 0002:00003a74       ??_C@_0BB@DJLO@m_hMenuShared?5?$DN?5?$AA@ 5f4b5a74   winmdi.obj
 0002:00003a88       ??_C@_1EK@LEIL@?$AAW?$AAa?$AAr?$AAn?$AAi?$AAn?$AAg?$AA?3?$AA?5?$AAG?$AAe?$AAt?$AAW?$AAi?$AAn?$AAd?$AAo?$AAw?$AAM?$AAe@ 5f4b5a88   winmdi.obj
 0002:00003ad4       ??_C@_1EM@GEBA@?$AAW?$AAa?$AAr?$AAn?$AAi?$AAn?$AAg?$AA?3?$AA?5?$AAf?$AAa?$AAi?$AAl?$AAe?$AAd?$AA?5?$AAt?$AAo?$AA?5?$AAc@ 5f4b5ad4   winmdi.obj
 0002:00003b20       ??_C@_1GI@BAGO@?$AAW?$AAa?$AAr?$AAn?$AAi?$AAn?$AAg?$AA?3?$AA?5?$AAN?$AAo?$AA?5?$AAa?$AAc?$AAt?$AAi?$AAv?$AAe?$AA?5?$AAd@ 5f4b5b20   winmdi.obj
 0002:00003b88       ??_C@_0N@OELH@CToolTipCtrl?$AA@ 5f4b5b88   tooltip.obj
 0002:00003b98       ?messageMap@CToolTipCtrl@@1UAFX_MSGMAP@@B 5f4b5b98   tooltip.obj
 0002:00003ba0       ?_messageEntries@CToolTipCtrl@@0PBUAFX_MSGMAP_ENTRY@@B 5f4b5ba0   tooltip.obj
 0002:00003c00       ?classCToolTipCtrl@CToolTipCtrl@@2UCRuntimeClass@@B 5f4b5c00   tooltip.obj
 0002:00003c1c       ??_7CToolTipCtrl@@6B@      5f4b5c1c   tooltip.obj
 0002:00003cdc       ??_C@_1CC@BIKB@?$AAt?$AAo?$AAo?$AAl?$AAt?$AAi?$AAp?$AAs?$AA_?$AAc?$AAl?$AAa?$AAs?$AAs?$AA3?$AA2?$AA?$AA?$AA?$AA?$AA?$AH?$AA?$AA@ 5f4b5cdc   tooltip.obj
 0002:00003d00       ??_C@_0O@NPLL@CMiniFrameWnd?$AA@ 5f4b5d00   winmini.obj
 0002:00003d10       ?messageMap@CMiniFrameWnd@@1UAFX_MSGMAP@@B 5f4b5d10   winmini.obj
 0002:00003d18       ?_messageEntries@CMiniFrameWnd@@0PBUAFX_MSGMAP_ENTRY@@B 5f4b5d18   winmini.obj
 0002:00003e98       ?classCMiniFrameWnd@CMiniFrameWnd@@2UCRuntimeClass@@B 5f4b5e98   winmini.obj
 0002:00003eb4       ??_7CMiniFrameWnd@@6B@     5f4b5eb4   winmini.obj
 0002:00003fb0       ??_C@_1BI@PPN@?$AAS?$AAm?$AAa?$AAl?$AAl?$AA?5?$AAF?$AAo?$AAn?$AAt?$AAs?$AA?$AA?$AA?$AH?$AA?$AA?$AA?$AA?$AA?$AA?$BK?$;A?$AF?$:O?$AA?$BI?$AA?$AB@ 5f4b5fb0   winmini.obj
 0002:00003fc8       ??_C@_1BC@NHJA@?$AAT?$AAe?$AAr?$AAm?$AAi?$AAn?$AAa?$AAl?$AA?$AA?$AA?$AA?$AA?$AH?$AA?$AA?$AA?$AA?$AA?$AA?$BJ?$HM?$AF?$:O?$AA?$BC?$AA?$AB@ 5f4b5fc8   winmini.obj
 0002:00003fdc       ??_C@_1HK@GNFN@?$AAW?$AAa?$AAr?$AAn?$AAi?$AAn?$AAg?$AA?3?$AA?5?$AAf?$AAa?$AAi?$AAl?$AAe?$AAd?$AA?5?$AAt?$AAo?$AA?5?$AAr@ 5f4b5fdc   winhand.obj
 0002:00004058       ??_C@_1FM@FGMM@?$AAW?$AAa?$AAr?$AAn?$AAi?$AAn?$AAg?$AA?3?$AA?5?$AAT?$AAe?$AAm?$AAp?$AA?5?$AAm?$AAa?$AAp?$AA?5?$AAl?$AAo@ 5f4b6058   winmain.obj
 0002:000040b4       ??_C@_1FC@IBEO@?$AAW?$AAa?$AAr?$AAn?$AAi?$AAn?$AAg?$AA?3?$AA?5?$AAD?$AAe?$AAs?$AAt?$AAr?$AAo?$AAy?$AAi?$AAn?$AAg?$AA?5@ 5f4b60b4   winmain.obj
 0002:00004108       ??_C@_0M@BKC@winmain?4cpp?$AA@ 5f4b6108   winmain.obj
 0002:00004118       ?messageMap@CControlBar@@1UAFX_MSGMAP@@B 5f4b6118   barcore.obj
 0002:00004120       ?_messageEntries@CControlBar@@0PBUAFX_MSGMAP_ENTRY@@B 5f4b6120   barcore.obj
 0002:000042d4       ??_7CControlBar@@6B@       5f4b62d4   barcore.obj
 0002:000043bc       ??_C@_0BC@BDB@?6m_bAutoDelete?5?$DN?5?$AA@ 5f4b63bc   barcore.obj
 0002:000043d0       ??_C@_0N@DDAM@?6m_nCount?5?$DN?5?$AA@ 5f4b63d0   barcore.obj
 0002:000043e0       ??_C@_0BD@OGL@?6m_cxDefaultGap?5?$DN?5?$AA@ 5f4b63e0   barcore.obj
 0002:000043f4       ??_C@_0BF@HKFD@?6m_cyBottomBorder?5?$DN?5?$AA@ 5f4b63f4   barcore.obj
 0002:0000440c       ??_C@_0BC@JBOA@?6m_cyTopBorder?5?$DN?5?$AA@ 5f4b640c   barcore.obj
 0002:00004420       ??_C@_0BE@MIIC@?6m_cxRightBorder?5?$DN?5?$AA@ 5f4b6420   barcore.obj
 0002:00004434       ??_C@_0BD@BEEP@?6m_cxLeftBorder?5?$DN?5?$AA@ 5f4b6434   barcore.obj
 0002:00004448       ??_C@_08NCEL@CToolBar?$AA@ 5f4b6448   bartool.obj
 0002:00004478       ?messageMap@CToolBar@@1UAFX_MSGMAP@@B 5f4b6478   bartool.obj
 0002:00004480       ?_messageEntries@CToolBar@@0PBUAFX_MSGMAP_ENTRY@@B 5f4b6480   bartool.obj
 0002:00004588       ?classCToolBar@CToolBar@@2UCRuntimeClass@@B 5f4b6588   bartool.obj
 0002:000045a4       ??_7CToolBar@@6B@          5f4b65a4   bartool.obj
 0002:00004690       ??_C@_1CA@IKCD@?$AAT?$AAo?$AAo?$AAl?$AAb?$AAa?$AAr?$AAW?$AAi?$AAn?$AAd?$AAo?$AAw?$AA3?$AA2?$AA?$AA?$AA?$AH?$AA?$AA?$AA?$AA?$AA?$AA@ 5f4b6690   bartool.obj
 0002:000046b0       ??_C@_1HE@GHHH@?$AAW?$AAa?$AAr?$AAn?$AAi?$AAn?$AAg?$AA?3?$AA?5?$AAC?$AAT?$AAo?$AAo?$AAl?$AAB?$AAa?$AAr?$AA?3?$AA?3?$AAS@ 5f4b66b0   bartool.obj
 0002:0000472c       ??_7CToolCmdUI@@6B@        5f4b672c   bartool.obj
 0002:0000473c       ??_C@_02JCCC@?6?$HN?$AA@   5f4b673c   bartool.obj
 0002:00004740       ??_C@_0CB@DJKL@?6?7iImage?5?$CIbitmap?5image?5index?$CJ?5?$DN?5@ 5f4b6740   bartool.obj
 0002:00004764       ??_C@_0BO@PCPI@?6?7iImage?5?$CIseparator?5width?$CJ?5?$DN?5?$AA@ 5f4b6764   bartool.obj
 0002:00004784       ??_C@_0M@GLAJ@?6?7nStyle?5?$DN?5?$AA@ 5f4b6784   bartool.obj
 0002:00004790       ??_C@_08LINB@?6?7nID?5?$DN?5?$AA@ 5f4b6790   bartool.obj
 0002:0000479c       ??_C@_05EJJM@?$FN?5?$DN?5?$HL?$AA@ 5f4b679c   bartool.obj
 0002:000047a4       ??_C@_0BB@ELCK@?6toolbar?5button?$FL?$AA@ 5f4b67a4   bartool.obj
 0002:000047b8       ??_C@_0BA@BCFB@?6m_sizeImage?5?$DN?5?$AA@ 5f4b67b8   bartool.obj
 0002:000047c8       ??_C@_0BB@BMHK@?6m_sizeButton?5?$DN?5?$AA@ 5f4b67c8   bartool.obj
 0002:000047dc       ??_C@_0BF@GKOI@?6m_hRsrcImageWell?5?$DN?5?$AA@ 5f4b67dc   bartool.obj
 0002:000047f4       ??_C@_0BF@ONDI@?6m_hInstImageWell?5?$DN?5?$AA@ 5f4b67f4   bartool.obj
 0002:0000480c       ??_C@_0BC@DKGE@m_hbmImageWell?5?$DN?5?$AA@ 5f4b680c   bartool.obj
 0002:00004820       ??_C@_0L@KJOE@CDialogBar?$AA@ 5f4b6820   bardlg.obj
 0002:00004830       ?messageMap@CDialogBar@@1UAFX_MSGMAP@@B 5f4b6830   bardlg.obj
 0002:00004838       ?_messageEntries@CDialogBar@@0PBUAFX_MSGMAP_ENTRY@@B 5f4b6838   bardlg.obj
 0002:00004868       ?classCDialogBar@CDialogBar@@2UCRuntimeClass@@B 5f4b6868   bardlg.obj
 0002:00004884       ??_7CDialogBar@@6B@        5f4b6884   bardlg.obj
 0002:0000496c       ??_C@_1HG@BJFF@?$AAW?$AAa?$AAr?$AAn?$AAi?$AAn?$AAg?$AA?3?$AA?5?$AAC?$AAr?$AAe?$AAa?$AAt?$AAe?$AAD?$AAl?$AAg?$AAC?$AAo@ 5f4b696c   bardlg.obj
 0002:000049e4       ??_C@_0L@BNMI@CStatusBar?$AA@ 5f4b69e4   barstat.obj
 0002:000049f0       ?messageMap@CStatusBar@@1UAFX_MSGMAP@@B 5f4b69f0   barstat.obj
 0002:000049f8       ?_messageEntries@CStatusBar@@0PBUAFX_MSGMAP_ENTRY@@B 5f4b69f8   barstat.obj
 0002:00004b00       ?classCStatusBar@CStatusBar@@2UCRuntimeClass@@B 5f4b6b00   barstat.obj
 0002:00004b1c       ??_7CStatusBar@@6B@        5f4b6b1c   barstat.obj
 0002:00004c08       ??_C@_1CG@LDD@?$AAm?$AAs?$AAc?$AAt?$AAl?$AAs?$AA_?$AAs?$AAt?$AAa?$AAt?$AAu?$AAs?$AAb?$AAa?$AAr?$AA3?$AA2?$AA?$AA?$AA?$AA@ 5f4b6c08   barstat.obj
 0002:00004c30       ??_C@_1GE@LEPD@?$AAW?$AAa?$AAr?$AAn?$AAi?$AAn?$AAg?$AA?3?$AA?5?$AAf?$AAa?$AAi?$AAl?$AAe?$AAd?$AA?5?$AAt?$AAo?$AA?5?$AAl@ 5f4b6c30   barstat.obj
 0002:00004c9c       ??_7CStatusCmdUI@@6B@      5f4b6c9c   barstat.obj
 0002:00004cac       ??_C@_03JNEF@?6?7?$HN?$AA@ 5f4b6cac   barstat.obj
 0002:00004cb0       ??_C@_0N@LFK@?6?7strText?5?$DN?5?$AA@ 5f4b6cb0   barstat.obj
 0002:00004cc0       ??_C@_0M@KPHB@?6?7cxText?5?$DN?5?$AA@ 5f4b6cc0   barstat.obj
 0002:00004ccc       ??_C@_0O@EBFM@?6status?5pane?$FL?$AA@ 5f4b6ccc   barstat.obj
 0002:00004cdc       ??_C@_0BC@NGKE@CMiniDockFrameWnd?$AA@ 5f4b6cdc   bardock.obj
 0002:00004cf0       ??_C@_08EABA@CDockBar?$AA@ 5f4b6cf0   bardock.obj
 0002:00004d00       ?messageMap@CDockBar@@1UAFX_MSGMAP@@B 5f4b6d00   bardock.obj
 0002:00004d08       ?_messageEntries@CDockBar@@0PBUAFX_MSGMAP_ENTRY@@B 5f4b6d08   bardock.obj
 0002:00004d98       ?messageMap@CMiniDockFrameWnd@@1UAFX_MSGMAP@@B 5f4b6d98   bardock.obj
 0002:00004da0       ?_messageEntries@CMiniDockFrameWnd@@0PBUAFX_MSGMAP_ENTRY@@B 5f4b6da0   bardock.obj
 0002:00004e18       ?classCDockBar@CDockBar@@2UCRuntimeClass@@B 5f4b6e18   bardock.obj
 0002:00004e30       ?classCMiniDockFrameWnd@CMiniDockFrameWnd@@2UCRuntimeClass@@B 5f4b6e30   bardock.obj
 0002:00004e4c       ??_7CDockBar@@6B@          5f4b6e4c   bardock.obj
 0002:00004f38       ??_C@_0O@PMCC@?6m_bFloating?5?$AA@ 5f4b6f38   bardock.obj
 0002:00004f48       ??_C@_0L@KJHL@m_arrBars?5?$AA@ 5f4b6f48   bardock.obj
 0002:00004f5c       ??_7CMiniDockFrameWnd@@6B@ 5f4b6f5c   bardock.obj
 0002:00005064       ??_7CDockContext@@6B@      5f4b7064   dockcont.obj
 0002:00005070       ??_C@_0L@HPAN@CDockState?$AA@ 5f4b7070   dockstat.obj
 0002:00005294       ??_7CDockState@@6B@        5f4b7294   dockstat.obj
 0002:000052a8       ??_C@_0L@MCGA@CPreviewDC?$AA@ 5f4b72a8   dcprev.obj
 0002:000052b8       ?classCPreviewDC@CPreviewDC@@2UCRuntimeClass@@B 5f4b72b8   dcprev.obj
 0002:000052d4       ??_7CPreviewDC@@6B@        5f4b72d4   dcprev.obj
 0002:00005350       ??_C@_01FDLN@?1?$AA@       5f4b7350   dcprev.obj
 0002:00005354       ??_C@_0P@DFJI@Scale?5Factor?3?5?$AA@ 5f4b7354   dcprev.obj
 0002:00005364       ??_C@_01POCP@?7?$AA@       5f4b7364   dcprev.obj
 0002:00005368       ??_C@_01PFH@A?$AA@         5f4b7368   dcprev.obj
 0002:0000536c       ??_C@_1HE@MPEO@?$AAT?$AAe?$AAx?$AAt?$AAO?$AAu?$AAt?$AA?$CI?$AA?$CJ?$AA?5?$AAs?$AAu?$AAb?$AAs?$AAt?$AAi?$AAt?$AAu?$AAt?$AAe@ 5f4b736c   dcprev.obj
 0002:000053e0       ??_C@_0M@MIEC@CMetaFileDC?$AA@ 5f4b73e0   dcmeta.obj
 0002:000053f0       ?classCMetaFileDC@CMetaFileDC@@2UCRuntimeClass@@B 5f4b73f0   dcmeta.obj
 0002:0000540c       ??_7CMetaFileDC@@6B@       5f4b740c   dcmeta.obj
 0002:00005488       ??_C@_1GO@BKCN@?$AAM?$AAu?$AAs?$AAt?$AA?5?$AAu?$AAs?$AAe?$AA?5?$AAC?$AAr?$AAe?$AAa?$AAt?$AAe?$AA?$CI?$AA?$CJ?$AA?5?$AAo?$AAr@ 5f4b7488   dcmeta.obj
 0002:000054f8       ??_C@_1GC@JNEN@?$AAM?$AAu?$AAs?$AAt?$AA?5?$AAu?$AAs?$AAe?$AA?5?$AAC?$AAl?$AAo?$AAs?$AAe?$AA?$CI?$AA?$CJ?$AA?5?$AAt?$AAo?$AA?5@ 5f4b74f8   dcmeta.obj
 0002:0000555c       ??_C@_1GE@PPOB@?$AAW?$AAa?$AAr?$AAn?$AAi?$AAn?$AAg?$AA?$CB?$AA?5?$AAD?$AAe?$AAs?$AAt?$AAr?$AAo?$AAy?$AAi?$AAn?$AAg?$AA?5@ 5f4b755c   dcmeta.obj
 0002:0000571c       ??_C@_0L@JCLK@CScrollBar?$AA@ 5f4b771c   winctrl1.obj
 0002:00005728       ??_C@_05KKIE@CEdit?$AA@    5f4b7728   winctrl1.obj
 0002:00005730       ??_C@_09JMHE@CComboBox?$AA@ 5f4b7730   winctrl1.obj
 0002:0000573c       ??_C@_08NBK@CListBox?$AA@  5f4b773c   winctrl1.obj
 0002:00005748       ??_C@_07NNHJ@CButton?$AA@  5f4b7748   winctrl1.obj
 0002:00005750       ??_C@_07HEEJ@CStatic?$AA@  5f4b7750   winctrl1.obj
 0002:00005758       ?classCStatic@CStatic@@2UCRuntimeClass@@B 5f4b7758   winctrl1.obj
 0002:00005770       ?classCButton@CButton@@2UCRuntimeClass@@B 5f4b7770   winctrl1.obj
 0002:00005788       ?classCListBox@CListBox@@2UCRuntimeClass@@B 5f4b7788   winctrl1.obj
 0002:000057a0       ?classCComboBox@CComboBox@@2UCRuntimeClass@@B 5f4b77a0   winctrl1.obj
 0002:000057b8       ?classCEdit@CEdit@@2UCRuntimeClass@@B 5f4b77b8   winctrl1.obj
 0002:000057d0       ?classCScrollBar@CScrollBar@@2UCRuntimeClass@@B 5f4b77d0   winctrl1.obj
 0002:000057e8       ??_C@_1O@GCMM@?$AAS?$AAT?$AAA?$AAT?$AAI?$AAC?$AA?$AA?$AA?$AA?$AA?$AH?$AA?$AA?$AA?$AA?$AA?$AA?$AH?$DM?$AF?$:O@ 5f4b77e8   winctrl1.obj
 0002:000057f8       ??_C@_1O@GKDM@?$AAB?$AAU?$AAT?$AAT?$AAO?$AAN?$AA?$AA?$AA?$AA?$AA?$AH?$AA?$AA?$AA?$AA?$AA?$AA?7?$AF?$:O@ 5f4b77f8   winctrl1.obj
 0002:00005808       ??_C@_1BA@BJGI@?$AAL?$AAI?$AAS?$AAT?$AAB?$AAO?$AAX?$AA?$AA?$AA?$AH?$AA?$AA?$AA?$AA?$AA?$AA?$AG?$AF?$:O?$AA?$BA?$AA?$AB@ 5f4b7808   winctrl1.obj
 0002:00005818       ??_C@_1BC@DNEF@?$AAC?$AAO?$AAM?$AAB?$AAO?$AAB?$AAO?$AAX?$AA?$AA?$AA?$AA?$AA?$AH?$AA?$AA?$AA?$AA?$AA?$AA?$AG?$AF?$:O?$AA?$BC?$AA?$AB@ 5f4b7818   winctrl1.obj
 0002:0000582c       ??_C@_19CJM@?$AAE?$AAD?$AAI?$AAT?$AA?$AA?$AA?$AA?$AA?$AH?$AA?$AA?$AA?$AA?$AA?$AA@ 5f4b782c   winctrl1.obj
 0002:00005838       ??_C@_1BE@JGEP@?$AAS?$AAC?$AAR?$AAO?$AAL?$AAL?$AAB?$AAA?$AAR?$AA?$AA?$AA?$AH?$AA?$AA?$AA?$AA?$AA?$AA?7D?$AF?$:O?$AA?$BE?$AA?$ABp?$AB?7@ 5f4b7838   winctrl1.obj
 0002:0000584c       ??_C@_0O@KLOD@CRichEditCtrl?$AA@ 5f4b784c   winctrl2.obj
 0002:0000585c       ??_C@_0L@HBAH@CImageList?$AA@ 5f4b785c   winctrl2.obj
 0002:00005868       ??_C@_0P@NMO@CStatusBarCtrl?$AA@ 5f4b7868   winctrl2.obj
 0002:00005878       ??_C@_0N@HNL@CToolBarCtrl?$AA@ 5f4b7878   winctrl2.obj
 0002:00005888       ??_C@_09IAHO@CListCtrl?$AA@ 5f4b7888   winctrl2.obj
 0002:00005894       ??_C@_09CIBI@CTreeCtrl?$AA@ 5f4b7894   winctrl2.obj
 0002:000058a0       ??_C@_08IFFI@CTabCtrl?$AA@ 5f4b78a0   winctrl2.obj
 0002:000058ac       ??_C@_0N@PPEM@CAnimateCtrl?$AA@ 5f4b78ac   winctrl2.obj
 0002:000058bc       ??_C@_0M@IPHC@CHotKeyCtrl?$AA@ 5f4b78bc   winctrl2.obj
 0002:000058c8       ??_C@_0M@HNGK@CHeaderCtrl?$AA@ 5f4b78c8   winctrl2.obj
 0002:000058d4       ??_C@_0O@ECFI@CProgressCtrl?$AA@ 5f4b78d4   winctrl2.obj
 0002:000058e4       ??_C@_0M@POGH@CSliderCtrl?$AA@ 5f4b78e4   winctrl2.obj
 0002:000058f0       ??_C@_0BA@MANL@CSpinButtonCtrl?$AA@ 5f4b78f0   winctrl2.obj
 0002:00005900       ??_C@_0N@BPBM@CDragListBox?$AA@ 5f4b7900   winctrl2.obj
 0002:00005910       ?messageMap@CToolBarCtrl@@1UAFX_MSGMAP@@B 5f4b7910   winctrl2.obj
 0002:00005918       ?_messageEntries@CToolBarCtrl@@0PBUAFX_MSGMAP_ENTRY@@B 5f4b7918   winctrl2.obj
 0002:00005948       ?messageMap@CListCtrl@@1UAFX_MSGMAP@@B 5f4b7948   winctrl2.obj
 0002:00005950       ?_messageEntries@CListCtrl@@0PBUAFX_MSGMAP_ENTRY@@B 5f4b7950   winctrl2.obj
 0002:00005980       ?messageMap@CTreeCtrl@@1UAFX_MSGMAP@@B 5f4b7980   winctrl2.obj
 0002:00005988       ?_messageEntries@CTreeCtrl@@0PBUAFX_MSGMAP_ENTRY@@B 5f4b7988   winctrl2.obj
 0002:000059b8       ?messageMap@CTabCtrl@@1UAFX_MSGMAP@@B 5f4b79b8   winctrl2.obj
 0002:000059c0       ?_messageEntries@CTabCtrl@@0PBUAFX_MSGMAP_ENTRY@@B 5f4b79c0   winctrl2.obj
 0002:00005a00       ?classCDragListBox@CDragListBox@@2UCRuntimeClass@@B 5f4b7a00   winctrl2.obj
 0002:00005a18       ?classCSpinButtonCtrl@CSpinButtonCtrl@@2UCRuntimeClass@@B 5f4b7a18   winctrl2.obj
 0002:00005a30       ?classCSliderCtrl@CSliderCtrl@@2UCRuntimeClass@@B 5f4b7a30   winctrl2.obj
 0002:00005a48       ?classCProgressCtrl@CProgressCtrl@@2UCRuntimeClass@@B 5f4b7a48   winctrl2.obj
 0002:00005a60       ?classCHeaderCtrl@CHeaderCtrl@@2UCRuntimeClass@@B 5f4b7a60   winctrl2.obj
 0002:00005a78       ?classCHotKeyCtrl@CHotKeyCtrl@@2UCRuntimeClass@@B 5f4b7a78   winctrl2.obj
 0002:00005a90       ?classCAnimateCtrl@CAnimateCtrl@@2UCRuntimeClass@@B 5f4b7a90   winctrl2.obj
 0002:00005aa8       ?classCTabCtrl@CTabCtrl@@2UCRuntimeClass@@B 5f4b7aa8   winctrl2.obj
 0002:00005ac0       ?classCTreeCtrl@CTreeCtrl@@2UCRuntimeClass@@B 5f4b7ac0   winctrl2.obj
 0002:00005ad8       ?classCListCtrl@CListCtrl@@2UCRuntimeClass@@B 5f4b7ad8   winctrl2.obj
 0002:00005af0       ?classCToolBarCtrl@CToolBarCtrl@@2UCRuntimeClass@@B 5f4b7af0   winctrl2.obj
 0002:00005b08       ?classCStatusBarCtrl@CStatusBarCtrl@@2UCRuntimeClass@@B 5f4b7b08   winctrl2.obj
 0002:00005b20       ?classCImageList@CImageList@@2UCRuntimeClass@@B 5f4b7b20   winctrl2.obj
 0002:00005b38       ?classCRichEditCtrl@CRichEditCtrl@@2UCRuntimeClass@@B 5f4b7b38   winctrl2.obj
 0002:00005b54       ??_7CDragListBox@@6B@      5f4b7b54   winctrl2.obj
 0002:00005c44       ??_7CToolBarCtrl@@6B@      5f4b7c44   winctrl2.obj
 0002:00005d0c       ??_7CStatusBarCtrl@@6B@    5f4b7d0c   winctrl2.obj
 0002:00005dd0       ??_C@_1BM@DGLL@?$AAS?$AAy?$AAs?$AAL?$AAi?$AAs?$AAt?$AAV?$AAi?$AAe?$AAw?$AA3?$AA2?$AA?$AA?$AA?$AH?$AA?$AA?$AA?$AA?$AA?$AA?6?$AF?$:O@ 5f4b7dd0   winctrl2.obj
 0002:00005df4       ??_7CListCtrl@@6B@         5f4b7df4   winctrl2.obj
 0002:00005eb8       ??_C@_1BM@DBCI@?$AAS?$AAy?$AAs?$AAT?$AAr?$AAe?$AAe?$AAV?$AAi?$AAe?$AAw?$AA3?$AA2?$AA?$AA?$AA?$AH?$AA?$AA?$AA?$AA?$AA?$AA?6?$AF?$:O@ 5f4b7eb8   winctrl2.obj
 0002:00005edc       ??_7CTreeCtrl@@6B@         5f4b7edc   winctrl2.obj
 0002:00005f9c       ??_C@_1CA@JDKO@?$AAm?$AAs?$AAc?$AAt?$AAl?$AAs?$AA_?$AAu?$AAp?$AAd?$AAo?$AAw?$AAn?$AA3?$AA2?$AA?$AA?$AA?$AH?$AA?$AA?$AA?$AA?$AA?$AA@ 5f4b7f9c   winctrl2.obj
 0002:00005fc4       ??_7CSpinButtonCtrl@@6B@   5f4b7fc4   winctrl2.obj
 0002:00006084       ??_C@_1CE@EHFJ@?$AAm?$AAs?$AAc?$AAt?$AAl?$AAs?$AA_?$AAt?$AAr?$AAa?$AAc?$AAk?$AAb?$AAa?$AAr?$AA3?$AA2?$AA?$AA?$AA?$AH?$AA?$AA@ 5f4b8084   winctrl2.obj
 0002:000060ac       ??_7CSliderCtrl@@6B@       5f4b80ac   winctrl2.obj
 0002:0000616c       ??_C@_1CE@ECOJ@?$AAm?$AAs?$AAc?$AAt?$AAl?$AAs?$AA_?$AAp?$AAr?$AAo?$AAg?$AAr?$AAe?$AAs?$AAs?$AA3?$AA2?$AA?$AA?$AA?$AH?$AA?$AA@ 5f4b816c   winctrl2.obj
 0002:00006194       ??_7CProgressCtrl@@6B@     5f4b8194   winctrl2.obj
 0002:00006254       ??_C@_1BI@FFDG@?$AAS?$AAy?$AAs?$AAH?$AAe?$AAa?$AAd?$AAe?$AAr?$AA3?$AA2?$AA?$AA?$AA?$AH?$AA?$AA?$AA?$AA?$AA?$AA?$AN?$9A?$AF?$:O?$AA?$BI?$AA?$AB@ 5f4b8254   winctrl2.obj
 0002:00006274       ??_7CHeaderCtrl@@6B@       5f4b8274   winctrl2.obj
 0002:00006338       ??_C@_1CA@BKDN@?$AAm?$AAs?$AAc?$AAt?$AAl?$AAs?$AA_?$AAh?$AAo?$AAt?$AAk?$AAe?$AAy?$AA3?$AA2?$AA?$AA?$AA?$AH?$AA?$AA?$AA?$AA?$AA?$AA@ 5f4b8338   winctrl2.obj
 0002:0000635c       ??_7CHotKeyCtrl@@6B@       5f4b835c   winctrl2.obj
 0002:0000641c       ??_C@_1CA@OIHL@?$AAS?$AAy?$AAs?$AAT?$AAa?$AAb?$AAC?$AAo?$AAn?$AAt?$AAr?$AAo?$AAl?$AA3?$AA2?$AA?$AA?$AA?$AH?$AA?$AA?$AA?$AA?$AA?$AA@ 5f4b841c   winctrl2.obj
 0002:00006444       ??_7CTabCtrl@@6B@          5f4b8444   winctrl2.obj
 0002:00006508       ??_C@_1BK@MPBJ@?$AAS?$AAy?$AAs?$AAA?$AAn?$AAi?$AAm?$AAa?$AAt?$AAe?$AA3?$AA2?$AA?$AA?$AA?$AA?$AA?$AH?$AA?$AA?$AA?$AA?$AA?$AA?6?$AF?$:O@ 5f4b8508   winctrl2.obj
 0002:0000652c       ??_7CAnimateCtrl@@6B@      5f4b852c   winctrl2.obj
 0002:000065f4       ??_7CRichEditCtrl@@6B@     5f4b85f4   winctrl2.obj
 0002:000066bc       ??_7CImageList@@6B@        5f4b86bc   winctrl2.obj
 0002:000066d0       ??_C@_0BA@ENPN@m_hImageList?5?$DN?5?$AA@ 5f4b86d0   winctrl2.obj
 0002:000066e0       ??_C@_0O@KOFM@CCheckListBox?$AA@ 5f4b86e0   winctrl3.obj
 0002:000066f0       ?messageMap@CCheckListBox@@1UAFX_MSGMAP@@B 5f4b86f0   winctrl3.obj
 0002:000066f8       ?_messageEntries@CCheckListBox@@0PBUAFX_MSGMAP_ENTRY@@B 5f4b86f8   winctrl3.obj
 0002:00006860       ?classCCheckListBox@CCheckListBox@@2UCRuntimeClass@@B 5f4b8860   winctrl3.obj
 0002:0000687c       ??_7_AFX_CHECKLIST_STATE@@6B@ 5f4b887c   winctrl3.obj
 0002:00006884       ??_7_AFX_RICHEDIT_STATE@@6B@ 5f4b8884   winctrl4.obj
 0002:00006888       ??_C@_1BC@IAEH@?$AAR?$AAI?$AAC?$AAH?$AAE?$AAD?$AAI?$AAT?$AA?$AA?$AA?$AA?$AA?$AH?$AA?$AA?$AA?$AA?$AA?$AA?$AL8?$AF?$:O?$AA?$BC?$AA?$AB@ 5f4b8888   winctrl4.obj
 0002:0000689c       ??_C@_0N@GEKM@RICHED32?4DLL?$AA@ 5f4b889c   winctrl4.obj
 0002:000068ac       ??_C@_0O@FPOC@CBitmapButton?$AA@ 5f4b88ac   winbtn.obj
 0002:000068c0       ?classCBitmapButton@CBitmapButton@@2UCRuntimeClass@@B 5f4b88c0   winbtn.obj
 0002:000068d8       ??_C@_1FG@FIPG@?$AAF?$AAa?$AAi?$AAl?$AAe?$AAd?$AA?5?$AAt?$AAo?$AA?5?$AAl?$AAo?$AAa?$AAd?$AA?5?$AAb?$AAi?$AAt?$AAm?$AAa@ 5f4b88d8   winbtn.obj
 0002:00006930       ??_C@_1FC@CJBJ@?$AAF?$AAa?$AAi?$AAl?$AAe?$AAd?$AA?5?$AAt?$AAo?$AA?5?$AAl?$AAo?$AAa?$AAd?$AA?5?$AAb?$AAi?$AAt?$AAm?$AAa@ 5f4b8930   winbtn.obj
 0002:00006984       ??_C@_13LOIM@?$AAU?$AA?$AA?$AA?$AH?$AA?$AA@ 5f4b8984   winbtn.obj
 0002:00006988       ??_C@_13MNPA@?$AAD?$AA?$AA?$AA?$AH?$AA?$AA@ 5f4b8988   winbtn.obj
 0002:0000698c       ??_C@_13GJNN@?$AAF?$AA?$AA?$AA?$AH?$AA?$AA@ 5f4b898c   winbtn.obj
 0002:00006990       ??_C@_13DEHF@?$AAX?$AA?$AA?$AA?$AH?$AA?$AA@ 5f4b8990   winbtn.obj
 0002:00006994       ??_C@_0BF@DEP@?6m_bitmapDisabled?5?$DN?5?$AA@ 5f4b8994   winbtn.obj
 0002:000069ac       ??_C@_0BC@BPAL@?6m_bitmapFocus?5?$DN?5?$AA@ 5f4b89ac   winbtn.obj
 0002:000069c0       ??_C@_0BA@CKJB@?6m_bitmapSel?5?$DN?5?$AA@ 5f4b89c0   winbtn.obj
 0002:000069d0       ??_C@_0M@KFMF@m_bitmap?5?$DN?5?$AA@ 5f4b89d0   winbtn.obj
 0002:000069dc       ??_C@_07IJJI@CDialog?$AA@  5f4b89dc   dlgcore.obj
 0002:000069e8       ?messageMap@CDialog@@1UAFX_MSGMAP@@B 5f4b89e8   dlgcore.obj
 0002:000069f0       ?_messageEntries@CDialog@@0PBUAFX_MSGMAP_ENTRY@@B 5f4b89f0   dlgcore.obj
 0002:00006ac8       ?classCDialog@CDialog@@2UCRuntimeClass@@B 5f4b8ac8   dlgcore.obj
 0002:00006ae0       ??_C@_19JGFH@?$AAE?$AAd?$AAi?$AAt?$AA?$AA?$AA?$AA?$AA?$AH?$AA?$AA?$AA?$AA?$AA?$AA@ 5f4b8ae0   dlgcore.obj
 0002:00006aec       ??_C@_1GA@EDDJ@?$AAI?$AAG?$AAN?$AAO?$AAR?$AAI?$AAN?$AAG?$AA?5?$AAc?$AAo?$AAm?$AAm?$AAa?$AAn?$AAd?$AA?5?$AAi?$AAd?$AA?5@ 5f4b8aec   dlgcore.obj
 0002:00006b4c       ??_C@_1EG@EKMI@?$AAR?$AAo?$AAu?$AAt?$AAi?$AAn?$AAg?$AA?5?$AAc?$AAo?$AAm?$AAm?$AAa?$AAn?$AAd?$AA?5?$AAi?$AAd?$AA?5?$AA0@ 5f4b8b4c   dlgcore.obj
 0002:00006b94       ??_C@_1FI@EEBE@?$AAR?$AAo?$AAu?$AAt?$AAi?$AAn?$AAg?$AA?5?$AAc?$AAo?$AAm?$AAm?$AAa?$AAn?$AAd?$AA?5?$AAi?$AAd?$AA?5?$AA0@ 5f4b8b94   dlgcore.obj
 0002:00006bf4       ??_7CDialog@@6B@           5f4b8bf4   dlgcore.obj
 0002:00006ccc       ??_C@_1IE@PFFC@?$AA?7?$AAO?$AAn?$AAD?$AAe?$AAs?$AAt?$AAr?$AAo?$AAy?$AA?5?$AAo?$AAr?$AA?5?$AAP?$AAo?$AAs?$AAt?$AAN?$AAc@ 5f4b8ccc   dlgcore.obj
 0002:00006d50       ??_C@_1HA@CDGA@?$AAW?$AAa?$AAr?$AAn?$AAi?$AAn?$AAg?$AA?3?$AA?5?$AAc?$AAa?$AAl?$AAl?$AAi?$AAn?$AAg?$AA?5?$AAD?$AAe?$AAs@ 5f4b8d50   dlgcore.obj
 0002:00006dc0       ??_C@_1HK@MLHB@?$AA?$DO?$AA?$DO?$AA?$DO?$AA?5?$AAY?$AAo?$AAu?$AA?5?$AAs?$AAh?$AAo?$AAu?$AAl?$AAd?$AA?5?$AAc?$AAa?$AAl?$AAl?$AA?5@ 5f4b8dc0   dlgcore.obj
 0002:00006e3c       ??_C@_1HA@MEAE@?$AA?$DO?$AA?$DO?$AA?$DO?$AA?5?$AAA?$AAf?$AAx?$AAE?$AAn?$AAa?$AAb?$AAl?$AAe?$AAC?$AAo?$AAn?$AAt?$AAr?$AAo?$AAl@ 5f4b8e3c   dlgcore.obj
 0002:00006eac       ??_C@_1EM@OJLL@?$AA?$DO?$AA?$DO?$AA?$DO?$AA?5?$AAI?$AAf?$AA?5?$AAt?$AAh?$AAi?$AAs?$AA?5?$AAd?$AAi?$AAa?$AAl?$AAo?$AAg?$AA?5?$AAh@ 5f4b8eac   dlgcore.obj
 0002:00006ef8       ??_C@_1EE@OMIF@?$AAW?$AAa?$AAr?$AAn?$AAi?$AAn?$AAg?$AA?3?$AA?5?$AAD?$AAi?$AAa?$AAl?$AAo?$AAg?$AA?5?$AAc?$AAr?$AAe?$AAa@ 5f4b8ef8   dlgcore.obj
 0002:00006f3c       ??_C@_19OFHG@?$AAH?$AAe?$AAl?$AAv?$AA?$AA?$AA?$AA?$AA?$AH?$AA?$AA?$AA?$AA?$AA?$AA@ 5f4b8f3c   dlgcore.obj
 0002:00006f48       ??_C@_1BM@LDDO@?$AAM?$AAS?$AA?5?$AAS?$AAa?$AAn?$AAs?$AA?5?$AAS?$AAe?$AAr?$AAi?$AAf?$AA?$AA?$AA?$AH?$AA?$AA?$AA?$AA?$AA?$AA?$CF?$AF?$:O@ 5f4b8f48   dlgcore.obj
 0002:00006f64       ??_C@_1GO@DMJG@?$AAW?$AAa?$AAr?$AAn?$AAi?$AAn?$AAg?$AA?3?$AA?5?$AAC?$AAr?$AAe?$AAa?$AAt?$AAe?$AAD?$AAl?$AAg?$AAC?$AAo@ 5f4b8f64   dlgcore.obj
 0002:00006fd4       ??_C@_1GA@HAPJ@?$AAW?$AAa?$AAr?$AAn?$AAi?$AAn?$AAg?$AA?3?$AA?5?$AAU?$AAp?$AAd?$AAa?$AAt?$AAe?$AAD?$AAa?$AAt?$AAa?$AA?5@ 5f4b8fd4   dlgcore.obj
 0002:00007034       ??_C@_1GI@HBII@?$AAW?$AAa?$AAr?$AAn?$AAi?$AAn?$AAg?$AA?3?$AA?5?$AAE?$AAx?$AAe?$AAc?$AAu?$AAt?$AAe?$AAD?$AAl?$AAg?$AAI@ 5f4b9034   dlgcore.obj
 0002:0000709c       ??_C@_1FM@KEKB@?$AAU?$AAp?$AAd?$AAa?$AAt?$AAe?$AAD?$AAa?$AAt?$AAa?$AA?5?$AAf?$AAa?$AAi?$AAl?$AAe?$AAd?$AA?5?$AAd?$AAu@ 5f4b909c   dlgcore.obj
 0002:000070f8       ??_C@_0BB@MJBE@?6m_pParentWnd?5?$DN?5?$AA@ 5f4b90f8   dlgcore.obj
 0002:0000710c       ??_C@_0BH@IMJH@?6m_lpDialogTemplate?5?$DN?5?$AA@ 5f4b910c   dlgcore.obj
 0002:00007124       ??_C@_0BG@BCJN@?6m_hDialogTemplate?5?$DN?5?$AA@ 5f4b9124   dlgcore.obj
 0002:0000713c       ??_C@_0BG@FAML@m_lpszTemplateName?5?$DN?5?$AA@ 5f4b913c   dlgcore.obj
 0002:00007154       ??_C@_1HE@HEMG@?$AAE?$AAR?$AAR?$AAO?$AAR?$AA?3?$AA?5?$AAD?$AAi?$AAa?$AAl?$AAo?$AAg?$AA?5?$AAw?$AAi?$AAt?$AAh?$AA?5?$AAI@ 5f4b9154   dlgcore.obj
 0002:000071c8       ??_C@_1GK@PAKD@?$AAE?$AAR?$AAR?$AAO?$AAR?$AA?3?$AA?5?$AAD?$AAi?$AAa?$AAl?$AAo?$AAg?$AA?5?$AAn?$AAa?$AAm?$AAe?$AAd?$AA?5@ 5f4b91c8   dlgcore.obj
 0002:00007234       ??_C@_1GE@IKGH@?$AAE?$AAR?$AAR?$AAO?$AAR?$AA?3?$AA?5?$AAD?$AAi?$AAa?$AAl?$AAo?$AAg?$AA?5?$AAw?$AAi?$AAt?$AAh?$AA?5?$AAI@ 5f4b9234   dlgcore.obj
 0002:00007298       ??_C@_1FK@HEHB@?$AAE?$AAR?$AAR?$AAO?$AAR?$AA?3?$AA?5?$AAD?$AAi?$AAa?$AAl?$AAo?$AAg?$AA?5?$AAn?$AAa?$AAm?$AAe?$AAd?$AA?5@ 5f4b9298   dlgcore.obj
 0002:000072f4       ??_C@_1GG@GKLA@?$AAW?$AAa?$AAr?$AAn?$AAi?$AAn?$AAg?$AA?3?$AA?5?$AAL?$AAo?$AAa?$AAd?$AAR?$AAe?$AAs?$AAo?$AAu?$AAr?$AAc@ 5f4b92f4   dlgcore.obj
 0002:0000735c       ??_C@_1GK@BGD@?$AAE?$AAR?$AAR?$AAO?$AAR?$AA?3?$AA?5?$AAC?$AAa?$AAn?$AAn?$AAo?$AAt?$AA?5?$AAf?$AAi?$AAn?$AAd?$AA?5?$AAd@ 5f4b935c   dlgcore.obj
 0002:000073c8       ??_C@_1GA@GOLA@?$AAE?$AAR?$AAR?$AAO?$AAR?$AA?3?$AA?5?$AAC?$AAa?$AAn?$AAn?$AAo?$AAt?$AA?5?$AAf?$AAi?$AAn?$AAd?$AA?5?$AAd@ 5f4b93c8   dlgcore.obj
 0002:00007428       ??_C@_1GC@NIHI@?$AAE?$AAr?$AAr?$AAo?$AAr?$AA?3?$AA?5?$AAn?$AAo?$AA?5?$AAd?$AAa?$AAt?$AAa?$AA?5?$AAe?$AAx?$AAc?$AAh?$AAa@ 5f4b9428   dlgdata.obj
 0002:0000748c       ??_C@_1HK@MBCF@?$AAE?$AAr?$AAr?$AAo?$AAr?$AA?3?$AA?5?$AAf?$AAa?$AAi?$AAl?$AA?5?$AAv?$AAa?$AAl?$AAi?$AAd?$AAa?$AAt?$AAi@ 5f4b948c   dlgdata.obj
 0002:00007508       ??_C@_1HE@KHBN@?$AAW?$AAa?$AAr?$AAn?$AAi?$AAn?$AAg?$AA?3?$AA?5?$AAC?$AAD?$AAa?$AAt?$AAa?$AAE?$AAx?$AAc?$AAh?$AAa?$AAn@ 5f4b9508   dlgdata.obj
 0002:0000757c       ??_C@_17MFIG@?$AA?$CF?$AAh?$AAd?$AA?$AA?$AA?$AH?$AA?$AA?$AA?$AA?$AA?$AA@ 5f4b957c   dlgdata.obj
 0002:00007584       ??_C@_17CGJG@?$AA?$CF?$AAs?$AAd?$AA?$AA?$AA?$AH?$AA?$AA?$AA?$AA?$AA?$AA@ 5f4b9584   dlgdata.obj
 0002:0000758c       ??_C@_1HA@DPGA@?$AAW?$AAa?$AAr?$AAn?$AAi?$AAn?$AAg?$AA?3?$AA?5?$AAd?$AAi?$AAa?$AAl?$AAo?$AAg?$AA?5?$AAd?$AAa?$AAt?$AAa@ 5f4b958c   dlgdata.obj
 0002:000075fc       ??_C@_1FM@JLBD@?$AAW?$AAa?$AAr?$AAn?$AAi?$AAn?$AAg?$AA?3?$AA?5?$AAs?$AAk?$AAi?$AAp?$AAp?$AAi?$AAn?$AAg?$AA?5?$AAn?$AAo@ 5f4b95fc   dlgdata.obj
 0002:00007658       ??_C@_1EI@FFBM@?$AAW?$AAa?$AAr?$AAn?$AAi?$AAn?$AAg?$AA?3?$AA?5?$AAn?$AAo?$AA?5?$AAl?$AAi?$AAs?$AAt?$AAb?$AAo?$AAx?$AA?5@ 5f4b9658   dlgdata.obj
 0002:000076a0       ??_C@_1EK@OEMJ@?$AAW?$AAa?$AAr?$AAn?$AAi?$AAn?$AAg?$AA?3?$AA?5?$AAn?$AAo?$AA?5?$AAc?$AAo?$AAm?$AAb?$AAo?$AAb?$AAo?$AAx@ 5f4b96a0   dlgdata.obj
 0002:000076ec       ??_C@_1FO@BCAI@?$AAW?$AAa?$AAr?$AAn?$AAi?$AAn?$AAg?$AA?3?$AA?5?$AAi?$AAn?$AAi?$AAt?$AAi?$AAa?$AAl?$AA?5?$AAd?$AAi?$AAa@ 5f4b96ec   dlgdata.obj
 0002:0000774c       ??_C@_19PPNN@?$AA?$CF?$AA?4?$AA?$CK?$AAg?$AA?$AA?$AA?$AA?$AA?$AH?$AA?$AA?$AA?$AA?$AA?$AA@ 5f4b974c   dlgfloat.obj
 0002:00007760       ??_C@_0P@PIP@CPropertySheet?$AA@ 5f4b9760   dlgprop.obj
 0002:00007770       ??_C@_0O@DMH@CPropertyPage?$AA@ 5f4b9770   dlgprop.obj
 0002:00007780       ?messageMap@CPropertyPage@@1UAFX_MSGMAP@@B 5f4b9780   dlgprop.obj
 0002:00007788       ?_messageEntries@CPropertyPage@@0PBUAFX_MSGMAP_ENTRY@@B 5f4b9788   dlgprop.obj
 0002:000077d0       ?messageMap@CPropertySheet@@1UAFX_MSGMAP@@B 5f4b97d0   dlgprop.obj
 0002:000077d8       ?_messageEntries@CPropertySheet@@0PBUAFX_MSGMAP_ENTRY@@B 5f4b97d8   dlgprop.obj
 0002:000078a8       ?classCPropertyPage@CPropertyPage@@2UCRuntimeClass@@B 5f4b98a8   dlgprop.obj
 0002:000078c0       ?classCPropertySheet@CPropertySheet@@2UCRuntimeClass@@B 5f4b98c0   dlgprop.obj
 0002:000078dc       ??_7CPropertyPage@@6B@     5f4b98dc   dlgprop.obj
 0002:000079d4       ??_C@_1FI@LFAF@?$AAU?$AAp?$AAd?$AAa?$AAt?$AAe?$AAD?$AAa?$AAt?$AAa?$AA?5?$AAf?$AAa?$AAi?$AAl?$AAe?$AAd?$AA?5?$AAd?$AAu@ 5f4b99d4   dlgprop.obj
 0002:00007a2c       ??_C@_0BB@OCIA@m_psp?4dwFlags?5?$DN?5?$AA@ 5f4b9a2c   dlgprop.obj
 0002:00007a40       ??_C@_0BA@OFIG@m_strCaption?5?$DN?5?$AA@ 5f4b9a40   dlgprop.obj
 0002:00007a54       ??_7CPropertySheet@@6B@    5f4b9a54   dlgprop.obj
 0002:00007b20       ??_C@_0M@BDB@Modeless?5?$DN?5?$AA@ 5f4b9b20   dlgprop.obj
 0002:00007b2c       ??_C@_0L@PHNA@Stacked?5?$DN?5?$AA@ 5f4b9b2c   dlgprop.obj
 0002:00007b38       ??_C@_0BD@JEML@Number?5of?5Pages?5?$DN?5?$AA@ 5f4b9b38   dlgprop.obj
 0002:00007b50       ?messageMap@CCommonDialog@@1UAFX_MSGMAP@@B 5f4b9b50   dlgcomm.obj
 0002:00007b58       ?_messageEntries@CCommonDialog@@0PBUAFX_MSGMAP_ENTRY@@B 5f4b9b58   dlgcomm.obj
 0002:00007b88       ??_C@_1DG@FJGG@?$AAc?$AAo?$AAm?$AAm?$AAd?$AAl?$AAg?$AA_?$AAL?$AAB?$AAS?$AAe?$AAl?$AAC?$AAh?$AAa?$AAn?$AAg?$AAe?$AAd@ 5f4b9b88   dlgcomm.obj
 0002:00007bc0       ??_C@_1CO@EDLA@?$AAc?$AAo?$AAm?$AAm?$AAd?$AAl?$AAg?$AA_?$AAS?$AAh?$AAa?$AAr?$AAe?$AAV?$AAi?$AAo?$AAl?$AAa?$AAt?$AAi@ 5f4b9bc0   dlgcomm.obj
 0002:00007bf0       ??_C@_1CG@GOBL@?$AAc?$AAo?$AAm?$AAm?$AAd?$AAl?$AAg?$AA_?$AAF?$AAi?$AAl?$AAe?$AAN?$AAa?$AAm?$AAe?$AAO?$AAK?$AA?$AA?$AA?$AA@ 5f4b9bf0   dlgcomm.obj
 0002:00007c18       ??_C@_1CA@HL@?$AAc?$AAo?$AAm?$AAm?$AAd?$AAl?$AAg?$AA_?$AAC?$AAo?$AAl?$AAo?$AAr?$AAO?$AAK?$AA?$AA?$AA?$AH?$AA?$AA?$AA?$AA?$AA?$AA@ 5f4b9c18   dlgcomm.obj
 0002:00007c38       ??_C@_1BK@KCME@?$AAc?$AAo?$AAm?$AAm?$AAd?$AAl?$AAg?$AA_?$AAh?$AAe?$AAl?$AAp?$AA?$AA?$AA?$AA?$AA?$AH?$AA?$AA?$AA?$AA?$AA?$AA?$AA?$AF?$:O@ 5f4b9c38   dlgcomm.obj
 0002:00007c54       ??_C@_1CI@HAOL@?$AAc?$AAo?$AAm?$AAm?$AAd?$AAl?$AAg?$AA_?$AAS?$AAe?$AAt?$AAR?$AAG?$AAB?$AAC?$AAo?$AAl?$AAo?$AAr?$AA?$AA@ 5f4b9c54   dlgcomm.obj
 0002:00007c7c       ??_C@_0M@JEJA@CFileDialog?$AA@ 5f4b9c7c   dlgfile.obj
 0002:00007c88       ?classCFileDialog@CFileDialog@@2UCRuntimeClass@@B 5f4b9c88   dlgfile.obj
 0002:00007ca4       ??_7CFileDialog@@6B@       5f4b9ca4   dlgfile.obj
 0002:00007d98       ??_C@_0DB@BLDH@?6hook?5function?5set?5to?5non?9standa@ 5f4b9d98   dlgfile.obj
 0002:00007dcc       ??_C@_0DB@MAOJ@?6hook?5function?5set?5to?5standard?5M@ 5f4b9dcc   dlgfile.obj
 0002:00007e00       ??_C@_0BM@FJOE@?6m_ofn?4lpstrCustomFilter?5?$DN?5?$AA@ 5f4b9e00   dlgfile.obj
 0002:00007e1c       ??_C@_13DOPK@?$AA?$HM?$AA?$AA?$AA?$AH?$AA?$AA@ 5f4b9e1c   dlgfile.obj
 0002:00007e20       ??_C@_0BG@EAND@?6m_ofn?4lpstrFilter?5?$DN?5?$AA@ 5f4b9e20   dlgfile.obj
 0002:00007e38       ??_C@_0BJ@OLAM@?6m_ofn?4nFileExtension?5?$DN?5?$AA@ 5f4b9e38   dlgfile.obj
 0002:00007e54       ??_C@_0BG@GOAA@?6m_ofn?4nFileOffset?5?$DN?5?$AA@ 5f4b9e54   dlgfile.obj
 0002:00007e6c       ??_C@_0BG@LIO@?6m_ofn?4lpstrDefExt?5?$DN?5?$AA@ 5f4b9e6c   dlgfile.obj
 0002:00007e84       ??_C@_0BA@MNIM@?6m_ofn?4Flags?5?$DN?5?$AA@ 5f4b9e84   dlgfile.obj
 0002:00007e94       ??_C@_0BF@LLBJ@?6m_ofn?4lpstrTitle?5?$DN?5?$AA@ 5f4b9e94   dlgfile.obj
 0002:00007eac       ??_C@_0BI@FHDD@?6m_ofn?4nMaxFileTitle?5?$DN?5?$AA@ 5f4b9eac   dlgfile.obj
 0002:00007ec4       ??_C@_0BJ@IPCF@?6m_ofn?4lpstrFileTitle?5?$DN?5?$AA@ 5f4b9ec4   dlgfile.obj
 0002:00007ee0       ??_C@_0BD@NECP@?6m_ofn?4nMaxFile?5?$DN?5?$AA@ 5f4b9ee0   dlgfile.obj
 0002:00007ef4       ??_C@_0BE@LAEE@?6m_ofn?4lpstrFile?5?$DN?5?$AA@ 5f4b9ef4   dlgfile.obj
 0002:00007f08       ??_C@_0BH@IOFB@?6m_ofn?4nFilterIndex?5?$DN?5?$AA@ 5f4b9f08   dlgfile.obj
 0002:00007f20       ??_C@_0BE@NJGO@?6m_ofn?4hwndOwner?5?$DN?5?$AA@ 5f4b9f20   dlgfile.obj
 0002:00007f34       ??_C@_0BB@BCDD@File?5save?5dialog?$AA@ 5f4b9f34   dlgfile.obj
 0002:00007f48       ??_C@_0BB@MMDF@File?5open?5dialog?$AA@ 5f4b9f48   dlgfile.obj
 0002:00007f5c       ??_C@_0BB@KMEP@CPageSetupDialog?$AA@ 5f4b9f5c   dlgprnt.obj
 0002:00007f70       ??_C@_0N@KDJG@CPrintDialog?$AA@ 5f4b9f70   dlgprnt.obj
 0002:00007f80       ?messageMap@CPrintDialog@@1UAFX_MSGMAP@@B 5f4b9f80   dlgprnt.obj
 0002:00007f88       ?_messageEntries@CPrintDialog@@0PBUAFX_MSGMAP_ENTRY@@B 5f4b9f88   dlgprnt.obj
 0002:00007fb8       ?classCPrintDialog@CPrintDialog@@2UCRuntimeClass@@B 5f4b9fb8   dlgprnt.obj
 0002:00007fd0       ?classCPageSetupDialog@CPageSetupDialog@@2UCRuntimeClass@@B 5f4b9fd0   dlgprnt.obj
 0002:00007fec       ??_7CPageSetupDialog@@6B@  5f4b9fec   dlgprnt.obj
 0002:000080cc       ??_C@_0DH@COIM@?6print?5hook?5function?5set?5to?5non?9@ 5f4ba0cc   dlgprnt.obj
 0002:00008104       ??_C@_0DH@PFFC@?6print?5hook?5function?5set?5to?5stan@ 5f4ba104   dlgprnt.obj
 0002:0000813c       ??_C@_0DH@EDE@?6setup?5hook?5function?5set?5to?5non?9@ 5f4ba13c   dlgprnt.obj
 0002:00008174       ??_C@_0DH@NPOK@?6setup?5hook?5function?5set?5to?5stan@ 5f4ba174   dlgprnt.obj
 0002:000081ac       ??_C@_0BG@PAAH@?6m_psd?4rtMinMargin?5?$DN?5?$AA@ 5f4ba1ac   dlgprnt.obj
 0002:000081c4       ??_C@_0BG@KHLO@?6m_psd?4ptPaperSize?5?$DN?5?$AA@ 5f4ba1c4   dlgprnt.obj
 0002:000081dc       ??_C@_0BA@PEDP@?6m_psd?4Flags?5?$DN?5?$AA@ 5f4ba1dc   dlgprnt.obj
 0002:000081ec       ??_C@_0BD@ICJF@m_psd?4hwndOwner?5?$DN?5?$AA@ 5f4ba1ec   dlgprnt.obj
 0002:00008204       ??_7CPrintDialog@@6B@      5f4ba204   dlgprnt.obj
 0002:000082e0       ??_C@_0BB@IEIJ@?6m_pd?4nCopies?5?$DN?5?$AA@ 5f4ba2e0   dlgprnt.obj
 0002:000082f4       ??_C@_0BC@KGBJ@?6m_pd?4nMaxPage?5?$DN?5?$AA@ 5f4ba2f4   dlgprnt.obj
 0002:00008308       ??_C@_0BC@IGFG@?6m_pd?4nMinPage?5?$DN?5?$AA@ 5f4ba308   dlgprnt.obj
 0002:0000831c       ??_C@_0BB@FKMB@?6m_pd?4nToPage?5?$DN?5?$AA@ 5f4ba31c   dlgprnt.obj
 0002:00008330       ??_C@_0BD@CAGL@?6m_pd?4nFromPage?5?$DN?5?$AA@ 5f4ba330   dlgprnt.obj
 0002:00008344       ??_C@_0P@GOAF@?6m_pd?4Flags?5?$DN?5?$AA@ 5f4ba344   dlgprnt.obj
 0002:00008354       ??_C@_0N@IKKN@?6m_pd?4hDC?5?$DN?5?$AA@ 5f4ba354   dlgprnt.obj
 0002:00008364       ??_C@_0BC@BGBH@m_pd?4hwndOwner?5?$DN?5?$AA@ 5f4ba364   dlgprnt.obj
 0002:00008378       ??_C@_0N@GCDM@CColorDialog?$AA@ 5f4ba378   dlgclr.obj
 0002:00008388       ?messageMap@CColorDialog@@1UAFX_MSGMAP@@B 5f4ba388   dlgclr.obj
 0002:00008390       ?_messageEntries@CColorDialog@@0PBUAFX_MSGMAP_ENTRY@@B 5f4ba390   dlgclr.obj
 0002:000083c0       ?classCColorDialog@CColorDialog@@2UCRuntimeClass@@B 5f4ba3c0   dlgclr.obj
 0002:000083dc       ??_7_AFX_COLOR_STATE@@6B@  5f4ba3dc   dlgclr.obj
 0002:000083e4       ??_7CColorDialog@@6B@      5f4ba3e4   dlgclr.obj
 0002:000084c0       ??_C@_0BE@OCAE@?6m_cc?4lpCustColors?5?$AA@ 5f4ba4c0   dlgclr.obj
 0002:000084d4       ??_C@_0P@FGCG@?6m_cc?4Flags?5?$DN?5?$AA@ 5f4ba4d4   dlgclr.obj
 0002:000084e4       ??_C@_0BD@KEFJ@?6m_cc?4rgbResult?5?$DN?5?$AA@ 5f4ba4e4   dlgclr.obj
 0002:000084f8       ??_C@_0BC@BKEE@m_cc?4hwndOwner?5?$DN?5?$AA@ 5f4ba4f8   dlgclr.obj
 0002:0000850c       ??_C@_0M@EOLC@CFontDialog?$AA@ 5f4ba50c   dlgfnt.obj
 0002:00008518       ?classCFontDialog@CFontDialog@@2UCRuntimeClass@@B 5f4ba518   dlgfnt.obj
 0002:00008534       ??_7CFontDialog@@6B@       5f4ba534   dlgfnt.obj
 0002:0000860c       ??_C@_1BA@FHJ@?$AAD?$AAI?$AAS?$AAP?$AAL?$AAA?$AAY?$AA?$AA?$AA?$AH?$AA?$AA?$AA?$AA?$AA?$AA?$AP?$;I?$AF?$:O?$AA?$BA?$AA?$AB@ 5f4ba60c   dlgfnt.obj
 0002:0000861c       ??_C@_0BD@DOM@?6m_cf?4rgbColors?5?$DN?5?$AA@ 5f4ba61c   dlgfnt.obj
 0002:00008630       ??_C@_0BD@FJNA@?6m_cf?4nFontType?5?$DN?5?$AA@ 5f4ba630   dlgfnt.obj
 0002:00008644       ??_C@_0BC@COFM@?6m_cf?4nSizeMax?5?$DN?5?$AA@ 5f4ba644   dlgfnt.obj
 0002:00008658       ??_C@_0BC@KFLL@?6m_cf?4nSizeMin?5?$DN?5?$AA@ 5f4ba658   dlgfnt.obj
 0002:0000866c       ??_C@_0BD@DIPJ@?6m_cf?4lpszStyle?5?$DN?5?$AA@ 5f4ba66c   dlgfnt.obj
 0002:00008680       ??_C@_0P@OGON@?6m_cf?4Flags?5?$DN?5?$AA@ 5f4ba680   dlgfnt.obj
 0002:00008690       ??_C@_0BE@DCEE@?6m_cf?4iPointSize?5?$DN?5?$AA@ 5f4ba690   dlgfnt.obj
 0002:000086a4       ??_C@_0N@HIKK@?6m_cf?4hDC?5?$DN?5?$AA@ 5f4ba6a4   dlgfnt.obj
 0002:000086b4       ??_C@_0BC@DLFA@m_cf?4hwndOwner?5?$DN?5?$AA@ 5f4ba6b4   dlgfnt.obj
 0002:000086c8       ??_C@_0BD@HPIP@CFindReplaceDialog?$AA@ 5f4ba6c8   dlgfr.obj
 0002:000086e0       ?classCFindReplaceDialog@CFindReplaceDialog@@2UCRuntimeClass@@B 5f4ba6e0   dlgfr.obj
 0002:000086fc       ??_7CFindReplaceDialog@@6B@ 5f4ba6fc   dlgfr.obj
 0002:000087d4       ??_C@_0BK@NHOK@?6m_fr?4lpstrReplaceWith?5?$DN?5?$AA@ 5f4ba7d4   dlgfr.obj
 0002:000087f0       ??_C@_0BH@KCOO@?6m_fr?4lpstrFindWhat?5?$DN?5?$AA@ 5f4ba7f0   dlgfr.obj
 0002:00008808       ??_C@_0P@GFHA@?6m_fr?4Flags?5?$DN?5?$AA@ 5f4ba808   dlgfr.obj
 0002:00008818       ??_C@_0BC@HHCC@m_fr?4hwndOwner?5?$DN?5?$AA@ 5f4ba818   dlgfr.obj
 0002:0000882c       ??_C@_0BD@HMIC@InitCommonControls?$AA@ 5f4ba82c   ccdata.obj
 0002:00008840       ??_C@_0N@BMKC@COMCTL32?4DLL?$AA@ 5f4ba840   ccdata.obj
 0002:00008850       ??_C@_0N@NPEK@LBItemFromPt?$AA@ 5f4ba850   ccdata.obj
 0002:00008860       ??_C@_0BD@JBAG@CreateMappedBitmap?$AA@ 5f4ba860   ccdata.obj
 0002:00008874       ??_C@_0N@NJOO@MakeDragList?$AA@ 5f4ba874   ccdata.obj
 0002:00008884       ??_C@_0BK@HIIL@ImageList_SetOverlayImage?$AA@ 5f4ba884   ccdata.obj
 0002:000088a0       ??_C@_0BF@DKAH@ImageList_GetBkColor?$AA@ 5f4ba8a0   ccdata.obj
 0002:000088b8       ??_C@_0BF@PJCK@ImageList_SetBkColor?$AA@ 5f4ba8b8   ccdata.obj
 0002:000088d0       ??_C@_0BH@ECKE@ImageList_GetImageInfo?$AA@ 5f4ba8d0   ccdata.obj
 0002:000088e8       ??_C@_0P@BCGA@ImageList_Draw?$AA@ 5f4ba8e8   ccdata.obj
 0002:000088f8       ??_C@_0BC@LDNB@ImageList_GetIcon?$AA@ 5f4ba8f8   ccdata.obj
 0002:0000890c       ??_C@_0BG@NBFF@ImageList_ReplaceIcon?$AA@ 5f4ba90c   ccdata.obj
 0002:00008924       ??_C@_0BC@LEFH@ImageList_Replace?$AA@ 5f4ba924   ccdata.obj
 0002:00008938       ??_C@_0BB@HBAF@ImageList_Remove?$AA@ 5f4ba938   ccdata.obj
 0002:0000894c       ??_C@_0BE@OOKB@ImageList_AddMasked?$AA@ 5f4ba94c   ccdata.obj
 0002:00008960       ??_C@_0BC@CKDM@ImageList_EndDrag?$AA@ 5f4ba960   ccdata.obj
 0002:00008974       ??_C@_0BE@FDLK@ImageList_BeginDrag?$AA@ 5f4ba974   ccdata.obj
 0002:00008988       ??_C@_0BA@JLIJ@ImageList_Write?$AA@ 5f4ba988   ccdata.obj
 0002:00008998       ??_C@_0P@FBGP@ImageList_Read?$AA@ 5f4ba998   ccdata.obj
 0002:000089a8       ??_C@_0BA@GBJB@ImageList_Merge?$AA@ 5f4ba9a8   ccdata.obj
 0002:000089b8       ??_C@_0BB@KHAP@ImageList_Create?$AA@ 5f4ba9b8   ccdata.obj
 0002:000089cc       ??_C@_0BC@EKJF@ImageList_Destroy?$AA@ 5f4ba9cc   ccdata.obj
 0002:000089e0       ??_C@_0BD@ECCH@ImageList_DragMove?$AA@ 5f4ba9e0   ccdata.obj
 0002:000089f4       ??_C@_0BN@JAFN@ImageList_SetDragCursorImage?$AA@ 5f4ba9f4   ccdata.obj
 0002:00008a14       ??_C@_0BJ@CPNM@ImageList_DragShowNolock?$AA@ 5f4baa14   ccdata.obj
 0002:00008a30       ??_C@_0BH@CDCO@ImageList_GetDragImage?$AA@ 5f4baa30   ccdata.obj
 0002:00008a48       ??_C@_0BE@KDGJ@ImageList_DragEnter?$AA@ 5f4baa48   ccdata.obj
 0002:00008a5c       ??_C@_0BE@NBOF@ImageList_DragLeave?$AA@ 5f4baa5c   ccdata.obj
 0002:00008a70       ??_C@_0BI@EJIH@ImageList_GetImageCount?$AA@ 5f4baa70   ccdata.obj
 0002:00008a88       ??_C@_0O@NCKC@ImageList_Add?$AA@ 5f4baa88   ccdata.obj
 0002:00008a98       ??_C@_0BF@JOPF@ImageList_LoadImageW?$AA@ 5f4baa98   ccdata.obj
 0002:00008ab0       ??_C@_0BJ@CKGJ@DestroyPropertySheetPage?$AA@ 5f4baab0   ccdata.obj
 0002:00008acc       ??_C@_0P@IOKO@PropertySheetW?$AA@ 5f4baacc   ccdata.obj
 0002:00008adc       ??_C@_0BJ@ECLO@CreatePropertySheetPageW?$AA@ 5f4baadc   ccdata.obj
 0002:00008af8       ??_C@_0P@OHAE@SHGetFileInfoW?$AA@ 5f4baaf8   ccdata.obj
 0002:00008b08       ??_C@_0M@HIGF@SHELL32?4DLL?$AA@ 5f4bab08   ccdata.obj
 0002:00008b14       ??_C@_0N@LIPP@ExtractIconW?$AA@ 5f4bab14   ccdata.obj
 0002:00008b24       ??_C@_0P@HLKP@DragQueryFileW?$AA@ 5f4bab24   ccdata.obj
 0002:00008b34       ??_C@_0BA@MJEE@DragAcceptFiles?$AA@ 5f4bab34   ccdata.obj
 0002:00008b44       ??_C@_0L@HGIM@DragFinish?$AA@ 5f4bab44   ccdata.obj
 0002:00008b50       ??_C@_0N@PBAE@ChooseColorW?$AA@ 5f4bab50   ccdata.obj
 0002:00008b60       ??_C@_0N@JHNE@COMDLG32?4DLL?$AA@ 5f4bab60   ccdata.obj
 0002:00008b70       ??_C@_0BF@GCFH@CommDlgExtendedError?$AA@ 5f4bab70   ccdata.obj
 0002:00008b88       ??_C@_0N@BKI@ReplaceTextW?$AA@ 5f4bab88   ccdata.obj
 0002:00008b98       ??_C@_0BB@DILN@GetSaveFileNameW?$AA@ 5f4bab98   ccdata.obj
 0002:00008bac       ??_C@_0O@NEFK@GetFileTitleW?$AA@ 5f4babac   ccdata.obj
 0002:00008bbc       ??_C@_09JNPG@PrintDlgW?$AA@ 5f4babbc   ccdata.obj
 0002:00008bc8       ??_C@_0M@GDLP@ChooseFontW?$AA@ 5f4babc8   ccdata.obj
 0002:00008bd4       ??_C@_09NDFP@FindTextW?$AA@ 5f4babd4   ccdata.obj
 0002:00008be0       ??_C@_0O@FJEH@PageSetupDlgW?$AA@ 5f4babe0   ccdata.obj
 0002:00008bf0       ??_C@_0BB@CKMB@GetOpenFileNameW?$AA@ 5f4babf0   ccdata.obj
 0002:00008c04       ??_C@_0BE@MAGG@DocumentPropertiesW?$AA@ 5f4bac04   ccdata.obj
 0002:00008c18       ??_C@_0N@FOHE@WINSPOOL?4DRV?$AA@ 5f4bac18   ccdata.obj
 0002:00008c28       ??_C@_0N@FCPM@OpenPrinterW?$AA@ 5f4bac28   ccdata.obj
 0002:00008c38       ??_C@_0N@BGBF@ClosePrinter?$AA@ 5f4bac38   ccdata.obj
 0002:00008c48       ??_C@_0BA@MBNE@RegCreateKeyExW?$AA@ 5f4bac48   ccdata.obj
 0002:00008c58       ??_C@_0N@IOAA@ADVAPI32?4DLL?$AA@ 5f4bac58   ccdata.obj
 0002:00008c68       ??_C@_0M@DPKG@RegEnumKeyW?$AA@ 5f4bac68   ccdata.obj
 0002:00008c74       ??_C@_0O@BINF@RegDeleteKeyW?$AA@ 5f4bac74   ccdata.obj
 0002:00008c84       ??_C@_0BA@KECN@RegDeleteValueW?$AA@ 5f4bac84   ccdata.obj
 0002:00008c94       ??_C@_0O@FNPN@RegOpenKeyExW?$AA@ 5f4bac94   ccdata.obj
 0002:00008ca4       ??_C@_0M@NANN@RegCloseKey?$AA@ 5f4baca4   ccdata.obj
 0002:00008cb0       ??_C@_0N@ONGE@RegSetValueW?$AA@ 5f4bacb0   ccdata.obj
 0002:00008cc0       ??_C@_0O@GPOM@RegCreateKeyW?$AA@ 5f4bacc0   ccdata.obj
 0002:00008cd0       ??_C@_0P@MPKE@RegSetValueExW?$AA@ 5f4bacd0   ccdata.obj
 0002:00008ce0       ??_C@_0P@KNMN@RegQueryValueW?$AA@ 5f4bace0   ccdata.obj
 0002:00008cf0       ??_C@_0M@COGI@RegOpenKeyW?$AA@ 5f4bacf0   ccdata.obj
 0002:00008cfc       ??_C@_0BB@INHM@RegQueryValueExW?$AA@ 5f4bacfc   ccdata.obj
 0002:00008d10       ??_C@_0BB@EFHN@SetFileSecurityW?$AA@ 5f4bad10   ccdata.obj
 0002:00008d24       ??_C@_0BB@NOFN@GetFileSecurityW?$AA@ 5f4bad24   ccdata.obj
 0002:00008d38       ??_C@_0L@CKOP@ccdata?4cpp?$AA@ 5f4bad38   ccdata.obj
 0002:00008d4c       ??_7_AFX_PROPPAGEFONTINFO@@6B@ 5f4bad4c   ccdata.obj
 0002:00008d54       ??_7_AFX_EXTDLL_STATE@@6B@ 5f4bad54   ccdata.obj
 0002:00008d58       ??_C@_1O@KHFL@?$AAS?$AAy?$AAs?$AAt?$AAe?$AAm?$AA?$AA?$AA?$AA?$AA?$AH?$AA?$AA?$AA?$AA?$AA?$AA?$AD?$AF?$:O@ 5f4bad58   dlgtempl.obj
 0002:00008d68       ??_C@_1GK@FNIL@?$AAA?$AAB?$AAC?$AAD?$AAE?$AAF?$AAG?$AAH?$AAI?$AAJ?$AAK?$AAL?$AAM?$AAN?$AAO?$AAP?$AAQ?$AAR?$AAS?$AAT@ 5f4bad68   dlgtempl.obj
 0002:00008dd4       ??_C@_04HJNG@CRgn?$AA@     5f4badd4   wingdi.obj
 0002:00008ddc       ??_C@_08CIF@CPalette?$AA@  5f4baddc   wingdi.obj
 0002:00008de8       ??_C@_07HNEL@CBitmap?$AA@  5f4bade8   wingdi.obj
 0002:00008df0       ??_C@_05MCKJ@CFont?$AA@    5f4badf0   wingdi.obj
 0002:00008df8       ??_C@_06PNF@CBrush?$AA@    5f4badf8   wingdi.obj
 0002:00008e00       ??_C@_04PAKO@CPen?$AA@     5f4bae00   wingdi.obj
 0002:00008e08       ??_C@_0L@CNBG@CGdiObject?$AA@ 5f4bae08   wingdi.obj
 0002:00008e14       ??_C@_08HFDK@CPaintDC?$AA@ 5f4bae14   wingdi.obj
 0002:00008e20       ??_C@_09NFPO@CWindowDC?$AA@ 5f4bae20   wingdi.obj
 0002:00008e2c       ??_C@_09HIEC@CClientDC?$AA@ 5f4bae2c   wingdi.obj
 0002:00008e38       ??_C@_03NJOH@CDC?$AA@      5f4bae38   wingdi.obj
 0002:00008e3c       ??_C@_0P@BHHD@CUserException?$AA@ 5f4bae3c   wingdi.obj
 0002:00008e4c       ??_C@_0BD@GMHI@CResourceException?$AA@ 5f4bae4c   wingdi.obj
 0002:00008e60       ?classCResourceException@CResourceException@@2UCRuntimeClass@@B 5f4bae60   wingdi.obj
 0002:00008e78       ?classCUserException@CUserException@@2UCRuntimeClass@@B 5f4bae78   wingdi.obj
 0002:00008e90       ?classCDC@CDC@@2UCRuntimeClass@@B 5f4bae90   wingdi.obj
 0002:00008ea8       ?classCClientDC@CClientDC@@2UCRuntimeClass@@B 5f4baea8   wingdi.obj
 0002:00008ec0       ?classCWindowDC@CWindowDC@@2UCRuntimeClass@@B 5f4baec0   wingdi.obj
 0002:00008ed8       ?classCPaintDC@CPaintDC@@2UCRuntimeClass@@B 5f4baed8   wingdi.obj
 0002:00008ef0       ?classCGdiObject@CGdiObject@@2UCRuntimeClass@@B 5f4baef0   wingdi.obj
 0002:00008f08       ?classCPen@CPen@@2UCRuntimeClass@@B 5f4baf08   wingdi.obj
 0002:00008f20       ?classCBrush@CBrush@@2UCRuntimeClass@@B 5f4baf20   wingdi.obj
 0002:00008f38       ?classCFont@CFont@@2UCRuntimeClass@@B 5f4baf38   wingdi.obj
 0002:00008f50       ?classCBitmap@CBitmap@@2UCRuntimeClass@@B 5f4baf50   wingdi.obj
 0002:00008f68       ?classCPalette@CPalette@@2UCRuntimeClass@@B 5f4baf68   wingdi.obj
 0002:00008f80       ?classCRgn@CRgn@@2UCRuntimeClass@@B 5f4baf80   wingdi.obj
 0002:00008f98       ??_C@_03LADP@?5x?5?$AA@    5f4baf98   wingdi.obj
 0002:00008f9c       ??_C@_01GFI@?$CI?$AA@      5f4baf9c   wingdi.obj
 0002:00008fa0       ??_C@_02GIEM@?0?5?$AA@     5f4bafa0   wingdi.obj
 0002:00008fa4       ??_C@_04ICFP@?0?5B?5?$AA@  5f4bafa4   wingdi.obj
 0002:00008fac       ??_C@_04OIPG@?0?5R?5?$AA@  5f4bafac   wingdi.obj
 0002:00008fb4       ??_C@_04JPAJ@?0?5T?5?$AA@  5f4bafb4   wingdi.obj
 0002:00008fbc       ??_C@_03MFNL@?$CIL?5?$AA@  5f4bafbc   wingdi.obj
 0002:00008fc4       ??_7CDC@@6B@               5f4bafc4   wingdi.obj
 0002:00009040       ??_C@_0BA@ILEG@?6m_bPrinting?5?$DN?5?$AA@ 5f4bb040   wingdi.obj
 0002:00009050       ??_C@_0BA@CDKA@?6m_hAttribDC?5?$DN?5?$AA@ 5f4bb050   wingdi.obj
 0002:00009060       ??_C@_08EDME@m_hDC?5?$DN?5?$AA@ 5f4bb060   wingdi.obj
 0002:0000906c       ??_C@_1FA@OKCP@?$AAC?$AAa?$AAn?$AAn?$AAo?$AAt?$AA?5?$AAS?$AAe?$AAt?$AA?5?$AAO?$AAu?$AAt?$AAp?$AAu?$AAt?$AA?5?$AAh?$AAD@ 5f4bb06c   wingdi.obj
 0002:000090bc       ??_C@_1FI@NHOF@?$AAC?$AAa?$AAn?$AAn?$AAo?$AAt?$AA?5?$AAR?$AAe?$AAl?$AAe?$AAa?$AAs?$AAe?$AA?5?$AAO?$AAu?$AAt?$AAp?$AAu@ 5f4bb0bc   wingdi.obj
 0002:00009114       ??_C@_1HO@CIMJ@?$AAE?$AAr?$AAr?$AAo?$AAr?$AA?3?$AA?5?$AAu?$AAn?$AAa?$AAb?$AAl?$AAe?$AA?5?$AAt?$AAo?$AA?5?$AAt?$AAr?$AAa@ 5f4bb114   wingdi.obj
 0002:00009194       ??_C@_09BKNC@m_hWnd?5?$DN?5?$AA@ 5f4bb194   wingdi.obj
 0002:000091a4       ??_7CClientDC@@6B@         5f4bb1a4   wingdi.obj
 0002:00009224       ??_7CWindowDC@@6B@         5f4bb224   wingdi.obj
 0002:000092a0       ??_C@_0BB@ENDM@?6m_ps?4rcPaint?5?$DN?5?$AA@ 5f4bb2a0   wingdi.obj
 0002:000092b4       ??_C@_0BA@EPIF@?6m_ps?4fErase?5?$DN?5?$AA@ 5f4bb2b4   wingdi.obj
 0002:000092c4       ??_C@_0N@FOGF@?6m_ps?4hdc?5?$DN?5?$AA@ 5f4bb2c4   wingdi.obj
 0002:000092dc       ??_7CPaintDC@@6B@          5f4bb2dc   wingdi.obj
 0002:00009358       ??_C@_0N@FLLI@m_hObject?5?$DN?5?$AA@ 5f4bb358   wingdi.obj
 0002:00009368       ??_C@_0BD@OHGG@?6lgpn?4lopnColor?5?$DN?5?$AA@ 5f4bb368   wingdi.obj
 0002:0000937c       ??_C@_0BN@MJJM@?6lgpn?4lopnWidth?4x?5?$CIwidth?$CJ?5?$DN?5?$AA@ 5f4bb37c   wingdi.obj
 0002:0000939c       ??_C@_0BC@NJFN@lgpn?4lopnStyle?5?$DN?5?$AA@ 5f4bb39c   wingdi.obj
 0002:000093b0       ??_C@_0BC@KGMJ@has?5ILLEGAL?5HPEN?$CB?$AA@ 5f4bb3b0   wingdi.obj
 0002:000093c4       ??_C@_0P@GPNM@?6lb?4lbColor?5?$DN?5?$AA@ 5f4bb3c4   wingdi.obj
 0002:000093d4       ??_C@_0P@CGKC@?6lb?4lbHatch?5?$DN?5?$AA@ 5f4bb3d4   wingdi.obj
 0002:000093e4       ??_C@_0O@JHIH@lb?4lbStyle?5?$DN?5?$AA@ 5f4bb3e4   wingdi.obj
 0002:000093f4       ??_C@_0BE@EOKH@has?5ILLEGAL?5HBRUSH?$CB?$AA@ 5f4bb3f4   wingdi.obj
 0002:00009408       ??_C@_0BC@MKGI@?6lf?4lfFaceName?5?$DN?5?$AA@ 5f4bb408   wingdi.obj
 0002:0000941c       ??_C@_0BI@KPDF@?6lf?4lfPitchAndFamily?5?$DN?5?$AA@ 5f4bb41c   wingdi.obj
 0002:00009434       ??_C@_0BB@HDME@?6lf?4lfQuality?5?$DN?5?$AA@ 5f4bb434   wingdi.obj
 0002:00009448       ??_C@_0BH@BHDK@?6lf?4lfClipPrecision?5?$DN?5?$AA@ 5f4bb448   wingdi.obj
 0002:00009460       ??_C@_0BG@LDPK@?6lf?4lfOutPrecision?5?$DN?5?$AA@ 5f4bb460   wingdi.obj
 0002:00009478       ??_C@_0BB@EHPI@?6lf?4lfCharSet?5?$DN?5?$AA@ 5f4bb478   wingdi.obj
 0002:0000948c       ??_C@_0BD@CLIK@?6lf?4lfStrikeOut?5?$DN?5?$AA@ 5f4bb48c   wingdi.obj
 0002:000094a0       ??_C@_0BD@CCIM@?6lf?4lfUnderline?5?$DN?5?$AA@ 5f4bb4a0   wingdi.obj
 0002:000094b4       ??_C@_0BA@PNIN@?6lf?4lfItalic?5?$DN?5?$AA@ 5f4bb4b4   wingdi.obj
 0002:000094c4       ??_C@_0BA@OEMP@?6lf?4lfWeight?5?$DN?5?$AA@ 5f4bb4c4   wingdi.obj
 0002:000094d4       ??_C@_0BF@BCNP@?6lf?4lfOrientation?5?$DN?5?$AA@ 5f4bb4d4   wingdi.obj
 0002:000094ec       ??_C@_0BE@FCLM@?6lf?4lfEscapement?5?$DN?5?$AA@ 5f4bb4ec   wingdi.obj
 0002:00009500       ??_C@_0P@OPHM@?6lf?4lfWidth?5?$DN?5?$AA@ 5f4bb500   wingdi.obj
 0002:00009510       ??_C@_0P@NLG@lf?4lfHeight?5?$DN?5?$AA@ 5f4bb510   wingdi.obj
 0002:00009520       ??_C@_0BD@LADB@has?5ILLEGAL?5HFONT?$CB?$AA@ 5f4bb520   wingdi.obj
 0002:00009534       ??_C@_0BD@FDEM@?6bm?4bmBitsPixel?5?$DN?5?$AA@ 5f4bb534   wingdi.obj
 0002:00009548       ??_C@_0BA@ELPK@?6bm?4bmPlanes?5?$DN?5?$AA@ 5f4bb548   wingdi.obj
 0002:00009558       ??_C@_0BE@PBD@?6bm?4bmWidthBytes?5?$DN?5?$AA@ 5f4bb558   wingdi.obj
 0002:0000956c       ??_C@_0P@FABC@?6bm?4bmWidth?5?$DN?5?$AA@ 5f4bb56c   wingdi.obj
 0002:0000957c       ??_C@_0BA@ODEL@?6bm?4bmHeight?5?$DN?5?$AA@ 5f4bb57c   wingdi.obj
 0002:0000958c       ??_C@_0N@HLBI@bm?4bmType?5?$DN?5?$AA@ 5f4bb58c   wingdi.obj
 0002:0000959c       ??_C@_0BF@LCPF@has?5ILLEGAL?5HBITMAP?$CB?$AA@ 5f4bb59c   wingdi.obj
 0002:000095b4       ??_C@_05BJMA@CMenu?$AA@    5f4bb5b4   winmenu.obj
 0002:000095c0       ?classCMenu@CMenu@@2UCRuntimeClass@@B 5f4bb5c0   winmenu.obj
 0002:000095d8       ??_C@_0L@LJHH@m_hMenu?5?$DN?5?$AA@ 5f4bb5d8   winmenu.obj
 0002:000095e4       ??_C@_1EE@FBNM@?$AAE?$AAr?$AAr?$AAo?$AAr?$AA?3?$AA?5?$AAU?$AAn?$AAa?$AAb?$AAl?$AAe?$AA?5?$AAt?$AAo?$AA?5?$AAl?$AAo?$AAa@ 5f4bb5e4   auxdata.obj
 0002:00009628       ??_C@_0BA@BCKA@WM_DEVICECHANGE?$AA@ 5f4bb628   afxtrace.obj
 0002:00009638       ??_C@_0BC@FLPI@WM_CAPTURECHANGED?$AA@ 5f4bb638   afxtrace.obj
 0002:0000964c       ??_C@_0L@JPGD@WM_SETICON?$AA@ 5f4bb64c   afxtrace.obj
 0002:00009658       ??_C@_0BB@DEEK@WM_DISPLAYCHANGE?$AA@ 5f4bb658   afxtrace.obj
 0002:0000966c       ??_C@_0BB@NJHD@WM_ENTERMENULOOP?$AA@ 5f4bb66c   afxtrace.obj
 0002:00009680       ??_C@_0BA@HLKE@WM_EXITMENULOOP?$AA@ 5f4bb680   afxtrace.obj
 0002:00009690       ??_C@_0L@MMGP@WM_GETICON?$AA@ 5f4bb690   afxtrace.obj
 0002:0000969c       ??_C@_09OEDN@WM_HOTKEY?$AA@ 5f4bb69c   afxtrace.obj
 0002:000096a8       ??_C@_0BC@HECE@WM_POWERBROADCAST?$AA@ 5f4bb6a8   afxtrace.obj
 0002:000096bc       ??_C@_0P@HMNB@WM_PRINTCLIENT?$AA@ 5f4bb6bc   afxtrace.obj
 0002:000096cc       ??_C@_08IKAD@WM_PRINT?$AA@ 5f4bb6cc   afxtrace.obj
 0002:000096d8       ??_C@_0N@GEDB@WM_SETHOTKEY?$AA@ 5f4bb6d8   afxtrace.obj
 0002:000096e8       ??_C@_09LAEB@WM_SIZING?$AA@ 5f4bb6e8   afxtrace.obj
 0002:000096f4       ??_C@_0BB@DICO@WM_STYLECHANGING?$AA@ 5f4bb6f4   afxtrace.obj
 0002:00009708       ??_C@_0BA@OFOA@WM_STYLECHANGED?$AA@ 5f4bb708   afxtrace.obj
 0002:00009718       ??_C@_09EFIF@WM_MOVING?$AA@ 5f4bb718   afxtrace.obj
 0002:00009724       ??_C@_0BC@MNNI@WM_MDIREFRESHMENU?$AA@ 5f4bb724   afxtrace.obj
 0002:00009738       ??_C@_08MGHH@WM_TCARD?$AA@ 5f4bb738   afxtrace.obj
 0002:00009744       ??_C@_0P@HHPE@WM_CONTEXTMENU?$AA@ 5f4bb744   afxtrace.obj
 0002:00009754       ??_C@_09GCP@WM_NOTIFY?$AA@ 5f4bb754   afxtrace.obj
 0002:00009760       ??_C@_07EBDL@WM_HELP?$AA@  5f4bb760   afxtrace.obj
 0002:00009768       ??_C@_0BA@BKIC@WM_EXITHELPMODE?$AA@ 5f4bb768   afxtrace.obj
 0002:00009778       ??_C@_0P@JFOD@WM_HELPHITTEST?$AA@ 5f4bb778   afxtrace.obj
 0002:00009788       ??_C@_0P@LINK@WM_COMMANDHELP?$AA@ 5f4bb788   afxtrace.obj
 0002:00009798       ??_C@_0BB@OBCK@WM_INITIALUPDATE?$AA@ 5f4bb798   afxtrace.obj
 0002:000097ac       ??_C@_0BD@GBKN@WM_IDLEUPDATECMDUI?$AA@ 5f4bb7ac   afxtrace.obj
 0002:000097c0       ??_C@_0BE@BKCA@WM_SETMESSAGESTRING?$AA@ 5f4bb7c0   afxtrace.obj
 0002:000097d4       ??_C@_0O@MIIN@WM_SIZEPARENT?$AA@ 5f4bb7d4   afxtrace.obj
 0002:000097e4       ??_C@_0BF@LNAM@WM_WINDOWPOSCHANGING?$AA@ 5f4bb7e4   afxtrace.obj
 0002:000097fc       ??_C@_0BE@MHJM@WM_WINDOWPOSCHANGED?$AA@ 5f4bb7fc   afxtrace.obj
 0002:00009810       ??_C@_08GJNJ@WM_POWER?$AA@ 5f4bb810   afxtrace.obj
 0002:0000981c       ??_C@_0N@LNHC@WM_DROPFILES?$AA@ 5f4bb81c   afxtrace.obj
 0002:0000982c       ??_C@_0P@OMCP@WM_DDE_EXECUTE?$AA@ 5f4bb82c   afxtrace.obj
 0002:0000983c       ??_C@_0M@JFNO@WM_DDE_POKE?$AA@ 5f4bb83c   afxtrace.obj
 0002:00009848       ??_C@_0P@LDGL@WM_DDE_REQUEST?$AA@ 5f4bb848   afxtrace.obj
 0002:00009858       ??_C@_0M@DNIB@WM_DDE_DATA?$AA@ 5f4bb858   afxtrace.obj
 0002:00009864       ??_C@_0L@EJNE@WM_DDE_ACK?$AA@ 5f4bb864   afxtrace.obj
 0002:00009870       ??_C@_0BA@IDGA@WM_DDE_UNADVISE?$AA@ 5f4bb870   afxtrace.obj
 0002:00009880       ??_C@_0O@ILOI@WM_DDE_ADVISE?$AA@ 5f4bb880   afxtrace.obj
 0002:00009890       ??_C@_0BB@EJPN@WM_DDE_TERMINATE?$AA@ 5f4bb890   afxtrace.obj
 0002:000098a4       ??_C@_0BA@LLPM@WM_DDE_INITIATE?$AA@ 5f4bb8a4   afxtrace.obj
 0002:000098b4       ??_C@_0BC@PIEK@WM_PALETTECHANGED?$AA@ 5f4bb8b4   afxtrace.obj
 0002:000098c8       ??_C@_0BF@EKBE@WM_PALETTEISCHANGING?$AA@ 5f4bb8c8   afxtrace.obj
 0002:000098e0       ??_C@_0BD@DMNM@WM_QUERYNEWPALETTE?$AA@ 5f4bb8e0   afxtrace.obj
 0002:000098f4       ??_C@_0BE@PKKP@WM_HSCROLLCLIPBOARD?$AA@ 5f4bb8f4   afxtrace.obj
 0002:00009908       ??_C@_0BB@LIFP@WM_CHANGECBCHAIN?$AA@ 5f4bb908   afxtrace.obj
 0002:0000991c       ??_C@_0BD@PGGG@WM_ASKCBFORMATNAME?$AA@ 5f4bb91c   afxtrace.obj
 0002:00009930       ??_C@_0BB@JJM@WM_SIZECLIPBOARD?$AA@ 5f4bb930   afxtrace.obj
 0002:00009944       ??_C@_0BE@CMBP@WM_VSCROLLCLIPBOARD?$AA@ 5f4bb944   afxtrace.obj
 0002:00009958       ??_C@_0BC@NHPH@WM_PAINTCLIPBOARD?$AA@ 5f4bb958   afxtrace.obj
 0002:0000996c       ??_C@_0BB@IODC@WM_DRAWCLIPBOARD?$AA@ 5f4bb96c   afxtrace.obj
 0002:00009980       ??_C@_0BE@CMMN@WM_DESTROYCLIPBOARD?$AA@ 5f4bb980   afxtrace.obj
 0002:00009994       ??_C@_0BE@BJAC@WM_RENDERALLFORMATS?$AA@ 5f4bb994   afxtrace.obj
 0002:000099a8       ??_C@_0BA@HABD@WM_RENDERFORMAT?$AA@ 5f4bb9a8   afxtrace.obj
 0002:000099b8       ??_C@_07PFGH@WM_UNDO?$AA@  5f4bb9b8   afxtrace.obj
 0002:000099c0       ??_C@_08DLPI@WM_CLEAR?$AA@ 5f4bb9c0   afxtrace.obj
 0002:000099cc       ??_C@_08FEGJ@WM_PASTE?$AA@ 5f4bb9cc   afxtrace.obj
 0002:000099d8       ??_C@_07ELLN@WM_COPY?$AA@  5f4bb9d8   afxtrace.obj
 0002:000099e0       ??_C@_06HKFO@WM_CUT?$AA@   5f4bb9e0   afxtrace.obj
 0002:000099e8       ??_C@_0O@HDPN@WM_MDISETMENU?$AA@ 5f4bb9e8   afxtrace.obj
 0002:000099f8       ??_C@_0BA@NCGN@WM_MDIGETACTIVE?$AA@ 5f4bb9f8   afxtrace.obj
 0002:00009a08       ??_C@_0BC@KCHC@WM_MDIICONARRANGE?$AA@ 5f4bba08   afxtrace.obj
 0002:00009a1c       ??_C@_0O@CAIK@WM_MDICASCADE?$AA@ 5f4bba1c   afxtrace.obj
 0002:00009a2c       ??_C@_0L@DIEL@WM_MDITILE?$AA@ 5f4bba2c   afxtrace.obj
 0002:00009a38       ??_C@_0P@KOLA@WM_MDIMAXIMIZE?$AA@ 5f4bba38   afxtrace.obj
 0002:00009a48       ??_C@_0L@OGFF@WM_MDINEXT?$AA@ 5f4bba48   afxtrace.obj
 0002:00009a54       ??_C@_0O@HPMO@WM_MDIRESTORE?$AA@ 5f4bba54   afxtrace.obj
 0002:00009a64       ??_C@_0P@CLIN@WM_MDIACTIVATE?$AA@ 5f4bba64   afxtrace.obj
 0002:00009a74       ??_C@_0O@BOBD@WM_MDIDESTROY?$AA@ 5f4bba74   afxtrace.obj
 0002:00009a84       ??_C@_0N@MBAK@WM_MDICREATE?$AA@ 5f4bba84   afxtrace.obj
 0002:00009a94       ??_C@_0BA@PGF@WM_PARENTNOTIFY?$AA@ 5f4bba94   afxtrace.obj
 0002:00009aa4       ??_C@_0BB@MPK@WM_MBUTTONDBLCLK?$AA@ 5f4bbaa4   afxtrace.obj
 0002:00009ab8       ??_C@_0N@NFAA@WM_MBUTTONUP?$AA@ 5f4bbab8   afxtrace.obj
 0002:00009ac8       ??_C@_0P@CEIM@WM_MBUTTONDOWN?$AA@ 5f4bbac8   afxtrace.obj
 0002:00009ad8       ??_C@_0BB@CHEK@WM_RBUTTONDBLCLK?$AA@ 5f4bbad8   afxtrace.obj
 0002:00009aec       ??_C@_0N@KMDL@WM_RBUTTONUP?$AA@ 5f4bbaec   afxtrace.obj
 0002:00009afc       ??_C@_0P@ENKB@WM_RBUTTONDOWN?$AA@ 5f4bbafc   afxtrace.obj
 0002:00009b0c       ??_C@_0BB@FNJH@WM_LBUTTONDBLCLK?$AA@ 5f4bbb0c   afxtrace.obj
 0002:00009b20       ??_C@_0N@BHEI@WM_LBUTTONUP?$AA@ 5f4bbb20   afxtrace.obj
 0002:00009b30       ??_C@_0P@MOAD@WM_LBUTTONDOWN?$AA@ 5f4bbb30   afxtrace.obj
 0002:00009b40       ??_C@_0N@DMAG@WM_MOUSEMOVE?$AA@ 5f4bbb40   afxtrace.obj
 0002:00009b50       ??_C@_0N@MPP@WM_ENTERIDLE?$AA@ 5f4bbb50   afxtrace.obj
 0002:00009b60       ??_C@_0M@LC@WM_MENUCHAR?$AA@ 5f4bbb60   afxtrace.obj
 0002:00009b6c       ??_C@_0O@FNCC@WM_MENUSELECT?$AA@ 5f4bbb6c   afxtrace.obj
 0002:00009b7c       ??_C@_0BB@BMJA@WM_INITMENUPOPUP?$AA@ 5f4bbb7c   afxtrace.obj
 0002:00009b90       ??_C@_0M@JBDP@WM_INITMENU?$AA@ 5f4bbb90   afxtrace.obj
 0002:00009b9c       ??_C@_0L@OILE@WM_VSCROLL?$AA@ 5f4bbb9c   afxtrace.obj
 0002:00009ba8       ??_C@_0L@JCDO@WM_HSCROLL?$AA@ 5f4bbba8   afxtrace.obj
 0002:00009bb4       ??_C@_08CDFC@WM_TIMER?$AA@ 5f4bbbb4   afxtrace.obj
 0002:00009bc0       ??_C@_0O@PINB@WM_SYSCOMMAND?$AA@ 5f4bbbc0   afxtrace.obj
 0002:00009bd0       ??_C@_0L@HFHL@WM_COMMAND?$AA@ 5f4bbbd0   afxtrace.obj
 0002:00009bdc       ??_C@_0O@DCCN@WM_INITDIALOG?$AA@ 5f4bbbdc   afxtrace.obj
 0002:00009bec       ??_C@_0L@BKII@WM_KEYLAST?$AA@ 5f4bbbec   afxtrace.obj
 0002:00009bf8       ??_C@_0P@OCHE@WM_SYSDEADCHAR?$AA@ 5f4bbbf8   afxtrace.obj
 0002:00009c08       ??_C@_0L@MNJP@WM_SYSCHAR?$AA@ 5f4bbc08   afxtrace.obj
 0002:00009c14       ??_C@_0M@GKFH@WM_SYSKEYUP?$AA@ 5f4bbc14   afxtrace.obj
 0002:00009c20       ??_C@_0O@DDDM@WM_SYSKEYDOWN?$AA@ 5f4bbc20   afxtrace.obj
 0002:00009c30       ??_C@_0M@OOPJ@WM_DEADCHAR?$AA@ 5f4bbc30   afxtrace.obj
 0002:00009c3c       ??_C@_07CCNO@WM_CHAR?$AA@  5f4bbc3c   afxtrace.obj
 0002:00009c44       ??_C@_08KJLI@WM_KEYUP?$AA@ 5f4bbc44   afxtrace.obj
 0002:00009c50       ??_C@_0L@LOJG@WM_KEYDOWN?$AA@ 5f4bbc50   afxtrace.obj
 0002:00009c5c       ??_C@_0BD@FIJ@WM_NCMBUTTONDBLCLK?$AA@ 5f4bbc5c   afxtrace.obj
 0002:00009c70       ??_C@_0P@IMMP@WM_NCMBUTTONUP?$AA@ 5f4bbc70   afxtrace.obj
 0002:00009c80       ??_C@_0BB@CPBP@WM_NCMBUTTONDOWN?$AA@ 5f4bbc80   afxtrace.obj
 0002:00009c94       ??_C@_0BD@CODJ@WM_NCRBUTTONDBLCLK?$AA@ 5f4bbc94   afxtrace.obj
 0002:00009ca8       ??_C@_0P@PFPE@WM_NCRBUTTONUP?$AA@ 5f4bbca8   afxtrace.obj
 0002:00009cb8       ??_C@_0BB@EGDC@WM_NCRBUTTONDOWN?$AA@ 5f4bbcb8   afxtrace.obj
 0002:00009ccc       ??_C@_0BD@FEOE@WM_NCLBUTTONDBLCLK?$AA@ 5f4bbccc   afxtrace.obj
 0002:00009ce0       ??_C@_0P@EOIH@WM_NCLBUTTONUP?$AA@ 5f4bbce0   afxtrace.obj
 0002:00009cf0       ??_C@_0BB@MFJA@WM_NCLBUTTONDOWN?$AA@ 5f4bbcf0   afxtrace.obj
 0002:00009d04       ??_C@_0P@GFMJ@WM_NCMOUSEMOVE?$AA@ 5f4bbd04   afxtrace.obj
 0002:00009d14       ??_C@_0O@HBJG@WM_GETDLGCODE?$AA@ 5f4bbd14   afxtrace.obj
 0002:00009d24       ??_C@_0O@OLMF@WM_NCACTIVATE?$AA@ 5f4bbd24   afxtrace.obj
 0002:00009d34       ??_C@_0L@MLEG@WM_NCPAINT?$AA@ 5f4bbd34   afxtrace.obj
 0002:00009d40       ??_C@_0N@ENIL@WM_NCHITTEST?$AA@ 5f4bbd40   afxtrace.obj
 0002:00009d50       ??_C@_0O@HCNE@WM_NCCALCSIZE?$AA@ 5f4bbd50   afxtrace.obj
 0002:00009d60       ??_C@_0N@FGCE@WM_NCDESTROY?$AA@ 5f4bbd60   afxtrace.obj
 0002:00009d70       ??_C@_0M@PGBE@WM_NCCREATE?$AA@ 5f4bbd70   afxtrace.obj
 0002:00009d7c       ??_C@_0O@GAIC@WM_COMPACTING?$AA@ 5f4bbd7c   afxtrace.obj
 0002:00009d8c       ??_C@_0P@BKKG@WM_COMPAREITEM?$AA@ 5f4bbd8c   afxtrace.obj
 0002:00009d9c       ??_C@_0BB@IMIB@WM_QUERYDRAGICON?$AA@ 5f4bbd9c   afxtrace.obj
 0002:00009db0       ??_C@_0L@HKOC@WM_GETFONT?$AA@ 5f4bbdb0   afxtrace.obj
 0002:00009dbc       ??_C@_0L@CJOO@WM_SETFONT?$AA@ 5f4bbdbc   afxtrace.obj
 0002:00009dc8       ??_C@_0O@OAAH@WM_CHARTOITEM?$AA@ 5f4bbdc8   afxtrace.obj
 0002:00009dd8       ??_C@_0O@MNJJ@WM_VKEYTOITEM?$AA@ 5f4bbdd8   afxtrace.obj
 0002:00009de8       ??_C@_0O@NOFD@WM_DELETEITEM?$AA@ 5f4bbde8   afxtrace.obj
 0002:00009df8       ??_C@_0P@MAHA@WM_MEASUREITEM?$AA@ 5f4bbdf8   afxtrace.obj
 0002:00009e08       ??_C@_0M@EHEH@WM_DRAWITEM?$AA@ 5f4bbe08   afxtrace.obj
 0002:00009e14       ??_C@_0BB@MJAK@WM_SPOOLERSTATUS?$AA@ 5f4bbe14   afxtrace.obj
 0002:00009e28       ??_C@_0O@JNLH@WM_NEXTDLGCTL?$AA@ 5f4bbe28   afxtrace.obj
 0002:00009e38       ??_C@_0BC@KHMF@WM_ICONERASEBKGND?$AA@ 5f4bbe38   afxtrace.obj
 0002:00009e4c       ??_C@_0BB@INDA@WM_GETMINMAXINFO?$AA@ 5f4bbe4c   afxtrace.obj
 0002:00009e60       ??_C@_0N@IJHA@WM_QUEUESYNC?$AA@ 5f4bbe60   afxtrace.obj
 0002:00009e70       ??_C@_0BB@GLME@WM_CHILDACTIVATE?$AA@ 5f4bbe70   afxtrace.obj
 0002:00009e84       ??_C@_0BB@LPNO@WM_MOUSEACTIVATE?$AA@ 5f4bbe84   afxtrace.obj
 0002:00009e98       ??_C@_0N@GJNG@WM_SETCURSOR?$AA@ 5f4bbe98   afxtrace.obj
 0002:00009ea8       ??_C@_0O@PBAP@WM_CANCELMODE?$AA@ 5f4bbea8   afxtrace.obj
 0002:00009eb8       ??_C@_0O@KEEP@WM_TIMECHANGE?$AA@ 5f4bbeb8   afxtrace.obj
 0002:00009ec8       ??_C@_0O@NFOD@WM_FONTCHANGE?$AA@ 5f4bbec8   afxtrace.obj
 0002:00009ed8       ??_C@_0P@MIOO@WM_ACTIVATEAPP?$AA@ 5f4bbed8   afxtrace.obj
 0002:00009ee8       ??_C@_0BB@JHBE@WM_DEVMODECHANGE?$AA@ 5f4bbee8   afxtrace.obj
 0002:00009efc       ??_C@_0BA@OBFL@WM_WININICHANGE?$AA@ 5f4bbefc   afxtrace.obj
 0002:00009f0c       ??_C@_0BC@IELM@WM_CTLCOLORSTATIC?$AA@ 5f4bbf0c   afxtrace.obj
 0002:00009f20       ??_C@_0BF@CNIA@WM_CTLCOLORSCROLLBAR?$AA@ 5f4bbf20   afxtrace.obj
 0002:00009f38       ??_C@_0P@FLDC@WM_CTLCOLORDLG?$AA@ 5f4bbf38   afxtrace.obj
 0002:00009f48       ??_C@_0P@JGJH@WM_CTLCOLORBTN?$AA@ 5f4bbf48   afxtrace.obj
 0002:00009f58       ??_C@_0BD@CBNP@WM_CTLCOLORLISTBOX?$AA@ 5f4bbf58   afxtrace.obj
 0002:00009f6c       ??_C@_0BA@LJPL@WM_CTLCOLOREDIT?$AA@ 5f4bbf6c   afxtrace.obj
 0002:00009f7c       ??_C@_0BC@JPK@WM_CTLCOLORMSGBOX?$AA@ 5f4bbf7c   afxtrace.obj
 0002:00009f90       ??_C@_0O@OMHP@WM_SHOWWINDOW?$AA@ 5f4bbf90   afxtrace.obj
 0002:00009fa0       ??_C@_0O@LOEN@WM_ENDSESSION?$AA@ 5f4bbfa0   afxtrace.obj
 0002:00009fb0       ??_C@_0BC@FPLF@WM_SYSCOLORCHANGE?$AA@ 5f4bbfb0   afxtrace.obj
 0002:00009fc4       ??_C@_0O@FPAF@WM_ERASEBKGND?$AA@ 5f4bbfc4   afxtrace.obj
 0002:00009fd4       ??_C@_0N@BAHI@WM_QUERYOPEN?$AA@ 5f4bbfd4   afxtrace.obj
 0002:00009fe4       ??_C@_07NMOO@WM_QUIT?$AA@  5f4bbfe4   afxtrace.obj
 0002:00009fec       ??_C@_0BD@PEGN@WM_QUERYENDSESSION?$AA@ 5f4bbfec   afxtrace.obj
 0002:0000a000       ??_C@_08LEAJ@WM_CLOSE?$AA@ 5f4bc000   afxtrace.obj
 0002:0000a00c       ??_C@_08LANE@WM_PAINT?$AA@ 5f4bc00c   afxtrace.obj
 0002:0000a018       ??_C@_0BB@HNCD@WM_GETTEXTLENGTH?$AA@ 5f4bc018   afxtrace.obj
 0002:0000a02c       ??_C@_0L@EMKJ@WM_GETTEXT?$AA@ 5f4bc02c   afxtrace.obj
 0002:0000a038       ??_C@_0L@BPKF@WM_SETTEXT?$AA@ 5f4bc038   afxtrace.obj
 0002:0000a044       ??_C@_0N@LOJK@WM_SETREDRAW?$AA@ 5f4bc044   afxtrace.obj
 0002:0000a054       ??_C@_09PJML@WM_ENABLE?$AA@ 5f4bc054   afxtrace.obj
 0002:0000a060       ??_C@_0N@LCIJ@WM_KILLFOCUS?$AA@ 5f4bc060   afxtrace.obj
 0002:0000a070       ??_C@_0M@OHD@WM_SETFOCUS?$AA@ 5f4bc070   afxtrace.obj
 0002:0000a07c       ??_C@_0M@CEAM@WM_ACTIVATE?$AA@ 5f4bc07c   afxtrace.obj
 0002:0000a088       ??_C@_07DNHO@WM_SIZE?$AA@  5f4bc088   afxtrace.obj
 0002:0000a090       ??_C@_07JOKK@WM_MOVE?$AA@  5f4bc090   afxtrace.obj
 0002:0000a098       ??_C@_0L@JPGJ@WM_DESTROY?$AA@ 5f4bc098   afxtrace.obj
 0002:0000a0a4       ??_C@_09LLGP@WM_CREATE?$AA@ 5f4bc0a4   afxtrace.obj
 0002:0000a640       ??_C@_1GC@IALP@?$AA?$CF?$AAs?$AA?3?$AA?5?$AAh?$AAw?$AAn?$AAd?$AA?$DN?$AA0?$AAx?$AA?$CF?$AA0?$AA4?$AAX?$AA?0?$AA?5?$AAm?$AAs?$AAg@ 5f4bc640   afxtrace.obj
 0002:0000a6a4       ??_C@_1FM@BOB@?$AA?$CF?$AAs?$AA?3?$AA?5?$AAh?$AAw?$AAn?$AAd?$AA?$DN?$AA0?$AAx?$AA?$CF?$AA0?$AA4?$AAX?$AA?0?$AA?5?$AAm?$AAs?$AAg@ 5f4bc6a4   afxtrace.obj
 0002:0000a700       ??_C@_0P@BIFO@WM_USER?$CL0x?$CF04X?$AA@ 5f4bc700   afxtrace.obj
 0002:0000a710       ??_C@_1HK@JOC@?$AA?$CF?$AAs?$AA?3?$AA?5?$AAA?$AAd?$AAv?$AAi?$AAs?$AAe?$AA?5?$AAi?$AAt?$AAe?$AAm?$AA?$DN?$AA?8?$AA?$CF?$AAs?$AA?8@ 5f4bc710   afxtrace.obj
 0002:0000a78c       ??_C@_1GO@NPAK@?$AAW?$AAa?$AAr?$AAn?$AAi?$AAn?$AAg?$AA?3?$AA?5?$AAU?$AAn?$AAa?$AAb?$AAl?$AAe?$AA?5?$AAt?$AAo?$AA?5?$AAu@ 5f4bc78c   afxtrace.obj
 0002:0000a7fc       ??_C@_1CG@GLAK@?$AA?$CF?$AAs?$AA?3?$AA?5?$AAE?$AAx?$AAe?$AAc?$AAu?$AAt?$AAe?$AA?5?$AA?8?$AA?$CF?$AAs?$AA?8?$AA?4?$AA?6?$AA?$AA?$AA?$AA@ 5f4bc7fc   afxtrace.obj
 0002:0000a824       ??_C@_1HA@JODE@?$AAW?$AAa?$AAr?$AAn?$AAi?$AAn?$AAg?$AA?3?$AA?5?$AAU?$AAn?$AAa?$AAb?$AAl?$AAe?$AA?5?$AAt?$AAo?$AA?5?$AAu@ 5f4bc824   afxtrace.obj
 0002:0000a8ac       ??_C@_1HI@POIA@?$AAE?$AAR?$AAR?$AAO?$AAR?$AA?3?$AA?5?$AAC?$AAr?$AAi?$AAt?$AAi?$AAc?$AAa?$AAl?$AA?5?$AAm?$AAe?$AAm?$AAo@ 5f4bc8ac   winutil.obj
 0002:0000a924       ??_C@_1JM@GINF@?$AAW?$AAa?$AAr?$AAn?$AAi?$AAn?$AAg?$AA?3?$AA?5?$AAS?$AAh?$AAr?$AAi?$AAn?$AAk?$AAi?$AAn?$AAg?$AA?5?$AAs@ 5f4bc924   winutil.obj
 0002:0000a9c0       ??_C@_1GI@DBFF@?$AAW?$AAa?$AAr?$AAn?$AAi?$AAn?$AAg?$AA?3?$AA?5?$AAF?$AAr?$AAe?$AAe?$AAi?$AAn?$AAg?$AA?5?$AAa?$AAp?$AAp@ 5f4bc9c0   winutil.obj
 0002:0000aa28       ??_C@_1FK@FPPA@?$AAW?$AAa?$AAr?$AAn?$AAi?$AAn?$AAg?$AA?3?$AA?5?$AAC?$AAr?$AAi?$AAt?$AAi?$AAc?$AAa?$AAl?$AA?5?$AAm?$AAe@ 5f4bca28   winutil.obj
 0002:0000aa98       ??_C@_0L@MION@CCmdTarget?$AA@ 5f4bca98   cmdtarg.obj
 0002:0000aaa8       ?messageMap@CCmdTarget@@1UAFX_MSGMAP@@B 5f4bcaa8   cmdtarg.obj
 0002:0000aab0       ?_messageEntries@CCmdTarget@@0PBUAFX_MSGMAP_ENTRY@@B 5f4bcab0   cmdtarg.obj
 0002:0000aac8       ?dispatchMap@CCmdTarget@@1UAFX_DISPMAP@@B 5f4bcac8   cmdtarg.obj
 0002:0000aad8       ?_dispatchEntries@CCmdTarget@@0PBUAFX_DISPMAP_ENTRY@@B 5f4bcad8   cmdtarg.obj
 0002:0000aaf8       ?eventsinkMap@CCmdTarget@@1UAFX_EVENTSINKMAP@@B 5f4bcaf8   cmdtarg.obj
 0002:0000ab08       ?_eventsinkEntries@CCmdTarget@@0PBUAFX_EVENTSINKMAP_ENTRY@@B 5f4bcb08   cmdtarg.obj
 0002:0000ab30       ?interfaceMap@CCmdTarget@@1UAFX_INTERFACEMAP@@B 5f4bcb30   cmdtarg.obj
 0002:0000ab48       ?_interfaceEntries@CCmdTarget@@0PBUAFX_INTERFACEMAP_ENTRY@@B 5f4bcb48   cmdtarg.obj
 0002:0000ab58       ?connectionMap@CCmdTarget@@1UAFX_CONNECTIONMAP@@B 5f4bcb58   cmdtarg.obj
 0002:0000ab60       ?_connectionEntries@CCmdTarget@@0PBUAFX_CONNECTIONMAP_ENTRY@@B 5f4bcb60   cmdtarg.obj
 0002:0000ab68       ?commandMap@CCmdTarget@@1UAFX_OLECMDMAP@@B 5f4bcb68   cmdtarg.obj
 0002:0000ab70       ?_commandEntries@CCmdTarget@@0PBUAFX_OLECMDMAP_ENTRY@@B 5f4bcb70   cmdtarg.obj
 0002:0000ab88       ?classCCmdTarget@CCmdTarget@@2UCRuntimeClass@@B 5f4bcb88   cmdtarg.obj
 0002:0000aba4       ??_7CCmdTarget@@6B@        5f4bcba4   cmdtarg.obj
 0002:0000abfc       ??_C@_1IO@HDFI@?$AAS?$AAE?$AAN?$AAD?$AAI?$AAN?$AAG?$AA?5?$AAc?$AAo?$AAn?$AAt?$AAr?$AAo?$AAl?$AA?5?$AAn?$AAo?$AAt?$AAi@ 5f4bcbfc   cmdtarg.obj
 0002:0000ac8c       ??_C@_1FE@HCMG@?$AAS?$AAE?$AAN?$AAD?$AAI?$AAN?$AAG?$AA?5?$AAc?$AAo?$AAm?$AAm?$AAa?$AAn?$AAd?$AA?5?$AAi?$AAd?$AA?5?$AA0@ 5f4bcc8c   cmdtarg.obj
 0002:0000ace4       ??_7CCmdUI@@6B@            5f4bcce4   cmdtarg.obj
 0002:0000acf4       ??_C@_1GC@BFBK@?$AAN?$AAo?$AA?5?$AAh?$AAa?$AAn?$AAd?$AAl?$AAe?$AAr?$AA?5?$AAf?$AAo?$AAr?$AA?5?$AAc?$AAo?$AAm?$AAm?$AAa@ 5f4bccf4   cmdtarg.obj
 0002:0000ad58       ??_C@_1GI@JKGO@?$AAW?$AAa?$AAr?$AAn?$AAi?$AAn?$AAg?$AA?3?$AA?5?$AAu?$AAs?$AAi?$AAn?$AAg?$AA?5?$AAs?$AAy?$AAs?$AAt?$AAe@ 5f4bcd58   cmdtarg.obj
 0002:0000adc0       ??_C@_0BN@LGCD@?6with?5aggregation?5capability?$AA@ 5f4bcdc0   cmdtarg.obj
 0002:0000ade0       ??_C@_0BE@MMK@?6m_pOuterUnknown?5?$DN?5?$AA@ 5f4bcde0   cmdtarg.obj
 0002:0000adf4       ??_C@_0M@JGEE@?6m_dwRef?5?$DN?5?$AA@ 5f4bcdf4   cmdtarg.obj
 0002:0000ae00       ??_C@_0BE@JODL@with?5OLE?5capability?$AA@ 5f4bce00   cmdtarg.obj
 0002:0000ae14       ??_C@_0CG@PJHG@with?5OLE?5Connection?5Point?5capabi@ 5f4bce14   cmdtarg.obj
 0002:0000ae3c       ??_C@_0BF@JADO@m_bResultExpected?5?$DN?5?$AA@ 5f4bce3c   cmdtarg.obj
 0002:0000ae54       ??_C@_0CM@INHM@with?5IDispatch?5?$CIOLE?5Automation?$CJ?5@ 5f4bce54   cmdtarg.obj
 0002:0000ae80       ??_C@_09IIIN@CDocument?$AA@ 5f4bce80   doccore.obj
 0002:0000ae90       ?messageMap@CDocument@@1UAFX_MSGMAP@@B 5f4bce90   doccore.obj
 0002:0000ae98       ?_messageEntries@CDocument@@0PBUAFX_MSGMAP_ENTRY@@B 5f4bce98   doccore.obj
 0002:0000aef8       ?classCDocument@CDocument@@2UCRuntimeClass@@B 5f4bcef8   doccore.obj
 0002:0000af14       ??_7CDocument@@6B@         5f4bcf14   doccore.obj
 0002:0000afcc       ??_C@_1FE@OHLE@?$AAW?$AAa?$AAr?$AAn?$AAi?$AAn?$AAg?$AA?3?$AA?5?$AAd?$AAe?$AAs?$AAt?$AAr?$AAo?$AAy?$AAi?$AAn?$AAg?$AA?5@ 5f4bcfcc   doccore.obj
 0002:0000b020       ??_C@_1DO@DEGD@?$AAW?$AAa?$AAr?$AAn?$AAi?$AAn?$AAg?$AA?3?$AA?5?$AAF?$AAi?$AAl?$AAe?$AA?5?$AAs?$AAa?$AAv?$AAe?$AA?9?$AAa@ 5f4bd020   doccore.obj
 0002:0000b060       ??_C@_1DI@PFCB@?$AAW?$AAa?$AAr?$AAn?$AAi?$AAn?$AAg?$AA?3?$AA?5?$AAF?$AAi?$AAl?$AAe?$AA?5?$AAs?$AAa?$AAv?$AAe?$AA?5?$AAf@ 5f4bd060   doccore.obj
 0002:0000b098       ??_C@_1FE@KIHP@?$AAW?$AAa?$AAr?$AAn?$AAi?$AAn?$AAg?$AA?3?$AA?5?$AAF?$AAi?$AAl?$AAe?$AA?5?$AAs?$AAa?$AAv?$AAe?$AA?5?$AAw@ 5f4bd098   doccore.obj
 0002:0000b0ec       ??_C@_1GK@IGPN@?$AAW?$AAa?$AAr?$AAn?$AAi?$AAn?$AAg?$AA?3?$AA?5?$AAf?$AAa?$AAi?$AAl?$AAe?$AAd?$AA?5?$AAt?$AAo?$AA?5?$AAd@ 5f4bd0ec   doccore.obj
 0002:0000b158       ??_C@_1O@OEBA@?$AA?5?$AA?$CD?$AA?$CF?$AA?$DL?$AA?1?$AA?2?$AA?$AA?$AA?$AA?$AA?$AH?$AA?$AA?$AA?$AA?$AA?$AA?$BG?$DM?$AF?$:O@ 5f4bd158   doccore.obj
 0002:0000b168       ??_C@_1IC@OCAA@?$AAR?$AAe?$AAp?$AAo?$AAr?$AAt?$AAi?$AAn?$AAg?$AA?5?$AAf?$AAi?$AAl?$AAe?$AA?5?$AAI?$AA?1?$AAO?$AA?5?$AAe@ 5f4bd168   doccore.obj
 0002:0000b1ec       ??_C@_17PPBM@?$AAM?$AAF?$AAC?$AA?$AA?$AA?$AH?$AA?$AA?$AA?$AA?$AA?$AA@ 5f4bd1ec   doccore.obj
 0002:0000b1fc       ??_7CMirrorFile@@6B@       5f4bd1fc   doccore.obj
 0002:0000b258       ??_C@_1GM@HBGH@?$AAW?$AAa?$AAr?$AAn?$AAi?$AAn?$AAg?$AA?3?$AA?5?$AAO?$AAn?$AAN?$AAe?$AAw?$AAD?$AAo?$AAc?$AAu?$AAm?$AAe@ 5f4bd258   doccore.obj
 0002:0000b2c4       ??_C@_1GO@PBDE@?$AAW?$AAa?$AAr?$AAn?$AAi?$AAn?$AAg?$AA?3?$AA?5?$AAO?$AAn?$AAO?$AAp?$AAe?$AAn?$AAD?$AAo?$AAc?$AAu?$AAm@ 5f4bd2c4   doccore.obj
 0002:0000b334       ??_C@_0M@PCO@?6with?5view?5?$AA@ 5f4bd334   doccore.obj
 0002:0000b340       ??_C@_0BD@IDHL@?6m_pDocTemplate?5?$DN?5?$AA@ 5f4bd340   doccore.obj
 0002:0000b354       ??_C@_0BA@BOKL@?6m_bModified?5?$DN?5?$AA@ 5f4bd354   doccore.obj
 0002:0000b364       ??_C@_0BC@BBCA@?6m_strPathName?5?$DN?5?$AA@ 5f4bd364   doccore.obj
 0002:0000b378       ??_C@_0O@DGKN@m_strTitle?5?$DN?5?$AA@ 5f4bd378   doccore.obj
 0002:0000b388       ??_C@_0N@BKAE@CDocTemplate?$AA@ 5f4bd388   doctempl.obj
 0002:0000b398       ?classCDocTemplate@CDocTemplate@@2UCRuntimeClass@@B 5f4bd398   doctempl.obj
 0002:0000b3b4       ??_7CDocTemplate@@6B@      5f4bd3b4   doctempl.obj
 0002:0000b448       ??_C@_1HA@MBGK@?$AAW?$AAa?$AAr?$AAn?$AAi?$AAn?$AAg?$AA?3?$AA?5?$AAn?$AAo?$AA?5?$AAd?$AAo?$AAc?$AAu?$AAm?$AAe?$AAn?$AAt@ 5f4bd448   doctempl.obj
 0002:0000b4b8       ??_C@_1GM@IAHF@?$AAW?$AAa?$AAr?$AAn?$AAi?$AAn?$AAg?$AA?3?$AA?5?$AAD?$AAy?$AAn?$AAa?$AAm?$AAi?$AAc?$AA?5?$AAc?$AAr?$AAe@ 5f4bd4b8   doctempl.obj
 0002:0000b524       ??_C@_1HG@PIDB@?$AAE?$AAr?$AAr?$AAo?$AAr?$AA?3?$AA?5?$AAy?$AAo?$AAu?$AA?5?$AAm?$AAu?$AAs?$AAt?$AA?5?$AAo?$AAv?$AAe?$AAr@ 5f4bd524   doctempl.obj
 0002:0000b59c       ??_C@_1GA@OKDH@?$AAW?$AAa?$AAr?$AAn?$AAi?$AAn?$AAg?$AA?3?$AA?5?$AAC?$AAD?$AAo?$AAc?$AAT?$AAe?$AAm?$AAp?$AAl?$AAa?$AAt@ 5f4bd59c   doctempl.obj
 0002:0000b5fc       ??_C@_1FO@PBD@?$AAW?$AAa?$AAr?$AAn?$AAi?$AAn?$AAg?$AA?3?$AA?5?$AAc?$AAr?$AAe?$AAa?$AAt?$AAi?$AAn?$AAg?$AA?5?$AAf?$AAr@ 5f4bd5fc   doctempl.obj
 0002:0000b65c       ??_C@_1FM@IFDE@?$AAW?$AAa?$AAr?$AAn?$AAi?$AAn?$AAg?$AA?3?$AA?5?$AAD?$AAy?$AAn?$AAa?$AAm?$AAi?$AAc?$AA?5?$AAc?$AAr?$AAe@ 5f4bd65c   doctempl.obj
 0002:0000b6b8       ??_C@_1HA@KHGO@?$AAE?$AAr?$AAr?$AAo?$AAr?$AA?3?$AA?5?$AAy?$AAo?$AAu?$AA?5?$AAm?$AAu?$AAs?$AAt?$AA?5?$AAo?$AAv?$AAe?$AAr@ 5f4bd6b8   doctempl.obj
 0002:0000b728       ??_C@_1GK@HABI@?$AAW?$AAa?$AAr?$AAn?$AAi?$AAn?$AAg?$AA?3?$AA?5?$AAC?$AAD?$AAo?$AAc?$AAT?$AAe?$AAm?$AAp?$AAl?$AAa?$AAt@ 5f4bd728   doctempl.obj
 0002:0000b794       ??_C@_1HC@BHOO@?$AAW?$AAa?$AAr?$AAn?$AAi?$AAn?$AAg?$AA?3?$AA?5?$AAp?$AAO?$AAl?$AAe?$AAF?$AAr?$AAa?$AAm?$AAe?$AAC?$AAl@ 5f4bd794   doctempl.obj
 0002:0000b808       ??_C@_0L@IBCP@?6document?5?$AA@ 5f4bd808   doctempl.obj
 0002:0000b814       ??_C@_0BD@MDEG@?6document?5list?5?$DN?5?$HL?$AA@ 5f4bd814   doctempl.obj
 0002:0000b828       ??_C@_0BE@PGDF@?6m_pDocClass?5?$DN?5NULL?$AA@ 5f4bd828   doctempl.obj
 0002:0000b83c       ??_C@_0BA@NHLG@?6m_pDocClass?5?$DN?5?$AA@ 5f4bd83c   doctempl.obj
 0002:0000b84c       ??_C@_0BD@HDBA@?6m_strDocStrings?3?5?$AA@ 5f4bd84c   doctempl.obj
 0002:0000b860       ??_C@_0BB@JBHJ@m_nIDResource?5?$DN?5?$AA@ 5f4bd860   doctempl.obj
 0002:0000b874       ??_C@_0BD@BIBJ@CSingleDocTemplate?$AA@ 5f4bd874   docsingl.obj
 0002:0000b888       ?classCSingleDocTemplate@CSingleDocTemplate@@2UCRuntimeClass@@B 5f4bd888   docsingl.obj
 0002:0000b8a4       ??_7CSingleDocTemplate@@6B@ 5f4bd8a4   docsingl.obj
 0002:0000b938       ??_C@_1HI@LGBO@?$AAW?$AAa?$AAr?$AAn?$AAi?$AAn?$AAg?$AA?3?$AA?5?$AAd?$AAe?$AAs?$AAt?$AAr?$AAo?$AAy?$AAi?$AAn?$AAg?$AA?5@ 5f4bd938   docsingl.obj
 0002:0000b9b0       ??_C@_1KG@HIJG@?$AAE?$AAr?$AAr?$AAo?$AAr?$AA?3?$AA?5?$AAO?$AAn?$AAN?$AAe?$AAw?$AAD?$AAo?$AAc?$AAu?$AAm?$AAe?$AAn?$AAt@ 5f4bd9b0   docsingl.obj
 0002:0000ba58       ??_C@_1FG@HJEH@?$AAC?$AAD?$AAo?$AAc?$AAu?$AAm?$AAe?$AAn?$AAt?$AA?3?$AA?3?$AAO?$AAn?$AAO?$AAp?$AAe?$AAn?$AAD?$AAo?$AAc@ 5f4bda58   docsingl.obj
 0002:0000bab0       ??_C@_1FE@BP@?$AAC?$AAD?$AAo?$AAc?$AAu?$AAm?$AAe?$AAn?$AAt?$AA?3?$AA?3?$AAO?$AAn?$AAN?$AAe?$AAw?$AAD?$AAo?$AAc?$AAu@ 5f4bdab0   docsingl.obj
 0002:0000bb04       ??_C@_0BB@FAKC@with?5no?5document?$AA@ 5f4bdb04   docsingl.obj
 0002:0000bb18       ??_C@_0BA@NJIO@with?5document?3?5?$AA@ 5f4bdb18   docsingl.obj
 0002:0000bb28       ??_C@_0BC@HJJP@CMultiDocTemplate?$AA@ 5f4bdb28   docmulti.obj
 0002:0000bb40       ?classCMultiDocTemplate@CMultiDocTemplate@@2UCRuntimeClass@@B 5f4bdb40   docmulti.obj
 0002:0000bb5c       ??_7CMultiDocTemplate@@6B@ 5f4bdb5c   docmulti.obj
 0002:0000bbf0       ??_C@_1GI@FBOH@?$AAW?$AAa?$AAr?$AAn?$AAi?$AAn?$AAg?$AA?3?$AA?5?$AAn?$AAo?$AA?5?$AAs?$AAh?$AAa?$AAr?$AAe?$AAd?$AA?5?$AAm@ 5f4bdbf0   docmulti.obj
 0002:0000bc58       ??_C@_1IA@MBAG@?$AAW?$AAa?$AAr?$AAn?$AAi?$AAn?$AAg?$AA?3?$AA?5?$AAd?$AAe?$AAs?$AAt?$AAr?$AAo?$AAy?$AAi?$AAn?$AAg?$AA?5@ 5f4bdc58   docmulti.obj
 0002:0000bcd8       ??_C@_1GA@EOKF@?$AAC?$AAD?$AAo?$AAc?$AAT?$AAe?$AAm?$AAp?$AAl?$AAa?$AAt?$AAe?$AA?3?$AA?3?$AAC?$AAr?$AAe?$AAa?$AAt?$AAe@ 5f4bdcd8   docmulti.obj
 0002:0000bd38       ??_C@_0BA@FGCH@?6with?5document?5?$AA@ 5f4bdd38   docmulti.obj
 0002:0000bd48       ??_C@_0BA@GGEF@?5open?5documents?$AA@ 5f4bdd48   docmulti.obj
 0002:0000bd58       ??_C@_06COBJ@?6with?5?$AA@ 5f4bdd58   docmulti.obj
 0002:0000bd60       ??_C@_0BF@HCCI@?6m_nUntitledCount?5?$DN?5?$AA@ 5f4bdd60   docmulti.obj
 0002:0000bd78       ??_C@_0BC@DCCK@?6m_hAccelTable?5?$DN?5?$AA@ 5f4bdd78   docmulti.obj
 0002:0000bd8c       ??_C@_0M@FJOK@CDocManager?$AA@ 5f4bdd8c   docmgr.obj
 0002:0000bf78       ?messageMap@CNewTypeDlg@@1UAFX_MSGMAP@@B 5f4bdf78   docmgr.obj
 0002:0000bf80       ?_messageEntries@CNewTypeDlg@@0PBUAFX_MSGMAP_ENTRY@@B 5f4bdf80   docmgr.obj
 0002:0000bfb0       ?classCDocManager@CDocManager@@2UCRuntimeClass@@B 5f4bdfb0   docmgr.obj
 0002:0000bfcc       ??_7CDocManager@@6B@       5f4bdfcc   docmgr.obj
 0002:0000c010       ??_C@_1HI@EIDD@?$AAW?$AAa?$AAr?$AAn?$AAi?$AAn?$AAg?$AA?3?$AA?5?$AAr?$AAe?$AAg?$AAi?$AAs?$AAt?$AAr?$AAa?$AAt?$AAi?$AAo@ 5f4be010   docmgr.obj
 0002:0000c088       ??_C@_1FM@CLJG@?$AAE?$AAr?$AAr?$AAo?$AAr?$AA?3?$AA?5?$AAn?$AAo?$AA?5?$AAd?$AAo?$AAc?$AAu?$AAm?$AAe?$AAn?$AAt?$AA?5?$AAt@ 5f4be088   docmgr.obj
 0002:0000c0e4       ??_C@_17EICA@?$AA?$CK?$AA?4?$AA?$CK?$AA?$AA?$AA?$AH?$AA?$AA?$AA?$AA?$AA?$AA@ 5f4be0e4   docmgr.obj
 0002:0000c0ec       ??_C@_17OMHC@?$AA?$CC?$AA?0?$AA?$CC?$AA?$AA?$AA?$AH?$AA?$AA?$AA?$AA?$AA?$AA@ 5f4be0ec   docmgr.obj
 0002:0000c0f4       ??_C@_1BG@LIGO@?$AA?$FL?$AAp?$AAr?$AAi?$AAn?$AAt?$AAt?$AAo?$AA?$CI?$AA?$CC?$AA?$AA?$AA?$AA?$AA?$AH?$AA?$AA?$AA?$AA?$AA?$AA?9d?$AF?$:O?$AA?$BG?$AA?$AB@ 5f4be0f4   docmgr.obj
 0002:0000c10c       ??_C@_1BC@CMHH@?$AA?$FL?$AAp?$AAr?$AAi?$AAn?$AAt?$AA?$CI?$AA?$CC?$AA?$AA?$AA?$AA?$AA?$AH?$AA?$AA?$AA?$AA?$AA?$AA?$CJ?$AA?$AF?$:O?$AA?$BC?$AA?$AB@ 5f4be10c   docmgr.obj
 0002:0000c120       ??_C@_1BA@NGLM@?$AA?$FL?$AAo?$AAp?$AAe?$AAn?$AA?$CI?$AA?$CC?$AA?$AA?$AA?$AH?$AA?$AA?$AA?$AA?$AA?$AA$?$:A?$AF?$:O?$AA?$BA?$AA?$AB@ 5f4be120   docmgr.obj
 0002:0000c130       ??_C@_1GO@HEOJ@?$AAE?$AAr?$AAr?$AAo?$AAr?$AA?3?$AA?5?$AAn?$AAo?$AA?5?$AAd?$AAo?$AAc?$AAu?$AAm?$AAe?$AAn?$AAt?$AA?5?$AAt@ 5f4be130   docmgr.obj
 0002:0000c1a4       ??_7CNewTypeDlg@@6B@       5f4be1a4   docmgr.obj
 0002:0000c27c       ??_C@_01KCD@?$HN?$AA@      5f4be27c   docmgr.obj
 0002:0000c280       ??_C@_0L@HIOI@?6template?5?$AA@ 5f4be280   docmgr.obj
 0002:0000c28c       ??_C@_0BG@EOJI@?6m_templateList?$FL?$FN?5?$DN?5?$HL?$AA@ 5f4be28c   docmgr.obj
 0002:0000c2a4       ??_C@_1GM@PNGI@?$AAE?$AAr?$AAr?$AAo?$AAr?$AA?3?$AA?5?$AAC?$AAa?$AAn?$AA?5?$AAn?$AAo?$AAt?$AA?5?$AAf?$AAi?$AAn?$AAd?$AA?5@ 5f4be2a4   docmgr.obj
 0002:0000c310       ??_C@_1GO@KHMA@?$AAE?$AAr?$AAr?$AAo?$AAr?$AA?3?$AA?5?$AAC?$AAa?$AAn?$AA?5?$AAn?$AAo?$AAt?$AA?5?$AAf?$AAi?$AAn?$AAd?$AA?5@ 5f4be310   docmgr.obj
 0002:0000c380       ??_C@_09OBAN@CCtrlView?$AA@ 5f4be380   viewcore.obj
 0002:0000c38c       ??_C@_0N@JGP@CSplitterWnd?$AA@ 5f4be38c   viewcore.obj
 0002:0000c3a0       ?messageMap@CView@@1UAFX_MSGMAP@@B 5f4be3a0   viewcore.obj
 0002:0000c3a8       ?_messageEntries@CView@@0PBUAFX_MSGMAP_ENTRY@@B 5f4be3a8   viewcore.obj
 0002:0000c4c8       ?messageMap@CCtrlView@@1UAFX_MSGMAP@@B 5f4be4c8   viewcore.obj
 0002:0000c4d0       ?_messageEntries@CCtrlView@@0PBUAFX_MSGMAP_ENTRY@@B 5f4be4d0   viewcore.obj
 0002:0000c500       ?classCSplitterWnd@CSplitterWnd@@2UCRuntimeClass@@B 5f4be500   viewcore.obj
 0002:0000c518       ?classCCtrlView@CCtrlView@@2UCRuntimeClass@@B 5f4be518   viewcore.obj
 0002:0000c534       ??_7CView@@6B@             5f4be534   viewcore.obj
 0002:0000c644       ??_C@_1FK@CBOF@?$AAW?$AAa?$AAr?$AAn?$AAi?$AAn?$AAg?$AA?3?$AA?5?$AAC?$AAr?$AAe?$AAa?$AAt?$AAi?$AAn?$AAg?$AA?5?$AAa?$AA?5@ 5f4be644   viewcore.obj
 0002:0000c6a0       ??_C@_0BC@DEMG@with?5no?5document?6?$AA@ 5f4be6a0   viewcore.obj
 0002:0000c6bc       ??_7CCtrlView@@6B@         5f4be6bc   viewcore.obj
 0002:0000c7cc       ??_C@_0BB@ODLP@?6Default?5Style?3?5?$AA@ 5f4be7cc   viewcore.obj
 0002:0000c7e0       ??_C@_0O@IIAC@?6Class?5Name?3?5?$AA@ 5f4be7e0   viewcore.obj
 0002:0000c7f4       ??_7CPrintingDialog@@6B@   5f4be7f4   viewprnt.obj
 0002:0000c8d0       ?messageMap@CSplitterWnd@@1UAFX_MSGMAP@@B 5f4be8d0   winsplit.obj
 0002:0000c8d8       ?_messageEntries@CSplitterWnd@@0PBUAFX_MSGMAP_ENTRY@@B 5f4be8d8   winsplit.obj
 0002:0000ca58       ??_C@_1FO@FOEM@?$AAW?$AAa?$AAr?$AAn?$AAi?$AAn?$AAg?$AA?3?$AA?5?$AAC?$AAS?$AAp?$AAl?$AAi?$AAt?$AAt?$AAe?$AAr?$AAW?$AAn@ 5f4bea58   winsplit.obj
 0002:0000cabc       ??_7CSplitterWnd@@6B@      5f4beabc   winsplit.obj
 0002:0000cbe4       ??_C@_1GI@KEKL@?$AAW?$AAa?$AAr?$AAn?$AAi?$AAn?$AAg?$AA?3?$AA?5?$AAc?$AAo?$AAu?$AAl?$AAd?$AAn?$AA?8?$AAt?$AA?5?$AAc?$AAr@ 5f4bebe4   winsplit.obj
 0002:0000cc4c       ??_C@_1FC@IDNJ@?$AAO?$AAu?$AAt?$AA?5?$AAo?$AAf?$AA?5?$AAm?$AAe?$AAm?$AAo?$AAr?$AAy?$AA?5?$AAc?$AAr?$AAe?$AAa?$AAt?$AAi@ 5f4bec4c   winsplit.obj
 0002:0000cca0       ??_C@_1HK@LEDL@?$AAE?$AAr?$AAr?$AAo?$AAr?$AA?3?$AA?5?$AAC?$AAr?$AAe?$AAa?$AAt?$AAe?$AAV?$AAi?$AAe?$AAw?$AA?5?$AA?9?$AA?5@ 5f4beca0   winsplit.obj
 0002:0000cd1c       ??_C@_1BE@JGEP@?$AAS?$AAC?$AAR?$AAO?$AAL?$AAL?$AAB?$AAA?$AAR?$AA?$AA?$AA?$AH?$AA?$AA?$AA?$AA?$AA?$AA?$AI?$AF?$:O?$AA?$BE?$AA?$AB?$AA?$AA?$AA?$AA@ 5f4bed1c   winsplit.obj
 0002:0000cd30       ??_C@_1FK@OBLD@?$AAW?$AAa?$AAr?$AAn?$AAi?$AAn?$AAg?$AA?3?$AA?5?$AAS?$AAp?$AAl?$AAi?$AAt?$AAR?$AAo?$AAw?$AA?5?$AAf?$AAa@ 5f4bed30   winsplit.obj
 0002:0000cd8c       ??_C@_1GA@NDIF@?$AAW?$AAa?$AAr?$AAn?$AAi?$AAn?$AAg?$AA?3?$AA?5?$AAS?$AAp?$AAl?$AAi?$AAt?$AAR?$AAo?$AAw?$AA?5?$AAf?$AAa@ 5f4bed8c   winsplit.obj
 0002:0000cdec       ??_C@_1FM@FJD@?$AAW?$AAa?$AAr?$AAn?$AAi?$AAn?$AAg?$AA?3?$AA?5?$AAs?$AAp?$AAl?$AAi?$AAt?$AA?5?$AAt?$AAo?$AAo?$AA?5?$AAs@ 5f4bedec   winsplit.obj
 0002:0000ce48       ??_C@_1FM@OJCH@?$AAW?$AAa?$AAr?$AAn?$AAi?$AAn?$AAg?$AA?3?$AA?5?$AAs?$AAp?$AAl?$AAi?$AAt?$AA?5?$AAt?$AAo?$AAo?$AA?5?$AAs@ 5f4bee48   winsplit.obj
 0002:0000cea4       ??_C@_1GA@CKNC@?$AAW?$AAa?$AAr?$AAn?$AAi?$AAn?$AAg?$AA?3?$AA?5?$AAs?$AAp?$AAl?$AAi?$AAt?$AA?5?$AAt?$AAo?$AAo?$AA?5?$AAs@ 5f4beea4   winsplit.obj
 0002:0000cf04       ??_C@_1GG@BBNE@?$AAW?$AAa?$AAr?$AAn?$AAi?$AAn?$AAg?$AA?3?$AA?5?$AAS?$AAp?$AAl?$AAi?$AAt?$AAC?$AAo?$AAl?$AAu?$AAm?$AAn@ 5f4bef04   winsplit.obj
 0002:0000cf6c       ??_C@_1EG@MKEH@?$AAE?$AAr?$AAr?$AAo?$AAr?$AA?3?$AA?5?$AAG?$AAe?$AAt?$AAH?$AAi?$AAt?$AAR?$AAe?$AAc?$AAt?$AA?$CI?$AA?$CF?$AAd@ 5f4bef6c   winsplit.obj
 0002:0000cfb4       ??_C@_1JM@MLAF@?$AAW?$AAa?$AAr?$AAn?$AAi?$AAn?$AAg?$AA?3?$AA?5?$AAC?$AAo?$AAu?$AAl?$AAd?$AA?5?$AAn?$AAo?$AAt?$AA?5?$AAf@ 5f4befb4   winsplit.obj
 0002:0000d050       ??_C@_1HG@CCEH@?$AAW?$AAa?$AAr?$AAn?$AAi?$AAn?$AAg?$AA?3?$AA?5?$AAs?$AAc?$AAr?$AAo?$AAl?$AAl?$AA?5?$AAp?$AAa?$AAn?$AAe@ 5f4bf050   winsplit.obj
 0002:0000d0c8       ??_C@_1HI@KMLH@?$AAW?$AAa?$AAr?$AAn?$AAi?$AAn?$AAg?$AA?3?$AA?5?$AAC?$AAa?$AAn?$AA?8?$AAt?$AA?5?$AAg?$AAo?$AA?5?$AAt?$AAo@ 5f4bf0c8   winsplit.obj
 0002:0000d140       ??_C@_1HK@OHDB@?$AAW?$AAa?$AAr?$AAn?$AAi?$AAn?$AAg?$AA?3?$AA?5?$AAC?$AAa?$AAn?$AAn?$AAo?$AAt?$AA?5?$AAg?$AAo?$AA?5?$AAt@ 5f4bf140   winsplit.obj
 0002:0000d1bc       ??_C@_1GM@PACN@?$AAW?$AAa?$AAr?$AAn?$AAi?$AAn?$AAg?$AA?3?$AA?5?$AAN?$AAe?$AAx?$AAt?$AA?5?$AAp?$AAa?$AAn?$AAe?$AA?5?$AAi@ 5f4bf1bc   winsplit.obj
 0002:0000d228       ??_C@_0BD@LJP@?6m_rectTracker2?5?$DN?5?$AA@ 5f4bf228   winsplit.obj
 0002:0000d23c       ??_C@_0BC@JECF@?6m_rectTracker?5?$DN?5?$AA@ 5f4bf23c   winsplit.obj
 0002:0000d250       ??_C@_0BE@MCJF@?6m_ptTrackOffset?5?$DN?5?$AA@ 5f4bf250   winsplit.obj
 0002:0000d264       ??_C@_0BA@PCAB@?6m_rectLimit?5?$DN?5?$AA@ 5f4bf264   winsplit.obj
 0002:0000d274       ??_C@_0BI@CEEL@?6TRACKING?3?5m_htTrack?5?$DN?5?$AA@ 5f4bf274   winsplit.obj
 0002:0000d28c       ??_C@_0BB@OJKA@?6m_cySplitter?5?$DN?5?$AA@ 5f4bf28c   winsplit.obj
 0002:0000d2a0       ??_C@_0BB@IEEK@?6m_cxSplitter?5?$DN?5?$AA@ 5f4bf2a0   winsplit.obj
 0002:0000d2b4       ??_C@_0BC@PJMI@?6m_bHasVScroll?5?$DN?5?$AA@ 5f4bf2b4   winsplit.obj
 0002:0000d2c8       ??_C@_0BC@FLHD@?6m_bHasHScroll?5?$DN?5?$AA@ 5f4bf2c8   winsplit.obj
 0002:0000d2dc       ??_C@_0M@CMG@?6m_nCols?5?$DN?5?$AA@ 5f4bf2dc   winsplit.obj
 0002:0000d2e8       ??_C@_0M@CGBJ@?6m_nRows?5?$DN?5?$AA@ 5f4bf2e8   winsplit.obj
 0002:0000d2f4       ??_C@_0P@DFB@?6m_nMaxCols?5?$DN?5?$AA@ 5f4bf2f4   winsplit.obj
 0002:0000d304       ??_C@_0P@CHIO@?6m_nMaxRows?5?$DN?5?$AA@ 5f4bf304   winsplit.obj
 0002:0000d314       ??_C@_0BH@KHOP@m_pDynamicViewClass?5?$DN?5?$AA@ 5f4bf314   winsplit.obj
 0002:0000d32c       ??_C@_0M@DAH@CScrollView?$AA@ 5f4bf32c   viewscrl.obj
 0002:0000d338       ?messageMap@CScrollView@@1UAFX_MSGMAP@@B 5f4bf338   viewscrl.obj
 0002:0000d340       ?_messageEntries@CScrollView@@0PBUAFX_MSGMAP_ENTRY@@B 5f4bf340   viewscrl.obj
 0002:0000d3a0       ?sizeDefault@CScrollView@@2UtagSIZE@@B 5f4bf3a0   viewscrl.obj
 0002:0000d3a8       ?classCScrollView@CScrollView@@2UCRuntimeClass@@B 5f4bf3a8   viewscrl.obj
 0002:0000d3c4       ??_7CScrollView@@6B@       5f4bf3c4   viewscrl.obj
 0002:0000d4d4       ??_C@_1FC@CLG@?$AAW?$AAa?$AAr?$AAn?$AAi?$AAn?$AAg?$AA?3?$AA?5?$AAC?$AAS?$AAc?$AAr?$AAo?$AAl?$AAl?$AAV?$AAi?$AAe?$AAw@ 5f4bf4d4   viewscrl.obj
 0002:0000d528       ??_C@_1DO@JBEG@?$AA?7?$AAb?$AAe?$AAf?$AAo?$AAr?$AAe?$AA?5?$AAp?$AAa?$AAi?$AAn?$AAt?$AAi?$AAn?$AAg?$AA?5?$AAs?$AAc?$AAr@ 5f4bf528   viewscrl.obj
 0002:0000d568       ??_C@_1HC@OKNA@?$AAE?$AAr?$AAr?$AAo?$AAr?$AA?3?$AA?5?$AAm?$AAu?$AAs?$AAt?$AA?5?$AAc?$AAa?$AAl?$AAl?$AA?5?$AAS?$AAe?$AAt@ 5f4bf568   viewscrl.obj
 0002:0000d5dc       ??_C@_1JI@GBPK@?$AAW?$AAa?$AAr?$AAn?$AAi?$AAn?$AAg?$AA?3?$AA?5?$AAC?$AAS?$AAc?$AAr?$AAo?$AAl?$AAl?$AAV?$AAi?$AAe?$AAw@ 5f4bf5dc   viewscrl.obj
 0002:0000d674       ??_C@_09EEIC@?$CKunknown?$CK?$AA@ 5f4bf674   viewscrl.obj
 0002:0000d680       ??_C@_08BEKL@MM_TWIPS?$AA@ 5f4bf680   viewscrl.obj
 0002:0000d68c       ??_C@_0N@GBMF@MM_HIENGLISH?$AA@ 5f4bf68c   viewscrl.obj
 0002:0000d69c       ??_C@_0N@NIAC@MM_LOENGLISH?$AA@ 5f4bf69c   viewscrl.obj
 0002:0000d6ac       ??_C@_0M@DPCL@MM_HIMETRIC?$AA@ 5f4bf6ac   viewscrl.obj
 0002:0000d6b8       ??_C@_0M@PIOM@MM_LOMETRIC?$AA@ 5f4bf6b8   viewscrl.obj
 0002:0000d6c4       ??_C@_07PBEB@MM_TEXT?$AA@  5f4bf6c4   viewscrl.obj
 0002:0000d6cc       ??_C@_0O@MDOC@MM_SCALETOFIT?$AA@ 5f4bf6cc   viewscrl.obj
 0002:0000d6dc       ??_C@_07OOHN@MM_NONE?$AA@  5f4bf6dc   viewscrl.obj
 0002:0000d6e4       ??_C@_0P@FKBC@?6m_nMapMode?5?$DN?5?$AA@ 5f4bf6e4   viewscrl.obj
 0002:0000d6f4       ??_C@_0BE@PIDK@?6m_bInsideUpdate?5?$DN?5?$AA@ 5f4bf6f4   viewscrl.obj
 0002:0000d708       ??_C@_0O@JKPF@?6m_bCenter?5?$DN?5?$AA@ 5f4bf708   viewscrl.obj
 0002:0000d718       ??_C@_0O@POOE@?6m_lineDev?5?$DN?5?$AA@ 5f4bf718   viewscrl.obj
 0002:0000d728       ??_C@_0O@FIMA@?6m_pageDev?5?$DN?5?$AA@ 5f4bf728   viewscrl.obj
 0002:0000d738       ??_C@_0P@HAFJ@?6m_totalDev?5?$DN?5?$AA@ 5f4bf738   viewscrl.obj
 0002:0000d748       ??_C@_0O@KOGC@m_totalLog?5?$DN?5?$AA@ 5f4bf748   viewscrl.obj
 0002:0000d758       ??_C@_09MHPF@CFormView?$AA@ 5f4bf758   viewform.obj
 0002:0000d768       ?messageMap@CFormView@@1UAFX_MSGMAP@@B 5f4bf768   viewform.obj
 0002:0000d770       ?_messageEntries@CFormView@@0PBUAFX_MSGMAP_ENTRY@@B 5f4bf770   viewform.obj
 0002:0000d7e8       ?classCFormView@CFormView@@2UCRuntimeClass@@B 5f4bf7e8   viewform.obj
 0002:0000d804       ??_7CFormView@@6B@         5f4bf804   viewform.obj
 0002:0000d914       ??_C@_1GG@COBA@?$AAU?$AAp?$AAd?$AAa?$AAt?$AAe?$AAD?$AAa?$AAt?$AAa?$AA?5?$AAf?$AAa?$AAi?$AAl?$AAe?$AAd?$AA?5?$AAd?$AAu@ 5f4bf914   viewform.obj
 0002:0000d97c       ??_C@_1FO@JGEE@?$AAW?$AAa?$AAr?$AAn?$AAi?$AAn?$AAg?$AA?3?$AA?5?$AAC?$AAF?$AAo?$AAr?$AAm?$AAV?$AAi?$AAe?$AAw?$AA?5?$AAd@ 5f4bf97c   viewform.obj
 0002:0000d9dc       ??_C@_1HE@LGBF@?$AAW?$AAa?$AAr?$AAn?$AAi?$AAn?$AAg?$AA?3?$AA?5?$AAC?$AAr?$AAe?$AAa?$AAt?$AAe?$AAD?$AAl?$AAg?$AAC?$AAo@ 5f4bf9dc   viewform.obj
 0002:0000da50       ??_C@_09PCCM@CEditView?$AA@ 5f4bfa50   viewedit.obj
 0002:0000da60       ?messageMap@CEditView@@1UAFX_MSGMAP@@B 5f4bfa60   viewedit.obj
 0002:0000da68       ?_messageEntries@CEditView@@0PBUAFX_MSGMAP_ENTRY@@B 5f4bfa68   viewedit.obj
 0002:0000dcd8       ?dwStyleDefault@CEditView@@2KB 5f4bfcd8   viewedit.obj
 0002:0000dcdc       ?nMaxSize@CEditView@@2IB   5f4bfcdc   viewedit.obj
 0002:0000dce0       ?classCEditView@CEditView@@2UCRuntimeClass@@B 5f4bfce0   viewedit.obj
 0002:0000dcf8       ??_C@_1CI@PGNH@?$AAc?$AAo?$AAm?$AAm?$AAd?$AAl?$AAg?$AA_?$AAF?$AAi?$AAn?$AAd?$AAR?$AAe?$AAp?$AAl?$AAa?$AAc?$AAe?$AA?$AA@ 5f4bfcf8   viewedit.obj
 0002:0000dd24       ??_7_AFX_EDIT_STATE@@6B@   5f4bfd24   viewedit.obj
 0002:0000dd2c       ??_7CEditView@@6B@         5f4bfd2c   viewedit.obj
 0002:0000de50       ??_C@_1EK@KBHO@?$AAU?$AAn?$AAa?$AAb?$AAl?$AAe?$AA?5?$AAt?$AAo?$AA?5?$AAc?$AAr?$AAe?$AAa?$AAt?$AAe?$AA?5?$AAu?$AAn?$AAi@ 5f4bfe50   viewedit.obj
 0002:0000de9c       ??_C@_1CI@IJEE@?$AAL?$AAu?$AAc?$AAi?$AAd?$AAa?$AA?5?$AAS?$AAa?$AAn?$AAs?$AA?5?$AAU?$AAn?$AAi?$AAc?$AAo?$AAd?$AAe?$AA?$AA@ 5f4bfe9c   viewedit.obj
 0002:0000dec4       ??_C@_13MCKD@?$AA?7?$AA?$AA?$AA?$AH?$AA?$AA@ 5f4bfec4   viewedit.obj
 0002:0000dec8       ??_C@_09EHNL@?6bNext?5?$DN?5?$AA@ 5f4bfec8   viewedit.obj
 0002:0000ded4       ??_C@_09GAAD@?6bCase?5?$DN?5?$AA@ 5f4bfed4   viewedit.obj
 0002:0000dee0       ??_C@_0P@HKAL@?6strReplace?5?$DN?5?$AA@ 5f4bfee0   viewedit.obj
 0002:0000def0       ??_C@_0M@FIBA@?6strFind?5?$DN?5?$AA@ 5f4bfef0   viewedit.obj
 0002:0000defc       ??_C@_0O@BAGE@?6bFindOnly?5?$DN?5?$AA@ 5f4bfefc   viewedit.obj
 0002:0000df0c       ??_C@_0BE@BDLE@?6pFindReplaceDlg?5?$DN?5?$AA@ 5f4bff0c   viewedit.obj
 0002:0000df20       ??_C@_0BF@IHOD@?6static?5member?5data?3?$AA@ 5f4bff20   viewedit.obj
 0002:0000df38       ??_C@_0BA@HBLG@?6m_aPageStart?3?5?$AA@ 5f4bff38   viewedit.obj
 0002:0000df48       ??_C@_0BA@HKDA@?6m_hMirrorFont?5?$AA@ 5f4bff48   viewedit.obj
 0002:0000df58       ??_C@_0BB@NGNO@?6m_hPrinterFont?5?$AA@ 5f4bff58   viewedit.obj
 0002:0000df6c       ??_C@_0P@IBOM@m_nTabStops?5?$DN?5?$AA@ 5f4bff6c   viewedit.obj
 0002:0000df7c       ??_C@_0N@LOLK@CPreviewView?$AA@ 5f4bff7c   viewprev.obj
 0002:0000df90       ?messageMap@CPreviewView@@1UAFX_MSGMAP@@B 5f4bff90   viewprev.obj
 0002:0000df98       ?_messageEntries@CPreviewView@@0PBUAFX_MSGMAP_ENTRY@@B 5f4bff98   viewprev.obj
 0002:0000e178       ?classCPreviewView@CPreviewView@@2UCRuntimeClass@@B 5f4c0178   viewprev.obj
 0002:0000e190       ??_C@_1DO@OHCL@?$AAE?$AAr?$AAr?$AAo?$AAr?$AA?3?$AA?5?$AAD?$AAo?$AAP?$AAr?$AAi?$AAn?$AAt?$AAP?$AAr?$AAe?$AAv?$AAi?$AAe@ 5f4c0190   viewprev.obj
 0002:0000e1d0       ??_C@_1GA@MJLF@?$AAE?$AAr?$AAr?$AAo?$AAr?$AA?3?$AA?5?$AAc?$AAo?$AAu?$AAl?$AAd?$AAn?$AA?8?$AAt?$AA?5?$AAc?$AAr?$AAe?$AAa@ 5f4c01d0   viewprev.obj
 0002:0000e230       ??_C@_1GC@EPKA@?$AAE?$AAr?$AAr?$AAo?$AAr?$AA?3?$AA?5?$AAP?$AAr?$AAe?$AAv?$AAi?$AAe?$AAw?$AA?5?$AAc?$AAo?$AAu?$AAl?$AAd@ 5f4c0230   viewprev.obj
 0002:0000e294       ??_C@_1EO@EGBN@?$AAE?$AAr?$AAr?$AAo?$AAr?$AA?3?$AA?5?$AAF?$AAa?$AAi?$AAl?$AAe?$AAd?$AA?5?$AAt?$AAo?$AA?5?$AAc?$AAr?$AAe@ 5f4c0294   viewprev.obj
 0002:0000e2ec       ??_7CPreviewView@@6B@      5f4c02ec   viewprev.obj
 0002:0000e408       ??_C@_1FM@KDFI@?$AA?7?$AAD?$AAi?$AAd?$AA?5?$AAy?$AAo?$AAu?$AA?5?$AAr?$AAe?$AAm?$AAe?$AAm?$AAb?$AAe?$AAr?$AA?5?$AAt?$AAo@ 5f4c0408   viewprev.obj
 0002:0000e464       ??_C@_1EI@NBPG@?$AAE?$AAr?$AAr?$AAo?$AAr?$AA?3?$AA?5?$AAh?$AAD?$AAC?$AA?5?$AAn?$AAo?$AAt?$AA?5?$AAs?$AAe?$AAt?$AA?5?$AAf@ 5f4c0464   viewprev.obj
 0002:0000e4ac       ??_C@_1HK@OGEJ@?$AAM?$AAa?$AAl?$AAf?$AAo?$AAr?$AAm?$AAe?$AAd?$AA?5?$AAP?$AAa?$AAg?$AAe?$AA?5?$AAD?$AAe?$AAs?$AAc?$AAr@ 5f4c04ac   viewprev.obj
 0002:0000e528       ??_C@_0BB@PBHN@?6m_pPreviewDC?5?$DN?5?$AA@ 5f4c0528   viewprev.obj
 0002:0000e53c       ??_C@_0O@DBPJ@?6m_dcPrint?5?$DN?5?$AA@ 5f4c053c   viewprev.obj
 0002:0000e54c       ??_C@_0P@IJCK@MM_ANISOTROPIC?$AA@ 5f4c054c   viewprev.obj
 0002:0000e55c       ??_C@_0N@PCPL@MM_ISOTROPIC?$AA@ 5f4c055c   viewprev.obj
 0002:0000e56c       ??_C@_0M@PFDM@ZOOM_MIDDLE?$AA@ 5f4c056c   viewprev.obj
 0002:0000e578       ??_C@_07GDBC@ZOOM_IN?$AA@  5f4c0578   viewprev.obj
 0002:0000e580       ??_C@_08BFPK@ZOOM_OUT?$AA@ 5f4c0580   viewprev.obj
 0002:0000e58c       ??_C@_0BB@FHNA@?6m_nZoomState?5?$DN?5?$AA@ 5f4c058c   viewprev.obj
 0002:0000e5a0       ??_C@_0BE@OPKL@?6m_ptCenterPoint?5?$DN?5?$AA@ 5f4c05a0   viewprev.obj
 0002:0000e5b4       ??_C@_0BF@PDIA@?6m_sizePrinterPPI?5?$DN?5?$AA@ 5f4c05b4   viewprev.obj
 0002:0000e5cc       ??_C@_0BA@JPPO@?6m_nMaxPages?5?$DN?5?$AA@ 5f4c05cc   viewprev.obj
 0002:0000e5dc       ??_C@_0BG@BFDN@?6m_nSecondPageOffset?5?$AA@ 5f4c05dc   viewprev.obj
 0002:0000e5f4       ??_C@_0BB@NIFL@?6m_nCurrentPage?5?$AA@ 5f4c05f4   viewprev.obj
 0002:0000e608       ??_C@_0N@JAPP@?6m_nPages?5?$DN?5?$AA@ 5f4c0608   viewprev.obj
 0002:0000e618       ??_C@_0BI@FEFH@?6m_bPageNumDisplayed?5?$DN?5?$AA@ 5f4c0618   viewprev.obj
 0002:0000e630       ??_C@_0BA@NFLH@?6m_pOrigView?5?$DN?5?$AA@ 5f4c0630   viewprev.obj
 0002:0000e640       ??_C@_0BA@GMAL@m_pPrintView?5?$DN?5?$AA@ 5f4c0640   viewprev.obj
 0002:0000e650       ??_C@_09GPDN@CTreeView?$AA@ 5f4c0650   viewcmn.obj
 0002:0000e65c       ??_C@_09MHFL@CListView?$AA@ 5f4c065c   viewcmn.obj
 0002:0000e668       ?messageMap@CListView@@1UAFX_MSGMAP@@B 5f4c0668   viewcmn.obj
 0002:0000e670       ?_messageEntries@CListView@@0PBUAFX_MSGMAP_ENTRY@@B 5f4c0670   viewcmn.obj
 0002:0000e6a0       ?messageMap@CTreeView@@1UAFX_MSGMAP@@B 5f4c06a0   viewcmn.obj
 0002:0000e6a8       ?_messageEntries@CTreeView@@0PBUAFX_MSGMAP_ENTRY@@B 5f4c06a8   viewcmn.obj
 0002:0000e6e8       ?classCListView@CListView@@2UCRuntimeClass@@B 5f4c06e8   viewcmn.obj
 0002:0000e700       ?classCTreeView@CTreeView@@2UCRuntimeClass@@B 5f4c0700   viewcmn.obj
 0002:0000e718       ??_C@_1BM@DGLL@?$AAS?$AAy?$AAs?$AAL?$AAi?$AAs?$AAt?$AAV?$AAi?$AAe?$AAw?$AA3?$AA2?$AA?$AA?$AA?$AH?$AA?$AA?$AA?$AA?$AA?$AA?$AC?$DM?$AF?$:O@ 5f4c0718   viewcmn.obj
 0002:0000e73c       ??_7CListView@@6B@         5f4c073c   viewcmn.obj
 0002:0000e850       ??_C@_1BM@DBCI@?$AAS?$AAy?$AAs?$AAT?$AAr?$AAe?$AAe?$AAV?$AAi?$AAe?$AAw?$AA3?$AA2?$AA?$AA?$AA?$AH?$AA?$AA?$AA?$AA?$AA?$AA?$AB?$BM?$AF?$:O@ 5f4c0850   viewcmn.obj
 0002:0000e874       ??_7CTreeView@@6B@         5f4c0874   viewcmn.obj
 0002:0000e98c       ??_7_AFX_MAIL_STATE@@6B@   5f4c098c   docmapi.obj
 0002:0000e990       ??_C@_1GE@CNKP@?$AAW?$AAa?$AAr?$AAn?$AAi?$AAn?$AAg?$AA?3?$AA?5?$AAf?$AAi?$AAl?$AAe?$AA?5?$AAs?$AAa?$AAv?$AAe?$AA?5?$AAf@ 5f4c0990   docmapi.obj
 0002:0000e9f4       ??_C@_17OCMI@?$AAa?$AAf?$AAx?$AA?$AA?$AA?$AH?$AA?$AA?$AA?$AA?$AA?$AA@ 5f4c09f4   docmapi.obj
 0002:0000e9fc       ??_C@_0N@HFFA@MAPISendMail?$AA@ 5f4c09fc   docmapi.obj
 0002:0000ea0c       ??_C@_0L@ICPG@MAPI32?4DLL?$AA@ 5f4c0a0c   docmapi.obj
 0002:0000ea18       ??_C@_1BG@PFLE@?$AAM?$AAA?$AAP?$AAI?$AA3?$AA2?$AA?4?$AAD?$AAL?$AAL?$AA?$AA?$AA?$AA?$AA?$AH?$AA?$AA?$AA?$AA?$AA?$AA?$AGt?$AF?$:O?$AA?$BG?$AA?$AB@ 5f4c0a18   docmapi.obj
 0002:0000ea30       ??_C@_19DFMB@?$AAM?$AAA?$AAI?$AAL?$AA?$AA?$AA?$AA?$AA?$AH?$AA?$AA?$AA?$AA?$AA?$AA@ 5f4c0a30   docmapi.obj
 0002:0000ea3c       ??_C@_19IMNH@?$AAM?$AAA?$AAP?$AAI?$AA?$AA?$AA?$AA?$AA?$AH?$AA?$AA?$AA?$AA?$AA?$AA@ 5f4c0a3c   docmapi.obj
 0002:0000ea48       ??_C@_0L@BKIL@CWinThread?$AA@ 5f4c0a48   thrdcore.obj
 0002:0000ea58       ?classCWinThread@CWinThread@@2UCRuntimeClass@@B 5f4c0a58   thrdcore.obj
 0002:0000ea70       ??_C@_1FM@KGED@?$AAW?$AAa?$AAr?$AAn?$AAi?$AAn?$AAg?$AA?3?$AA?5?$AAE?$AAr?$AAr?$AAo?$AAr?$AA?5?$AAd?$AAu?$AAr?$AAi?$AAn@ 5f4c0a70   thrdcore.obj
 0002:0000ead4       ??_7CWinThread@@6B@        5f4c0ad4   thrdcore.obj
 0002:0000eb58       ??_C@_1HE@EAH@?$AAW?$AAa?$AAr?$AAn?$AAi?$AAn?$AAg?$AA?3?$AA?5?$AAC?$AAr?$AAe?$AAa?$AAt?$AAe?$AAE?$AAv?$AAe?$AAn?$AAt@ 5f4c0b58   thrdcore.obj
 0002:0000ebcc       ??_C@_1BI@FLOA@?$AAP?$AAu?$AAm?$AAp?$AAM?$AAe?$AAs?$AAs?$AAa?$AAg?$AAe?$AA?$AA?$AA?$AH?$AA?$AA?$AA?$AA?$AA?$AA?$AO?$BI?$AF?$:O?$AA?$BI?$AA?$AB@ 5f4c0bcc   thrdcore.obj
 0002:0000ebe4       ??_C@_1HG@OHCD@?$AAE?$AAr?$AAr?$AAo?$AAr?$AA?3?$AA?5?$AAC?$AAW?$AAi?$AAn?$AAT?$AAh?$AAr?$AAe?$AAa?$AAd?$AA?3?$AA?3?$AAP@ 5f4c0be4   thrdcore.obj
 0002:0000ec5c       ??_C@_1FK@CIFA@?$AAC?$AAW?$AAi?$AAn?$AAT?$AAh?$AAr?$AAe?$AAa?$AAd?$AA?3?$AA?3?$AAP?$AAu?$AAm?$AAp?$AAM?$AAe?$AAs?$AAs@ 5f4c0c5c   thrdcore.obj
 0002:0000ecb8       ??_C@_0P@GMKI@?6m_nMsgLast?5?$DN?5?$AA@ 5f4c0cb8   thrdcore.obj
 0002:0000ecc8       ??_C@_0BD@PJHD@?6m_ptCursorLast?5?$DN?5?$AA@ 5f4c0cc8   thrdcore.obj
 0002:0000ecdc       ??_C@_0BE@PBKK@?6m_pThreadParams?5?$DN?5?$AA@ 5f4c0cdc   thrdcore.obj
 0002:0000ecf0       ??_C@_07HGLI@?6?7pt?5?$DN?5?$AA@ 5f4c0cf0   thrdcore.obj
 0002:0000ecf8       ??_C@_09GLNE@?6?7time?5?$DN?5?$AA@ 5f4c0cf8   thrdcore.obj
 0002:0000ed04       ??_C@_0M@FCJI@?6?7lParam?5?$DN?5?$AA@ 5f4c0d04   thrdcore.obj
 0002:0000ed10       ??_C@_0M@CCID@?6?7wParam?5?$DN?5?$AA@ 5f4c0d10   thrdcore.obj
 0002:0000ed1c       ??_C@_0N@FJCP@?6?7message?5?$DN?5?$AA@ 5f4c0d1c   thrdcore.obj
 0002:0000ed2c       ??_C@_09DIL@?6?7hwnd?5?$DN?5?$AA@ 5f4c0d2c   thrdcore.obj
 0002:0000ed38       ??_C@_0O@KHHI@?6m_msgCur?5?$DN?5?$HL?$AA@ 5f4c0d38   thrdcore.obj
 0002:0000ed48       ??_C@_0P@NEDM@?6m_pMainWnd?5?$DN?5?$AA@ 5f4c0d48   thrdcore.obj
 0002:0000ed58       ??_C@_0BI@HNBD@?6m_nDisablePumpCount?5?$DN?5?$AA@ 5f4c0d58   thrdcore.obj
 0002:0000ed70       ??_C@_0BA@DPHF@?6m_nThreadID?5?$DN?5?$AA@ 5f4c0d70   thrdcore.obj
 0002:0000ed80       ??_C@_0O@FLKC@?6m_hThread?5?$DN?5?$AA@ 5f4c0d80   thrdcore.obj
 0002:0000ed90       ??_C@_0BE@BFCE@?6m_pfnThreadProc?5?$DN?5?$AA@ 5f4c0d90   thrdcore.obj
 0002:0000eda4       ??_C@_0BD@PNCO@m_pThreadParams?5?$DN?5?$AA@ 5f4c0da4   thrdcore.obj
 0002:0000edbc       ??_7_AFX_CTL3D_THREAD@@6B@ 5f4c0dbc   thrdcore.obj
 0002:0000edc0       ??_C@_07DHEF@CWinApp?$AA@  5f4c0dc0   appcore.obj
 0002:0000ee38       ?messageMap@CWinApp@@1UAFX_MSGMAP@@B 5f4c0e38   appcore.obj
 0002:0000ee40       ?_messageEntries@CWinApp@@0PBUAFX_MSGMAP_ENTRY@@B 5f4c0e40   appcore.obj
 0002:0000eea0       ?classCWinApp@CWinApp@@2UCRuntimeClass@@B 5f4c0ea0   appcore.obj
 0002:0000eebc       ??_7_AFX_WIN_STATE@@6B@    5f4c0ebc   appcore.obj
 0002:0000eec4       ??_7CWinApp@@6B@           5f4c0ec4   appcore.obj
 0002:0000ef6c       ??_7CCommandLineInfo@@6B@  5f4c0f6c   appcore.obj
 0002:0000ef88       ??_C@_0L@POJA@Automation?$AA@ 5f4c0f88   appcore.obj
 0002:0000ef94       ??_C@_09LHIP@Embedding?$AA@ 5f4c0f94   appcore.obj
 0002:0000efa0       ??_C@_03FNJD@dde?$AA@      5f4c0fa0   appcore.obj
 0002:0000efa4       ??_C@_0L@MNBE@Unregister?$AA@ 5f4c0fa4   appcore.obj
 0002:0000efb0       ??_C@_01FOFA@p?$AA@        5f4c0fb0   appcore.obj
 0002:0000efb4       ??_C@_02OBFC@pt?$AA@       5f4c0fb4   appcore.obj
 0002:0000efb8       ??_C@_1IK@MNJF@?$AAW?$AAa?$AAr?$AAn?$AAi?$AAn?$AAg?$AA?3?$AA?5?$AAm?$AA_?$AAp?$AAM?$AAa?$AAi?$AAn?$AAW?$AAn?$AAd?$AA?5@ 5f4c0fb8   appcore.obj
 0002:0000f044       ??_C@_0BH@PIJH@?6m_nNumPreviewPages?5?$DN?5?$AA@ 5f4c1044   appcore.obj
 0002:0000f05c       ??_C@_0BM@ONLF@?6m_hcurWaitCursorRestore?5?$DN?5?$AA@ 5f4c105c   appcore.obj
 0002:0000f078       ??_C@_0BH@HIBE@?6m_nWaitCursorCount?5?$DN?5?$AA@ 5f4c1078   appcore.obj
 0002:0000f090       ??_C@_08NLBP@?6?7File?3?5?$AA@ 5f4c1090   appcore.obj
 0002:0000f09c       ??_C@_0BH@IMKH@?6m_strRecentFiles?$FL?$FN?5?$DN?5?$AA@ 5f4c109c   appcore.obj
 0002:0000f0b4       ??_C@_0BG@IPJO@?6m_dwPromptContext?5?$DN?5?$AA@ 5f4c10b4   appcore.obj
 0002:0000f0cc       ??_C@_0BA@BILD@?6m_hDevNames?5?$DN?5?$AA@ 5f4c10cc   appcore.obj
 0002:0000f0dc       ??_C@_0P@GNCF@?6m_hDevMode?5?$DN?5?$AA@ 5f4c10dc   appcore.obj
 0002:0000f0ec       ??_C@_0BF@JALM@?6m_pszProfileName?5?$DN?5?$AA@ 5f4c10ec   appcore.obj
 0002:0000f104       ??_C@_0BG@OAHJ@?6m_pszHelpFilePath?5?$DN?5?$AA@ 5f4c1104   appcore.obj
 0002:0000f11c       ??_C@_0BB@IKHF@?6m_pszExeName?5?$DN?5?$AA@ 5f4c111c   appcore.obj
 0002:0000f130       ??_C@_0BA@ILGP@?6m_bHelpMode?5?$DN?5?$AA@ 5f4c1130   appcore.obj
 0002:0000f140       ??_C@_0BB@ENEA@?6m_pszAppName?5?$DN?5?$AA@ 5f4c1140   appcore.obj
 0002:0000f154       ??_C@_0P@NBJF@?6m_nCmdShow?5?$DN?5?$AA@ 5f4c1154   appcore.obj
 0002:0000f164       ??_C@_0BA@IPNE@?6m_lpCmdLine?5?$DN?5?$AA@ 5f4c1164   appcore.obj
 0002:0000f174       ??_C@_0BE@HDGO@?6m_hPrevInstance?5?$DN?5?$AA@ 5f4c1174   appcore.obj
 0002:0000f188       ??_C@_0P@BLOD@m_hInstance?5?$DN?5?$AA@ 5f4c1188   appcore.obj
 0002:0000f198       ??_C@_0BO@OOPA@d?3?2msdev?2mfc?2include?2afxadv?4h?$AA@ 5f4c1198   appcore.obj
 0002:0000f1b8       ??_C@_19KGAM@?$AA?4?$AAI?$AAN?$AAI?$AA?$AA?$AA?$AA?$AA?$AH?$AA?$AA?$AA?$AA?$AA?$AA@ 5f4c11b8   appinit.obj
 0002:0000f1c4       ??_C@_19CLBK@?$AA?4?$AAH?$AAL?$AAP?$AA?$AA?$AA?$AA?$AA?$AH?$AA?$AA?$AA?$AA?$AA?$AA@ 5f4c11c4   appinit.obj
 0002:0000f1d0       ??_C@_1FK@BFAO@?$AAW?$AAa?$AAr?$AAn?$AAi?$AAn?$AAg?$AA?3?$AA?5?$AAn?$AAo?$AA?5?$AAi?$AAc?$AAo?$AAn?$AA?5?$AAs?$AAp?$AAe@ 5f4c11d0   appui.obj
 0002:0000f22c       ??_C@_1HC@OMKM@?$AAE?$AAr?$AAr?$AAo?$AAr?$AA?3?$AA?5?$AAf?$AAa?$AAi?$AAl?$AAe?$AAd?$AA?5?$AAt?$AAo?$AA?5?$AAl?$AAo?$AAa@ 5f4c122c   appui.obj
 0002:0000f2a0       ??_C@_1DG@EHDI@?$AAM?$AAR?$AAU?$AA?3?$AA?5?$AAo?$AAp?$AAe?$AAn?$AA?5?$AAf?$AAi?$AAl?$AAe?$AA?5?$AA?$CI?$AA?$CF?$AAd?$AA?$CJ?$AA?5@ 5f4c12a0   appui.obj
 0002:0000f2e8       ??_C@_13HMCP@?$AA?2?$AA?$AA?$AA?$AH?$AA?$AA@ 5f4c12e8   appui2.obj
 0002:0000f2ec       ??_C@_1BE@JFBP@?$AAS?$AAo?$AAf?$AAt?$AAw?$AAa?$AAr?$AAe?$AA?2?$AA?$AA?$AA?$AH?$AA?$AA?$AA?$AA?$AA?$AA?$CD?$GA?$AF?$:O?$AA?$BE?$AA?$AB_0?$AB?$AF@ 5f4c12ec   appui2.obj
 0002:0000f314       ??_C@_0M@PMCB@CTL3D32?4DLL?$AA@ 5f4c1314   app3d.obj
 0002:0000f320       ??_C@_1GM@GFJL@?$AAE?$AAr?$AAr?$AAo?$AAr?$AA?3?$AA?5?$AAf?$AAa?$AAi?$AAl?$AAe?$AAd?$AA?5?$AAt?$AAo?$AA?5?$AAl?$AAo?$AAa@ 5f4c1320   apphelp.obj
 0002:0000f38c       ??_C@_1FG@POBE@?$AAE?$AAr?$AAr?$AAo?$AAr?$AA?3?$AA?5?$AAi?$AAl?$AAl?$AAe?$AAg?$AAa?$AAl?$AA?5?$AAs?$AAt?$AAr?$AAi?$AAn@ 5f4c138c   apphelp.obj
 0002:0000f3ec       ??_7CRecentFileList@@6B@   5f4c13ec   filelist.obj
 0002:0000f404       ??_C@_19ENHM@?$AA?$CG?$AA?$CF?$AAd?$AA?5?$AA?$AA?$AA?$AA?$AA?$AH?$AA?$AA?$AA?$AA?$AA?$AA@ 5f4c1404   filelist.obj
 0002:0000f410       ??_C@_19BHME@?$AA?2?$AA?4?$AA?4?$AA?4?$AA?$AA?$AA?$AA?$AA?$AH?$AA?$AA?$AA?$AA?$AA?$AA@ 5f4c1410   filelist.obj
 0002:0000f41c       ??_C@_1JC@JPME@?$AAW?$AAa?$AAr?$AAn?$AAi?$AAn?$AAg?$AA?3?$AA?5?$AAA?$AAf?$AAx?$AAO?$AAl?$AAe?$AAS?$AAe?$AAt?$AAU?$AAs@ 5f4c141c   olelock.obj
 0002:0000f4b0       ??_C@_0BA@FPGB@CGopherFileFind?$AA@ 5f4c14b0   inet.obj
 0002:0000f4c0       ??_C@_0N@NGMH@CFtpFileFind?$AA@ 5f4c14c0   inet.obj
 0002:0000f4d0       ??_C@_0BC@JCEC@CGopherConnection?$AA@ 5f4c14d0   inet.obj
 0002:0000f4e4       ??_C@_0BA@OLNH@CHttpConnection?$AA@ 5f4c14e4   inet.obj
 0002:0000f4f4       ??_C@_0P@HPOD@CFtpConnection?$AA@ 5f4c14f4   inet.obj
 0002:0000f504       ??_C@_0BE@NNFJ@CInternetConnection?$AA@ 5f4c1504   inet.obj
 0002:0000f518       ??_C@_0BB@BEAH@CInternetSession?$AA@ 5f4c1518   inet.obj
 0002:0000f52c       ??_C@_0M@HDHO@CGopherFile?$AA@ 5f4c152c   inet.obj
 0002:0000f538       ??_C@_09IMKB@CHttpFile?$AA@ 5f4c1538   inet.obj
 0002:0000f544       ??_C@_0O@FDJM@CInternetFile?$AA@ 5f4c1544   inet.obj
 0002:0000f554       ??_C@_0BD@EMID@CInternetException?$AA@ 5f4c1554   inet.obj
 0002:0000f568       ??_C@_1O@IMGP@?$AAU?$AAN?$AAL?$AAI?$AAN?$AAK?$AA?$AA?$AA?$AA?$AA?$AH?$AA?$AA?$AA?$AA?$AA?$AA?$AC?$AE?$AF?$:O@ 5f4c1568   inet.obj
 0002:0000f578       ??_C@_1O@FBDO@?$AAD?$AAE?$AAL?$AAE?$AAT?$AAE?$AA?$AA?$AA?$AA?$AA?$AH?$AA?$AA?$AA?$AA?$AA?$AA?$AB?$AF?$:O@ 5f4c1578   inet.obj
 0002:0000f588       ??_C@_19FNLP@?$AAL?$AAI?$AAN?$AAK?$AA?$AA?$AA?$AA?$AA?$AH?$AA?$AA?$AA?$AA?$AA?$AA@ 5f4c1588   inet.obj
 0002:0000f594       ??_C@_17ILBJ@?$AAP?$AAU?$AAT?$AA?$AA?$AA?$AH?$AA?$AA?$AA?$AA?$AA?$AA@ 5f4c1594   inet.obj
 0002:0000f59c       ??_C@_19NFGA@?$AAH?$AAE?$AAA?$AAD?$AA?$AA?$AA?$AA?$AA?$AH?$AA?$AA?$AA?$AA?$AA?$AA@ 5f4c159c   inet.obj
 0002:0000f5a8       ??_C@_17KJPO@?$AAG?$AAE?$AAT?$AA?$AA?$AA?$AH?$AA?$AA?$AA?$AA?$AA?$AA@ 5f4c15a8   inet.obj
 0002:0000f5b0       ??_C@_19KJFA@?$AAP?$AAO?$AAS?$AAT?$AA?$AA?$AA?$AA?$AA?$AH?$AA?$AA?$AA?$AA?$AA?$AA@ 5f4c15b0   inet.obj
 0002:0000f5bc       ??_C@_1O@IMF@?$AAa?$AAf?$AAs?$AA?3?$AA?1?$AA?1?$AA?$AA?$AA?$AA?$AA?$AH?$AA?$AA?$AA?$AA?$AA?$AA?$AF?$AF?$:O@ 5f4c15bc   inet.obj
 0002:0000f5cc       ??_C@_1BI@LFBN@?$AAp?$AAr?$AAo?$AAs?$AAp?$AAe?$AAr?$AAo?$AA?3?$AA?1?$AA?1?$AA?$AA?$AA?$AH?$AA?$AA?$AA?$AA?$AA?$AA?$AF?2?$AF?$:O?$AA?$BI?$AA?$AB@ 5f4c15cc   inet.obj
 0002:0000f5e4       ??_C@_1O@LF@?$AAc?$AAi?$AAd?$AA?3?$AA?1?$AA?1?$AA?$AA?$AA?$AA?$AA?$AH?$AA?$AA?$AA?$AA?$AA?$AA?$AE?$AF?$:O@ 5f4c15e4   inet.obj
 0002:0000f5f4       ??_C@_1O@GMLG@?$AAm?$AAi?$AAd?$AA?3?$AA?1?$AA?1?$AA?$AA?$AA?$AA?$AA?$AH?$AA?$AA?$AA?$AA?$AA?$AA?$AE?$HM?$AF?$:O@ 5f4c15f4   inet.obj
 0002:0000f604       ??_C@_1BA@FCGO@?$AAw?$AAa?$AAi?$AAs?$AA?3?$AA?1?$AA?1?$AA?$AA?$AA?$AH?$AA?$AA?$AA?$AA?$AA?$AA?$AE?$AM?$AF?$:O?$AA?$BA?$AA?$AB@ 5f4c1604   inet.obj
 0002:0000f614       ??_C@_1BE@FAHL@?$AAt?$AAe?$AAl?$AAn?$AAe?$AAt?$AA?3?$AA?1?$AA?1?$AA?$AA?$AA?$AH?$AA?$AA?$AA?$AA?$AA?$AA?$AD?$:I?$AF?$:O?$AA?$BE?$AA?$AB?$AA?$AI?$AA?$AA@ 5f4c1614   inet.obj
 0002:0000f628       ??_C@_1BA@GIEN@?$AAn?$AAn?$AAt?$AAp?$AA?3?$AA?1?$AA?1?$AA?$AA?$AA?$AH?$AA?$AA?$AA?$AA?$AA?$AA?$AD?$CI?$AF?$:O?$AA?$BA?$AA?$AB@ 5f4c1628   inet.obj
 0002:0000f638       ??_C@_1BA@GJNM@?$AAn?$AAe?$AAw?$AAs?$AA?3?$AA?1?$AA?1?$AA?$AA?$AA?$AH?$AA?$AA?$AA?$AA?$AA?$AA?$AC?$<I?$AF?$:O?$AA?$BA?$AA?$AB@ 5f4c1638   inet.obj
 0002:0000f648       ??_C@_1BE@DHIL@?$AAm?$AAa?$AAi?$AAl?$AAt?$AAo?$AA?3?$AA?1?$AA?1?$AA?$AA?$AA?$AH?$AA?$AA?$AA?$AA?$AA?$AA?$ACD?$AF?$:O?$AA?$BE?$AA?$AB?$AA?$AC?$AA?$AA@ 5f4c1648   inet.obj
 0002:0000f65c       ??_C@_1BA@NICG@?$AAf?$AAi?$AAl?$AAe?$AA?3?$AA?1?$AA?1?$AA?$AA?$AA?$AH?$AA?$AA?$AA?$AA?$AA?$AA?$AB?$AF?$:O?$AA?$BA?$AA?$AB@ 5f4c165c   inet.obj
 0002:0000f66c       ??_C@_1BC@KNA@?$AAs?$AAh?$AAt?$AAt?$AAp?$AA?3?$AA?1?$AA?1?$AA?$AA?$AA?$AA?$AA?$AH?$AA?$AA?$AA?$AA?$AA?$AA?$AB?$GA?$AF?$:O?$AA?$BC?$AA?$AB@ 5f4c166c   inet.obj
 0002:0000f730       ?szHtmlVerbs@CHttpConnection@@1PBQBGB 5f4c1730   inet.obj
 0002:0000f750       ?classCInternetException@CInternetException@@2UCRuntimeClass@@B 5f4c1750   inet.obj
 0002:0000f768       ?classCInternetFile@CInternetFile@@2UCRuntimeClass@@B 5f4c1768   inet.obj
 0002:0000f780       ?classCHttpFile@CHttpFile@@2UCRuntimeClass@@B 5f4c1780   inet.obj
 0002:0000f798       ?classCGopherFile@CGopherFile@@2UCRuntimeClass@@B 5f4c1798   inet.obj
 0002:0000f7b0       ?classCInternetSession@CInternetSession@@2UCRuntimeClass@@B 5f4c17b0   inet.obj
 0002:0000f7c8       ?classCInternetConnection@CInternetConnection@@2UCRuntimeClass@@B 5f4c17c8   inet.obj
 0002:0000f7e0       ?classCFtpConnection@CFtpConnection@@2UCRuntimeClass@@B 5f4c17e0   inet.obj
 0002:0000f7f8       ?classCHttpConnection@CHttpConnection@@2UCRuntimeClass@@B 5f4c17f8   inet.obj
 0002:0000f810       ?classCGopherConnection@CGopherConnection@@2UCRuntimeClass@@B 5f4c1810   inet.obj
 0002:0000f828       ?classCFtpFileFind@CFtpFileFind@@2UCRuntimeClass@@B 5f4c1828   inet.obj
 0002:0000f840       ?classCGopherFileFind@CGopherFileFind@@2UCRuntimeClass@@B 5f4c1840   inet.obj
 0002:0000f858       ??_C@_08FGEG@inet?4cpp?$AA@ 5f4c1858   inet.obj
 0002:0000f864       ??_C@_1CI@JKPN@?$AAU?$AAn?$AAk?$AAn?$AAo?$AAw?$AAn?$AA?5?$AAs?$AAt?$AAa?$AAt?$AAu?$AAs?$AA?3?$AA?5?$AA?$CF?$AAd?$AA?6?$AA?$AA@ 5f4c1864   inet.obj
 0002:0000f88c       ??_C@_1DO@GNCG@?$AAr?$AAe?$AAq?$AAu?$AAe?$AAs?$AAt?$AA?5?$AAc?$AAo?$AAm?$AAp?$AAl?$AAe?$AAt?$AAe?$AA?0?$AA?5?$AAs?$AAt@ 5f4c188c   inet.obj
 0002:0000f8cc       ??_C@_1CM@LCCE@?$AAh?$AAa?$AAn?$AAd?$AAl?$AAe?$AA?5?$AAc?$AAl?$AAo?$AAs?$AAe?$AAd?$AA?$CB?$AA?5?$AA?$CF?$AA8?$AA?4?$AA8?$AAX@ 5f4c18cc   inet.obj
 0002:0000f8f8       ??_C@_1DE@PFFJ@?$AAc?$AAo?$AAn?$AAn?$AAe?$AAc?$AAt?$AAi?$AAo?$AAn?$AA?5?$AAc?$AAl?$AAo?$AAs?$AAe?$AAd?$AA?$CB?$AA?5?$AA?$CF@ 5f4c18f8   inet.obj
 0002:0000f92c       ??_C@_1DK@HNDP@?$AAc?$AAl?$AAo?$AAs?$AAi?$AAn?$AAg?$AA?5?$AAc?$AAo?$AAn?$AAn?$AAe?$AAc?$AAt?$AAi?$AAo?$AAn?$AA?4?$AA?4@ 5f4c192c   inet.obj
 0002:0000f968       ??_C@_1CI@MDEA@?$AAr?$AAe?$AAs?$AAp?$AAo?$AAn?$AAs?$AAe?$AA?5?$AAr?$AAe?$AAc?$AAe?$AAi?$AAv?$AAe?$AAd?$AA?$CB?$AA?6?$AA?$AA@ 5f4c1968   inet.obj
 0002:0000f990       ??_C@_1CO@ENDF@?$AAr?$AAe?$AAc?$AAe?$AAi?$AAv?$AAi?$AAn?$AAg?$AA?5?$AAr?$AAe?$AAs?$AAp?$AAo?$AAn?$AAs?$AAe?$AA?4?$AA?4@ 5f4c1990   inet.obj
 0002:0000f9c0       ??_C@_1DM@HJAA@?$AAc?$AAo?$AAn?$AAn?$AAe?$AAc?$AAt?$AAe?$AAd?$AA?5?$AAt?$AAo?$AA?5?$AAs?$AAo?$AAc?$AAk?$AAe?$AAt?$AA?5@ 5f4c19c0   inet.obj
 0002:0000f9fc       ??_C@_1BO@IILD@?$AAr?$AAe?$AAq?$AAu?$AAe?$AAs?$AAt?$AA?5?$AAs?$AAe?$AAn?$AAt?$AA?$CB?$AA?6?$AA?$AA?$AA?$AA?$AA?$AH?$AA?$AA?$AA?$AA?$AA?$AA@ 5f4c19fc   inet.obj
 0002:0000fa1c       ??_C@_1CI@IGPM@?$AAs?$AAe?$AAn?$AAd?$AAi?$AAn?$AAg?$AA?5?$AAr?$AAe?$AAq?$AAu?$AAe?$AAs?$AAt?$AA?4?$AA?4?$AA?4?$AA?6?$AA?$AA@ 5f4c1a1c   inet.obj
 0002:0000fa44       ??_C@_1EG@KDCF@?$AAc?$AAo?$AAn?$AAn?$AAe?$AAc?$AAt?$AAi?$AAn?$AAg?$AA?5?$AAt?$AAo?$AA?5?$AAs?$AAo?$AAc?$AAk?$AAe?$AAt@ 5f4c1a44   inet.obj
 0002:0000fa8c       ??_C@_1EC@BPD@?$AAc?$AAo?$AAn?$AAn?$AAe?$AAc?$AAt?$AAi?$AAn?$AAg?$AA?5?$AAt?$AAo?$AA?5?$AAs?$AAo?$AAc?$AAk?$AAe?$AAt@ 5f4c1a8c   inet.obj
 0002:0000fad0       ??_C@_1CA@MGOH@?$AAh?$AAa?$AAn?$AAd?$AAl?$AAe?$AA?5?$AAc?$AAr?$AAe?$AAa?$AAt?$AAe?$AAd?$AA?6?$AA?$AA?$AA?$AH?$AA?$AA?$AA?$AA?$AA?$AA@ 5f4c1ad0   inet.obj
 0002:0000faf0       ??_C@_1CO@MKEC@?$AAr?$AAe?$AAs?$AAo?$AAl?$AAv?$AAe?$AAd?$AA?5?$AAn?$AAa?$AAm?$AAe?$AA?5?$AAf?$AAo?$AAr?$AA?5?$AA?$CF?$AAs@ 5f4c1af0   inet.obj
 0002:0000fb20       ??_C@_1CO@FDOL@?$AAr?$AAe?$AAs?$AAo?$AAl?$AAv?$AAi?$AAn?$AAg?$AA?5?$AAn?$AAa?$AAm?$AAe?$AA?5?$AAf?$AAo?$AAr?$AA?5?$AA?$CF@ 5f4c1b20   inet.obj
 0002:0000fb50       ??_C@_1CG@LKHP@?$AAI?$AAn?$AAt?$AAe?$AAr?$AAn?$AAe?$AAt?$AA?5?$AAc?$AAt?$AAx?$AAt?$AA?$DN?$AA?$CF?$AAd?$AA?3?$AA?5?$AA?$AA?$AA?$AA@ 5f4c1b50   inet.obj
 0002:0000fb7c       ??_7CInternetSession@@6B@  5f4c1b7c   inet.obj
 0002:0000fb98       ??_C@_1FC@CAPM@?$AAE?$AAr?$AAr?$AAo?$AAr?$AA?3?$AA?5?$AAU?$AAn?$AAi?$AAd?$AAe?$AAn?$AAt?$AAi?$AAf?$AAi?$AAe?$AAd?$AA?5@ 5f4c1b98   inet.obj
 0002:0000fbec       ??_C@_0BA@CGKN@?6m_dwContext?5?$DN?5?$AA@ 5f4c1bec   inet.obj
 0002:0000fbfc       ??_C@_0O@GFCO@m_hSession?5?$DN?5?$AA@ 5f4c1bfc   inet.obj
 0002:0000fc14       ??_7CInternetFile@@6B@     5f4c1c14   inet.obj
 0002:0000fc7c       ??_C@_1GE@BEFK@?$AAW?$AAa?$AAr?$AAn?$AAi?$AAn?$AAg?$AA?3?$AA?5?$AAd?$AAe?$AAs?$AAt?$AAr?$AAo?$AAy?$AAi?$AAn?$AAg?$AA?5@ 5f4c1c7c   inet.obj
 0002:0000fce0       ??_C@_0O@ONDP@?5with?5handle?5?$AA@ 5f4c1ce0   inet.obj
 0002:0000fcf0       ??_C@_03PCF@?6a?5?$AA@     5f4c1cf0   inet.obj
 0002:0000fcfc       ??_7CInternetConnection@@6B@ 5f4c1cfc   inet.obj
 0002:0000fd14       ??_C@_1JC@GBFE@?$AAW?$AAa?$AAr?$AAn?$AAi?$AAn?$AAg?$AA?3?$AA?5?$AAD?$AAi?$AAs?$AAc?$AAo?$AAn?$AAn?$AAe?$AAc?$AAt?$AAi@ 5f4c1d14   inet.obj
 0002:0000fda8       ??_C@_0BB@JPFC@m_hConnection?5?$DN?5?$AA@ 5f4c1da8   inet.obj
 0002:0000fdc4       ??_7CFtpConnection@@6B@    5f4c1dc4   inet.obj
 0002:0000fddc       ??_C@_13GMAB@?$AA?1?$AA?$AA?$AA?$AH?$AA?$AA@ 5f4c1ddc   inet.obj
 0002:0000fde0       ??_C@_0BE@LGJ@?6m_strServerName?5?$DN?5?$AA@ 5f4c1de0   inet.obj
 0002:0000fdfc       ??_7CGopherConnection@@6B@ 5f4c1dfc   inet.obj
 0002:0000fe1c       ??_7CHttpConnection@@6B@   5f4c1e1c   inet.obj
 0002:0000fe34       ??_C@_1BC@IFNG@?$AAH?$AAT?$AAT?$AAP?$AA?1?$AA1?$AA?4?$AA0?$AA?$AA?$AA?$AA?$AA?$AH?$AA?$AA?$AA?$AA?$AA?$AA?$AN?$AF?$:O?$AA?$BC?$AA?$AB@ 5f4c1e34   inet.obj
 0002:0000fe4c       ??_7CHttpFile@@6B@         5f4c1e4c   inet.obj
 0002:0000feb8       ??_C@_0O@GCD@?6m_strVerb?5?$DN?5?$AA@ 5f4c1eb8   inet.obj
 0002:0000fec8       ??_C@_0BE@HPEN@?6m_strObjectName?5?$DN?5?$AA@ 5f4c1ec8   inet.obj
 0002:0000fee4       ??_7CGopherFile@@6B@       5f4c1ee4   inet.obj
 0002:0000ff54       ??_7CFtpFileFind@@6B@      5f4c1f54   inet.obj
 0002:0000ffa8       ??_C@_15OGLP@?$AA?2?$AA?1?$AA?$AA?$AA?$AA?$AA?$AH?$AA?$AA@ 5f4c1fa8   inet.obj
 0002:0000ffb0       ??_C@_13HGEN@?$AA?$CK?$AA?$AA?$AA?$AH?$AA?$AA@ 5f4c1fb0   inet.obj
 0002:0000ffb4       ??_C@_0O@MBAB@m_hContext?5?$DN?5?$AA@ 5f4c1fb4   inet.obj
 0002:0000ffcc       ??_7CGopherFileFind@@6B@   5f4c1fcc   inet.obj
 0002:00010034       ??_7CGopherLocator@@6B@    5f4c2034   inet.obj
 0002:00010048       ??_C@_1GG@MPDM@?$AAW?$AAa?$AAr?$AAn?$AAi?$AAn?$AAg?$AA?3?$AA?5?$AAt?$AAh?$AAr?$AAo?$AAw?$AAi?$AAn?$AAg?$AA?5?$AAC?$AAI@ 5f4c2048   inet.obj
 0002:000100b0       ??_C@_1HA@LAJN@?$AAW?$AAa?$AAr?$AAn?$AAi?$AAn?$AAg?$AA?3?$AA?5?$AAE?$AAx?$AAt?$AAe?$AAn?$AAd?$AAe?$AAd?$AA?5?$AAe?$AAr@ 5f4c20b0   inet.obj
 0002:00010124       ??_7CInternetException@@6B@ 5f4c2124   inet.obj
 0002:00010140       ??_C@_0N@OJLI@m_dwError?5?$DN?5?$AA@ 5f4c2140   inet.obj
 0002:00010150       ??_C@_09CGCC@CFileFind?$AA@ 5f4c2150   filefind.obj
 0002:00010160       ?classCFileFind@CFileFind@@2UCRuntimeClass@@B 5f4c2160   filefind.obj
 0002:0001017c       ??_7CFileFind@@6B@         5f4c217c   filefind.obj
 0002:000101d0       ??_C@_0N@IJHF@filefind?4cpp?$AA@ 5f4c21d0   filefind.obj
 0002:000101e0       ??_C@_07LDFI@file?3?1?1?$AA@ 5f4c21e0   filefind.obj
 0002:000101e8       ??_C@_0P@IDCI@?6m_hContext?5?$DN?5?$AA@ 5f4c21e8   filefind.obj
 0002:00010204       ??_C@_0O@EAEK@InternetOpenW?$AA@ 5f4c2204   inetimpl.obj
 0002:00010214       ??_C@_1EA@BBNE@?$AAE?$AAr?$AAr?$AAo?$AAr?$AA?3?$AA?5?$AAC?$AAo?$AAu?$AAl?$AAd?$AAn?$AA?8?$AAt?$AA?5?$AAf?$AAi?$AAn?$AAd@ 5f4c2214   inetimpl.obj
 0002:00010254       ??_C@_1DE@MEMG@?$AAE?$AAr?$AAr?$AAo?$AAr?$AA?3?$AA?5?$AAC?$AAo?$AAu?$AAl?$AAd?$AAn?$AA?8?$AAt?$AA?5?$AAl?$AAo?$AAa?$AAd@ 5f4c2254   inetimpl.obj
 0002:00010288       ??_C@_0N@ONAD@inetimpl?4cpp?$AA@ 5f4c2288   inetimpl.obj
 0002:00010298       ??_C@_0BE@EGND@InternetCloseHandle?$AA@ 5f4c2298   inetimpl.obj
 0002:000102ac       ??_C@_0BB@FBJN@InternetOpenUrlW?$AA@ 5f4c22ac   inetimpl.obj
 0002:000102c0       ??_C@_0BB@EDGA@InternetReadFile?$AA@ 5f4c22c0   inetimpl.obj
 0002:000102d4       ??_C@_0BC@JPFE@InternetWriteFile?$AA@ 5f4c22d4   inetimpl.obj
 0002:000102e8       ??_C@_0BK@MEPM@InternetSetStatusCallback?$AA@ 5f4c22e8   inetimpl.obj
 0002:00010304       ??_C@_0BF@GAPP@InternetQueryOptionW?$AA@ 5f4c2304   inetimpl.obj
 0002:0001031c       ??_C@_0BD@FEEK@InternetSetOptionW?$AA@ 5f4c231c   inetimpl.obj
 0002:00010330       ??_C@_0BF@PBCP@InternetSetOptionExW?$AA@ 5f4c2330   inetimpl.obj
 0002:00010348       ??_C@_0BN@CAKI@InternetGetLastResponseInfoW?$AA@ 5f4c2348   inetimpl.obj
 0002:00010368       ??_C@_0BG@ELMH@InternetFindNextFileW?$AA@ 5f4c2368   inetimpl.obj
 0002:00010380       ??_C@_0BB@CEEP@InternetConnectW?$AA@ 5f4c2380   inetimpl.obj
 0002:00010394       ??_C@_0BH@GKBG@InternetSetFilePointer?$AA@ 5f4c2394   inetimpl.obj
 0002:000103ac       ??_C@_0BL@DOOO@InternetQueryDataAvailable?$AA@ 5f4c23ac   inetimpl.obj
 0002:000103c8       ??_C@_0BC@GHDE@FtpFindFirstFileW?$AA@ 5f4c23c8   inetimpl.obj
 0002:000103dc       ??_C@_0M@GFOK@FtpGetFileW?$AA@ 5f4c23dc   inetimpl.obj
 0002:000103e8       ??_C@_0M@PGJA@FtpPutFileW?$AA@ 5f4c23e8   inetimpl.obj
 0002:000103f4       ??_C@_0P@IIFK@FtpDeleteFileW?$AA@ 5f4c23f4   inetimpl.obj
 0002:00010404       ??_C@_0P@EIMO@FtpRenameFileW?$AA@ 5f4c2404   inetimpl.obj
 0002:00010414       ??_C@_0BE@JEMI@FtpCreateDirectoryW?$AA@ 5f4c2414   inetimpl.obj
 0002:00010428       ??_C@_0BE@HLBJ@FtpRemoveDirectoryW?$AA@ 5f4c2428   inetimpl.obj
 0002:0001043c       ??_C@_0BI@PEEN@FtpSetCurrentDirectoryW?$AA@ 5f4c243c   inetimpl.obj
 0002:00010454       ??_C@_0BI@MEFE@FtpGetCurrentDirectoryW?$AA@ 5f4c2454   inetimpl.obj
 0002:0001046c       ??_C@_0M@HDIN@FtpCommandW?$AA@ 5f4c246c   inetimpl.obj
 0002:00010478       ??_C@_0N@PDKL@FtpOpenFileW?$AA@ 5f4c2478   inetimpl.obj
 0002:00010488       ??_C@_0BF@CHNK@GopherFindFirstFileW?$AA@ 5f4c2488   inetimpl.obj
 0002:000104a0       ??_C@_0BA@OIAB@GopherOpenFileW?$AA@ 5f4c24a0   inetimpl.obj
 0002:000104b0       ??_C@_0BF@EEMN@GopherCreateLocatorW?$AA@ 5f4c24b0   inetimpl.obj
 0002:000104c8       ??_C@_0BE@NML@GopherGetAttributeW?$AA@ 5f4c24c8   inetimpl.obj
 0002:000104dc       ??_C@_0BG@EHGG@GopherGetLocatorTypeW?$AA@ 5f4c24dc   inetimpl.obj
 0002:000104f4       ??_C@_0BB@GEIK@HttpOpenRequestW?$AA@ 5f4c24f4   inetimpl.obj
 0002:00010508       ??_C@_0BH@DMMM@HttpAddRequestHeadersW?$AA@ 5f4c2508   inetimpl.obj
 0002:00010520       ??_C@_0BB@PCBF@HttpSendRequestW?$AA@ 5f4c2520   inetimpl.obj
 0002:00010534       ??_C@_0P@BBEB@HttpQueryInfoW?$AA@ 5f4c2534   inetimpl.obj
 0002:00010544       ??_C@_0BC@IKLO@InternetErrorDlgW?$AA@ 5f4c2544   inetimpl.obj
 0002:00010558       ??_C@_0BA@FNMJ@CDynLinkLibrary?$AA@ 5f4c2558   dllinit.obj
 0002:00010568       ?classCDynLinkLibrary@CDynLinkLibrary@@2UCRuntimeClass@@B 5f4c2568   dllinit.obj
 0002:0001059c       ??_7CDynLinkLibrary@@6B@   5f4c259c   dllinit.obj
 0002:000105f4       ??_C@_0BI@LMNE@?6module?5name?5is?5unknown?$AA@ 5f4c25f4   dllinit.obj
 0002:0001060c       ??_C@_0BA@EJOI@?6module?5name?5?$DN?5?$AA@ 5f4c260c   dllinit.obj
 0002:0001061c       ??_C@_0BA@EPIG@?6m_hResource?5?$DN?5?$AA@ 5f4c261c   dllinit.obj
 0002:0001062c       ??_C@_0N@COLJ@m_hModule?5?$DN?5?$AA@ 5f4c262c   dllinit.obj
 0002:0001063c       ??_C@_0JB@KLFG@This?5application?5or?5DLL?5can?5not?5@ 5f4c263c   dllinit.obj
 0002:000106d0       ??_C@_0BD@CCKL@MFC?5Runtime?5Module?$AA@ 5f4c26d0   dllinit.obj
 0002:000106e4       ??_C@_0M@LDMD@MSVCRTD?4DLL?$AA@ 5f4c26e4   dllinit.obj
 0002:000106f4       ??_7type_info@@6B@         5f4c26f4   msvcrtd:ti_inst.obj
 0002:00010724       ??_C@_08JKC@crtdll?4c?$AA@ 5f4c2724   msvcrtd:crtdll.obj
 0002:00010730       ??_R4CException@@6B@       5f4c2730   except.obj
 0002:00010748       ??_R3CException@@8         5f4c2748   except.obj
 0002:00010758       ??_R2CException@@8         5f4c2758   except.obj
 0002:00010768       ??_R1A@?0A@A@CException@@8 5f4c2768   except.obj
 0002:00010780       ??_R1A@?0A@A@CObject@@8    5f4c2780   except.obj
 0002:00010798       ??_R4CArchiveStream@@6B@   5f4c2798   arcstrm.obj
 0002:000107b0       ??_R3CArchiveStream@@8     5f4c27b0   arcstrm.obj
 0002:000107c0       ??_R2CArchiveStream@@8     5f4c27c0   arcstrm.obj
 0002:000107d8       ??_R1A@?0A@A@CArchiveStream@@8 5f4c27d8   arcstrm.obj
 0002:000107f0       ??_R1A@?0A@A@IStream@@8    5f4c27f0   arcstrm.obj
 0002:00010808       ??_R1A@?0A@A@IUnknown@@8   5f4c2808   arcstrm.obj
 0002:00010820       ??_R1A@?0A@A@ISequentialStream@@8 5f4c2820   arcstrm.obj
 0002:00010838       ??_R4IStream@@6B@          5f4c2838   arcstrm.obj
 0002:00010850       ??_R3IStream@@8            5f4c2850   arcstrm.obj
 0002:00010860       ??_R2IStream@@8            5f4c2860   arcstrm.obj
 0002:00010870       ??_R4ISequentialStream@@6B@ 5f4c2870   arcstrm.obj
 0002:00010888       ??_R3ISequentialStream@@8  5f4c2888   arcstrm.obj
 0002:00010898       ??_R2ISequentialStream@@8  5f4c2898   arcstrm.obj
 0002:000108a8       ??_R4IUnknown@@6B@         5f4c28a8   arcstrm.obj
 0002:000108c0       ??_R3IUnknown@@8           5f4c28c0   arcstrm.obj
 0002:000108d0       ??_R2IUnknown@@8           5f4c28d0   arcstrm.obj
 0002:000108d8       ??_R4_AFX_DEBUG_STATE@@6B@ 5f4c28d8   dumpinit.obj
 0002:000108f0       ??_R3_AFX_DEBUG_STATE@@8   5f4c28f0   dumpinit.obj
 0002:00010900       ??_R2_AFX_DEBUG_STATE@@8   5f4c2900   dumpinit.obj
 0002:00010910       ??_R1A@?0A@A@_AFX_DEBUG_STATE@@8 5f4c2910   dumpinit.obj
 0002:00010928       ??_R1A@?0A@A@CNoTrackObject@@8 5f4c2928   dumpinit.obj
 0002:00010940       ??_R4CNoTrackObject@@6B@   5f4c2940   dumpinit.obj
 0002:00010958       ??_R3CNoTrackObject@@8     5f4c2958   dumpinit.obj
 0002:00010968       ??_R2CNoTrackObject@@8     5f4c2968   dumpinit.obj
 0002:00010970       ??_R4CObject@@6B@          5f4c2970   afxinl1.obj
 0002:00010988       ??_R3CObject@@8            5f4c2988   afxinl1.obj
 0002:00010998       ??_R2CObject@@8            5f4c2998   afxinl1.obj
 0002:000109a0       ??_R4CSimpleException@@6B@ 5f4c29a0   afxinl1.obj
 0002:000109b8       ??_R3CSimpleException@@8   5f4c29b8   afxinl1.obj
 0002:000109c8       ??_R2CSimpleException@@8   5f4c29c8   afxinl1.obj
 0002:000109d8       ??_R1A@?0A@A@CSimpleException@@8 5f4c29d8   afxinl1.obj
 0002:000109f0       ??_R4CMemoryException@@6B@ 5f4c29f0   afxinl1.obj
 0002:00010a08       ??_R3CMemoryException@@8   5f4c2a08   afxinl1.obj
 0002:00010a18       ??_R2CMemoryException@@8   5f4c2a18   afxinl1.obj
 0002:00010a30       ??_R1A@?0A@A@CMemoryException@@8 5f4c2a30   afxinl1.obj
 0002:00010a48       ??_R4CNotSupportedException@@6B@ 5f4c2a48   afxinl1.obj
 0002:00010a60       ??_R3CNotSupportedException@@8 5f4c2a60   afxinl1.obj
 0002:00010a70       ??_R2CNotSupportedException@@8 5f4c2a70   afxinl1.obj
 0002:00010a88       ??_R1A@?0A@A@CNotSupportedException@@8 5f4c2a88   afxinl1.obj
 0002:00010aa0       ??_R4CArchiveException@@6B@ 5f4c2aa0   afxinl1.obj
 0002:00010ab8       ??_R3CArchiveException@@8  5f4c2ab8   afxinl1.obj
 0002:00010ac8       ??_R2CArchiveException@@8  5f4c2ac8   afxinl1.obj
 0002:00010ad8       ??_R1A@?0A@A@CArchiveException@@8 5f4c2ad8   afxinl1.obj
 0002:00010af0       ??_R4CFileException@@6B@   5f4c2af0   afxinl1.obj
 0002:00010b08       ??_R3CFileException@@8     5f4c2b08   afxinl1.obj
 0002:00010b18       ??_R2CFileException@@8     5f4c2b18   afxinl1.obj
 0002:00010b28       ??_R1A@?0A@A@CFileException@@8 5f4c2b28   afxinl1.obj
 0002:00010b40       ??_R4CCommonDialog@@6B@    5f4c2b40   afxinl1.obj
 0002:00010b58       ??_R3CCommonDialog@@8      5f4c2b58   afxinl1.obj
 0002:00010b68       ??_R2CCommonDialog@@8      5f4c2b68   afxinl1.obj
 0002:00010b80       ??_R1A@?0A@A@CDialog@@8    5f4c2b80   afxinl1.obj
 0002:00010b98       ??_R1A@?0A@A@CCommonDialog@@8 5f4c2b98   afxinl1.obj
 0002:00010bb0       ??_R1A@?0A@A@CCmdTarget@@8 5f4c2bb0   afxinl1.obj
 0002:00010bc8       ??_R1A@?0A@A@CWnd@@8       5f4c2bc8   afxinl1.obj
 0002:00010be0       ??_R4CRectTracker@@6B@     5f4c2be0   afxinl1.obj
 0002:00010bf8       ??_R3CRectTracker@@8       5f4c2bf8   afxinl1.obj
 0002:00010c08       ??_R2CRectTracker@@8       5f4c2c08   afxinl1.obj
 0002:00010c10       ??_R1A@?0A@A@CRectTracker@@8 5f4c2c10   afxinl1.obj
 0002:00010c28       ??_R4CBitmapButton@@6B@    5f4c2c28   afxinl1.obj
 0002:00010c40       ??_R3CBitmapButton@@8      5f4c2c40   afxinl1.obj
 0002:00010c50       ??_R2CBitmapButton@@8      5f4c2c50   afxinl1.obj
 0002:00010c68       ??_R1A@?0A@A@CButton@@8    5f4c2c68   afxinl1.obj
 0002:00010c80       ??_R1A@?0A@A@CBitmapButton@@8 5f4c2c80   afxinl1.obj
 0002:00010c98       ??_R4CResourceException@@6B@ 5f4c2c98   afxinl2.obj
 0002:00010cb0       ??_R3CResourceException@@8 5f4c2cb0   afxinl2.obj
 0002:00010cc0       ??_R2CResourceException@@8 5f4c2cc0   afxinl2.obj
 0002:00010cd8       ??_R1A@?0A@A@CResourceException@@8 5f4c2cd8   afxinl2.obj
 0002:00010cf0       ??_R4CUserException@@6B@   5f4c2cf0   afxinl2.obj
 0002:00010d08       ??_R3CUserException@@8     5f4c2d08   afxinl2.obj
 0002:00010d18       ??_R2CUserException@@8     5f4c2d18   afxinl2.obj
 0002:00010d30       ??_R1A@?0A@A@CUserException@@8 5f4c2d30   afxinl2.obj
 0002:00010d48       ??_R4CGdiObject@@6B@       5f4c2d48   afxinl2.obj
 0002:00010d60       ??_R3CGdiObject@@8         5f4c2d60   afxinl2.obj
 0002:00010d70       ??_R2CGdiObject@@8         5f4c2d70   afxinl2.obj
 0002:00010d80       ??_R1A@?0A@A@CGdiObject@@8 5f4c2d80   afxinl2.obj
 0002:00010d98       ??_R4CPen@@6B@             5f4c2d98   afxinl2.obj
 0002:00010db0       ??_R3CPen@@8               5f4c2db0   afxinl2.obj
 0002:00010dc0       ??_R2CPen@@8               5f4c2dc0   afxinl2.obj
 0002:00010dd0       ??_R1A@?0A@A@CPen@@8       5f4c2dd0   afxinl2.obj
 0002:00010de8       ??_R4CBrush@@6B@           5f4c2de8   afxinl2.obj
 0002:00010e00       ??_R3CBrush@@8             5f4c2e00   afxinl2.obj
 0002:00010e10       ??_R2CBrush@@8             5f4c2e10   afxinl2.obj
 0002:00010e20       ??_R1A@?0A@A@CBrush@@8     5f4c2e20   afxinl2.obj
 0002:00010e38       ??_R4CFont@@6B@            5f4c2e38   afxinl2.obj
 0002:00010e50       ??_R3CFont@@8              5f4c2e50   afxinl2.obj
 0002:00010e60       ??_R2CFont@@8              5f4c2e60   afxinl2.obj
 0002:00010e70       ??_R1A@?0A@A@CFont@@8      5f4c2e70   afxinl2.obj
 0002:00010e88       ??_R4CBitmap@@6B@          5f4c2e88   afxinl2.obj
 0002:00010ea0       ??_R3CBitmap@@8            5f4c2ea0   afxinl2.obj
 0002:00010eb0       ??_R2CBitmap@@8            5f4c2eb0   afxinl2.obj
 0002:00010ec0       ??_R1A@?0A@A@CBitmap@@8    5f4c2ec0   afxinl2.obj
 0002:00010ed8       ??_R4CPalette@@6B@         5f4c2ed8   afxinl2.obj
 0002:00010ef0       ??_R3CPalette@@8           5f4c2ef0   afxinl2.obj
 0002:00010f00       ??_R2CPalette@@8           5f4c2f00   afxinl2.obj
 0002:00010f10       ??_R1A@?0A@A@CPalette@@8   5f4c2f10   afxinl2.obj
 0002:00010f28       ??_R4CRgn@@6B@             5f4c2f28   afxinl2.obj
 0002:00010f40       ??_R3CRgn@@8               5f4c2f40   afxinl2.obj
 0002:00010f50       ??_R2CRgn@@8               5f4c2f50   afxinl2.obj
 0002:00010f60       ??_R1A@?0A@A@CRgn@@8       5f4c2f60   afxinl2.obj
 0002:00010f78       ??_R4CMenu@@6B@            5f4c2f78   afxinl2.obj
 0002:00010f90       ??_R3CMenu@@8              5f4c2f90   afxinl2.obj
 0002:00010fa0       ??_R2CMenu@@8              5f4c2fa0   afxinl2.obj
 0002:00010fb0       ??_R1A@?0A@A@CMenu@@8      5f4c2fb0   afxinl2.obj
 0002:00010fc8       ??_R4CStatic@@6B@          5f4c2fc8   afxinl3.obj
 0002:00010fe0       ??_R3CStatic@@8            5f4c2fe0   afxinl3.obj
 0002:00010ff0       ??_R2CStatic@@8            5f4c2ff0   afxinl3.obj
 0002:00011008       ??_R1A@?0A@A@CStatic@@8    5f4c3008   afxinl3.obj
 0002:00011020       ??_R4CButton@@6B@          5f4c3020   afxinl3.obj
 0002:00011038       ??_R3CButton@@8            5f4c3038   afxinl3.obj
 0002:00011048       ??_R2CButton@@8            5f4c3048   afxinl3.obj
 0002:00011060       ??_R4CListBox@@6B@         5f4c3060   afxinl3.obj
 0002:00011078       ??_R3CListBox@@8           5f4c3078   afxinl3.obj
 0002:00011088       ??_R2CListBox@@8           5f4c3088   afxinl3.obj
 0002:000110a0       ??_R1A@?0A@A@CListBox@@8   5f4c30a0   afxinl3.obj
 0002:000110b8       ??_R4CCheckListBox@@6B@    5f4c30b8   afxinl3.obj
 0002:000110d0       ??_R3CCheckListBox@@8      5f4c30d0   afxinl3.obj
 0002:000110e0       ??_R2CCheckListBox@@8      5f4c30e0   afxinl3.obj
 0002:000110f8       ??_R1A@?0A@A@CCheckListBox@@8 5f4c30f8   afxinl3.obj
 0002:00011110       ??_R4CComboBox@@6B@        5f4c3110   afxinl3.obj
 0002:00011128       ??_R3CComboBox@@8          5f4c3128   afxinl3.obj
 0002:00011138       ??_R2CComboBox@@8          5f4c3138   afxinl3.obj
 0002:00011150       ??_R1A@?0A@A@CComboBox@@8  5f4c3150   afxinl3.obj
 0002:00011168       ??_R4CEdit@@6B@            5f4c3168   afxinl3.obj
 0002:00011180       ??_R3CEdit@@8              5f4c3180   afxinl3.obj
 0002:00011190       ??_R2CEdit@@8              5f4c3190   afxinl3.obj
 0002:000111a8       ??_R1A@?0A@A@CEdit@@8      5f4c31a8   afxinl3.obj
 0002:000111c0       ??_R4CScrollBar@@6B@       5f4c31c0   afxinl3.obj
 0002:000111d8       ??_R3CScrollBar@@8         5f4c31d8   afxinl3.obj
 0002:000111e8       ??_R2CScrollBar@@8         5f4c31e8   afxinl3.obj
 0002:00011200       ??_R1A@?0A@A@CScrollBar@@8 5f4c3200   afxinl3.obj
 0002:00011218       ??_R4CFile@@6B@            5f4c3218   filecore.obj
 0002:00011230       ??_R3CFile@@8              5f4c3230   filecore.obj
 0002:00011240       ??_R2CFile@@8              5f4c3240   filecore.obj
 0002:00011250       ??_R1A@?0A@A@CFile@@8      5f4c3250   filecore.obj
 0002:00011268       ??_R4CStdioFile@@6B@       5f4c3268   filetxt.obj
 0002:00011280       ??_R3CStdioFile@@8         5f4c3280   filetxt.obj
 0002:00011290       ??_R2CStdioFile@@8         5f4c3290   filetxt.obj
 0002:000112a0       ??_R1A@?0A@A@CStdioFile@@8 5f4c32a0   filetxt.obj
 0002:000112b8       ??_R4CMemFile@@6B@         5f4c32b8   filemem.obj
 0002:000112d0       ??_R3CMemFile@@8           5f4c32d0   filemem.obj
 0002:000112e0       ??_R2CMemFile@@8           5f4c32e0   filemem.obj
 0002:000112f0       ??_R1A@?0A@A@CMemFile@@8   5f4c32f0   filemem.obj
 0002:00011308       ??_R4CSharedFile@@6B@      5f4c3308   fileshrd.obj
 0002:00011320       ??_R3CSharedFile@@8        5f4c3320   fileshrd.obj
 0002:00011330       ??_R2CSharedFile@@8        5f4c3330   fileshrd.obj
 0002:00011348       ??_R1A@?0A@A@CSharedFile@@8 5f4c3348   fileshrd.obj
 0002:00011360       ??_R4CByteArray@@6B@       5f4c3360   array_b.obj
 0002:00011378       ??_R3CByteArray@@8         5f4c3378   array_b.obj
 0002:00011388       ??_R2CByteArray@@8         5f4c3388   array_b.obj
 0002:00011398       ??_R1A@?0A@A@CByteArray@@8 5f4c3398   array_b.obj
 0002:000113b0       ??_R4CDWordArray@@6B@      5f4c33b0   array_d.obj
 0002:000113c8       ??_R3CDWordArray@@8        5f4c33c8   array_d.obj
 0002:000113d8       ??_R2CDWordArray@@8        5f4c33d8   array_d.obj
 0002:000113e8       ??_R1A@?0A@A@CDWordArray@@8 5f4c33e8   array_d.obj
 0002:00011400       ??_R4CPtrArray@@6B@        5f4c3400   array_p.obj
 0002:00011418       ??_R3CPtrArray@@8          5f4c3418   array_p.obj
 0002:00011428       ??_R2CPtrArray@@8          5f4c3428   array_p.obj
 0002:00011438       ??_R1A@?0A@A@CPtrArray@@8  5f4c3438   array_p.obj
 0002:00011450       ??_R4CObArray@@6B@         5f4c3450   array_o.obj
 0002:00011468       ??_R3CObArray@@8           5f4c3468   array_o.obj
 0002:00011478       ??_R2CObArray@@8           5f4c3478   array_o.obj
 0002:00011488       ??_R1A@?0A@A@CObArray@@8   5f4c3488   array_o.obj
 0002:000114a0       ??_R4CStringArray@@6B@     5f4c34a0   array_s.obj
 0002:000114b8       ??_R3CStringArray@@8       5f4c34b8   array_s.obj
 0002:000114c8       ??_R2CStringArray@@8       5f4c34c8   array_s.obj
 0002:000114d8       ??_R1A@?0A@A@CStringArray@@8 5f4c34d8   array_s.obj
 0002:000114f0       ??_R4CUIntArray@@6B@       5f4c34f0   array_u.obj
 0002:00011508       ??_R3CUIntArray@@8         5f4c3508   array_u.obj
 0002:00011518       ??_R2CUIntArray@@8         5f4c3518   array_u.obj
 0002:00011528       ??_R1A@?0A@A@CUIntArray@@8 5f4c3528   array_u.obj
 0002:00011540       ??_R4CWordArray@@6B@       5f4c3540   array_w.obj
 0002:00011558       ??_R3CWordArray@@8         5f4c3558   array_w.obj
 0002:00011568       ??_R2CWordArray@@8         5f4c3568   array_w.obj
 0002:00011578       ??_R1A@?0A@A@CWordArray@@8 5f4c3578   array_w.obj
 0002:00011590       ??_R4CObList@@6B@          5f4c3590   list_o.obj
 0002:000115a8       ??_R3CObList@@8            5f4c35a8   list_o.obj
 0002:000115b8       ??_R2CObList@@8            5f4c35b8   list_o.obj
 0002:000115c8       ??_R1A@?0A@A@CObList@@8    5f4c35c8   list_o.obj
 0002:000115e0       ??_R4CPtrList@@6B@         5f4c35e0   list_p.obj
 0002:000115f8       ??_R3CPtrList@@8           5f4c35f8   list_p.obj
 0002:00011608       ??_R2CPtrList@@8           5f4c3608   list_p.obj
 0002:00011618       ??_R1A@?0A@A@CPtrList@@8   5f4c3618   list_p.obj
 0002:00011630       ??_R4CStringList@@6B@      5f4c3630   list_s.obj
 0002:00011648       ??_R3CStringList@@8        5f4c3648   list_s.obj
 0002:00011658       ??_R2CStringList@@8        5f4c3658   list_s.obj
 0002:00011668       ??_R1A@?0A@A@CStringList@@8 5f4c3668   list_s.obj
 0002:00011680       ??_R4CMapPtrToPtr@@6B@     5f4c3680   map_pp.obj
 0002:00011698       ??_R3CMapPtrToPtr@@8       5f4c3698   map_pp.obj
 0002:000116a8       ??_R2CMapPtrToPtr@@8       5f4c36a8   map_pp.obj
 0002:000116b8       ??_R1A@?0A@A@CMapPtrToPtr@@8 5f4c36b8   map_pp.obj
 0002:000116d0       ??_R4CMapPtrToWord@@6B@    5f4c36d0   map_pw.obj
 0002:000116e8       ??_R3CMapPtrToWord@@8      5f4c36e8   map_pw.obj
 0002:000116f8       ??_R2CMapPtrToWord@@8      5f4c36f8   map_pw.obj
 0002:00011708       ??_R1A@?0A@A@CMapPtrToWord@@8 5f4c3708   map_pw.obj
 0002:00011720       ??_R4CMapStringToOb@@6B@   5f4c3720   map_so.obj
 0002:00011738       ??_R3CMapStringToOb@@8     5f4c3738   map_so.obj
 0002:00011748       ??_R2CMapStringToOb@@8     5f4c3748   map_so.obj
 0002:00011758       ??_R1A@?0A@A@CMapStringToOb@@8 5f4c3758   map_so.obj
 0002:00011770       ??_R4CMapStringToPtr@@6B@  5f4c3770   map_sp.obj
 0002:00011788       ??_R3CMapStringToPtr@@8    5f4c3788   map_sp.obj
 0002:00011798       ??_R2CMapStringToPtr@@8    5f4c3798   map_sp.obj
 0002:000117a8       ??_R1A@?0A@A@CMapStringToPtr@@8 5f4c37a8   map_sp.obj
 0002:000117c0       ??_R4CMapStringToString@@6B@ 5f4c37c0   map_ss.obj
 0002:000117d8       ??_R3CMapStringToString@@8 5f4c37d8   map_ss.obj
 0002:000117e8       ??_R2CMapStringToString@@8 5f4c37e8   map_ss.obj
 0002:000117f8       ??_R1A@?0A@A@CMapStringToString@@8 5f4c37f8   map_ss.obj
 0002:00011810       ??_R4CMapWordToOb@@6B@     5f4c3810   map_wo.obj
 0002:00011828       ??_R3CMapWordToOb@@8       5f4c3828   map_wo.obj
 0002:00011838       ??_R2CMapWordToOb@@8       5f4c3838   map_wo.obj
 0002:00011848       ??_R1A@?0A@A@CMapWordToOb@@8 5f4c3848   map_wo.obj
 0002:00011860       ??_R4CMapWordToPtr@@6B@    5f4c3860   map_wp.obj
 0002:00011878       ??_R3CMapWordToPtr@@8      5f4c3878   map_wp.obj
 0002:00011888       ??_R2CMapWordToPtr@@8      5f4c3888   map_wp.obj
 0002:00011898       ??_R1A@?0A@A@CMapWordToPtr@@8 5f4c3898   map_wp.obj
 0002:000118b0       ??_R4_AFX_THREAD_STATE@@6B@ 5f4c38b0   afxstate.obj
 0002:000118c8       ??_R3_AFX_THREAD_STATE@@8  5f4c38c8   afxstate.obj
 0002:000118d8       ??_R2_AFX_THREAD_STATE@@8  5f4c38d8   afxstate.obj
 0002:000118e8       ??_R1A@?0A@A@_AFX_THREAD_STATE@@8 5f4c38e8   afxstate.obj
 0002:00011900       ??_R4AFX_MODULE_STATE@@6B@ 5f4c3900   afxstate.obj
 0002:00011918       ??_R3AFX_MODULE_STATE@@8   5f4c3918   afxstate.obj
 0002:00011928       ??_R2AFX_MODULE_STATE@@8   5f4c3928   afxstate.obj
 0002:00011938       ??_R1A@?0A@A@AFX_MODULE_STATE@@8 5f4c3938   afxstate.obj
 0002:00011950       ??_R4AFX_MODULE_THREAD_STATE@@6B@ 5f4c3950   afxstate.obj
 0002:00011968       ??_R3AFX_MODULE_THREAD_STATE@@8 5f4c3968   afxstate.obj
 0002:00011978       ??_R2AFX_MODULE_THREAD_STATE@@8 5f4c3978   afxstate.obj
 0002:00011988       ??_R1A@?0A@A@AFX_MODULE_THREAD_STATE@@8 5f4c3988   afxstate.obj
 0002:000119a0       ??_R4_AFX_BASE_MODULE_STATE@@6B@ 5f4c39a0   afxstate.obj
 0002:000119b8       ??_R3_AFX_BASE_MODULE_STATE@@8 5f4c39b8   afxstate.obj
 0002:000119c8       ??_R2_AFX_BASE_MODULE_STATE@@8 5f4c39c8   afxstate.obj
 0002:000119d8       ??_R1A@?0A@A@_AFX_BASE_MODULE_STATE@@8 5f4c39d8   afxstate.obj
 0002:000119f0       ??_R4CThreadData@@6B@      5f4c39f0   afxtls.obj
 0002:00011a08       ??_R3CThreadData@@8        5f4c3a08   afxtls.obj
 0002:00011a18       ??_R2CThreadData@@8        5f4c3a18   afxtls.obj
 0002:00011a28       ??_R1A@?0A@A@CThreadData@@8 5f4c3a28   afxtls.obj
 0002:00011a40       ??_R4CSyncObject@@6B@      5f4c3a40   mtcore.obj
 0002:00011a58       ??_R3CSyncObject@@8        5f4c3a58   mtcore.obj
 0002:00011a68       ??_R2CSyncObject@@8        5f4c3a68   mtcore.obj
 0002:00011a78       ??_R1A@?0A@A@CSyncObject@@8 5f4c3a78   mtcore.obj
 0002:00011a90       ??_R4CCriticalSection@@6B@ 5f4c3a90   mtcore.obj
 0002:00011aa8       ??_R3CCriticalSection@@8   5f4c3aa8   mtcore.obj
 0002:00011ab8       ??_R2CCriticalSection@@8   5f4c3ab8   mtcore.obj
 0002:00011ac8       ??_R1A@?0A@A@CCriticalSection@@8 5f4c3ac8   mtcore.obj
 0002:00011ae0       ??_R4CSemaphore@@6B@       5f4c3ae0   mtex.obj
 0002:00011af8       ??_R3CSemaphore@@8         5f4c3af8   mtex.obj
 0002:00011b08       ??_R2CSemaphore@@8         5f4c3b08   mtex.obj
 0002:00011b18       ??_R1A@?0A@A@CSemaphore@@8 5f4c3b18   mtex.obj
 0002:00011b30       ??_R4CMutex@@6B@           5f4c3b30   mtex.obj
 0002:00011b48       ??_R3CMutex@@8             5f4c3b48   mtex.obj
 0002:00011b58       ??_R2CMutex@@8             5f4c3b58   mtex.obj
 0002:00011b68       ??_R1A@?0A@A@CMutex@@8     5f4c3b68   mtex.obj
 0002:00011b80       ??_R4CEvent@@6B@           5f4c3b80   mtex.obj
 0002:00011b98       ??_R3CEvent@@8             5f4c3b98   mtex.obj
 0002:00011ba8       ??_R2CEvent@@8             5f4c3ba8   mtex.obj
 0002:00011bb8       ??_R1A@?0A@A@CEvent@@8     5f4c3bb8   mtex.obj
 0002:00011bd0       ??_R4CWnd@@6B@             5f4c3bd0   wincore.obj
 0002:00011be8       ??_R3CWnd@@8               5f4c3be8   wincore.obj
 0002:00011bf8       ??_R2CWnd@@8               5f4c3bf8   wincore.obj
 0002:00011c08       ??_R4CTestCmdUI@@6B@       5f4c3c08   wincore.obj
 0002:00011c20       ??_R3CTestCmdUI@@8         5f4c3c20   wincore.obj
 0002:00011c30       ??_R2CTestCmdUI@@8         5f4c3c30   wincore.obj
 0002:00011c40       ??_R1A@?0A@A@CCmdUI@@8     5f4c3c40   wincore.obj
 0002:00011c58       ??_R1A@?0A@A@CTestCmdUI@@8 5f4c3c58   wincore.obj
 0002:00011c70       ??_R4_AFX_CTL3D_STATE@@6B@ 5f4c3c70   wincore.obj
 0002:00011c88       ??_R3_AFX_CTL3D_STATE@@8   5f4c3c88   wincore.obj
 0002:00011c98       ??_R2_AFX_CTL3D_STATE@@8   5f4c3c98   wincore.obj
 0002:00011ca8       ??_R1A@?0A@A@_AFX_CTL3D_STATE@@8 5f4c3ca8   wincore.obj
 0002:00011cc0       ??_R4CFrameWnd@@6B@        5f4c3cc0   winfrm.obj
 0002:00011cd8       ??_R3CFrameWnd@@8          5f4c3cd8   winfrm.obj
 0002:00011ce8       ??_R2CFrameWnd@@8          5f4c3ce8   winfrm.obj
 0002:00011d00       ??_R1A@?0A@A@CFrameWnd@@8  5f4c3d00   winfrm.obj
 0002:00011d18       ??_R4CMDIFrameWnd@@6B@     5f4c3d18   winmdi.obj
 0002:00011d30       ??_R3CMDIFrameWnd@@8       5f4c3d30   winmdi.obj
 0002:00011d40       ??_R2CMDIFrameWnd@@8       5f4c3d40   winmdi.obj
 0002:00011d58       ??_R1A@?0A@A@CMDIFrameWnd@@8 5f4c3d58   winmdi.obj
 0002:00011d70       ??_R4CMDIChildWnd@@6B@     5f4c3d70   winmdi.obj
 0002:00011d88       ??_R3CMDIChildWnd@@8       5f4c3d88   winmdi.obj
 0002:00011d98       ??_R2CMDIChildWnd@@8       5f4c3d98   winmdi.obj
 0002:00011db0       ??_R1A@?0A@A@CMDIChildWnd@@8 5f4c3db0   winmdi.obj
 0002:00011dc8       ??_R4CToolTipCtrl@@6B@     5f4c3dc8   tooltip.obj
 0002:00011de0       ??_R3CToolTipCtrl@@8       5f4c3de0   tooltip.obj
 0002:00011df0       ??_R2CToolTipCtrl@@8       5f4c3df0   tooltip.obj
 0002:00011e08       ??_R1A@?0A@A@CToolTipCtrl@@8 5f4c3e08   tooltip.obj
 0002:00011e20       ??_R4CMiniFrameWnd@@6B@    5f4c3e20   winmini.obj
 0002:00011e38       ??_R3CMiniFrameWnd@@8      5f4c3e38   winmini.obj
 0002:00011e48       ??_R2CMiniFrameWnd@@8      5f4c3e48   winmini.obj
 0002:00011e60       ??_R1A@?0A@A@CMiniFrameWnd@@8 5f4c3e60   winmini.obj
 0002:00011e78       ??_R4CControlBar@@6B@      5f4c3e78   barcore.obj
 0002:00011e90       ??_R3CControlBar@@8        5f4c3e90   barcore.obj
 0002:00011ea0       ??_R2CControlBar@@8        5f4c3ea0   barcore.obj
 0002:00011eb8       ??_R1A@?0A@A@CControlBar@@8 5f4c3eb8   barcore.obj
 0002:00011ed0       ??_R4CToolBar@@6B@         5f4c3ed0   bartool.obj
 0002:00011ee8       ??_R3CToolBar@@8           5f4c3ee8   bartool.obj
 0002:00011ef8       ??_R2CToolBar@@8           5f4c3ef8   bartool.obj
 0002:00011f10       ??_R1A@?0A@A@CToolBar@@8   5f4c3f10   bartool.obj
 0002:00011f28       ??_R4CToolCmdUI@@6B@       5f4c3f28   bartool.obj
 0002:00011f40       ??_R3CToolCmdUI@@8         5f4c3f40   bartool.obj
 0002:00011f50       ??_R2CToolCmdUI@@8         5f4c3f50   bartool.obj
 0002:00011f60       ??_R1A@?0A@A@CToolCmdUI@@8 5f4c3f60   bartool.obj
 0002:00011f78       ??_R4CDialogBar@@6B@       5f4c3f78   bardlg.obj
 0002:00011f90       ??_R3CDialogBar@@8         5f4c3f90   bardlg.obj
 0002:00011fa0       ??_R2CDialogBar@@8         5f4c3fa0   bardlg.obj
 0002:00011fb8       ??_R1A@?0A@A@CDialogBar@@8 5f4c3fb8   bardlg.obj
 0002:00011fd0       ??_R4CStatusBar@@6B@       5f4c3fd0   barstat.obj
 0002:00011fe8       ??_R3CStatusBar@@8         5f4c3fe8   barstat.obj
 0002:00011ff8       ??_R2CStatusBar@@8         5f4c3ff8   barstat.obj
 0002:00012010       ??_R1A@?0A@A@CStatusBar@@8 5f4c4010   barstat.obj
 0002:00012028       ??_R4CStatusCmdUI@@6B@     5f4c4028   barstat.obj
 0002:00012040       ??_R3CStatusCmdUI@@8       5f4c4040   barstat.obj
 0002:00012050       ??_R2CStatusCmdUI@@8       5f4c4050   barstat.obj
 0002:00012060       ??_R1A@?0A@A@CStatusCmdUI@@8 5f4c4060   barstat.obj
 0002:00012078       ??_R4CDockBar@@6B@         5f4c4078   bardock.obj
 0002:00012090       ??_R3CDockBar@@8           5f4c4090   bardock.obj
 0002:000120a0       ??_R2CDockBar@@8           5f4c40a0   bardock.obj
 0002:000120b8       ??_R1A@?0A@A@CDockBar@@8   5f4c40b8   bardock.obj
 0002:000120d0       ??_R4CMiniDockFrameWnd@@6B@ 5f4c40d0   bardock.obj
 0002:000120e8       ??_R3CMiniDockFrameWnd@@8  5f4c40e8   bardock.obj
 0002:000120f8       ??_R2CMiniDockFrameWnd@@8  5f4c40f8   bardock.obj
 0002:00012118       ??_R1A@?0A@A@CMiniDockFrameWnd@@8 5f4c4118   bardock.obj
 0002:00012130       ??_R4CDockContext@@6B@     5f4c4130   dockcont.obj
 0002:00012148       ??_R3CDockContext@@8       5f4c4148   dockcont.obj
 0002:00012158       ??_R2CDockContext@@8       5f4c4158   dockcont.obj
 0002:00012160       ??_R1A@?0A@A@CDockContext@@8 5f4c4160   dockcont.obj
 0002:00012178       ??_R4CDockState@@6B@       5f4c4178   dockstat.obj
 0002:00012190       ??_R3CDockState@@8         5f4c4190   dockstat.obj
 0002:000121a0       ??_R2CDockState@@8         5f4c41a0   dockstat.obj
 0002:000121b0       ??_R1A@?0A@A@CDockState@@8 5f4c41b0   dockstat.obj
 0002:000121c8       ??_R4CPreviewDC@@6B@       5f4c41c8   dcprev.obj
 0002:000121e0       ??_R3CPreviewDC@@8         5f4c41e0   dcprev.obj
 0002:000121f0       ??_R2CPreviewDC@@8         5f4c41f0   dcprev.obj
 0002:00012200       ??_R1A@?0A@A@CDC@@8        5f4c4200   dcprev.obj
 0002:00012218       ??_R1A@?0A@A@CPreviewDC@@8 5f4c4218   dcprev.obj
 0002:00012230       ??_R4CMetaFileDC@@6B@      5f4c4230   dcmeta.obj
 0002:00012248       ??_R3CMetaFileDC@@8        5f4c4248   dcmeta.obj
 0002:00012258       ??_R2CMetaFileDC@@8        5f4c4258   dcmeta.obj
 0002:00012268       ??_R1A@?0A@A@CMetaFileDC@@8 5f4c4268   dcmeta.obj
 0002:00012280       ??_R4CDragListBox@@6B@     5f4c4280   winctrl2.obj
 0002:00012298       ??_R3CDragListBox@@8       5f4c4298   winctrl2.obj
 0002:000122a8       ??_R2CDragListBox@@8       5f4c42a8   winctrl2.obj
 0002:000122c0       ??_R1A@?0A@A@CDragListBox@@8 5f4c42c0   winctrl2.obj
 0002:000122d8       ??_R4CToolBarCtrl@@6B@     5f4c42d8   winctrl2.obj
 0002:000122f0       ??_R3CToolBarCtrl@@8       5f4c42f0   winctrl2.obj
 0002:00012300       ??_R2CToolBarCtrl@@8       5f4c4300   winctrl2.obj
 0002:00012318       ??_R1A@?0A@A@CToolBarCtrl@@8 5f4c4318   winctrl2.obj
 0002:00012330       ??_R4CStatusBarCtrl@@6B@   5f4c4330   winctrl2.obj
 0002:00012348       ??_R3CStatusBarCtrl@@8     5f4c4348   winctrl2.obj
 0002:00012358       ??_R2CStatusBarCtrl@@8     5f4c4358   winctrl2.obj
 0002:00012370       ??_R1A@?0A@A@CStatusBarCtrl@@8 5f4c4370   winctrl2.obj
 0002:00012388       ??_R4CListCtrl@@6B@        5f4c4388   winctrl2.obj
 0002:000123a0       ??_R3CListCtrl@@8          5f4c43a0   winctrl2.obj
 0002:000123b0       ??_R2CListCtrl@@8          5f4c43b0   winctrl2.obj
 0002:000123c8       ??_R1A@?0A@A@CListCtrl@@8  5f4c43c8   winctrl2.obj
 0002:000123e0       ??_R4CTreeCtrl@@6B@        5f4c43e0   winctrl2.obj
 0002:000123f8       ??_R3CTreeCtrl@@8          5f4c43f8   winctrl2.obj
 0002:00012408       ??_R2CTreeCtrl@@8          5f4c4408   winctrl2.obj
 0002:00012420       ??_R1A@?0A@A@CTreeCtrl@@8  5f4c4420   winctrl2.obj
 0002:00012438       ??_R4CSpinButtonCtrl@@6B@  5f4c4438   winctrl2.obj
 0002:00012450       ??_R3CSpinButtonCtrl@@8    5f4c4450   winctrl2.obj
 0002:00012460       ??_R2CSpinButtonCtrl@@8    5f4c4460   winctrl2.obj
 0002:00012478       ??_R1A@?0A@A@CSpinButtonCtrl@@8 5f4c4478   winctrl2.obj
 0002:00012490       ??_R4CSliderCtrl@@6B@      5f4c4490   winctrl2.obj
 0002:000124a8       ??_R3CSliderCtrl@@8        5f4c44a8   winctrl2.obj
 0002:000124b8       ??_R2CSliderCtrl@@8        5f4c44b8   winctrl2.obj
 0002:000124d0       ??_R1A@?0A@A@CSliderCtrl@@8 5f4c44d0   winctrl2.obj
 0002:000124e8       ??_R4CProgressCtrl@@6B@    5f4c44e8   winctrl2.obj
 0002:00012500       ??_R3CProgressCtrl@@8      5f4c4500   winctrl2.obj
 0002:00012510       ??_R2CProgressCtrl@@8      5f4c4510   winctrl2.obj
 0002:00012528       ??_R1A@?0A@A@CProgressCtrl@@8 5f4c4528   winctrl2.obj
 0002:00012540       ??_R4CHeaderCtrl@@6B@      5f4c4540   winctrl2.obj
 0002:00012558       ??_R3CHeaderCtrl@@8        5f4c4558   winctrl2.obj
 0002:00012568       ??_R2CHeaderCtrl@@8        5f4c4568   winctrl2.obj
 0002:00012580       ??_R1A@?0A@A@CHeaderCtrl@@8 5f4c4580   winctrl2.obj
 0002:00012598       ??_R4CHotKeyCtrl@@6B@      5f4c4598   winctrl2.obj
 0002:000125b0       ??_R3CHotKeyCtrl@@8        5f4c45b0   winctrl2.obj
 0002:000125c0       ??_R2CHotKeyCtrl@@8        5f4c45c0   winctrl2.obj
 0002:000125d8       ??_R1A@?0A@A@CHotKeyCtrl@@8 5f4c45d8   winctrl2.obj
 0002:000125f0       ??_R4CTabCtrl@@6B@         5f4c45f0   winctrl2.obj
 0002:00012608       ??_R3CTabCtrl@@8           5f4c4608   winctrl2.obj
 0002:00012618       ??_R2CTabCtrl@@8           5f4c4618   winctrl2.obj
 0002:00012630       ??_R1A@?0A@A@CTabCtrl@@8   5f4c4630   winctrl2.obj
 0002:00012648       ??_R4CAnimateCtrl@@6B@     5f4c4648   winctrl2.obj
 0002:00012660       ??_R3CAnimateCtrl@@8       5f4c4660   winctrl2.obj
 0002:00012670       ??_R2CAnimateCtrl@@8       5f4c4670   winctrl2.obj
 0002:00012688       ??_R1A@?0A@A@CAnimateCtrl@@8 5f4c4688   winctrl2.obj
 0002:000126a0       ??_R4CRichEditCtrl@@6B@    5f4c46a0   winctrl2.obj
 0002:000126b8       ??_R3CRichEditCtrl@@8      5f4c46b8   winctrl2.obj
 0002:000126c8       ??_R2CRichEditCtrl@@8      5f4c46c8   winctrl2.obj
 0002:000126e0       ??_R1A@?0A@A@CRichEditCtrl@@8 5f4c46e0   winctrl2.obj
 0002:000126f8       ??_R4CImageList@@6B@       5f4c46f8   winctrl2.obj
 0002:00012710       ??_R3CImageList@@8         5f4c4710   winctrl2.obj
 0002:00012720       ??_R2CImageList@@8         5f4c4720   winctrl2.obj
 0002:00012730       ??_R1A@?0A@A@CImageList@@8 5f4c4730   winctrl2.obj
 0002:00012748       ??_R4_AFX_CHECKLIST_STATE@@6B@ 5f4c4748   winctrl3.obj
 0002:00012760       ??_R3_AFX_CHECKLIST_STATE@@8 5f4c4760   winctrl3.obj
 0002:00012770       ??_R2_AFX_CHECKLIST_STATE@@8 5f4c4770   winctrl3.obj
 0002:00012780       ??_R1A@?0A@A@_AFX_CHECKLIST_STATE@@8 5f4c4780   winctrl3.obj
 0002:00012798       ??_R4_AFX_RICHEDIT_STATE@@6B@ 5f4c4798   winctrl4.obj
 0002:000127b0       ??_R3_AFX_RICHEDIT_STATE@@8 5f4c47b0   winctrl4.obj
 0002:000127c0       ??_R2_AFX_RICHEDIT_STATE@@8 5f4c47c0   winctrl4.obj
 0002:000127d0       ??_R1A@?0A@A@_AFX_EDIT_STATE@@8 5f4c47d0   winctrl4.obj
 0002:000127e8       ??_R1A@?0A@A@_AFX_RICHEDIT_STATE@@8 5f4c47e8   winctrl4.obj
 0002:00012800       ??_R4CDialog@@6B@          5f4c4800   dlgcore.obj
 0002:00012818       ??_R3CDialog@@8            5f4c4818   dlgcore.obj
 0002:00012828       ??_R2CDialog@@8            5f4c4828   dlgcore.obj
 0002:00012840       ??_R4CPropertyPage@@6B@    5f4c4840   dlgprop.obj
 0002:00012858       ??_R3CPropertyPage@@8      5f4c4858   dlgprop.obj
 0002:00012868       ??_R2CPropertyPage@@8      5f4c4868   dlgprop.obj
 0002:00012880       ??_R1A@?0A@A@CPropertyPage@@8 5f4c4880   dlgprop.obj
 0002:00012898       ??_R4CPropertySheet@@6B@   5f4c4898   dlgprop.obj
 0002:000128b0       ??_R3CPropertySheet@@8     5f4c48b0   dlgprop.obj
 0002:000128c0       ??_R2CPropertySheet@@8     5f4c48c0   dlgprop.obj
 0002:000128d8       ??_R1A@?0A@A@CPropertySheet@@8 5f4c48d8   dlgprop.obj
 0002:000128f0       ??_R4CFileDialog@@6B@      5f4c48f0   dlgfile.obj
 0002:00012908       ??_R3CFileDialog@@8        5f4c4908   dlgfile.obj
 0002:00012918       ??_R2CFileDialog@@8        5f4c4918   dlgfile.obj
 0002:00012938       ??_R1A@?0A@A@CFileDialog@@8 5f4c4938   dlgfile.obj
 0002:00012950       ??_R4CPageSetupDialog@@6B@ 5f4c4950   dlgprnt.obj
 0002:00012968       ??_R3CPageSetupDialog@@8   5f4c4968   dlgprnt.obj
 0002:00012978       ??_R2CPageSetupDialog@@8   5f4c4978   dlgprnt.obj
 0002:00012998       ??_R1A@?0A@A@CPageSetupDialog@@8 5f4c4998   dlgprnt.obj
 0002:000129b0       ??_R4CPrintDialog@@6B@     5f4c49b0   dlgprnt.obj
 0002:000129c8       ??_R3CPrintDialog@@8       5f4c49c8   dlgprnt.obj
 0002:000129d8       ??_R2CPrintDialog@@8       5f4c49d8   dlgprnt.obj
 0002:000129f8       ??_R1A@?0A@A@CPrintDialog@@8 5f4c49f8   dlgprnt.obj
 0002:00012a10       ??_R4_AFX_COLOR_STATE@@6B@ 5f4c4a10   dlgclr.obj
 0002:00012a28       ??_R3_AFX_COLOR_STATE@@8   5f4c4a28   dlgclr.obj
 0002:00012a38       ??_R2_AFX_COLOR_STATE@@8   5f4c4a38   dlgclr.obj
 0002:00012a48       ??_R1A@?0A@A@_AFX_COLOR_STATE@@8 5f4c4a48   dlgclr.obj
 0002:00012a60       ??_R4CColorDialog@@6B@     5f4c4a60   dlgclr.obj
 0002:00012a78       ??_R3CColorDialog@@8       5f4c4a78   dlgclr.obj
 0002:00012a88       ??_R2CColorDialog@@8       5f4c4a88   dlgclr.obj
 0002:00012aa8       ??_R1A@?0A@A@CColorDialog@@8 5f4c4aa8   dlgclr.obj
 0002:00012ac0       ??_R4CFontDialog@@6B@      5f4c4ac0   dlgfnt.obj
 0002:00012ad8       ??_R3CFontDialog@@8        5f4c4ad8   dlgfnt.obj
 0002:00012ae8       ??_R2CFontDialog@@8        5f4c4ae8   dlgfnt.obj
 0002:00012b08       ??_R1A@?0A@A@CFontDialog@@8 5f4c4b08   dlgfnt.obj
 0002:00012b20       ??_R4CFindReplaceDialog@@6B@ 5f4c4b20   dlgfr.obj
 0002:00012b38       ??_R3CFindReplaceDialog@@8 5f4c4b38   dlgfr.obj
 0002:00012b48       ??_R2CFindReplaceDialog@@8 5f4c4b48   dlgfr.obj
 0002:00012b68       ??_R1A@?0A@A@CFindReplaceDialog@@8 5f4c4b68   dlgfr.obj
 0002:00012b80       ??_R4_AFX_PROPPAGEFONTINFO@@6B@ 5f4c4b80   ccdata.obj
 0002:00012b98       ??_R3_AFX_PROPPAGEFONTINFO@@8 5f4c4b98   ccdata.obj
 0002:00012ba8       ??_R2_AFX_PROPPAGEFONTINFO@@8 5f4c4ba8   ccdata.obj
 0002:00012bb8       ??_R1A@?0A@A@_AFX_PROPPAGEFONTINFO@@8 5f4c4bb8   ccdata.obj
 0002:00012bd0       ??_R4_AFX_EXTDLL_STATE@@6B@ 5f4c4bd0   ccdata.obj
 0002:00012be8       ??_R3_AFX_EXTDLL_STATE@@8  5f4c4be8   ccdata.obj
 0002:00012bf8       ??_R2_AFX_EXTDLL_STATE@@8  5f4c4bf8   ccdata.obj
 0002:00012c08       ??_R1A@?0A@A@_AFX_EXTDLL_STATE@@8 5f4c4c08   ccdata.obj
 0002:00012c20       ??_R4CDC@@6B@              5f4c4c20   wingdi.obj
 0002:00012c38       ??_R3CDC@@8                5f4c4c38   wingdi.obj
 0002:00012c48       ??_R2CDC@@8                5f4c4c48   wingdi.obj
 0002:00012c58       ??_R4CClientDC@@6B@        5f4c4c58   wingdi.obj
 0002:00012c70       ??_R3CClientDC@@8          5f4c4c70   wingdi.obj
 0002:00012c80       ??_R2CClientDC@@8          5f4c4c80   wingdi.obj
 0002:00012c90       ??_R1A@?0A@A@CClientDC@@8  5f4c4c90   wingdi.obj
 0002:00012ca8       ??_R4CWindowDC@@6B@        5f4c4ca8   wingdi.obj
 0002:00012cc0       ??_R3CWindowDC@@8          5f4c4cc0   wingdi.obj
 0002:00012cd0       ??_R2CWindowDC@@8          5f4c4cd0   wingdi.obj
 0002:00012ce0       ??_R1A@?0A@A@CWindowDC@@8  5f4c4ce0   wingdi.obj
 0002:00012cf8       ??_R4CPaintDC@@6B@         5f4c4cf8   wingdi.obj
 0002:00012d10       ??_R3CPaintDC@@8           5f4c4d10   wingdi.obj
 0002:00012d20       ??_R2CPaintDC@@8           5f4c4d20   wingdi.obj
 0002:00012d30       ??_R1A@?0A@A@CPaintDC@@8   5f4c4d30   wingdi.obj
 0002:00012d48       ??_R4CCmdTarget@@6B@       5f4c4d48   cmdtarg.obj
 0002:00012d60       ??_R3CCmdTarget@@8         5f4c4d60   cmdtarg.obj
 0002:00012d70       ??_R2CCmdTarget@@8         5f4c4d70   cmdtarg.obj
 0002:00012d80       ??_R4CCmdUI@@6B@           5f4c4d80   cmdtarg.obj
 0002:00012d98       ??_R3CCmdUI@@8             5f4c4d98   cmdtarg.obj
 0002:00012da8       ??_R2CCmdUI@@8             5f4c4da8   cmdtarg.obj
 0002:00012db0       ??_R4CDocument@@6B@        5f4c4db0   doccore.obj
 0002:00012dc8       ??_R3CDocument@@8          5f4c4dc8   doccore.obj
 0002:00012dd8       ??_R2CDocument@@8          5f4c4dd8   doccore.obj
 0002:00012de8       ??_R1A@?0A@A@CDocument@@8  5f4c4de8   doccore.obj
 0002:00012e00       ??_R4CMirrorFile@@6B@      5f4c4e00   doccore.obj
 0002:00012e18       ??_R3CMirrorFile@@8        5f4c4e18   doccore.obj
 0002:00012e28       ??_R2CMirrorFile@@8        5f4c4e28   doccore.obj
 0002:00012e38       ??_R1A@?0A@A@CMirrorFile@@8 5f4c4e38   doccore.obj
 0002:00012e50       ??_R4CDocTemplate@@6B@     5f4c4e50   doctempl.obj
 0002:00012e68       ??_R3CDocTemplate@@8       5f4c4e68   doctempl.obj
 0002:00012e78       ??_R2CDocTemplate@@8       5f4c4e78   doctempl.obj
 0002:00012e88       ??_R1A@?0A@A@CDocTemplate@@8 5f4c4e88   doctempl.obj
 0002:00012ea0       ??_R4CSingleDocTemplate@@6B@ 5f4c4ea0   docsingl.obj
 0002:00012eb8       ??_R3CSingleDocTemplate@@8 5f4c4eb8   docsingl.obj
 0002:00012ec8       ??_R2CSingleDocTemplate@@8 5f4c4ec8   docsingl.obj
 0002:00012ee0       ??_R1A@?0A@A@CSingleDocTemplate@@8 5f4c4ee0   docsingl.obj
 0002:00012ef8       ??_R4CMultiDocTemplate@@6B@ 5f4c4ef8   docmulti.obj
 0002:00012f10       ??_R3CMultiDocTemplate@@8  5f4c4f10   docmulti.obj
 0002:00012f20       ??_R2CMultiDocTemplate@@8  5f4c4f20   docmulti.obj
 0002:00012f38       ??_R1A@?0A@A@CMultiDocTemplate@@8 5f4c4f38   docmulti.obj
 0002:00012f50       ??_R4CDocManager@@6B@      5f4c4f50   docmgr.obj
 0002:00012f68       ??_R3CDocManager@@8        5f4c4f68   docmgr.obj
 0002:00012f78       ??_R2CDocManager@@8        5f4c4f78   docmgr.obj
 0002:00012f88       ??_R1A@?0A@A@CDocManager@@8 5f4c4f88   docmgr.obj
 0002:00012fa0       ??_R4CNewTypeDlg@@6B@      5f4c4fa0   docmgr.obj
 0002:00012fb8       ??_R3CNewTypeDlg@@8        5f4c4fb8   docmgr.obj
 0002:00012fc8       ??_R2CNewTypeDlg@@8        5f4c4fc8   docmgr.obj
 0002:00012fe0       ??_R1A@?0A@A@CNewTypeDlg@@8 5f4c4fe0   docmgr.obj
 0002:00012ff8       ??_R4CView@@6B@            5f4c4ff8   viewcore.obj
 0002:00013010       ??_R3CView@@8              5f4c5010   viewcore.obj
 0002:00013020       ??_R2CView@@8              5f4c5020   viewcore.obj
 0002:00013038       ??_R1A@?0A@A@CView@@8      5f4c5038   viewcore.obj
 0002:00013050       ??_R4CCtrlView@@6B@        5f4c5050   viewcore.obj
 0002:00013068       ??_R3CCtrlView@@8          5f4c5068   viewcore.obj
 0002:00013078       ??_R2CCtrlView@@8          5f4c5078   viewcore.obj
 0002:00013090       ??_R1A@?0A@A@CCtrlView@@8  5f4c5090   viewcore.obj
 0002:000130a8       ??_R4CPrintingDialog@@6B@  5f4c50a8   viewprnt.obj
 0002:000130c0       ??_R3CPrintingDialog@@8    5f4c50c0   viewprnt.obj
 0002:000130d0       ??_R2CPrintingDialog@@8    5f4c50d0   viewprnt.obj
 0002:000130e8       ??_R1A@?0A@A@CPrintingDialog@@8 5f4c50e8   viewprnt.obj
 0002:00013100       ??_R4CSplitterWnd@@6B@     5f4c5100   winsplit.obj
 0002:00013118       ??_R3CSplitterWnd@@8       5f4c5118   winsplit.obj
 0002:00013128       ??_R2CSplitterWnd@@8       5f4c5128   winsplit.obj
 0002:00013140       ??_R1A@?0A@A@CSplitterWnd@@8 5f4c5140   winsplit.obj
 0002:00013158       ??_R4CScrollView@@6B@      5f4c5158   viewscrl.obj
 0002:00013170       ??_R3CScrollView@@8        5f4c5170   viewscrl.obj
 0002:00013180       ??_R2CScrollView@@8        5f4c5180   viewscrl.obj
 0002:00013198       ??_R1A@?0A@A@CScrollView@@8 5f4c5198   viewscrl.obj
 0002:000131b0       ??_R4CFormView@@6B@        5f4c51b0   viewform.obj
 0002:000131c8       ??_R3CFormView@@8          5f4c51c8   viewform.obj
 0002:000131d8       ??_R2CFormView@@8          5f4c51d8   viewform.obj
 0002:000131f8       ??_R1A@?0A@A@CFormView@@8  5f4c51f8   viewform.obj
 0002:00013210       ??_R4_AFX_EDIT_STATE@@6B@  5f4c5210   viewedit.obj
 0002:00013228       ??_R3_AFX_EDIT_STATE@@8    5f4c5228   viewedit.obj
 0002:00013238       ??_R2_AFX_EDIT_STATE@@8    5f4c5238   viewedit.obj
 0002:00013248       ??_R4CEditView@@6B@        5f4c5248   viewedit.obj
 0002:00013260       ??_R3CEditView@@8          5f4c5260   viewedit.obj
 0002:00013270       ??_R2CEditView@@8          5f4c5270   viewedit.obj
 0002:00013290       ??_R1A@?0A@A@CEditView@@8  5f4c5290   viewedit.obj
 0002:000132a8       ??_R4CPreviewView@@6B@     5f4c52a8   viewprev.obj
 0002:000132c0       ??_R3CPreviewView@@8       5f4c52c0   viewprev.obj
 0002:000132d0       ??_R2CPreviewView@@8       5f4c52d0   viewprev.obj
 0002:000132f0       ??_R1A@?0A@A@CPreviewView@@8 5f4c52f0   viewprev.obj
 0002:00013308       ??_R4CListView@@6B@        5f4c5308   viewcmn.obj
 0002:00013320       ??_R3CListView@@8          5f4c5320   viewcmn.obj
 0002:00013330       ??_R2CListView@@8          5f4c5330   viewcmn.obj
 0002:00013350       ??_R1A@?0A@A@CListView@@8  5f4c5350   viewcmn.obj
 0002:00013368       ??_R4CTreeView@@6B@        5f4c5368   viewcmn.obj
 0002:00013380       ??_R3CTreeView@@8          5f4c5380   viewcmn.obj
 0002:00013390       ??_R2CTreeView@@8          5f4c5390   viewcmn.obj
 0002:000133b0       ??_R1A@?0A@A@CTreeView@@8  5f4c53b0   viewcmn.obj
 0002:000133c8       ??_R4_AFX_MAIL_STATE@@6B@  5f4c53c8   docmapi.obj
 0002:000133e0       ??_R3_AFX_MAIL_STATE@@8    5f4c53e0   docmapi.obj
 0002:000133f0       ??_R2_AFX_MAIL_STATE@@8    5f4c53f0   docmapi.obj
 0002:00013400       ??_R1A@?0A@A@_AFX_MAIL_STATE@@8 5f4c5400   docmapi.obj
 0002:00013418       ??_R4CWinThread@@6B@       5f4c5418   thrdcore.obj
 0002:00013430       ??_R3CWinThread@@8         5f4c5430   thrdcore.obj
 0002:00013440       ??_R2CWinThread@@8         5f4c5440   thrdcore.obj
 0002:00013450       ??_R1A@?0A@A@CWinThread@@8 5f4c5450   thrdcore.obj
 0002:00013468       ??_R4_AFX_CTL3D_THREAD@@6B@ 5f4c5468   thrdcore.obj
 0002:00013480       ??_R3_AFX_CTL3D_THREAD@@8  5f4c5480   thrdcore.obj
 0002:00013490       ??_R2_AFX_CTL3D_THREAD@@8  5f4c5490   thrdcore.obj
 0002:000134a0       ??_R1A@?0A@A@_AFX_CTL3D_THREAD@@8 5f4c54a0   thrdcore.obj
 0002:000134b8       ??_R4_AFX_WIN_STATE@@6B@   5f4c54b8   appcore.obj
 0002:000134d0       ??_R3_AFX_WIN_STATE@@8     5f4c54d0   appcore.obj
 0002:000134e0       ??_R2_AFX_WIN_STATE@@8     5f4c54e0   appcore.obj
 0002:000134f0       ??_R1A@?0A@A@_AFX_WIN_STATE@@8 5f4c54f0   appcore.obj
 0002:00013508       ??_R4CWinApp@@6B@          5f4c5508   appcore.obj
 0002:00013520       ??_R3CWinApp@@8            5f4c5520   appcore.obj
 0002:00013530       ??_R2CWinApp@@8            5f4c5530   appcore.obj
 0002:00013548       ??_R1A@?0A@A@CWinApp@@8    5f4c5548   appcore.obj
 0002:00013560       ??_R4CCommandLineInfo@@6B@ 5f4c5560   appcore.obj
 0002:00013578       ??_R3CCommandLineInfo@@8   5f4c5578   appcore.obj
 0002:00013588       ??_R2CCommandLineInfo@@8   5f4c5588   appcore.obj
 0002:00013598       ??_R1A@?0A@A@CCommandLineInfo@@8 5f4c5598   appcore.obj
 0002:000135b0       ??_R4CRecentFileList@@6B@  5f4c55b0   filelist.obj
 0002:000135c8       ??_R3CRecentFileList@@8    5f4c55c8   filelist.obj
 0002:000135d8       ??_R2CRecentFileList@@8    5f4c55d8   filelist.obj
 0002:000135e0       ??_R1A@?0A@A@CRecentFileList@@8 5f4c55e0   filelist.obj
 0002:000135f8       ??_R4CInternetSession@@6B@ 5f4c55f8   inet.obj
 0002:00013610       ??_R3CInternetSession@@8   5f4c5610   inet.obj
 0002:00013620       ??_R2CInternetSession@@8   5f4c5620   inet.obj
 0002:00013630       ??_R1A@?0A@A@CInternetSession@@8 5f4c5630   inet.obj
 0002:00013648       ??_R4CInternetFile@@6B@    5f4c5648   inet.obj
 0002:00013660       ??_R3CInternetFile@@8      5f4c5660   inet.obj
 0002:00013670       ??_R2CInternetFile@@8      5f4c5670   inet.obj
 0002:00013688       ??_R1A@?0A@A@CInternetFile@@8 5f4c5688   inet.obj
 0002:000136a0       ??_R4CInternetConnection@@6B@ 5f4c56a0   inet.obj
 0002:000136b8       ??_R3CInternetConnection@@8 5f4c56b8   inet.obj
 0002:000136c8       ??_R2CInternetConnection@@8 5f4c56c8   inet.obj
 0002:000136d8       ??_R1A@?0A@A@CInternetConnection@@8 5f4c56d8   inet.obj
 0002:000136f0       ??_R4CFtpConnection@@6B@   5f4c56f0   inet.obj
 0002:00013708       ??_R3CFtpConnection@@8     5f4c5708   inet.obj
 0002:00013718       ??_R2CFtpConnection@@8     5f4c5718   inet.obj
 0002:00013728       ??_R1A@?0A@A@CFtpConnection@@8 5f4c5728   inet.obj
 0002:00013740       ??_R4CGopherConnection@@6B@ 5f4c5740   inet.obj
 0002:00013758       ??_R3CGopherConnection@@8  5f4c5758   inet.obj
 0002:00013768       ??_R2CGopherConnection@@8  5f4c5768   inet.obj
 0002:00013778       ??_R1A@?0A@A@CGopherConnection@@8 5f4c5778   inet.obj
 0002:00013790       ??_R4CHttpConnection@@6B@  5f4c5790   inet.obj
 0002:000137a8       ??_R3CHttpConnection@@8    5f4c57a8   inet.obj
 0002:000137b8       ??_R2CHttpConnection@@8    5f4c57b8   inet.obj
 0002:000137c8       ??_R1A@?0A@A@CHttpConnection@@8 5f4c57c8   inet.obj
 0002:000137e0       ??_R4CHttpFile@@6B@        5f4c57e0   inet.obj
 0002:000137f8       ??_R3CHttpFile@@8          5f4c57f8   inet.obj
 0002:00013808       ??_R2CHttpFile@@8          5f4c5808   inet.obj
 0002:00013820       ??_R1A@?0A@A@CHttpFile@@8  5f4c5820   inet.obj
 0002:00013838       ??_R4CGopherFile@@6B@      5f4c5838   inet.obj
 0002:00013850       ??_R3CGopherFile@@8        5f4c5850   inet.obj
 0002:00013860       ??_R2CGopherFile@@8        5f4c5860   inet.obj
 0002:00013878       ??_R1A@?0A@A@CGopherFile@@8 5f4c5878   inet.obj
 0002:00013890       ??_R4CFtpFileFind@@6B@     5f4c5890   inet.obj
 0002:000138a8       ??_R3CFtpFileFind@@8       5f4c58a8   inet.obj
 0002:000138b8       ??_R2CFtpFileFind@@8       5f4c58b8   inet.obj
 0002:000138c8       ??_R1A@?0A@A@CFileFind@@8  5f4c58c8   inet.obj
 0002:000138e0       ??_R1A@?0A@A@CFtpFileFind@@8 5f4c58e0   inet.obj
 0002:000138f8       ??_R4CGopherFileFind@@6B@  5f4c58f8   inet.obj
 0002:00013910       ??_R3CGopherFileFind@@8    5f4c5910   inet.obj
 0002:00013920       ??_R2CGopherFileFind@@8    5f4c5920   inet.obj
 0002:00013930       ??_R1A@?0A@A@CGopherFileFind@@8 5f4c5930   inet.obj
 0002:00013948       ??_R4CGopherLocator@@6B@   5f4c5948   inet.obj
 0002:00013960       ??_R3CGopherLocator@@8     5f4c5960   inet.obj
 0002:00013970       ??_R2CGopherLocator@@8     5f4c5970   inet.obj
 0002:00013980       ??_R1A@?0A@A@CGopherLocator@@8 5f4c5980   inet.obj
 0002:00013998       ??_R4CInternetException@@6B@ 5f4c5998   inet.obj
 0002:000139b0       ??_R3CInternetException@@8 5f4c59b0   inet.obj
 0002:000139c0       ??_R2CInternetException@@8 5f4c59c0   inet.obj
 0002:000139d0       ??_R1A@?0A@A@CInternetException@@8 5f4c59d0   inet.obj
 0002:000139e8       ??_R4CFileFind@@6B@        5f4c59e8   filefind.obj
 0002:00013a00       ??_R3CFileFind@@8          5f4c5a00   filefind.obj
 0002:00013a10       ??_R2CFileFind@@8          5f4c5a10   filefind.obj
 0002:00013a20       ??_R4CDynLinkLibrary@@6B@  5f4c5a20   dllinit.obj
 0002:00013a38       ??_R3CDynLinkLibrary@@8    5f4c5a38   dllinit.obj
 0002:00013a48       ??_R2CDynLinkLibrary@@8    5f4c5a48   dllinit.obj
 0002:00013a58       ??_R1A@?0A@A@CDynLinkLibrary@@8 5f4c5a58   dllinit.obj
 0002:00013a70       ??_R4type_info@@6B@        5f4c5a70   msvcrtd:ti_inst.obj
 0002:00013a88       ??_R3type_info@@8          5f4c5a88   msvcrtd:ti_inst.obj
 0002:00013a98       ??_R2type_info@@8          5f4c5a98   msvcrtd:ti_inst.obj
 0002:00013aa0       ??_R1A@?0A@A@type_info@@8  5f4c5aa0   msvcrtd:ti_inst.obj
 0002:00013b60       __CT??_R0PAX@84            5f4c5b60   except.obj
 0002:00013b80       __CT??_R0PAVCObject@@@84   5f4c5b80   except.obj
 0002:00013ba0       __CT??_R0PAVCException@@@84 5f4c5ba0   except.obj
 0002:00013bc0       __CT??_R0PAVCSimpleException@@@84 5f4c5bc0   except.obj
 0002:00013be0       __CT??_R0PAVCMemoryException@@@84 5f4c5be0   except.obj
 0002:00013c00       __CTA5PAVCMemoryException@@ 5f4c5c00   except.obj
 0002:00013c18       __TI5PAVCMemoryException@@ 5f4c5c18   except.obj
 0002:00013c28       __CT??_R0PAVCNotSupportedException@@@84 5f4c5c28   except.obj
 0002:00013c48       __CTA5PAVCNotSupportedException@@ 5f4c5c48   except.obj
 0002:00013c60       __TI5PAVCNotSupportedException@@ 5f4c5c60   except.obj
 0002:00013d70       __CT??_R0PAVCArchiveException@@@84 5f4c5d70   arcex.obj
 0002:00013d90       __CTA4PAVCArchiveException@@ 5f4c5d90   arcex.obj
 0002:00013da8       __TI4PAVCArchiveException@@ 5f4c5da8   arcex.obj
 0002:00014ca8       __CT??_R0PAVCFileException@@@84 5f4c6ca8   filex.obj
 0002:00014cc8       __CTA4PAVCFileException@@  5f4c6cc8   filex.obj
 0002:00014ce0       __TI4PAVCFileException@@   5f4c6ce0   filex.obj
 0002:000181e0       __CT??_R0PAVCResourceException@@@84 5f4ca1e0   wingdi.obj
 0002:00018200       __CTA5PAVCResourceException@@ 5f4ca200   wingdi.obj
 0002:00018218       __TI5PAVCResourceException@@ 5f4ca218   wingdi.obj
 0002:00018228       __CT??_R0PAVCUserException@@@84 5f4ca228   wingdi.obj
 0002:00018248       __CTA5PAVCUserException@@  5f4ca248   wingdi.obj
 0002:00018260       __TI5PAVCUserException@@   5f4ca260   wingdi.obj
 0002:0001a580       __CT??_R0PAVCInternetException@@@84 5f4cc580   inet.obj
 0002:0001a5a0       __CTA4PAVCInternetException@@ 5f4cc5a0   inet.obj
 0002:0001a5b8       __TI4PAVCInternetException@@ 5f4cc5b8   inet.obj
 0003:00000000       ___xc_a                    5f4d2000   msvcrtd:cinitexe.obj
 0003:000000c8       ___xc_z                    5f4d20c8   msvcrtd:cinitexe.obj
 0003:000000cc       ___xi_a                    5f4d20cc   msvcrtd:cinitexe.obj
 0003:000000d0       ___xi_z                    5f4d20d0   msvcrtd:cinitexe.obj
 0003:000000f0       ??_R0PAVCException@@@8     5f4d20f0   objcore.obj
 0003:00000120       ??_R0?AVCException@@@8     5f4d2120   except.obj
 0003:00000140       ??_R0?AVCObject@@@8        5f4d2140   except.obj
 0003:00000158       ??_R0PAX@8                 5f4d2158   except.obj
 0003:00000168       ??_R0PAVCObject@@@8        5f4d2168   except.obj
 0003:00000180       ??_R0PAVCSimpleException@@@8 5f4d2180   except.obj
 0003:000001a0       ??_R0PAVCMemoryException@@@8 5f4d21a0   except.obj
 0003:000001c0       ??_R0PAVCNotSupportedException@@@8 5f4d21c0   except.obj
 0003:00000218       ??_R0PAVCArchiveException@@@8 5f4d2218   arccore.obj
 0003:00000268       ??_R0?AVCArchiveStream@@@8 5f4d2268   arcstrm.obj
 0003:00000288       ??_R0?AUIStream@@@8        5f4d2288   arcstrm.obj
 0003:000002a0       ??_R0?AUIUnknown@@@8       5f4d22a0   arcstrm.obj
 0003:000002b8       ??_R0?AUISequentialStream@@@8 5f4d22b8   arcstrm.obj
 0003:000002e0       ??_R0?AV_AFX_DEBUG_STATE@@@8 5f4d22e0   dumpinit.obj
 0003:00000300       ??_R0?AVCNoTrackObject@@@8 5f4d2300   dumpinit.obj
 0003:00000354       ?_afxMemoryLeakOverride@@3HA 5f4d2354   afxmem.obj
 0003:00000358       ??_R0?AVCSimpleException@@@8 5f4d2358   afxinl1.obj
 0003:00000378       ??_R0?AVCMemoryException@@@8 5f4d2378   afxinl1.obj
 0003:00000398       ??_R0?AVCNotSupportedException@@@8 5f4d2398   afxinl1.obj
 0003:000003c0       ??_R0?AVCArchiveException@@@8 5f4d23c0   afxinl1.obj
 0003:000003e0       ??_R0?AVCFileException@@@8 5f4d23e0   afxinl1.obj
 0003:00000400       ??_R0?AVCDialog@@@8        5f4d2400   afxinl1.obj
 0003:00000418       ??_R0?AVCCommonDialog@@@8  5f4d2418   afxinl1.obj
 0003:00000438       ??_R0?AVCCmdTarget@@@8     5f4d2438   afxinl1.obj
 0003:00000458       ??_R0?AVCWnd@@@8           5f4d2458   afxinl1.obj
 0003:00000470       ??_R0?AVCRectTracker@@@8   5f4d2470   afxinl1.obj
 0003:00000490       ??_R0?AVCButton@@@8        5f4d2490   afxinl1.obj
 0003:000004a8       ??_R0?AVCBitmapButton@@@8  5f4d24a8   afxinl1.obj
 0003:000004c8       ??_R0?AVCResourceException@@@8 5f4d24c8   afxinl2.obj
 0003:000004f0       ??_R0?AVCUserException@@@8 5f4d24f0   afxinl2.obj
 0003:00000510       ??_R0?AVCGdiObject@@@8     5f4d2510   afxinl2.obj
 0003:00000530       ??_R0?AVCPen@@@8           5f4d2530   afxinl2.obj
 0003:00000548       ??_R0?AVCBrush@@@8         5f4d2548   afxinl2.obj
 0003:00000560       ??_R0?AVCFont@@@8          5f4d2560   afxinl2.obj
 0003:00000578       ??_R0?AVCBitmap@@@8        5f4d2578   afxinl2.obj
 0003:00000590       ??_R0?AVCPalette@@@8       5f4d2590   afxinl2.obj
 0003:000005a8       ??_R0?AVCRgn@@@8           5f4d25a8   afxinl2.obj
 0003:000005c0       ??_R0?AVCMenu@@@8          5f4d25c0   afxinl2.obj
 0003:000005d8       ??_R0?AVCStatic@@@8        5f4d25d8   afxinl3.obj
 0003:000005f0       ??_R0?AVCListBox@@@8       5f4d25f0   afxinl3.obj
 0003:00000608       ??_R0?AVCCheckListBox@@@8  5f4d2608   afxinl3.obj
 0003:00000628       ??_R0?AVCComboBox@@@8      5f4d2628   afxinl3.obj
 0003:00000640       ??_R0?AVCEdit@@@8          5f4d2640   afxinl3.obj
 0003:00000658       ??_R0?AVCScrollBar@@@8     5f4d2658   afxinl3.obj
 0003:00000688       ??_R0?AVCFile@@@8          5f4d2688   filecore.obj
 0003:000006b0       ??_R0?AVCStdioFile@@@8     5f4d26b0   filetxt.obj
 0003:000006e0       ??_R0?AVCMemFile@@@8       5f4d26e0   filemem.obj
 0003:00000708       ??_R0?AVCSharedFile@@@8    5f4d2708   fileshrd.obj
 0003:00000738       ??_R0PAVCFileException@@@8 5f4d2738   filex.obj
 0003:00000778       ?classCByteArray@CByteArray@@2UCRuntimeClass@@A 5f4d2778   array_b.obj
 0003:00000790       ??_R0?AVCByteArray@@@8     5f4d2790   array_b.obj
 0003:000007c0       ?classCDWordArray@CDWordArray@@2UCRuntimeClass@@A 5f4d27c0   array_d.obj
 0003:000007d8       ??_R0?AVCDWordArray@@@8    5f4d27d8   array_d.obj
 0003:00000808       ??_R0?AVCPtrArray@@@8      5f4d2808   array_p.obj
 0003:00000830       ?classCObArray@CObArray@@2UCRuntimeClass@@A 5f4d2830   array_o.obj
 0003:00000848       ??_R0?AVCObArray@@@8       5f4d2848   array_o.obj
 0003:00000870       ?classCStringArray@CStringArray@@2UCRuntimeClass@@A 5f4d2870   array_s.obj
 0003:00000888       ??_R0?AVCStringArray@@@8   5f4d2888   array_s.obj
 0003:000008b8       ??_R0?AVCUIntArray@@@8     5f4d28b8   array_u.obj
 0003:000008e8       ?classCWordArray@CWordArray@@2UCRuntimeClass@@A 5f4d28e8   array_w.obj
 0003:00000900       ??_R0?AVCWordArray@@@8     5f4d2900   array_w.obj
 0003:00000930       ?classCObList@CObList@@2UCRuntimeClass@@A 5f4d2930   list_o.obj
 0003:00000948       ??_R0?AVCObList@@@8        5f4d2948   list_o.obj
 0003:00000970       ??_R0?AVCPtrList@@@8       5f4d2970   list_p.obj
 0003:00000998       ?classCStringList@CStringList@@2UCRuntimeClass@@A 5f4d2998   list_s.obj
 0003:000009b0       ??_R0?AVCStringList@@@8    5f4d29b0   list_s.obj
 0003:000009e0       ??_R0?AVCMapPtrToPtr@@@8   5f4d29e0   map_pp.obj
 0003:00000a10       ??_R0?AVCMapPtrToWord@@@8  5f4d2a10   map_pw.obj
 0003:00000a40       ?classCMapStringToOb@CMapStringToOb@@2UCRuntimeClass@@A 5f4d2a40   map_so.obj
 0003:00000a58       ??_R0?AVCMapStringToOb@@@8 5f4d2a58   map_so.obj
 0003:00000a88       ??_R0?AVCMapStringToPtr@@@8 5f4d2a88   map_sp.obj
 0003:00000ab8       ?classCMapStringToString@CMapStringToString@@2UCRuntimeClass@@A 5f4d2ab8   map_ss.obj
 0003:00000ad0       ??_R0?AVCMapStringToString@@@8 5f4d2ad0   map_ss.obj
 0003:00000b08       ?classCMapWordToOb@CMapWordToOb@@2UCRuntimeClass@@A 5f4d2b08   map_wo.obj
 0003:00000b20       ??_R0?AVCMapWordToOb@@@8   5f4d2b20   map_wo.obj
 0003:00000b50       ??_R0?AVCMapWordToPtr@@@8  5f4d2b50   map_wp.obj
 0003:00000b8c       ?afxChNil@@3GA             5f4d2b8c   strcore.obj
 0003:00000bd8       ??_R0?AV_AFX_THREAD_STATE@@@8 5f4d2bd8   afxstate.obj
 0003:00000bf8       ??_R0?AVAFX_MODULE_STATE@@@8 5f4d2bf8   afxstate.obj
 0003:00000c18       ??_R0?AVAFX_MODULE_THREAD_STATE@@@8 5f4d2c18   afxstate.obj
 0003:00000c40       ??_R0?AV_AFX_BASE_MODULE_STATE@@@8 5f4d2c40   afxstate.obj
 0003:00000c78       ??_R0?AUCThreadData@@@8    5f4d2c78   afxtls.obj
 0003:00000cb8       ??_R0?AVCSyncObject@@@8    5f4d2cb8   mtcore.obj
 0003:00000cd8       ??_R0?AVCCriticalSection@@@8 5f4d2cd8   mtcore.obj
 0003:00000d08       ??_R0?AVCSemaphore@@@8     5f4d2d08   mtex.obj
 0003:00000d28       ??_R0?AVCMutex@@@8         5f4d2d28   mtex.obj
 0003:00000d40       ??_R0?AVCEvent@@@8         5f4d2d40   mtex.obj
 0003:00000d68       ??_R0?AVCCmdUI@@@8         5f4d2d68   wincore.obj
 0003:00000d80       ??_R0?AVCTestCmdUI@@@8     5f4d2d80   wincore.obj
 0003:00000da0       ??_R0?AV_AFX_CTL3D_STATE@@@8 5f4d2da0   wincore.obj
 0003:00000dc0       ??_R0PAVCUserException@@@8 5f4d2dc0   wincore.obj
 0003:00000df0       ??_R0?AVCFrameWnd@@@8      5f4d2df0   winfrm.obj
 0003:00000e38       ??_R0?AVCMDIFrameWnd@@@8   5f4d2e38   winmdi.obj
 0003:00000e58       ??_R0?AVCMDIChildWnd@@@8   5f4d2e58   winmdi.obj
 0003:00000e88       ??_R0?AVCToolTipCtrl@@@8   5f4d2e88   tooltip.obj
 0003:00000eb8       ??_R0?AVCMiniFrameWnd@@@8  5f4d2eb8   winmini.obj
 0003:00000ef8       ??_R0?AVCControlBar@@@8    5f4d2ef8   barcore.obj
 0003:00000f28       ??_R0?AVCToolBar@@@8       5f4d2f28   bartool.obj
 0003:00000f40       ??_R0?AVCToolCmdUI@@@8     5f4d2f40   bartool.obj
 0003:00000f70       ??_R0?AVCDialogBar@@@8     5f4d2f70   bardlg.obj
 0003:00000fa0       ??_R0?AVCStatusBar@@@8     5f4d2fa0   barstat.obj
 0003:00000fc0       ??_R0?AVCStatusCmdUI@@@8   5f4d2fc0   barstat.obj
 0003:00000ff0       ??_R0?AVCDockBar@@@8       5f4d2ff0   bardock.obj
 0003:00001008       ??_R0?AVCMiniDockFrameWnd@@@8 5f4d3008   bardock.obj
 0003:00001038       ??_R0?AVCDockContext@@@8   5f4d3038   dockcont.obj
 0003:00001068       ?classCDockState@CDockState@@2UCRuntimeClass@@A 5f4d3068   dockstat.obj
 0003:00001080       ??_R0?AVCDockState@@@8     5f4d3080   dockstat.obj
 0003:000010b0       ??_R0?AVCDC@@@8            5f4d30b0   dcprev.obj
 0003:000010c8       ??_R0?AVCPreviewDC@@@8     5f4d30c8   dcprev.obj
 0003:000010f8       ??_R0?AVCMetaFileDC@@@8    5f4d30f8   dcmeta.obj
 0003:00001148       ??_R0?AVCDragListBox@@@8   5f4d3148   winctrl2.obj
 0003:00001168       ??_R0?AVCToolBarCtrl@@@8   5f4d3168   winctrl2.obj
 0003:00001188       ??_R0?AVCStatusBarCtrl@@@8 5f4d3188   winctrl2.obj
 0003:000011a8       ??_R0?AVCListCtrl@@@8      5f4d31a8   winctrl2.obj
 0003:000011c0       ??_R0?AVCTreeCtrl@@@8      5f4d31c0   winctrl2.obj
 0003:000011d8       ??_R0?AVCSpinButtonCtrl@@@8 5f4d31d8   winctrl2.obj
 0003:000011f8       ??_R0?AVCSliderCtrl@@@8    5f4d31f8   winctrl2.obj
 0003:00001218       ??_R0?AVCProgressCtrl@@@8  5f4d3218   winctrl2.obj
 0003:00001238       ??_R0?AVCHeaderCtrl@@@8    5f4d3238   winctrl2.obj
 0003:00001258       ??_R0?AVCHotKeyCtrl@@@8    5f4d3258   winctrl2.obj
 0003:00001278       ??_R0?AVCTabCtrl@@@8       5f4d3278   winctrl2.obj
 0003:00001290       ??_R0?AVCAnimateCtrl@@@8   5f4d3290   winctrl2.obj
 0003:000012b0       ??_R0?AVCRichEditCtrl@@@8  5f4d32b0   winctrl2.obj
 0003:000012d0       ??_R0?AVCImageList@@@8     5f4d32d0   winctrl2.obj
 0003:00001300       ??_R0?AV_AFX_CHECKLIST_STATE@@@8 5f4d3300   winctrl3.obj
 0003:00001338       ??_R0?AV_AFX_EDIT_STATE@@@8 5f4d3338   winctrl4.obj
 0003:00001358       ??_R0?AV_AFX_RICHEDIT_STATE@@@8 5f4d3358   winctrl4.obj
 0003:000013e0       ??_R0?AVCPropertyPage@@@8  5f4d33e0   dlgprop.obj
 0003:00001400       ??_R0?AVCPropertySheet@@@8 5f4d3400   dlgprop.obj
 0003:00001440       ??_R0?AVCFileDialog@@@8    5f4d3440   dlgfile.obj
 0003:00001470       ??_R0?AVCPageSetupDialog@@@8 5f4d3470   dlgprnt.obj
 0003:00001490       ??_R0?AVCPrintDialog@@@8   5f4d3490   dlgprnt.obj
 0003:000014c0       ??_R0?AV_AFX_COLOR_STATE@@@8 5f4d34c0   dlgclr.obj
 0003:000014e0       ??_R0?AVCColorDialog@@@8   5f4d34e0   dlgclr.obj
 0003:00001510       ??_R0?AVCFontDialog@@@8    5f4d3510   dlgfnt.obj
 0003:00001540       ??_R0?AVCFindReplaceDialog@@@8 5f4d3540   dlgfr.obj
 0003:00001568       ?_afxCommCtrl@@3UAFX_COMMCTRL_CALL@@A 5f4d3568   ccdata.obj
 0003:000015f0       ?_afxShell@@3UAFX_SHELL_CALL@@A 5f4d35f0   ccdata.obj
 0003:00001608       ?_afxComDlg@@3UAFX_COMDLG_CALL@@A 5f4d3608   ccdata.obj
 0003:00001630       ?_afxWinSpool@@3UAFX_WINSPOOL_CALL@@A 5f4d3630   ccdata.obj
 0003:00001640       ?_afxAdvApi@@3UAFX_ADVAPI_CALL@@A 5f4d3640   ccdata.obj
 0003:00001678       ??_R0?AU_AFX_PROPPAGEFONTINFO@@@8 5f4d3678   ccdata.obj
 0003:000016a0       ??_R0?AV_AFX_EXTDLL_STATE@@@8 5f4d36a0   ccdata.obj
 0003:000016e0       ??_R0?AVCClientDC@@@8      5f4d36e0   wingdi.obj
 0003:000016f8       ??_R0?AVCWindowDC@@@8      5f4d36f8   wingdi.obj
 0003:00001710       ??_R0?AVCPaintDC@@@8       5f4d3710   wingdi.obj
 0003:00001728       ??_R0PAVCResourceException@@@8 5f4d3728   wingdi.obj
 0003:000017dc       ?_dispatchEntryCount@CCmdTarget@@0IA 5f4d37dc   cmdtarg.obj
 0003:000017e0       ?_eventsinkEntryCount@CCmdTarget@@0IA 5f4d37e0   cmdtarg.obj
 0003:000017f8       ??_R0?AVCDocument@@@8      5f4d37f8   doccore.obj
 0003:00001810       ??_R0?AVCMirrorFile@@@8    5f4d3810   doccore.obj
 0003:00001840       ??_R0?AVCDocTemplate@@@8   5f4d3840   doctempl.obj
 0003:00001870       ??_R0?AVCSingleDocTemplate@@@8 5f4d3870   docsingl.obj
 0003:000018a8       ??_R0?AVCMultiDocTemplate@@@8 5f4d38a8   docmulti.obj
 0003:000018d8       ??_R0?AVCDocManager@@@8    5f4d38d8   docmgr.obj
 0003:000018f8       ??_R0?AVCNewTypeDlg@@@8    5f4d38f8   docmgr.obj
 0003:00001928       ??_R0?AVCView@@@8          5f4d3928   viewcore.obj
 0003:00001940       ??_R0?AVCCtrlView@@@8      5f4d3940   viewcore.obj
 0003:00001968       ??_R0?AVCPrintingDialog@@@8 5f4d3968   viewprnt.obj
 0003:000019a8       ??_R0?AVCSplitterWnd@@@8   5f4d39a8   winsplit.obj
 0003:000019d8       ??_R0?AVCScrollView@@@8    5f4d39d8   viewscrl.obj
 0003:00001a08       ??_R0?AVCFormView@@@8      5f4d3a08   viewform.obj
 0003:00001a30       ??_R0?AVCEditView@@@8      5f4d3a30   viewedit.obj
 0003:00001a58       ??_R0?AVCPreviewView@@@8   5f4d3a58   viewprev.obj
 0003:00001a88       ??_R0?AVCListView@@@8      5f4d3a88   viewcmn.obj
 0003:00001aa0       ??_R0?AVCTreeView@@@8      5f4d3aa0   viewcmn.obj
 0003:00001ac8       ??_R0?AV_AFX_MAIL_STATE@@@8 5f4d3ac8   docmapi.obj
 0003:00001af8       ??_R0?AVCWinThread@@@8     5f4d3af8   thrdcore.obj
 0003:00001b18       ??_R0?AV_AFX_CTL3D_THREAD@@@8 5f4d3b18   thrdcore.obj
 0003:00001b44       ?bStaticInit@CDocManager@@2HA 5f4d3b44   appcore.obj
 0003:00001b48       ?pStaticDocManager@CDocManager@@2PAV1@A 5f4d3b48   appcore.obj
 0003:00001b4c       ?pStaticList@CDocManager@@2PAVCPtrList@@A 5f4d3b4c   appcore.obj
 0003:00001b50       ??_R0?AV_AFX_WIN_STATE@@@8 5f4d3b50   appcore.obj
 0003:00001b70       ??_R0?AVCWinApp@@@8        5f4d3b70   appcore.obj
 0003:00001b88       ??_R0?AVCCommandLineInfo@@@8 5f4d3b88   appcore.obj
 0003:00001c68       ??_R0?AVCRecentFileList@@@8 5f4d3c68   filelist.obj
 0003:00001cb8       ??_R0?AVCInternetSession@@@8 5f4d3cb8   inet.obj
 0003:00001cd8       ??_R0?AVCInternetFile@@@8  5f4d3cd8   inet.obj
 0003:00001cf8       ??_R0?AVCInternetConnection@@@8 5f4d3cf8   inet.obj
 0003:00001d20       ??_R0?AVCFtpConnection@@@8 5f4d3d20   inet.obj
 0003:00001d40       ??_R0?AVCGopherConnection@@@8 5f4d3d40   inet.obj
 0003:00001d60       ??_R0?AVCHttpConnection@@@8 5f4d3d60   inet.obj
 0003:00001d80       ??_R0?AVCHttpFile@@@8      5f4d3d80   inet.obj
 0003:00001d98       ??_R0?AVCGopherFile@@@8    5f4d3d98   inet.obj
 0003:00001db8       ??_R0?AVCFileFind@@@8      5f4d3db8   inet.obj
 0003:00001dd0       ??_R0?AVCFtpFileFind@@@8   5f4d3dd0   inet.obj
 0003:00001df0       ??_R0?AVCGopherFileFind@@@8 5f4d3df0   inet.obj
 0003:00001e10       ??_R0?AVCGopherLocator@@@8 5f4d3e10   inet.obj
 0003:00001e30       ??_R0PAVCInternetException@@@8 5f4d3e30   inet.obj
 0003:00001e58       ??_R0?AVCInternetException@@@8 5f4d3e58   inet.obj
 0003:00001e80       ?_afxWinINet@@3UAFX_WININET_CALL@@A 5f4d3e80   inetimpl.obj
 0003:00001f1c       __pRawDllMain              5f4d3f1c   dllinit.obj
 0003:00001f20       ?_afxForceVectorDelete_mfc@@3P6AXXZA 5f4d3f20   dllinit.obj
 0003:00001f28       ??_R0?AVCDynLinkLibrary@@@8 5f4d3f28   dllinit.obj
 0003:00001f48       ??_R0?AVtype_info@@@8      5f4d3f48   msvcrtd:ti_inst.obj
 0003:00001f60       ___win32sflag              5f4d3f60   msvcrtd:atonexit.obj
 0003:00001f78       ?_simpleMemoryException@@3VCMemoryException@@A 5f4d3f78   except.obj
 0003:00002098       ?_simpleNotSupportedException@@3VCNotSupportedException@@A 5f4d4098   except.obj
 0003:000021b8       ?afxTraceEnabled@@3HA      5f4d41b8   dumpinit.obj
 0003:000021bc       ?afxTraceFlags@@3IA        5f4d41bc   dumpinit.obj
 0003:000021c0       ?afxDebugState@@3V?$CProcessLocal@V_AFX_DEBUG_STATE@@@@A 5f4d41c0   dumpinit.obj
 0003:000021c8       ?afxDump@@3VCDumpContext@@A 5f4d41c8   dumpinit.obj
 0003:000021d0       ?_afxDiagnosticInit@@3HA   5f4d41d0   dumpinit.obj
 0003:000021fc       ?_afxThreadState@@3V?$CThreadLocal@V_AFX_THREAD_STATE@@@@A 5f4d41fc   afxstate.obj
 0003:00002200       ?_afxBaseModuleState@@3V?$CProcessLocal@V_AFX_BASE_MODULE_STATE@@@@A 5f4d4200   afxstate.obj
 0003:00002208       ?_afxThreadData@@3PAVCThreadSlotData@@A 5f4d4208   afxtls.obj
 0003:00002210       ?__afxThreadData@@3PAEA    5f4d4210   afxtls.obj
 0003:00002250       ?_afxMsgCache@@3PAUAFX_MSG_CACHE@@A 5f4d4250   wincore.obj
 0003:00003a50       ?wndTop@CWnd@@2V1@B        5f4d5a50   wincore.obj
 0003:00003a90       ?wndTopMost@CWnd@@2V1@B    5f4d5a90   wincore.obj
 0003:00003ad0       ?wndNoTopMost@CWnd@@2V1@B  5f4d5ad0   wincore.obj
 0003:00003b10       ?wndBottom@CWnd@@2V1@B     5f4d5b10   wincore.obj
 0003:00003b50       ?m_nMsgDragList@CWnd@@1IB  5f4d5b50   wincore.obj
 0003:00003b58       ?rectDefault@CFrameWnd@@2VCRect@@B 5f4d5b58   winfrm.obj
 0003:00003bc8       ?_afxChecklistState@@3V?$CProcessLocal@V_AFX_CHECKLIST_STATE@@@@A 5f4d5bc8   winctrl3.obj
 0003:00003bcc       ?_afxRichEditState@@3V?$CProcessLocal@V_AFX_RICHEDIT_STATE@@@@A 5f4d5bcc   winctrl4.obj
 0003:00003be4       ?_afxNMsgSETRGB@@3IB       5f4d5be4   dlgcomm.obj
 0003:00003be8       ?_afxClrState@@3V?$CProcessLocal@V_AFX_COLOR_STATE@@@@A 5f4d5be8   dlgclr.obj
 0003:00003bec       ?_afxPropPageFontInfo@@3V?$CProcessLocal@U_AFX_PROPPAGEFONTINFO@@@@A 5f4d5bec   ccdata.obj
 0003:00003bf0       ?_afxExtDllState@@3V?$CProcessLocal@V_AFX_EXTDLL_STATE@@@@A 5f4d5bf0   ccdata.obj
 0003:00003bf8       ?_simpleUserException@@3VCUserException@@A 5f4d5bf8   wingdi.obj
 0003:00003d18       ?_simpleResourceException@@3VCResourceException@@A 5f4d5d18   wingdi.obj
 0003:00003e40       ?afxData@@3UAUX_DATA@@A    5f4d5e40   auxdata.obj
 0003:000040fc       ?_afxEditState@@3V?$CProcessLocal@V_AFX_EDIT_STATE@@@@A 5f4d60fc   viewedit.obj
 0003:0000410c       ?_afxMailState@@3V?$CProcessLocal@V_AFX_MAIL_STATE@@@@A 5f4d610c   docmapi.obj
 0003:00004110       ?_afxWinState@@3V?$CProcessLocal@V_AFX_WIN_STATE@@@@A 5f4d6110   appcore.obj
 0003:00004114       ?_afxCtl3dState@@3V?$CProcessLocal@V_AFX_CTL3D_STATE@@@@A 5f4d6114   app3d.obj
 0003:00004118       ?_afxCtl3dThread@@3V?$CThreadLocal@V_AFX_CTL3D_THREAD@@@@A 5f4d6118   app3d.obj
 0003:00004120       ?_afxSessionMap@@3VCMapPtrToPtr@@A 5f4d6120   inet.obj
 0003:00004154       __adjust_fdiv              5f4d6154   <common>
 0003:00004158       ___onexitend               5f4d6158   <common>
 0003:0000415c       ___onexitbegin             5f4d615c   <common>
 0004:00000000       __IMPORT_DESCRIPTOR_MSVCRTD 5f4d7000   msvcrtd:MSVCRTD.dll
 0004:00000014       __IMPORT_DESCRIPTOR_KERNEL32 5f4d7014   kernel32:KERNEL32.dll
 0004:00000028       __IMPORT_DESCRIPTOR_GDI32  5f4d7028   gdi32:GDI32.dll
 0004:0000003c       __IMPORT_DESCRIPTOR_USER32 5f4d703c   user32:USER32.dll
 0004:00000050       __NULL_IMPORT_DESCRIPTOR   5f4d7050   msvcrtd:MSVCRTD.dll
 0004:00000a4c       __imp__GetCharABCWidthsW@16 5f4d7a4c   gdi32:GDI32.dll
 0004:00000a50       __imp__Escape@20           5f4d7a50   gdi32:GDI32.dll
 0004:00000a54       __imp__PlayMetaFile@8      5f4d7a54   gdi32:GDI32.dll
 0004:00000a58       __imp__EnumMetaFile@16     5f4d7a58   gdi32:GDI32.dll
 0004:00000a5c       __imp__PlayMetaFileRecord@16 5f4d7a5c   gdi32:GDI32.dll
 0004:00000a60       __imp__ExtSelectClipRgn@12 5f4d7a60   gdi32:GDI32.dll
 0004:00000a64       __imp__SelectClipPath@8    5f4d7a64   gdi32:GDI32.dll
 0004:00000a68       __imp__GetClipRgn@8        5f4d7a68   gdi32:GDI32.dll
 0004:00000a6c       __imp__PolyBezierTo@12     5f4d7a6c   gdi32:GDI32.dll
 0004:00000a70       __imp__SetColorAdjustment@8 5f4d7a70   gdi32:GDI32.dll
 0004:00000a74       __imp__PolylineTo@12       5f4d7a74   gdi32:GDI32.dll
 0004:00000a78       __imp__PolyDraw@16         5f4d7a78   gdi32:GDI32.dll
 0004:00000a7c       __imp__SetArcDirection@8   5f4d7a7c   gdi32:GDI32.dll
 0004:00000a80       __imp__ArcTo@36            5f4d7a80   gdi32:GDI32.dll
 0004:00000a84       __imp__SetMapperFlags@8    5f4d7a84   gdi32:GDI32.dll
 0004:00000a88       __imp__SetTextCharacterExtra@8 5f4d7a88   gdi32:GDI32.dll
 0004:00000a8c       __imp__SetTextJustification@12 5f4d7a8c   gdi32:GDI32.dll
 0004:00000a90       __imp__SetTextAlign@8      5f4d7a90   gdi32:GDI32.dll
 0004:00000a94       __imp__LineTo@12           5f4d7a94   gdi32:GDI32.dll
 0004:00000a98       __imp__OffsetClipRgn@12    5f4d7a98   gdi32:GDI32.dll
 0004:00000a9c       __imp__ExcludeClipRect@20  5f4d7a9c   gdi32:GDI32.dll
 0004:00000aa0       __imp__SelectClipRgn@8     5f4d7aa0   gdi32:GDI32.dll
 0004:00000aa4       __imp__OffsetWindowOrgEx@16 5f4d7aa4   gdi32:GDI32.dll
 0004:00000aa8       __imp__SetStretchBltMode@8 5f4d7aa8   gdi32:GDI32.dll
 0004:00000aac       __imp__SetROP2@8           5f4d7aac   gdi32:GDI32.dll
 0004:00000ab0       __imp__SetPolyFillMode@8   5f4d7ab0   gdi32:GDI32.dll
 0004:00000ab4       __imp__SetBkMode@8         5f4d7ab4   gdi32:GDI32.dll
 0004:00000ab8       __imp__SelectPalette@12    5f4d7ab8   gdi32:GDI32.dll
 0004:00000abc       __imp__GetClipBox@8        5f4d7abc   gdi32:GDI32.dll
 0004:00000ac0       __imp__DeleteMetaFile@4    5f4d7ac0   gdi32:GDI32.dll
 0004:00000ac4       __imp__IntersectClipRect@20 5f4d7ac4   gdi32:GDI32.dll
 0004:00000ac8       __imp__SetWindowOrgEx@16   5f4d7ac8   gdi32:GDI32.dll
 0004:00000acc       __imp__GetTextExtentPointA@16 5f4d7acc   gdi32:GDI32.dll
 0004:00000ad0       __imp__MoveToEx@16         5f4d7ad0   gdi32:GDI32.dll
 0004:00000ad4       __imp__ScaleWindowExtEx@24 5f4d7ad4   gdi32:GDI32.dll
 0004:00000ad8       __imp__SetWindowExtEx@16   5f4d7ad8   gdi32:GDI32.dll
 0004:00000adc       __imp__ScaleViewportExtEx@24 5f4d7adc   gdi32:GDI32.dll
 0004:00000ae0       __imp__SetViewportExtEx@16 5f4d7ae0   gdi32:GDI32.dll
 0004:00000ae4       __imp__OffsetViewportOrgEx@16 5f4d7ae4   gdi32:GDI32.dll
 0004:00000ae8       __imp__SetViewportOrgEx@16 5f4d7ae8   gdi32:GDI32.dll
 0004:00000aec       __imp__SetMapMode@8        5f4d7aec   gdi32:GDI32.dll
 0004:00000af0       __imp__DeleteObject@4      5f4d7af0   gdi32:GDI32.dll
 0004:00000af4       __imp__RestoreDC@8         5f4d7af4   gdi32:GDI32.dll
 0004:00000af8       __imp__SaveDC@4            5f4d7af8   gdi32:GDI32.dll
 0004:00000afc       __imp__StretchDIBits@52    5f4d7afc   gdi32:GDI32.dll
 0004:00000b00       __imp__DeleteDC@4          5f4d7b00   gdi32:GDI32.dll
 0004:00000b04       __imp__SetBkColor@8        5f4d7b04   gdi32:GDI32.dll
 0004:00000b08       __imp__SetTextColor@8      5f4d7b08   gdi32:GDI32.dll
 0004:00000b0c       __imp__PlayEnhMetaFile@12  5f4d7b0c   gdi32:GDI32.dll
 0004:00000b10       __imp__GdiComment@12       5f4d7b10   gdi32:GDI32.dll
 0004:00000b14       __imp__WidenPath@4         5f4d7b14   gdi32:GDI32.dll
 0004:00000b18       __imp__StrokePath@4        5f4d7b18   gdi32:GDI32.dll
 0004:00000b1c       __imp__StrokeAndFillPath@4 5f4d7b1c   gdi32:GDI32.dll
 0004:00000b20       __imp__SetMiterLimit@12    5f4d7b20   gdi32:GDI32.dll
 0004:00000b24       __imp__GetPath@16          5f4d7b24   gdi32:GDI32.dll
 0004:00000b28       __imp__GetMiterLimit@8     5f4d7b28   gdi32:GDI32.dll
 0004:00000b2c       __imp__FlattenPath@4       5f4d7b2c   gdi32:GDI32.dll
 0004:00000b30       __imp__FillPath@4          5f4d7b30   gdi32:GDI32.dll
 0004:00000b34       __imp__EndPath@4           5f4d7b34   gdi32:GDI32.dll
 0004:00000b38       __imp__CloseFigure@4       5f4d7b38   gdi32:GDI32.dll
 0004:00000b3c       __imp__BeginPath@4         5f4d7b3c   gdi32:GDI32.dll
 0004:00000b40       __imp__AbortPath@4         5f4d7b40   gdi32:GDI32.dll
 0004:00000b44       __imp__GetCharWidthFloatW@16 5f4d7b44   gdi32:GDI32.dll
 0004:00000b48       __imp__GetCharABCWidthsFloatW@16 5f4d7b48   gdi32:GDI32.dll
 0004:00000b4c       __imp__ExtEscape@24        5f4d7b4c   gdi32:GDI32.dll
 0004:00000b50       __imp__DrawEscape@16       5f4d7b50   gdi32:GDI32.dll
 0004:00000b54       __imp__PolyBezier@12       5f4d7b54   gdi32:GDI32.dll
 0004:00000b58       __imp__GetCurrentObject@8  5f4d7b58   gdi32:GDI32.dll
 0004:00000b5c       __imp__GetColorAdjustment@8 5f4d7b5c   gdi32:GDI32.dll
 0004:00000b60       __imp__PolyPolyline@16     5f4d7b60   gdi32:GDI32.dll
 0004:00000b64       __imp__GetArcDirection@4   5f4d7b64   gdi32:GDI32.dll
 0004:00000b68       __imp__AngleArc@24         5f4d7b68   gdi32:GDI32.dll
 0004:00000b6c       __imp__SetPixelV@16        5f4d7b6c   gdi32:GDI32.dll
 0004:00000b70       __imp__PlgBlt@40           5f4d7b70   gdi32:GDI32.dll
 0004:00000b74       __imp__MaskBlt@48          5f4d7b74   gdi32:GDI32.dll
 0004:00000b78       __imp__EndDoc@4            5f4d7b78   gdi32:GDI32.dll
 0004:00000b7c       __imp__AbortDoc@4          5f4d7b7c   gdi32:GDI32.dll
 0004:00000b80       __imp__SetAbortProc@8      5f4d7b80   gdi32:GDI32.dll
 0004:00000b84       __imp__EndPage@4           5f4d7b84   gdi32:GDI32.dll
 0004:00000b88       __imp__StartPage@4         5f4d7b88   gdi32:GDI32.dll
 0004:00000b8c       __imp__StartDocW@8         5f4d7b8c   gdi32:GDI32.dll
 0004:00000b90       __imp__GetGlyphOutlineW@28 5f4d7b90   gdi32:GDI32.dll
 0004:00000b94       __imp__GetKerningPairsW@12 5f4d7b94   gdi32:GDI32.dll
 0004:00000b98       __imp__GetFontData@20      5f4d7b98   gdi32:GDI32.dll
 0004:00000b9c       __imp__GetOutlineTextMetricsW@12 5f4d7b9c   gdi32:GDI32.dll
 0004:00000ba0       __imp__ResetDCW@8          5f4d7ba0   gdi32:GDI32.dll
 0004:00000ba4       __imp__GetBoundsRect@12    5f4d7ba4   gdi32:GDI32.dll
 0004:00000ba8       __imp__SetBoundsRect@12    5f4d7ba8   gdi32:GDI32.dll
 0004:00000bac       __imp__GetTextCharacterExtra@4 5f4d7bac   gdi32:GDI32.dll
 0004:00000bb0       __imp__GetTextMetricsW@8   5f4d7bb0   gdi32:GDI32.dll
 0004:00000bb4       __imp__GetCharWidthW@16    5f4d7bb4   gdi32:GDI32.dll
 0004:00000bb8       __imp__GetTextAlign@4      5f4d7bb8   gdi32:GDI32.dll
 0004:00000bbc       __imp__GetTextExtentPointW@16 5f4d7bbc   gdi32:GDI32.dll
 0004:00000bc0       __imp__GetTextFaceW@12     5f4d7bc0   gdi32:GDI32.dll
 0004:00000bc4       __imp__ExtFloodFill@20     5f4d7bc4   gdi32:GDI32.dll
 0004:00000bc8       __imp__FloodFill@16        5f4d7bc8   gdi32:GDI32.dll
 0004:00000bcc       __imp__TextOutW@20         5f4d7bcc   gdi32:GDI32.dll
 0004:00000bd0       __imp__GetPixel@12         5f4d7bd0   gdi32:GDI32.dll
 0004:00000bd4       __imp__StretchBlt@44       5f4d7bd4   gdi32:GDI32.dll
 0004:00000bd8       __imp__SetPixel@16         5f4d7bd8   gdi32:GDI32.dll
 0004:00000bdc       __imp__PatBlt@24           5f4d7bdc   gdi32:GDI32.dll
 0004:00000be0       __imp__RoundRect@28        5f4d7be0   gdi32:GDI32.dll
 0004:00000be4       __imp__BitBlt@36           5f4d7be4   gdi32:GDI32.dll
 0004:00000be8       __imp__PolyPolygon@16      5f4d7be8   gdi32:GDI32.dll
 0004:00000bec       __imp__Polygon@12          5f4d7bec   gdi32:GDI32.dll
 0004:00000bf0       __imp__Rectangle@20        5f4d7bf0   gdi32:GDI32.dll
 0004:00000bf4       __imp__Ellipse@20          5f4d7bf4   gdi32:GDI32.dll
 0004:00000bf8       __imp__Chord@36            5f4d7bf8   gdi32:GDI32.dll
 0004:00000bfc       __imp__Pie@36              5f4d7bfc   gdi32:GDI32.dll
 0004:00000c00       __imp__Arc@36              5f4d7c00   gdi32:GDI32.dll
 0004:00000c04       __imp__GetCurrentPositionEx@8 5f4d7c04   gdi32:GDI32.dll
 0004:00000c08       __imp__Polyline@12         5f4d7c08   gdi32:GDI32.dll
 0004:00000c0c       __imp__PtVisible@12        5f4d7c0c   gdi32:GDI32.dll
 0004:00000c10       __imp__PaintRgn@8          5f4d7c10   gdi32:GDI32.dll
 0004:00000c14       __imp__RectVisible@8       5f4d7c14   gdi32:GDI32.dll
 0004:00000c18       __imp__FrameRgn@20         5f4d7c18   gdi32:GDI32.dll
 0004:00000c1c       __imp__FillRgn@12          5f4d7c1c   gdi32:GDI32.dll
 0004:00000c20       __imp__InvertRgn@8         5f4d7c20   gdi32:GDI32.dll
 0004:00000c24       __imp__DPtoLP@12           5f4d7c24   gdi32:GDI32.dll
 0004:00000c28       __imp__GetWindowExtEx@8    5f4d7c28   gdi32:GDI32.dll
 0004:00000c2c       __imp__LPtoDP@12           5f4d7c2c   gdi32:GDI32.dll
 0004:00000c30       __imp__GetViewportExtEx@8  5f4d7c30   gdi32:GDI32.dll
 0004:00000c34       __imp__GetViewportOrgEx@8  5f4d7c34   gdi32:GDI32.dll
 0004:00000c38       __imp__GetWindowOrgEx@8    5f4d7c38   gdi32:GDI32.dll
 0004:00000c3c       __imp__GetTextColor@4      5f4d7c3c   gdi32:GDI32.dll
 0004:00000c40       __imp__GetStretchBltMode@4 5f4d7c40   gdi32:GDI32.dll
 0004:00000c44       __imp__GetMapMode@4        5f4d7c44   gdi32:GDI32.dll
 0004:00000c48       __imp__GetPolyFillMode@4   5f4d7c48   gdi32:GDI32.dll
 0004:00000c4c       __imp__GetBkMode@4         5f4d7c4c   gdi32:GDI32.dll
 0004:00000c50       __imp__GetROP2@4           5f4d7c50   gdi32:GDI32.dll
 0004:00000c54       __imp__UpdateColors@4      5f4d7c54   gdi32:GDI32.dll
 0004:00000c58       __imp__RealizePalette@4    5f4d7c58   gdi32:GDI32.dll
 0004:00000c5c       __imp__GetBkColor@4        5f4d7c5c   gdi32:GDI32.dll
 0004:00000c60       __imp__SelectObject@8      5f4d7c60   gdi32:GDI32.dll
 0004:00000c64       __imp__EnumObjects@16      5f4d7c64   gdi32:GDI32.dll
 0004:00000c68       __imp__GetNearestColor@8   5f4d7c68   gdi32:GDI32.dll
 0004:00000c6c       __imp__GetBrushOrgEx@8     5f4d7c6c   gdi32:GDI32.dll
 0004:00000c70       __imp__GetDeviceCaps@8     5f4d7c70   gdi32:GDI32.dll
 0004:00000c74       __imp__SetBrushOrgEx@16    5f4d7c74   gdi32:GDI32.dll
 0004:00000c78       __imp__CreateICW@16        5f4d7c78   gdi32:GDI32.dll
 0004:00000c7c       __imp__CreateDCW@16        5f4d7c7c   gdi32:GDI32.dll
 0004:00000c80       __imp__CreateCompatibleDC@4 5f4d7c80   gdi32:GDI32.dll
 0004:00000c84       __imp__PtInRegion@12       5f4d7c84   gdi32:GDI32.dll
 0004:00000c88       __imp__GetRgnBox@8         5f4d7c88   gdi32:GDI32.dll
 0004:00000c8c       __imp__RectInRegion@8      5f4d7c8c   gdi32:GDI32.dll
 0004:00000c90       __imp__EqualRgn@8          5f4d7c90   gdi32:GDI32.dll
 0004:00000c94       __imp__CombineRgn@16       5f4d7c94   gdi32:GDI32.dll
 0004:00000c98       __imp__OffsetRgn@12        5f4d7c98   gdi32:GDI32.dll
 0004:00000c9c       __imp__GetRegionData@12    5f4d7c9c   gdi32:GDI32.dll
 0004:00000ca0       __imp__ExtCreateRegion@12  5f4d7ca0   gdi32:GDI32.dll
 0004:00000ca4       __imp__SetRectRgn@20       5f4d7ca4   gdi32:GDI32.dll
 0004:00000ca8       __imp__CreateRoundRectRgn@24 5f4d7ca8   gdi32:GDI32.dll
 0004:00000cac       __imp__CreatePolyPolygonRgn@16 5f4d7cac   gdi32:GDI32.dll
 0004:00000cb0       __imp__PathToRegion@4      5f4d7cb0   gdi32:GDI32.dll
 0004:00000cb4       __imp__CreateEllipticRgnIndirect@4 5f4d7cb4   gdi32:GDI32.dll
 0004:00000cb8       __imp__CreateEllipticRgn@16 5f4d7cb8   gdi32:GDI32.dll
 0004:00000cbc       __imp__GetAspectRatioFilterEx@8 5f4d7cbc   gdi32:GDI32.dll
 0004:00000cc0       __imp__CreatePolygonRgn@12 5f4d7cc0   gdi32:GDI32.dll
 0004:00000cc4       __imp__CreateRectRgn@16    5f4d7cc4   gdi32:GDI32.dll
 0004:00000cc8       __imp__ResizePalette@8     5f4d7cc8   gdi32:GDI32.dll
 0004:00000ccc       __imp__CreateRectRgnIndirect@4 5f4d7ccc   gdi32:GDI32.dll
 0004:00000cd0       __imp__AnimatePalette@16   5f4d7cd0   gdi32:GDI32.dll
 0004:00000cd4       __imp__SetPaletteEntries@16 5f4d7cd4   gdi32:GDI32.dll
 0004:00000cd8       __imp__GetNearestPaletteIndex@8 5f4d7cd8   gdi32:GDI32.dll
 0004:00000cdc       __imp__CreateHalftonePalette@4 5f4d7cdc   gdi32:GDI32.dll
 0004:00000ce0       __imp__CreatePalette@4     5f4d7ce0   gdi32:GDI32.dll
 0004:00000ce4       __imp__GetPaletteEntries@16 5f4d7ce4   gdi32:GDI32.dll
 0004:00000ce8       __imp__CreateCompatibleBitmap@12 5f4d7ce8   gdi32:GDI32.dll
 0004:00000cec       __imp__GetBitmapDimensionEx@8 5f4d7cec   gdi32:GDI32.dll
 0004:00000cf0       __imp__CreateDiscardableBitmap@12 5f4d7cf0   gdi32:GDI32.dll
 0004:00000cf4       __imp__GetBitmapBits@12    5f4d7cf4   gdi32:GDI32.dll
 0004:00000cf8       __imp__SetBitmapBits@12    5f4d7cf8   gdi32:GDI32.dll
 0004:00000cfc       __imp__SetBitmapDimensionEx@16 5f4d7cfc   gdi32:GDI32.dll
 0004:00000d00       __imp__CreateBitmap@20     5f4d7d00   gdi32:GDI32.dll
 0004:00000d04       __imp__CreateFontW@56      5f4d7d04   gdi32:GDI32.dll
 0004:00000d08       __imp__CreateBitmapIndirect@4 5f4d7d08   gdi32:GDI32.dll
 0004:00000d0c       __imp__CreateDIBPatternBrushPt@8 5f4d7d0c   gdi32:GDI32.dll
 0004:00000d10       __imp__CreatePatternBrush@4 5f4d7d10   gdi32:GDI32.dll
 0004:00000d14       __imp__CreateFontIndirectW@4 5f4d7d14   gdi32:GDI32.dll
 0004:00000d18       __imp__CreateHatchBrush@8  5f4d7d18   gdi32:GDI32.dll
 0004:00000d1c       __imp__CreateSolidBrush@4  5f4d7d1c   gdi32:GDI32.dll
 0004:00000d20       __imp__CreateBrushIndirect@4 5f4d7d20   gdi32:GDI32.dll
 0004:00000d24       __imp__CreatePenIndirect@4 5f4d7d24   gdi32:GDI32.dll
 0004:00000d28       __imp__CreatePen@12        5f4d7d28   gdi32:GDI32.dll
 0004:00000d2c       __imp__ExtCreatePen@20     5f4d7d2c   gdi32:GDI32.dll
 0004:00000d30       __imp__UnrealizeObject@4   5f4d7d30   gdi32:GDI32.dll
 0004:00000d34       __imp__GetStockObject@4    5f4d7d34   gdi32:GDI32.dll
 0004:00000d38       __imp__GetObjectType@4     5f4d7d38   gdi32:GDI32.dll
 0004:00000d3c       __imp__ExtTextOutW@32      5f4d7d3c   gdi32:GDI32.dll
 0004:00000d40       __imp__CloseEnhMetaFile@4  5f4d7d40   gdi32:GDI32.dll
 0004:00000d44       __imp__GetObjectW@12       5f4d7d44   gdi32:GDI32.dll
 0004:00000d48       __imp__CloseMetaFile@4     5f4d7d48   gdi32:GDI32.dll
 0004:00000d4c       __imp__CreateMetaFileW@4   5f4d7d4c   gdi32:GDI32.dll
 0004:00000d50       __imp__CreateEnhMetaFileW@16 5f4d7d50   gdi32:GDI32.dll
 0004:00000d54       \177GDI32_NULL_THUNK_DATA  5f4d7d54   gdi32:GDI32.dll
 0004:00000d58       __imp__GetCurrentThread@0  5f4d7d58   kernel32:KERNEL32.dll
 0004:00000d5c       __imp__SetErrorMode@4      5f4d7d5c   kernel32:KERNEL32.dll
 0004:00000d60       __imp__GetPrivateProfileStringW@24 5f4d7d60   kernel32:KERNEL32.dll
 0004:00000d64       __imp__TlsFree@4           5f4d7d64   kernel32:KERNEL32.dll
 0004:00000d68       __imp__SearchPathW@24      5f4d7d68   kernel32:KERNEL32.dll
 0004:00000d6c       __imp__GlobalDeleteAtom@4  5f4d7d6c   kernel32:KERNEL32.dll
 0004:00000d70       __imp__GetModuleHandleA@4  5f4d7d70   kernel32:KERNEL32.dll
 0004:00000d74       __imp__lstrcatA@8          5f4d7d74   kernel32:KERNEL32.dll
 0004:00000d78       __imp__GetSystemDirectoryA@8 5f4d7d78   kernel32:KERNEL32.dll
 0004:00000d7c       __imp__Sleep@4             5f4d7d7c   kernel32:KERNEL32.dll
 0004:00000d80       __imp__LocalUnlock@4       5f4d7d80   kernel32:KERNEL32.dll
 0004:00000d84       __imp__GetTempPathW@8      5f4d7d84   kernel32:KERNEL32.dll
 0004:00000d88       __imp__LocalLock@4         5f4d7d88   kernel32:KERNEL32.dll
 0004:00000d8c       __imp__GlobalFlags@4       5f4d7d8c   kernel32:KERNEL32.dll
 0004:00000d90       __imp__GetDiskFreeSpaceW@20 5f4d7d90   kernel32:KERNEL32.dll
 0004:00000d94       __imp__GetTempFileNameW@16 5f4d7d94   kernel32:KERNEL32.dll
 0004:00000d98       __imp__GetProcessVersion@4 5f4d7d98   kernel32:KERNEL32.dll
 0004:00000d9c       __imp__lstrcmpW@8          5f4d7d9c   kernel32:KERNEL32.dll
 0004:00000da0       __imp__GetVersion@0        5f4d7da0   kernel32:KERNEL32.dll
 0004:00000da4       __imp__LoadLibraryA@4      5f4d7da4   kernel32:KERNEL32.dll
 0004:00000da8       __imp__SizeofResource@8    5f4d7da8   kernel32:KERNEL32.dll
 0004:00000dac       __imp__VirtualProtect@16   5f4d7dac   kernel32:KERNEL32.dll
 0004:00000db0       __imp__GlobalGetAtomNameW@12 5f4d7db0   kernel32:KERNEL32.dll
 0004:00000db4       __imp__GetProfileIntW@12   5f4d7db4   kernel32:KERNEL32.dll
 0004:00000db8       __imp__MulDiv@12           5f4d7db8   kernel32:KERNEL32.dll
 0004:00000dbc       __imp__LoadResource@8      5f4d7dbc   kernel32:KERNEL32.dll
 0004:00000dc0       __imp__GlobalAddAtomW@4    5f4d7dc0   kernel32:KERNEL32.dll
 0004:00000dc4       __imp__FindResourceW@12    5f4d7dc4   kernel32:KERNEL32.dll
 0004:00000dc8       __imp__lstrcatW@8          5f4d7dc8   kernel32:KERNEL32.dll
 0004:00000dcc       __imp__LockResource@4      5f4d7dcc   kernel32:KERNEL32.dll
 0004:00000dd0       __imp__FreeResource@4      5f4d7dd0   kernel32:KERNEL32.dll
 0004:00000dd4       __imp__CreateEventW@16     5f4d7dd4   kernel32:KERNEL32.dll
 0004:00000dd8       __imp__GetCurrentThreadId@0 5f4d7dd8   kernel32:KERNEL32.dll
 0004:00000ddc       __imp__WaitForMultipleObjects@16 5f4d7ddc   kernel32:KERNEL32.dll
 0004:00000de0       __imp__ReleaseSemaphore@12 5f4d7de0   kernel32:KERNEL32.dll
 0004:00000de4       __imp__ReleaseMutex@4      5f4d7de4   kernel32:KERNEL32.dll
 0004:00000de8       __imp__CreateMutexW@12     5f4d7de8   kernel32:KERNEL32.dll
 0004:00000dec       __imp__PulseEvent@4        5f4d7dec   kernel32:KERNEL32.dll
 0004:00000df0       __imp__CreateSemaphoreW@16 5f4d7df0   kernel32:KERNEL32.dll
 0004:00000df4       __imp__ResetEvent@4        5f4d7df4   kernel32:KERNEL32.dll
 0004:00000df8       __imp__TlsGetValue@4       5f4d7df8   kernel32:KERNEL32.dll
 0004:00000dfc       __imp__SetEvent@4          5f4d7dfc   kernel32:KERNEL32.dll
 0004:00000e00       __imp__WaitForSingleObject@8 5f4d7e00   kernel32:KERNEL32.dll
 0004:00000e04       __imp__EnterCriticalSection@4 5f4d7e04   kernel32:KERNEL32.dll
 0004:00000e08       __imp__LocalReAlloc@12     5f4d7e08   kernel32:KERNEL32.dll
 0004:00000e0c       __imp__TlsSetValue@8       5f4d7e0c   kernel32:KERNEL32.dll
 0004:00000e10       __imp__TlsAlloc@0          5f4d7e10   kernel32:KERNEL32.dll
 0004:00000e14       __imp__GlobalHandle@4      5f4d7e14   kernel32:KERNEL32.dll
 0004:00000e18       __imp__DeleteCriticalSection@4 5f4d7e18   kernel32:KERNEL32.dll
 0004:00000e1c       __imp__FileTimeToLocalFileTime@8 5f4d7e1c   kernel32:KERNEL32.dll
 0004:00000e20       __imp__InitializeCriticalSection@4 5f4d7e20   kernel32:KERNEL32.dll
 0004:00000e24       __imp__LocalAlloc@8        5f4d7e24   kernel32:KERNEL32.dll
 0004:00000e28       __imp__LocalFree@4         5f4d7e28   kernel32:KERNEL32.dll
 0004:00000e2c       __imp__FileTimeToSystemTime@8 5f4d7e2c   kernel32:KERNEL32.dll
 0004:00000e30       __imp__FormatMessageW@28   5f4d7e30   kernel32:KERNEL32.dll
 0004:00000e34       __imp__InterlockedDecrement@4 5f4d7e34   kernel32:KERNEL32.dll
 0004:00000e38       __imp__MultiByteToWideChar@24 5f4d7e38   kernel32:KERNEL32.dll
 0004:00000e3c       __imp__WideCharToMultiByte@32 5f4d7e3c   kernel32:KERNEL32.dll
 0004:00000e40       __imp__SetFileTime@16      5f4d7e40   kernel32:KERNEL32.dll
 0004:00000e44       __imp__InterlockedIncrement@4 5f4d7e44   kernel32:KERNEL32.dll
 0004:00000e48       __imp__GetFileAttributesW@4 5f4d7e48   kernel32:KERNEL32.dll
 0004:00000e4c       __imp__LocalFileTimeToFileTime@8 5f4d7e4c   kernel32:KERNEL32.dll
 0004:00000e50       __imp__SetFileAttributesW@8 5f4d7e50   kernel32:KERNEL32.dll
 0004:00000e54       __imp__SystemTimeToFileTime@8 5f4d7e54   kernel32:KERNEL32.dll
 0004:00000e58       __imp__GlobalFree@4        5f4d7e58   kernel32:KERNEL32.dll
 0004:00000e5c       __imp__GetFileTime@16      5f4d7e5c   kernel32:KERNEL32.dll
 0004:00000e60       __imp__GetFileSize@8       5f4d7e60   kernel32:KERNEL32.dll
 0004:00000e64       __imp__GlobalAlloc@8       5f4d7e64   kernel32:KERNEL32.dll
 0004:00000e68       __imp__GlobalUnlock@4      5f4d7e68   kernel32:KERNEL32.dll
 0004:00000e6c       __imp__GlobalReAlloc@12    5f4d7e6c   kernel32:KERNEL32.dll
 0004:00000e70       __imp__GetModuleFileNameW@12 5f4d7e70   kernel32:KERNEL32.dll
 0004:00000e74       __imp__GlobalLock@4        5f4d7e74   kernel32:KERNEL32.dll
 0004:00000e78       __imp__GlobalSize@4        5f4d7e78   kernel32:KERNEL32.dll
 0004:00000e7c       __imp__GetThreadLocale@0   5f4d7e7c   kernel32:KERNEL32.dll
 0004:00000e80       __imp__GetShortPathNameW@12 5f4d7e80   kernel32:KERNEL32.dll
 0004:00000e84       __imp__lstrcmpiW@8         5f4d7e84   kernel32:KERNEL32.dll
 0004:00000e88       __imp__GetVolumeInformationW@32 5f4d7e88   kernel32:KERNEL32.dll
 0004:00000e8c       __imp__GetStringTypeExW@20 5f4d7e8c   kernel32:KERNEL32.dll
 0004:00000e90       __imp__GetFullPathNameW@16 5f4d7e90   kernel32:KERNEL32.dll
 0004:00000e94       __imp__lstrcpyW@8          5f4d7e94   kernel32:KERNEL32.dll
 0004:00000e98       __imp__FindFirstFileW@8    5f4d7e98   kernel32:KERNEL32.dll
 0004:00000e9c       __imp__FindClose@4         5f4d7e9c   kernel32:KERNEL32.dll
 0004:00000ea0       __imp__FreeLibrary@4       5f4d7ea0   kernel32:KERNEL32.dll
 0004:00000ea4       __imp__LoadLibraryW@4      5f4d7ea4   kernel32:KERNEL32.dll
 0004:00000ea8       __imp__GetProcAddress@8    5f4d7ea8   kernel32:KERNEL32.dll
 0004:00000eac       __imp__SetEndOfFile@4      5f4d7eac   kernel32:KERNEL32.dll
 0004:00000eb0       __imp__DeleteFileW@4       5f4d7eb0   kernel32:KERNEL32.dll
 0004:00000eb4       __imp__MoveFileW@8         5f4d7eb4   kernel32:KERNEL32.dll
 0004:00000eb8       __imp__CloseHandle@4       5f4d7eb8   kernel32:KERNEL32.dll
 0004:00000ebc       __imp__UnlockFile@20       5f4d7ebc   kernel32:KERNEL32.dll
 0004:00000ec0       __imp__LockFile@20         5f4d7ec0   kernel32:KERNEL32.dll
 0004:00000ec4       __imp__WriteFile@20        5f4d7ec4   kernel32:KERNEL32.dll
 0004:00000ec8       __imp__FlushFileBuffers@4  5f4d7ec8   kernel32:KERNEL32.dll
 0004:00000ecc       __imp__SetFilePointer@16   5f4d7ecc   kernel32:KERNEL32.dll
 0004:00000ed0       __imp__GetCurrentProcess@0 5f4d7ed0   kernel32:KERNEL32.dll
 0004:00000ed4       __imp__ReadFile@20         5f4d7ed4   kernel32:KERNEL32.dll
 0004:00000ed8       __imp__CreateFileW@28      5f4d7ed8   kernel32:KERNEL32.dll
 0004:00000edc       __imp__ResumeThread@4      5f4d7edc   kernel32:KERNEL32.dll
 0004:00000ee0       __imp__DuplicateHandle@28  5f4d7ee0   kernel32:KERNEL32.dll
 0004:00000ee4       __imp__SuspendThread@4     5f4d7ee4   kernel32:KERNEL32.dll
 0004:00000ee8       __imp__GetPrivateProfileIntW@16 5f4d7ee8   kernel32:KERNEL32.dll
 0004:00000eec       __imp__GetThreadPriority@4 5f4d7eec   kernel32:KERNEL32.dll
 0004:00000ef0       __imp__SetThreadPriority@8 5f4d7ef0   kernel32:KERNEL32.dll
 0004:00000ef4       __imp__lstrlenW@4          5f4d7ef4   kernel32:KERNEL32.dll
 0004:00000ef8       __imp__lstrlenA@4          5f4d7ef8   kernel32:KERNEL32.dll
 0004:00000efc       __imp__lstrcmpA@8          5f4d7efc   kernel32:KERNEL32.dll
 0004:00000f00       __imp__IsBadStringPtrA@8   5f4d7f00   kernel32:KERNEL32.dll
 0004:00000f04       __imp__IsBadReadPtr@8      5f4d7f04   kernel32:KERNEL32.dll
 0004:00000f08       __imp__IsBadWritePtr@8     5f4d7f08   kernel32:KERNEL32.dll
 0004:00000f0c       __imp__GetLastError@0      5f4d7f0c   kernel32:KERNEL32.dll
 0004:00000f10       __imp__IsBadStringPtrW@8   5f4d7f10   kernel32:KERNEL32.dll
 0004:00000f14       __imp__lstrcpynW@12        5f4d7f14   kernel32:KERNEL32.dll
 0004:00000f18       __imp__WritePrivateProfileStringW@16 5f4d7f18   kernel32:KERNEL32.dll
 0004:00000f1c       __imp__SetLastError@4      5f4d7f1c   kernel32:KERNEL32.dll
 0004:00000f20       __imp__GetCurrentDirectoryW@8 5f4d7f20   kernel32:KERNEL32.dll
 0004:00000f24       __imp__LeaveCriticalSection@4 5f4d7f24   kernel32:KERNEL32.dll
 0004:00000f28       __imp__FindNextFileW@8     5f4d7f28   kernel32:KERNEL32.dll
 0004:00000f2c       \177KERNEL32_NULL_THUNK_DATA 5f4d7f2c   kernel32:KERNEL32.dll
 0004:00000f30       __imp__malloc              5f4d7f30   msvcrtd:MSVCRTD.dll
 0004:00000f34       __imp___adjust_fdiv        5f4d7f34   msvcrtd:MSVCRTD.dll
 0004:00000f38       __imp___initterm           5f4d7f38   msvcrtd:MSVCRTD.dll
 0004:00000f3c       __imp_?terminate@@YAXXZ    5f4d7f3c   msvcrtd:MSVCRTD.dll
 0004:00000f40       __imp___CxxThrowException@8 5f4d7f40   msvcrtd:MSVCRTD.dll
 0004:00000f44       __imp___onexit             5f4d7f44   msvcrtd:MSVCRTD.dll
 0004:00000f48       __imp____dllonexit         5f4d7f48   msvcrtd:MSVCRTD.dll
 0004:00000f4c       __imp_??1type_info@@UAE@XZ 5f4d7f4c   msvcrtd:MSVCRTD.dll
 0004:00000f50       __imp___wfullpath          5f4d7f50   msvcrtd:MSVCRTD.dll
 0004:00000f54       __imp__wcscpy              5f4d7f54   msvcrtd:MSVCRTD.dll
 0004:00000f58       __imp___wtol               5f4d7f58   msvcrtd:MSVCRTD.dll
 0004:00000f5c       __imp__wcsncmp             5f4d7f5c   msvcrtd:MSVCRTD.dll
 0004:00000f60       __imp____p___wargv         5f4d7f60   msvcrtd:MSVCRTD.dll
 0004:00000f64       __imp____p___argc          5f4d7f64   msvcrtd:MSVCRTD.dll
 0004:00000f68       __imp___wcsdup             5f4d7f68   msvcrtd:MSVCRTD.dll
 0004:00000f6c       __imp___beginthreadex      5f4d7f6c   msvcrtd:MSVCRTD.dll
 0004:00000f70       __imp___endthreadex        5f4d7f70   msvcrtd:MSVCRTD.dll
 0004:00000f74       __imp___expand             5f4d7f74   msvcrtd:MSVCRTD.dll
 0004:00000f78       __imp__wcstod              5f4d7f78   msvcrtd:MSVCRTD.dll
 0004:00000f7c       __imp__swprintf            5f4d7f7c   msvcrtd:MSVCRTD.dll
 0004:00000f80       __imp__wcstol              5f4d7f80   msvcrtd:MSVCRTD.dll
 0004:00000f84       __imp__wcstoul             5f4d7f84   msvcrtd:MSVCRTD.dll
 0004:00000f88       __imp__abs                 5f4d7f88   msvcrtd:MSVCRTD.dll
 0004:00000f8c       __imp__calloc              5f4d7f8c   msvcrtd:MSVCRTD.dll
 0004:00000f90       __imp___msize              5f4d7f90   msvcrtd:MSVCRTD.dll
 0004:00000f94       __imp__wcsftime            5f4d7f94   msvcrtd:MSVCRTD.dll
 0004:00000f98       __imp__ctime               5f4d7f98   msvcrtd:MSVCRTD.dll
 0004:00000f9c       __imp__localtime           5f4d7f9c   msvcrtd:MSVCRTD.dll
 0004:00000fa0       __imp__gmtime              5f4d7fa0   msvcrtd:MSVCRTD.dll
 0004:00000fa4       __imp__time                5f4d7fa4   msvcrtd:MSVCRTD.dll
 0004:00000fa8       __imp__mktime              5f4d7fa8   msvcrtd:MSVCRTD.dll
 0004:00000fac       __imp__iswspace            5f4d7fac   msvcrtd:MSVCRTD.dll
 0004:00000fb0       __imp___wtoi               5f4d7fb0   msvcrtd:MSVCRTD.dll
 0004:00000fb4       __imp__iswdigit            5f4d7fb4   msvcrtd:MSVCRTD.dll
 0004:00000fb8       __imp__wcsstr              5f4d7fb8   msvcrtd:MSVCRTD.dll
 0004:00000fbc       __imp__wcsrchr             5f4d7fbc   msvcrtd:MSVCRTD.dll
 0004:00000fc0       __imp__wcscspn             5f4d7fc0   msvcrtd:MSVCRTD.dll
 0004:00000fc4       __imp__wcsspn              5f4d7fc4   msvcrtd:MSVCRTD.dll
 0004:00000fc8       __imp___wcsrev             5f4d7fc8   msvcrtd:MSVCRTD.dll
 0004:00000fcc       __imp__wcspbrk             5f4d7fcc   msvcrtd:MSVCRTD.dll
 0004:00000fd0       __imp__wcschr              5f4d7fd0   msvcrtd:MSVCRTD.dll
 0004:00000fd4       __imp__free                5f4d7fd4   msvcrtd:MSVCRTD.dll
 0004:00000fd8       __imp__realloc             5f4d7fd8   msvcrtd:MSVCRTD.dll
 0004:00000fdc       __imp__fclose              5f4d7fdc   msvcrtd:MSVCRTD.dll
 0004:00000fe0       __imp__fflush              5f4d7fe0   msvcrtd:MSVCRTD.dll
 0004:00000fe4       __imp__fseek               5f4d7fe4   msvcrtd:MSVCRTD.dll
 0004:00000fe8       __imp__ftell               5f4d7fe8   msvcrtd:MSVCRTD.dll
 0004:00000fec       __imp__fgetws              5f4d7fec   msvcrtd:MSVCRTD.dll
 0004:00000ff0       __imp__fputws              5f4d7ff0   msvcrtd:MSVCRTD.dll
 0004:00000ff4       __imp__fwrite              5f4d7ff4   msvcrtd:MSVCRTD.dll
 0004:00000ff8       __imp__fread               5f4d7ff8   msvcrtd:MSVCRTD.dll
 0004:00000ffc       __imp__clearerr            5f4d7ffc   msvcrtd:MSVCRTD.dll
 0004:00001000       __imp___open_osfhandle     5f4d8000   msvcrtd:MSVCRTD.dll
 0004:00001004       __imp___fdopen             5f4d8004   msvcrtd:MSVCRTD.dll
 0004:00001008       __imp____doserrno          5f4d8008   msvcrtd:MSVCRTD.dll
 0004:0000100c       __imp___get_osfhandle      5f4d800c   msvcrtd:MSVCRTD.dll
 0004:00001010       __imp__wcscoll             5f4d8010   msvcrtd:MSVCRTD.dll
 0004:00001014       __imp___wcsicmp            5f4d8014   msvcrtd:MSVCRTD.dll
 0004:00001018       __imp__wcscmp              5f4d8018   msvcrtd:MSVCRTD.dll
 0004:0000101c       __imp__abort               5f4d801c   msvcrtd:MSVCRTD.dll
 0004:00001020       __imp___CrtDoForAllClientObjects 5f4d8020   msvcrtd:MSVCRTD.dll
 0004:00001024       __imp___CrtMemDumpAllObjectsSince 5f4d8024   msvcrtd:MSVCRTD.dll
 0004:00001028       __imp___CrtMemCheckpoint   5f4d8028   msvcrtd:MSVCRTD.dll
 0004:0000102c       __imp___CrtMemDumpStatistics 5f4d802c   msvcrtd:MSVCRTD.dll
 0004:00001030       __imp___CrtMemDifference   5f4d8030   msvcrtd:MSVCRTD.dll
 0004:00001034       __imp__memset              5f4d8034   msvcrtd:MSVCRTD.dll
 0004:00001038       __imp___CrtIsMemoryBlock   5f4d8038   msvcrtd:MSVCRTD.dll
 0004:0000103c       __imp___CrtCheckMemory     5f4d803c   msvcrtd:MSVCRTD.dll
 0004:00001040       __imp___CrtSetBreakAlloc   5f4d8040   msvcrtd:MSVCRTD.dll
 0004:00001044       __imp___CrtSetAllocHook    5f4d8044   msvcrtd:MSVCRTD.dll
 0004:00001048       __imp___malloc_dbg         5f4d8048   msvcrtd:MSVCRTD.dll
 0004:0000104c       __imp___free_dbg           5f4d804c   msvcrtd:MSVCRTD.dll
 0004:00001050       __imp__vswprintf           5f4d8050   msvcrtd:MSVCRTD.dll
 0004:00001054       __imp___CrtDumpMemoryLeaks 5f4d8054   msvcrtd:MSVCRTD.dll
 0004:00001058       __imp___CrtSetDbgFlag      5f4d8058   msvcrtd:MSVCRTD.dll
 0004:0000105c       __imp___CrtSetDumpClient   5f4d805c   msvcrtd:MSVCRTD.dll
 0004:00001060       __imp___CrtSetReportHook   5f4d8060   msvcrtd:MSVCRTD.dll
 0004:00001064       __imp___CrtSetReportMode   5f4d8064   msvcrtd:MSVCRTD.dll
 0004:00001068       __imp___except_handler3    5f4d8068   msvcrtd:MSVCRTD.dll
 0004:0000106c       __imp__memcmp              5f4d806c   msvcrtd:MSVCRTD.dll
 0004:00001070       __imp___purecall           5f4d8070   msvcrtd:MSVCRTD.dll
 0004:00001074       __imp__memmove             5f4d8074   msvcrtd:MSVCRTD.dll
 0004:00001078       __imp__memcpy              5f4d8078   msvcrtd:MSVCRTD.dll
 0004:0000107c       __imp___gcvt               5f4d807c   msvcrtd:MSVCRTD.dll
 0004:00001080       __imp__wcslen              5f4d8080   msvcrtd:MSVCRTD.dll
 0004:00001084       __imp___CrtDbgReport       5f4d8084   msvcrtd:MSVCRTD.dll
 0004:00001088       __imp____CxxFrameHandler   5f4d8088   msvcrtd:MSVCRTD.dll
 0004:0000108c       \177MSVCRTD_NULL_THUNK_DATA 5f4d808c   msvcrtd:MSVCRTD.dll
 0004:00001090       __imp__OpenClipboard@4     5f4d8090   user32:USER32.dll
 0004:00001094       __imp__wsprintfA           5f4d8094   user32:USER32.dll
 0004:00001098       __imp__PostQuitMessage@4   5f4d8098   user32:USER32.dll
 0004:0000109c       __imp__PeekMessageW@20     5f4d809c   user32:USER32.dll
 0004:000010a0       __imp__SendMessageW@16     5f4d80a0   user32:USER32.dll
 0004:000010a4       __imp__IsWindow@4          5f4d80a4   user32:USER32.dll
 0004:000010a8       __imp__TabbedTextOutW@32   5f4d80a8   user32:USER32.dll
 0004:000010ac       __imp__CopyRect@8          5f4d80ac   user32:USER32.dll
 0004:000010b0       __imp__IsRectEmpty@4       5f4d80b0   user32:USER32.dll
 0004:000010b4       __imp__PtInRect@12         5f4d80b4   user32:USER32.dll
 0004:000010b8       __imp__SetRect@20          5f4d80b8   user32:USER32.dll
 0004:000010bc       __imp__SetRectEmpty@4      5f4d80bc   user32:USER32.dll
 0004:000010c0       __imp__EqualRect@8         5f4d80c0   user32:USER32.dll
 0004:000010c4       __imp__InflateRect@12      5f4d80c4   user32:USER32.dll
 0004:000010c8       __imp__OffsetRect@12       5f4d80c8   user32:USER32.dll
 0004:000010cc       __imp__IntersectRect@12    5f4d80cc   user32:USER32.dll
 0004:000010d0       __imp__UnionRect@12        5f4d80d0   user32:USER32.dll
 0004:000010d4       __imp__SubtractRect@12     5f4d80d4   user32:USER32.dll
 0004:000010d8       __imp__GetSysColorBrush@4  5f4d80d8   user32:USER32.dll
 0004:000010dc       __imp__LoadBitmapW@8       5f4d80dc   user32:USER32.dll
 0004:000010e0       __imp__WindowFromDC@4      5f4d80e0   user32:USER32.dll
 0004:000010e4       __imp__ExcludeUpdateRgn@8  5f4d80e4   user32:USER32.dll
 0004:000010e8       __imp__FillRect@12         5f4d80e8   user32:USER32.dll
 0004:000010ec       __imp__FrameRect@12        5f4d80ec   user32:USER32.dll
 0004:000010f0       __imp__InvertRect@8        5f4d80f0   user32:USER32.dll
 0004:000010f4       __imp__DrawIcon@16         5f4d80f4   user32:USER32.dll
 0004:000010f8       __imp__DrawStateW@40       5f4d80f8   user32:USER32.dll
 0004:000010fc       __imp__DrawEdge@16         5f4d80fc   user32:USER32.dll
 0004:00001100       __imp__DrawFrameControl@16 5f4d8100   user32:USER32.dll
 0004:00001104       __imp__DrawFocusRect@8     5f4d8104   user32:USER32.dll
 0004:00001108       __imp__DrawTextW@20        5f4d8108   user32:USER32.dll
 0004:0000110c       __imp__GetTabbedTextExtentW@20 5f4d810c   user32:USER32.dll
 0004:00001110       __imp__GrayStringW@36      5f4d8110   user32:USER32.dll
 0004:00001114       __imp__ScrollDC@28         5f4d8114   user32:USER32.dll
 0004:00001118       __imp__CreateMenu@0        5f4d8118   user32:USER32.dll
 0004:0000111c       __imp__CreatePopupMenu@0   5f4d811c   user32:USER32.dll
 0004:00001120       __imp__IsMenu@4            5f4d8120   user32:USER32.dll
 0004:00001124       __imp__DeleteMenu@12       5f4d8124   user32:USER32.dll
 0004:00001128       __imp__AppendMenuW@16      5f4d8128   user32:USER32.dll
 0004:0000112c       __imp__CheckMenuItem@12    5f4d812c   user32:USER32.dll
 0004:00001130       __imp__EnableMenuItem@12   5f4d8130   user32:USER32.dll
 0004:00001134       __imp__GetMenuItemCount@4  5f4d8134   user32:USER32.dll
 0004:00001138       __imp__GetMenuItemID@8     5f4d8138   user32:USER32.dll
 0004:0000113c       __imp__GetMenuState@12     5f4d813c   user32:USER32.dll
 0004:00001140       __imp__GetMenuStringW@20   5f4d8140   user32:USER32.dll
 0004:00001144       __imp__GetSubMenu@8        5f4d8144   user32:USER32.dll
 0004:00001148       __imp__InsertMenuW@20      5f4d8148   user32:USER32.dll
 0004:0000114c       __imp__ModifyMenuW@20      5f4d814c   user32:USER32.dll
 0004:00001150       __imp__RemoveMenu@12       5f4d8150   user32:USER32.dll
 0004:00001154       __imp__SetMenuItemBitmaps@20 5f4d8154   user32:USER32.dll
 0004:00001158       __imp__LoadMenuW@8         5f4d8158   user32:USER32.dll
 0004:0000115c       __imp__LoadMenuIndirectW@4 5f4d815c   user32:USER32.dll
 0004:00001160       __imp__SetMenuContextHelpId@8 5f4d8160   user32:USER32.dll
 0004:00001164       __imp__GetMenuContextHelpId@4 5f4d8164   user32:USER32.dll
 0004:00001168       __imp__CheckMenuRadioItem@20 5f4d8168   user32:USER32.dll
 0004:0000116c       __imp__PostMessageW@16     5f4d816c   user32:USER32.dll
 0004:00001170       __imp__GetMenu@4           5f4d8170   user32:USER32.dll
 0004:00001174       __imp__SetMenu@8           5f4d8174   user32:USER32.dll
 0004:00001178       __imp__DrawMenuBar@4       5f4d8178   user32:USER32.dll
 0004:0000117c       __imp__GetSystemMenu@8     5f4d817c   user32:USER32.dll
 0004:00001180       __imp__HiliteMenuItem@16   5f4d8180   user32:USER32.dll
 0004:00001184       __imp__IsIconic@4          5f4d8184   user32:USER32.dll
 0004:00001188       __imp__IsZoomed@4          5f4d8188   user32:USER32.dll
 0004:0000118c       __imp__ArrangeIconicWindows@4 5f4d818c   user32:USER32.dll
 0004:00001190       __imp__BringWindowToTop@4  5f4d8190   user32:USER32.dll
 0004:00001194       __imp__GetWindowRect@8     5f4d8194   user32:USER32.dll
 0004:00001198       __imp__GetClientRect@8     5f4d8198   user32:USER32.dll
 0004:0000119c       __imp__MapWindowPoints@16  5f4d819c   user32:USER32.dll
 0004:000011a0       __imp__ClientToScreen@8    5f4d81a0   user32:USER32.dll
 0004:000011a4       __imp__ScreenToClient@8    5f4d81a4   user32:USER32.dll
 0004:000011a8       __imp__BeginPaint@8        5f4d81a8   user32:USER32.dll
 0004:000011ac       __imp__EndPaint@8          5f4d81ac   user32:USER32.dll
 0004:000011b0       __imp__GetDC@4             5f4d81b0   user32:USER32.dll
 0004:000011b4       __imp__GetWindowDC@4       5f4d81b4   user32:USER32.dll
 0004:000011b8       __imp__ReleaseDC@8         5f4d81b8   user32:USER32.dll
 0004:000011bc       __imp__UpdateWindow@4      5f4d81bc   user32:USER32.dll
 0004:000011c0       __imp__GetUpdateRect@12    5f4d81c0   user32:USER32.dll
 0004:000011c4       __imp__GetUpdateRgn@12     5f4d81c4   user32:USER32.dll
 0004:000011c8       __imp__InvalidateRect@12   5f4d81c8   user32:USER32.dll
 0004:000011cc       __imp__InvalidateRgn@12    5f4d81cc   user32:USER32.dll
 0004:000011d0       __imp__ValidateRect@8      5f4d81d0   user32:USER32.dll
 0004:000011d4       __imp__ValidateRgn@8       5f4d81d4   user32:USER32.dll
 0004:000011d8       __imp__IsWindowVisible@4   5f4d81d8   user32:USER32.dll
 0004:000011dc       __imp__ShowOwnedPopups@8   5f4d81dc   user32:USER32.dll
 0004:000011e0       __imp__GetDCEx@12          5f4d81e0   user32:USER32.dll
 0004:000011e4       __imp__LockWindowUpdate@4  5f4d81e4   user32:USER32.dll
 0004:000011e8       __imp__RedrawWindow@16     5f4d81e8   user32:USER32.dll
 0004:000011ec       __imp__EnableScrollBar@12  5f4d81ec   user32:USER32.dll
 0004:000011f0       __imp__SetTimer@16         5f4d81f0   user32:USER32.dll
 0004:000011f4       __imp__KillTimer@8         5f4d81f4   user32:USER32.dll
 0004:000011f8       __imp__GetActiveWindow@0   5f4d81f8   user32:USER32.dll
 0004:000011fc       __imp__SetActiveWindow@4   5f4d81fc   user32:USER32.dll
 0004:00001200       __imp__GetCapture@0        5f4d8200   user32:USER32.dll
 0004:00001204       __imp__SetCapture@4        5f4d8204   user32:USER32.dll
 0004:00001208       __imp__GetFocus@0          5f4d8208   user32:USER32.dll
 0004:0000120c       __imp__GetDesktopWindow@0  5f4d820c   user32:USER32.dll
 0004:00001210       __imp__DlgDirListW@20      5f4d8210   user32:USER32.dll
 0004:00001214       __imp__DlgDirListComboBoxW@20 5f4d8214   user32:USER32.dll
 0004:00001218       __imp__DlgDirSelectExW@16  5f4d8218   user32:USER32.dll
 0004:0000121c       __imp__DlgDirSelectComboBoxExW@16 5f4d821c   user32:USER32.dll
 0004:00001220       __imp__GetNextDlgGroupItem@12 5f4d8220   user32:USER32.dll
 0004:00001224       __imp__GetNextDlgTabItem@12 5f4d8224   user32:USER32.dll
 0004:00001228       __imp__ShowScrollBar@12    5f4d8228   user32:USER32.dll
 0004:0000122c       __imp__ChildWindowFromPoint@12 5f4d822c   user32:USER32.dll
 0004:00001230       __imp__ChildWindowFromPointEx@16 5f4d8230   user32:USER32.dll
 0004:00001234       __imp__FindWindowW@8       5f4d8234   user32:USER32.dll
 0004:00001238       __imp__GetWindow@8         5f4d8238   user32:USER32.dll
 0004:0000123c       __imp__GetTopWindow@4      5f4d823c   user32:USER32.dll
 0004:00001240       __imp__GetLastActivePopup@4 5f4d8240   user32:USER32.dll
 0004:00001244       __imp__IsChild@8           5f4d8244   user32:USER32.dll
 0004:00001248       __imp__GetParent@4         5f4d8248   user32:USER32.dll
 0004:0000124c       __imp__SetParent@8         5f4d824c   user32:USER32.dll
 0004:00001250       __imp__WindowFromPoint@8   5f4d8250   user32:USER32.dll
 0004:00001254       __imp__FlashWindow@8       5f4d8254   user32:USER32.dll
 0004:00001258       __imp__ChangeClipboardChain@8 5f4d8258   user32:USER32.dll
 0004:0000125c       __imp__SetClipboardViewer@4 5f4d825c   user32:USER32.dll
 0004:00001260       __imp__wsprintfW           5f4d8260   user32:USER32.dll
 0004:00001264       __imp__GetOpenClipboardWindow@0 5f4d8264   user32:USER32.dll
 0004:00001268       __imp__GetClipboardOwner@0 5f4d8268   user32:USER32.dll
 0004:0000126c       __imp__GetClipboardViewer@0 5f4d826c   user32:USER32.dll
 0004:00001270       __imp__CreateCaret@16      5f4d8270   user32:USER32.dll
 0004:00001274       __imp__GetCaretPos@4       5f4d8274   user32:USER32.dll
 0004:00001278       __imp__SetCaretPos@8       5f4d8278   user32:USER32.dll
 0004:0000127c       __imp__HideCaret@4         5f4d827c   user32:USER32.dll
 0004:00001280       __imp__ShowCaret@4         5f4d8280   user32:USER32.dll
 0004:00001284       __imp__SetForegroundWindow@4 5f4d8284   user32:USER32.dll
 0004:00001288       __imp__GetForegroundWindow@0 5f4d8288   user32:USER32.dll
 0004:0000128c       __imp__SendNotifyMessageW@16 5f4d828c   user32:USER32.dll
 0004:00001290       __imp__SetWindowContextHelpId@8 5f4d8290   user32:USER32.dll
 0004:00001294       __imp__GetWindowContextHelpId@4 5f4d8294   user32:USER32.dll
 0004:00001298       __imp__EnableWindow@8      5f4d8298   user32:USER32.dll
 0004:0000129c       __imp__MapDialogRect@8     5f4d829c   user32:USER32.dll
 0004:000012a0       __imp__GetWindowLongW@8    5f4d82a0   user32:USER32.dll
 0004:000012a4       __imp__GetScrollPos@8      5f4d82a4   user32:USER32.dll
 0004:000012a8       __imp__SetScrollPos@16     5f4d82a8   user32:USER32.dll
 0004:000012ac       __imp__GetScrollRange@16   5f4d82ac   user32:USER32.dll
 0004:000012b0       __imp__SetScrollRange@20   5f4d82b0   user32:USER32.dll
 0004:000012b4       __imp__PostThreadMessageW@16 5f4d82b4   user32:USER32.dll
 0004:000012b8       __imp__LoadCursorW@8       5f4d82b8   user32:USER32.dll
 0004:000012bc       __imp__LoadIconW@8         5f4d82bc   user32:USER32.dll
 0004:000012c0       __imp__CloseWindow@4       5f4d82c0   user32:USER32.dll
 0004:000012c4       __imp__OpenIcon@4          5f4d82c4   user32:USER32.dll
 0004:000012c8       __imp__CharUpperW@4        5f4d82c8   user32:USER32.dll
 0004:000012cc       __imp__GetSystemMetrics@4  5f4d82cc   user32:USER32.dll
 0004:000012d0       __imp__CharLowerW@4        5f4d82d0   user32:USER32.dll
 0004:000012d4       __imp__UnhookWindowsHookEx@4 5f4d82d4   user32:USER32.dll
 0004:000012d8       __imp__MsgWaitForMultipleObjects@20 5f4d82d8   user32:USER32.dll
 0004:000012dc       __imp__RegisterWindowMessageW@4 5f4d82dc   user32:USER32.dll
 0004:000012e0       __imp__SetWindowPos@28     5f4d82e0   user32:USER32.dll
 0004:000012e4       __imp__SetWindowLongW@12   5f4d82e4   user32:USER32.dll
 0004:000012e8       __imp__GetMessagePos@0     5f4d82e8   user32:USER32.dll
 0004:000012ec       __imp__GetMessageTime@0    5f4d82ec   user32:USER32.dll
 0004:000012f0       __imp__CallWindowProcW@20  5f4d82f0   user32:USER32.dll
 0004:000012f4       __imp__RemovePropW@8       5f4d82f4   user32:USER32.dll
 0004:000012f8       __imp__GetPropW@8          5f4d82f8   user32:USER32.dll
 0004:000012fc       __imp__CallNextHookEx@16   5f4d82fc   user32:USER32.dll
 0004:00001300       __imp__SetPropW@12         5f4d8300   user32:USER32.dll
 0004:00001304       __imp__SetWindowsHookExW@16 5f4d8304   user32:USER32.dll
 0004:00001308       __imp__CreateWindowExW@48  5f4d8308   user32:USER32.dll
 0004:0000130c       __imp__GetDlgCtrlID@4      5f4d830c   user32:USER32.dll
 0004:00001310       __imp__GetClassNameW@12    5f4d8310   user32:USER32.dll
 0004:00001314       __imp__DefWindowProcW@16   5f4d8314   user32:USER32.dll
 0004:00001318       __imp__DestroyWindow@4     5f4d8318   user32:USER32.dll
 0004:0000131c       __imp__GetKeyState@4       5f4d831c   user32:USER32.dll
 0004:00001320       __imp__GetWindowTextW@12   5f4d8320   user32:USER32.dll
 0004:00001324       __imp__GetWindowTextLengthW@4 5f4d8324   user32:USER32.dll
 0004:00001328       __imp__GetDlgItem@8        5f4d8328   user32:USER32.dll
 0004:0000132c       __imp__GetWindowPlacement@8 5f4d832c   user32:USER32.dll
 0004:00001330       __imp__SetWindowPlacement@8 5f4d8330   user32:USER32.dll
 0004:00001334       __imp__TrackPopupMenu@28   5f4d8334   user32:USER32.dll
 0004:00001338       __imp__RegisterClassW@4    5f4d8338   user32:USER32.dll
 0004:0000133c       __imp__GetClassInfoW@12    5f4d833c   user32:USER32.dll
 0004:00001340       __imp__WinHelpW@16         5f4d8340   user32:USER32.dll
 0004:00001344       __imp__IsWindowEnabled@4   5f4d8344   user32:USER32.dll
 0004:00001348       __imp__SetScrollInfo@16    5f4d8348   user32:USER32.dll
 0004:0000134c       __imp__GetScrollInfo@12    5f4d834c   user32:USER32.dll
 0004:00001350       __imp__ScrollWindow@20     5f4d8350   user32:USER32.dll
 0004:00001354       __imp__EndDeferWindowPos@4 5f4d8354   user32:USER32.dll
 0004:00001358       __imp__BeginDeferWindowPos@4 5f4d8358   user32:USER32.dll
 0004:0000135c       __imp__DeferWindowPos@32   5f4d835c   user32:USER32.dll
 0004:00001360       __imp__AdjustWindowRectEx@16 5f4d8360   user32:USER32.dll
 0004:00001364       __imp__SetFocus@4          5f4d8364   user32:USER32.dll
 0004:00001368       __imp__DispatchMessageW@4  5f4d8368   user32:USER32.dll
 0004:0000136c       __imp__GetSysColor@4       5f4d836c   user32:USER32.dll
 0004:00001370       __imp__SystemParametersInfoW@16 5f4d8370   user32:USER32.dll
 0004:00001374       __imp__SendDlgItemMessageA@20 5f4d8374   user32:USER32.dll
 0004:00001378       __imp__LoadAcceleratorsW@8 5f4d8378   user32:USER32.dll
 0004:0000137c       __imp__TranslateAcceleratorW@12 5f4d837c   user32:USER32.dll
 0004:00001380       __imp__ReleaseCapture@0    5f4d8380   user32:USER32.dll
 0004:00001384       __imp__SetCursor@4         5f4d8384   user32:USER32.dll
 0004:00001388       __imp__ShowWindow@8        5f4d8388   user32:USER32.dll
 0004:0000138c       __imp__DestroyMenu@4       5f4d838c   user32:USER32.dll
 0004:00001390       __imp__ReuseDDElParam@20   5f4d8390   user32:USER32.dll
 0004:00001394       __imp__UnpackDDElParam@16  5f4d8394   user32:USER32.dll
 0004:00001398       __imp__WaitMessage@0       5f4d8398   user32:USER32.dll
 0004:0000139c       __imp__GetCursorPos@4      5f4d839c   user32:USER32.dll
 0004:000013a0       __imp__GetWindowThreadProcessId@8 5f4d83a0   user32:USER32.dll
 0004:000013a4       __imp__TranslateMessage@4  5f4d83a4   user32:USER32.dll
 0004:000013a8       __imp__GetMessageW@16      5f4d83a8   user32:USER32.dll
 0004:000013ac       __imp__DefFrameProcW@20    5f4d83ac   user32:USER32.dll
 0004:000013b0       __imp__TranslateMDISysAccel@8 5f4d83b0   user32:USER32.dll
 0004:000013b4       __imp__DefMDIChildProcW@16 5f4d83b4   user32:USER32.dll
 0004:000013b8       __imp__GetTabbedTextExtentA@20 5f4d83b8   user32:USER32.dll
 0004:000013bc       __imp__CreateDialogIndirectParamW@20 5f4d83bc   user32:USER32.dll
 0004:000013c0       __imp__EndDialog@8         5f4d83c0   user32:USER32.dll
 0004:000013c4       __imp__wvsprintfW@12       5f4d83c4   user32:USER32.dll
 0004:000013c8       __imp__GetAsyncKeyState@4  5f4d83c8   user32:USER32.dll
 0004:000013cc       __imp__GetDialogBaseUnits@0 5f4d83cc   user32:USER32.dll
 0004:000013d0       __imp__GetClipboardFormatNameA@12 5f4d83d0   user32:USER32.dll
 0004:000013d4       __imp__GetClipboardFormatNameW@12 5f4d83d4   user32:USER32.dll
 0004:000013d8       __imp__SetWindowTextW@8    5f4d83d8   user32:USER32.dll
 0004:000013dc       __imp__CheckDlgButton@12   5f4d83dc   user32:USER32.dll
 0004:000013e0       __imp__CheckRadioButton@16 5f4d83e0   user32:USER32.dll
 0004:000013e4       __imp__GetDlgItemInt@16    5f4d83e4   user32:USER32.dll
 0004:000013e8       __imp__GetDlgItemTextW@16  5f4d83e8   user32:USER32.dll
 0004:000013ec       __imp__SendDlgItemMessageW@20 5f4d83ec   user32:USER32.dll
 0004:000013f0       __imp__SetDlgItemInt@16    5f4d83f0   user32:USER32.dll
 0004:000013f4       __imp__SetDlgItemTextW@12  5f4d83f4   user32:USER32.dll
 0004:000013f8       __imp__IsDlgButtonChecked@8 5f4d83f8   user32:USER32.dll
 0004:000013fc       __imp__ScrollWindowEx@32   5f4d83fc   user32:USER32.dll
 0004:00001400       __imp__IsDialogMessageW@8  5f4d8400   user32:USER32.dll
 0004:00001404       __imp__MoveWindow@24       5f4d8404   user32:USER32.dll
 0004:00001408       __imp__GetMenuCheckMarkDimensions@0 5f4d8408   user32:USER32.dll
 0004:0000140c       __imp__DestroyIcon@4       5f4d840c   user32:USER32.dll
 0004:00001410       __imp__SetCursorPos@8      5f4d8410   user32:USER32.dll
 0004:00001414       __imp__DestroyCursor@4     5f4d8414   user32:USER32.dll
 0004:00001418       __imp__IsClipboardFormatAvailable@4 5f4d8418   user32:USER32.dll
 0004:0000141c       __imp__MessageBeep@4       5f4d841c   user32:USER32.dll
 0004:00001420       __imp__UnregisterClassW@8  5f4d8420   user32:USER32.dll
 0004:00001424       __imp__MessageBoxW@16      5f4d8424   user32:USER32.dll
 0004:00001428       __imp__LoadStringW@16      5f4d8428   user32:USER32.dll
 0004:0000142c       __imp__MessageBoxA@16      5f4d842c   user32:USER32.dll
 0004:00001430       \177USER32_NULL_THUNK_DATA 5f4d8430   user32:USER32.dll

 entry point at        0001:000179d0

 Static symbols

 0001:000ab840       ?_AfxForceVectorDelete@@YAXXZ 5f4ac840 f dllinit.obj
 0001:0000fbcc       ?_AfxQueryCStringInternetOption@@YAHPAXKAAVCString@@@Z 5f410bcc f inet.obj
 0001:000a1b10       _$E354                     5f4a2b10 f inet.obj
 0001:000a1b2a       _$E351                     5f4a2b2a f inet.obj
 0001:000a1b46       _$E353                     5f4a2b46 f inet.obj
 0001:000a1b63       _$E352                     5f4a2b63 f inet.obj
 0001:00044011       ?AbbreviateName@@YAXPAGHH@Z 5f445011 f filelist.obj
 0001:000a1779       _$E354                     5f4a2779 f app3d.obj
 0001:000a1793       _$E351                     5f4a2793 f app3d.obj
 0001:000a17a3       _$E353                     5f4a27a3 f app3d.obj
 0001:000a17c0       _$E352                     5f4a27c0 f app3d.obj
 0001:000a17da       _$E359                     5f4a27da f app3d.obj
 0001:000a17f4       _$E356                     5f4a27f4 f app3d.obj
 0001:000a1804       _$E358                     5f4a2804 f app3d.obj
 0001:000a1821       _$E357                     5f4a2821 f app3d.obj
 0001:0009fa1b       _$E354                     5f4a0a1b f appcore.obj
 0001:0009fa35       _$E351                     5f4a0a35 f appcore.obj
 0001:0009fa45       _$E353                     5f4a0a45 f appcore.obj
 0001:0009fa62       _$E352                     5f4a0a62 f appcore.obj
 0001:000424b2       ?IsHelpKey@@YGHPAUtagMSG@@@Z 5f4434b2 f thrdcore.obj
 0001:00042540       ?IsEnterKey@@YAHPAUtagMSG@@@Z 5f443540 f thrdcore.obj
 0001:00042579       ?IsButtonUp@@YAHPAUtagMSG@@@Z 5f443579 f thrdcore.obj
 0001:0009e7b0       _$E354                     5f49f7b0 f docmapi.obj
 0001:0009e7ca       _$E351                     5f49f7ca f docmapi.obj
 0001:0009e7da       _$E353                     5f49f7da f docmapi.obj
 0001:0009e7f7       _$E352                     5f49f7f7 f docmapi.obj
 0001:0007d600       _$E352                     5f47e600 f viewedit.obj
 0001:0007d615       _$E351                     5f47e615 f viewedit.obj
 0001:0007d635       _$E357                     5f47e635 f viewedit.obj
 0001:0007d64f       _$E354                     5f47e64f f viewedit.obj
 0001:0007d65f       _$E356                     5f47e65f f viewedit.obj
 0001:0007d67c       _$E355                     5f47e67c f viewedit.obj
 0001:0007eb4e       ?EndOfLine@@YGIPBGII@Z     5f47fb4e f viewedit.obj
 0001:0007ebd7       ?NextLine@@YGIPBGII@Z      5f47fbd7 f viewedit.obj
 0001:0007ec81       ?ClipLine@@YGIPAVCDC@@QAHHHPBGII@Z 5f47fc81 f viewedit.obj
 0001:0009e540       _$E362                     5f49f540 f viewedit.obj
 0001:0009e55a       _$E359                     5f49f55a f viewedit.obj
 0001:0009e56a       _$E361                     5f49f56a f viewedit.obj
 0001:0009e587       _$E360                     5f49f587 f viewedit.obj
 0001:00066532       ?CanSplitRowCol@@YGHPAUCRowColInfo@CSplitterWnd@@HH@Z 5f467532 f winsplit.obj
 0001:000686ef       ?LayoutRowCol@@YGXPAUCRowColInfo@CSplitterWnd@@HHH@Z 5f4696ef f winsplit.obj
 0001:00068a10       ?DeferClientPos@@YGXPAUAFX_SIZEPARENTPARAMS@@PAVCWnd@@HHHHH@Z 5f469a10 f winsplit.obj
 0001:0009e2ac       ?SetRegKey@@YGHPBG00@Z     5f49f2ac f docmgr.obj
 0001:00063a34       ?AppendFilterSuffix@@YAXAAVCString@@AAUtagOFNW@@PAVCDocTemplate@@PAV1@@Z 5f464a34 f docmgr.obj
 0001:0004001e       ?DispatchCmdMsg@@YAHPAVCCmdTarget@@IHP81@AEXXZPAXIPAUAFX_CMDHANDLERINFO@@@Z 5f44101e f cmdtarg.obj
 0001:0009d560       ?_AfxLoadDotBitmap@@YGXXZ  5f49e560 f cmdtarg.obj
 0001:00087500       ?TraceDDE@@YGXPBGPBUtagMSG@@@Z 5f488500 f afxtrace.obj
 0001:0009cf10       _$E354                     5f49df10 f auxdata.obj
 0001:0009cf2a       _$E351                     5f49df2a f auxdata.obj
 0001:0009cf44       _$E353                     5f49df44 f auxdata.obj
 0001:0009cf61       _$E352                     5f49df61 f auxdata.obj
 0001:0003e242       ?afxMapHMENU@@YAPAVCHandleMap@@H@Z 5f43f242 f winmenu.obj
 0001:0007c840       _$E354                     5f47d840 f wingdix.obj
 0001:0007c85a       _$E351                     5f47d85a f wingdix.obj
 0001:0007c86a       _$E353                     5f47d86a f wingdix.obj
 0001:0007c887       _$E352                     5f47d887 f wingdix.obj
 0001:00046e1f       ?afxMapHDC@@YAPAVCHandleMap@@H@Z 5f447e1f f wingdi.obj
 0001:00049e1d       ?afxMapHGDIOBJ@@YAPAVCHandleMap@@H@Z 5f44ae1d f wingdi.obj
 0001:0009ca60       _$E354                     5f49da60 f wingdi.obj
 0001:0009ca7a       _$E351                     5f49da7a f wingdi.obj
 0001:0009ca9b       _$E353                     5f49da9b f wingdi.obj
 0001:0009cab8       _$E352                     5f49dab8 f wingdi.obj
 0001:0009cb02       _$E359                     5f49db02 f wingdi.obj
 0001:0009cb1c       _$E356                     5f49db1c f wingdi.obj
 0001:0009cb3d       _$E358                     5f49db3d f wingdi.obj
 0001:0009cb5a       _$E357                     5f49db5a f wingdi.obj
 0001:0003d4c6       ?HasFont@@YAHPBUDLGTEMPLATE@@@Z 5f43e4c6 f dlgtempl.obj
 0001:0003d509       ?IsDialogEx@@YAHPBUDLGTEMPLATE@@@Z 5f43e509 f dlgtempl.obj
 0001:0003d890       ?FontAttrSize@@YAHH@Z      5f43e890 f dlgtempl.obj
 0001:0003de97       ?ConvertDialogUnitsToPixels@@YAXPBGGHHPAUtagSIZE@@@Z 5f43ee97 f dlgtempl.obj
 0001:0009c506       _$E354                     5f49d506 f ccdata.obj
 0001:0009c520       _$E351                     5f49d520 f ccdata.obj
 0001:0009c530       _$E353                     5f49d530 f ccdata.obj
 0001:0009c54d       _$E352                     5f49d54d f ccdata.obj
 0001:0009c7a2       _$E359                     5f49d7a2 f ccdata.obj
 0001:0009c7bc       _$E356                     5f49d7bc f ccdata.obj
 0001:0009c7cc       _$E358                     5f49d7cc f ccdata.obj
 0001:0009c7e9       _$E357                     5f49d7e9 f ccdata.obj
 0001:0009b570       _$E354                     5f49c570 f dlgclr.obj
 0001:0009b58a       _$E351                     5f49c58a f dlgclr.obj
 0001:0009b59a       _$E353                     5f49c59a f dlgclr.obj
 0001:0009b5b7       _$E352                     5f49c5b7 f dlgclr.obj
 0001:0001b9d0       _$E352                     5f41c9d0 f dlgcomm.obj
 0001:0001b9e5       _$E351                     5f41c9e5 f dlgcomm.obj
 0001:0001ba05       _$E355                     5f41ca05 f dlgcomm.obj
 0001:0001ba1a       _$E354                     5f41ca1a f dlgcomm.obj
 0001:0001ba3a       _$E358                     5f41ca3a f dlgcomm.obj
 0001:0001ba4f       _$E357                     5f41ca4f f dlgcomm.obj
 0001:0001ba6f       _$E361                     5f41ca6f f dlgcomm.obj
 0001:0001ba84       _$E360                     5f41ca84 f dlgcomm.obj
 0001:0001baa4       _$E364                     5f41caa4 f dlgcomm.obj
 0001:0001bab9       _$E363                     5f41cab9 f dlgcomm.obj
 0001:0001bad9       _$E367                     5f41cad9 f dlgcomm.obj
 0001:0001baee       _$E366                     5f41caee f dlgcomm.obj
 0001:0007a1f0       ?_ChangePropPageFont@@YAPAUDLGTEMPLATE@@PBU1@H@Z 5f47b1f0 f dlgprop.obj
 0001:00062e2f       ?AfxSimpleFloatParse@@YGHPBGAAN@Z 5f463e2f f dlgfloat.obj
 0001:00063002       ?FailMinMaxReal@@YGXPAVCDataExchange@@NNHI@Z 5f464002 f dlgfloat.obj
 0001:00061a9f       ?DDX_TextWithFormat@@YAXPAVCDataExchange@@HPBGIZZ 5f462a9f f dlgdata.obj
 0001:00061b3c       ?AfxSimpleScanf@@YGHPBG0PAD@Z 5f462b3c f dlgdata.obj
 0001:000626ee       ?FailMinMaxWithFormat@@YGXPAVCDataExchange@@JJPBGI@Z 5f4636ee f dlgdata.obj
 0001:0000ddc5       _$E354                     5f40edc5 f winctrl4.obj
 0001:0000dddf       _$E351                     5f40eddf f winctrl4.obj
 0001:0000ddef       _$E353                     5f40edef f winctrl4.obj
 0001:0000de0c       _$E352                     5f40ee0c f winctrl4.obj
 0001:0009b320       _$E354                     5f49c320 f winctrl3.obj
 0001:0009b33a       _$E351                     5f49c33a f winctrl3.obj
 0001:0009b34a       _$E353                     5f49c34a f winctrl3.obj
 0001:0009b367       _$E352                     5f49c367 f winctrl3.obj
 0001:000064e7       ?afxMapHIMAGELIST@@YAPAVCHandleMap@@H@Z 5f4074e7 f winctrl2.obj
 0001:000758b0       _$E354                     5f4768b0 f trckrect.obj
 0001:000758ca       _$E351                     5f4768ca f trckrect.obj
 0001:000758da       _$E353                     5f4768da f trckrect.obj
 0001:000758f7       _$E352                     5f4768f7 f trckrect.obj
 0001:000a4a6b       ?ComputeNextTab@@YAHHIPAHHH@Z 5f4a5a6b f dcprev.obj
 0001:000a59b2       ?MultMultDivDiv@@YGJHHHHH@Z 5f4a69b2 f dcprev.obj
 0001:0009ae30       _$E352                     5f49be30 f dockstat.obj
 0001:0009ae45       _$E351                     5f49be45 f dockstat.obj
 0001:0005e0db       ?AdjustRectangle@@YAXAAVCRect@@VCPoint@@@Z 5f45f0db f dockcont.obj
 0001:00073c20       _$E354                     5f474c20 f winmini.obj
 0001:00073c3a       _$E351                     5f474c3a f winmini.obj
 0001:00073c4a       _$E353                     5f474c4a f winmini.obj
 0001:00073c67       _$E352                     5f474c67 f winmini.obj
 0001:0007522e       ?DrawFrame@@YAXPAVCDC@@PBUtagRECT@@HHAAVCBrush@@@Z 5f47622e f winmini.obj
 0001:00003804       ?RelayToolTipMessage@@YGXPAVCToolTipCtrl@@PAUtagMSG@@@Z 5f404804 f tooltip.obj
 0001:000553ce       ?MapClientArea@@YGKPAUHWND__@@UtagPOINT@@@Z 5f4563ce f winfrmx.obj
 0001:000554a8       ?MapNonClientArea@@YGKH@Z  5f4564a8 f winfrmx.obj
 0001:0006c4f0       _$E352                     5f46d4f0 f winfrm.obj
 0001:0006c505       _$E351                     5f46d505 f winfrm.obj
 0001:00033aa0       _$E360                     5f434aa0 f wincore.obj
 0001:00033ab5       _$E359                     5f434ab5 f wincore.obj
 0001:00033ad5       _$E366                     5f434ad5 f wincore.obj
 0001:00033aef       _$E362                     5f434aef f wincore.obj
 0001:00033b0b       _$E365                     5f434b0b f wincore.obj
 0001:00033b28       _$E363                     5f434b28 f wincore.obj
 0001:00033b5f       _$E371                     5f434b5f f wincore.obj
 0001:00033b79       _$E368                     5f434b79 f wincore.obj
 0001:00033b95       _$E370                     5f434b95 f wincore.obj
 0001:00033bb2       _$E369                     5f434bb2 f wincore.obj
 0001:00033be9       _$E376                     5f434be9 f wincore.obj
 0001:00033c03       _$E373                     5f434c03 f wincore.obj
 0001:00033c1f       _$E375                     5f434c1f f wincore.obj
 0001:00033c3c       _$E374                     5f434c3c f wincore.obj
 0001:00033c73       _$E381                     5f434c73 f wincore.obj
 0001:00033c8d       _$E378                     5f434c8d f wincore.obj
 0001:00033ca9       _$E380                     5f434ca9 f wincore.obj
 0001:00033cc6       _$E379                     5f434cc6 f wincore.obj
 0001:00033e35       ?_AfxModifyStyle@@YGHPAUHWND__@@HKKI@Z 5f434e35 f wincore.obj
 0001:000340c7       ?_AfxPreInitDialog@@YGXPAVCWnd@@PAUtagRECT@@PAK@Z 5f4350c7 f wincore.obj
 0001:00034130       ?_AfxPostInitDialog@@YGXPAVCWnd@@ABUtagRECT@@K@Z 5f435130 f wincore.obj
 0001:000342c1       ?afxMapHWND@@YAPAVCHandleMap@@H@Z 5f4352c1 f wincore.obj
 0001:000348f7       ?_AfxHandleActivate@@YGXPAVCWnd@@I0@Z 5f4358f7 f wincore.obj
 0001:00034986       ?_AfxHandleSetCursor@@YGHPAVCWnd@@II@Z 5f435986 f wincore.obj
 0001:000362f8       ?FindPopupMenuFromID@@YAPAVCMenu@@PAV1@I@Z 5f4372f8 f wincore.obj
 0001:0003a7a4       ?RegisterWithIcon@@YGHPAUtagWNDCLASSW@@PBGI@Z 5f43b7a4 f wincore.obj
 0001:00096fdb       _$E354                     5f497fdb f afxstate.obj
 0001:00096ff5       _$E351                     5f497ff5 f afxstate.obj
 0001:00097005       _$E353                     5f498005 f afxstate.obj
 0001:00097022       _$E352                     5f498022 f afxstate.obj
 0001:00097673       _$E359                     5f498673 f afxstate.obj
 0001:0009768d       _$E356                     5f49868d f afxstate.obj
 0001:0009769d       _$E358                     5f49869d f afxstate.obj
 0001:000976ba       _$E357                     5f4986ba f afxstate.obj
 0001:00096d12       _$E352                     5f497d12 f map_wo.obj
 0001:00096d27       _$E351                     5f497d27 f map_wo.obj
 0001:0002b546       ?DestructElement@@YAXPAVCString@@@Z 5f42c546 f map_ss.obj
 0001:0002b70e       ?ConstructElement@@YAXPAVCString@@@Z 5f42c70e f map_ss.obj
 0001:00096c42       _$E352                     5f497c42 f map_ss.obj
 0001:00096c57       _$E351                     5f497c57 f map_ss.obj
 0001:00096b42       _$E352                     5f497b42 f map_so.obj
 0001:00096b57       _$E351                     5f497b57 f map_so.obj
 0001:0002767a       ?DestructElement@@YAXPAVCString@@@Z 5f42867a f list_s.obj
 0001:0002783b       ?ConstructElement@@YAXPAVCString@@@Z 5f42883b f list_s.obj
 0001:00096a12       _$E352                     5f497a12 f list_s.obj
 0001:00096a27       _$E351                     5f497a27 f list_s.obj
 0001:00096912       _$E352                     5f497912 f list_o.obj
 0001:00096927       _$E351                     5f497927 f list_o.obj
 0001:00096840       _$E352                     5f497840 f array_w.obj
 0001:00096855       _$E351                     5f497855 f array_w.obj
 0001:000231b4       ?DestructElements@@YAXPAVCString@@H@Z 5f4241b4 f array_s.obj
 0001:0002320e       ?DestructElement@@YAXPAVCString@@@Z 5f42420e f array_s.obj
 0001:00023548       ?ConstructElements@@YAXPAVCString@@H@Z 5f424548 f array_s.obj
 0001:000235a2       ?ConstructElement@@YAXPAVCString@@@Z 5f4245a2 f array_s.obj
 0001:0002365b       ?CopyElements@@YAXPAVCString@@0H@Z 5f42465b f array_s.obj
 0001:00096740       _$E352                     5f497740 f array_s.obj
 0001:00096755       _$E351                     5f497755 f array_s.obj
 0001:00096670       _$E352                     5f497670 f array_o.obj
 0001:00096685       _$E351                     5f497685 f array_o.obj
 0001:00096570       _$E352                     5f497570 f array_d.obj
 0001:00096585       _$E351                     5f497585 f array_d.obj
 0001:000964a0       _$E352                     5f4974a0 f array_b.obj
 0001:000964b5       _$E351                     5f4974b5 f array_b.obj
 0001:0002fe78       ?IsDirSep@@YAHG@Z          5f430e78 f filecore.obj
 0001:0002e389       ?_AfxDoForAllObjectsProxy@@YAXPAX0@Z 5f42f389 f afxmem.obj
 0001:00018a40       _$E352                     5f419a40 f dumpinit.obj
 0001:00018a55       _$E351                     5f419a55 f dumpinit.obj
 0001:00018a71       _$E355                     5f419a71 f dumpinit.obj
 0001:00018a86       _$E354                     5f419a86 f dumpinit.obj
 0001:00018e7b       _$E360                     5f419e7b f dumpinit.obj
 0001:00018e95       _$E357                     5f419e95 f dumpinit.obj
 0001:00018ea5       _$E359                     5f419ea5 f dumpinit.obj
 0001:00018ec2       _$E358                     5f419ec2 f dumpinit.obj
 0001:00044594       ?ReadStringLength@@YGIAAVCArchive@@@Z 5f445594 f arccore.obj
 0001:000961f0       _$E354                     5f4971f0 f except.obj
 0001:0009620a       _$E351                     5f49720a f except.obj
 0001:0009622b       _$E353                     5f49722b f except.obj
 0001:00096248       _$E352                     5f497248 f except.obj
 0001:00096292       _$E359                     5f497292 f except.obj
 0001:000962ac       _$E356                     5f4972ac f except.obj
 0001:000962cd       _$E358                     5f4972cd f except.obj
 0001:000962ea       _$E357                     5f4972ea f except.obj
 0001:00017770       ?ArrayUnwindFilter@@YAHPAU_EXCEPTION_POINTERS@@@Z 5f418770 f msvcrtd:ehvecdtr.obj
 0001:00017290       _$$$00001                  5f418290 f msvcrtd:chkstk.obj

FIXUPS: 2e986 17 22 16 17 59 a b 35 7 e 26 3a fffd2510 2c 40 1788c 13f
FIXUPS: 18a70 26 25 fffffc04 7d 53 fffffe74 fffffc23 35 fffffec5 13 16462
FIXUPS: 2e5b7 28 3d 14 35 10 1b 17 10 23 17 10 27 17 10 47 47 7 7 7 7 50
FIXUPS: 2e87c 17 11 1f 59 a f 7 34 4b2 24 21 22 47 13 35 682df 5 21 1a
FIXUPS: 97254 45 5 21 1a 1d fff82517 4e 17 31 5f 28 fffe7776 25 1c 43 1c
FIXUPS: 116d b 2d3f3 16 5411a 3d 3d 3d 47 3b 3a 34 22 14 17 18 17 60 2f
FIXUPS: 82969 23 38 38 15 fffac134 40 b 38 3f b 104 2d 3a 22 2c 27 17e68
FIXUPS: 46c7e 17 22 54 17 2f 3f 4a 17 1e 2d 2b 2a 14 11 d 47 14 18 b 30
FIXUPS: 82a5c 3e fffff90f 14 83 81 7b 6b 75 42 fffc3f58 29 32 1e 1a 17
FIXUPS: 4667e 1a 17 11 10a 30 41 8 17 32 32 22 27 31 17 31 17 4a 25 25
FIXUPS: 46b88 33 31 12 c 24 fffff2ab 31 17 31 17 11 17 3f 43 a6 27 fd 45
FIXUPS: 4626c 28 18 17 32 32 31 17 31 17 11 17 39 2e 8c 30 33 2a 1d fffff34e
FIXUPS: 45923 4b cf 48 11 11 17 20 41 28 b 5b 8 21 b 3c 1a 17 2b 1a 17
FIXUPS: 45ce6 21 6d 6a 8 36 2a 18 17 32 fffff628 32 1b 12 12 1d c 15 27
FIXUPS: 455cb 41 46 17 11 31 33 26 19 26 2a a b 3a 14 7 e 26 3a 19 e 40
FIXUPS: 458b3 1efb 24 25 14 8 f 1c 25 3c 13 8 55 14 15 ffffda57 d 8 15
FIXUPS: 453c5 d 1a 8 c 12 d 8 c 8 14 28 21 1c 1ff1 29 8 a f 2d 12 11 12
FIXUPS: 4755d 8 f 43 17 11 17 33 8 a c 1f 3d 8 2f 18 8 2c 8 23 17 2b 13
FIXUPS: 4711d 14 11 14 2f 18 14 8 f 23 13 8 d 12 8 24 3d 4f 26 1c 29 f
FIXUPS: 47373 f 37 15 29 15 1c 24 31 11 535 16 c 15 8 16 c 37 9 b 29 d
FIXUPS: 47ad5 12 d 50 11 1d 1d fffff434 8 1e 14 2b 14 14 28 12 c 1e 8 f
FIXUPS: 186a b fffff92b 60 19 68 14 14 2a 15 14 11 45 4e 14 14 2a 18 14
FIXUPS: 142f 45 68 22 41 14 11 4f dd 30 61 46263 14 fffd20f5 57 21 36 f
FIXUPS: 19b71 40 48 a7 38 61 35 45 b a0 b 19 5 2a 1d 1d 1c 39 13 5f b fffe77c3
FIXUPS: 1793 32 1c 40 1c 86916 2d 13 96 c c c 9 b fff91e70 8 14e78 49 26
FIXUPS: 2f20f b0 66 ad 1a 21 70 b0 fffeaab3 70 1b 12 11 7 11 fffff9a1 1c
FIXUPS: 19a78 6e240 b 11 36 12 f f f 2c c c c 9 b 47 12c 13 2d 13 2d 13
FIXUPS: 87fe0 13 2d 13 2d 13 2d 13 5f b 23 fffff574 37 4f 28 2f 20 31 10
FIXUPS: 87812 36 54 54 11 9 45 15 9 4f 1d 9 1f 34 19 9 3d 80 ae 29 4e 3d
FIXUPS: 87ca2 b ffffef05 c5 c5 c9 7 86 2c b 69 62 1e b 4b 1e b 1d0 10 64
FIXUPS: 872b3 46 1c 82 1e b 48 1e b 146 b 59 5a 5a ffffee17 60 1b 1e b
FIXUPS: 865b4 17 62 17 22 1e b 32 17 63 17 23 1e b 30 17 56 17 18 1e b
FIXUPS: 868c3 17 18 6f c5 c7 fffff2f0 47 17 45 17 3a 17 3a 17 91 44 44
FIXUPS: 86096 75 17 46 17 46 17 47 17 45 17 3a 17 3a 17 91 60 1b 1e b fffff1cb
FIXUPS: 8565f 24 5d 3e 55 58 7e 27 24 5d 5a 1e 1e b 45 1e 40 7e 47 1e b
FIXUPS: 85b4c 7f 44 44 44 75 17 46 17 46 ffffeee9 3b 52 55 7b 27 24 5d
FIXUPS: 84eef 53 57 7e 27 24 5d 3b 52 55 7e 27 24 5d 3b 52 55 7e 27 24
FIXUPS: 854cf 3e 55 58 ffffef50 17 25 3b 17 25 36 24 24 24 33 49 4c 4a
FIXUPS: 847bb 4a 3f 24 24 24 47 5f 62 60 60 66 4f 26 b 3b 1f 24 ffffee88
FIXUPS: 83a96 2e 9 32 32 2e 9 32 32 2e 9 32 32 144 a 4b a 46 a 34 2c 25f
FIXUPS: 84141 24 23 23 23 22 2b 2c 2c fffff286 2c 25 c 27 29 29 47 1e b
FIXUPS: 83688 1e b 25 21 21 10e 11 1b 46 11 1b 2f 9 32 32 2e 9 32 32 2e
FIXUPS: 83a32 fffff4a3 b 37 2c b 3c 38 b 60 b 37 12 25 1f 9 b 70 9 b 37
FIXUPS: 831a6 2e 1f 9 b 70 9 b e6 b 14 18 c7b8 13 2d 13 2d 13 2d 13 2d
FIXUPS: 8fc73 2d 13 2d 13 ffff2e9a 20 5c b 37 40 b 3c 40 b 60 b 37 2c b
FIXUPS: 82e32 38 b c5a9 5a 5a 50 56 5a 62 1f 1f 3f 20 3c 62 11 59 62 11
FIXUPS: 8f8a5 5a 11 9 3d 10 31 10 2b ce 13 2d 13 2d 13 fffff065 5e 56 56
FIXUPS: 8ecea 48 48 48 48 48 31 3e 56 50 48 48 48 52 53 36 b 48 1e b 29
FIXUPS: 8f1e4 51 71 5a 5a 5e 11 ffffefcd 52 62 4e 48 48 4e 48 48 2c 52
FIXUPS: 8e6b4 46 56 56 5e 3c 34 48 56 4e 1e 32 1e 32 1e 32 1e 32 1e 32
FIXUPS: 8eb42 fffff0e0 17 37 2f 37 19 9 17 37 2d 42 48 52 16 20 37 4e 4e
FIXUPS: 8dfa0 56 56 31 19 37 15 52 5a 52 52 62 52 56 fffff421 9 52 3b 37
FIXUPS: 8d847 9 1f 37 5a 19 9 40 39 19 37 15 9 25 19 37 39 19 37 15 9 25
FIXUPS: 8db63 37 2f 37 19 fffff11c 56 56 6a 75 4e 5a 65 6a 75 52 56 5a
FIXUPS: 8d213 62 6d 5e 1d 52 25 52 52 52 56 56 56 5a 5a 11 9 48 66 ffffef59
FIXUPS: 8c6d5 6a 75 52 11 46 11 46 4e 56 56 38 34 2a b d 34 38 34 30 d
FIXUPS: 8cb6d 40 34 38 d 34 37 34 2f d fffff33f 57 57 1d 37 57 35 3d 33
FIXUPS: 8c27b 35 3d 33 3d 11 9 42 19 9 42 11 42 11 42 52 50 4e 31 19 37
FIXUPS: 8c651 37 fffff330 19 37 56 11 d 34 11 d 39 5f 4e 48 48 48 48 48
FIXUPS: 8bd64 48 48 48 31 19 37 31 19 37 31 19 37 31 19 fffff238 34 52
FIXUPS: 8b321 65 15 9 42 15 42 11 42 52 52 4e 52 52 a8 1c 51 37 20 10 34
FIXUPS: 8b827 4e 31 19 37 39 19 37 fffff1c8 34 64 35 2c b 5e b 2d 3e 1f
FIXUPS: 8ad72 56 56 56 4e 4e 6a 35 2c b 5e b 39 2b 37 2b 33 37 3f 31 1f
FIXUPS: 8a4c1 2b 34 64 35 2c b 5e b 2d 6f 34 64 35 2c b 5e b 3d 2b 81 10
FIXUPS: 8a998 10 48 19 43 19 34 10 32 36 fffff307 b 91 36 b 48 1e b 36
FIXUPS: 8a02f 7f 35 2c b 5e b 35 2b 3b 34 50 64 35 2c b 5e b 2d 2f 2b 20
FIXUPS: 8a492 ffffebab 7 1af b2 424 80 214 c 43 c 3f 51 7b 23 23 23 23
FIXUPS: 89b72 38 2c b 3c 38 b 60 b 37 2c b 3c 38 b ffffe9fd e 18 16 e 2c
FIXUPS: 88839 23 16 e 1f 6 5 1b d 3a 1e6 36 34 36 36 35 7 35 7 2b6 36 34
FIXUPS: 88f96 36 35 7 dc74 48 49 38 7b 38 71 7 1e 7 1b 7 3a 50 3f 13 2d
FIXUPS: 96fd3 2d 13 2d 13 5f b 23 13 2d 13 2d 13 ffff1614 18 dc80 3a 63
FIXUPS: 96518 63 5c 63 11 9 1c 3c 5c 5c 60 60 1f 44 1f 44 1f 44 1f 39 3e
FIXUPS: 96a33 3e 3e 3e 3e 73 4e 48 ffffedc1 8f 7f 5f 36 43 5d 59 59 59
FIXUPS: 95d9c 59 5d 59 59 70 59 5d 59 2a 3f 69 2c b 3f 52 5c 5c 60 58 46
FIXUPS: 963fd ffffeb0a 59 5d 5f 5d 59 5d 52 2c b 3f 59 59 59 5d 5d 5f 59
FIXUPS: 954cd 5d 5f 68 59 5d 5d 5d 5d 5d 5f 5f 62 5d ffffea99 59 5d 70
FIXUPS: 945b4 5f 15 3c 19 3c 5f 5d 5d 5d 5d 5f 59 5f 5f 5f 59 59 59 59
FIXUPS: 94c29 5d 5f 5d 59 5d 59 59 ffffeb19 5d 5f 36 43 5d 64 5d 5f 59
FIXUPS: 93d32 5d 5d 5f 59 5f 5f 5f 88 5d 59 59 5d 58 40 b 54 2c b 3f 59
FIXUPS: 943d4 ffffeb7a 59 5d 57 5f 5d 59 5d 59 5d 52 2c b 3f 59 59 5d 59
FIXUPS: 93510 59 5f 59 5d 5d 5f 5d 19 3c 5f 5d 5f 5f ffffecfc 20 20 20
FIXUPS: 926e2 20 20 20 20 10e 2d 3c 77 56 56 5d 5d 52 2c b 3f 5d 59 5d
FIXUPS: 92cea 5d 59 5d 52 2c b 3f fffff3a7 20 20 1e 20 20 20 20 20 20 20
FIXUPS: 923ca 20 20 20 20 20 20 20 20 20 20 20 20 1e 1e 20 20 1e 20 20
FIXUPS: 92644 fffff82e 1e 20 20 20 20 20 20 20 20 20 20 20 20 20 20 20
FIXUPS: 92090 20 20 20 20 1e 20 20 20 20 20 20 20 20 20 fffff6bf 32 3a
FIXUPS: 919d7 5f 5a 15 4f 15 4f 56 34 20 20 1e 1e 1e 20 20 1e 20 20 20
FIXUPS: 91d5a 20 20 20 20 20 1e 1e 1e fffff430 3c 19 9 3c 1c 3a 20 3c 1c
FIXUPS: 91426 11 4a 1c 3a 11 14 26 3c 56 56 50 32 1c 1c 3a 15 4a 5c 3d
FIXUPS: 9186d 50 fffff2fb 14 3c 50 4b 15 4e 5a 5e 38 3a 1c 1c 3a 1c 1c
FIXUPS: 90ef6 3a 62 62 5f 5f 15 14 3c 15 14 3c 5a 24 3c 28 fffff165 47
FIXUPS: 9045d 67 53 67 20 39 53 1c 37 1c 37 56 4d 57 57 15 47 58 5a 15
FIXUPS: 9098e 56 11 4a 50 56 29 3c 1d 3c fffa072c 6 7 d 27 13 5ea68 d 74
FIXUPS: 8fe67 5b 15 49 22 37 1c 37 11 47 4d 20 39 5e 4d 5e 39 4d 4d 53
FIXUPS: 9034c 19 47 fffa091d 31 1a 16 1a 29 14 24 22 14 4b 14 2e d9 48
FIXUPS: 30fc5 3c 3c 27 4d 7f 17 14 17 57 61 25 a 20 22 14 7 fffff2b6 6
FIXUPS: 305a6 af 9 b c2 24 b 94 34 7d 7a 50 22 a7 b 42 17 46 25 14 1a 17
FIXUPS: 30b51 ad b 33 16 13 2a 22 fffff2ae 41 2e 1c 37 2c 35 29 1c 64 18
FIXUPS: 3016c 2f 29 1c 38 2b 1c 38 2b 1c 3d 2b 20 2c 3b 41 32 62 2e 7d
FIXUPS: 3055c fffff3cf 22 4a b 17 20 17 22 38 10 15 5f 96 14f 15 53 1c
FIXUPS: 2fd6a 18 17 3a 2e 1c 31 18 17 37 d 17 a 2b 1c 22a7 13 ffffd3b2
FIXUPS: 2f5a7 40 9 b 38 12 3f 9 b 3a 12 18 14 17 18 10 e 25 c 9 b 68 2a
FIXUPS: 2f83d b 2a 19 17 17 246e 30 41 2d 25 34 11 41 1c 31 11 2c 30 11
FIXUPS: 31f64 1c 63 11 29 71 1c e 2b 1c e 2b 1c e 24 14 7 d fffff70d 29
FIXUPS: 318fb 52 11 2b 11 2e 1c 18 17 37 11 31 25 33 11 31 18 17 25 59
FIXUPS: 31be4 2e d 14 30 35 11 47 14 18 fffff67f b 3a 48 25 b 3a 26 14
FIXUPS: 314e0 17 18 10 e 25 9 b 52 22 1e b 31 14 1f 14 14 2c 28 22 155
FIXUPS: 31868 37 23aa9 29 87 34 5 2b 5 2b 5 4f 40 22 5a 22 22 e3 14 7 14
FIXUPS: 556f9 14 7 14 7 d 20 2f 17 2a 34 13 fffdbb52 23966 b 7e 1f 18 14
FIXUPS: 54db7 14 51 3e 2c 34 1b 66 25 2b 52 2b 2a 18 17 8d 2e 28 18 17
FIXUPS: 551ca 63 2b 2d 76 1c fffdd1a6 28 2a e b 3abf1 49 b 57 19 27 b 33
FIXUPS: 6d264 22 7e 86 89 54 59 13 fffe74f2 26 60 b 3a 26 76 b 36 f6 19
FIXUPS: 33498 2b a d d 49 b b ffffecd7 6 32 6 44 14 2b 16 c 15 8 16 c 37
FIXUPS: 3237f b 29 d 30 12 14 7 d 89 c18 5e 33 29 9 14 c 14 c 8 17 b 1a
FIXUPS: 33234 c c c c c 2e 24 4d 44 b 18 14 18 11 15 40 2c 20 fffff946
FIXUPS: 32da5 55 b 12 8 19 d a c 2d 9 b 55 b 12 f 24 b 2d 10 13 81 9 e
FIXUPS: 33040 e c 8 17 b 1a 643a8 15 4c 1f 1d fff9b6f6 7 12 d 6 15 d 6
FIXUPS: 32c42 d 6 14 7 14 7 14 7 d 50 b 12 8 19 d a c 2d fffeea13 17 15
FIXUPS: 217e0 30 c 8 17 16 d 11 16 24 19 7 7 8 49 7 7 7 12 20 29 25 2a
FIXUPS: 21a05 2a 1e 17 2c 13 fffff86f 1a 1a 2e 2e 33 1d 1b 41 19 27 3a
FIXUPS: 214e1 22 29 22 3c 24 5e 19 22 2a 44 3b 19 16 17 1c 19 11 10 b fbc
FIXUPS: 97516 15 4c 1f 1d fff898d2 58 b 50 18 21 b 2a 16 3e 4b 19 1b 59
FIXUPS: 2116a 1f 19 1d 1e 24 1b 49 1b 29 1d 31 1148 d 17 15 10 30 c 8 17
FIXUPS: 224fc d 11 19 24 19 7 7 8 49 7 7 7 12 20 29 25 2a 25 2a 21 17 2b
FIXUPS: 21f7b 1b 1a 1d 2e 31 36 20 1b 41 19 27 3a 19 22 29 22 4b 24 5e
FIXUPS: 222c4 22 2a 4d 3b 19 16 17 1c 19 11 10 e64 25 2a 21 17 31 13 ffffe782
FIXUPS: 21b3d b 50 18 21 b 2a 16 3e 4e 1c 1e 5f 98 22 1c 20 1e 2a 1b 49
FIXUPS: 21efe 29 23 fb3 5e 19 22 2a 4d 3b 19 16 17 1c 19 11 10 b d 17 15
FIXUPS: 23138 29 19 7 7 8 49 7 7 7 12 20 29 25 fffff706 1e 5f 98 22 1c
FIXUPS: 22ae7 1e 2a 1b 49 1b 29 23 31 1b 1a 1d 2e 31 36 20 1b 41 19 27
FIXUPS: 22e08 19 22 29 22 4b fad 49 7 7 7 12 20 29 25 2a 25 2a 21 17 2b
FIXUPS: 24053 735c3 15 4c 1f 1d fff8b0e2 58 b 50 18 21 b 2a 16 3e 4e 1191
FIXUPS: 23b0d 5e 19 22 2a 4d 3b 19 16 17 1c 19 11 10 b d 17 15 10 30 c
FIXUPS: 23d8c 17 34 12 11 34 29 19 7 7 fffff6ea 1c 1e 5f 98 22 1c 20 1e
FIXUPS: 2373f 1b 49 1b 29 23 31 1b 1a 1d 2e 31 36 20 1b 41 19 27 3a 19
FIXUPS: 23a53 29 22 1363 7 7 6 12 20 29 25 2a 25 2a 21 17 2a 13 2d 13 72723
FIXUPS: 976fb 4c 1f 1d fff8bc22 58 b 50 18 21 b 2a 16 3e 15bf 50 19 16
FIXUPS: 24b6f 1c 19 11 10 f e d 23 19 e 10 1e 9 b 2f c 8 17 34 12 11 34
FIXUPS: 24d89 19 7 7 8 fffff829 1b 29 20 31 28 36 1b 1a 1a 2e 31 36 20
FIXUPS: 247f3 41 19 27 15 2b 19 22 29 22 46 24 3a 30 19 22 2a 30 1130 ffffe4c2
FIXUPS: 240ed b 50 13 1b 21 b 2d 25 26 26 16 39 1b 4e 1c 19 5a 33 9b 25
FIXUPS: 24499 20 21 25 1b 49 25 23 a 1303 19 16 17 1c 19 11 10 b d 17 15
FIXUPS: 259a8 29 19 7 7 8 49 7 7 7 12 20 29 25 2a 25 2a 21 17 31 fffff797
FIXUPS: 25375 2a 1b 49 1b 29 23 31 1b 1a 1d 2e 31 36 20 1b 41 19 27 3a
FIXUPS: 25691 22 29 22 4b 24 5e 19 22 2a 4d ebb 29 25 2a 25 2a 20 17 2a
FIXUPS: 26873 70f73 15 4c 1f 1d fff8d782 58 b 50 18 21 b 2a 16 3e 4e 1c
FIXUPS: 25202 5f 98 22 1c 1149 3b 19 16 17 1c 19 11 10 b d 17 15 10 30
FIXUPS: 265e7 8 17 18 d 11 18 24 19 7 7 8 4a 7 7 7 12 fffff82a 1f 1e 28
FIXUPS: 25fc2 49 1b 29 22 31 1b 1a 1c 2e 31 35 1f 1b 41 19 27 3c 19 22
FIXUPS: 262e2 22 48 24 60 19 22 2a 11d0 12 20 29 25 1e 17 19 17 36 13 70183
FIXUPS: 978cd 4c 1f 1d fff8e2c0 58 b 50 18 21 b 2a 16 3e 4e 1b 1d 5d 98
FIXUPS: 25f27 1300 17 38 17 45 17 23 2b 19 48 17 44 2b 17 71 c 8 17 2d
FIXUPS: 27515 19 12 23 c 29 19 7 7 8 10 19 e fffff7ba 16 17 1c 8 19 b 30
FIXUPS: 26e79 19 17 5b 2c 1c 19 17 5b 2c 16 1e 29 17 37 49 16 18 17 1b
FIXUPS: 2717e 17 37 48 129d 2f 13 ffffe3c2 26 64 b 2d 37 4d 19 27 b 3c
FIXUPS: 26a8d 65 50 61 1e 2b 11 6a 11 69 19 16 17 1c 8 19 b 30 12ed 48
FIXUPS: 280e7 17 38 17 45 17 23 2b 19 48 17 44 2b 17 6a 19 7 7 8 10 19
FIXUPS: 283c5 7 12 20 29 25 1e 17 19 fffff795 30 19 16 17 1c 8 19 b 30
FIXUPS: 27d39 19 17 5b 2c 1c 19 17 5b 2c 16 1e 29 17 37 49 16 18 17 1b
FIXUPS: 2803e 17 6f961 17 4c 1f 1d fff8fd20 26 64 b 2d 37 4d 19 27 b 3c
FIXUPS: 2794d 65 50 61 1e 2b 11 6a 11 69 19 16 17 1c 8 19 16de 2d 17 19
FIXUPS: 29371 b 27 8 9 1e b 3d 19 7 7 8 10 1d 15 6 1e d b 24 29 25 1e 17
FIXUPS: 29587 17 32 13 fffff86d 1d 17 37 49 16 18 17 1b 12 1b 17 37 48
FIXUPS: 2903a 17 38 17 45 17 23 2b 19 48 17 44 2b 17 38 57 c 8 fffff7ce
FIXUPS: 28ad2 16 17 1c 8 19 7 9 4c 1c 19 17 21 47 c 27 9 b 4c 1c 19 17
FIXUPS: 28d4c 47 c 27 9 b 30 16 1e fffff7e5 3f 24 43 19 27 b 3c b 65 50
FIXUPS: 28825 1f a 25 39 1e 2b 11 12 5e 11 12 5d 19 16 17 1c 8 19 7 9 12ac
FIXUPS: 29d55 5c 42 1c 2a 6d 16 17 2a 8a 19 7 7 8 10 21 1a 7 7 7 12 20
FIXUPS: 2a064 32 2a 13 ffffe462 26 64 b 2d 249c ffffec62 26 60 b 2d 19
FIXUPS: 297eb 2e 2a 1e 34 25 2c 4d 19 27 b 3c b 65 42 6c 1e 24 9f 7d 10
FIXUPS: 29c95 10 2b 8 913 10 51 10 2b 8 5d 20 5c 42 1c 2a 6d 16 17 2a 8c
FIXUPS: 2a959 7 7 8 10 21 1a 7 7 7 12 20 1c 32 31 c5c 34 13 6c3c3 17 4c
FIXUPS: 97b68 1d fff925b0 26 60 b 2d 19 1f 2e 2a 1e 34 25 2c 4d 19 27 b
FIXUPS: 2a3fa b 65 42 6b 1e 24 ea7 c 8 17 2e 5d 10 17 b 27 d c 9 1e b 3d
FIXUPS: 2b5b0 7 7 8 10 f 21 1a 6 7 7 1e d b 24 1c fffff769 b 65 42 10 d
FIXUPS: 2af13 36 1e 24 59 42 10 4f 10 1f 35 10 2b 8 1b 51 20 47 1e 42 1c
FIXUPS: 2b2a5 6d 16 17 76 d52 21 1a 6 7 7 1e d b 24 1c 32 32 13 ffffe8b2
FIXUPS: 2ab1b 60 b 2d 19 1f 2e 2a 1e 34 5c 22 2c 4d 19 27 b dfc 36 1e 24
FIXUPS: 2bca4 42 10 4f 10 1f 35 10 2b 8 1b 51 20 47 1e 42 1c 2a 6d 16 17
FIXUPS: 2c075 44 19 7 7 8 10 e6d 2b 13 6ac43 17 4c 1f 1d fff93b30 26 60
FIXUPS: 2b846 2d 19 1f 2e 2a 1e 34 5c 22 2c 4d 19 27 b 3c b 65 42 10 d
FIXUPS: 2ccff 10 17 b f 24 d 8 9 9 27 9 b 3d 19 7 7 8 10 f c 21 1a 6 7
FIXUPS: 2ceab 27 d 9 b 24 1c fffff857 1e 24 59 42 10 23 30 10 1f 35 10
FIXUPS: 2c969 8 1b 51 20 47 1e 42 1c 2a 6d 16 17 76 f 40 c 8 17 2e 6b0b3
FIXUPS: 2c2d5 26 60 b 2d 19 1f 2e 2a 1e 34 5c c 25 2c 24 43 19 27 b 3c
FIXUPS: 2c627 65 42 10 d f 1d a 24 c 110b c 8 17 2e 5d 10 17 22 d 10 29
FIXUPS: 2d9ba 7 7 8 10 21 1a 7 7 7 12 20 1c 32 30 13 6a1c3 17 4c 1f fff9544b
FIXUPS: 2d1a1 34 25 2c 4d 19 27 b 3c b 65 42 6b 1e 24 9c 10 4f 10 2b 8
FIXUPS: 2d5f6 20 66 42 1c 2a 6d 16 17 2b a25 1c 2a 6d 16 17 2b 8c 19 7
FIXUPS: 2e3ac 8 10 21 1a 7 7 7 12 20 1c 32 2c 13 ffffeb62 26 60 b 2d 19
FIXUPS: 2d12b 2e a32 60 b 2d 19 1f 2e 2a 1e 34 25 2c 4d 19 27 b 3c b 65
FIXUPS: 2dedc 6b 1e 24 9c 10 4f 10 2b 8 5f 20 66 63e8 25 12 8 17 29 b 2d
FIXUPS: 34663 11 14 31 48 17 18 45 2a 2a 3e 11 1b 11 84 8f 5d 40 48 42
FIXUPS: 29625 20 66 44ba 6756 c 34 11 11 14 b 24 13 c b 15 8 18 24 2e 21
FIXUPS: 3444d 11 4b 15 8 3f b 18 11 b 11 b c 11 c fffffa47 b 4b 17 11 15
FIXUPS: 34074 9 c 27 9 b 34 11 e 11 19 c 19 12 17 10 b 14 b 18 11 41 17
FIXUPS: 34260 9 29 fffffa0e c d 8 1b 1b 37 17 16 9 4a 14 d 3a 15 1e 3c
FIXUPS: 33e8d 12 c c 27 9 b 4b 17 11 14 f c c 27 fffff966 15 27 11 14 c
FIXUPS: 339a2 18 29 14 17 12 34 11 1c 23 37 16 11 19 15 26 39 14 d 23 27
FIXUPS: 33c0f b 4a 11 14 fffff99b e 31 22 1b 1f 17 29 25 14 15 11 17 12
FIXUPS: 33792 39 30 23 17 11 12 8 16 11 11 16 27 11 b f 16 c fffe78ae 25
FIXUPS: 1b210 c 2a b 22 5c 25 32 29 13 39 3b 17 2c a 39 17 2f 36 17 25
FIXUPS: 1b52b 35 18025 21 15 11 11 18 1b fffe7312 30 20 27 ce 4c 2a 2d
FIXUPS: 1ab33 4c 30 1b 14 337 a3 21 17 13 27 17 1f 37 13 17 1b 9 20 b 49
FIXUPS: 1b165 41 13 fffff38b e 11 17 c 27 9 b 57 14 e 1b c 27 9 b 44 17
FIXUPS: 1a720 1e b 44 17 29 1e b 2c 48 17 18 48 17 fffff8a4 15 15 32 3c
FIXUPS: 1a24f c c 27 9 b 3e 15 12 c 27 9 b 41 17 1e b 63 17 11 1b 1d c
FIXUPS: 1a4c5 9 b 57 1bb9 b 41 13 17 11 d 27 9 b 45 f d 27 9 b 45 f d 27
FIXUPS: 1c2e5 b 45 f d 27 9 b ffffdd7a 16 53 19 1941 1e 88 53 30 2e 2e
FIXUPS: 1bc7c d7 42 24 b 41 13 17 11 d 27 9 b a5 24 b a5 24 b 41 13 17
FIXUPS: 1c0ac d 27 fffff549 29 44 a4 4b c 4c c 73 c 29 111 7 7 22 7 7 1e
FIXUPS: 1ba1c 1f e e e e 7 7 7 7 7 7 7 7 7d007 b fff69058 1c 43 1c 2d b
FIXUPS: 1c11 2c b 96e98 13 5f b fff69167 60 30 30 30 31 1c 43 1c 2d b 28
FIXUPS: 1f00 2a 9 b 196bc 7d053 9 b 19 5 2a 1d 32 9 1c 1f b 21 1d 28 1c
FIXUPS: 987ea b 32 99 13 5f b 23 13 5f b 23 13 2d 13 fff6907d 9673e 26
FIXUPS: 9825b 9 b 91 27 26 63 9 b 37 14 d 11 11 1a 29 c c 9 b 6f 28 28
FIXUPS: 98594 28 10 13 12 44 c fffff76e 3a 41 46 b 102 27 b 1e 15 5 2a
FIXUPS: 9802e 33 14 d 10 10 e 1a d 4d 10 22 9 b 3a 14 d 10 10 e 160b 18
FIXUPS: 9986b 46 4d 2d 17 10 9 14 14 90 32 5b fff684ee 36 30 2c 97ac5 2c
FIXUPS: 99b1c 24 13 5f b fff68487 97bbc 25 2b 24 6c 13 fffff31f 2e 44 7b
FIXUPS: 99124 2b 14 d9 25 2b 4c 1c 49 5b 27 4a 26 b 45 22 a1 cb 9a 10 26
FIXUPS: 99732 15 30 14 20 1a 28 fff68bc3 57 4c 39 b 87 b 4a 4d 13 2d 13
FIXUPS: 98b8e 15 15 15 43 3d 13 36 17 20 f 13 31 33 4e d 44 52 24 17c fff69ddc
FIXUPS: 2e0e 23 27 1b de 11e 91 13 2d 13 2d 13 ffffef12 12 26 1f 9 b 94
FIXUPS: 21ad b 69 f 19 6 7 c 20 70 45 45 397 b 60 b 68 3a 1c b 60 b 5e
FIXUPS: 2959 1c b 60 b 4b 16 14 3b 40 22 58 8d a2 22 41 22 5a 13 17 1c
FIXUPS: 3bce6 48 40 22 13 fffc741d 25 1c 40 1c 2d b 4f 33 29 25 1c 40 1c
FIXUPS: 340a b 40 2c b 24 13 96953 15 fff6884e 26 21 37 38f1a 46 4d 50
FIXUPS: 3b744 7e 45 a8 1c e 30 13 73 1c e 30 13 64 3e 30 15 18 3f 12 2c
FIXUPS: 3bb8a 4f 2d 33 50 18 17 fffff353 2a 35 22 24 2e 1d 54 25 b 40 5c
FIXUPS: 3b257 25 29 3a 28 4f 1d 8 63 36 e 23 3e 8 29 ba 34 29 10 10 fffff2ca
FIXUPS: 3a8d7 1c 17 34 11 2b 30 5a 11 b 76 c 8 8 bd 38 41 21 2a 19 24 19
FIXUPS: 3aca6 59 6b 15 20 149 52 8e 3b fffff3e4 12 1d 1c 8 10 24 8 37 19
FIXUPS: 3a4de 2c 15 2c 15 4f 3e 15 18 24 1a 1d d 10 39 4e 36 b3 19 5 2d
FIXUPS: 3a89e fffff73c 49 22 20 e6 15 2a 1a 1f d 1c 5 12 d 16 1e 1d 8 1b
FIXUPS: 3a29b 8 d 2b 1d d 15 7 8 10 24 20 10 fffff4b0 2f 2c 8 13 13 17
FIXUPS: 39993 22 2b 36 50 15 184 22 36 6b 5b 23 2b 26 2c 19 19 44 15 d
FIXUPS: 39e60 43 62 40 32 ffffefc4 4e 23 29 54 63 5f 63 66 4e e 2d 15 31
FIXUPS: 39337 af 12 53 11 6a 18 1a 9f 5a 41 29 79 6f 26 56 2b 31 fffff1f5
FIXUPS: 38a17 57 22 12 21 1e 22 36 1e 22 4b 32 1c 8 7 7 32 8 43 1e 22 24
FIXUPS: 38d1e 36 12 7 ec 59 28 e 32 fffff2f9 1e 17 1c 18 2b 5b 3d 90 91
FIXUPS: 385ac 4d 9 c b 25 e4 35 44 13 27 48 4b 49 2a 13 29 61 22 8 33 26
FIXUPS: 37ae6 47 3d 81 2a 1d 2a 34 27 29 16 25 32 17 44 40 1a 1b 1e 32
FIXUPS: 37ef7 1d 7e 61 49 f9 a 2c 18 30 18 18 fffff276 45 46 17 10 9 14
FIXUPS: 3753c 1f b 9b 5a d 2c 24 22 51 16 1f 11 3f 12 8 11 12 3f 38 19
FIXUPS: 37888 d2 151 11 fffff51c 34 15 28 18 26 15 2e 18 2e 18 34 e 1d
FIXUPS: 37217 13 21 10 13 35 19 17 15 28 8 2a 1a 29 15 90 f 14 fffff517
FIXUPS: 3696f e 7 20 7 3e 7 d 33 1f 18 58 17 2c 11 122 17 19 6f c8 37 18
FIXUPS: 36e44 16 49 15 11 19 8 3c 5f fffff521 36 1a 50 1c c5 37 37 32 10
FIXUPS: 366f6 18 1c 1c 24 34 17 7 6a 14 1f 12 44 39 7 7 32 7 7 8 f 11 fffff49c
FIXUPS: 35e71 47 52 1c 22 25 25 31 7d 3e 54 8 45 38 1f 30 49 22 19 42 88
FIXUPS: 362ff 75 b 1f 21 12 e f 92 11 fffff484 11 13 b 1a 18 4e 15 12 11
FIXUPS: 35a0c 2b 75 28 1f 44 2a 2e 26 22 17 15 35 1b 17 30 12 6f 1b 2f
FIXUPS: 35d96 1c fffff679 2b 40 12 17 21 1f 25 c 37 1f 60 1c 27 22 17 5f
FIXUPS: 356f2 9 14 35 e e 6 22 6 c0 17 26 2d b 1f fffff796 b 2f 2d 1f 15
FIXUPS: 3511b 31 18 8 9 2c 15 32 1f 1e 36 40 18 18 21 d 14 21 1e 9 20 1f
FIXUPS: 353a9 f 28 28 fffff77f 1a 3a 15 5 1c 1a 3a 15 5 1c 1a 3a 33 20
FIXUPS: 34d61 b 38 20 28 b 2e 2b a0 3a 55 39 1e 3b 12 17 e 3cadf 14 7 17
FIXUPS: 71b60 17 7 17 7 27 7 12 d 20 2f 16 17 9b 13 fff91801 30 2c 96919
FIXUPS: 99e9e fff9ac09 35 5 1c 1a 3a 15 5 3c9fb c1 2a 27 b8 1f 20 23 1b
FIXUPS: 717b6 f 26 2d 8 24 27 24 13 20 1e 20 62 58 2a 1c 1b 16 c 84 29
FIXUPS: 71b0c 14 fffff282 15 5b b 87 b 74 26 2c 20 66 7 9 f 29 8d 24 8e
FIXUPS: 711be 3c 1c 18 99 37 22 2f 3f a 2d 68 8c 82 fffff394 27 34 2b 37
FIXUPS: 7099e 1c 1e 2b d 19 1a 16 39 b 36 1c 1e 2f 17 4b 15 21 30 17 19
FIXUPS: 70ca2 14 29 7f 17 1d fffff53c 2b 22 1f 17 2a 49 8 36 3c 16 59 27
FIXUPS: 70500 96 60 19 25 15 13 2b d 41 6a 2a 60 f 8 59 b 2c 26 fffff4a0
FIXUPS: 6fd4d 3e 17 16 17 d8 11 2b 8 15 36 11 b a 17 2f 27 24 20 a5 28
FIXUPS: 70116 43 28 11 1f 22 e 3c 72 15 fffff22d 38 26 48 8 22 83 48 16
FIXUPS: 6f6c5 1c 193 29 18 79 45 16 20 a 2e 16 95 3c 3d 3c 7c 17 5b 25
FIXUPS: 6fc6d f 46 fffff20e 102 3f a 5 f a 21 60 8 72 62 e 27 27 1c 20
FIXUPS: 6f280 17 5c 12 1e 20 12 1e 28 6b 14 22 53 8 1e fffff4a8 42 44 24
FIXUPS: 6ea47 21 50 19 30 2f 30 5a 3a 1d 13 14 f 5 1f 38 11 2f 3f 2d 1f
FIXUPS: 6ed91 b 9e 17 1a 1c 1f fffff534 75 28 15 2b 1c 11 1e 1c 38 3e 20
FIXUPS: 6e5e0 5b 1f 92 2d 2a 10 3f 17 57 2d 22 24 13 1f 17 17 25 2c 1f
FIXUPS: 6dc17 1e 16 37 2a 3e 9c 16 56 1c 1a 33 2a 28 43 2d 2f 41 18 63
FIXUPS: 6e052 18 4a 4e 8f 4b 62 4b 2c cd 15 1f fffff169 63 12 d 12 26 bb
FIXUPS: 6d6e1 22 c 9 b 50 2b 39 c 9 b 2b 12 27 12 32 22 14 d1 c 113 72
FIXUPS: 6dbb1 29 16 46a0 39 17 1e 23 1c 16 17 21 18 3a 1c 21 26 1c 16 17
FIXUPS: 724b0 17 34 8 3d 1c 23 40 c 8 13 13 9 9 ffffaeec 488d d 14 2c 34
FIXUPS: 71e5d 1e 17 36 d 3f 17 2e 22 67 19 29 1a 14 24 19 2e 22 46 28 4e
FIXUPS: 721b7 37 1a 17 27 19 fffe396f 43 2b 1d 37 c 3a 26 58 19 48 2a 40
FIXUPS: 55e2a b 8 7 26 81 c2 61 59 b8 4b 25 36 192 2f 6e cf 1b898 17 2d3c
FIXUPS: 74af0 13 5f b 23 13 5f b 25367 1c 2d b 67 1c 2d b fffbb7f1 44 10
FIXUPS: 558d3 3d 1c 38 2d 1b 36 36 4a 41 6e 69 1e7ee 3e 35 41 7 61 2f 8
FIXUPS: 74581 7 4a 7 20 88 c1 35 5d 20 5e 15 38 7 9 f 37 13 48 c4 37 11
FIXUPS: 74a69 16 fffff363 16 8 40 8 24 83 27 11 44 19 32 1f 29 37 2b 17
FIXUPS: 7407e d 4a b8 27 7d 17 25 32 19 1c 16 17 2a 1c fffff669 22 11 67
FIXUPS: 73a53 b 31 8 4d d 46 11 dc 8 9 10 13 b 9 21 e 12 22 8 22 2c 27
FIXUPS: 73d62 a 17 23 26 fffff6c8 15 27 1f 16 17 36 75 5b 27 4d 23 4f 19
FIXUPS: 73730 c 37 61 3a 28 2c 17 22 2f 33 17 38 b f 10 14 a fffff40b 40
FIXUPS: 72dfe 53 2b 38 28 6c 7f 69 1a 17 2b 48 37 3a 2b 17 7 14 7 d 65
FIXUPS: 73261 b 68 2d 32 30 6f c 5d fffff26a 39 b 25 2a 22 80 17 65 2a
FIXUPS: 728a3 2a 22 21 5d 1c 11 1f 15 1c 53 28 3a 36 9 52 9d c 50 90 b4
FIXUPS: 72d7f fff915f5 26 1a 15 6b 15 1d 58 1f 24 16 3c 21 22 2a 2a 1c
FIXUPS: 461d 1e 21 9e 17 1e 19 26 28 47 4c 18 54 2b 13 fffff4cf 60 22 22
FIXUPS: 3e5c 12 3e 4b 22 22 1d f 57 22 1d 64 11 13 17 19 9 19 b 29 14 6e
FIXUPS: 41d6 8 15 36 5e bc fffff4ea 13 14 4d 30 1b 44 2f 63 1f 1f 3d 1d
FIXUPS: 3a73 5d 22 22 40 1d 19 15 1c 68 22 1d 54 22 1d d 25 3c 22 728d7
FIXUPS: 7669b 40 2c 2c 18 4b 1c 12 1a 19 11 fff8e0fa a 71f74 13 23886 15
FIXUPS: 35f5 14 2c 9 b 27 2f 19 4c 2a 9 b 1f b3 729eb 9 9 b 1f c 15 9 1e
FIXUPS: 7628c c 25 9 1e 9 1e 60 1d 35 d f9 3d 17 19 17 33 13 48 24 22 18
FIXUPS: 76645 fffff893 14 a 1e 11 16 3e c 10 8 16 24 17 2d 8 38 a d c 9
FIXUPS: 760a3 f 1e 13 4e 32 12 28 a 3a c 9 fffff9ca 8 b 12 14 8 15 8 29
FIXUPS: 75c4f 29 1a 1a 21 a 17 1a a 21 33 1b 1b 1e 1e 1b 1b 1e 1e 14 49
FIXUPS: 75eb1 17 fffff749 26 c 10 4f 1d1 1f 82 27 8 30 11 5 27 15 50 30
FIXUPS: 75a69 10 11 e 32 1a 1f 8 21 8 b 9 c 49 14 fffff51e 24 17 11 1c
FIXUPS: 75145 17 1a 37 64 17 3c 8 8 8 9 8 9 8 11 29 1e 34 4b d 8d b c 1a
FIXUPS: 7545d 93 f8 fffc6f88 386b7 5 2a 1d 63 15 1f 22 9 b 49 19 30 50
FIXUPS: 74e82 38 18 18 18 2f 13 10 b 4b 2d 9 b 3c 2a 2e 11 fffc7078 26
FIXUPS: 3c154 3f 49 21 d 15 12 13 12 17 12 9 9 16 9 3c 24 f 14 24 42 34
FIXUPS: 3c3e2 36 15 23 24 29 3e 4a 124 3c 1e 5 f e 8 7 5 fffff6f1 21 28
FIXUPS: 3be1b 33 5 5 5 5 a 87 3d 39 12 50 14 1a 29 18 3a 9 b 51 1c004 14
FIXUPS: 580f8 14 7 14 7 14 7 14 7 14 7 d 42019 c6 b 27 114 7a 23 32 33
FIXUPS: 9a530 13 fffbdc6d 13 fffe43d8 15 18 22 30 1b52c 33 29 53 40 13
FIXUPS: 57c50 8 9 10 2b 13 40 11 8 a9 11 23 16 13 25 28 11 23 16 16 28
FIXUPS: 57f6b 103 29 2b 14 fffff3ad 14 10 8 9 10 19 b 26 28 d 10 69 15
FIXUPS: 57606 5f 33 20 7a 8 23 13 2b 49 2f 11 53 3b c5 f c 179 fffff63c
FIXUPS: 57155 1c e 24 2a 8 31 1f 44 25 12 2b 10 26 1e 1c d 3e 48 b 3b f
FIXUPS: 5742b 9 8 8 9 8 9 14 8 fffff5e2 1e 43 19 37 1c 15 23 63 18 c d
FIXUPS: 56cd4 34 60 14 57 14 2b 52 7 13c 31 14 75 1a c c 47 e 1c e 441a1
FIXUPS: 5a933 5d ffffbbf0 8 1c 33 2e 1e 4d b 6d d7 d 12 17 3e b 16 2a b
FIXUPS: 56899 1d 8 17 11 38 51 44 2a 3c 8 441a8 19 17 8a 29 2f 2d 18 29
FIXUPS: 9ad6b 18 c c 38 19 14 36 f 54 19 2c 3f cf 3a 19 25 17 64 25 9b
FIXUPS: 9b1dd c3 fffff3be 4e 56 b 2d 23 36 1f 1c 11 8 21 38 7f 31 13 20
FIXUPS: 9a94e 24 2c 2c 27 27 2f 17 2f 17 13 2b 85 2d a fffbfb49 45 2b 17
FIXUPS: 5a775 17 7 14 7 1c 6 1c 6 8 53 16 7 7 11 7 1d 7 1e 7 16 7 d 12
FIXUPS: 9a585 15 e ab fffbfa6e 48 2d 35 2f cd 1e 19 36 19 66 19 42 16 17
FIXUPS: 5a405 18 39 1c 3b 2b 16 17 2a 18 48 1f 38 4b 27 1d 15 fffff5e1
FIXUPS: 59c73 57 17 31 16 17 19 16 12 b 41 17 c 27 9 b 52 e b 2b 18 2a
FIXUPS: 59f0f b 54 3d 8 30 19 6d 2c fffff609 12 16 7 f 3c 7 23 26 33 e
FIXUPS: 597b4 19 d 14 24 91 7f 2e 24 19 4f 10 2b 38 24 1d 58 33 44 d7 24
FIXUPS: 58fed 20 14 3a 14 27 1c 71 27 2c 15 43 3d 61 33 30 21 8 16 1b 13
FIXUPS: 59369 3e 31 1a c0 2d 9d 2b 93 43 15 ffffefa1 2d 9 2b 24 53 24 19
FIXUPS: 58776 24 107 24 19 3a 24 19 1f 48 15 c 200 2d2 2d 1e 3e 3a 24 14
FIXUPS: 58fb7 8 8 12 1b40 34 20 b 32 1f 19 19 2d 8 c c 21 c 23 78 4b 50
FIXUPS: 5adb0 5d 63 13 ffffd3ed 222 64 3f 13 14 30 3b 1e 41 3913 20 22
FIXUPS: 5bf83 3c 7 7 c 10 7 c 11 7 c 11 7 c 11 6 d 12 26 ffffe935 12 3f
FIXUPS: 5aa31 48 1e b 30 1f 14 ff8 19 e 27 a 3e 24 1a 19 e 26 5d 16 17
FIXUPS: 5bcd2 18 2c 3a 16 17 2a 18 2c 3a 16 17 2a 1e 20 36 19 1b fffff6cd
FIXUPS: 5b619 14 8 13 27 27 44 b 55 41 8 e 19 86 20 25 43 1e 44 8 29 24
FIXUPS: 5b98c c 37 34 24 13 29 3f 24 fffff66f c 4e 13 57 d 3e 2b c 12 47
FIXUPS: 5b2e0 12 1e b 4b 24 15 25 21 32 10 12 17 71 3b 4e 27 16 18 26 15
FIXUPS: 9b96b 97 24 1b 8 9 14 e 30 11 19 64 13 3d 45 73 3b d 5e 13 fffbf1e7
FIXUPS: 5af2b 21 70 c 2d 24 60 27 3b 22 d 40440 3d 16 25 14 2a 17 2a 28
FIXUPS: 9b676 24 d 50 18 22 24 16 d 63 18 10 b 27 2c 19 19 28 d 3c 24 22
FIXUPS: 9b963 fffc2be8 2a 36 24 21 16 17 25 33 2b 13 2d 13 72 9 b 3d5e0
FIXUPS: 9bd6e fffff5b7 8e b 4c 1e b 2a 1c 17 1f 19 11 8 21 fffc2b85 7e
FIXUPS: 5e151 12 8 14 17 8 10 20 42 30 b 45 1d 16 28 28 36 24 21 16 17
FIXUPS: 5e3e0 47 26 24 21 16 17 25 28 fffff6af 16 17 2d 17 c3 19 2b 19
FIXUPS: 5dd88 e 17 19 17 17 f 17 2b 16 7 14 7 d 34 2f 33 1c af 35 17 3c
FIXUPS: 5e07c fffff406 3a 22 2e 67 136 b 8 13 ee 10 54 8 18 43 4f 5e b
FIXUPS: 5d975 3e 27 52 15 15 15 2f 4e 19 62 15 2b c fffff376 2c f 36 17
FIXUPS: 5cfb5 11 20 18 b f f 3b 22 2e 18 18 b4 8 c f 40 2a 42 2d 3a 22
FIXUPS: 5d31c 67 66 2a 42 fffff75a 19 24 13 23 8 1b 20 17 d 33 21 13 1b
FIXUPS: 5cd28 2b 19 19 1c 25 2e b 21 13 1b 1d 19 13 1b 1d c 1c fffff8c0
FIXUPS: 5c7bf 1b 27 63 1e 17 1d f b d 34 13 d 17 2a 11 c 28 74 16 8 49
FIXUPS: 5cab0 22 2a 12 15 1a 1a 39 13 fffff7d4 8 21 6b 15 4d 15 b 60 10
FIXUPS: 5c50a 14 11 c 28 74 16 8 49 21 1f 27 12 b 1a 1a 39 13 c 19 1a 13
FIXUPS: 603d4 e 2d 28 d 32 8 1d 8 23 23 12 14 79 ffffbb8d 15 12 2c 1b 50
FIXUPS: 5c1dc b 63 15 58 9 b 30 16 14 17 1f 38ea 17 1a 28 29 b b 22 42
FIXUPS: 5fd56 8 e 8 14a 54 ea 10 42 8b 43 55 31 60 31 72 1c 22 48 1c 22
FIXUPS: 603b4 5 fffff2f7 7 13 f 36 8 31 f 60 3e 82 1e 3b 1c 2c 20 d 33
FIXUPS: 5f991 21 5d 56 f 1a 50 1a 7 24 9b 14 5a e fffff593 13 13 13 38
FIXUPS: 5f24e 37 1d 20 1c 1c bb 1a 7b 3e 24 3e 2c 1f 1e 8 8 c 49 f 2c f
FIXUPS: 5f62e f 2f 1b f fffff5a4 68 12 63 12 69 16 1e 1e d 8 f a9 14 12
FIXUPS: 5ef30 18 12 85 16 1e 1e 17 1a 1a 1a e 1c b b1 2f f fffff5f4 b b
FIXUPS: 5e7cf b b e e 1f 22 da 53 32 32 1b 1b 8 f 8a f 2f 12 2f 12 2f 12
FIXUPS: 5ebb1 16 1e 1e 20 8 38f4 45 29 16 1e 40 1f 13 8 d 20 29 13 21 1f
FIXUPS: 626fa 1f 13 d b 2c 13 2d 13 62 b 395a6 15 4c 1f 1d fffc2930 37d7
FIXUPS: 61f89 30 53 c f 8 2c 9b 3e 68 a0 2b 2b c 8 53 1b 4b 3d 4b 1c b
FIXUPS: 6242b 19 45 24 b 15 15 20 c fffff6b6 1c 32 1c 15 1c 29 d 1c 16
FIXUPS: 61cde 25 22 37 18 1c 29 1f 18 1c 25 21 19 17 39 f 20 b 1c 1c 1a
FIXUPS: 61f5f fffff772 1b 24 1f 4a f 1b 1b 32 18 1f 15 4e 94 15 1a 4b 71
FIXUPS: 61a30 3d f 3b 13 c 19 b 39 13 c 19 b 36 fffff7ec 10 b 9 1a 20 7
FIXUPS: 6140f f 29 1e d c c 16 1a 18 14 18 2a 7 32 38 b 19 1c 12 2c 21
FIXUPS: 61662 1a 28 fffff893 31 21 21 21 21 21 21 21 21 e 17 18 23 3d 1c
FIXUPS: 61168 12 f b b b6 9 b 5e 18 1f 34 9 b 22 17 fffff6e9 22 22 1a c
FIXUPS: 60af7 1c 22 32 22 1a 1a 1a c 31 19 22 1a c 25 19 52 f 43 39 5e
FIXUPS: 60e1e 31 31 21 31 31 fffff8ca 16 b 9 b 13 11 9 11 14 15 15 19 8
FIXUPS: 608b7 c 15 22 19 f f 10 f c 16 18 11 9 37 e 3c 21 45e87 11 28 11
FIXUPS: a693f 2a 2d 200 59 17 2a 13 fffb9985 b b b 89 16 35 b 31 11 16
FIXUPS: 6072f f f 16 8 18 f 1c 10 4595e 22 22 16 17 1e 17 1c 31 52 52 15d
FIXUPS: a644e 34 df 1f 42 1f 70 3f 28 15 15 1f 28 52 22 34 25 31 c 68 fffff3f1
FIXUPS: a5ca3 1e 51 54 10 28 15 18 15 54 25 22 18 17 25 17 1d 33 1b 18
FIXUPS: a5f80 1e d 53 3b 18 15 10 28 20 39 fffff243 45 11 30 13 45 11 38
FIXUPS: a5474 45 11 30 13 45 11 38 13 45 33 26 168 60 193 1a7 25 22 25
FIXUPS: a5bd1 18 17 59 1b ffffef12 9 14 9 3e 38 3f 11 3d d3 f dd 2e 14
FIXUPS: a4ede aa 92 4f 1c 1a 29 37 7a 7a 27 37 11 30 11 45 11 30 fffff43a
FIXUPS: a476b 8 56 15 1e b 43 8 20 22 20 7 7 7 d 31 aa 53 38 21 40 94 9
FIXUPS: a4b42 9 8 9 8 9 8 9 2aee 3e 35 2d 9 37 2a 198 11 89 11 89 11 89
FIXUPS: a7aed 93 13 ffffc9f2 12 b b 67 b 31 25 17 2e 8 31 25 2c 15 2903
FIXUPS: a706b 34 27 1f 25 14 18 14 54 47 37 25 2a 22 18 17 17 d1 49 b5
FIXUPS: a74b6 12 4c 33 51 2a 22 22 16 17 22 fffd0a45 4c 6 1e 6 fff8c842
FIXUPS: 495c a2329 2c b 2a f 30 f 3a 76 b 2b b 33 1f 16 14 4b 4f 3f 27
FIXUPS: a6fc0 18 14 48 1c fffd09d6 1e 10 48 22 3a 14 e b 5 18 11 12 3b
FIXUPS: 77bc8 10 16 8 c 27 e e1 8c 11c 11 d 4c 4f 22 8b 6 68 fffff2fc 49
FIXUPS: 773ea 9 6f b 19 70 53 19 70 6d 17 30 45 65 30 19 c 32 8 b b ee
FIXUPS: 778d9 1d 1c 43 1a 10 4e 10 fffff55d a 9 1b 16 24 3a 16 10 20 20
FIXUPS: 77077 46 c 1b 24 19 25 4d 3e 2a 3c 39 3c 18 24 8 16 c c 22 2a fffff757
FIXUPS: 76acd cb 39 81 39 27 33 9 32 f 18 c 51 9 1d a 1d c 18 9 1d 8 c
FIXUPS: 76e63 11 14 11 d 18 d 18 1b3a 3e 38 8e 15 9 d a 87 1e b 89 1e b
FIXUPS: 768b7 5 2a 1d 21 b b b 16 14 11 f 2b 99 5 2d 5 32 17da 40 3b 43
FIXUPS: 7836f a7 1e b 26 2d 2d 43 20 39 36 39 3e 98 96 15 9 d a 3c f3 1e
FIXUPS: 788c3 29 30 30 5f 39 fff9569f 2d 13 2d 13 2d 13 2d 13 2d 13 2d
FIXUPS: e203 2d 13 2d 13 2d 13 2d 13 2d 13 2d 13 8dee3 15 fffdbf3e 1e b
FIXUPS: 7826d 1e fff9534d 5d 59 59 59 59 59 5d 59 5d 5d 5d 5d 5d 5f 5f
FIXUPS: db90 59 5d 5f 59 59 5f 5d 5d 5f 62 5f 5f 41 13 2d ffffebca 5f 3d
FIXUPS: cd15 5d 70 59 25 3a 60 52 2c b 3f 5d 5d 72 59 59 69 2c b 3f 59
FIXUPS: d331 59 5d 5d 11 67 64 59 ffffee16 52 50 22 1d 46 4e 48 52 52 8c
FIXUPS: c6e0 22 21 3c 2c b 3f 25 3a 11 1b 3c 59 5f 5f 5f 5d 59 5f 59 5d
FIXUPS: bae7 5d 5d 5d 56 2c b 3f 70 60 60 60 55 2c b 3f 59 5f 5d 5f 5f
FIXUPS: c196 48 11 9 42 15 42 4e 11 9 46 ffffed5c 62 5c 25 3a 5c 59 62
FIXUPS: b32c 2a 3c 65 69 2c b 3f 59 5d 59 5d 59 59 5f 5f 5d 5d 5d 59 5d
FIXUPS: b9d8 5d 59 ffffedc0 5d 25 3c 27 3c 27 3c 25 3c 27 3c 5d 25 3a 59
FIXUPS: ac08 5d 56 2c b 3f 6c 59 69 5d 5d 5d 5d 52 2c b ffffee0f 5d 2d
FIXUPS: 9f31 29 3c 5d 5c 5f 59 59 5d 27 3c 11 1d 3c 5f 5d 5d 5d 5d 59 5d
FIXUPS: a570 59 59 59 5f 5d 5d 5d ffffec2a 5d 64 5f 5f 5d 27 3c 25 3a 5f
FIXUPS: 9777 5f 5d 5d 64 5d 59 5d 59 5d 59 59 5d 5d 5f 5f 5d 5f 52 2c b
FIXUPS: 8bc2 b 3c 56 5a 27 39 11 1d 39 56 5a 5d 27 3c 27 3c 25 3c 5d 23
FIXUPS: 9070 25 3c 5d 59 59 5d 64 5f 5d 5f ffffede7 5c 5a 5c 56 5a 56 5a
FIXUPS: 8471 5a 6d 6d 56 25 37 5d 5d 6f 56 5c 52 2c b 3c 22 5f 5c 5c 5a
FIXUPS: 8ae4 5a 58 ffffeea3 35 14 7 d 20 19 1f 18 1c 1c 24 3c 36 b 3c 57
FIXUPS: 7c9e b 3c 61 61 61 61 61 5a 5a 5a 5a 5a 61 5a fffff46c 21 18 1a
FIXUPS: 7625 15 2b 28 23 2b 47 3d 28 10 37 10 45 34 12 17 21 1f 25 39 22
FIXUPS: 7951 17 15 5d 22 11 17 fffff705 29 43 1e 49 c 19 8 1b 1f 1c 78
FIXUPS: 7315 b 47 1e b 37 36 b 48 1e b 34 1f 25 21 d 14 21 1e 9 fffff54b
FIXUPS: 6af3 10 3c 7b 56 1f 1c 78 1e b 1f 1f 1c 78 1e b 29 43 1e 3d 1f
FIXUPS: 6ee9 78 1e b 3e 85 1f 1c 78 1e fffff326 45 48 6d 8d 93 70 c 1b
FIXUPS: 6717 a 8 3a 46 15 1b 17 29 1f 1c 78 1e b 3e 5b 1f 1c 78 1e b 3e
FIXUPS: 6ab9 fffff3d1 1e 4b c 1b 22 a a 8 3a 48 15 1b 17 59 1f 1c 78 1e
FIXUPS: 6156 3e 83 1e 1e 45 c 27 9 b 41 8a 52 fffff2e5 85 70 43 1e 6d 1f
FIXUPS: 58df 78 1e b 3e 8e 3c 46 3c 81 a9 16 11 24 37 c 27 9 b 41 16 6b
FIXUPS: 5dd5 3f 33 fffff259 b 3e 18 59 14 1c 76 6f 6f 1b 1c 58 1d 1f 1f
FIXUPS: 53e4 78 1e b 3e 25 a3 25 2f 14 24 29 27 9 b 41 fffff5b4 b 3a c
FIXUPS: 4d0b b c 8 13 8 f 10 19 10 9 11 c c 19 b 43 1e 28 31 33 2e 33 8
FIXUPS: 4fcf 1f 1c 78 93af 40 1c 2d b 8de62 5 2a 1d 5f b fff685c8 1e b
FIXUPS: 4a09 11 14 48 66 27 4e 10 14 2b 42 17 c f 17 d 13 c 75788 8 12
FIXUPS: 7a404 29 19 18 65 26 4f 15 3b 4f 15 bc 5d 19 18 65 26 4f 15 15
FIXUPS: 7a8ab 18 55 26 19 59 13 fff93a2d 25 6bc73 14 f 16 19 2c 1e 19 2a
FIXUPS: 7a172 16 2c 14 14 39 2c f 16 15 13 16 34 2c c f 16 13 19 24 1b
FIXUPS: 7a3b2 b fffff998 15 4e b 23 a b d 19 9 20 8 d a 9 32 b 18 b 15
FIXUPS: 79f19 13 11 10 10 55 14 f 39 16 2c 2c fffff7ac 18 16 9 3a 85 9
FIXUPS: 79932 24 12 18 b1 6e 67 51 15 1e 15 1e 15 23 15 1d 72 8 17 3e b
FIXUPS: 79d17 f 9 f fffff63a b 17 d2 18 11 1a a 9 82 d b 24 19 46 12 26
FIXUPS: 79623 19 17 54 13 17 23 47 64 c 9 17 18 27 7 fffff4e4 12 11 16
FIXUPS: 78d45 14 1b 14 17 22 2b 9 b 78 b 70 6e 4b 79 18 4a 15 3c 87 50
FIXUPS: 791c7 4b 15 3c bb 19 15 fff95610 89 43 2d 1e b 44 65 66 66 66 66
FIXUPS: ed25 66 41 5 2a 1d 5a b 28 1c 2f 31 1c 2d b 40 2c b 24 13 d826
FIXUPS: 1c858 15 9 11 c 19 b 24 5e 14 7 14 7 14 7 14 7 d ffff1b93 b 1e
FIXUPS: e58e 98 5c 5a 5a 5c 66 e 84 6b dbf5 11 15 21 14 44 17 13 8 14 1b
FIXUPS: 1c5f5 13 b 13 b 13 b 9 54 23 9 9 9 9 b 48 22 91 b 13 c 21875 7
FIXUPS: 3e0b3 7 14 7 14 7 d 2e 14 44 1b 48 4e 38 1b 38 1b 36 13 fffde0a0
FIXUPS: 1c3ce b b f 17 2a 17 23 28 43 21605 8b d f 26 15 24 14 3c 6b 17
FIXUPS: 3dcd2 d 11 17 d 14 12 17 25 17 12 20 43 104 44 4c 80 22 d 2b 14
FIXUPS: 3d669 10 7 13 c 8 1b 8 35 7 67 20 1e 5d 8 9 49 d d 24 19 1b 2d
FIXUPS: 3d913 17 11 66 23 2c 3f 57 17 fffff68c f 2d 17 11 45 6b 8 1c 12
FIXUPS: 3d285 28 1b 9 b 2c 66 31 17 19 59 b 3a 20 3f b 39 25 22 61 25 22
FIXUPS: 3cbcf 52 17 29 3b 3a 31 2c c 31 31 18 20 31 57 1d c 37 4c 26 f
FIXUPS: 3cf4a 23 1f 1c 63 1b 46 16 52 10 8 26c10 6 8 8 19 b fffd89e5 b
FIXUPS: 3c7bb 15 1a 71 47 16 30 4c 28 1b 3b 28 58 3a 2c 19 1f b 5c 12 b
FIXUPS: 3cb72 b 3b 26d54 3c 2d 3c 2d 3c 43 1d 27 19 f 6 8 8 50 b 41 15
FIXUPS: 63b9f 17 e 30 48 19 f 6 8 8 19 b 36 19 fffff6a3 2e 3e 37 22 15
FIXUPS: 63477 23 a 21 20 d 2e 3e 64 64 6c 4c 46 24 40 22 11 6 b 8 1c b
FIXUPS: 63830 46 2d 3c fffff4c5 56 26 3c 25 3c 25 3c 25 3c 25 24 2d 15
FIXUPS: 63017 a 21 4e 36 44 29 33 82 4e 54 53 21 a d 2a 24 20 d4d 8 1c
FIXUPS: 640ff 33 4f ffffe6e3 19 44 1f 1c 18 f e 29 3f 59 8 44 1e 8 28 2a
FIXUPS: 62ae6 15 8 24 30 1f 26 86 26 1aae0 7 10 e 7 7 1c 7 7 1c 7 7 21
FIXUPS: 7d7e3 2d 13 fffe6548 15 2c 16 8 55 2b f9 2f 2f 51 48 13 61 11 6
FIXUPS: 7d2c7 f 8 24 1f 25 8 9 8 2b 11 1c f 63 15 2a 8 54 d6 8 16 1d 24
FIXUPS: 7d62a 1d d 10 2a 2b 25 2b 19 fffff77f f 1f 19 1c 13 17 2b 19 16
FIXUPS: 7cf9f 15 1c 15 2b 20 11 2b 3a 40 44 24 53 11 16 9 10 25 14 69 2e
FIXUPS: 7d2bb fffff7e5 4f 3e 22 c 35 15 1e 1c 10 2f 18 d 16 8 36 16 8 49
FIXUPS: 7cd2d 15 46 19 16 17 15 1c 15 2b 19 16 17 fffff768 13 9 24 33 1a
FIXUPS: 7c6a9 1c e 1f 1c 1e 7 13 b 1f 12 44 30 4a 19 27 14 24 12 7 3c bb
FIXUPS: 7ca20 1c 40 f fffff613 19 31 18 10 28 22 2e 76 1e 17 25 b 30 5d
FIXUPS: 7c326 c 9 b 2d c 6f 1e 30 4c 28 1e 3b 28 58 30 29 fffff7bb 35 12
FIXUPS: 7bdf3 19 1f c 9 b 38 12 f 26 18 17 19 1f c 9 b 3a 12 f 26 18 10
FIXUPS: 7c019 c 9 b 36 18 fffff5e3 17 af b 2a 15 60 23 142 21 50 7d 17
FIXUPS: 7ba73 31 1d d 10 2a 1c 25 28 27 2b 1b 6 7 19 7 7 20 19 fffff637
FIXUPS: 7b2af 10 9 8 55 9 9 b 3f 11 17 1a 7 4c 11 17 11 23 1b 3c 11 17
FIXUPS: 7b50f 7 2b 3c 37 29 29 2c 2e fffff6b1 39 14 19 35 15 19 22 9 b
FIXUPS: 7ae3b 2c 4b 14 17 12 95 47 9 b 1f 6a 16 ab 2d e 19 10 85 18 2b
FIXUPS: 7b26a fffa1c4b a 17 10 29 8 1e 5dae3 14 1a 16 10 12 14 3a 34 6a
FIXUPS: 7ab7f 23 1e 22 9 b 3a 15 18 14 19 22 9 b 33 fffa3908 d 28 13 72
FIXUPS: 1e6be b ffffe30e 35 35 35 35 35 7e 20 14 18 23 2b 71 19 16 14 16
FIXUPS: 1ccfd 14 40 14 69 14 5b 14 1542 14 7 14 7 14 7 17 7 17 7 17 7 17
FIXUPS: 1e45c 17 7 17 7 18 7 18 7 d 3a 7 2f d 33 7 2f 20 fffff8b2 c 27
FIXUPS: 1ded7 b 41 28 1e 7 3c 28 1c 7 3c 28 1c 7 2b 2d 2b 2b a 7 29 29
FIXUPS: 1e1b8 2f 1d a6 19 a1 1d fffff720 3b 24 d 1b 35 53 d 12 34 12 21
FIXUPS: 1dc58 d 3a 1a 31 e 2f 9 9 9 9 13 b ac 28 11 14 13 7 10 fffff7a0
FIXUPS: 1d637 7a 11 14 13 7 10 f a 15 11 1d c 49 3c 2d 33 23 9 b 45 11
FIXUPS: 1d8f7 21 27 9 b a4 3d 14 3e fffff7ea 30 58 50 8a 11 14 13 7 10
FIXUPS: 1d430 8 15 13 7 10 f c 2d 1e 9 b 7a 11 14 13 7 10 f c 30 1e 2031
FIXUPS: 1f674 12 20 12 d fb 13 5f b 23 13 5f b ffffd69c 15 1d c7 31 51
FIXUPS: 1d104 e 2f 28 9 b 2d 1c 25 21 b 3d 20ba 9 3a 1e b 4e 9 3b 1e b
FIXUPS: 1f483 9 3b 1e b 59 17 7 1f e 7 17 7 18 7 18 7 18 7 18 7 18 fffff64a
FIXUPS: 1eca4 6a b 5f b5 2c 32 92 b 3c 35 b 30 14 1c 5b 2a 12 8 5 51 1f
FIXUPS: 1f140 28 28 11 21 40 19 3b 18 fffff6b7 37 1e b 4b 9 38 1e b 4b
FIXUPS: 1ea8e 38 1e b 2d 13 34 1f 27 14 7 14 7 1a 6 14 6 14 6 20 12 20
FIXUPS: 1fda2 b 23 13 5f b fffef223 25 1c 40 1c 2d b 8d432 5 2a 1d 5f b
FIXUPS: 1e709 20 2d 48 b 2d 19 22 25 25 11 1e 92 10c8 20 1c 24 52 b 2d
FIXUPS: 1fae7 22 11 1e 3d 28 19 1d 1c 21 24 14 7 14 7 14 7 d 33 7 22 12
FIXUPS: 1fd0d 23 13 979 43 b 28 14 7 14 7 14 7 14 7 17 7 17 7 17 7 18 7
FIXUPS: 2082b 7 20 12 d 2f 13 5f b ffffeff8 58 b 62a 38 b 3e 20 15 18 40
FIXUPS: 200c8 4d 51 b 2d 19 25 11 1e 21 50 29 68 1a a 20f b 69 1c 33 3a
FIXUPS: 2064b 39 1c 4bb 25 56 16 1d 3b 4a 22 d 14 30 14 7 14 7 14 7 14
FIXUPS: 20d6d 20 12 d 24 13 5f b fffff03c 20 15 18 46 4d fffef366 8e6a1
FIXUPS: 9d983 fff719c5 b 8e65e 9 58 b fff71963 25 1c 40 1c 2d b 40 2c b
FIXUPS: f4f0 13 11454 20 37 53 b 34 57 19 25 64 7 7ca66 e 5a b 1e 2a 124
FIXUPS: 9d790 19 5 2a 1d 34 9 27 9 27 9 27 9 27 9 50 b fff71848 1c 40 1c
FIXUPS: f23a b 40 3f 8dc4b 32 2c 32 32 3a 32 32 32 32 32 42 3a 2e 52 3e
FIXUPS: 9d275 36 42 32 42 3a 46 3e 3a 46 3a 34 5 2a 1d 1d fffff285 36 3a
FIXUPS: 9c8b1 3a 3a 3e 36 3a 2c 3e 36 32 46 42 32 36 3e 32 36 3a 32 32
FIXUPS: 9cd13 4a 32 34 2e 42 3a 3e 36 fffa1a3e 12 36 29 48 35 f f 48 1d5
FIXUPS: 3ec7b 20 17 21 96 20 17 22 59 17 c 18 6 1c b 34 5d7fa 2c 3e 42
FIXUPS: 9c78f 3a 1380 1d 2f 1c 2d b f4 1c 2d b fffa064c 10 5d 10 7b c 53
FIXUPS: 3e57b 71 9 69 31 dd f f 14 8c 2c 78 12 1b 1b cf9f 1a 7 11 7 11
FIXUPS: 4b906 11 7 11 7 11 7 d 2a 28 23 13 2d 13 2d 13 2d 13 51fc4 5 21
FIXUPS: 9daa7 1d 45 5 21 fffadb9a 7 11 7 11 7 11 7 11 7 13 7 13 7 13 7
FIXUPS: 4b791 7 13 7 13 7 13 7 13 7 11 7 d 24 42 13 fffffa9b 1c b 3a 27
FIXUPS: 4b3ce 1c b 3a 23 16 d 1c b 36 2f 20 34 42 13 17 1a 7 11 7 11 7
FIXUPS: 4b61f 24 42 13 17 fffff893 2b 40 21 1f 25 37 1f 3f 3a 2b d 1c b
FIXUPS: 4b17a 33 d 1c b 29 42 13 17 1a 7 11 7 11 7 d 35 23 fffff841 35
FIXUPS: 4abc5 24 32 d 1c b 5e 2d 25 1e b 26 14 7 d 20 3e 23 18 2d 21 d
FIXUPS: 4ae74 28 28 9 14 e 1f 1f fffff8f7 2c b 22 31 2b 14 7 d 35 3e 11
FIXUPS: 4a9a1 d 1c b 5e 11 2c b 22 24 2b 14 7 14 7 14 7 f e 6 fffff7c5
FIXUPS: 4a375 183 17 15 c 9 d 1e d 3c 17 15 c 9 d 1e d 37 31 2b 14 7 d
FIXUPS: 4a716 3e 11 1c d 1c b 5e fffff00c 19 37 88 84 8f 87 87 53 28 37
FIXUPS: 49c0a 87 3f 28 37 40 3b 28 37 40 87 3b 28 37 40 94 4b 27 2a 42
FIXUPS: 4a185 ffffecdf 53 4e 19 37 4b 46 19 37 4b 46 19 37 4b 46 19 37
FIXUPS: 4924b 4e 19 37 4e 23 26 48 9f b5 9f b5 8f 8f 4b ffffee3e 26 1a
FIXUPS: 4868b 23 26 1a 34 23 26 48 15 14 34 87 87 87 87 87 87 87 4b 46
FIXUPS: 48c6b 37 4b 46 19 37 4b 46 19 fffff19b 21 1c 25 49 1f 4a 57 25
FIXUPS: 48163 42 1f 18 12 51 1f 18 12 36 1c 34 89 34 a2 34 2f 59 34 23
FIXUPS: 485a6 1a 34 fffff6a7 7 7 7 35 4a b 23 22 14 7 14 7 14 7 d 1c 18
FIXUPS: 47e3e 21 d a 28 28 9 14 e 1f 1c 15 28 3d 36202 33 1b 1d 1d 23 17
FIXUPS: 7e280 2d 25 17 26 1c 8a 2a 20c fff90f47 3868f 7 7 7 7 31 7 7 7
FIXUPS: 47c2a 4e 7 7 7 7 361cc c 9 8 9 12 22 12 28 1b 10 9 11 c 26 1b 10
FIXUPS: 7df9f 11 16 a 3d 9 9 9 9 b 2f 1c 62 1c 38 fffffa51 15 c 25 14 15
FIXUPS: 7dc09 1c 7f b 38 17 20 17 11 f c 10 c 14 c 9 8 9 10 12 16 1b c
FIXUPS: 7de34 c c fffc1207 2c 40 a 25 78 62 1f 6 3e65a 5 2a 1d 23 14 1b
FIXUPS: 7d915 2e 19 13 d 38 64 14 1b 30 2e 19 13 d 38 64 fffc1cbb fffff9e7
FIXUPS: 3f234 18 21 d 11 21 1e 9 20 1c 15 28 28 23 28 2c 2e 2b 14 7 d 31
FIXUPS: 3f4be 1c 25 37 1f 3f 5e922 15 41e 55 34 1b 19 83 4f 34 1f 38 30
FIXUPS: 9df17 5 1a 1a 1d 15d 12 3f 22 e007 fff93514 33 4d a 24 5c 36 10
FIXUPS: 3f7c2 8 3a c535 1b b7 73 31 a8 6b 8 4b 29 28 23 1c 8 3c1f1 22 1cf
FIXUPS: 884c0 30 41 19 21 2f 1b 3e 19 27 22 35 cb 15aa5 98 fffa1f60 80
FIXUPS: 402ff 7b 7b 87 a0 32 80 85 7b 85 29 4d 83 34 34 77 69 39 4a 61
FIXUPS: 40ae2 19 5b af88 1f 1e 1d 118 66 7b 52a64 23 14 7 14 7 1a d 20
FIXUPS: 3f871 92 82 8a 2d 58 1f 83 8f 92 9d 90 88 85 19 98 1b 79 7a 7a
FIXUPS: 400f8 66 2e 197b 2d 21 1d 1f 6b 1b 62 14 17 3f 2b 2f 17 2a 1c 2b
FIXUPS: 41e3e 6e 34 13 fffcd65e 8f033 18 23 8b b9 37 1a 19 7 7 fffa2a9c
FIXUPS: 4125a 24 25 44 24 25 41 22 2b 5b 22 2d 25 76 139 34 34 ea 20 7
FIXUPS: 418bb 26 1e 26 df 27 21 3c 7 7 f caab 13 6f 9 b ffff25ff 15 1f
FIXUPS: 40c7a b 75 31 b 29 1c e 105 a9 21 3f 3e 2a 34 59 30 33 2e 37 21
FIXUPS: 41197 3d 21 cee1 31 2b 10 17 39 17 46 80 41 78 14 6 14 6 14 7 14
FIXUPS: 4e392 8 43 7 12 20 3d 2d 13 42 12 2c 9 b fffff688 9 b 49 8f 20
FIXUPS: 4dcdc 38 17 5c 17 11 15 82 9 9 b 3b 13 18 8 16 aa 1c 1a 17 18 1c
FIXUPS: 4e05a 1e 1a c fffff585 3a f b 10 6 8 c 6 19 b 36 1c 35 68 b 2a
FIXUPS: 4d806 90 19 6e 11 a9 20 34 38 17 6d 17 11 15 82 fffff654 8 2a 2f
FIXUPS: 4d269 6 19 b 50 17 b 1a 13 17 31 78 25 1a 1e c 1a 40 64 49 2b 1b
FIXUPS: 4d5bf 10 b 25 b 13 fffff70c b 57 12 17 8 15 17 1d 1f c 6 a 8 c
FIXUPS: 4ce63 f 6 7f 62 9 b 7a 24 d 26 6d 19 14 17 d 1c fffff899 24 3d
FIXUPS: 4ca2e 26 4c f 10 1c 18 12 17 d 19 8 25 12 1b 15 2c 7 2b c 2d 6
FIXUPS: 4cc60 17 18 b 45 38 9 fffff6a5 14 3d 47 89 24 11 10 60 24 11 10
FIXUPS: 4c5fd 55 24 11 10 2f 48 32 3d 8 20 70 15 e 17 2c 18 2f 22 29 2c26
FIXUPS: 4f540 20 3d 23 13 ffffcb42 12 f 11 40 14 28 c c 9 b 54 17 b b 14
FIXUPS: 4c2c8 45 c c 9 b 2a 2f 13 13 2cb9 37 12 1b 20 17 17 22 3a 2d 4e
FIXUPS: 4f220 14 20 43 35 bb 68 d 17 3e 14 7 14 6 23 7 12 8 15 3b 7 fffff5a8
FIXUPS: 4eae9 14 76 131 9 b 2b a 2b 1c 3d 1e 59 48 7 6 27 28 12 1b 2d 51
FIXUPS: 4ef42 39 12 1b 20 17 17 4e 1c cee 20 23 1f 13 ffffe862 12 30 20
FIXUPS: 4e69b 20 14 20 14 d7 17 2f 15 23 17 1f 9 b 28 1a 19 2e 62 62 70
FIXUPS: 4ea95 20 d24 3c 19 c 8b 19 16 14 19 29 28 22 29 51 81 2c 48 78
FIXUPS: 4fbbb 4a b 3a 28 15 17 11 25 b 28 21 7 12 6e4 17 11 25 b 28 14
FIXUPS: 504c0 14 7 17 7 10 e 7 7 3b 7 12 20 3d 2a 13 fffff012 36 b 5e 21
FIXUPS: 4f6f0 75 4f 19 74a 55 4d 13 b 61 9 b 25 25 28 c 11 14 18 28 c 11
FIXUPS: 50158 54 11 17 48 42 52 2b 2d 6d b 3a 28 31 2f4 18 6 3e 18 17 25
FIXUPS: 50885 b 3d 8 2b 17 33 29 4e 1c 5b7bf 22 21 57 9 b fffa3bcb 14 18
FIXUPS: 4fe55 3f 1f 9 b 25 1579c 17 28 b 37 42 13 26 b 22 b 1c 16 27 8
FIXUPS: 65832 b 1c 14 7 12 d fffa9d19 3f b 65 b 5625a 13 fffead79 45 42
FIXUPS: 6545a 35 c c c c c c c c c c c 9 9 9 9 9 9 9 9 9 9 b 3d 17 11 10
FIXUPS: 655fd 18 f 4e fffffa84 1f a 5f 13 d 13 4f d 11 13 d 1f a 5f 13
FIXUPS: 652e6 13 4f d 11 13 d e 18 1c 1b 26 8 5 29 13 fffff94e d 3c 41
FIXUPS: 64e37 11 10 d e 12 b 14 25 b 22 27 12 5 1c 18 f 5 57 a 59 13 d
FIXUPS: 65069 4f d 11 13 fffff9e1 29 12 1b 1b c 8 1f 8 17 13 a c a 28 9
FIXUPS: 64bfc 41 f 17 a 31 10 d 21 a 31 10 d 21 a 31 fffffa0b 17 1d f 21
FIXUPS: 6481d 16 32 3a 1a 11 17 18 d 10 d 11 11 13 11 2c 4f c c c c b 42
FIXUPS: 64a6e 17 11 f fffff901 13 f 8 d b 25 1c 11 28 1c 10 17 11 38 1c
FIXUPS: 64579 11 17 23 23 25 23 1c 12 17 51 1c 12 17 6c 12 3aac6 9 9 9
FIXUPS: 9f272 9 9 9 b 5b 93 5a 13 fffc4e04 1c 11 b 1c 12 17 11 28 10 9
FIXUPS: 642dd 2b 19 1c d 19 1c 10 3ab66 f d 9 6 63 f d 9 6 59 f d 9 6 65
FIXUPS: 9f0a9 1b 20 9 19 12 15 12 9 6 5e f 15 6 66 9 fffff93e 2d a 15 13
FIXUPS: 9ebeb 6 5e f d 9 6 6d 15 f 12 6 63 f 12 6 59 f 12 6 59 d d 12 12
FIXUPS: 9eedb d fffb2c9b 2d 13 6f 9 b 4cd1f 14 2c 9 b 3b 14 11 f d 6 b
FIXUPS: 9ea71 11 10 10 10 16 10 6 26 22 f 11 c c fffb2c76 8 50 8 24 21
FIXUPS: 51880 12 20 63 12 1c 28 9 b 39 14 b 1f 1c 42 27 29 22 14 6 14 7
FIXUPS: 51b1b b 17 33 fffff587 25 17 11 6b f2 10 21 15 52 11 2c 89 23 15
FIXUPS: 51483 1c 17 63 14 7a 3d 57 12 79 2b 2b 13 2e 19 d 17 fffff32c 5c
FIXUPS: 50b40 b 33 1b 1f 75 2c 37 19 1d 25 15 15 8 66 17 68 30 30 87 46
FIXUPS: 50f3a 5f 13 2b 55 3f 11 10 44 57724 c c c c 9 9 b 3a 12 a 22 3c
FIXUPS: a8908 d 6d c b c1 b fff66c50 21 a 29 b 67 b 9930a 13 fff66d0d 412d5
FIXUPS: 50abb 57a00 11 b 11 b 11 5a 17 6a 28 a b d c 8 56 2d 13 2b d 7
FIXUPS: a8719 27 8 52 c c 9 c 9 c c fffffa9d 18 9 6 12 16 30 7 7 12 f f
FIXUPS: a8353 f b 11 11 14 b 11 d b f 10 7 27 8 e 4f b b 11 fffffabf c
FIXUPS: a7f87 2e 57 11 24 14 14 14 11 e c e f 11 62 d 41 f 15 c 17 7 b
FIXUPS: a81f5 10 18 e c 21 d fffc3a18 6 d 20 13 3befc 2f 5e 9 a 8 20 15
FIXUPS: a7ccb 24 e 5a 30 2c 17 14 19 14 1a 2b 2a 28 17 49 20 e 12 fffc3ac2
FIXUPS: 6ba29 25 2a 2a 2b 23 7 14 7 14 7 14 7 14 7 14 7 14 7 14 7 14 7
FIXUPS: 6bbf6 7 16 6 1c 6 16 6 fffff909 10 10 17 24 1b 2c 18 36 29 26 25
FIXUPS: 6b71e 2d 30 31 ba 1b 10 16 e 14 b 2b f 16 8 12 21 32 1c 25 fffff6cb
FIXUPS: 6b0d5 25 3c 40 10 10 17 24 42 18 1a 40 10 10 17 24 42 18 37 38
FIXUPS: 6b3ce 3e 40 10 10 17 24 1b 2c 18 1a fffff6b5 8e 41 22 15 28 27
FIXUPS: 6ad31 2c 24 7 3b 49 25 11 54 7 12 b 18 21 36 49 25 11 54 7 12 b
FIXUPS: 6b038 21 30 ffffee1b f f f 20 8 6a 6d 68 9 b 14d b 5e 1f e8 49
FIXUPS: 6a371 36 2d 32 24 1d 40 f8 98 98 5d d2 18 23e ab ffffed26 69 3c
FIXUPS: 69923 45 2e 61 37 25 62 1e 23 1e 16 1c 8 8 9 c 7 c 10 11 2b 8 8
FIXUPS: 69be3 8f 9 9f 9 ed fffff2f7 7 44 2f 11 8 c 20 8 2a 1a 12 1d 70
FIXUPS: 692cd 14 34 12 c 2b 69 1c 70 7d 1c 73 ce 34 5f 4d 22 22 fffff5ca
FIXUPS: 68d2c 8 38 9 16 27 2b d1 e 17 82 c 31 10 6c 2b 1c 8 9 e 13 16 8
FIXUPS: 690bd 8 9 8 9 8 9 8 fffff207 63 46 9f 12 242 2b 8 c 1a 8 b 82 74
FIXUPS: 689b1 12 62 8 c 1a 8 5d 7 5d 7 1a 6a 85 a5 8 17 11 fffff019 5e
FIXUPS: 67d80 9 28 23 6b 13d 17 10 15 4c 1b 8 16 1c 8 11 94 1c 17 c 12
FIXUPS: 6815e 50 6c 46 1c 17 c 12 7 fffff3ca 25 2a 40 51 4e 3e 49 6c 47
FIXUPS: 678f2 17 25 27 82 71 1c 1a 9 2e 1e 5e 8 17 25 27 82 71 1c 1a 9
FIXUPS: 67cfc fffff48e 2f 9 c 14 9 c 26 9 c 14 46 9 2b 8 17 25 2a 43 51
FIXUPS: 6740d 3e 49 72 4d 24 27 26 39 2b 3b 8 fffff5f9 5d 28 22 22 9d 83
FIXUPS: 66e80 11 1e 34 33 11 1e 2c 32 d d 12 43 10 10 17 6d 9 18 43 1d
FIXUPS: 67140 c 14 9 fffff55e f 14 33 2a 17 24 14 30 1c 10 6b 19 27 22
FIXUPS: 668e6 44 10 9 1c 37 13 1f 80 33 6b 28 63 28 22 22 5f fffff672 17
FIXUPS: 6630f 29 17 16 11 4b 28 31 22 16 17 16 17 19 9 1a 12 48 36 21 17
FIXUPS: 665af 1f 12 12 17 18 32 17 25 fffff585 1f 1f 29 29 29 41 3b 35
FIXUPS: 65d96 14 a4 2c 2c 2c 22 22 32 47 13 60 2c 22 22 35 32 2d 1f 3e
FIXUPS: 6618b 84 8d fffed6fd 12 12 12 12 12 12 12 12 4e 20 22 18 6f 13
FIXUPS: 65945 15 e e e 1c 78 97 1f b 5b 1b 21 b 30 29 1f fffed7f7 10 37
FIXUPS: 534a7 6c bc cc 34 23 25 45 2d 13 37 13 74 1c 1c 29 1a 6 1a 6 1a
FIXUPS: 5391b 1a 6 14 7 14 7 d fffff5a7 c 17 19 db d8 11 f 20 17 8 1a 10
FIXUPS: 531a9 20 20 1a 8 8 20 38 1c 2a 1a e 2a 1a 32 3d 17 8 c fffff720
FIXUPS: 52af7 23 45 8 16 8 9 c 2a 2c 22 d 20 c b 16 13 2d 3f 2e 22 13 13
FIXUPS: 52d6b 13 35 81 c 23 22 f fffff876 14 19 14 56 78 22 13 13 a 13
FIXUPS: 52898 2b 13 8 8 9 23 1a 14 9 21 14 9 34 11 8 9 26 50 23 23 fffff812
FIXUPS: 522cc 12 21 86 a2 19 d b 4a 14 29 13 16 e 2a b 4e 20 16 e 16 d
FIXUPS: 52663 d b 26 b 9 23 1e c fffff87a 7 20 c 8 14 17 14 23 10 31 23
FIXUPS: 520a2 19 e c 8 1a 11 8 9 c 25 a 50 22 2c 2b 1a 23 18 27 208f d
FIXUPS: 54355 2b 13 5f b ffffd8b8 12 b b b 19 29 b 5e b 2a 1c 12 f 34 3d
FIXUPS: 51e8f 29 21 40 8 14 13 7 14 1f28 16 11 f 41 14 30 a 17 b 2d 20
FIXUPS: 53fe0 2a 96 43 1c 1c 15 1a 29 39 14 2b 8 17 23 5 54 56 d 2b fffbb579
FIXUPS: f8ba b 8fc21 15 4c 5 2a 1d 5f b fffb45c8 49 b 3a 33 47 b 33 22
FIXUPS: 53d4d 14 23 1f 19 16 4b 31 18 c 8 8 2dc43 7 21 7 21 7 14 7 d a
FIXUPS: 81b72 7 14 7 14 6 14 6 14 7 14 7 d fff8dbc7 7245e 13 2d 13 fff8db6d
FIXUPS: f815 1c 40 71d72 41 16 10c 13 2b 7 76 36 4a 21 7 13 3b 13 23 b
FIXUPS: 81968 33 18 7 a 13 20 16 23 6 23 6 a 26 22 fffff762 24 11 d e d
FIXUPS: 8127b 37 f 9 9 9 9 b 4f 7 1e 13 12 25 42 b 45 19 28 11 13 7 46
FIXUPS: 81501 29 30 fffff9f3 a 13 7 25 9 13 28 9 21 9 13 29 43 a c 1c 27
FIXUPS: 810f6 1f 10 9 d e 28 24 15 e 9 9 d b fffffad6 2f a 12 25 9 13 22
FIXUPS: 80d91 a 12 f 1a 1a 9 7 13 9 13 2b a 12 f 1b 1a 9 1a 9 7 11 9 1b
FIXUPS: 80990 a 1c 9 13 22 3e a 2a d 23 1a 1c 1c 8 13 8 17 f 18 15 31 42
FIXUPS: 80bda 10 25 25 d 1c 25 22 9 fffff9e8 7 1c 2f 1c 2c 1c 11 7 1c 3c
FIXUPS: 807d7 11 18 2c 10 7 8 18 11 14 21 6 f 8 13 2b a 13 29 a 13 fffffaa5
FIXUPS: 80414 7 13 29 8 7 13 29 8 7 13 29 8 7 13 29 e 7 13 29 8 f 7 13
FIXUPS: 805e7 8 19 2b c 29 1c fffff9fa 1b 18 1a 34 b 2b 35 10 7 2a 2b 26
FIXUPS: 80227 8 24 2b a b 13 3c 2b 8 7 1e 2b 8 29 2b 8 7 13 fffff733 16
FIXUPS: 7fb62 17 72 17 97 1b 18 17 d7 2c 1b 2f 37 21 29 23 4d 13 19 25
FIXUPS: 7ff9b 19 14 18 19 d 18 27 11 18 fffff3ac 13 b 10 f 21 86 2e 13
FIXUPS: 7f558 14 1c 25 34 13 b 2c 2b 3c 18 29 3a 48 15 39 66 aa 18 115
FIXUPS: 7f9f8 47 95 fffff502 d 25 3b 5 13 13 24 34 13 e 17 19 e 17 24 2c
FIXUPS: 7f1a3 35 49 2b 5e 2b 13 41 14 18 2b 19 b 20 1b fffff900 c 11 16
FIXUPS: 7ed28 13 2b 25 26 1b 2a 1e 7 1c 1f 7 a 13 46 8 1c 11 1c 12 17 11
FIXUPS: 7ef54 15 13 f 2f 8 fffff95a 2f 21 2d 9 b 30 2d 19 48 16 36 2a a
FIXUPS: 7eb0d 10 7 15 7 24 15 28 3c 10 3b 1c 13 13 29 1c 11 10 2cb83 2d
FIXUPS: ab88b b b 2f 13 ffff3d51 1c 2d b fffdef7f 35 5 2a 1d 63 12 f 36
FIXUPS: 7e74e 9 b 7b c 9 b 3e 12 5e 9 b 2ccee 17 7 17 7 17 7 1c 6 1c 6
FIXUPS: ab658 1e 12 12 12 3a 1b 12 12 12 12 12 12 12 12 55 7 14 7 d 2b
FIXUPS: ab0c8 1c b 39 4c 17 11 3a 53 b 3d 3b b7 d 16 20 24 66 16 23 25
FIXUPS: ab4d7 49 14 7 14 7 17 7 14 7 17 fffff6f8 44 e 19 10 2f 1a f b 16
FIXUPS: aada6 7f a 5a f f 10 32 1d 17 1d 2f 51 42 19 d 17 11 22 a 18 27
FIXUPS: aa76d 15 10 22 1e 10 19 1a 1a 13 85 25 3b 2b 2b 27 5 19 14 32 f
FIXUPS: aaa26 4c 23 f f b5 4e 4a 34 1c 32 fffff6db c 1e 18 1d 18 3b 42
FIXUPS: aa4d0 46 8 38 1b 8 12 f f f 13 f 16 e 6e 8 22 9 b 40 3c 20 9 15
FIXUPS: a9f08 11 2b 20 28 40 11 13 b 1c 9 11 c 23 b 4b 34 8 1c 8 19 57
FIXUPS: aa1cd 58 11 19 1e 88 7 2c 10 19 fffff491 17 13 a e 7e 4d 27 2f
FIXUPS: a9960 7 61 85 35 42 b4 20 8 10 1e 19 10 d0 fb 39 68 1f 1c 14 1e
FIXUPS: a9eea 17 fffff30d 4f 26 20 8c 9 b 26 47 19 17 4c 10 1f 37 58 10
FIXUPS: a9516 73 12 12 26 d6 16 92 11 e 19 10 1e f b fffff546 11 1c 17
FIXUPS: a8d6f 33 1c 47 17 bb 2c 5b 1b 31 10 18 17 18 13 b 2d d 10 17 11
FIXUPS: a90f8 12 1b e e b9 9 fffd8df1 3c 13 5f b 23 13 5f b 1d596 15 58
FIXUPS: 9f765 93d3 1f 36 17 11 15 11 e 52 19 16 16 14 1f e 16 d 14 11 ffffb80c
FIXUPS: a4541 b ffffb26b 5 2a 1d 5f b fffe2477 24 43 1b 4b c 1b 22 a a
FIXUPS: 81e16 52 2b c 1b 22 a 8 3d 2c b 5b 2c 2217e 13 b 23 7 35 19 1c
FIXUPS: a4222 b 2d a2 18 17 2e 23 46 1f 38 12 17 28 32 24 13 fff6b43d 25
FIXUPS: f951 40 1c 2d b 942c0 b 48 19 11 11 48 2d 3f 2a 21 47 38 77 36
FIXUPS: a3f84 11 22 6 18 1e 14 f 40 2f 13 35 20 7 e 11 28 fff9f7fa 7 d
FIXUPS: 9f8a5 12 23 1c b 3a 12 25 1c b e7 13 c819 3a b fff6371f 20 30 25
FIXUPS: faa1 40 1c 2d b 40 2c b 24 13 33b97 7 14 7 14 7 14 7 5 1d 7 d 14
FIXUPS: 43823 14 7 14 7 14 7 14 7 15 14 6 d 14 7 14 7 1a 6 fffff7ff 6 27
FIXUPS: 43158 94 29 23 28 62 15 15 1a 19 14 1f f 26 1c 4b 3f 1b5 29 37
FIXUPS: 4366e 12 27 67 22 14 7 14 7 fffff38e 52 36 7a 5 18 3e 18 17 3b
FIXUPS: 42cdc 15 11 e 48 8 31 15 22 3b 15 7 18 17 79 30 37 34 89 18 109
FIXUPS: 43111 fffff3c7 1b 18 26 29 5 18 49 27 12 1f 2f 15 11 1b f e 8 7
FIXUPS: 426c8 8d 34 16 8 54 7c 18 2c 42 39 b6 2b fffff6de 2b 12 c 40 29
FIXUPS: 421f1 28 23 16 b 23 b 1f 1b 32 1a 1d 22 17 29 17 1b 18 3a 16 17
FIXUPS: 42452 12 13 21 29 5e590 1d 22 13 b8a6 1e b 1c ffff4742 13 2d 13
FIXUPS: a0b82 b fff6f0b6 32309 21 22 22 22 1a 10 16 1a 1d 5 19 21 1a 1b
FIXUPS: 420d2 18 5e2dd 37 17 1d 17 1d 17 1d 17 23 17 1d 17 1d 17 1d 17
FIXUPS: a05c1 103 ae 1f 146 b 2d 3c 19 1b 15 15 1c 5d 5 fffff46e 31 4d
FIXUPS: 9ff2a e f7 12 f f f 54 c c c 9 b 95 c c c 9 b 66 14 f 11 c 31 11
FIXUPS: a02bb a8 2d fffa3d7e 7 14 7 14 7 14 7 14 7 15 14 6 d d 5b90b 2c
FIXUPS: 9fb0c 38 59 8 14 17 15 26 16 17 15 11c b e8 1f fffa4061 7 17 7
FIXUPS: 43f18 7 17 7 17 7 17 7 17 7 17 7 17 7 1d e 30 7 1a e 6 47 7 17
FIXUPS: 440cf 17 7 d fffff8c7 a 8 1b 16 1e 49 69 2e 4a 66 17 37 17 78 6b
FIXUPS: 43d2c 61 37 5 1b e 1e e 37 22 14 7 14 7 14 7 5cd2f 39 5 12 28 1b
FIXUPS: a0c98 16 63 17 22 29 2c 17 23 2e 1a 1c 57 17 19 35 2e 37 2e 2d
FIXUPS: a0fd0 14 17 23 52 fffa293a 2889f 19 14 17 2c 58 92 b6 1f 25 17
FIXUPS: 6c4d1 26 7 17 1b 7 10 15 7 3fe77 a 24 1c 16 29 5 29 21 1a ffff46ef
FIXUPS: a0bdd fffcb138 1a 40 22 10 7a 1d 35 14 59 a b 28 8 13 35 a1 8 1d
FIXUPS: 6c05f 1d 4f 13 16 12 1e 1b 2c b 2c 8 17 352b7 25 11 24 12 5c 26
FIXUPS: a15a9 c c c c b 4c 4f 17 77 2b b 54 6d 5b fffb2c28 1815d 1c 4b
FIXUPS: 6c656 7f fffe7d5c 1a 178b0 d b7f 4a 40 88 33 56 25 66 8b 1d 18
FIXUPS: a10ef 2e 49 14 32 3f 28 13 7 88 25 11 12 43 1f 19 26 1f 19 6a 19
FIXUPS: a1ebd 3f 6a 18 1c 16 b 4b 22 22 22 3e 5c 14 56 2f 37 1f f 2b 21
FIXUPS: a2261 1c 31 15 46 b fffca41d 22 25 78 6c 35b4a 2b fffff4e3 1f 25
FIXUPS: a1908 64 3d 1e 14 1b 34 25 f2 18 72 1f 25 68 22 3d 53 2c 22 2b
FIXUPS: a1dbb 17 47 1c 22 2d 15 a246 c 17 ffff6368 b 49 3e b 1f 19 2a 131
FIXUPS: a274a 21 15 5 2a 1d 15 5 2a 1d 55 b 55 b fffca304 52 356fa 12 3e
FIXUPS: a2397 971a b 34 b 70 b be 12 42 19 25 12 25 25 46 c c c c b 26
FIXUPS: abe54 18 51 18 dc 19 1c b 55 47 3d fff99216 13 46 c 10 13 27c37
FIXUPS: 6cfb2 1e d a0 13 d 14 11 20 fffffbcb 16 f 26 e0 75 89 e 25 34 3e9e2
FIXUPS: ab9f5 2f 12 32 12 fff99392 1f 19 10 9 1a 4a 14 17 14 17 14 d b
FIXUPS: 44f74 22 d 1b 26 10 b 37 a4 25 2e 21 20 25 2e 61 2d 25 fffff6ff
FIXUPS: 44989 16 73 46 3a 12 57 18 11 e a1 6f 11 b 1f 28 35 c c c b 38
FIXUPS: 44d55 17 14 17 14 d b 12 9 fffff674 1f 14 14 19 49 6 43 2a 37 17
FIXUPS: 445ea 24 1a 40 20 1a 35 14 25 27 1d 1c 17 24 8e 45 36 d 57 20 2d
FIXUPS: 82196 18 23 14 18 34 28 1c 23 18 8 32 17 26 fffc1ee1 12 f 23 1e
FIXUPS: 442a4 43 f 26 f c c b 6d 38 c c b fffd28da 13 2d 13 2d 13 2d 13
FIXUPS: 16df0 13 2d 13 2d 13 2d 13 2d 13 2d 13 2d 13 2d 13 8bb54 5 1c 1a
FIXUPS: a2b6f fffdf5fb 14 5 fff94553 17 e b 33 17 2d 128 6a 35 b 60 b 26
FIXUPS: 169f4 7 14 7 5f 1e b 6b 23 25 3c 12 1f 2b 9 b 6b 66 fffff5bf 29
FIXUPS: 162d4 21 b 4c 1c 11 23 c 27 9 b 30 4e 5a 14 7 20 33 12 1c 14 12
FIXUPS: 165a5 9 b 70 9 b 46 20 fffff64f 22 4d 34 1c b0 8 1e b 3e 8 1e b
FIXUPS: 15f3f 8 1e b 51 22 1c c2 1c 23 9 98 8 1e b 3e 8 1e b fffff727 21
FIXUPS: 15998 d 25 15 27 9 9 9 b 29 14 7 20 33 29 16 17 24 28 b 60 b 22
FIXUPS: 15c07 36 22 39 a 13 31 fffff710 e 27 e 24 20 33 29 16 17 24 31
FIXUPS: 15566 60 b 4b 1f 1c a 5c 22 38 8e 13 13 1e b 39 34 1c be 1c fffff611
FIXUPS: 14f90 34 1f 8f 1c 1c 18 39 39 f 2f 6 14 6 20 42 16 26 1c 1f 9 b
FIXUPS: 152d1 1a 2c 9 b 70 9 b 22 fffff782 8 a 14 a 16 f c 27 9 b 40 1c
FIXUPS: 14c67 72 d 9 3b 2c 1c 1c 41 3e 1c 1c 19 9 9 3b 2e 1c 1c fffff7ba
FIXUPS: 146f3 c 9 b 48 12 13 26 22 1c 1f c 9 b 7d c 9 b 22 ca 1c 18 1e
FIXUPS: 14a09 4c 1c 36 b 4c 1c 16 fffff6ea 4a 12 26 16 17 2c 28 1d 1f 9
FIXUPS: 1436d 25 3e 1c 60 2c 2d b 30 1c 2c 5a 24 14 6 34 22 18 52 12 13
FIXUPS: 13e04 18 22 b 45 1c 30 26 7 28 2d b 25 22 14 6 34 22 18 72 9 b
FIXUPS: 14101 12 26 22 19 18 3e 1d 1f 9 fffff779 1c b 48 29 22 19 18 3e
FIXUPS: 13ace 1c b 50 13 27 9 b 77 13 13 2d 9 b 77 20 13 13 2d 9 b 4c 22
FIXUPS: 13469 25 32 51 7 38 2d b 30 1c 22 22 64 1c 22 22 22 65 14 6 34
FIXUPS: 137d3 18 62 b 47 29 16 17 22 2c 28 fffff6b7 1c 45 1c 45 1c 22 5e
FIXUPS: 1319c 11 13 30 c d 16 c 23 9 b 4b 11 1d 35 19 2e b 30 1c 1c 31
FIXUPS: 1340a 43 fffff78e b 45 12 26 19 18 1f 33 1d 1f 9 b 4a 12 26 16
FIXUPS: 12de5 18 33 2d 1d 1f 9 b 25 29 1c 45 1c 49 1c fffff6fd 19 39 2b
FIXUPS: 12760 b 62 1d 1f f c 1f b 2a 9 b 40 22 22 31 61 22 22 24 95 1d
FIXUPS: 12b02 2c 14 7 20 69 fffff73e 1c 6d 1c e 2b 1c e 2b 1c e 2b 1c e
FIXUPS: 124e2 1c 22 10 21 1b 21 1b 21 1d 2b 1a 7 14 7 35 16 26 fffff5f1
FIXUPS: 11ce8 34 40 1c 25 31 3c 1a 4f 48 1f 40 22 1c 1c 24 45 1c 23 44
FIXUPS: 120ce d8 1c 16 1b 24 47 14 18 b 3a fffff3f5 24 3e 17 71 60 1d 1f
FIXUPS: 11859 c 18 b 25 28 2d 9 b 30 23 65 1d 56 2f 32 36 1c 25 31 3c 46
FIXUPS: 11c10 67 fffff476 7d c 9 b 40 22 22 24 25 56 64 25 1d 3e 22 22
FIXUPS: 11406 51 5d 28 29 20 18 3a 52 28 20 20 18 3a 1c fffff5eb 71 4a
FIXUPS: 10da0 21 56 14 7 14 7 35 1b 26 22 22 1b f f 77 9 b 3a 12 26 22
FIXUPS: 1107b 19 11 f f 8 12 fffff6b8 15 2f 25 1f 9 14 25 23 9 14 2c 83
FIXUPS: 10958 a a 9 9 b 40 22 22 31 61 22 22 24 95 1d 63 13 26 fffff648
FIXUPS: 102d9 3e 1a 1c b 34 2b 4e 10 37 2d b 4b 10 3b 2d b 4b 10 37 2d
FIXUPS: 1061c 4b 2c 24 f 1d 21 1b 9 5a fffff689 11 16 10 16 38 12 10 2b
FIXUPS: fee6 b 7c 1c 16 17 17 1a 17 17 17 17 17 16 16 16 16 16 fb 12 68
FIXUPS: 1025b b 7a44 6 a c 30 9 9 b 55 1c 8 26 c 27 9 b 39 1c 54 1c 54
FIXUPS: 17f26 7 4e 37 2e 13 ffff7cad 3b ea c 16 7b7f 1c d 23 15 27 9 9
FIXUPS: 17a0b 55 1c f 1e b 55 1c f f a 14 a 1c 1c 15 27 9 9 b 55 1c 1e
FIXUPS: 17ca1 fffff64a 1f 11 68 36 19 6a 22 1c 72 22 1c 72 1c 72 1c 21
FIXUPS: 17670 45 1c 21 9 45 1c 21 9 45 1c 1c 93 34 1c 8ba28 3d 41 41 69
FIXUPS: a343f 15 14 18 11 23 1f 3b 11 f fff73ad7 12 53 9 b 4c 2a 9 b 3f
FIXUPS: 17179 7d a 70 21 32 20 9a365 ffff1579 3f 2f 43 3b 3b 33 3b 3b 3f
FIXUPS: a2e07 33 4b 3f 3b 3f 47 3f 33 37 33 33 33 37 3f 3f 43 3f 47 4b
FIXUPS: a32c3 dfb5 41 c 10 13 41 c 10 13 44 c 10 13 29 45 c 10 13 30 41
FIXUPS: b14e5 10 13 2e 43 c 10 13 30 41 c 10 fffff8c3 41 c 10 13 41 c 10
FIXUPS: b0fd8 41 c 10 13 41 c 10 13 41 c 10 13 41 c 10 13 41 c 10 13 41
FIXUPS: b1255 10 fffff913 41 c 10 13 41 c 10 13 41 c 10 13 41 c 10 13 41
FIXUPS: b0d85 10 13 41 c 10 13 41 c 10 13 41 c 10 fffff924 c 10 13 41 c
FIXUPS: b0895 13 41 c 10 13 41 c 10 13 41 c 10 13 34 3d c 10 13 41 c 10
FIXUPS: b0b08 41 c 10 fffff913 10 13 3e c 10 13 44 c 10 13 3e c 10 13 41
FIXUPS: b0635 10 13 41 c 10 13 2a 37 c 10 13 44 c 10 13 fffff8fd 41 c 10
FIXUPS: b0138 41 c 10 13 41 c 10 13 2a 37 c 10 13 41 c 10 13 41 c 10 13
FIXUPS: b03c9 c 10 13 32 42 fffff8bc 2a 37 c 10 13 2a 37 c 10 13 2d 44
FIXUPS: afec5 10 13 41 c 10 13 41 c 10 13 41 c 10 13 2a 37 c 10 fffff904
FIXUPS: af9c5 10 13 41 c 10 13 2a 37 c 10 13 2a 37 c 10 13 2a 37 c 10 13
FIXUPS: afc32 37 c 10 13 2a 37 c 10 fffff924 c 10 13 44 c 10 13 3e c 10
FIXUPS: af748 41 c 10 13 41 c 10 13 44 c 10 13 3e c 10 13 41 c 10 13 fffff941
FIXUPS: af2c5 10 13 41 c 10 13 41 c 10 13 41 c 10 13 41 c 10 13 41 c 10
FIXUPS: af518 41 c 10 13 41 c 10 13 fffffac8 10 10 10 10 10 10 10 d d d
FIXUPS: af164 d d d d d d d d d d d e fff68e4f 20 24 30 97185 c 10 13 fffffc48
FIXUPS: aeed0 10 10 10 10 10 10 10 10 10 10 10 10 10 10 10 10 10 10 10
FIXUPS: af010 10 10 10 10 10 10 10 10 10 10 fffffadf 2c 4d 2c 4d 2c 4d
FIXUPS: aed30 10 10 10 10 10 10 10 10 10 10 10 10 10 10 10 10 10 10 10
FIXUPS: aee70 10 10 10 10 fffff52b 2f 4d 2f 4d 2f 4d 2f 4d 2f 4d 2c 4d
FIXUPS: ae6ef 4d 2f 4d 2c 4d 2f 4d 2f 4d 2f 4d 2c 4d 2c 4d 2f 50 2c fffff127
FIXUPS: adc95 4d 2c 32 29 32 2c 50 2c 4d 2f 4d 2c 4d 2c 4d 2c 4d 2f 4d
FIXUPS: ae122 4d 2f 4d 2f 4d 2f 4d 2f 4d 2f fffff136 2c 4d 2c 4d 2c 4d
FIXUPS: ad65b 4d 2c 4d 2f 4d 2c 4d 2f 4d 2c 4d 2f 50 2f 4d 2f 50 2c 4d
FIXUPS: adb2a 4d 2c 4d 2c fffff13f 23 3e 26 41 29 4d 2f 4d 2f 4d 2c 4d
FIXUPS: ad036 4d 2c 4d 2c 4d 2c 4d 2c 4d 2c 4d 2c 4d 2c 4d 2c 4d 2c fffa73b1
FIXUPS: 54896 4d e 7d 14 57eea 10 3e 26 3e 23 3e 26 3e 23 3e 23 3e 26 3e
FIXUPS: acb2c 3e 23 3e 26 3e 26 41 26 3e 23 fffff9e5 a e 6c e 5 2e 10 14
FIXUPS: ac80a 14 fffa7cc0 22 e 18 2c e 59 17 4d 2c e 59 17 5 26 17 1b 18
FIXUPS: 54789 e 7d 4f282 16 16 b 34 7 17 10 23 35 18 8 33 b 2b 13 8941
FIXUPS: ac579 7 1e b 33 34 17 7 17 7 40 7 12 d 42 ffff6eb1 14 d 16 d 19
FIXUPS: a3655 15 7 1c b 2f 2c 20 e 1d 86 30 23 17 4a 17 10 2c 3e 73 26
FIXUPS: a39ef 66 17 15 c
