
 zinmem32

 Start     Length     Name                   Class
 0001:0000 00000H     WEP                    CODE
 0001:0000 003C3H     TWINMEM3_TEXT          CODE
 0002:0000 00697H     SAVEREST_TEXT          CODE
 0003:0000 01CB1H     TRACE_TEXT             CODE
 0004:0000 0001EH     LIBENTRY_TEXT          CODE
 0005:0000 0007DH     _TEXT                  CODE
 0006:0000 00010H     NULL                   BEGDATA
 0006:0010 01756H     _DATA                  DATA
 0006:1766 00000H     CDATA                  DATA
 0006:1766 00000H     XIFB                   DATA
 0006:1766 00000H     XIF                    DATA
 0006:1766 00000H     XIFE                   DATA
 0006:1766 00000H     XIB                    DATA
 0006:1766 00000H     XI                     DATA
 0006:1766 00000H     XIE                    DATA
 0006:1766 00000H     XPB                    DATA
 0006:1766 00000H     XP                     DATA
 0006:1766 00000H     XPE                    DATA
 0006:1766 00000H     XCB                    DATA
 0006:1766 00000H     XC                     DATA
 0006:1766 00000H     XCE                    DATA
 0006:1766 00000H     XCFB                   DATA
 0006:1766 00000H     XCF                    DATA
 0006:1766 00000H     XCFE                   DATA
 0006:1766 0000CH     DBDATA                 DATA
 0006:1772 00000H     CONST                  CONST
 0006:1772 00019H     HDR                    MSG
 0006:178B 00082H     MSG                    MSG
 0006:180D 00002H     PAD                    MSG
 0006:180F 00001H     EPAD                   MSG
 0006:1810 00000H     _BSS                   BSS
 0006:1810 00000H     XOB                    BSS
 0006:1810 00000H     XO                     BSS
 0006:1810 00000H     XOE                    BSS

 Origin   Group
 0006:0   DGROUP

 Address   Export                  Alias

 0001:0000 GetWinMem32Version      zGetWinMem32Version
 0001:0058 Global16PointerAlloc    zGlobal16PointerAlloc
 0001:00ED Global16PointerFree     zGlobal16PointerFree
 0001:0166 Global32Alloc           zGlobal32Alloc
 0001:01F3 Global32CodeAlias       zGlobal32CodeAlias
 0001:026C Global32CodeAliasFree   zGlobal32CodeAliasFree
 0001:02DF Global32Free            zGlobal32Free
 0001:034A Global32Realloc         zGlobal32Realloc

  Address         Publics by Name

 0000:0000  Imp  CALLWINDOWPROC       (USER.122)
 0000:0000  Imp  CREATEDC             (GDI.53)
 0000:0000  Imp  CREATEDIALOG         (USER.89)
 0000:0000  Imp  CREATEDIALOGINDIRECT (USER.219)
 0000:0000  Imp  CREATEDIALOGINDIRECTPARAM (USER.242)
 0000:0000  Imp  CREATEDIALOGPARAM    (USER.241)
 0000:0000  Imp  CREATEIC             (GDI.153)
 0000:0000  Imp  DIALOGBOX            (USER.87)
 0000:0000  Imp  DIALOGBOXINDIRECT    (USER.218)
 0000:0000  Imp  DIALOGBOXINDIRECTPARAM (USER.240)
 0000:0000  Imp  DIALOGBOXPARAM       (USER.239)
 0003:008F       DLGMESGPROC
 0003:0E99       ENUMBRUSHES
 0000:0000  Imp  ENUMFONTFAMILIES     (GDI.330)
 0000:0000  Imp  ENUMFONTS            (GDI.70)
 0000:0000  Imp  ENUMOBJECTS          (GDI.71)
 0003:0E1C       ENUMPENS
 0003:123C       ENUMTASKWIN
 0000:0000  Imp  ENUMTASKWINDOWS      (USER.225)
 0000:0000  Imp  ESCAPE               (GDI.38)
 0000:0000  Imp  EXTTEXTOUT           (GDI.351)
 0003:110A       FAMILYCOUNTER
 0003:0FCB       FONTCOUNTER
 0000:0000  Imp  GETCHARWIDTH         (GDI.350)
 0000:0000  Imp  GETDEVICECAPS        (GDI.80)
 0000:0000  Imp  GETKEYBOARDSTATE     (USER.222)
 0000:0000  Imp  GetWinMem32Version   (WINMEM32.1)
 0000:0000  Imp  Global16PointerAlloc (WINMEM32.5)
 0000:0000  Imp  Global16PointerFree  (WINMEM32.6)
 0000:0000  Imp  Global32Alloc        (WINMEM32.2)
 0000:0000  Imp  Global32CodeAlias    (WINMEM32.7)
 0000:0000  Imp  Global32CodeAliasFree (WINMEM32.8)
 0000:0000  Imp  Global32Free         (WINMEM32.4)
 0000:0000  Imp  Global32Realloc      (WINMEM32.3)
 0002:0069       HOOKCALL
 0006:0276       HookCount
 0006:0278       HookTable
 0004:0000       LibEntry
 0000:0000  Imp  LocalInit            (KERNEL.4)
 0003:0000       MESGPROC
 0000:0000  Imp  OUTPUTDEBUGSTRING    (KERNEL.115)
 0000:0008  Abs  pAtomTable
 0000:0006  Abs  pLocalHeap
 0000:000E  Abs  pStackBot
 0000:000C  Abs  pStackMin
 0000:000A  Abs  pStackTop
 0000:0000  Imp  REGISTERCLASS        (USER.57)
 0000:0000  Imp  RESETDC              (GDI.376)
 0006:0004       rsrvptrs
 0000:0000  Imp  SETBITMAPBITS        (GDI.106)
 0000:0000  Imp  SETKEYBOARDSTATE     (USER.223)
 0000:0000  Imp  SETRECT              (USER.72)
 0000:0000  Imp  SETRECTEMPTY         (USER.73)
 0000:0000  Imp  SETTIMER             (USER.10)
 0000:0000  Imp  SETWINDOWLONG        (USER.136)
 0000:0000  Imp  SETWINDOWSHOOK       (USER.121)
 0006:1760       STKHQQ
 0003:13EB       TIMERRTN
 0000:0000  Imp  UNHOOKWINDOWSHOOK    (USER.234)
 0003:06D5       WH_CALLWNDPROCHOOK
 0003:0A7F       WH_CBTHOOK
 0003:0B8B       WH_DEBUGHOOK
 0003:075B       WH_GETMESSAGEHOOK
 0003:07E1       WH_JOURNALPLAYBACKHOOK
 0003:0867       WH_JOURNALRECORDHOOK
 0003:08ED       WH_KEYBOARDHOOK
 0003:0B05       WH_MOUSEHOOK
 0003:0973       WH_MSGFILTERHOOK
 0003:09F9       WH_SYSMSGFILTERHOOK
 0003:1BFC       ZCALLWINDOWPROC
 0003:17DA       ZCREATEDC
 0003:01A6       ZCREATEDIALOG
 0003:0245       ZCREATEDIALOGINDIRECT
 0003:02EF       ZCREATEDIALOGINDIRECTPARAM
 0003:039C       ZCREATEDIALOGPARAM
 0003:186D       ZCREATEIC
 0003:0449       ZDIALOGBOX
 0003:04E8       ZDIALOGBOXINDIRECT
 0003:0581       ZDIALOGBOXINDIRECTPARAM
 0003:0628       ZDIALOGBOXPARAM
 0003:11A2       ZENUMFONTFAMILIES
 0003:1063       ZENUMFONTS
 0003:0F16       ZENUMOBJECTS
 0003:12B0       ZENUMTASKWINDOWS
 0003:1514       ZESCAPE
 0003:1ADB       ZEXTTEXTOUT
 0003:1A52       ZGETCHARWIDTH
 0003:1765       ZGETDEVICECAPS
 0003:198E       ZGETKEYBOARDSTATE
 0001:0000       zGetWinMem32Version
 0001:0058       zGlobal16PointerAlloc
 0001:00ED       zGlobal16PointerFree
 0001:0166       zGlobal32Alloc
 0001:01F3       zGlobal32CodeAlias
 0001:026C       zGlobal32CodeAliasFree
 0001:02DF       zGlobal32Free
 0001:034A       zGlobal32Realloc
 0003:0118       ZREGISTERCLASS
 0003:1B8B       ZRESETDC
 0003:1900       ZSETBITMAPBITS
 0003:19F0       ZSETKEYBOARDSTATE
 0003:1471       ZSETTIMER
 0003:1349       ZSETWINDOWLONG
 0003:0C11       ZSETWINDOWSHOOK
 0003:0D88       ZUNHOOKWINDOWSHOOK
 0006:1810       _edata
 0006:1810       _end
 0002:0034       _GrovelDS
 0002:05BD       _HookAdd
 0002:0655       _HookFind
 0002:0090       _HookProc
 0002:0117       _Hooks
 0002:0566       _HookSearch
 0002:0517       _IsHook
 0000:0000  Imp  _LogIn               (LOGGER.2)
 0000:0000  Imp  _LogOut              (LOGGER.3)
 0002:0019       _RestoreRegs
 0002:0000       _SaveRegs
 0002:004F       _UnGrovelDS
 0000:9876  Abs  __acrtmsg
 0000:9876  Abs  __acrtused
 0000:9876  Abs  __acrtused2
 0000:D6D6  Abs  __aDBdoswp
 0006:1762       __adbgmsg
 0006:176A       __aDBrterr
 0006:177A       __caption
 0000:9876  Abs  __fptaskdata
 0005:0012       __NMSG_TEXT
 0005:0049       __NMSG_WRITE
 0006:176C       ___aDBexit
 0006:1768       ___aDBswpchk
 0006:1766       ___aDBswpflg

  Address         Publics by Value

 0000:0000  Imp  UNHOOKWINDOWSHOOK    (USER.234)
 0000:0000  Imp  Global16PointerAlloc (WINMEM32.5)
 0000:0000  Imp  Global32CodeAliasFree (WINMEM32.8)
 0000:0000  Imp  SETWINDOWLONG        (USER.136)
 0000:0000  Imp  RESETDC              (GDI.376)
 0000:0000  Imp  ENUMTASKWINDOWS      (USER.225)
 0000:0000  Imp  Global16PointerFree  (WINMEM32.6)
 0000:0000  Imp  SETBITMAPBITS        (GDI.106)
 0000:0000  Imp  DIALOGBOXINDIRECTPARAM (USER.240)
 0000:0000  Imp  CREATEDIALOG         (USER.89)
 0000:0000  Imp  Global32Free         (WINMEM32.4)
 0000:0000  Imp  Global32Alloc        (WINMEM32.2)
 0000:0000  Imp  ENUMFONTS            (GDI.70)
 0000:0000  Imp  ENUMOBJECTS          (GDI.71)
 0000:0000  Imp  _LogIn               (LOGGER.2)
 0000:0000  Imp  GETDEVICECAPS        (GDI.80)
 0000:0000  Imp  CREATEDC             (GDI.53)
 0000:0000  Imp  SETRECTEMPTY         (USER.73)
 0000:0000  Imp  CREATEDIALOGPARAM    (USER.241)
 0000:0000  Imp  _LogOut              (LOGGER.3)
 0000:0000  Imp  CALLWINDOWPROC       (USER.122)
 0000:0000  Imp  CREATEDIALOGINDIRECT (USER.219)
 0000:0000  Imp  CREATEDIALOGINDIRECTPARAM (USER.242)
 0000:0000  Imp  GetWinMem32Version   (WINMEM32.1)
 0000:0000  Imp  DIALOGBOXINDIRECT    (USER.218)
 0000:0000  Imp  Global32CodeAlias    (WINMEM32.7)
 0000:0000  Imp  SETRECT              (USER.72)
 0000:0000  Imp  SETWINDOWSHOOK       (USER.121)
 0000:0000  Imp  ESCAPE               (GDI.38)
 0000:0000  Imp  SETTIMER             (USER.10)
 0000:0000  Imp  GETCHARWIDTH         (GDI.350)
 0000:0000  Imp  GETKEYBOARDSTATE     (USER.222)
 0000:0000  Imp  EXTTEXTOUT           (GDI.351)
 0000:0000  Imp  Global32Realloc      (WINMEM32.3)
 0000:0000  Imp  OUTPUTDEBUGSTRING    (KERNEL.115)
 0000:0000  Imp  DIALOGBOX            (USER.87)
 0000:0000  Imp  CREATEIC             (GDI.153)
 0000:0000  Imp  DIALOGBOXPARAM       (USER.239)
 0000:0000  Imp  ENUMFONTFAMILIES     (GDI.330)
 0000:0000  Imp  REGISTERCLASS        (USER.57)
 0000:0000  Imp  SETKEYBOARDSTATE     (USER.223)
 0000:0000  Imp  LocalInit            (KERNEL.4)
 0000:0006  Abs  pLocalHeap
 0000:0008  Abs  pAtomTable
 0000:000A  Abs  pStackTop
 0000:000C  Abs  pStackMin
 0000:000E  Abs  pStackBot
 0000:9876  Abs  __fptaskdata
 0000:9876  Abs  __acrtused
 0000:9876  Abs  __acrtused2
 0000:9876  Abs  __acrtmsg
 0000:D6D6  Abs  __aDBdoswp
 0001:0000       zGetWinMem32Version
 0001:0058       zGlobal16PointerAlloc
 0001:00ED       zGlobal16PointerFree
 0001:0166       zGlobal32Alloc
 0001:01F3       zGlobal32CodeAlias
 0001:026C       zGlobal32CodeAliasFree
 0001:02DF       zGlobal32Free
 0001:034A       zGlobal32Realloc
 0002:0000       _SaveRegs
 0002:0019       _RestoreRegs
 0002:0034       _GrovelDS
 0002:004F       _UnGrovelDS
 0002:0069       HOOKCALL
 0002:0090       _HookProc
 0002:0117       _Hooks
 0002:0517       _IsHook
 0002:0566       _HookSearch
 0002:05BD       _HookAdd
 0002:0655       _HookFind
 0003:0000       MESGPROC
 0003:008F       DLGMESGPROC
 0003:0118       ZREGISTERCLASS
 0003:01A6       ZCREATEDIALOG
 0003:0245       ZCREATEDIALOGINDIRECT
 0003:02EF       ZCREATEDIALOGINDIRECTPARAM
 0003:039C       ZCREATEDIALOGPARAM
 0003:0449       ZDIALOGBOX
 0003:04E8       ZDIALOGBOXINDIRECT
 0003:0581       ZDIALOGBOXINDIRECTPARAM
 0003:0628       ZDIALOGBOXPARAM
 0003:06D5       WH_CALLWNDPROCHOOK
 0003:075B       WH_GETMESSAGEHOOK
 0003:07E1       WH_JOURNALPLAYBACKHOOK
 0003:0867       WH_JOURNALRECORDHOOK
 0003:08ED       WH_KEYBOARDHOOK
 0003:0973       WH_MSGFILTERHOOK
 0003:09F9       WH_SYSMSGFILTERHOOK
 0003:0A7F       WH_CBTHOOK
 0003:0B05       WH_MOUSEHOOK
 0003:0B8B       WH_DEBUGHOOK
 0003:0C11       ZSETWINDOWSHOOK
 0003:0D88       ZUNHOOKWINDOWSHOOK
 0003:0E1C       ENUMPENS
 0003:0E99       ENUMBRUSHES
 0003:0F16       ZENUMOBJECTS
 0003:0FCB       FONTCOUNTER
 0003:1063       ZENUMFONTS
 0003:110A       FAMILYCOUNTER
 0003:11A2       ZENUMFONTFAMILIES
 0003:123C       ENUMTASKWIN
 0003:12B0       ZENUMTASKWINDOWS
 0003:1349       ZSETWINDOWLONG
 0003:13EB       TIMERRTN
 0003:1471       ZSETTIMER
 0003:1514       ZESCAPE
 0003:1765       ZGETDEVICECAPS
 0003:17DA       ZCREATEDC
 0003:186D       ZCREATEIC
 0003:1900       ZSETBITMAPBITS
 0003:198E       ZGETKEYBOARDSTATE
 0003:19F0       ZSETKEYBOARDSTATE
 0003:1A52       ZGETCHARWIDTH
 0003:1ADB       ZEXTTEXTOUT
 0003:1B8B       ZRESETDC
 0003:1BFC       ZCALLWINDOWPROC
 0004:0000       LibEntry
 0005:0012       __NMSG_TEXT
 0005:0049       __NMSG_WRITE
 0006:0004       rsrvptrs
 0006:0276       HookCount
 0006:0278       HookTable
 0006:1760       STKHQQ
 0006:1762       __adbgmsg
 0006:1766       ___aDBswpflg
 0006:1768       ___aDBswpchk
 0006:176A       __aDBrterr
 0006:176C       ___aDBexit
 0006:177A       __caption
 0006:1810       _end
 0006:1810       _edata

Line numbers for twinmem3.obj(twinmem3.c) segment TWINMEM3_TEXT

     9 0001:0000    12 0001:000D    16 0001:0012    21 0001:001D
    22 0001:0022    23 0001:0027    24 0001:002F    25 0001:0034
    29 0001:0039    31 0001:0048    32 0001:004D    33 0001:0050
    35 0001:0058    38 0001:0065    43 0001:006A    48 0001:008A
    49 0001:008F    50 0001:0094    51 0001:00B4    52 0001:00B9
    57 0001:00BE    59 0001:00DB    60 0001:00E0    61 0001:00E3
    63 0001:00ED    66 0001:00FA    71 0001:00FF    76 0001:0117
    77 0001:011C    78 0001:0121    79 0001:0135    80 0001:013A
    85 0001:013F    87 0001:0154    88 0001:0159    89 0001:015C
    91 0001:0166    94 0001:0173    99 0001:0178   104 0001:0195
   105 0001:019A   106 0001:019F   107 0001:01BC   108 0001:01C1
   113 0001:01C6   115 0001:01E1   116 0001:01E6   117 0001:01E9
   119 0001:01F3   122 0001:0200   127 0001:0205   132 0001:0219
   133 0001:021E   134 0001:0223   135 0001:0237   136 0001:023C
   141 0001:0241   143 0001:025A   144 0001:025F   145 0001:0262
   147 0001:026C   150 0001:0279   155 0001:027E   160 0001:0293
   161 0001:0298   162 0001:029D   163 0001:02AE   164 0001:02B3
   169 0001:02B8   171 0001:02CD   172 0001:02D2   173 0001:02D5
   175 0001:02DF   178 0001:02EC   183 0001:02F1   188 0001:0303
   189 0001:0308   190 0001:030D   191 0001:031B   192 0001:0320
   197 0001:0325   199 0001:0338   200 0001:033D   201 0001:0340
   203 0001:034A   206 0001:0357   211 0001:035C   216 0001:0374
   217 0001:0379   218 0001:037E   219 0001:0392   220 0001:0397
   225 0001:039C   227 0001:03B1   228 0001:03B6   229 0001:03B9

Line numbers for trace.obj(trace.c) segment TRACE_TEXT

    18 0003:0000    22 0003:000D    24 0003:002E    25 0003:0033
    26 0003:0056    29 0003:005B    31 0003:007F    32 0003:0085
    41 0003:008F    45 0003:009C    47 0003:00BD    48 0003:00C2
    49 0003:00E2    52 0003:00E7    54 0003:010B    55 0003:010E
    59 0003:0118    67 0003:0127    68 0003:0139    72 0003:014F
    76 0003:016F    77 0003:0174    78 0003:0181    83 0003:0186
    85 0003:0197    86 0003:019A    90 0003:01A6    94 0003:01B3
   105 0003:01B8   110 0003:01EE   111 0003:01F3   112 0003:01F8
   113 0003:0212   114 0003:0217   119 0003:021C   121 0003:0233
   122 0003:0238   123 0003:023B   126 0003:0245   130 0003:0252
   138 0003:0257   140 0003:0264   146 0003:027C   151 0003:0298
   152 0003:029D   153 0003:02A2   154 0003:02BC   155 0003:02C1
   160 0003:02C6   162 0003:02DD   163 0003:02E2   164 0003:02E5
   167 0003:02EF   171 0003:02FC   182 0003:0301   187 0003:033D
   188 0003:0342   189 0003:0347   190 0003:0367   191 0003:036C
   196 0003:0371   198 0003:038A   199 0003:038F   200 0003:0392
   203 0003:039C   207 0003:03A9   218 0003:03AE   223 0003:03EA
   224 0003:03EF   225 0003:03F4   226 0003:0414   227 0003:0419
   232 0003:041E   234 0003:0437   235 0003:043C   236 0003:043F
   240 0003:0449   244 0003:0456   255 0003:045B   260 0003:0491
   261 0003:0496   262 0003:049B   263 0003:04B5   264 0003:04BA
   269 0003:04BF   271 0003:04D6   272 0003:04DB   273 0003:04DE
   276 0003:04E8   280 0003:04F5   291 0003:04FA   296 0003:052D
   297 0003:0532   298 0003:0537   299 0003:054E   300 0003:0553
   305 0003:0558   307 0003:056F   308 0003:0574   309 0003:0577
   312 0003:0581   316 0003:058E   327 0003:0593   332 0003:05CC
   333 0003:05D1   334 0003:05D6   335 0003:05F3   336 0003:05F8
   341 0003:05FD   343 0003:0616   344 0003:061B   345 0003:061E
   348 0003:0628   352 0003:0635   363 0003:063A   368 0003:0676
   369 0003:067B   370 0003:0680   371 0003:06A0   372 0003:06A5
   377 0003:06AA   379 0003:06C3   380 0003:06C8   381 0003:06CB
   398 0003:06D5   402 0003:06E2   404 0003:0700   405 0003:0705
   406 0003:0725   409 0003:072A   411 0003:074B   412 0003:0751
   421 0003:075B   425 0003:0768   427 0003:0786   428 0003:078B
   429 0003:07AB   432 0003:07B0   434 0003:07D1   435 0003:07D7
   444 0003:07E1   448 0003:07EE   450 0003:080C   451 0003:0811
   452 0003:0831   455 0003:0836   457 0003:0857   458 0003:085D
   467 0003:0867   471 0003:0874   473 0003:0892   474 0003:0897
   475 0003:08B7   478 0003:08BC   480 0003:08DD   481 0003:08E3
   490 0003:08ED   494 0003:08FA   496 0003:0918   497 0003:091D
   498 0003:093D   501 0003:0942   503 0003:0963   504 0003:0969
   513 0003:0973   517 0003:0980   519 0003:099E   520 0003:09A3
   521 0003:09C3   524 0003:09C8   526 0003:09E9   527 0003:09EF
   536 0003:09F9   540 0003:0A06   542 0003:0A24   543 0003:0A29
   544 0003:0A49   547 0003:0A4E   549 0003:0A6F   550 0003:0A75
   558 0003:0A7F   562 0003:0A8C   564 0003:0AAA   565 0003:0AAF
   566 0003:0ACF   569 0003:0AD4   571 0003:0AF5   572 0003:0AFB
   580 0003:0B05   584 0003:0B12   586 0003:0B30   587 0003:0B35
   588 0003:0B55   591 0003:0B5A   593 0003:0B7B   594 0003:0B81
   602 0003:0B8B   606 0003:0B98   608 0003:0BB6   609 0003:0BBB
   610 0003:0BDB   613 0003:0BE0   615 0003:0C01   616 0003:0C07
   621 0003:0C11   626 0003:0C1E   631 0003:0C23   632 0003:0C40
   634 0003:0C45   638 0003:0C4B   639 0003:0C65   643 0003:0C68
   648 0003:0C76   653 0003:0C84   658 0003:0C92   663 0003:0CA0
   668 0003:0CAE   672 0003:0CBC   676 0003:0CCA   680 0003:0CD9
   683 0003:0CE8   684 0003:0CED   690 0003:0D13   691 0003:0D18
   692 0003:0D1D   693 0003:0D31   694 0003:0D36   699 0003:0D3B
   701 0003:0D41   702 0003:0D57   704 0003:0D59   707 0003:0D73
   708 0003:0D78   709 0003:0D7E   713 0003:0D88   717 0003:0D95
   722 0003:0D9A   725 0003:0DAF   726 0003:0DC6   732 0003:0DD2
   733 0003:0DD7   734 0003:0DDC   735 0003:0DED   736 0003:0DF2
   741 0003:0DF7   743 0003:0E0A   744 0003:0E0F   745 0003:0E12
   759 0003:0E1C   763 0003:0E29   765 0003:0E47   766 0003:0E4C
   767 0003:0E69   770 0003:0E6E   772 0003:0E8C   774 0003:0E8F
   782 0003:0E99   786 0003:0EA6   788 0003:0EC4   789 0003:0EC9
   790 0003:0EE6   793 0003:0EEB   795 0003:0F09   797 0003:0F0C
   801 0003:0F16   805 0003:0F23   810 0003:0F28   812 0003:0F46
   813 0003:0F4C   815 0003:0F5A   820 0003:0F74   821 0003:0F79
   822 0003:0F7E   823 0003:0F98   824 0003:0F9D   829 0003:0FA2
   831 0003:0FB9   832 0003:0FBE   833 0003:0FC1   846 0003:0FCB
   850 0003:0FD8   852 0003:0FFF   853 0003:1004   854 0003:102A
   857 0003:102F   859 0003:1056   861 0003:1059   865 0003:1063
   869 0003:1070   874 0003:1075   881 0003:1096   886 0003:10B0
   887 0003:10B5   888 0003:10BA   889 0003:10D7   890 0003:10DC
   895 0003:10E1   897 0003:10F8   898 0003:10FD   899 0003:1100
   908 0003:110A   912 0003:1117   914 0003:113E   915 0003:1143
   916 0003:1169   919 0003:116E   921 0003:1195   923 0003:1198
   926 0003:11A2   930 0003:11AF   935 0003:11B4   942 0003:11C8
   947 0003:11E2   948 0003:11E7   949 0003:11EC   950 0003:1209
   951 0003:120E   956 0003:1213   958 0003:122A   959 0003:122F
   960 0003:1232   968 0003:123C   972 0003:1249   974 0003:1264
   975 0003:1269   976 0003:1283   979 0003:1288   981 0003:12A3
   983 0003:12A6   986 0003:12B0   989 0003:12BD   994 0003:12C2
   996 0003:12DD  1001 0003:12F7  1002 0003:12FC  1003 0003:1301
  1004 0003:1318  1005 0003:131D  1010 0003:1322  1012 0003:1337
  1013 0003:133C  1014 0003:133F  1017 0003:1349  1022 0003:1356
  1027 0003:135B  1029 0003:1373  1030 0003:1379  1035 0003:1393
  1036 0003:1398  1037 0003:139D  1038 0003:13B4  1039 0003:13B9
  1044 0003:13BE  1046 0003:13D6  1047 0003:13DB  1048 0003:13E1
  1061 0003:13EB  1065 0003:13F8  1067 0003:1419  1068 0003:141E
  1069 0003:143E  1072 0003:1443  1074 0003:1464  1075 0003:1467
  1078 0003:1471  1081 0003:147E  1086 0003:1483  1088 0003:149E
  1089 0003:14A6  1095 0003:14C0  1096 0003:14C5  1097 0003:14CA
  1098 0003:14E1  1099 0003:14E6  1104 0003:14EB  1106 0003:1502
  1107 0003:1507  1108 0003:150A  1139 0003:1514  1143 0003:1521
  1144 0003:1526  1163 0003:152C  1166 0003:1533  1168 0003:154A
  1169 0003:154F  1170 0003:1554  1171 0003:156B  1172 0003:1576
  1173 0003:157B  1175 0003:1580  1177 0003:1597  1186 0003:1599
  1187 0003:15B6  1188 0003:15BB  1191 0003:15C0  1192 0003:15E5
  1193 0003:15EA  1195 0003:15EF  1199 0003:1610  1200 0003:161C
  1201 0003:1621  1205 0003:1627  1221 0003:1644  1223 0003:165D
  1224 0003:1673  1225 0003:1678  1254 0003:167D  1256 0003:1683
  1259 0003:169A  1260 0003:16B7  1261 0003:16BC  1262 0003:16C1
  1263 0003:16DE  1264 0003:16E3  1266 0003:16E8  1274 0003:1703
  1276 0003:1720  1281 0003:175B  1284 0003:1765  1287 0003:1772
  1292 0003:1777  1297 0003:1789  1298 0003:178E  1299 0003:1793
  1300 0003:17A1  1301 0003:17A6  1308 0003:17AB  1309 0003:17B1
  1315 0003:17B5  1317 0003:17C8  1318 0003:17CD  1319 0003:17D0
  1323 0003:17DA  1326 0003:17E7  1331 0003:17EC  1336 0003:1810
  1337 0003:1815  1338 0003:181A  1339 0003:183A  1340 0003:183F
  1345 0003:1844  1347 0003:185B  1348 0003:1860  1349 0003:1863
  1352 0003:186D  1355 0003:187A  1360 0003:187F  1365 0003:18A3
  1366 0003:18A8  1367 0003:18AD  1368 0003:18CD  1369 0003:18D2
  1374 0003:18D7  1376 0003:18EE  1377 0003:18F3  1378 0003:18F6
  1381 0003:1900  1384 0003:190D  1389 0003:1912  1394 0003:1933
  1395 0003:1938  1396 0003:193D  1397 0003:1957  1398 0003:195C
  1403 0003:1961  1405 0003:1979  1406 0003:197E  1407 0003:1984
  1410 0003:198E  1412 0003:1998  1417 0003:199D  1422 0003:19AB
  1423 0003:19B0  1424 0003:19B5  1425 0003:19C0  1426 0003:19C5
  1431 0003:19CA  1433 0003:19E1  1435 0003:19E6  1438 0003:19F0
  1440 0003:19FA  1445 0003:19FF  1450 0003:1A16  1451 0003:1A1B
  1452 0003:1A20  1453 0003:1A2B  1454 0003:1A30  1459 0003:1A35
  1461 0003:1A43  1463 0003:1A48  1466 0003:1A52  1469 0003:1A5F
  1474 0003:1A64  1479 0003:1A7B  1480 0003:1A80  1481 0003:1A85
  1482 0003:1A9C  1483 0003:1AA1  1488 0003:1AA6  1490 0003:1AC9
  1491 0003:1ACE  1492 0003:1AD1  1495 0003:1ADB  1498 0003:1AE8
  1503 0003:1AED  1508 0003:1B1D  1509 0003:1B22  1510 0003:1B27
  1511 0003:1B50  1512 0003:1B55  1517 0003:1B5A  1519 0003:1B79
  1520 0003:1B7E  1521 0003:1B81  1526 0003:1B8B  1529 0003:1B98
  1534 0003:1B9D  1539 0003:1BB2  1540 0003:1BB7  1541 0003:1BBC
  1542 0003:1BCD  1543 0003:1BD2  1548 0003:1BD7  1550 0003:1BEA
  1551 0003:1BEF  1552 0003:1BF2  1555 0003:1BFC  1559 0003:1C09
  1564 0003:1C0E  1568 0003:1C2F  1570 0003:1C43  1576 0003:1C4C
  1577 0003:1C51  1578 0003:1C56  1579 0003:1C76  1580 0003:1C7B
  1585 0003:1C80  1587 0003:1C9C  1588 0003:1CA1  1589 0003:1CA7

Program entry point at 0004:0000
