
 zdi

 Start     Length     Name                   Class
 0001:0000 00000H     WEP                    CODE
 0001:0000 04EEEH     TGDI_TEXT              CODE
 0002:0000 00286H     TGFONT_TEXT            CODE
 0003:0000 003D0H     TGMETA_TEXT            CODE
 0004:0000 004E2H     TGTEXT_TEXT            CODE
 0005:0000 008F3H     TGDIA_TEXT             CODE
 0006:0000 00697H     SAVEREST_TEXT          CODE
 0007:0000 01D94H     TRACE_TEXT             CODE
 0008:0000 0001EH     LIBENTRY_TEXT          CODE
 0009:0000 0058CH     _TEXT                  CODE
 000A:0000 00054H     WEP_TEXT               CODE
 000B:0000 00010H     NULL                   BEGDATA
 000B:0010 04F06H     _DATA                  DATA
 000B:4F16 0000EH     CDATA                  DATA
 000B:4F24 00000H     XIFB                   DATA
 000B:4F24 00000H     XIF                    DATA
 000B:4F24 00000H     XIFE                   DATA
 000B:4F24 00000H     XIB                    DATA
 000B:4F24 00000H     XI                     DATA
 000B:4F24 00000H     XIE                    DATA
 000B:4F24 00000H     XPB                    DATA
 000B:4F24 00000H     XP                     DATA
 000B:4F24 00000H     XPE                    DATA
 000B:4F24 00000H     XCB                    DATA
 000B:4F24 00000H     XC                     DATA
 000B:4F24 00000H     XCE                    DATA
 000B:4F24 00000H     XCFB                   DATA
 000B:4F24 00000H     XCFCRT                 DATA
 000B:4F24 00000H     XCF                    DATA
 000B:4F24 00000H     XCFE                   DATA
 000B:4F24 00000H     XIFCB                  DATA
 000B:4F24 00000H     XIFU                   DATA
 000B:4F24 00000H     XIFL                   DATA
 000B:4F24 00000H     XIFM                   DATA
 000B:4F24 00000H     XIFCE                  DATA
 000B:4F24 00000H     DBDATA                 DATA
 000B:4F24 00000H     CONST                  CONST
 000B:4F24 00008H     HDR                    MSG
 000B:4F2C 000D4H     MSG                    MSG
 000B:5000 00002H     PAD                    MSG
 000B:5002 00001H     EPAD                   MSG
 000B:5004 00000H     _BSS                   BSS
 000B:5004 00000H     XOB                    BSS
 000B:5004 00000H     XO                     BSS
 000B:5004 00000H     XOE                    BSS
 000B:5004 00000H     XOFB                   BSS
 000B:5004 00000H     XOF                    BSS
 000B:5004 00000H     XOFE                   BSS

 Origin   Group
 000B:0   DGROUP

 Address   Export                  Alias

 0001:0000 AbortDoc                zAbortDoc
 0002:0000 AddFontResource         zAddFontResource
 0001:0062 AnimatePalette          zAnimatePalette
 0001:00D6 Arc                     zArc
 0001:0178 BitBlt                  zBitBlt
 0005:0000 BRUTE                   zBRUTE
 0001:0220 Chord                   zChord
 0005:001D CLOSEJOB                zCLOSEJOB
 0003:0000 CloseMetaFile           zCloseMetaFile
 0001:02C2 CombineRgn              zCombineRgn
 0001:033C ConvertOutlineFontFile  zConvertOutlineFontFile
 0005:003A COPY                    zCOPY
 0003:0062 CopyMetaFile            zCopyMetaFile
 0001:03BE CreateBitmap            zCreateBitmap
 0001:0446 CreateBitmapIndirect    zCreateBitmapIndirect
 0001:04AE CreateBrushIndirect     zCreateBrushIndirect
 0001:0516 CreateCompatibleBitmap  zCreateCompatibleBitmap
 0001:0588 CreateCompatibleDC      zCreateCompatibleDC
 0007:18B4 CreateDC                zCreateDC
 0001:0654 CreateDIBitmap          zCreateDIBitmap
 0001:05EA CreateDIBPatternBrush   zCreateDIBPatternBrush
 0001:06F6 CreateDiscardableBitmap  zCreateDiscardableBitmap
 0001:0768 CreateEllipticRgn       zCreateEllipticRgn
 0001:07E2 CreateEllipticRgnIndirect  zCreateEllipticRgnIndirect
 0002:0068 CreateFont              zCreateFont
 0002:014A CreateFontIndirect      zCreateFontIndirect
 0001:084A CreateHatchBrush        zCreateHatchBrush
 0007:1946 CreateIC                zCreateIC
 0003:00D2 CreateMetaFile          zCreateMetaFile
 0001:08B6 CreatePalette           zCreatePalette
 0001:091E CreatePatternBrush      zCreatePatternBrush
 0001:0980 CreatePen               zCreatePen
 0001:09F8 CreatePenIndirect       zCreatePenIndirect
 0001:0AE6 CreatePolygonRgn        zCreatePolygonRgn
 0001:0A60 CreatePolyPolygonRgn    zCreatePolyPolygonRgn
 0005:0057 CREATEPQ                zCREATEPQ
 0001:0B5E CreateRectRgn           zCreateRectRgn
 0001:0BD8 CreateRectRgnIndirect   zCreateRectRgnIndirect
 0001:0C40 CreateRoundRectRgn      zCreateRoundRectRgn
 0001:0CCA CreateScalableFontResource  zCreateScalableFontResource
 0001:0D4A CreateSolidBrush        zCreateSolidBrush
 0005:0074 CREATEUSERBITMAP        zCREATEUSERBITMAP
 0005:0091 CREATEUSERDISCARDABLEBITMAP  zCREATEUSERDISCARDABLEBITMAP
 0005:00AE DEATH                   zDEATH
 0001:0E2E DeleteDC                zDeleteDC
 0005:00CB DELETEJOB               zDELETEJOB
 0001:0E90 DeleteMetaFile          zDeleteMetaFile
 0001:0EF2 DeleteObject            zDeleteObject
 0005:00E8 DELETEPQ                zDELETEPQ
 0005:0105 DELETESPOOLPAGE         zDELETESPOOLPAGE
 0005:0122 DEVICECOLORMATCH        zDEVICECOLORMATCH
 0005:013F DMBITBLT                zDMBITBLT
 0005:015C DMCOLORINFO             zDMCOLORINFO
 0005:0179 DMDIBBITS               zDMDIBBITS
 0005:0196 DMENUMDFONTS            zDMENUMDFONTS
 0005:01B3 DMENUMOBJ               zDMENUMOBJ
 0005:01D0 DMEXTTEXTOUT            zDMEXTTEXTOUT
 0005:01ED DMGETCHARWIDTH          zDMGETCHARWIDTH
 0005:020A DMOUTPUT                zDMOUTPUT
 0005:0227 DMPIXEL                 zDMPIXEL
 0005:0244 DMREALIZEOBJECT         zDMREALIZEOBJECT
 0005:0261 DMSCANLR                zDMSCANLR
 0005:027E DMSETDIBTODEV           zDMSETDIBTODEV
 0005:029B DMSTRBLT                zDMSTRBLT
 0005:02B8 DMSTRETCHBLT            zDMSTRETCHBLT
 0005:02D5 DMSTRETCHDIBITS         zDMSTRETCHDIBITS
 0005:02F2 DMTRANSPOSE             zDMTRANSPOSE
 0001:0DB2 DPtoLP                  zDPtoLP
 0001:0F54 Ellipse                 zEllipse
 0001:0FD6 EndDoc                  zEndDoc
 0001:1038 EndPage                 zEndPage
 0005:030F ENDSPOOLPAGE            zENDSPOOLPAGE
 0005:032C ENGINEDELETEFONT        zENGINEDELETEFONT
 0005:0349 ENGINEENUMERATEFONT     zENGINEENUMERATEFONT
 0005:0366 ENGINEEXTTEXTOUT        zENGINEEXTTEXTOUT
 0005:0383 ENGINEGETCHARWIDTH      zENGINEGETCHARWIDTH
 0005:03A0 ENGINEGETGLYPHBMP       zENGINEGETGLYPHBMP
 0001:109A EngineMakeFontDir       zEngineMakeFontDir
 0005:03BD ENGINEREALIZEFONT       zENGINEREALIZEFONT
 0005:03DA ENGINESETFONTCONTEXT    zENGINESETFONTCONTEXT
 0007:0EC4 EnumBrushes             EnumBrushes
 0007:11CA EnumFontFamilies        zEnumFontFamilies
 0007:108C EnumFonts               zEnumFonts
 0003:013A EnumMetaFile            zEnumMetaFile
 0007:0F40 EnumObjects             zEnumObjects
 0007:0E48 EnumPens                EnumPens
 0001:1118 EqualRgn                zEqualRgn
 0007:158C Escape                  zEscape
 0001:1182 ExcludeClipRect         zExcludeClipRect
 0005:03F7 EXCLUDEVISRECT          zEXCLUDEVISRECT
 0001:1204 ExtFloodFill            zExtFloodFill
 0005:0414 EXTRACTPQ               zEXTRACTPQ
 0007:1BB2 ExtTextOut              zExtTextOut
 0007:1132 FamilyCounter           FamilyCounter
 0001:128C FastWindowFrame         zFastWindowFrame
 0001:1310 FillRgn                 zFillRgn
 0005:0431 FINALGDIINIT            zFINALGDIINIT
 0005:044E FIXUPBOGUSPUBLISHERMETAFILE  zFIXUPBOGUSPUBLISHERMETAFILE
 0001:1382 FloodFill               zFloodFill
 0007:0FF4 FontCounter             FontCounter
 0001:1402 FrameRgn                zFrameRgn
 0005:046B FTRAPPING0              zFTRAPPING0
 0005:0488 GDIINIT2                zGDIINIT2
 0005:04A5 GDIMOVEBITMAP           zGDIMOVEBITMAP
 0005:04C2 GDIREALIZEPALETTE       zGDIREALIZEPALETTE
 0005:04DF GDISEEGDIDO             zGDISEEGDIDO
 0005:04FC GDISELECTPALETTE        zGDISELECTPALETTE
 0005:0519 GDITASKTERMINATION      zGDITASKTERMINATION
 0002:01B2 GetAspectRatioFilter    zGetAspectRatioFilter
 0001:1484 GetAspectRatioFilterEx  zGetAspectRatioFilterEx
 0001:14F0 GetBitmapBits           zGetBitmapBits
 0001:157E GetBitmapDimension      zGetBitmapDimension
 0001:15EA GetBitmapDimensionEx    zGetBitmapDimensionEx
 0001:1656 GetBkColor              zGetBkColor
 0001:16C2 GetBkMode               zGetBkMode
 0001:1724 GetBoundsRect           zGetBoundsRect
 0001:1796 GetBrushOrg             zGetBrushOrg
 0001:1802 GetBrushOrgEx           zGetBrushOrgEx
 0001:186E GetCharABCWidths        zGetCharABCWidths
 0007:1B2A GetCharWidth            zGetCharWidth
 0001:18E8 GetClipBox              zGetClipBox
 0005:0536 GETCLIPRGN              zGETCLIPRGN
 0005:0553 GETCURLOGFONT           zGETCURLOGFONT
 0001:1958 GetCurrentPosition      zGetCurrentPosition
 0001:19C4 GetCurrentPositionEx    zGetCurrentPositionEx
 0001:1A30 GetDCHook               zGetDCHook
 0001:1AA4 GetDCOrg                zGetDCOrg
 0005:0570 GETDCSTATE              zGETDCSTATE
 0007:1840 GetDeviceCaps           zGetDeviceCaps
 0001:1B10 GetDIBits               zGetDIBits
 0001:1BAE GetEnvironment          zGetEnvironment
 0001:1C2C GetFontData             zGetFontData
 0001:1CBE GetGlyphOutline         zGetGlyphOutline
 0001:1D6C GetKerningPairs         zGetKerningPairs
 0001:1DDE GetMapMode              zGetMapMode
 0003:01C0 GetMetaFile             zGetMetaFile
 0003:0228 GetMetaFileBits         zGetMetaFileBits
 0001:1E40 GetNearestColor         zGetNearestColor
 0001:1EBA GetNearestPaletteIndex  zGetNearestPaletteIndex
 0001:1F2A GetObject               zGetObject
 0001:1FA2 GetOutlineTextMetrics   zGetOutlineTextMetrics
 0001:2014 GetPaletteEntries       zGetPaletteEntries
 0005:058D GETPHYSICALFONTHANDLE   zGETPHYSICALFONTHANDLE
 0001:2094 GetPixel                zGetPixel
 0001:2110 GetPolyFillMode         zGetPolyFillMode
 0001:21D4 GetRasterizerCaps       zGetRasterizerCaps
 0001:2240 GETRELABS               zGetRelAbs
 0001:22A2 GetRgnBox               zGetRgnBox
 0001:2172 GetROP2                 zGetROP2
 0005:05AA GETSPOOLJOB             zGETSPOOLJOB
 0001:2312 GetStockObject          zGetStockObject
 0001:23D6 GetStretchBltMode       zGetStretchBltMode
 0001:2438 GetSystemPaletteEntries  zGetSystemPaletteEntries
 0001:24B8 GetSystemPaletteUse     zGetSystemPaletteUse
 0004:0000 GetTextAlign            zGetTextAlign
 0004:0062 GetTextCharacterExtra   zGetTextCharacterExtra
 0004:00C4 GetTextColor            zGetTextColor
 0004:0130 GetTextExtent           zGetTextExtent
 0001:251A GetTextExtentPoint      zGetTextExtentPoint
 0004:01B2 GetTextFace             zGetTextFace
 0004:022A GetTextMetrics          zGetTextMetrics
 0001:2596 GetViewportExt          zGetViewportExt
 0001:2602 GetViewportExtEx        zGetViewportExtEx
 0001:266E GetViewportOrg          zGetViewportOrg
 0001:26DA GetViewportOrgEx        zGetViewportOrgEx
 0001:2746 GetWindowExt            zGetWindowExt
 0001:27B2 GetWindowExtEx          zGetWindowExtEx
 0001:281E GetWindowOrg            zGetWindowOrg
 0001:288A GetWindowOrgEx          zGetWindowOrgEx
 0005:05C7 INQUIREVISRGN           zINQUIREVISRGN
 0005:05E4 INSERTPQ                zINSERTPQ
 0001:28F6 IntersectClipRect       zIntersectClipRect
 0005:0601 INTERSECTVISRECT        zINTERSECTVISRECT
 0001:2978 InvertRgn               zInvertRgn
 0005:061E ISDCCURRENTPALETTE      zISDCCURRENTPALETTE
 0005:063B ISDCDIRTY               zISDCDIRTY
 0001:29E2 IsGDIObject             zIsGDIObject
 0005:0658 ISVALIDMETAFILE         zISVALIDMETAFILE
 0001:2AC0 LineDDA                 zLineDDA
 0001:2B4A LineTo                  zLineTo
 0001:2A44 LPtoDP                  zLPtoDP
 0005:0675 MAKEOBJECTPRIVATE       zMAKEOBJECTPRIVATE
 0005:0692 MINPQ                   zMINPQ
 0001:2BBC MoveTo                  zMoveTo
 0001:2C38 MoveToEx                zMoveToEx
 0001:2CB2 MulDiv                  zMulDiv
 0001:2D24 OffsetClipRgn           zOffsetClipRgn
 0001:2D96 OffsetRgn               zOffsetRgn
 0001:2E08 OffsetViewportOrg       zOffsetViewportOrg
 0001:2E84 OffsetViewportOrgEx     zOffsetViewportOrgEx
 0005:06AF OFFSETVISRGN            zOFFSETVISRGN
 0001:2EFE OffsetWindowOrg         zOffsetWindowOrg
 0001:2F7A OffsetWindowOrgEx       zOffsetWindowOrgEx
 0005:06CC OPENJOB                 zOPENJOB
 0001:2FF4 PaintRgn                zPaintRgn
 0001:305E PatBlt                  zPatBlt
 0001:30EE Pie                     zPie
 0003:028A PlayMetaFile            zPlayMetaFile
 0003:02F4 PlayMetaFileRecord      zPlayMetaFileRecord
 0001:3216 Polygon                 zPolygon
 0001:328E Polyline                zPolyline
 0001:3190 PolyPolygon             zPolyPolygon
 0001:3306 PtInRegion              zPtInRegion
 0001:3378 PtVisible               zPtVisible
 0001:33EA QueryAbort              zQueryAbort
 0001:3452 QueryJob                zQueryJob
 0005:06E9 REALIZEDEFAULTPALETTE   zREALIZEDEFAULTPALETTE
 0001:359A Rectangle               zRectangle
 0001:34BA RectInRegion            zRectInRegion
 0005:0706 RECTINREGION_EHH        zRECTINREGION_EHH
 0001:352A RectVisible             zRectVisible
 0005:0723 RECTVISIBLE_EHH         zRECTVISIBLE_EHH
 0002:021E RemoveFontResource      zRemoveFontResource
 0007:1C62 RESETDC                 zResetDC
 0001:361C ResizePalette           zResizePalette
 0001:3686 RestoreDC               zRestoreDC
 0005:0740 RESTOREVISRGN           zRESTOREVISRGN
 0005:075D RESURRECTION            zRESURRECTION
 0001:36F0 RoundRect               zRoundRect
 0001:3782 SaveDC                  zSaveDC
 0005:077A SAVEVISRGN              zSAVEVISRGN
 0001:37E4 ScaleViewportExt        zScaleViewportExt
 0001:3870 ScaleViewportExtEx      zScaleViewportExtEx
 0001:38F8 ScaleWindowExt          zScaleWindowExt
 0001:3984 ScaleWindowExtEx        zScaleWindowExtEx
 0005:0797 SCANLR                  zSCANLR
 0005:07B4 SELECTBITMAP            zSELECTBITMAP
 0001:3A0C SelectClipRgn           zSelectClipRgn
 0001:3A76 SelectObject            zSelectObject
 0005:07D1 SELECTVISRGN            zSELECTVISRGN
 0001:3C32 SetAbortProc            zSetAbortProc
 0007:19D8 SetBitmapBits           zSetBitmapBits
 0001:3C9E SetBitmapDimension      zSetBitmapDimension
 0001:3D1A SetBitmapDimensionEx    zSetBitmapDimensionEx
 0001:3D94 SetBkColor              zSetBkColor
 0001:3E0E SetBkMode               zSetBkMode
 0001:3E78 SetBoundsRect           zSetBoundsRect
 0001:3EEA SetBrushOrg             zSetBrushOrg
 0001:3F66 SetDCHook               zSetDCHook
 0001:3FDC SetDCOrg                zSetDCOrg
 0005:07EE SETDCSTATE              zSETDCSTATE
 0005:080B SETDCSTATUS             zSETDCSTATUS
 0001:4054 SetDIBits               zSetDIBits
 0001:40F2 SetDIBitsToDevice       zSetDIBitsToDevice
 0001:41B8 SetEnvironment          zSetEnvironment
 0001:4236 SetHookFlags            zSetHookFlags
 0001:429E SetMapMode              zSetMapMode
 0001:4308 SetMapperFlags          zSetMapperFlags
 0003:036E SetMetaFileBits         zSetMetaFileBits
 0001:4382 SetMetaFileBitsBetter   zSetMetaFileBitsBetter
 0005:0828 SETOBJECTOWNER          zSETOBJECTOWNER
 0001:43E4 SetPaletteEntries       zSetPaletteEntries
 0001:4464 SetPixel                zSetPixel
 0001:44EE SetPolyFillMode         zSetPolyFillMode
 0001:45C2 SetRectRgn              zSetRectRgn
 0001:4638 SetRelAbs               zSetRelAbs
 0001:4558 SetROP2                 zSetROP2
 0001:46A2 SetStretchBltMode       zSetStretchBltMode
 0001:470C SetSystemPaletteUse     zSetSystemPaletteUse
 0004:029A SetTextAlign            zSetTextAlign
 0004:0304 SetTextCharacterExtra   zSetTextCharacterExtra
 0004:036E SetTextColor            zSetTextColor
 0004:03E8 SetTextJustification    zSetTextJustification
 0001:4776 SetViewportExt          zSetViewportExt
 0001:47F2 SetViewportExtEx        zSetViewportExtEx
 0001:486C SetViewportOrg          zSetViewportOrg
 0001:48E8 SetViewportOrgEx        zSetViewportOrgEx
 0001:4962 SetWindowExt            zSetWindowExt
 0001:49DE SetWindowExtEx          zSetWindowExtEx
 0001:4A58 SetWindowOrg            zSetWindowOrg
 0001:4AD4 SetWindowOrgEx          zSetWindowOrgEx
 0005:0845 SHRINKGDIHEAP           zSHRINKGDIHEAP
 0005:0862 SIZEPQ                  zSIZEPQ
 0001:4B4E SpoolFile               zSpoolFile
 0001:4BD0 StartDoc                zStartDoc
 0001:4C3C StartPage               zStartPage
 0005:087F STARTSPOOLPAGE          zSTARTSPOOLPAGE
 0001:4C9E StretchBlt              zStretchBlt
 0001:4D56 StretchDIBits           zStretchDIBits
 0004:045A TextOut                 zTextOut
 0005:089C UNICODETOANSI           zUNICODETOANSI
 0001:4E2A UnrealizeObject         zUnrealizeObject
 0001:4E8C UpdateColors            zUpdateColors
 0005:08B9 WRITEDIALOG             zWRITEDIALOG
 0005:08D6 WRITESPOOL              zWRITESPOOL
 0009:0578 ___ExportedStub         ___ExportedStub

  Address         Publics by Name

 0000:0000  Imp  AbortDoc             (GDI.382)
 0000:0000  Imp  AddFontResource      (GDI.119)
 0000:0000  Imp  AnimatePalette       (GDI.367)
 0000:0000  Imp  Arc                  (GDI.23)
 0000:0000  Imp  BitBlt               (GDI.34)
 0000:0000  Imp  BRUTE                (GDI.213)
 0000:0000  Imp  CALLWINDOWPROC       (USER.122)
 0000:0000  Imp  Chord                (GDI.348)
 0000:0000  Imp  CLOSEJOB             (GDI.243)
 0000:0000  Imp  CloseMetaFile        (GDI.126)
 0000:0000  Imp  CombineRgn           (GDI.47)
 0000:0000  Imp  CopyMetaFile         (GDI.151)
 0000:0000  Imp  CreateBitmap         (GDI.48)
 0000:0000  Imp  CreateBitmapIndirect (GDI.49)
 0000:0000  Imp  CreateBrushIndirect  (GDI.50)
 0000:0000  Imp  CreateCompatibleBitmap (GDI.51)
 0000:0000  Imp  CreateCompatibleDC   (GDI.52)
 0000:0000  Imp  CreateDC             (GDI.53)
 0000:0000  Imp  CREATEDIALOG         (USER.89)
 0000:0000  Imp  CREATEDIALOGINDIRECT (USER.219)
 0000:0000  Imp  CREATEDIALOGINDIRECTPARAM (USER.242)
 0000:0000  Imp  CREATEDIALOGPARAM    (USER.241)
 0000:0000  Imp  CreateDIBitmap       (GDI.442)
 0000:0000  Imp  CreateDIBPatternBrush (GDI.445)
 0000:0000  Imp  CreateDiscardableBitmap (GDI.156)
 0000:0000  Imp  CreateEllipticRgn    (GDI.54)
 0000:0000  Imp  CreateEllipticRgnIndirect (GDI.55)
 0000:0000  Imp  CreateFont           (GDI.56)
 0000:0000  Imp  CreateFontIndirect   (GDI.57)
 0000:0000  Imp  CreateHatchBrush     (GDI.58)
 0000:0000  Imp  CreateIC             (GDI.153)
 0000:0000  Imp  CreateMetaFile       (GDI.125)
 0000:0000  Imp  CreatePalette        (GDI.360)
 0000:0000  Imp  CreatePatternBrush   (GDI.60)
 0000:0000  Imp  CreatePen            (GDI.61)
 0000:0000  Imp  CreatePenIndirect    (GDI.62)
 0000:0000  Imp  CreatePolygonRgn     (GDI.63)
 0000:0000  Imp  CreatePolyPolygonRgn (GDI.451)
 0000:0000  Imp  CREATEPQ             (GDI.230)
 0000:0000  Imp  CreateRectRgn        (GDI.64)
 0000:0000  Imp  CreateRectRgnIndirect (GDI.65)
 0000:0000  Imp  CreateRoundRectRgn   (GDI.444)
 0000:0000  Imp  CreateScalableFontResource (GDI.310)
 0000:0000  Imp  CreateSolidBrush     (GDI.66)
 0000:0000  Imp  CREATEUSERBITMAP     (GDI.407)
 0000:0000  Imp  DeleteDC             (GDI.68)
 0000:0000  Imp  DELETEJOB            (GDI.244)
 0000:0000  Imp  DeleteMetaFile       (GDI.127)
 0000:0000  Imp  DeleteObject         (GDI.69)
 0000:0000  Imp  DELETEPQ             (GDI.235)
 0000:0000  Imp  DELETESPOOLPAGE      (GDI.253)
 0000:0000  Imp  DIALOGBOX            (USER.87)
 0000:0000  Imp  DIALOGBOXINDIRECT    (USER.218)
 0000:0000  Imp  DIALOGBOXINDIRECTPARAM (USER.240)
 0000:0000  Imp  DIALOGBOXPARAM       (USER.239)
 0007:008E       DLGMESGPROC
 0000:0000  Imp  DMBITBLT             (GDI.201)
 0000:0000  Imp  DMCOLORINFO          (GDI.202)
 0000:0000  Imp  DMDIBBITS            (GDI.217)
 0000:0000  Imp  DMENUMDFONTS         (GDI.206)
 0000:0000  Imp  DMENUMOBJ            (GDI.207)
 0000:0000  Imp  DMEXTTEXTOUT         (GDI.214)
 0000:0000  Imp  DMGETCHARWIDTH       (GDI.215)
 0000:0000  Imp  DMOUTPUT             (GDI.208)
 0000:0000  Imp  DMPIXEL              (GDI.209)
 0000:0000  Imp  DMREALIZEOBJECT      (GDI.210)
 0000:0000  Imp  DMSCANLR             (GDI.212)
 0000:0000  Imp  DMSETDIBTODEV        (GDI.219)
 0000:0000  Imp  DMSTRBLT             (GDI.211)
 0000:0000  Imp  DMSTRETCHBLT         (GDI.216)
 0000:0000  Imp  DMSTRETCHDIBITS      (GDI.218)
 0000:0000  Imp  DMTRANSPOSE          (GDI.220)
 0000:0000  Imp  DOS3CALL             (KERNEL.102)
 0000:0000  Imp  DPtoLP               (GDI.67)
 0000:0000  Imp  Ellipse              (GDI.24)
 0000:0000  Imp  EndDoc               (GDI.378)
 0000:0000  Imp  EndPage              (GDI.380)
 0000:0000  Imp  ENDSPOOLPAGE         (GDI.247)
 0007:0EC4       EnumBrushes
 0000:0000  Imp  EnumFontFamilies     (GDI.330)
 0000:0000  Imp  EnumFonts            (GDI.70)
 0000:0000  Imp  EnumMetaFile         (GDI.175)
 0000:0000  Imp  EnumObjects          (GDI.71)
 0007:0E48       EnumPens
 0007:1264       ENUMTASKWIN
 0000:0000  Imp  ENUMTASKWINDOWS      (USER.225)
 0000:0000  Imp  EqualRgn             (GDI.72)
 0000:0000  Imp  Escape               (GDI.38)
 0000:0000  Imp  ExcludeClipRect      (GDI.21)
 0000:0000  Imp  ExtFloodFill         (GDI.372)
 0000:0000  Imp  EXTRACTPQ            (GDI.232)
 0000:0000  Imp  ExtTextOut           (GDI.351)
 0007:1132       FamilyCounter
 0000:0000  Imp  FATALAPPEXIT         (KERNEL.137)
 0000:0000  Imp  FATALEXIT            (KERNEL.1)
 0000:0000  Imp  FillRgn              (GDI.40)
 0000:0000  Imp  FloodFill            (GDI.25)
 0007:0FF4       FontCounter
 0000:0000  Imp  FrameRgn             (GDI.41)
 0000:0000  Imp  GetAspectRatioFilter (GDI.353)
 0000:0000  Imp  GetAspectRatioFilterEx (GDI.486)
 0000:0000  Imp  GetBitmapBits        (GDI.74)
 0000:0000  Imp  GetBitmapDimension   (GDI.162)
 0000:0000  Imp  GetBitmapDimensionEx (GDI.468)
 0000:0000  Imp  GetBkColor           (GDI.75)
 0000:0000  Imp  GetBkMode            (GDI.76)
 0000:0000  Imp  GetBoundsRect        (GDI.194)
 0000:0000  Imp  GetBrushOrg          (GDI.149)
 0000:0000  Imp  GetBrushOrgEx        (GDI.469)
 0000:0000  Imp  GetCharABCWidths     (GDI.307)
 0000:0000  Imp  GetCharWidth         (GDI.350)
 0000:0000  Imp  GetClipBox           (GDI.77)
 0000:0000  Imp  GetCurrentPosition   (GDI.78)
 0000:0000  Imp  GetCurrentPositionEx (GDI.470)
 0000:0000  Imp  GetDCOrg             (GDI.79)
 0000:0000  Imp  GetDeviceCaps        (GDI.80)
 0000:0000  Imp  GetDIBits            (GDI.441)
 0000:0000  Imp  GETDOSENVIRONMENT    (KERNEL.131)
 0000:0000  Imp  GetEnvironment       (GDI.133)
 0000:0000  Imp  GetFontData          (GDI.311)
 0000:0000  Imp  GetGlyphOutline      (GDI.309)
 0000:0000  Imp  GetKerningPairs      (GDI.332)
 0000:0000  Imp  GETKEYBOARDSTATE     (USER.222)
 0000:0000  Imp  GETLOGINFO           (PARMPROF.8)
 0000:0000  Imp  GetMapMode           (GDI.81)
 0000:0000  Imp  GetMetaFile          (GDI.124)
 0000:0000  Imp  GetMetaFileBits      (GDI.159)
 0000:0000  Imp  GETMODULEUSAGE       (KERNEL.48)
 0000:0000  Imp  GetNearestColor      (GDI.154)
 0000:0000  Imp  GetNearestPaletteIndex (GDI.370)
 0000:0000  Imp  GetObject            (GDI.82)
 0000:0000  Imp  GetOutlineTextMetrics (GDI.308)
 0000:0000  Imp  GetPaletteEntries    (GDI.363)
 0000:0000  Imp  GetPixel             (GDI.83)
 0000:0000  Imp  GetPolyFillMode      (GDI.84)
 0000:0000  Imp  GetRasterizerCaps    (GDI.313)
 0000:0000  Imp  GETRELABS            (GDI.86)
 0000:0000  Imp  GetRgnBox            (GDI.134)
 0000:0000  Imp  GetROP2              (GDI.85)
 0000:0000  Imp  GETSPOOLJOB          (GDI.245)
 0000:0000  Imp  GetStockObject       (GDI.87)
 0000:0000  Imp  GetStretchBltMode    (GDI.88)
 0000:0000  Imp  GetSystemPaletteEntries (GDI.375)
 0000:0000  Imp  GetSystemPaletteUse  (GDI.374)
 0000:0000  Imp  GetTextAlign         (GDI.345)
 0000:0000  Imp  GetTextCharacterExtra (GDI.89)
 0000:0000  Imp  GetTextColor         (GDI.90)
 0000:0000  Imp  GetTextExtent        (GDI.91)
 0000:0000  Imp  GetTextExtentPoint   (GDI.471)
 0000:0000  Imp  GetTextFace          (GDI.92)
 0000:0000  Imp  GetTextMetrics       (GDI.93)
 0000:0000  Imp  GETVERSION           (KERNEL.3)
 0000:0000  Imp  GetViewportExt       (GDI.94)
 0000:0000  Imp  GetViewportExtEx     (GDI.472)
 0000:0000  Imp  GetViewportOrg       (GDI.95)
 0000:0000  Imp  GetViewportOrgEx     (GDI.473)
 0000:0000  Imp  GetWindowExt         (GDI.96)
 0000:0000  Imp  GetWindowExtEx       (GDI.474)
 0000:0000  Imp  GetWindowOrg         (GDI.97)
 0000:0000  Imp  GetWindowOrgEx       (GDI.475)
 0000:0000  Imp  GLOBALREALLOC        (KERNEL.16)
 0000:0000  Imp  GLOBALSIZE           (KERNEL.20)
 0006:0069       HOOKCALL
 000B:396A       HookCount
 000B:396C       HookTable
 0000:0000  Imp  INITTASK             (KERNEL.91)
 0000:0000  Imp  INSERTPQ             (GDI.233)
 0000:0000  Imp  IntersectClipRect    (GDI.22)
 0000:0000  Imp  InvertRgn            (GDI.42)
 0000:0000  Imp  IsGDIObject          (GDI.462)
 0008:0000       LibEntry
 0000:0000  Imp  LineDDA              (GDI.100)
 0000:0000  Imp  LineTo               (GDI.19)
 0000:0000  Imp  LOCALALLOC           (KERNEL.5)
 0000:0000  Imp  LOCALFREE            (KERNEL.7)
 0000:0000  Imp  LocalInit            (KERNEL.4)
 0000:0000  Imp  LOCALREALLOC         (KERNEL.6)
 0000:0000  Imp  LOCALSIZE            (KERNEL.10)
 0000:0000  Imp  LOCKSEGMENT          (KERNEL.23)
 0000:0000  Imp  LPtoDP               (GDI.99)
 0007:0000       MESGPROC
 0000:0000  Imp  MINPQ                (GDI.231)
 0000:0000  Imp  MoveTo               (GDI.20)
 0000:0000  Imp  MoveToEx             (GDI.483)
 0000:0000  Imp  MulDiv               (GDI.128)
 0000:0000  Imp  OffsetClipRgn        (GDI.32)
 0000:0000  Imp  OffsetRgn            (GDI.101)
 0000:0000  Imp  OffsetViewportOrg    (GDI.17)
 0000:0000  Imp  OffsetViewportOrgEx  (GDI.476)
 0000:0000  Imp  OffsetWindowOrg      (GDI.15)
 0000:0000  Imp  OffsetWindowOrgEx    (GDI.477)
 0000:0000  Imp  OPENJOB              (GDI.240)
 0000:0000  Imp  PaintRgn             (GDI.43)
 0000:0000  Imp  PatBlt               (GDI.29)
 0000:0008  Abs  pAtomTable
 0000:0000  Imp  Pie                  (GDI.26)
 0000:0000  Imp  PlayMetaFile         (GDI.123)
 0000:0000  Imp  PlayMetaFileRecord   (GDI.176)
 0000:0006  Abs  pLocalHeap
 0000:0000  Imp  Polygon              (GDI.36)
 0000:0000  Imp  Polyline             (GDI.37)
 0000:0000  Imp  PolyPolygon          (GDI.450)
 0000:000E  Abs  pStackBot
 0000:000C  Abs  pStackMin
 0000:000A  Abs  pStackTop
 0000:0000  Imp  PtInRegion           (GDI.161)
 0000:0000  Imp  PtVisible            (GDI.103)
 0000:0000  Imp  QueryAbort           (GDI.155)
 0000:0000  Imp  Rectangle            (GDI.27)
 0000:0000  Imp  RectInRegion         (GDI.181)
 0000:0000  Imp  RECTINREGION_EHH     (GDI.466)
 0000:0000  Imp  RectVisible          (GDI.104)
 0000:0000  Imp  RECTVISIBLE_EHH      (GDI.465)
 0000:0000  Imp  REGISTERCLASS        (USER.57)
 0000:0000  Imp  RemoveFontResource   (GDI.136)
 0000:0000  Imp  RESETDC              (GDI.376)
 0000:0000  Imp  ResizePalette        (GDI.368)
 0000:0000  Imp  RestoreDC            (GDI.39)
 0000:0000  Imp  RoundRect            (GDI.28)
 000B:0004       rsrvptrs
 0000:0000  Imp  SaveDC               (GDI.30)
 0000:0000  Imp  ScaleViewportExt     (GDI.18)
 0000:0000  Imp  ScaleViewportExtEx   (GDI.484)
 0000:0000  Imp  ScaleWindowExt       (GDI.16)
 0000:0000  Imp  ScaleWindowExtEx     (GDI.485)
 0000:0000  Imp  SelectClipRgn        (GDI.44)
 0000:0000  Imp  SelectObject         (GDI.45)
 0000:0000  Imp  SetAbortProc         (GDI.381)
 0000:0000  Imp  SetBitmapBits        (GDI.106)
 0000:0000  Imp  SetBitmapDimension   (GDI.163)
 0000:0000  Imp  SetBitmapDimensionEx (GDI.478)
 0000:0000  Imp  SetBkColor           (GDI.1)
 0000:0000  Imp  SetBkMode            (GDI.2)
 0000:0000  Imp  SetBoundsRect        (GDI.193)
 0000:0000  Imp  SetBrushOrg          (GDI.148)
 0000:0000  Imp  SetDIBits            (GDI.440)
 0000:0000  Imp  SetDIBitsToDevice    (GDI.443)
 0000:0000  Imp  SetEnvironment       (GDI.132)
 0000:0000  Imp  SETKEYBOARDSTATE     (USER.223)
 0000:0000  Imp  SetMapMode           (GDI.3)
 0000:0000  Imp  SetMapperFlags       (GDI.349)
 0000:0000  Imp  SetMetaFileBits      (GDI.160)
 0000:0000  Imp  SetMetaFileBitsBetter (GDI.196)
 0000:0000  Imp  SETOBJECTOWNER       (GDI.461)
 0000:0000  Imp  SetPaletteEntries    (GDI.364)
 0000:0000  Imp  SetPixel             (GDI.31)
 0000:0000  Imp  SetPolyFillMode      (GDI.6)
 0000:0000  Imp  SETRECT              (USER.72)
 0000:0000  Imp  SETRECTEMPTY         (USER.73)
 0000:0000  Imp  SetRectRgn           (GDI.172)
 0000:0000  Imp  SetROP2              (GDI.4)
 0000:0000  Imp  SetStretchBltMode    (GDI.7)
 0000:0000  Imp  SetSystemPaletteUse  (GDI.373)
 0000:0000  Imp  SetTextAlign         (GDI.346)
 0000:0000  Imp  SetTextCharacterExtra (GDI.8)
 0000:0000  Imp  SetTextColor         (GDI.9)
 0000:0000  Imp  SetTextJustification (GDI.10)
 0000:0000  Imp  SETTIMER             (USER.10)
 0000:0000  Imp  SetViewportExt       (GDI.14)
 0000:0000  Imp  SetViewportExtEx     (GDI.479)
 0000:0000  Imp  SetViewportOrg       (GDI.13)
 0000:0000  Imp  SetViewportOrgEx     (GDI.480)
 0000:0000  Imp  SetWindowExt         (GDI.12)
 0000:0000  Imp  SetWindowExtEx       (GDI.481)
 0000:0000  Imp  SETWINDOWLONG        (USER.136)
 0000:0000  Imp  SetWindowOrg         (GDI.11)
 0000:0000  Imp  SetWindowOrgEx       (GDI.482)
 0000:0000  Imp  SETWINDOWSHOOK       (USER.121)
 0000:0000  Imp  SIZEPQ               (GDI.234)
 0000:0000  Imp  SpoolFile            (GDI.254)
 0000:0000  Imp  StartDoc             (GDI.377)
 0000:0000  Imp  StartPage            (GDI.379)
 0000:0000  Imp  STARTSPOOLPAGE       (GDI.246)
 0000:0000  Imp  StretchBlt           (GDI.35)
 0000:0000  Imp  StretchDIBits        (GDI.439)
 0000:0000  Imp  TextOut              (GDI.33)
 0007:1464       TIMERRTN
 0000:0000  Imp  UNHOOKWINDOWSHOOK    (USER.234)
 0000:0000  Imp  UNLOCKSEGMENT        (KERNEL.24)
 0000:0000  Imp  UnrealizeObject      (GDI.150)
 0000:0000  Imp  UpdateColors         (GDI.366)
 000A:0000       WEP
 0007:0702       WH_CALLWNDPROCHOOK
 0007:0AAC       WH_CBTHOOK
 0007:0BB8       WH_DEBUGHOOK
 0007:0788       WH_GETMESSAGEHOOK
 0007:080E       WH_JOURNALPLAYBACKHOOK
 0007:0894       WH_JOURNALRECORDHOOK
 0007:091A       WH_KEYBOARDHOOK
 0007:0B32       WH_MOUSEHOOK
 0007:09A0       WH_MSGFILTERHOOK
 0007:0A26       WH_SYSMSGFILTERHOOK
 0000:0000  Imp  WRITEDIALOG          (GDI.242)
 0000:0000  Imp  WRITESPOOL           (GDI.241)
 0001:0000       zAbortDoc
 0002:0000       zAddFontResource
 0001:0062       zAnimatePalette
 0001:00D6       zArc
 0001:0178       zBitBlt
 0005:0000       zBRUTE
 0007:1CD2       ZCALLWINDOWPROC
 0001:0220       zChord
 0005:001D       zCLOSEJOB
 0003:0000       zCloseMetaFile
 0001:02C2       zCombineRgn
 0001:033C       zConvertOutlineFontFile
 0005:003A       zCOPY
 0003:0062       zCopyMetaFile
 0001:03BE       zCreateBitmap
 0001:0446       zCreateBitmapIndirect
 0001:04AE       zCreateBrushIndirect
 0001:0516       zCreateCompatibleBitmap
 0001:0588       zCreateCompatibleDC
 0007:18B4       zCreateDC
 0007:01A6       ZCREATEDIALOG
 0007:024C       ZCREATEDIALOGINDIRECT
 0007:02F2       ZCREATEDIALOGINDIRECTPARAM
 0007:03A6       ZCREATEDIALOGPARAM
 0001:0654       zCreateDIBitmap
 0001:05EA       zCreateDIBPatternBrush
 0001:06F6       zCreateDiscardableBitmap
 0001:0768       zCreateEllipticRgn
 0001:07E2       zCreateEllipticRgnIndirect
 0002:0068       zCreateFont
 0002:014A       zCreateFontIndirect
 0001:084A       zCreateHatchBrush
 0007:1946       zCreateIC
 0003:00D2       zCreateMetaFile
 0001:08B6       zCreatePalette
 0001:091E       zCreatePatternBrush
 0001:0980       zCreatePen
 0001:09F8       zCreatePenIndirect
 0001:0AE6       zCreatePolygonRgn
 0001:0A60       zCreatePolyPolygonRgn
 0005:0057       zCREATEPQ
 0001:0B5E       zCreateRectRgn
 0001:0BD8       zCreateRectRgnIndirect
 0001:0C40       zCreateRoundRectRgn
 0001:0CCA       zCreateScalableFontResource
 0001:0D4A       zCreateSolidBrush
 0005:0074       zCREATEUSERBITMAP
 0005:0091       zCREATEUSERDISCARDABLEBITMAP
 0005:00AE       zDEATH
 0001:0E2E       zDeleteDC
 0005:00CB       zDELETEJOB
 0001:0E90       zDeleteMetaFile
 0001:0EF2       zDeleteObject
 0005:00E8       zDELETEPQ
 0005:0105       zDELETESPOOLPAGE
 0005:0122       zDEVICECOLORMATCH
 0007:045A       ZDIALOGBOX
 0007:0500       ZDIALOGBOXINDIRECT
 0007:05A0       ZDIALOGBOXINDIRECTPARAM
 0007:064E       ZDIALOGBOXPARAM
 0005:013F       zDMBITBLT
 0005:015C       zDMCOLORINFO
 0005:0179       zDMDIBBITS
 0005:0196       zDMENUMDFONTS
 0005:01B3       zDMENUMOBJ
 0005:01D0       zDMEXTTEXTOUT
 0005:01ED       zDMGETCHARWIDTH
 0005:020A       zDMOUTPUT
 0005:0227       zDMPIXEL
 0005:0244       zDMREALIZEOBJECT
 0005:0261       zDMSCANLR
 0005:027E       zDMSETDIBTODEV
 0005:029B       zDMSTRBLT
 0005:02B8       zDMSTRETCHBLT
 0005:02D5       zDMSTRETCHDIBITS
 0005:02F2       zDMTRANSPOSE
 0001:0DB2       zDPtoLP
 0001:0F54       zEllipse
 0001:0FD6       zEndDoc
 0001:1038       zEndPage
 0005:030F       zENDSPOOLPAGE
 0005:032C       zENGINEDELETEFONT
 0005:0349       zENGINEENUMERATEFONT
 0005:0366       zENGINEEXTTEXTOUT
 0005:0383       zENGINEGETCHARWIDTH
 0005:03A0       zENGINEGETGLYPHBMP
 0001:109A       zEngineMakeFontDir
 0005:03BD       zENGINEREALIZEFONT
 0005:03DA       zENGINESETFONTCONTEXT
 0007:11CA       zEnumFontFamilies
 0007:108C       zEnumFonts
 0003:013A       zEnumMetaFile
 0007:0F40       zEnumObjects
 0007:12D8       ZENUMTASKWINDOWS
 0001:1118       zEqualRgn
 0007:158C       zEscape
 0001:1182       zExcludeClipRect
 0005:03F7       zEXCLUDEVISRECT
 0001:1204       zExtFloodFill
 0005:0414       zEXTRACTPQ
 0007:1BB2       zExtTextOut
 0001:128C       zFastWindowFrame
 0001:1310       zFillRgn
 0005:0431       zFINALGDIINIT
 0005:044E       zFIXUPBOGUSPUBLISHERMETAFILE
 0001:1382       zFloodFill
 0001:1402       zFrameRgn
 0005:046B       zFTRAPPING0
 0005:0488       zGDIINIT2
 0005:04A5       zGDIMOVEBITMAP
 0005:04C2       zGDIREALIZEPALETTE
 0005:04DF       zGDISEEGDIDO
 0005:04FC       zGDISELECTPALETTE
 0005:0519       zGDITASKTERMINATION
 0002:01B2       zGetAspectRatioFilter
 0001:1484       zGetAspectRatioFilterEx
 0001:14F0       zGetBitmapBits
 0001:157E       zGetBitmapDimension
 0001:15EA       zGetBitmapDimensionEx
 0001:1656       zGetBkColor
 0001:16C2       zGetBkMode
 0001:1724       zGetBoundsRect
 0001:1796       zGetBrushOrg
 0001:1802       zGetBrushOrgEx
 0001:186E       zGetCharABCWidths
 0007:1B2A       zGetCharWidth
 0001:18E8       zGetClipBox
 0005:0536       zGETCLIPRGN
 0005:0553       zGETCURLOGFONT
 0001:1958       zGetCurrentPosition
 0001:19C4       zGetCurrentPositionEx
 0001:1A30       zGetDCHook
 0001:1AA4       zGetDCOrg
 0005:0570       zGETDCSTATE
 0007:1840       zGetDeviceCaps
 0001:1B10       zGetDIBits
 0001:1BAE       zGetEnvironment
 0001:1C2C       zGetFontData
 0001:1CBE       zGetGlyphOutline
 0001:1D6C       zGetKerningPairs
 0007:1A66       ZGETKEYBOARDSTATE
 0001:1DDE       zGetMapMode
 0003:01C0       zGetMetaFile
 0003:0228       zGetMetaFileBits
 0001:1E40       zGetNearestColor
 0001:1EBA       zGetNearestPaletteIndex
 0001:1F2A       zGetObject
 0001:1FA2       zGetOutlineTextMetrics
 0001:2014       zGetPaletteEntries
 0005:058D       zGETPHYSICALFONTHANDLE
 0001:2094       zGetPixel
 0001:2110       zGetPolyFillMode
 0001:21D4       zGetRasterizerCaps
 0001:2240       zGetRelAbs
 0001:22A2       zGetRgnBox
 0001:2172       zGetROP2
 0005:05AA       zGETSPOOLJOB
 0001:2312       zGetStockObject
 0001:23D6       zGetStretchBltMode
 0001:2438       zGetSystemPaletteEntries
 0001:24B8       zGetSystemPaletteUse
 0004:0000       zGetTextAlign
 0004:0062       zGetTextCharacterExtra
 0004:00C4       zGetTextColor
 0004:0130       zGetTextExtent
 0001:251A       zGetTextExtentPoint
 0004:01B2       zGetTextFace
 0004:022A       zGetTextMetrics
 0001:2596       zGetViewportExt
 0001:2602       zGetViewportExtEx
 0001:266E       zGetViewportOrg
 0001:26DA       zGetViewportOrgEx
 0001:2746       zGetWindowExt
 0001:27B2       zGetWindowExtEx
 0001:281E       zGetWindowOrg
 0001:288A       zGetWindowOrgEx
 0005:05C7       zINQUIREVISRGN
 0005:05E4       zINSERTPQ
 0001:28F6       zIntersectClipRect
 0005:0601       zINTERSECTVISRECT
 0001:2978       zInvertRgn
 0005:061E       zISDCCURRENTPALETTE
 0005:063B       zISDCDIRTY
 0001:29E2       zIsGDIObject
 0005:0658       zISVALIDMETAFILE
 0001:2AC0       zLineDDA
 0001:2B4A       zLineTo
 0001:2A44       zLPtoDP
 0005:0675       zMAKEOBJECTPRIVATE
 0005:0692       zMINPQ
 0001:2BBC       zMoveTo
 0001:2C38       zMoveToEx
 0001:2CB2       zMulDiv
 0001:2D24       zOffsetClipRgn
 0001:2D96       zOffsetRgn
 0001:2E08       zOffsetViewportOrg
 0001:2E84       zOffsetViewportOrgEx
 0005:06AF       zOFFSETVISRGN
 0001:2EFE       zOffsetWindowOrg
 0001:2F7A       zOffsetWindowOrgEx
 0005:06CC       zOPENJOB
 0001:2FF4       zPaintRgn
 0001:305E       zPatBlt
 0001:30EE       zPie
 0003:028A       zPlayMetaFile
 0003:02F4       zPlayMetaFileRecord
 0001:3216       zPolygon
 0001:328E       zPolyline
 0001:3190       zPolyPolygon
 0001:3306       zPtInRegion
 0001:3378       zPtVisible
 0001:33EA       zQueryAbort
 0001:3452       zQueryJob
 0005:06E9       zREALIZEDEFAULTPALETTE
 0001:359A       zRectangle
 0001:34BA       zRectInRegion
 0005:0706       zRECTINREGION_EHH
 0001:352A       zRectVisible
 0005:0723       zRECTVISIBLE_EHH
 0007:0116       ZREGISTERCLASS
 0002:021E       zRemoveFontResource
 0007:1C62       zResetDC
 0001:361C       zResizePalette
 0001:3686       zRestoreDC
 0005:0740       zRESTOREVISRGN
 0005:075D       zRESURRECTION
 0001:36F0       zRoundRect
 0001:3782       zSaveDC
 0005:077A       zSAVEVISRGN
 0001:37E4       zScaleViewportExt
 0001:3870       zScaleViewportExtEx
 0001:38F8       zScaleWindowExt
 0001:3984       zScaleWindowExtEx
 0005:0797       zSCANLR
 0005:07B4       zSELECTBITMAP
 0001:3A0C       zSelectClipRgn
 0001:3A76       zSelectObject
 0005:07D1       zSELECTVISRGN
 0001:3C32       zSetAbortProc
 0007:19D8       zSetBitmapBits
 0001:3C9E       zSetBitmapDimension
 0001:3D1A       zSetBitmapDimensionEx
 0001:3D94       zSetBkColor
 0001:3E0E       zSetBkMode
 0001:3E78       zSetBoundsRect
 0001:3EEA       zSetBrushOrg
 0001:3F66       zSetDCHook
 0001:3FDC       zSetDCOrg
 0005:07EE       zSETDCSTATE
 0005:080B       zSETDCSTATUS
 0001:4054       zSetDIBits
 0001:40F2       zSetDIBitsToDevice
 0001:41B8       zSetEnvironment
 0001:4236       zSetHookFlags
 0007:1AC8       ZSETKEYBOARDSTATE
 0001:429E       zSetMapMode
 0001:4308       zSetMapperFlags
 0003:036E       zSetMetaFileBits
 0001:4382       zSetMetaFileBitsBetter
 0005:0828       zSETOBJECTOWNER
 0001:43E4       zSetPaletteEntries
 0001:4464       zSetPixel
 0001:44EE       zSetPolyFillMode
 0001:45C2       zSetRectRgn
 0001:4638       zSetRelAbs
 0001:4558       zSetROP2
 0001:46A2       zSetStretchBltMode
 0001:470C       zSetSystemPaletteUse
 0004:029A       zSetTextAlign
 0004:0304       zSetTextCharacterExtra
 0004:036E       zSetTextColor
 0004:03E8       zSetTextJustification
 0007:14EA       ZSETTIMER
 0001:4776       zSetViewportExt
 0001:47F2       zSetViewportExtEx
 0001:486C       zSetViewportOrg
 0001:48E8       zSetViewportOrgEx
 0001:4962       zSetWindowExt
 0001:49DE       zSetWindowExtEx
 0007:1370       ZSETWINDOWLONG
 0001:4A58       zSetWindowOrg
 0001:4AD4       zSetWindowOrgEx
 0007:0C3E       ZSETWINDOWSHOOK
 0005:0845       zSHRINKGDIHEAP
 0005:0862       zSIZEPQ
 0001:4B4E       zSpoolFile
 0001:4BD0       zStartDoc
 0001:4C3C       zStartPage
 0005:087F       zSTARTSPOOLPAGE
 0001:4C9E       zStretchBlt
 0001:4D56       zStretchDIBits
 0004:045A       zTextOut
 0007:0DB4       ZUNHOOKWINDOWSHOOK
 0005:089C       zUNICODETOANSI
 0001:4E2A       zUnrealizeObject
 0001:4E8C       zUpdateColors
 0005:08B9       zWRITEDIALOG
 0005:08D6       zWRITESPOOL
 000B:4EC7       _aseghi
 000B:4EC5       _aseglo
 000B:5004       _edata
 000B:5004       _end
 000B:4EDC       _errno
 0006:0034       _GrovelDS
 0006:05BD       _HookAdd
 0006:0655       _HookFind
 0006:0090       _HookProc
 0006:0117       _Hooks
 0006:0566       _HookSearch
 0006:0517       _IsHook
 0000:0000  Imp  _LogData             (PARMPROF.4)
 0000:0000  Imp  _LogIn               (PARMPROF.2)
 0000:0000  Imp  _LogOut              (PARMPROF.3)
 0006:0019       _RestoreRegs
 0006:0000       _SaveRegs
 000B:4EB8       _STKHQQ
 0006:004F       _UnGrovelDS
 0000:9876  Abs  __acrtmsg
 0000:9876  Abs  __acrtused
 0000:D6D6  Abs  __aDBdoswp
 000B:4F0C       __adbgmsg
 0000:D6D6  Abs  __aDBused
 000B:4ECE       __aintdiv
 000B:4F10       __amblksiz
 0009:0316       __amsg_exit
 0009:0054       __astart
 0009:016A       __cexit
 000B:4F09       __child
 0009:0122       __cinit
 0009:030C       __cintDIV
 000B:4EE5       __cpumode
 0009:01CC       __ctermsub
 0009:017B       __c_exit
 000B:4EC4       __dllinit
 000B:4EE6       __doserrno
 000B:4EE2       __dosmajor
 000B:4EE3       __dosminor
 000B:4EE2       __dosversion
 000B:5004       __edata
 000B:5004       __end
 000B:4F02       __environ
 000B:4F0B       __exitflag
 000B:4ED2       __fac
 0009:01EE       __FF_MSGBANNER
 0009:044F       __findlast
 000B:4F18       __fpinit
 0000:9876  Abs  __fptaskdata
 0009:02D6       __fptrap
 0009:0470       __GetDGROUP
 0009:0358       __growseg
 000B:4EBA       __hModule
 0009:03E9       __incseg
 000B:4EC0       __lpszCmdLine
 0009:02DC       __myalloc
 0009:030A       __nearstub
 000B:4EE8       __nfile
 0009:04DC       __nfree
 0009:0480       __nmalloc
 0009:0288       __NMSG_TEXT
 0009:02BF       __NMSG_WRITE
 0009:0564       __nmsize
 0009:00DE       __nomain
 0009:04F6       __nrealloc
 000B:4EE6       __oserr
 000B:4EEA       __osfile
 000B:4EE0       __osmajor
 000B:4EE1       __osminor
 000B:4EE4       __osmode
 000B:4EE0       __osversion
 000B:4F04       __pgmptr
 000B:4F12       __pnhNearHeap
 0009:0212       __setenvp
 0000:0001  Abs  __sizec
 0000:0000  Abs  __sized
 0009:00F6       __stubmain
 000A:003C       __STUBWEP
 000B:4EDE       __umaskval
 000B:4EBC       __wDataSeg
 0009:0010       __wflags
 000B:4EBE       __wHeapSize
 0000:0000  Imp  __WINFLAGS           (KERNEL.178)
 000B:4ECB       ___aDBrterr
 000B:4EC9       ___aDBswpflg
 000B:4EFE       ___argc
 000B:4F00       ___argv
 0009:0578       ___ExportedStub

  Address         Publics by Value

 0000:0000  Imp  CreateEllipticRgn    (GDI.54)
 0000:0000  Imp  OffsetRgn            (GDI.101)
 0000:0000  Imp  GetWindowExtEx       (GDI.474)
 0000:0000  Imp  CombineRgn           (GDI.47)
 0000:0000  Imp  CreateFont           (GDI.56)
 0000:0000  Imp  SetWindowOrgEx       (GDI.482)
 0000:0000  Imp  SetViewportOrgEx     (GDI.480)
 0000:0000  Imp  QueryAbort           (GDI.155)
 0000:0000  Imp  GetCharABCWidths     (GDI.307)
 0000:0000  Imp  SaveDC               (GDI.30)
 0000:0000  Imp  SetBitmapDimensionEx (GDI.478)
 0000:0000  Imp  GetBrushOrg          (GDI.149)
 0000:0000  Imp  EXTRACTPQ            (GDI.232)
 0000:0000  Imp  CreatePenIndirect    (GDI.62)
 0000:0000  Imp  AbortDoc             (GDI.382)
 0000:0000  Imp  WRITESPOOL           (GDI.241)
 0000:0000  Imp  GetTextFace          (GDI.92)
 0000:0000  Imp  SetPixel             (GDI.31)
 0000:0000  Imp  FATALEXIT            (KERNEL.1)
 0000:0000  Imp  Polygon              (GDI.36)
 0000:0000  Imp  SETOBJECTOWNER       (GDI.461)
 0000:0000  Imp  SETWINDOWLONG        (USER.136)
 0000:0000  Imp  TextOut              (GDI.33)
 0000:0000  Imp  GetTextExtent        (GDI.91)
 0000:0000  Imp  SetTextJustification (GDI.10)
 0000:0000  Imp  GetSystemPaletteUse  (GDI.374)
 0000:0000  Imp  SetEnvironment       (GDI.132)
 0000:0000  Imp  SetViewportOrg       (GDI.13)
 0000:0000  Imp  OPENJOB              (GDI.240)
 0000:0000  Imp  CreateDiscardableBitmap (GDI.156)
 0000:0000  Imp  EndDoc               (GDI.378)
 0000:0000  Imp  RESETDC              (GDI.376)
 0000:0000  Imp  GetRasterizerCaps    (GDI.313)
 0000:0000  Imp  CreateRectRgn        (GDI.64)
 0000:0000  Imp  CreateSolidBrush     (GDI.66)
 0000:0000  Imp  SetStretchBltMode    (GDI.7)
 0000:0000  Imp  GetWindowOrgEx       (GDI.475)
 0000:0000  Imp  _LogData             (PARMPROF.4)
 0000:0000  Imp  FATALAPPEXIT         (KERNEL.137)
 0000:0000  Imp  SetMapperFlags       (GDI.349)
 0000:0000  Imp  SetBitmapBits        (GDI.106)
 0000:0000  Imp  GLOBALREALLOC        (KERNEL.16)
 0000:0000  Imp  DOS3CALL             (KERNEL.102)
 0000:0000  Imp  DIALOGBOX            (USER.87)
 0000:0000  Imp  GetSystemPaletteEntries (GDI.375)
 0000:0000  Imp  CreateHatchBrush     (GDI.58)
 0000:0000  Imp  SetPaletteEntries    (GDI.364)
 0000:0000  Imp  DIALOGBOXINDIRECTPARAM (USER.240)
 0000:0000  Imp  SetAbortProc         (GDI.381)
 0000:0000  Imp  PatBlt               (GDI.29)
 0000:0000  Imp  CreateFontIndirect   (GDI.57)
 0000:0000  Imp  UpdateColors         (GDI.366)
 0000:0000  Imp  DMENUMDFONTS         (GDI.206)
 0000:0000  Imp  DMSTRBLT             (GDI.211)
 0000:0000  Imp  SetWindowExtEx       (GDI.481)
 0000:0000  Imp  UnrealizeObject      (GDI.150)
 0000:0000  Imp  CreateBrushIndirect  (GDI.50)
 0000:0000  Imp  GetBoundsRect        (GDI.194)
 0000:0000  Imp  GetCurrentPosition   (GDI.78)
 0000:0000  Imp  SetWindowExt         (GDI.12)
 0000:0000  Imp  BitBlt               (GDI.34)
 0000:0000  Imp  _LogOut              (PARMPROF.3)
 0000:0000  Imp  CloseMetaFile        (GDI.126)
 0000:0000  Imp  StartPage            (GDI.379)
 0000:0000  Imp  SetMetaFileBitsBetter (GDI.196)
 0000:0000  Imp  GetDIBits            (GDI.441)
 0000:0000  Imp  DMDIBBITS            (GDI.217)
 0000:0000  Imp  OffsetWindowOrg      (GDI.15)
 0000:0000  Imp  DELETESPOOLPAGE      (GDI.253)
 0000:0000  Imp  Polyline             (GDI.37)
 0000:0000  Imp  _LogIn               (PARMPROF.2)
 0000:0000  Imp  SetBrushOrg          (GDI.148)
 0000:0000  Imp  LOCALREALLOC         (KERNEL.6)
 0000:0000  Imp  Chord                (GDI.348)
 0000:0000  Imp  ENUMTASKWINDOWS      (USER.225)
 0000:0000  Imp  GetViewportOrgEx     (GDI.473)
 0000:0000  Imp  GetMetaFileBits      (GDI.159)
 0000:0000  Imp  GetDeviceCaps        (GDI.80)
 0000:0000  Imp  Ellipse              (GDI.24)
 0000:0000  Imp  CreateDC             (GDI.53)
 0000:0000  Imp  GetNearestPaletteIndex (GDI.370)
 0000:0000  Imp  PtInRegion           (GDI.161)
 0000:0000  Imp  GetBitmapDimension   (GDI.162)
 0000:0000  Imp  StretchDIBits        (GDI.439)
 0000:0000  Imp  CREATEDIALOGINDIRECTPARAM (USER.242)
 0000:0000  Imp  GetViewportExtEx     (GDI.472)
 0000:0000  Imp  CreateDIBitmap       (GDI.442)
 0000:0000  Imp  LineTo               (GDI.19)
 0000:0000  Imp  CREATEUSERBITMAP     (GDI.407)
 0000:0000  Imp  MulDiv               (GDI.128)
 0000:0000  Imp  GetPolyFillMode      (GDI.84)
 0000:0000  Imp  CreateDIBPatternBrush (GDI.445)
 0000:0000  Imp  ScaleViewportExt     (GDI.18)
 0000:0000  Imp  DeleteMetaFile       (GDI.127)
 0000:0000  Imp  CreatePalette        (GDI.360)
 0000:0000  Imp  GetNearestColor      (GDI.154)
 0000:0000  Imp  GETMODULEUSAGE       (KERNEL.48)
 0000:0000  Imp  RECTINREGION_EHH     (GDI.466)
 0000:0000  Imp  DMSCANLR             (GDI.212)
 0000:0000  Imp  RECTVISIBLE_EHH      (GDI.465)
 0000:0000  Imp  SelectClipRgn        (GDI.44)
 0000:0000  Imp  MoveToEx             (GDI.483)
 0000:0000  Imp  GetStretchBltMode    (GDI.88)
 0000:0000  Imp  SIZEPQ               (GDI.234)
 0000:0000  Imp  OffsetViewportOrg    (GDI.17)
 0000:0000  Imp  EndPage              (GDI.380)
 0000:0000  Imp  CreatePatternBrush   (GDI.60)
 0000:0000  Imp  DeleteDC             (GDI.68)
 0000:0000  Imp  GetViewportExt       (GDI.94)
 0000:0000  Imp  CreateRoundRectRgn   (GDI.444)
 0000:0000  Imp  DELETEJOB            (GDI.244)
 0000:0000  Imp  Rectangle            (GDI.27)
 0000:0000  Imp  Arc                  (GDI.23)
 0000:0000  Imp  CALLWINDOWPROC       (USER.122)
 0000:0000  Imp  EqualRgn             (GDI.72)
 0000:0000  Imp  GetTextExtentPoint   (GDI.471)
 0000:0000  Imp  GetTextCharacterExtra (GDI.89)
 0000:0000  Imp  SETRECTEMPTY         (USER.73)
 0000:0000  Imp  CopyMetaFile         (GDI.151)
 0000:0000  Imp  RoundRect            (GDI.28)
 0000:0000  Imp  GetMetaFile          (GDI.124)
 0000:0000  Imp  GetBitmapDimensionEx (GDI.468)
 0000:0000  Imp  CreateBitmap         (GDI.48)
 0000:0000  Imp  PlayMetaFile         (GDI.123)
 0000:0000  Imp  SetROP2              (GDI.4)
 0000:0000  Imp  GetMapMode           (GDI.81)
 0000:0000  Imp  OffsetWindowOrgEx    (GDI.477)
 0000:0000  Imp  ExtFloodFill         (GDI.372)
 0000:0000  Imp  __WINFLAGS           (KERNEL.178)
 0000:0000  Imp  StretchBlt           (GDI.35)
 0000:0000  Imp  InvertRgn            (GDI.42)
 0000:0000  Imp  GETSPOOLJOB          (GDI.245)
 0000:0000  Imp  GETLOGINFO           (PARMPROF.8)
 0000:0000  Imp  SetBoundsRect        (GDI.193)
 0000:0000  Imp  DMGETCHARWIDTH       (GDI.215)
 0000:0000  Imp  GetPixel             (GDI.83)
 0000:0000  Imp  ENDSPOOLPAGE         (GDI.247)
 0000:0000  Imp  CREATEPQ             (GDI.230)
 0000:0000  Imp  EnumFonts            (GDI.70)
 0000:0000  Imp  IntersectClipRect    (GDI.22)
 0000:0000  Imp  FillRgn              (GDI.40)
 0000:0000  Imp  SetTextColor         (GDI.9)
 0000:0000  Imp  DMSETDIBTODEV        (GDI.219)
 0000:0000  Imp  OffsetViewportOrgEx  (GDI.476)
 0000:0000  Imp  INSERTPQ             (GDI.233)
 0000:0000  Imp  GetEnvironment       (GDI.133)
 0000:0000  Imp  LPtoDP               (GDI.99)
 0000:0000  Imp  EnumObjects          (GDI.71)
 0000:0000  Imp  DPtoLP               (GDI.67)
 0000:0000  Imp  DMOUTPUT             (GDI.208)
 0000:0000  Imp  GetGlyphOutline      (GDI.309)
 0000:0000  Imp  GetCharWidth         (GDI.350)
 0000:0000  Imp  SetBitmapDimension   (GDI.163)
 0000:0000  Imp  RemoveFontResource   (GDI.136)
 0000:0000  Imp  CreateRectRgnIndirect (GDI.65)
 0000:0000  Imp  DMENUMOBJ            (GDI.207)
 0000:0000  Imp  GetBkMode            (GDI.76)
 0000:0000  Imp  SetTextAlign         (GDI.346)
 0000:0000  Imp  GETKEYBOARDSTATE     (USER.222)
 0000:0000  Imp  INITTASK             (KERNEL.91)
 0000:0000  Imp  SetViewportExtEx     (GDI.479)
 0000:0000  Imp  ScaleViewportExtEx   (GDI.484)
 0000:0000  Imp  ResizePalette        (GDI.368)
 0000:0000  Imp  GetClipBox           (GDI.77)
 0000:0000  Imp  CreateMetaFile       (GDI.125)
 0000:0000  Imp  SetPolyFillMode      (GDI.6)
 0000:0000  Imp  PlayMetaFileRecord   (GDI.176)
 0000:0000  Imp  LineDDA              (GDI.100)
 0000:0000  Imp  ExtTextOut           (GDI.351)
 0000:0000  Imp  DMSTRETCHBLT         (GDI.216)
 0000:0000  Imp  AnimatePalette       (GDI.367)
 0000:0000  Imp  RectVisible          (GDI.104)
 0000:0000  Imp  SetMetaFileBits      (GDI.160)
 0000:0000  Imp  GetAspectRatioFilter (GDI.353)
 0000:0000  Imp  StartDoc             (GDI.377)
 0000:0000  Imp  SETTIMER             (USER.10)
 0000:0000  Imp  GetWindowOrg         (GDI.97)
 0000:0000  Imp  DELETEPQ             (GDI.235)
 0000:0000  Imp  CREATEDIALOG         (USER.89)
 0000:0000  Imp  CreatePolygonRgn     (GDI.63)
 0000:0000  Imp  GetDCOrg             (GDI.79)
 0000:0000  Imp  DMEXTTEXTOUT         (GDI.214)
 0000:0000  Imp  CLOSEJOB             (GDI.243)
 0000:0000  Imp  CreateCompatibleDC   (GDI.52)
 0000:0000  Imp  GetTextMetrics       (GDI.93)
 0000:0000  Imp  DMBITBLT             (GDI.201)
 0000:0000  Imp  PaintRgn             (GDI.43)
 0000:0000  Imp  SetTextCharacterExtra (GDI.8)
 0000:0000  Imp  IsGDIObject          (GDI.462)
 0000:0000  Imp  LOCALFREE            (KERNEL.7)
 0000:0000  Imp  PolyPolygon          (GDI.450)
 0000:0000  Imp  SetBkMode            (GDI.2)
 0000:0000  Imp  MINPQ                (GDI.231)
 0000:0000  Imp  ExcludeClipRect      (GDI.21)
 0000:0000  Imp  CreatePolyPolygonRgn (GDI.451)
 0000:0000  Imp  LOCALSIZE            (KERNEL.10)
 0000:0000  Imp  SetMapMode           (GDI.3)
 0000:0000  Imp  Escape               (GDI.38)
 0000:0000  Imp  GetAspectRatioFilterEx (GDI.486)
 0000:0000  Imp  CreateScalableFontResource (GDI.310)
 0000:0000  Imp  CreateIC             (GDI.153)
 0000:0000  Imp  EnumMetaFile         (GDI.175)
 0000:0000  Imp  GETRELABS            (GDI.86)
 0000:0000  Imp  SetSystemPaletteUse  (GDI.373)
 0000:0000  Imp  STARTSPOOLPAGE       (GDI.246)
 0000:0000  Imp  ScaleWindowExt       (GDI.16)
 0000:0000  Imp  SETRECT              (USER.72)
 0000:0000  Imp  GetViewportOrg       (GDI.95)
 0000:0000  Imp  FrameRgn             (GDI.41)
 0000:0000  Imp  GetPaletteEntries    (GDI.363)
 0000:0000  Imp  EnumFontFamilies     (GDI.330)
 0000:0000  Imp  CreateBitmapIndirect (GDI.49)
 0000:0000  Imp  WRITEDIALOG          (GDI.242)
 0000:0000  Imp  DMCOLORINFO          (GDI.202)
 0000:0000  Imp  GetOutlineTextMetrics (GDI.308)
 0000:0000  Imp  REGISTERCLASS        (USER.57)
 0000:0000  Imp  DIALOGBOXPARAM       (USER.239)
 0000:0000  Imp  RestoreDC            (GDI.39)
 0000:0000  Imp  Pie                  (GDI.26)
 0000:0000  Imp  SetDIBitsToDevice    (GDI.443)
 0000:0000  Imp  SelectObject         (GDI.45)
 0000:0000  Imp  GetBitmapBits        (GDI.74)
 0000:0000  Imp  GetTextAlign         (GDI.345)
 0000:0000  Imp  SETKEYBOARDSTATE     (USER.223)
 0000:0000  Imp  CreateEllipticRgnIndirect (GDI.55)
 0000:0000  Imp  DMPIXEL              (GDI.209)
 0000:0000  Imp  GetCurrentPositionEx (GDI.470)
 0000:0000  Imp  CREATEDIALOGPARAM    (USER.241)
 0000:0000  Imp  PtVisible            (GDI.103)
 0000:0000  Imp  SetBkColor           (GDI.1)
 0000:0000  Imp  LocalInit            (KERNEL.4)
 0000:0000  Imp  DMTRANSPOSE          (GDI.220)
 0000:0000  Imp  ScaleWindowExtEx     (GDI.485)
 0000:0000  Imp  GetRgnBox            (GDI.134)
 0000:0000  Imp  GETDOSENVIRONMENT    (KERNEL.131)
 0000:0000  Imp  SetRectRgn           (GDI.172)
 0000:0000  Imp  SetViewportExt       (GDI.14)
 0000:0000  Imp  GetWindowExt         (GDI.96)
 0000:0000  Imp  SpoolFile            (GDI.254)
 0000:0000  Imp  MoveTo               (GDI.20)
 0000:0000  Imp  RectInRegion         (GDI.181)
 0000:0000  Imp  SETWINDOWSHOOK       (USER.121)
 0000:0000  Imp  SetDIBits            (GDI.440)
 0000:0000  Imp  DMSTRETCHDIBITS      (GDI.218)
 0000:0000  Imp  SetWindowOrg         (GDI.11)
 0000:0000  Imp  UNHOOKWINDOWSHOOK    (USER.234)
 0000:0000  Imp  FloodFill            (GDI.25)
 0000:0000  Imp  GetObject            (GDI.82)
 0000:0000  Imp  GETVERSION           (KERNEL.3)
 0000:0000  Imp  GetBkColor           (GDI.75)
 0000:0000  Imp  AddFontResource      (GDI.119)
 0000:0000  Imp  GetStockObject       (GDI.87)
 0000:0000  Imp  DMREALIZEOBJECT      (GDI.210)
 0000:0000  Abs  __sized
 0000:0000  Imp  DeleteObject         (GDI.69)
 0000:0000  Imp  GetBrushOrgEx        (GDI.469)
 0000:0000  Imp  CreateCompatibleBitmap (GDI.51)
 0000:0000  Imp  GLOBALSIZE           (KERNEL.20)
 0000:0000  Imp  CREATEDIALOGINDIRECT (USER.219)
 0000:0000  Imp  UNLOCKSEGMENT        (KERNEL.24)
 0000:0000  Imp  GetROP2              (GDI.85)
 0000:0000  Imp  OffsetClipRgn        (GDI.32)
 0000:0000  Imp  CreatePen            (GDI.61)
 0000:0000  Imp  LOCKSEGMENT          (KERNEL.23)
 0000:0000  Imp  LOCALALLOC           (KERNEL.5)
 0000:0000  Imp  BRUTE                (GDI.213)
 0000:0000  Imp  GetKerningPairs      (GDI.332)
 0000:0000  Imp  GetFontData          (GDI.311)
 0000:0000  Imp  DIALOGBOXINDIRECT    (USER.218)
 0000:0000  Imp  GetTextColor         (GDI.90)
 0000:0001  Abs  __sizec
 0000:0006  Abs  pLocalHeap
 0000:0008  Abs  pAtomTable
 0000:000A  Abs  pStackTop
 0000:000C  Abs  pStackMin
 0000:000E  Abs  pStackBot
 0000:9876  Abs  __fptaskdata
 0000:9876  Abs  __acrtused
 0000:9876  Abs  __acrtmsg
 0000:D6D6  Abs  __aDBdoswp
 0000:D6D6  Abs  __aDBused
 0001:0000       zAbortDoc
 0001:0062       zAnimatePalette
 0001:00D6       zArc
 0001:0178       zBitBlt
 0001:0220       zChord
 0001:02C2       zCombineRgn
 0001:033C       zConvertOutlineFontFile
 0001:03BE       zCreateBitmap
 0001:0446       zCreateBitmapIndirect
 0001:04AE       zCreateBrushIndirect
 0001:0516       zCreateCompatibleBitmap
 0001:0588       zCreateCompatibleDC
 0001:05EA       zCreateDIBPatternBrush
 0001:0654       zCreateDIBitmap
 0001:06F6       zCreateDiscardableBitmap
 0001:0768       zCreateEllipticRgn
 0001:07E2       zCreateEllipticRgnIndirect
 0001:084A       zCreateHatchBrush
 0001:08B6       zCreatePalette
 0001:091E       zCreatePatternBrush
 0001:0980       zCreatePen
 0001:09F8       zCreatePenIndirect
 0001:0A60       zCreatePolyPolygonRgn
 0001:0AE6       zCreatePolygonRgn
 0001:0B5E       zCreateRectRgn
 0001:0BD8       zCreateRectRgnIndirect
 0001:0C40       zCreateRoundRectRgn
 0001:0CCA       zCreateScalableFontResource
 0001:0D4A       zCreateSolidBrush
 0001:0DB2       zDPtoLP
 0001:0E2E       zDeleteDC
 0001:0E90       zDeleteMetaFile
 0001:0EF2       zDeleteObject
 0001:0F54       zEllipse
 0001:0FD6       zEndDoc
 0001:1038       zEndPage
 0001:109A       zEngineMakeFontDir
 0001:1118       zEqualRgn
 0001:1182       zExcludeClipRect
 0001:1204       zExtFloodFill
 0001:128C       zFastWindowFrame
 0001:1310       zFillRgn
 0001:1382       zFloodFill
 0001:1402       zFrameRgn
 0001:1484       zGetAspectRatioFilterEx
 0001:14F0       zGetBitmapBits
 0001:157E       zGetBitmapDimension
 0001:15EA       zGetBitmapDimensionEx
 0001:1656       zGetBkColor
 0001:16C2       zGetBkMode
 0001:1724       zGetBoundsRect
 0001:1796       zGetBrushOrg
 0001:1802       zGetBrushOrgEx
 0001:186E       zGetCharABCWidths
 0001:18E8       zGetClipBox
 0001:1958       zGetCurrentPosition
 0001:19C4       zGetCurrentPositionEx
 0001:1A30       zGetDCHook
 0001:1AA4       zGetDCOrg
 0001:1B10       zGetDIBits
 0001:1BAE       zGetEnvironment
 0001:1C2C       zGetFontData
 0001:1CBE       zGetGlyphOutline
 0001:1D6C       zGetKerningPairs
 0001:1DDE       zGetMapMode
 0001:1E40       zGetNearestColor
 0001:1EBA       zGetNearestPaletteIndex
 0001:1F2A       zGetObject
 0001:1FA2       zGetOutlineTextMetrics
 0001:2014       zGetPaletteEntries
 0001:2094       zGetPixel
 0001:2110       zGetPolyFillMode
 0001:2172       zGetROP2
 0001:21D4       zGetRasterizerCaps
 0001:2240       zGetRelAbs
 0001:22A2       zGetRgnBox
 0001:2312       zGetStockObject
 0001:23D6       zGetStretchBltMode
 0001:2438       zGetSystemPaletteEntries
 0001:24B8       zGetSystemPaletteUse
 0001:251A       zGetTextExtentPoint
 0001:2596       zGetViewportExt
 0001:2602       zGetViewportExtEx
 0001:266E       zGetViewportOrg
 0001:26DA       zGetViewportOrgEx
 0001:2746       zGetWindowExt
 0001:27B2       zGetWindowExtEx
 0001:281E       zGetWindowOrg
 0001:288A       zGetWindowOrgEx
 0001:28F6       zIntersectClipRect
 0001:2978       zInvertRgn
 0001:29E2       zIsGDIObject
 0001:2A44       zLPtoDP
 0001:2AC0       zLineDDA
 0001:2B4A       zLineTo
 0001:2BBC       zMoveTo
 0001:2C38       zMoveToEx
 0001:2CB2       zMulDiv
 0001:2D24       zOffsetClipRgn
 0001:2D96       zOffsetRgn
 0001:2E08       zOffsetViewportOrg
 0001:2E84       zOffsetViewportOrgEx
 0001:2EFE       zOffsetWindowOrg
 0001:2F7A       zOffsetWindowOrgEx
 0001:2FF4       zPaintRgn
 0001:305E       zPatBlt
 0001:30EE       zPie
 0001:3190       zPolyPolygon
 0001:3216       zPolygon
 0001:328E       zPolyline
 0001:3306       zPtInRegion
 0001:3378       zPtVisible
 0001:33EA       zQueryAbort
 0001:3452       zQueryJob
 0001:34BA       zRectInRegion
 0001:352A       zRectVisible
 0001:359A       zRectangle
 0001:361C       zResizePalette
 0001:3686       zRestoreDC
 0001:36F0       zRoundRect
 0001:3782       zSaveDC
 0001:37E4       zScaleViewportExt
 0001:3870       zScaleViewportExtEx
 0001:38F8       zScaleWindowExt
 0001:3984       zScaleWindowExtEx
 0001:3A0C       zSelectClipRgn
 0001:3A76       zSelectObject
 0001:3C32       zSetAbortProc
 0001:3C9E       zSetBitmapDimension
 0001:3D1A       zSetBitmapDimensionEx
 0001:3D94       zSetBkColor
 0001:3E0E       zSetBkMode
 0001:3E78       zSetBoundsRect
 0001:3EEA       zSetBrushOrg
 0001:3F66       zSetDCHook
 0001:3FDC       zSetDCOrg
 0001:4054       zSetDIBits
 0001:40F2       zSetDIBitsToDevice
 0001:41B8       zSetEnvironment
 0001:4236       zSetHookFlags
 0001:429E       zSetMapMode
 0001:4308       zSetMapperFlags
 0001:4382       zSetMetaFileBitsBetter
 0001:43E4       zSetPaletteEntries
 0001:4464       zSetPixel
 0001:44EE       zSetPolyFillMode
 0001:4558       zSetROP2
 0001:45C2       zSetRectRgn
 0001:4638       zSetRelAbs
 0001:46A2       zSetStretchBltMode
 0001:470C       zSetSystemPaletteUse
 0001:4776       zSetViewportExt
 0001:47F2       zSetViewportExtEx
 0001:486C       zSetViewportOrg
 0001:48E8       zSetViewportOrgEx
 0001:4962       zSetWindowExt
 0001:49DE       zSetWindowExtEx
 0001:4A58       zSetWindowOrg
 0001:4AD4       zSetWindowOrgEx
 0001:4B4E       zSpoolFile
 0001:4BD0       zStartDoc
 0001:4C3C       zStartPage
 0001:4C9E       zStretchBlt
 0001:4D56       zStretchDIBits
 0001:4E2A       zUnrealizeObject
 0001:4E8C       zUpdateColors
 0002:0000       zAddFontResource
 0002:0068       zCreateFont
 0002:014A       zCreateFontIndirect
 0002:01B2       zGetAspectRatioFilter
 0002:021E       zRemoveFontResource
 0003:0000       zCloseMetaFile
 0003:0062       zCopyMetaFile
 0003:00D2       zCreateMetaFile
 0003:013A       zEnumMetaFile
 0003:01C0       zGetMetaFile
 0003:0228       zGetMetaFileBits
 0003:028A       zPlayMetaFile
 0003:02F4       zPlayMetaFileRecord
 0003:036E       zSetMetaFileBits
 0004:0000       zGetTextAlign
 0004:0062       zGetTextCharacterExtra
 0004:00C4       zGetTextColor
 0004:0130       zGetTextExtent
 0004:01B2       zGetTextFace
 0004:022A       zGetTextMetrics
 0004:029A       zSetTextAlign
 0004:0304       zSetTextCharacterExtra
 0004:036E       zSetTextColor
 0004:03E8       zSetTextJustification
 0004:045A       zTextOut
 0005:0000       zBRUTE
 0005:001D       zCLOSEJOB
 0005:003A       zCOPY
 0005:0057       zCREATEPQ
 0005:0074       zCREATEUSERBITMAP
 0005:0091       zCREATEUSERDISCARDABLEBITMAP
 0005:00AE       zDEATH
 0005:00CB       zDELETEJOB
 0005:00E8       zDELETEPQ
 0005:0105       zDELETESPOOLPAGE
 0005:0122       zDEVICECOLORMATCH
 0005:013F       zDMBITBLT
 0005:015C       zDMCOLORINFO
 0005:0179       zDMDIBBITS
 0005:0196       zDMENUMDFONTS
 0005:01B3       zDMENUMOBJ
 0005:01D0       zDMEXTTEXTOUT
 0005:01ED       zDMGETCHARWIDTH
 0005:020A       zDMOUTPUT
 0005:0227       zDMPIXEL
 0005:0244       zDMREALIZEOBJECT
 0005:0261       zDMSCANLR
 0005:027E       zDMSETDIBTODEV
 0005:029B       zDMSTRBLT
 0005:02B8       zDMSTRETCHBLT
 0005:02D5       zDMSTRETCHDIBITS
 0005:02F2       zDMTRANSPOSE
 0005:030F       zENDSPOOLPAGE
 0005:032C       zENGINEDELETEFONT
 0005:0349       zENGINEENUMERATEFONT
 0005:0366       zENGINEEXTTEXTOUT
 0005:0383       zENGINEGETCHARWIDTH
 0005:03A0       zENGINEGETGLYPHBMP
 0005:03BD       zENGINEREALIZEFONT
 0005:03DA       zENGINESETFONTCONTEXT
 0005:03F7       zEXCLUDEVISRECT
 0005:0414       zEXTRACTPQ
 0005:0431       zFINALGDIINIT
 0005:044E       zFIXUPBOGUSPUBLISHERMETAFILE
 0005:046B       zFTRAPPING0
 0005:0488       zGDIINIT2
 0005:04A5       zGDIMOVEBITMAP
 0005:04C2       zGDIREALIZEPALETTE
 0005:04DF       zGDISEEGDIDO
 0005:04FC       zGDISELECTPALETTE
 0005:0519       zGDITASKTERMINATION
 0005:0536       zGETCLIPRGN
 0005:0553       zGETCURLOGFONT
 0005:0570       zGETDCSTATE
 0005:058D       zGETPHYSICALFONTHANDLE
 0005:05AA       zGETSPOOLJOB
 0005:05C7       zINQUIREVISRGN
 0005:05E4       zINSERTPQ
 0005:0601       zINTERSECTVISRECT
 0005:061E       zISDCCURRENTPALETTE
 0005:063B       zISDCDIRTY
 0005:0658       zISVALIDMETAFILE
 0005:0675       zMAKEOBJECTPRIVATE
 0005:0692       zMINPQ
 0005:06AF       zOFFSETVISRGN
 0005:06CC       zOPENJOB
 0005:06E9       zREALIZEDEFAULTPALETTE
 0005:0706       zRECTINREGION_EHH
 0005:0723       zRECTVISIBLE_EHH
 0005:0740       zRESTOREVISRGN
 0005:075D       zRESURRECTION
 0005:077A       zSAVEVISRGN
 0005:0797       zSCANLR
 0005:07B4       zSELECTBITMAP
 0005:07D1       zSELECTVISRGN
 0005:07EE       zSETDCSTATE
 0005:080B       zSETDCSTATUS
 0005:0828       zSETOBJECTOWNER
 0005:0845       zSHRINKGDIHEAP
 0005:0862       zSIZEPQ
 0005:087F       zSTARTSPOOLPAGE
 0005:089C       zUNICODETOANSI
 0005:08B9       zWRITEDIALOG
 0005:08D6       zWRITESPOOL
 0006:0000       _SaveRegs
 0006:0019       _RestoreRegs
 0006:0034       _GrovelDS
 0006:004F       _UnGrovelDS
 0006:0069       HOOKCALL
 0006:0090       _HookProc
 0006:0117       _Hooks
 0006:0517       _IsHook
 0006:0566       _HookSearch
 0006:05BD       _HookAdd
 0006:0655       _HookFind
 0007:0000       MESGPROC
 0007:008E       DLGMESGPROC
 0007:0116       ZREGISTERCLASS
 0007:01A6       ZCREATEDIALOG
 0007:024C       ZCREATEDIALOGINDIRECT
 0007:02F2       ZCREATEDIALOGINDIRECTPARAM
 0007:03A6       ZCREATEDIALOGPARAM
 0007:045A       ZDIALOGBOX
 0007:0500       ZDIALOGBOXINDIRECT
 0007:05A0       ZDIALOGBOXINDIRECTPARAM
 0007:064E       ZDIALOGBOXPARAM
 0007:0702       WH_CALLWNDPROCHOOK
 0007:0788       WH_GETMESSAGEHOOK
 0007:080E       WH_JOURNALPLAYBACKHOOK
 0007:0894       WH_JOURNALRECORDHOOK
 0007:091A       WH_KEYBOARDHOOK
 0007:09A0       WH_MSGFILTERHOOK
 0007:0A26       WH_SYSMSGFILTERHOOK
 0007:0AAC       WH_CBTHOOK
 0007:0B32       WH_MOUSEHOOK
 0007:0BB8       WH_DEBUGHOOK
 0007:0C3E       ZSETWINDOWSHOOK
 0007:0DB4       ZUNHOOKWINDOWSHOOK
 0007:0E48       EnumPens
 0007:0EC4       EnumBrushes
 0007:0F40       zEnumObjects
 0007:0FF4       FontCounter
 0007:108C       zEnumFonts
 0007:1132       FamilyCounter
 0007:11CA       zEnumFontFamilies
 0007:1264       ENUMTASKWIN
 0007:12D8       ZENUMTASKWINDOWS
 0007:1370       ZSETWINDOWLONG
 0007:1464       TIMERRTN
 0007:14EA       ZSETTIMER
 0007:158C       zEscape
 0007:1840       zGetDeviceCaps
 0007:18B4       zCreateDC
 0007:1946       zCreateIC
 0007:19D8       zSetBitmapBits
 0007:1A66       ZGETKEYBOARDSTATE
 0007:1AC8       ZSETKEYBOARDSTATE
 0007:1B2A       zGetCharWidth
 0007:1BB2       zExtTextOut
 0007:1C62       zResetDC
 0007:1CD2       ZCALLWINDOWPROC
 0008:0000       LibEntry
 0009:0010       __wflags
 0009:0054       __astart
 0009:00DE       __nomain
 0009:00F6       __stubmain
 0009:0122       __cinit
 0009:016A       __cexit
 0009:017B       __c_exit
 0009:01CC       __ctermsub
 0009:01EE       __FF_MSGBANNER
 0009:0212       __setenvp
 0009:0288       __NMSG_TEXT
 0009:02BF       __NMSG_WRITE
 0009:02D6       __fptrap
 0009:02DC       __myalloc
 0009:030A       __nearstub
 0009:030C       __cintDIV
 0009:0316       __amsg_exit
 0009:0358       __growseg
 0009:03E9       __incseg
 0009:044F       __findlast
 0009:0470       __GetDGROUP
 0009:0480       __nmalloc
 0009:04DC       __nfree
 0009:04F6       __nrealloc
 0009:0564       __nmsize
 0009:0578       ___ExportedStub
 000A:0000       WEP
 000A:003C       __STUBWEP
 000B:0004       rsrvptrs
 000B:396A       HookCount
 000B:396C       HookTable
 000B:4EB8       _STKHQQ
 000B:4EBA       __hModule
 000B:4EBC       __wDataSeg
 000B:4EBE       __wHeapSize
 000B:4EC0       __lpszCmdLine
 000B:4EC4       __dllinit
 000B:4EC5       _aseglo
 000B:4EC7       _aseghi
 000B:4EC9       ___aDBswpflg
 000B:4ECB       ___aDBrterr
 000B:4ECE       __aintdiv
 000B:4ED2       __fac
 000B:4EDC       _errno
 000B:4EDE       __umaskval
 000B:4EE0       __osversion
 000B:4EE0       __osmajor
 000B:4EE1       __osminor
 000B:4EE2       __dosmajor
 000B:4EE2       __dosversion
 000B:4EE3       __dosminor
 000B:4EE4       __osmode
 000B:4EE5       __cpumode
 000B:4EE6       __oserr
 000B:4EE6       __doserrno
 000B:4EE8       __nfile
 000B:4EEA       __osfile
 000B:4EFE       ___argc
 000B:4F00       ___argv
 000B:4F02       __environ
 000B:4F04       __pgmptr
 000B:4F09       __child
 000B:4F0B       __exitflag
 000B:4F0C       __adbgmsg
 000B:4F10       __amblksiz
 000B:4F12       __pnhNearHeap
 000B:4F18       __fpinit
 000B:5004       __edata
 000B:5004       _edata
 000B:5004       __end
 000B:5004       _end

Line numbers for tgdi.obj(tgdi.c) segment TGDI_TEXT

     9 0001:0000    12 0001:000D    17 0001:0012    22 0001:0020
    23 0001:0025    24 0001:002A    25 0001:0035    26 0001:003A
    31 0001:003F    33 0001:0050    34 0001:0055    35 0001:0058
     0 0001:0061    38 0001:0062    40 0001:006C    45 0001:0071
    50 0001:008C    51 0001:0091    52 0001:0096    53 0001:00AA
    54 0001:00AF    59 0001:00B4    61 0001:00C8    63 0001:00CD
     0 0001:00D5    66 0001:00D6    69 0001:00E3    74 0001:00E8
    79 0001:010F    80 0001:0114    81 0001:0119    82 0001:013C
    83 0001:0141    88 0001:0146    90 0001:0167    91 0001:016C
    92 0001:016F     0 0001:0177    95 0001:0178    98 0001:0185
   103 0001:018A   108 0001:01B4   109 0001:01B9   110 0001:01BE
   111 0001:01E4   112 0001:01E9   117 0001:01EE   119 0001:020F
   120 0001:0214   121 0001:0217     0 0001:021F   124 0001:0220
   127 0001:022D   132 0001:0232   137 0001:0259   138 0001:025E
   139 0001:0263   140 0001:0286   141 0001:028B   146 0001:0290
   148 0001:02B1   149 0001:02B6   150 0001:02B9     0 0001:02C1
   153 0001:02C2   156 0001:02CF   161 0001:02D4   166 0001:02EC
   167 0001:02F1   168 0001:02F6   169 0001:030A   170 0001:030F
   175 0001:0314   177 0001:032B   178 0001:0330   179 0001:0333
     0 0001:033B   182 0001:033C   185 0001:0349   190 0001:034E
   195 0001:0360   196 0001:0365   197 0001:036A   198 0001:0387
   199 0001:038C   204 0001:0391   206 0001:03A9   207 0001:03AE
   208 0001:03B4     0 0001:03BD   211 0001:03BE   214 0001:03CB
   219 0001:03D0   224 0001:03EE   225 0001:03F3   226 0001:03F8
   227 0001:0412   228 0001:0417   233 0001:041C   235 0001:0435
   236 0001:043A   237 0001:043D     0 0001:0445   240 0001:0446
   243 0001:0453   248 0001:0458   253 0001:046A   254 0001:046F
   255 0001:0474   256 0001:0482   257 0001:0487   262 0001:048C
   264 0001:049D   265 0001:04A2   266 0001:04A5     0 0001:04AD
   269 0001:04AE   272 0001:04BB   277 0001:04C0   282 0001:04D2
   283 0001:04D7   284 0001:04DC   285 0001:04EA   286 0001:04EF
   291 0001:04F4   293 0001:0505   294 0001:050A   295 0001:050D
     0 0001:0515   298 0001:0516   301 0001:0523   306 0001:0528
   311 0001:053D   312 0001:0542   313 0001:0547   314 0001:0558
   315 0001:055D   320 0001:0562   322 0001:0577   323 0001:057C
   324 0001:057F     0 0001:0587   327 0001:0588   330 0001:0595
   335 0001:059A   340 0001:05A9   341 0001:05AE   342 0001:05B3
   343 0001:05BE   344 0001:05C3   349 0001:05C8   351 0001:05D9
   352 0001:05DE   353 0001:05E1     0 0001:05E9   356 0001:05EA
   359 0001:05F7   364 0001:05FC   369 0001:060E   370 0001:0613
   371 0001:0618   372 0001:0626   373 0001:062B   378 0001:0630
   380 0001:0643   381 0001:0648   382 0001:064B     0 0001:0653
   385 0001:0654   388 0001:0661   393 0001:0666   398 0001:0690
   399 0001:0695   400 0001:069A   401 0001:06C0   402 0001:06C5
   407 0001:06CA   409 0001:06E5   410 0001:06EA   411 0001:06ED
     0 0001:06F5   414 0001:06F6   417 0001:0703   422 0001:0708
   427 0001:071D   428 0001:0722   429 0001:0727   430 0001:0738
   431 0001:073D   436 0001:0742   438 0001:0757   439 0001:075C
   440 0001:075F     0 0001:0767   443 0001:0768   446 0001:0775
   451 0001:077A   456 0001:0792   457 0001:0797   458 0001:079C
   459 0001:07B0   460 0001:07B5   465 0001:07BA   467 0001:07D1
   468 0001:07D6   469 0001:07D9     0 0001:07E1   472 0001:07E2
   475 0001:07EF   480 0001:07F4   485 0001:0806   486 0001:080B
   487 0001:0810   488 0001:081E   489 0001:0823   494 0001:0828
   496 0001:0839   497 0001:083E   498 0001:0841     0 0001:0849
   501 0001:084A   504 0001:0857   509 0001:085C   514 0001:086D
   515 0001:0872   516 0001:0877   517 0001:0888   518 0001:088D
   523 0001:0892   525 0001:08A5   526 0001:08AA   527 0001:08AD
     0 0001:08B5   530 0001:08B6   533 0001:08C3   538 0001:08C8
   543 0001:08DA   544 0001:08DF   545 0001:08E4   546 0001:08F2
   547 0001:08F7   552 0001:08FC   554 0001:090D   555 0001:0912
   556 0001:0915     0 0001:091D   559 0001:091E   562 0001:092B
   567 0001:0930   572 0001:093F   573 0001:0944   574 0001:0949
   575 0001:0954   576 0001:0959   581 0001:095E   583 0001:096F
   584 0001:0974   585 0001:0977     0 0001:097F   588 0001:0980
   591 0001:098D   596 0001:0992   601 0001:09AA   602 0001:09AF
   603 0001:09B4   604 0001:09C8   605 0001:09CD   610 0001:09D2
   612 0001:09E7   613 0001:09EC   614 0001:09EF     0 0001:09F7
   617 0001:09F8   620 0001:0A05   625 0001:0A0A   630 0001:0A1C
   631 0001:0A21   632 0001:0A26   633 0001:0A34   634 0001:0A39
   639 0001:0A3E   641 0001:0A4F   642 0001:0A54   643 0001:0A57
     0 0001:0A5F   646 0001:0A60   649 0001:0A6D   654 0001:0A72
   659 0001:0A90   660 0001:0A95   661 0001:0A9A   662 0001:0AB4
   663 0001:0AB9   668 0001:0ABE   670 0001:0AD5   671 0001:0ADA
   672 0001:0ADD     0 0001:0AE5   675 0001:0AE6   678 0001:0AF3
   683 0001:0AF8   688 0001:0B10   689 0001:0B15   690 0001:0B1A
   691 0001:0B2E   692 0001:0B33   697 0001:0B38   699 0001:0B4D
   700 0001:0B52   701 0001:0B55     0 0001:0B5D   704 0001:0B5E
   707 0001:0B6B   712 0001:0B70   717 0001:0B88   718 0001:0B8D
   719 0001:0B92   720 0001:0BA6   721 0001:0BAB   726 0001:0BB0
   728 0001:0BC7   729 0001:0BCC   730 0001:0BCF     0 0001:0BD7
   733 0001:0BD8   736 0001:0BE5   741 0001:0BEA   746 0001:0BFC
   747 0001:0C01   748 0001:0C06   749 0001:0C14   750 0001:0C19
   755 0001:0C1E   757 0001:0C2F   758 0001:0C34   759 0001:0C37
     0 0001:0C3F   762 0001:0C40   765 0001:0C4D   770 0001:0C52
   775 0001:0C70   776 0001:0C75   777 0001:0C7A   778 0001:0C94
   779 0001:0C99   784 0001:0C9E   786 0001:0CB9   787 0001:0CBE
   788 0001:0CC1     0 0001:0CC9   791 0001:0CCA   794 0001:0CD7
   799 0001:0CDC   804 0001:0CF0   805 0001:0CF5   806 0001:0CFA
   807 0001:0D17   808 0001:0D1C   813 0001:0D21   815 0001:0D38
   816 0001:0D3D   817 0001:0D40     0 0001:0D49   820 0001:0D4A
   823 0001:0D57   828 0001:0D5C   833 0001:0D6E   834 0001:0D73
   835 0001:0D78   836 0001:0D86   837 0001:0D8B   842 0001:0D90
   844 0001:0DA1   845 0001:0DA6   846 0001:0DA9     0 0001:0DB1
   849 0001:0DB2   852 0001:0DBF   857 0001:0DC4   862 0001:0DDC
   863 0001:0DE1   864 0001:0DE6   865 0001:0DFA   866 0001:0DFF
   871 0001:0E04   873 0001:0E1D   874 0001:0E22   875 0001:0E25
     0 0001:0E2D   878 0001:0E2E   881 0001:0E3B   886 0001:0E40
   891 0001:0E4F   892 0001:0E54   893 0001:0E59   894 0001:0E64
   895 0001:0E69   900 0001:0E6E   902 0001:0E7F   903 0001:0E84
   904 0001:0E87     0 0001:0E8F   907 0001:0E90   910 0001:0E9D
   915 0001:0EA2   920 0001:0EB1   921 0001:0EB6   922 0001:0EBB
   923 0001:0EC6   924 0001:0ECB   929 0001:0ED0   931 0001:0EE1
   932 0001:0EE6   933 0001:0EE9     0 0001:0EF1   936 0001:0EF2
   939 0001:0EFF   944 0001:0F04   949 0001:0F13   950 0001:0F18
   951 0001:0F1D   952 0001:0F28   953 0001:0F2D   958 0001:0F32
   960 0001:0F43   961 0001:0F48   962 0001:0F4B     0 0001:0F53
   965 0001:0F54   968 0001:0F61   973 0001:0F66   978 0001:0F81
   979 0001:0F86   980 0001:0F8B   981 0001:0FA2   982 0001:0FA7
   987 0001:0FAC   989 0001:0FC5   990 0001:0FCA   991 0001:0FCD
     0 0001:0FD5   994 0001:0FD6   997 0001:0FE3  1002 0001:0FE8
  1007 0001:0FF6  1008 0001:0FFB  1009 0001:1000  1010 0001:100B
  1011 0001:1010  1016 0001:1015  1018 0001:1026  1019 0001:102B
  1020 0001:102E     0 0001:1037  1023 0001:1038  1026 0001:1045
  1031 0001:104A  1036 0001:1058  1037 0001:105D  1038 0001:1062
  1039 0001:106D  1040 0001:1072  1045 0001:1077  1047 0001:1088
  1048 0001:108D  1049 0001:1090     0 0001:1099  1052 0001:109A
  1055 0001:10A7  1060 0001:10AC  1065 0001:10BE  1066 0001:10C3
  1067 0001:10C8  1068 0001:10E2  1069 0001:10E7  1074 0001:10EC
  1076 0001:1104  1077 0001:1109  1078 0001:110F     0 0001:1117
  1081 0001:1118  1084 0001:1125  1089 0001:112A  1094 0001:113C
  1095 0001:1141  1096 0001:1146  1097 0001:1154  1098 0001:1159
  1103 0001:115E  1105 0001:1171  1106 0001:1176  1107 0001:1179
     0 0001:1181  1110 0001:1182  1113 0001:118F  1118 0001:1194
  1123 0001:11AF  1124 0001:11B4  1125 0001:11B9  1126 0001:11D0
  1127 0001:11D5  1132 0001:11DA  1134 0001:11F3  1135 0001:11F8
  1136 0001:11FB     0 0001:1203  1139 0001:1204  1142 0001:1211
  1147 0001:1216  1152 0001:1234  1153 0001:1239  1154 0001:123E
  1155 0001:1258  1156 0001:125D  1161 0001:1262  1163 0001:127B
  1164 0001:1280  1165 0001:1283     0 0001:128B  1168 0001:128C
  1171 0001:1299  1176 0001:129E  1181 0001:12B4  1182 0001:12B9
  1183 0001:12BE  1184 0001:12DB  1185 0001:12E0  1190 0001:12E5
  1192 0001:12FE  1193 0001:1303  1194 0001:1306     0 0001:130F
  1197 0001:1310  1200 0001:131D  1205 0001:1322  1210 0001:1337
  1211 0001:133C  1212 0001:1341  1213 0001:1352  1214 0001:1357
  1219 0001:135C  1221 0001:1371  1222 0001:1376  1223 0001:1379
     0 0001:1381  1226 0001:1382  1229 0001:138F  1234 0001:1394
  1239 0001:13AF  1240 0001:13B4  1241 0001:13B9  1242 0001:13D0
  1243 0001:13D5  1248 0001:13DA  1250 0001:13F1  1251 0001:13F6
  1252 0001:13F9     0 0001:1401  1255 0001:1402  1258 0001:140F
  1263 0001:1414  1268 0001:142F  1269 0001:1434  1270 0001:1439
  1271 0001:1450  1272 0001:1455  1277 0001:145A  1279 0001:1473
  1280 0001:1478  1281 0001:147B     0 0001:1483  1284 0001:1484
  1287 0001:1491  1292 0001:1496  1297 0001:14A6  1298 0001:14AB
  1299 0001:14B0  1300 0001:14C1  1301 0001:14C6  1306 0001:14CB
  1308 0001:14DE  1309 0001:14E3  1310 0001:14E6     0 0001:14EF
  1313 0001:14F0  1316 0001:14FD  1321 0001:1502  1326 0001:1519
  1327 0001:151E  1328 0001:1523  1329 0001:153D  1330 0001:1542
  1335 0001:1547  1337 0001:1569  1338 0001:156E  1339 0001:1574
     0 0001:157D  1342 0001:157E  1345 0001:158B  1350 0001:1590
  1355 0001:159F  1356 0001:15A4  1357 0001:15A9  1358 0001:15B7
  1359 0001:15BC  1364 0001:15C1  1366 0001:15D5  1367 0001:15DA
  1368 0001:15E0     0 0001:15E9  1371 0001:15EA  1374 0001:15F7
  1379 0001:15FC  1384 0001:160C  1385 0001:1611  1386 0001:1616
  1387 0001:1627  1388 0001:162C  1393 0001:1631  1395 0001:1644
  1396 0001:1649  1397 0001:164C     0 0001:1655  1400 0001:1656
  1403 0001:1663  1408 0001:1668  1413 0001:1677  1414 0001:167C
  1415 0001:1681  1416 0001:168F  1417 0001:1694  1422 0001:1699
  1424 0001:16AD  1425 0001:16B2  1426 0001:16B8     0 0001:16C1
  1429 0001:16C2  1432 0001:16CF  1437 0001:16D4  1442 0001:16E3
  1443 0001:16E8  1444 0001:16ED  1445 0001:16F8  1446 0001:16FD
  1451 0001:1702  1453 0001:1713  1454 0001:1718  1455 0001:171B
     0 0001:1723  1458 0001:1724  1461 0001:1731  1466 0001:1736
  1471 0001:1748  1472 0001:174D  1473 0001:1752  1474 0001:1766
  1475 0001:176B  1480 0001:1770  1482 0001:1785  1483 0001:178A
  1484 0001:178D     0 0001:1795  1487 0001:1796  1490 0001:17A3
  1495 0001:17A8  1500 0001:17B7  1501 0001:17BC  1502 0001:17C1
  1503 0001:17CF  1504 0001:17D4  1509 0001:17D9  1511 0001:17ED
  1512 0001:17F2  1513 0001:17F8     0 0001:1801  1516 0001:1802
  1519 0001:180F  1524 0001:1814  1529 0001:1824  1530 0001:1829
  1531 0001:182E  1532 0001:183F  1533 0001:1844  1538 0001:1849
  1540 0001:185C  1541 0001:1861  1542 0001:1864     0 0001:186D
  1545 0001:186E  1548 0001:187B  1553 0001:1880  1558 0001:1894
  1559 0001:1899  1560 0001:189E  1561 0001:18B5  1562 0001:18BA
  1567 0001:18BF  1569 0001:18D6  1570 0001:18DB  1571 0001:18DE
     0 0001:18E7  1574 0001:18E8  1577 0001:18F5  1582 0001:18FA
  1587 0001:190B  1588 0001:1910  1589 0001:1915  1590 0001:1926
  1591 0001:192B  1596 0001:1930  1598 0001:1947  1599 0001:194C
  1600 0001:194F     0 0001:1957  1603 0001:1958  1606 0001:1965
  1611 0001:196A  1616 0001:1979  1617 0001:197E  1618 0001:1983
  1619 0001:1991  1620 0001:1996  1625 0001:199B  1627 0001:19AF
  1628 0001:19B4  1629 0001:19BA     0 0001:19C3  1632 0001:19C4
  1635 0001:19D1  1640 0001:19D6  1645 0001:19E6  1646 0001:19EB
  1647 0001:19F0  1648 0001:1A01  1649 0001:1A06  1654 0001:1A0B
  1656 0001:1A1E  1657 0001:1A23  1658 0001:1A26     0 0001:1A2F
  1661 0001:1A30  1664 0001:1A3D  1669 0001:1A42  1674 0001:1A52
  1675 0001:1A57  1676 0001:1A5C  1677 0001:1A70  1678 0001:1A75
  1683 0001:1A7A  1685 0001:1A90  1686 0001:1A95  1687 0001:1A9B
     0 0001:1AA3  1690 0001:1AA4  1693 0001:1AB1  1698 0001:1AB6
  1703 0001:1AC5  1704 0001:1ACA  1705 0001:1ACF  1706 0001:1ADD
  1707 0001:1AE2  1712 0001:1AE7  1714 0001:1AFB  1715 0001:1B00
  1716 0001:1B06     0 0001:1B0F  1719 0001:1B10  1722 0001:1B1D
  1727 0001:1B22  1732 0001:1B45  1733 0001:1B4A  1734 0001:1B4F
  1735 0001:1B72  1736 0001:1B77  1741 0001:1B7C  1743 0001:1B9D
  1744 0001:1BA2  1745 0001:1BA5     0 0001:1BAD  1748 0001:1BAE
  1751 0001:1BBB  1756 0001:1BC0  1761 0001:1BD7  1762 0001:1BDC
  1763 0001:1BE1  1764 0001:1BF8  1765 0001:1BFD  1770 0001:1C02
  1772 0001:1C1B  1773 0001:1C20  1774 0001:1C23     0 0001:1C2B
  1777 0001:1C2C  1780 0001:1C39  1785 0001:1C3E  1790 0001:1C54
  1791 0001:1C59  1792 0001:1C5E  1793 0001:1C84  1794 0001:1C89
  1799 0001:1C8E  1801 0001:1CAA  1802 0001:1CAF  1803 0001:1CB5
     0 0001:1CBD  1806 0001:1CBE  1809 0001:1CCB  1814 0001:1CD0
  1819 0001:1CF9  1820 0001:1CFE  1821 0001:1D03  1822 0001:1D2F
  1823 0001:1D34  1828 0001:1D39  1830 0001:1D57  1831 0001:1D5C
  1832 0001:1D62     0 0001:1D6B  1835 0001:1D6C  1838 0001:1D79
  1843 0001:1D7E  1848 0001:1D90  1849 0001:1D95  1850 0001:1D9A
  1851 0001:1DAE  1852 0001:1DB3  1857 0001:1DB8  1859 0001:1DCD
  1860 0001:1DD2  1861 0001:1DD5     0 0001:1DDD  1864 0001:1DDE
  1867 0001:1DEB  1872 0001:1DF0  1877 0001:1DFF  1878 0001:1E04
  1879 0001:1E09  1880 0001:1E14  1881 0001:1E19  1886 0001:1E1E
  1888 0001:1E2F  1889 0001:1E34  1890 0001:1E37     0 0001:1E3F
  1893 0001:1E40  1896 0001:1E4D  1901 0001:1E52  1906 0001:1E67
  1907 0001:1E6C  1908 0001:1E71  1909 0001:1E85  1910 0001:1E8A
  1915 0001:1E8F  1917 0001:1EA5  1918 0001:1EAA  1919 0001:1EB0
     0 0001:1EB9  1922 0001:1EBA  1925 0001:1EC7  1930 0001:1ECC
  1935 0001:1EE1  1936 0001:1EE6  1937 0001:1EEB  1938 0001:1EFC
  1939 0001:1F01  1944 0001:1F06  1946 0001:1F19  1947 0001:1F1E
  1948 0001:1F21     0 0001:1F29  1951 0001:1F2A  1954 0001:1F37
  1959 0001:1F3C  1964 0001:1F50  1965 0001:1F55  1966 0001:1F5A
  1967 0001:1F6E  1968 0001:1F73  1973 0001:1F78  1975 0001:1F91
  1976 0001:1F96  1977 0001:1F99     0 0001:1FA1  1980 0001:1FA2
  1983 0001:1FAF  1988 0001:1FB4  1993 0001:1FC6  1994 0001:1FCB
  1995 0001:1FD0  1996 0001:1FE4  1997 0001:1FE9  2002 0001:1FEE
  2004 0001:2003  2005 0001:2008  2006 0001:200B     0 0001:2013
  2009 0001:2014  2012 0001:2021  2017 0001:2026  2022 0001:203D
  2023 0001:2042  2024 0001:2047  2025 0001:205E  2026 0001:2063
  2031 0001:2068  2033 0001:2083  2034 0001:2088  2035 0001:208B
     0 0001:2093  2038 0001:2094  2041 0001:20A1  2046 0001:20A6
  2051 0001:20BB  2052 0001:20C0  2053 0001:20C5  2054 0001:20D9
  2055 0001:20DE  2060 0001:20E3  2062 0001:20FB  2063 0001:2100
  2064 0001:2106     0 0001:210F  2067 0001:2110  2070 0001:211D
  2075 0001:2122  2080 0001:2131  2081 0001:2136  2082 0001:213B
  2083 0001:2146  2084 0001:214B  2089 0001:2150  2091 0001:2161
  2092 0001:2166  2093 0001:2169     0 0001:2171  2096 0001:2172
  2099 0001:217F  2104 0001:2184  2109 0001:2193  2110 0001:2198
  2111 0001:219D  2112 0001:21A8  2113 0001:21AD  2118 0001:21B2
  2120 0001:21C3  2121 0001:21C8  2122 0001:21CB     0 0001:21D3
  2125 0001:21D4  2128 0001:21E1  2133 0001:21E6  2138 0001:21F6
  2139 0001:21FB  2140 0001:2200  2141 0001:2211  2142 0001:2216
  2147 0001:221B  2149 0001:222E  2150 0001:2233  2151 0001:2236
     0 0001:223F  2154 0001:2240  2157 0001:224D  2162 0001:2252
  2167 0001:2261  2168 0001:2266  2169 0001:226B  2170 0001:2276
  2171 0001:227B  2176 0001:2280  2178 0001:2291  2179 0001:2296
  2180 0001:2299     0 0001:22A1  2183 0001:22A2  2186 0001:22AF
  2191 0001:22B4  2196 0001:22C5  2197 0001:22CA  2198 0001:22CF
  2199 0001:22E0  2200 0001:22E5  2205 0001:22EA  2207 0001:2301
  2208 0001:2306  2209 0001:2309     0 0001:2311  2212 0001:2312
  2215 0001:231F  2220 0001:2324  2225 0001:2333  2226 0001:2338
  2227 0001:233D  2228 0001:2348  2229 0001:234D  2233 0001:2352
  2241 0001:2357  2242 0001:2368  2247 0001:236A  2256 0001:2375
  2260 0001:2380  2264 0001:238B  2268 0001:23C5  2269 0001:23CA
  2270 0001:23CD     0 0001:23D5  2273 0001:23D6  2276 0001:23E3
  2281 0001:23E8  2286 0001:23F7  2287 0001:23FC  2288 0001:2401
  2289 0001:240C  2290 0001:2411  2295 0001:2416  2297 0001:2427
  2298 0001:242C  2299 0001:242F     0 0001:2437  2302 0001:2438
  2305 0001:2445  2310 0001:244A  2315 0001:2461  2316 0001:2466
  2317 0001:246B  2318 0001:2482  2319 0001:2487  2324 0001:248C
  2326 0001:24A7  2327 0001:24AC  2328 0001:24AF     0 0001:24B7
  2331 0001:24B8  2334 0001:24C5  2339 0001:24CA  2344 0001:24D9
  2345 0001:24DE  2346 0001:24E3  2347 0001:24EE  2348 0001:24F3
  2353 0001:24F8  2355 0001:2509  2356 0001:250E  2357 0001:2511
     0 0001:2519  2360 0001:251A  2363 0001:2527  2368 0001:252C
  2373 0001:2540  2374 0001:2545  2375 0001:254A  2376 0001:2564
  2377 0001:2569  2382 0001:256E  2384 0001:2585  2385 0001:258A
  2386 0001:258D     0 0001:2595  2389 0001:2596  2392 0001:25A3
  2397 0001:25A8  2402 0001:25B7  2403 0001:25BC  2404 0001:25C1
  2405 0001:25CF  2406 0001:25D4  2411 0001:25D9  2413 0001:25ED
  2414 0001:25F2  2415 0001:25F8     0 0001:2601  2418 0001:2602
  2421 0001:260F  2426 0001:2614  2431 0001:2624  2432 0001:2629
  2433 0001:262E  2434 0001:263F  2435 0001:2644  2440 0001:2649
  2442 0001:265C  2443 0001:2661  2444 0001:2664     0 0001:266D
  2447 0001:266E  2450 0001:267B  2455 0001:2680  2460 0001:268F
  2461 0001:2694  2462 0001:2699  2463 0001:26A7  2464 0001:26AC
  2469 0001:26B1  2471 0001:26C5  2472 0001:26CA  2473 0001:26D0
     0 0001:26D9  2476 0001:26DA  2479 0001:26E7  2484 0001:26EC
  2489 0001:26FC  2490 0001:2701  2491 0001:2706  2492 0001:2717
  2493 0001:271C  2498 0001:2721  2500 0001:2734  2501 0001:2739
  2502 0001:273C     0 0001:2745  2505 0001:2746  2508 0001:2753
  2513 0001:2758  2518 0001:2767  2519 0001:276C  2520 0001:2771
  2521 0001:277F  2522 0001:2784  2527 0001:2789  2529 0001:279D
  2530 0001:27A2  2531 0001:27A8     0 0001:27B1  2534 0001:27B2
  2537 0001:27BF  2542 0001:27C4  2547 0001:27D4  2548 0001:27D9
  2549 0001:27DE  2550 0001:27EF  2551 0001:27F4  2556 0001:27F9
  2558 0001:280C  2559 0001:2811  2560 0001:2814     0 0001:281D
  2563 0001:281E  2566 0001:282B  2571 0001:2830  2576 0001:283F
  2577 0001:2844  2578 0001:2849  2579 0001:2857  2580 0001:285C
  2585 0001:2861  2587 0001:2875  2588 0001:287A  2589 0001:2880
     0 0001:2889  2592 0001:288A  2595 0001:2897  2600 0001:289C
  2605 0001:28AC  2606 0001:28B1  2607 0001:28B6  2608 0001:28C7
  2609 0001:28CC  2614 0001:28D1  2616 0001:28E4  2617 0001:28E9
  2618 0001:28EC     0 0001:28F5  2621 0001:28F6  2624 0001:2903
  2629 0001:2908  2634 0001:2923  2635 0001:2928  2636 0001:292D
  2637 0001:2944  2638 0001:2949  2643 0001:294E  2645 0001:2967
  2646 0001:296C  2647 0001:296F     0 0001:2977  2650 0001:2978
  2653 0001:2985  2658 0001:298A  2663 0001:299C  2664 0001:29A1
  2665 0001:29A6  2666 0001:29B4  2667 0001:29B9  2672 0001:29BE
  2674 0001:29D1  2675 0001:29D6  2676 0001:29D9     0 0001:29E1
  2679 0001:29E2  2682 0001:29EF  2687 0001:29F4  2692 0001:2A02
  2693 0001:2A07  2694 0001:2A0C  2695 0001:2A17  2696 0001:2A1C
  2701 0001:2A21  2703 0001:2A32  2704 0001:2A37  2705 0001:2A3A
     0 0001:2A43  2708 0001:2A44  2711 0001:2A51  2716 0001:2A56
  2721 0001:2A6E  2722 0001:2A73  2723 0001:2A78  2724 0001:2A8C
  2725 0001:2A91  2730 0001:2A96  2732 0001:2AAF  2733 0001:2AB4
  2734 0001:2AB7     0 0001:2ABF  2737 0001:2AC0  2739 0001:2ACA
  2744 0001:2ACF  2749 0001:2AF3  2750 0001:2AF8  2751 0001:2AFD
  2752 0001:2B1A  2753 0001:2B1F  2758 0001:2B24  2760 0001:2B3C
  2762 0001:2B41     0 0001:2B49  2765 0001:2B4A  2768 0001:2B57
  2773 0001:2B5C  2778 0001:2B71  2779 0001:2B76  2780 0001:2B7B
  2781 0001:2B8C  2782 0001:2B91  2787 0001:2B96  2789 0001:2BAB
  2790 0001:2BB0  2791 0001:2BB3     0 0001:2BBB  2794 0001:2BBC
  2797 0001:2BC9  2802 0001:2BCE  2807 0001:2BE3  2808 0001:2BE8
  2809 0001:2BED  2810 0001:2C01  2811 0001:2C06  2816 0001:2C0B
  2818 0001:2C23  2819 0001:2C28  2820 0001:2C2E     0 0001:2C37
  2823 0001:2C38  2826 0001:2C45  2831 0001:2C4A  2836 0001:2C5E
  2837 0001:2C63  2838 0001:2C68  2839 0001:2C7F  2840 0001:2C84
  2845 0001:2C89  2847 0001:2CA0  2848 0001:2CA5  2849 0001:2CA8
     0 0001:2CB1  2852 0001:2CB2  2855 0001:2CBF  2860 0001:2CC4
  2865 0001:2CD9  2866 0001:2CDE  2867 0001:2CE3  2868 0001:2CF4
  2869 0001:2CF9  2874 0001:2CFE  2876 0001:2D13  2877 0001:2D18
  2878 0001:2D1B     0 0001:2D23  2881 0001:2D24  2884 0001:2D31
  2889 0001:2D36  2894 0001:2D4B  2895 0001:2D50  2896 0001:2D55
  2897 0001:2D66  2898 0001:2D6B  2903 0001:2D70  2905 0001:2D85
  2906 0001:2D8A  2907 0001:2D8D     0 0001:2D95  2910 0001:2D96
  2913 0001:2DA3  2918 0001:2DA8  2923 0001:2DBD  2924 0001:2DC2
  2925 0001:2DC7  2926 0001:2DD8  2927 0001:2DDD  2932 0001:2DE2
  2934 0001:2DF7  2935 0001:2DFC  2936 0001:2DFF     0 0001:2E07
  2939 0001:2E08  2942 0001:2E15  2947 0001:2E1A  2952 0001:2E2F
  2953 0001:2E34  2954 0001:2E39  2955 0001:2E4D  2956 0001:2E52
  2961 0001:2E57  2963 0001:2E6F  2964 0001:2E74  2965 0001:2E7A
     0 0001:2E83  2968 0001:2E84  2971 0001:2E91  2976 0001:2E96
  2981 0001:2EAA  2982 0001:2EAF  2983 0001:2EB4  2984 0001:2ECB
  2985 0001:2ED0  2990 0001:2ED5  2992 0001:2EEC  2993 0001:2EF1
  2994 0001:2EF4     0 0001:2EFD  2997 0001:2EFE  3000 0001:2F0B
  3005 0001:2F10  3010 0001:2F25  3011 0001:2F2A  3012 0001:2F2F
  3013 0001:2F43  3014 0001:2F48  3019 0001:2F4D  3021 0001:2F65
  3022 0001:2F6A  3023 0001:2F70     0 0001:2F79  3026 0001:2F7A
  3029 0001:2F87  3034 0001:2F8C  3039 0001:2FA0  3040 0001:2FA5
  3041 0001:2FAA  3042 0001:2FC1  3043 0001:2FC6  3048 0001:2FCB
  3050 0001:2FE2  3051 0001:2FE7  3052 0001:2FEA     0 0001:2FF3
  3055 0001:2FF4  3058 0001:3001  3063 0001:3006  3068 0001:3018
  3069 0001:301D  3070 0001:3022  3071 0001:3030  3072 0001:3035
  3077 0001:303A  3079 0001:304D  3080 0001:3052  3081 0001:3055
     0 0001:305D  3084 0001:305E  3087 0001:306B  3092 0001:3070
  3097 0001:3091  3098 0001:3096  3099 0001:309B  3100 0001:30B8
  3101 0001:30BD  3106 0001:30C2  3108 0001:30DD  3109 0001:30E2
  3110 0001:30E5     0 0001:30ED  3113 0001:30EE  3116 0001:30FB
  3121 0001:3100  3126 0001:3127  3127 0001:312C  3128 0001:3131
  3129 0001:3154  3130 0001:3159  3135 0001:315E  3137 0001:317F
  3138 0001:3184  3139 0001:3187     0 0001:318F  3142 0001:3190
  3145 0001:319D  3150 0001:31A2  3155 0001:31C0  3156 0001:31C5
  3157 0001:31CA  3158 0001:31E4  3159 0001:31E9  3164 0001:31EE
  3166 0001:3205  3167 0001:320A  3168 0001:320D     0 0001:3215
  3171 0001:3216  3174 0001:3223  3179 0001:3228  3184 0001:3240
  3185 0001:3245  3186 0001:324A  3187 0001:325E  3188 0001:3263
  3193 0001:3268  3195 0001:327D  3196 0001:3282  3197 0001:3285
     0 0001:328D  3200 0001:328E  3203 0001:329B  3208 0001:32A0
  3213 0001:32B8  3214 0001:32BD  3215 0001:32C2  3216 0001:32D6
  3217 0001:32DB  3222 0001:32E0  3224 0001:32F5  3225 0001:32FA
  3226 0001:32FD     0 0001:3305  3229 0001:3306  3232 0001:3313
  3237 0001:3318  3242 0001:332D  3243 0001:3332  3244 0001:3337
  3245 0001:3348  3246 0001:334D  3251 0001:3352  3253 0001:3367
  3254 0001:336C  3255 0001:336F     0 0001:3377  3258 0001:3378
  3261 0001:3385  3266 0001:338A  3271 0001:339F  3272 0001:33A4
  3273 0001:33A9  3274 0001:33BA  3275 0001:33BF  3280 0001:33C4
  3282 0001:33D9  3283 0001:33DE  3284 0001:33E1     0 0001:33E9
  3287 0001:33EA  3290 0001:33F7  3295 0001:33FC  3300 0001:340C
  3301 0001:3411  3302 0001:3416  3303 0001:3424  3304 0001:3429
  3309 0001:342E  3311 0001:3441  3312 0001:3446  3313 0001:3449
     0 0001:3451  3316 0001:3452  3319 0001:345F  3324 0001:3464
  3329 0001:3474  3330 0001:3479  3331 0001:347E  3332 0001:348C
  3333 0001:3491  3338 0001:3496  3340 0001:34A9  3341 0001:34AE
  3342 0001:34B1     0 0001:34B9  3345 0001:34BA  3348 0001:34C7
  3353 0001:34CC  3358 0001:34E1  3359 0001:34E6  3360 0001:34EB
  3361 0001:34FC  3362 0001:3501  3367 0001:3506  3369 0001:3519
  3370 0001:351E  3371 0001:3521     0 0001:3529  3374 0001:352A
  3377 0001:3537  3382 0001:353C  3387 0001:3551  3388 0001:3556
  3389 0001:355B  3390 0001:356C  3391 0001:3571  3396 0001:3576
  3398 0001:3589  3399 0001:358E  3400 0001:3591     0 0001:3599
  3403 0001:359A  3406 0001:35A7  3411 0001:35AC  3416 0001:35C7
  3417 0001:35CC  3418 0001:35D1  3419 0001:35E8  3420 0001:35ED
  3425 0001:35F2  3427 0001:360B  3428 0001:3610  3429 0001:3613
     0 0001:361B  3432 0001:361C  3435 0001:3629  3440 0001:362E
  3445 0001:3640  3446 0001:3645  3447 0001:364A  3448 0001:3658
  3449 0001:365D  3454 0001:3662  3456 0001:3675  3457 0001:367A
  3458 0001:367D     0 0001:3685  3461 0001:3686  3464 0001:3693
  3469 0001:3698  3474 0001:36AA  3475 0001:36AF  3476 0001:36B4
  3477 0001:36C2  3478 0001:36C7  3483 0001:36CC  3485 0001:36DF
  3486 0001:36E4  3487 0001:36E7     0 0001:36EF  3490 0001:36F0
  3493 0001:36FD  3498 0001:3702  3503 0001:3723  3504 0001:3728
  3505 0001:372D  3506 0001:374A  3507 0001:374F  3512 0001:3754
  3514 0001:3771  3515 0001:3776  3516 0001:3779     0 0001:3781
  3519 0001:3782  3522 0001:378F  3527 0001:3794  3532 0001:37A3
  3533 0001:37A8  3534 0001:37AD  3535 0001:37B8  3536 0001:37BD
  3541 0001:37C2  3543 0001:37D3  3544 0001:37D8  3545 0001:37DB
     0 0001:37E3  3548 0001:37E4  3551 0001:37F1  3556 0001:37F6
  3561 0001:3811  3562 0001:3816  3563 0001:381B  3564 0001:3835
  3565 0001:383A  3570 0001:383F  3572 0001:385B  3573 0001:3860
  3574 0001:3866     0 0001:386F  3577 0001:3870  3580 0001:387D
  3585 0001:3882  3590 0001:389A  3591 0001:389F  3592 0001:38A4
  3593 0001:38C1  3594 0001:38C6  3599 0001:38CB  3601 0001:38E6
  3602 0001:38EB  3603 0001:38EE     0 0001:38F7  3606 0001:38F8
  3609 0001:3905  3614 0001:390A  3619 0001:3925  3620 0001:392A
  3621 0001:392F  3622 0001:3949  3623 0001:394E  3628 0001:3953
  3630 0001:396F  3631 0001:3974  3632 0001:397A     0 0001:3983
  3635 0001:3984  3638 0001:3991  3643 0001:3996  3648 0001:39AE
  3649 0001:39B3  3650 0001:39B8  3651 0001:39D5  3652 0001:39DA
  3657 0001:39DF  3659 0001:39FA  3660 0001:39FF  3661 0001:3A02
     0 0001:3A0B  3664 0001:3A0C  3667 0001:3A19  3672 0001:3A1E
  3677 0001:3A30  3678 0001:3A35  3679 0001:3A3A  3680 0001:3A48
  3681 0001:3A4D  3686 0001:3A52  3688 0001:3A65  3689 0001:3A6A
  3690 0001:3A6D     0 0001:3A75  3698 0001:3A76  3708 0001:3A84
  3711 0001:3A89  3715 0001:3A8E  3719 0001:3A9F  3720 0001:3AA6
  3721 0001:3AB0  3722 0001:3ABA  3725 0001:3AC4  3727 0001:3ADC
  3729 0001:3AF4  3732 0001:3B0C  3734 0001:3B23  3735 0001:3B2B
  3737 0001:3B30  3738 0001:3B35  3740 0001:3B3A  3741 0001:3B3F
  3748 0001:3B44  3763 0001:3B50  3751 0001:3B5C  3769 0001:3B6E
  3770 0001:3B73  3771 0001:3B78  3772 0001:3B86  3773 0001:3B8B
  3777 0001:3B90  3800 0001:3B9C  3755 0001:3BA9  3759 0001:3BB5
  3783 0001:3BC1  3784 0001:3BCE  3787 0001:3BDF  3788 0001:3BFD
  3792 0001:3BFF  3793 0001:3C12  3796 0001:3C14  3804 0001:3C21
  3805 0001:3C26  3806 0001:3C29     0 0001:3C31  3809 0001:3C32
  3812 0001:3C3F  3817 0001:3C44  3822 0001:3C54  3823 0001:3C59
  3824 0001:3C5E  3825 0001:3C6F  3826 0001:3C74  3831 0001:3C79
  3833 0001:3C8C  3834 0001:3C91  3835 0001:3C94     0 0001:3C9D
  3838 0001:3C9E  3841 0001:3CAB  3846 0001:3CB0  3851 0001:3CC5
  3852 0001:3CCA  3853 0001:3CCF  3854 0001:3CE3  3855 0001:3CE8
  3860 0001:3CED  3862 0001:3D05  3863 0001:3D0A  3864 0001:3D10
     0 0001:3D19  3867 0001:3D1A  3870 0001:3D27  3875 0001:3D2C
  3880 0001:3D40  3881 0001:3D45  3882 0001:3D4A  3883 0001:3D61
  3884 0001:3D66  3889 0001:3D6B  3891 0001:3D82  3892 0001:3D87
  3893 0001:3D8A     0 0001:3D93  3896 0001:3D94  3899 0001:3DA1
  3904 0001:3DA6  3909 0001:3DBB  3910 0001:3DC0  3911 0001:3DC5
  3912 0001:3DD9  3913 0001:3DDE  3918 0001:3DE3  3920 0001:3DF9
  3921 0001:3DFE  3922 0001:3E04     0 0001:3E0D  3925 0001:3E0E
  3928 0001:3E1B  3933 0001:3E20  3938 0001:3E32  3939 0001:3E37
  3940 0001:3E3C  3941 0001:3E4A  3942 0001:3E4F  3947 0001:3E54
  3949 0001:3E67  3950 0001:3E6C  3951 0001:3E6F     0 0001:3E77
  3954 0001:3E78  3957 0001:3E85  3962 0001:3E8A  3967 0001:3E9C
  3968 0001:3EA1  3969 0001:3EA6  3970 0001:3EBA  3971 0001:3EBF
  3976 0001:3EC4  3978 0001:3ED9  3979 0001:3EDE  3980 0001:3EE1
     0 0001:3EE9  3983 0001:3EEA  3986 0001:3EF7  3991 0001:3EFC
  3996 0001:3F11  3997 0001:3F16  3998 0001:3F1B  3999 0001:3F2F
  4000 0001:3F34  4005 0001:3F39  4007 0001:3F51  4008 0001:3F56
  4009 0001:3F5C     0 0001:3F65  4012 0001:3F66  4015 0001:3F73
  4020 0001:3F78  4025 0001:3F8A  4026 0001:3F8F  4027 0001:3F94
  4028 0001:3FAB  4029 0001:3FB0  4034 0001:3FB5  4036 0001:3FCA
  4037 0001:3FCF  4038 0001:3FD2     0 0001:3FDB  4041 0001:3FDC
  4044 0001:3FE9  4049 0001:3FEE  4054 0001:4000  4055 0001:4005
  4056 0001:400A  4057 0001:401E  4058 0001:4023  4063 0001:4028
  4065 0001:4040  4066 0001:4045  4067 0001:404B     0 0001:4053
  4070 0001:4054  4073 0001:4061  4078 0001:4066  4083 0001:408D
  4084 0001:4092  4085 0001:4097  4086 0001:40BA  4087 0001:40BF
  4092 0001:40C4  4094 0001:40E1  4095 0001:40E6  4096 0001:40E9
     0 0001:40F1  4099 0001:40F2  4102 0001:40FF  4107 0001:4104
  4112 0001:413A  4113 0001:413F  4114 0001:4144  4115 0001:4176
  4116 0001:417B  4121 0001:4180  4123 0001:41A7  4124 0001:41AC
  4125 0001:41AF     0 0001:41B7  4128 0001:41B8  4131 0001:41C5
  4136 0001:41CA  4141 0001:41E5  4142 0001:41EA  4143 0001:41EF
  4144 0001:4206  4145 0001:420B  4150 0001:4210  4152 0001:4225
  4153 0001:422A  4154 0001:422D     0 0001:4235  4157 0001:4236
  4160 0001:4243  4165 0001:4248  4170 0001:4258  4171 0001:425D
  4172 0001:4262  4173 0001:4270  4174 0001:4275  4179 0001:427A
  4181 0001:428D  4182 0001:4292  4183 0001:4295     0 0001:429D
  4186 0001:429E  4189 0001:42AB  4194 0001:42B0  4199 0001:42C2
  4200 0001:42C7  4201 0001:42CC  4202 0001:42DA  4203 0001:42DF
  4208 0001:42E4  4210 0001:42F7  4211 0001:42FC  4212 0001:42FF
     0 0001:4307  4215 0001:4308  4218 0001:4315  4223 0001:431A
  4228 0001:432F  4229 0001:4334  4230 0001:4339  4231 0001:434D
  4232 0001:4352  4237 0001:4357  4239 0001:436D  4240 0001:4372
  4241 0001:4378     0 0001:4381  4244 0001:4382  4247 0001:438F
  4252 0001:4394  4257 0001:43A2  4258 0001:43A7  4259 0001:43AC
  4260 0001:43B7  4261 0001:43BC  4266 0001:43C1  4268 0001:43D2
  4269 0001:43D7  4270 0001:43DA     0 0001:43E3  4273 0001:43E4
  4276 0001:43F1  4281 0001:43F6  4286 0001:4411  4287 0001:4416
  4288 0001:441B  4289 0001:4432  4290 0001:4437  4295 0001:443C
  4297 0001:4453  4298 0001:4458  4299 0001:445B     0 0001:4463
  4302 0001:4464  4305 0001:4471  4310 0001:4476  4315 0001:4491
  4316 0001:4496  4317 0001:449B  4318 0001:44B5  4319 0001:44BA
  4324 0001:44BF  4326 0001:44D9  4327 0001:44DE  4328 0001:44E4
     0 0001:44ED  4331 0001:44EE  4334 0001:44FB  4339 0001:4500
  4344 0001:4512  4345 0001:4517  4346 0001:451C  4347 0001:452A
  4348 0001:452F  4353 0001:4534  4355 0001:4547  4356 0001:454C
  4357 0001:454F     0 0001:4557  4360 0001:4558  4363 0001:4565
  4368 0001:456A  4373 0001:457C  4374 0001:4581  4375 0001:4586
  4376 0001:4594  4377 0001:4599  4382 0001:459E  4384 0001:45B1
  4385 0001:45B6  4386 0001:45B9     0 0001:45C1  4389 0001:45C2
  4391 0001:45CC  4396 0001:45D1  4401 0001:45EC  4402 0001:45F1
  4403 0001:45F6  4404 0001:460A  4405 0001:460F  4410 0001:4614
  4412 0001:462A  4414 0001:462F     0 0001:4637  4417 0001:4638
  4420 0001:4645  4425 0001:464A  4430 0001:465C  4431 0001:4661
  4432 0001:4666  4433 0001:4674  4434 0001:4679  4439 0001:467E
  4441 0001:4691  4442 0001:4696  4443 0001:4699     0 0001:46A1
  4446 0001:46A2  4449 0001:46AF  4454 0001:46B4  4459 0001:46C6
  4460 0001:46CB  4461 0001:46D0  4462 0001:46DE  4463 0001:46E3
  4468 0001:46E8  4470 0001:46FB  4471 0001:4700  4472 0001:4703
     0 0001:470B  4475 0001:470C  4478 0001:4719  4483 0001:471E
  4488 0001:4730  4489 0001:4735  4490 0001:473A  4491 0001:4748
  4492 0001:474D  4497 0001:4752  4499 0001:4765  4500 0001:476A
  4501 0001:476D     0 0001:4775  4504 0001:4776  4507 0001:4783
  4512 0001:4788  4517 0001:479D  4518 0001:47A2  4519 0001:47A7
  4520 0001:47BB  4521 0001:47C0  4526 0001:47C5  4528 0001:47DD
  4529 0001:47E2  4530 0001:47E8     0 0001:47F1  4533 0001:47F2
  4536 0001:47FF  4541 0001:4804  4546 0001:4818  4547 0001:481D
  4548 0001:4822  4549 0001:4839  4550 0001:483E  4555 0001:4843
  4557 0001:485A  4558 0001:485F  4559 0001:4862     0 0001:486B
  4562 0001:486C  4565 0001:4879  4570 0001:487E  4575 0001:4893
  4576 0001:4898  4577 0001:489D  4578 0001:48B1  4579 0001:48B6
  4584 0001:48BB  4586 0001:48D3  4587 0001:48D8  4588 0001:48DE
     0 0001:48E7  4591 0001:48E8  4594 0001:48F5  4599 0001:48FA
  4604 0001:490E  4605 0001:4913  4606 0001:4918  4607 0001:492F
  4608 0001:4934  4613 0001:4939  4615 0001:4950  4616 0001:4955
  4617 0001:4958     0 0001:4961  4620 0001:4962  4623 0001:496F
  4628 0001:4974  4633 0001:4989  4634 0001:498E  4635 0001:4993
  4636 0001:49A7  4637 0001:49AC  4642 0001:49B1  4644 0001:49C9
  4645 0001:49CE  4646 0001:49D4     0 0001:49DD  4649 0001:49DE
  4652 0001:49EB  4657 0001:49F0  4662 0001:4A04  4663 0001:4A09
  4664 0001:4A0E  4665 0001:4A25  4666 0001:4A2A  4671 0001:4A2F
  4673 0001:4A46  4674 0001:4A4B  4675 0001:4A4E     0 0001:4A57
  4678 0001:4A58  4681 0001:4A65  4686 0001:4A6A  4691 0001:4A7F
  4692 0001:4A84  4693 0001:4A89  4694 0001:4A9D  4695 0001:4AA2
  4700 0001:4AA7  4702 0001:4ABF  4703 0001:4AC4  4704 0001:4ACA
     0 0001:4AD3  4707 0001:4AD4  4710 0001:4AE1  4715 0001:4AE6
  4720 0001:4AFA  4721 0001:4AFF  4722 0001:4B04  4723 0001:4B1B
  4724 0001:4B20  4729 0001:4B25  4731 0001:4B3C  4732 0001:4B41
  4733 0001:4B44     0 0001:4B4D  4736 0001:4B4E  4739 0001:4B5B
  4744 0001:4B60  4749 0001:4B74  4750 0001:4B79  4751 0001:4B7E
  4752 0001:4B9E  4753 0001:4BA3  4758 0001:4BA8  4760 0001:4BBF
  4761 0001:4BC4  4762 0001:4BC7     0 0001:4BCF  4765 0001:4BD0
  4768 0001:4BDD  4773 0001:4BE2  4778 0001:4BF2  4779 0001:4BF7
  4780 0001:4BFC  4781 0001:4C0D  4782 0001:4C12  4787 0001:4C17
  4789 0001:4C2A  4790 0001:4C2F  4791 0001:4C32     0 0001:4C3B
  4794 0001:4C3C  4797 0001:4C49  4802 0001:4C4E  4807 0001:4C5C
  4808 0001:4C61  4809 0001:4C66  4810 0001:4C71  4811 0001:4C76
  4816 0001:4C7B  4818 0001:4C8C  4819 0001:4C91  4820 0001:4C94
     0 0001:4C9D  4823 0001:4C9E  4826 0001:4CAB  4831 0001:4CB0
  4836 0001:4CE0  4837 0001:4CE5  4838 0001:4CEA  4839 0001:4D16
  4840 0001:4D1B  4845 0001:4D20  4847 0001:4D45  4848 0001:4D4A
  4849 0001:4D4D     0 0001:4D55  4852 0001:4D56  4855 0001:4D63
  4860 0001:4D68  4865 0001:4DA4  4866 0001:4DA9  4867 0001:4DAE
  4868 0001:4DE6  4869 0001:4DEB  4874 0001:4DF0  4876 0001:4E19
  4877 0001:4E1E  4878 0001:4E21     0 0001:4E29  4881 0001:4E2A
  4884 0001:4E37  4889 0001:4E3C  4894 0001:4E4B  4895 0001:4E50
  4896 0001:4E55  4897 0001:4E60  4898 0001:4E65  4903 0001:4E6A
  4905 0001:4E7B  4906 0001:4E80  4907 0001:4E83     0 0001:4E8B
  4910 0001:4E8C  4913 0001:4E99  4918 0001:4E9E  4923 0001:4EAD
  4924 0001:4EB2  4925 0001:4EB7  4926 0001:4EC2  4927 0001:4EC7
  4932 0001:4ECC  4934 0001:4EDD  4935 0001:4EE2  4936 0001:4EE5
     0 0001:4EED

Line numbers for tgfont.obj(tgfont.c) segment TGFONT_TEXT

     9 0002:0000    12 0002:000D    17 0002:0012    22 0002:0024
    23 0002:0029    24 0002:002E    25 0002:003C    26 0002:0041
    31 0002:0046    33 0002:0057    34 0002:005C    35 0002:005F
     0 0002:0067    38 0002:0068    41 0002:0075    46 0002:007A
    51 0002:00BD    52 0002:00C2    53 0002:00C7    54 0002:0104
    55 0002:0109    60 0002:010E    62 0002:0139    63 0002:013E
    64 0002:0141     0 0002:0149    67 0002:014A    70 0002:0157
    75 0002:015C    80 0002:016E    81 0002:0173    82 0002:0178
    83 0002:0186    84 0002:018B    89 0002:0190    91 0002:01A1
    92 0002:01A6    93 0002:01A9     0 0002:01B1    96 0002:01B2
    99 0002:01BF   104 0002:01C4   109 0002:01D3   110 0002:01D8
   111 0002:01DD   112 0002:01EB   113 0002:01F0   118 0002:01F5
   120 0002:0209   121 0002:020E   122 0002:0214     0 0002:021D
   125 0002:021E   128 0002:022B   133 0002:0230   138 0002:0242
   139 0002:0247   140 0002:024C   141 0002:025A   142 0002:025F
   147 0002:0264   149 0002:0275   150 0002:027A   151 0002:027D
     0 0002:0285

Line numbers for tgmeta.obj(tgmeta.c) segment TGMETA_TEXT

     9 0003:0000    12 0003:000D    17 0003:0012    22 0003:0021
    23 0003:0026    24 0003:002B    25 0003:0036    26 0003:003B
    31 0003:0040    33 0003:0051    34 0003:0056    35 0003:0059
     0 0003:0061    38 0003:0062    41 0003:006F    46 0003:0074
    51 0003:0089    52 0003:008E    53 0003:0093    54 0003:00A4
    55 0003:00A9    60 0003:00AE    62 0003:00C1    63 0003:00C6
    64 0003:00C9     0 0003:00D1    67 0003:00D2    70 0003:00DF
    75 0003:00E4    80 0003:00F6    81 0003:00FB    82 0003:0100
    83 0003:010E    84 0003:0113    89 0003:0118    91 0003:0129
    92 0003:012E    93 0003:0131     0 0003:0139    96 0003:013A
    99 0003:0147   104 0003:014C   109 0003:016A   110 0003:016F
   111 0003:0174   112 0003:018E   113 0003:0193   118 0003:0198
   120 0003:01AF   121 0003:01B4   122 0003:01B7     0 0003:01BF
   125 0003:01C0   128 0003:01CD   133 0003:01D2   138 0003:01E4
   139 0003:01E9   140 0003:01EE   141 0003:01FC   142 0003:0201
   147 0003:0206   149 0003:0217   150 0003:021C   151 0003:021F
     0 0003:0227   154 0003:0228   157 0003:0235   162 0003:023A
   167 0003:0249   168 0003:024E   169 0003:0253   170 0003:025E
   171 0003:0263   176 0003:0268   178 0003:0279   179 0003:027E
   180 0003:0281     0 0003:0289   183 0003:028A   186 0003:0297
   191 0003:029C   196 0003:02AE   197 0003:02B3   198 0003:02B8
   199 0003:02C6   200 0003:02CB   205 0003:02D0   207 0003:02E3
   208 0003:02E8   209 0003:02EB     0 0003:02F3   212 0003:02F4
   214 0003:02FE   219 0003:0303   224 0003:0321   225 0003:0326
   226 0003:032B   227 0003:0342   228 0003:0347   233 0003:034C
   235 0003:0360   237 0003:0365     0 0003:036D   240 0003:036E
   243 0003:037B   248 0003:0380   253 0003:038F   254 0003:0394
   255 0003:0399   256 0003:03A4   257 0003:03A9   262 0003:03AE
   264 0003:03BF   265 0003:03C4   266 0003:03C7     0 0003:03CF

Line numbers for tgtext.obj(tgtext.c) segment TGTEXT_TEXT

     9 0004:0000    12 0004:000D    17 0004:0012    22 0004:0021
    23 0004:0026    24 0004:002B    25 0004:0036    26 0004:003B
    31 0004:0040    33 0004:0051    34 0004:0056    35 0004:0059
     0 0004:0061    38 0004:0062    41 0004:006F    46 0004:0074
    51 0004:0083    52 0004:0088    53 0004:008D    54 0004:0098
    55 0004:009D    60 0004:00A2    62 0004:00B3    63 0004:00B8
    64 0004:00BB     0 0004:00C3    67 0004:00C4    70 0004:00D1
    75 0004:00D6    80 0004:00E5    81 0004:00EA    82 0004:00EF
    83 0004:00FD    84 0004:0102    89 0004:0107    91 0004:011B
    92 0004:0120    93 0004:0126     0 0004:012F    96 0004:0130
    99 0004:013D   104 0004:0142   109 0004:015A   110 0004:015F
   111 0004:0164   112 0004:017B   113 0004:0180   118 0004:0185
   120 0004:019D   121 0004:01A2   122 0004:01A8     0 0004:01B1
   125 0004:01B2   128 0004:01BF   133 0004:01C4   138 0004:01D8
   139 0004:01DD   140 0004:01E2   141 0004:01F6   142 0004:01FB
   147 0004:0200   149 0004:0219   150 0004:021E   151 0004:0221
     0 0004:0229   154 0004:022A   157 0004:0237   162 0004:023C
   167 0004:024D   168 0004:0252   169 0004:0257   170 0004:0268
   171 0004:026D   176 0004:0272   178 0004:0289   179 0004:028E
   180 0004:0291     0 0004:0299   183 0004:029A   186 0004:02A7
   191 0004:02AC   196 0004:02BE   197 0004:02C3   198 0004:02C8
   199 0004:02D6   200 0004:02DB   205 0004:02E0   207 0004:02F3
   208 0004:02F8   209 0004:02FB     0 0004:0303   212 0004:0304
   215 0004:0311   220 0004:0316   225 0004:0328   226 0004:032D
   227 0004:0332   228 0004:0340   229 0004:0345   234 0004:034A
   236 0004:035D   237 0004:0362   238 0004:0365     0 0004:036D
   241 0004:036E   244 0004:037B   249 0004:0380   254 0004:0395
   255 0004:039A   256 0004:039F   257 0004:03B3   258 0004:03B8
   263 0004:03BD   265 0004:03D3   266 0004:03D8   267 0004:03DE
     0 0004:03E7   270 0004:03E8   273 0004:03F5   278 0004:03FA
   283 0004:040F   284 0004:0414   285 0004:0419   286 0004:042A
   287 0004:042F   292 0004:0434   294 0004:0449   295 0004:044E
   296 0004:0451     0 0004:0459   299 0004:045A   302 0004:0467
   307 0004:046C   312 0004:048A   313 0004:048F   314 0004:0494
   315 0004:04AE   316 0004:04B3   321 0004:04B8   323 0004:04D1
   324 0004:04D6   325 0004:04D9     0 0004:04E1

Line numbers for trace.obj(trace.c) segment TRACE_TEXT

    18 0007:0000    22 0007:000D    24 0007:002E    25 0007:0033
    26 0007:0056    29 0007:005B    31 0007:007F    32 0007:0085
     0 0007:008D    41 0007:008E    45 0007:009B    47 0007:00BC
    48 0007:00C1    49 0007:00E1    52 0007:00E6    54 0007:010A
    55 0007:010D     0 0007:0115    59 0007:0116    66 0007:0125
    70 0007:013B    73 0007:015B    78 0007:016F    79 0007:0174
    80 0007:0181    85 0007:0186    87 0007:0197    88 0007:019A
     0 0007:01A5    92 0007:01A6    96 0007:01B3   100 0007:01B8
   102 0007:01C2   109 0007:01DA   114 0007:01F6   115 0007:01FB
   116 0007:0200   117 0007:021A   118 0007:021F   123 0007:0224
   125 0007:023B   126 0007:0240   127 0007:0243     0 0007:024B
   130 0007:024C   134 0007:0259   142 0007:025E   144 0007:0268
   151 0007:0280   156 0007:029C   157 0007:02A1   158 0007:02A6
   159 0007:02C0   160 0007:02C5   165 0007:02CA   167 0007:02E1
   168 0007:02E6   169 0007:02E9     0 0007:02F1   172 0007:02F2
   176 0007:02FF   180 0007:0304   182 0007:030E   189 0007:0326
   194 0007:0348   195 0007:034D   196 0007:0352   197 0007:0372
   198 0007:0377   203 0007:037C   205 0007:0395   206 0007:039A
   207 0007:039D     0 0007:03A5   210 0007:03A6   214 0007:03B3
   218 0007:03B8   220 0007:03C2   227 0007:03DA   232 0007:03FC
   233 0007:0401   234 0007:0406   235 0007:0426   236 0007:042B
   241 0007:0430   243 0007:0449   244 0007:044E   245 0007:0451
     0 0007:0459   249 0007:045A   253 0007:0467   257 0007:046C
   259 0007:0476   266 0007:048E   271 0007:04AA   272 0007:04AF
   273 0007:04B4   274 0007:04CE   275 0007:04D3   280 0007:04D8
   282 0007:04EF   283 0007:04F4   284 0007:04F7     0 0007:04FF
   287 0007:0500   291 0007:050D   295 0007:0512   297 0007:051C
   304 0007:0534   309 0007:054D   310 0007:0552   311 0007:0557
   312 0007:056E   313 0007:0573   318 0007:0578   320 0007:058F
   321 0007:0594   322 0007:0597     0 0007:059F   325 0007:05A0
   329 0007:05AD   333 0007:05B2   335 0007:05BC   342 0007:05D4
   347 0007:05F3   348 0007:05F8   349 0007:05FD   350 0007:061A
   351 0007:061F   356 0007:0624   358 0007:063D   359 0007:0642
   360 0007:0645     0 0007:064D   363 0007:064E   367 0007:065B
   371 0007:0660   373 0007:066A   380 0007:0682   385 0007:06A4
   386 0007:06A9   387 0007:06AE   388 0007:06CE   389 0007:06D3
   394 0007:06D8   396 0007:06F1   397 0007:06F6   398 0007:06F9
     0 0007:0701   415 0007:0702   419 0007:070F   421 0007:072D
   422 0007:0732   423 0007:0752   426 0007:0757   428 0007:0778
   429 0007:077E     0 0007:0787   438 0007:0788   442 0007:0795
   444 0007:07B3   445 0007:07B8   446 0007:07D8   449 0007:07DD
   451 0007:07FE   452 0007:0804     0 0007:080D   461 0007:080E
   465 0007:081B   467 0007:0839   468 0007:083E   469 0007:085E
   472 0007:0863   474 0007:0884   475 0007:088A     0 0007:0893
   484 0007:0894   488 0007:08A1   490 0007:08BF   491 0007:08C4
   492 0007:08E4   495 0007:08E9   497 0007:090A   498 0007:0910
     0 0007:0919   507 0007:091A   511 0007:0927   513 0007:0945
   514 0007:094A   515 0007:096A   518 0007:096F   520 0007:0990
   521 0007:0996     0 0007:099F   530 0007:09A0   534 0007:09AD
   536 0007:09CB   537 0007:09D0   538 0007:09F0   541 0007:09F5
   543 0007:0A16   544 0007:0A1C     0 0007:0A25   553 0007:0A26
   557 0007:0A33   559 0007:0A51   560 0007:0A56   561 0007:0A76
   564 0007:0A7B   566 0007:0A9C   567 0007:0AA2     0 0007:0AAB
   575 0007:0AAC   579 0007:0AB9   581 0007:0AD7   582 0007:0ADC
   583 0007:0AFC   586 0007:0B01   588 0007:0B22   589 0007:0B28
     0 0007:0B31   597 0007:0B32   601 0007:0B3F   603 0007:0B5D
   604 0007:0B62   605 0007:0B82   608 0007:0B87   610 0007:0BA8
   611 0007:0BAE     0 0007:0BB7   619 0007:0BB8   623 0007:0BC5
   625 0007:0BE3   626 0007:0BE8   627 0007:0C08   630 0007:0C0D
   632 0007:0C2E   633 0007:0C34     0 0007:0C3D   638 0007:0C3E
   643 0007:0C4B   648 0007:0C50   649 0007:0C6D   651 0007:0C72
   655 0007:0C78   656 0007:0C92   660 0007:0C95   665 0007:0CA3
   670 0007:0CB1   675 0007:0CBF   680 0007:0CCD   685 0007:0CDB
   689 0007:0CE9   693 0007:0CF7   697 0007:0D06   700 0007:0D15
   701 0007:0D1A   707 0007:0D40   708 0007:0D45   709 0007:0D4A
   710 0007:0D5E   711 0007:0D63   716 0007:0D68   718 0007:0D6E
   719 0007:0D84   721 0007:0D86   724 0007:0DA0   725 0007:0DA5
   726 0007:0DAB     0 0007:0DB3   730 0007:0DB4   734 0007:0DC1
   739 0007:0DC6   742 0007:0DDB   743 0007:0DF3   749 0007:0DFF
   750 0007:0E04   751 0007:0E09   752 0007:0E1A   753 0007:0E1F
   758 0007:0E24   760 0007:0E37   761 0007:0E3C   762 0007:0E3F
     0 0007:0E47   776 0007:0E48   780 0007:0E55   782 0007:0E73
   783 0007:0E78   784 0007:0E95   787 0007:0E9A   789 0007:0EB8
   791 0007:0EBB     0 0007:0EC3   799 0007:0EC4   803 0007:0ED1
   805 0007:0EEF   806 0007:0EF4   807 0007:0F11   810 0007:0F16
   812 0007:0F34   814 0007:0F37     0 0007:0F3F   818 0007:0F40
   822 0007:0F4D   827 0007:0F52   829 0007:0F70   830 0007:0F76
   832 0007:0F84   837 0007:0F9E   838 0007:0FA3   839 0007:0FA8
   840 0007:0FC2   841 0007:0FC7   846 0007:0FCC   848 0007:0FE3
   849 0007:0FE8   850 0007:0FEB     0 0007:0FF3   863 0007:0FF4
   867 0007:1001   869 0007:1028   870 0007:102D   871 0007:1053
   874 0007:1058   876 0007:107F   878 0007:1082     0 0007:108B
   882 0007:108C   886 0007:1099   891 0007:109E   898 0007:10BF
   903 0007:10D9   904 0007:10DE   905 0007:10E3   906 0007:1100
   907 0007:1105   912 0007:110A   914 0007:1121   915 0007:1126
   916 0007:1129     0 0007:1131   925 0007:1132   929 0007:113F
   931 0007:1166   932 0007:116B   933 0007:1191   936 0007:1196
   938 0007:11BD   940 0007:11C0     0 0007:11C9   943 0007:11CA
   947 0007:11D7   952 0007:11DC   959 0007:11F0   964 0007:120A
   965 0007:120F   966 0007:1214   967 0007:1231   968 0007:1236
   973 0007:123B   975 0007:1252   976 0007:1257   977 0007:125A
     0 0007:1263   985 0007:1264   989 0007:1271   991 0007:128C
   992 0007:1291   993 0007:12AB   996 0007:12B0   998 0007:12CB
  1000 0007:12CE     0 0007:12D7  1003 0007:12D8  1006 0007:12E5
  1011 0007:12EA  1013 0007:1305  1018 0007:131F  1019 0007:1324
  1020 0007:1329  1021 0007:1340  1022 0007:1345  1027 0007:134A
  1029 0007:135F  1030 0007:1364  1031 0007:1367     0 0007:136F
  1034 0007:1370  1039 0007:137D  1043 0007:1382  1044 0007:1388
  1045 0007:13A2  1046 0007:13A4  1049 0007:13AC  1051 0007:13C8
  1052 0007:13CE  1057 0007:13DA  1058 0007:13DF  1059 0007:13E4
  1060 0007:13FB  1061 0007:1400  1063 0007:1405  1066 0007:140B
  1067 0007:142B  1075 0007:1437  1077 0007:144F  1078 0007:1454
  1079 0007:145A     0 0007:1463  1092 0007:1464  1096 0007:1471
  1098 0007:1492  1099 0007:1497  1100 0007:14B7  1103 0007:14BC
  1105 0007:14DD  1106 0007:14E0     0 0007:14E9  1109 0007:14EA
  1112 0007:14F7  1117 0007:14FC  1119 0007:1517  1120 0007:151F
  1126 0007:1539  1127 0007:153E  1128 0007:1543  1129 0007:155A
  1130 0007:155F  1135 0007:1564  1137 0007:157B  1138 0007:1580
  1139 0007:1583     0 0007:158B  1170 0007:158C  1174 0007:1599
  1175 0007:159E  1194 0007:15A4  1197 0007:15AB  1199 0007:15C2
  1200 0007:15C7  1201 0007:15CC  1202 0007:15E3  1203 0007:15EE
  1204 0007:15F3  1206 0007:15F8  1208 0007:160F  1217 0007:1611
  1218 0007:162E  1219 0007:1633  1222 0007:1638  1223 0007:165D
  1224 0007:1662  1226 0007:1667  1230 0007:1688  1231 0007:1694
  1232 0007:1699  1236 0007:169F  1252 0007:16BE  1254 0007:16D7
  1255 0007:16ED  1256 0007:16F2  1285 0007:16F7  1287 0007:16FD
  1290 0007:1714  1291 0007:1731  1292 0007:1736  1293 0007:173B
  1294 0007:1758  1295 0007:175D  1297 0007:1762  1306 0007:177D
  1308 0007:179A  1309 0007:17B5  1310 0007:17BA  1315 0007:17BF
  1317 0007:17DC  1322 0007:1837     0 0007:183F  1325 0007:1840
  1328 0007:184D  1333 0007:1852  1338 0007:1864  1339 0007:1869
  1340 0007:186E  1341 0007:187C  1342 0007:1881  1349 0007:1886
  1350 0007:188C  1356 0007:1890  1358 0007:18A3  1359 0007:18A8
  1360 0007:18AB     0 0007:18B3  1364 0007:18B4  1367 0007:18C1
  1372 0007:18C6  1377 0007:18EA  1378 0007:18EF  1379 0007:18F4
  1380 0007:1914  1381 0007:1919  1386 0007:191E  1388 0007:1935
  1389 0007:193A  1390 0007:193D     0 0007:1945  1393 0007:1946
  1396 0007:1953  1401 0007:1958  1406 0007:197C  1407 0007:1981
  1408 0007:1986  1409 0007:19A6  1410 0007:19AB  1415 0007:19B0
  1417 0007:19C7  1418 0007:19CC  1419 0007:19CF     0 0007:19D7
  1422 0007:19D8  1425 0007:19E5  1430 0007:19EA  1435 0007:1A0B
  1436 0007:1A10  1437 0007:1A15  1438 0007:1A2F  1439 0007:1A34
  1444 0007:1A39  1446 0007:1A51  1447 0007:1A56  1448 0007:1A5C
     0 0007:1A65  1451 0007:1A66  1453 0007:1A70  1458 0007:1A75
  1463 0007:1A83  1464 0007:1A88  1465 0007:1A8D  1466 0007:1A98
  1467 0007:1A9D  1472 0007:1AA2  1474 0007:1AB9  1476 0007:1ABE
     0 0007:1AC7  1479 0007:1AC8  1481 0007:1AD2  1486 0007:1AD7
  1491 0007:1AEE  1492 0007:1AF3  1493 0007:1AF8  1494 0007:1B03
  1495 0007:1B08  1500 0007:1B0D  1502 0007:1B1B  1504 0007:1B20
     0 0007:1B29  1507 0007:1B2A  1510 0007:1B37  1515 0007:1B3C
  1520 0007:1B53  1521 0007:1B58  1522 0007:1B5D  1523 0007:1B74
  1524 0007:1B79  1529 0007:1B7E  1531 0007:1BA1  1532 0007:1BA6
  1533 0007:1BA9     0 0007:1BB1  1536 0007:1BB2  1539 0007:1BBF
  1544 0007:1BC4  1549 0007:1BF4  1550 0007:1BF9  1551 0007:1BFE
  1552 0007:1C27  1553 0007:1C2C  1558 0007:1C31  1560 0007:1C50
  1561 0007:1C55  1562 0007:1C58     0 0007:1C61  1567 0007:1C62
  1570 0007:1C6F  1575 0007:1C74  1580 0007:1C89  1581 0007:1C8E
  1582 0007:1C93  1583 0007:1CA4  1584 0007:1CA9  1589 0007:1CAE
  1591 0007:1CC1  1592 0007:1CC6  1593 0007:1CC9     0 0007:1CD1
  1596 0007:1CD2  1600 0007:1CDF  1607 0007:1CE4  1609 0007:1D1B
  1611 0007:1D23  1617 0007:1D2F  1618 0007:1D34  1619 0007:1D39
  1620 0007:1D59  1621 0007:1D5E  1626 0007:1D63  1628 0007:1D7F
  1629 0007:1D84  1630 0007:1D8A     0 0007:1D93

Program entry point at 0008:0000
